; ModuleID = 'build_script_build.2a069981cea378ed-cgu.0'
source_filename = "build_script_build.2a069981cea378ed-cgu.0"
target datalayout = "e-m:e-p270:32:32-p271:32:32-p272:64:64-i64:64-i128:128-f80:128-n8:16:32:64-S128"
target triple = "x86_64-unknown-linux-gnu"

%"alloc::boxed::Box<dyn core::ops::function::FnMut() -> core::result::Result<(), std::io::error::Error> + core::marker::Send + core::marker::Sync>" = type { %"core::ptr::unique::Unique<dyn core::ops::function::FnMut() -> core::result::Result<(), std::io::error::Error> + core::marker::Send + core::marker::Sync>", %"alloc::alloc::Global" }
%"core::ptr::unique::Unique<dyn core::ops::function::FnMut() -> core::result::Result<(), std::io::error::Error> + core::marker::Send + core::marker::Sync>" = type { %"core::ptr::non_null::NonNull<dyn core::ops::function::FnMut() -> core::result::Result<(), std::io::error::Error> + core::marker::Send + core::marker::Sync>", %"core::marker::PhantomData<dyn core::ops::function::FnMut() -> core::result::Result<(), std::io::error::Error> + core::marker::Send + core::marker::Sync>" }
%"core::ptr::non_null::NonNull<dyn core::ops::function::FnMut() -> core::result::Result<(), std::io::error::Error> + core::marker::Send + core::marker::Sync>" = type { { ptr, ptr } }
%"core::marker::PhantomData<dyn core::ops::function::FnMut() -> core::result::Result<(), std::io::error::Error> + core::marker::Send + core::marker::Sync>" = type {}
%"alloc::alloc::Global" = type {}
%"alloc::ffi::c_str::CString" = type { %"alloc::boxed::Box<[u8]>" }
%"alloc::boxed::Box<[u8]>" = type { %"core::ptr::unique::Unique<[u8]>", %"alloc::alloc::Global" }
%"core::ptr::unique::Unique<[u8]>" = type { %"core::ptr::non_null::NonNull<[u8]>", %"core::marker::PhantomData<[u8]>" }
%"core::ptr::non_null::NonNull<[u8]>" = type { { ptr, i64 } }
%"core::marker::PhantomData<[u8]>" = type {}
%"core::fmt::rt::Argument<'_>" = type { %"core::fmt::rt::ArgumentType<'_>" }
%"core::fmt::rt::ArgumentType<'_>" = type { [1 x i64], ptr }
%"core::mem::maybe_uninit::MaybeUninit<std::ffi::os_str::OsString>" = type { [3 x i64] }
%"core::mem::maybe_uninit::MaybeUninit<core::option::Option<std::ffi::os_str::OsString>>" = type { [3 x i64] }

@0 = private unnamed_addr constant <{ [8 x i8], [4 x i8], [4 x i8] }> <{ [8 x i8] undef, [4 x i8] c"\00\00\11\00", [4 x i8] undef }>, align 8
@1 = private unnamed_addr constant <{ [8 x i8], [8 x i8] }> <{ [8 x i8] zeroinitializer, [8 x i8] undef }>, align 8
@alloc_a500d906b91607583596fa15e63c2ada = private unnamed_addr constant <{ [40 x i8] }> <{ [40 x i8] c"internal error: entered unreachable code" }>, align 1
@alloc_14183c395209850fc094550c6f312111 = private unnamed_addr constant <{ [95 x i8] }> <{ [95 x i8] c"/home/arsalan/Documents/Github/unsafe-rust-benchmark/library/std/src/io/error/repr_bitpacked.rs" }>, align 1
@alloc_0454db1a094b688b9e12d48e39c001e6 = private unnamed_addr constant <{ ptr, [16 x i8] }> <{ ptr @alloc_14183c395209850fc094550c6f312111, [16 x i8] c"_\00\00\00\00\00\00\00\1C\01\00\00\0D\00\00\00" }>, align 8
@vtable.0 = private unnamed_addr constant <{ [24 x i8], ptr, ptr, ptr }> <{ [24 x i8] c"\00\00\00\00\00\00\00\00\08\00\00\00\00\00\00\00\08\00\00\00\00\00\00\00", ptr @"_ZN4core3ops8function6FnOnce40call_once$u7b$$u7b$vtable.shim$u7d$$u7d$17h9cefed91ac7dd19aE", ptr @"_ZN3std2rt10lang_start28_$u7b$$u7b$closure$u7d$$u7d$17h4d04a1ab745072d6E", ptr @"_ZN3std2rt10lang_start28_$u7b$$u7b$closure$u7d$$u7d$17h4d04a1ab745072d6E" }>, align 8
@alloc_ae6dc619079e3c3b08144a35532ecff7 = private unnamed_addr constant <{ [2 x i8] }> <{ [2 x i8] c"()" }>, align 1
@alloc_424341b75ece3fa20496f1c69b9fb0ac = private unnamed_addr constant <{ [111 x i8] }> <{ [111 x i8] c"unsafe precondition(s) violated: ptr::write_bytes requires that the destination pointer is aligned and non-null" }>, align 1
@alloc_fad0cd83b7d1858a846a172eb260e593 = private unnamed_addr constant <{ [42 x i8] }> <{ [42 x i8] c"is_aligned_to: align is not a power-of-two" }>, align 1
@alloc_041983ee8170efdaaf95ba67fd072d26 = private unnamed_addr constant <{ ptr, [8 x i8] }> <{ ptr @alloc_fad0cd83b7d1858a846a172eb260e593, [8 x i8] c"*\00\00\00\00\00\00\00" }>, align 8
@alloc_1cb116c55cd0edb3d6bef8847f58e222 = private unnamed_addr constant <{ [86 x i8] }> <{ [86 x i8] c"/home/arsalan/Documents/Github/unsafe-rust-benchmark/library/core/src/ptr/const_ptr.rs" }>, align 1
@alloc_03d266dccd993e13de22250e3dccd7d7 = private unnamed_addr constant <{ ptr, [16 x i8] }> <{ ptr @alloc_1cb116c55cd0edb3d6bef8847f58e222, [16 x i8] c"V\00\00\00\00\00\00\00\86\06\00\00\0D\00\00\00" }>, align 8
@alloc_d30a741e02fc5ea2d050c92e901091a3 = private unnamed_addr constant <{ [69 x i8] }> <{ [69 x i8] c"unsafe precondition(s) violated: usize::unchecked_sub cannot overflow" }>, align 1
@alloc_d83bad394aa3743d4316ebb57a3b65ab = private unnamed_addr constant <{ [92 x i8] }> <{ [92 x i8] c"unsafe precondition(s) violated: NonZero::new_unchecked requires the argument to be non-zero" }>, align 1
@alloc_20b3d155afd5c58c42e598b7e6d186ef = private unnamed_addr constant <{ [93 x i8] }> <{ [93 x i8] c"unsafe precondition(s) violated: NonNull::new_unchecked requires that the pointer is non-null" }>, align 1
@alloc_ec595fc0e82ef92fc59bd74f68296eae = private unnamed_addr constant <{ [73 x i8] }> <{ [73 x i8] c"assertion failed: 0 < pointee_size && pointee_size <= isize::MAX as usize" }>, align 1
@alloc_cedbb71194daee93c1287f403fa88727 = private unnamed_addr constant <{ ptr, [16 x i8] }> <{ ptr @alloc_1cb116c55cd0edb3d6bef8847f58e222, [16 x i8] c"V\00\00\00\00\00\00\00p\03\00\00\09\00\00\00" }>, align 8
@2 = private unnamed_addr constant <{ [4 x i8], [4 x i8] }> <{ [4 x i8] zeroinitializer, [4 x i8] undef }>, align 4
@alloc_2e749ba99c833073cec5ec5cf7e2f49b = private unnamed_addr constant <{ [85 x i8] }> <{ [85 x i8] c"/home/arsalan/Documents/Github/unsafe-rust-benchmark/library/core/src/char/methods.rs" }>, align 1
@alloc_57859aeb3d01b34b21a99a66643e2791 = private unnamed_addr constant <{ ptr, [16 x i8] }> <{ ptr @alloc_2e749ba99c833073cec5ec5cf7e2f49b, [16 x i8] c"U\00\00\00\00\00\00\00\05\07\00\00\0D\00\00\00" }>, align 8
@alloc_6b031f9bca8204235732c7c365d04a1d = private unnamed_addr constant <{ [18 x i8] }> <{ [18 x i8] c"encode_utf8: need " }>, align 1
@alloc_28d13efb0f9a95ccb5d02ec33dd195cf = private unnamed_addr constant <{ [19 x i8] }> <{ [19 x i8] c" bytes to encode U+" }>, align 1
@alloc_0d928972d2befd736e581c7fcc5a2f9a = private unnamed_addr constant <{ [21 x i8] }> <{ [21 x i8] c", but the buffer has " }>, align 1
@alloc_d51214f097f67314513b76e97e13aa6b = private unnamed_addr constant <{ ptr, [8 x i8], ptr, [8 x i8], ptr, [8 x i8] }> <{ ptr @alloc_6b031f9bca8204235732c7c365d04a1d, [8 x i8] c"\12\00\00\00\00\00\00\00", ptr @alloc_28d13efb0f9a95ccb5d02ec33dd195cf, [8 x i8] c"\13\00\00\00\00\00\00\00", ptr @alloc_0d928972d2befd736e581c7fcc5a2f9a, [8 x i8] c"\15\00\00\00\00\00\00\00" }>, align 8
@alloc_054e99fbcf449d4476ca571e33a9e487 = private unnamed_addr constant <{ ptr, [16 x i8] }> <{ ptr @alloc_2e749ba99c833073cec5ec5cf7e2f49b, [16 x i8] c"U\00\00\00\00\00\00\00\FE\06\00\00\0E\00\00\00" }>, align 8
@alloc_1eb6f53a157dccb32488e066ad957e6d = private unnamed_addr constant <{ [82 x i8] }> <{ [82 x i8] c"unsafe precondition(s) violated: hint::unreachable_unchecked must never be reached" }>, align 1
@alloc_6ef15161d96b83184bb59cff4003839f = private unnamed_addr constant <{ [85 x i8] }> <{ [85 x i8] c"/home/arsalan/Documents/Github/unsafe-rust-benchmark/library/core/src/alloc/layout.rs" }>, align 1
@alloc_a9c36de80897ff407f24bba36ae610b4 = private unnamed_addr constant <{ ptr, [16 x i8] }> <{ ptr @alloc_6ef15161d96b83184bb59cff4003839f, [16 x i8] c"U\00\00\00\00\00\00\00\C3\01\00\00)\00\00\00" }>, align 8
@alloc_c47f388a2f284dde179cf1caf251ef44 = private unnamed_addr constant <{ [82 x i8] }> <{ [82 x i8] c"/home/arsalan/Documents/Github/unsafe-rust-benchmark/library/core/src/slice/mod.rs" }>, align 1
@alloc_c64833276dcb5250e04ff430ea42f372 = private unnamed_addr constant <{ ptr, [16 x i8] }> <{ ptr @alloc_c47f388a2f284dde179cf1caf251ef44, [16 x i8] c"R\00\00\00\00\00\00\00\00\0A\00\00+\00\00\00" }>, align 8
@alloc_0523a51abf2885f34a27031fa28ece4b = private unnamed_addr constant <{ [82 x i8] }> <{ [82 x i8] c"/home/arsalan/Documents/Github/unsafe-rust-benchmark/library/core/src/ub_checks.rs" }>, align 1
@alloc_039c3f0e51c3c794cef31b8a39b44f71 = private unnamed_addr constant <{ ptr, [16 x i8] }> <{ ptr @alloc_0523a51abf2885f34a27031fa28ece4b, [16 x i8] c"R\00\00\00\00\00\00\00|\00\00\006\00\00\00" }>, align 8
@alloc_d685bb4d9a1abf4f5af46d1af0d9ef8a = private unnamed_addr constant <{ [166 x i8] }> <{ [166 x i8] c"unsafe precondition(s) violated: slice::from_raw_parts_mut requires the pointer to be aligned and non-null, and the total size of the slice not to exceed `isize::MAX`" }>, align 1
@alloc_161c855febe47b6eaaf12928eb8fdcfa = private unnamed_addr constant <{ [85 x i8] }> <{ [85 x i8] c"/home/arsalan/Documents/Github/unsafe-rust-benchmark/library/core/src/slice/memchr.rs" }>, align 1
@alloc_088f7798d70e5f6ed62563131ebc7f15 = private unnamed_addr constant <{ ptr, [16 x i8] }> <{ ptr @alloc_161c855febe47b6eaaf12928eb8fdcfa, [16 x i8] c"U\00\00\00\00\00\00\00+\00\00\00\0C\00\00\00" }>, align 8
@vtable.1 = private unnamed_addr constant <{ [24 x i8], ptr }> <{ [24 x i8] c"\00\00\00\00\00\00\00\00\00\00\00\00\00\00\00\00\01\00\00\00\00\00\00\00", ptr @"_ZN70_$LT$core..num..error..TryFromIntError$u20$as$u20$core..fmt..Debug$GT$3fmt17h8ae6710ed201c67bE" }>, align 8
@vtable.2 = private unnamed_addr constant <{ ptr, [16 x i8], ptr }> <{ ptr @"_ZN4core3ptr42drop_in_place$LT$std..io..error..Error$GT$17hd7a780bd154a7fa5E", [16 x i8] c"\08\00\00\00\00\00\00\00\08\00\00\00\00\00\00\00", ptr @"_ZN58_$LT$std..io..error..Error$u20$as$u20$core..fmt..Debug$GT$3fmt17h03ded37217b1d0b8E" }>, align 8
@alloc_00ae4b301f7fab8ac9617c03fcbd7274 = private unnamed_addr constant <{ [43 x i8] }> <{ [43 x i8] c"called `Result::unwrap()` on an `Err` value" }>, align 1
@vtable.3 = private unnamed_addr constant <{ [24 x i8], ptr }> <{ [24 x i8] c"\00\00\00\00\00\00\00\00\01\00\00\00\00\00\00\00\01\00\00\00\00\00\00\00", ptr @"_ZN68_$LT$core..num..error..ParseIntError$u20$as$u20$core..fmt..Debug$GT$3fmt17h7347f8820286ebe2E" }>, align 8
@_ZN4core7unicode12unicode_data11white_space14WHITESPACE_MAP17he63ff13526352a5cE = external global [256 x i8]
@alloc_b4fd16894743353fab2a9687364b046b = private unnamed_addr constant <{ [93 x i8] }> <{ [93 x i8] c"/home/arsalan/Documents/Github/unsafe-rust-benchmark/library/core/src/unicode/unicode_data.rs" }>, align 1
@alloc_9ad48ca586742b9ab121bf87fcbd1a9d = private unnamed_addr constant <{ ptr, [16 x i8] }> <{ ptr @alloc_b4fd16894743353fab2a9687364b046b, [16 x i8] c"]\00\00\00\00\00\00\00@\02\00\00\12\00\00\00" }>, align 8
@alloc_bf59a592960a1522cd4ff178e3b5b01a = private unnamed_addr constant <{ ptr, [16 x i8] }> <{ ptr @alloc_b4fd16894743353fab2a9687364b046b, [16 x i8] c"]\00\00\00\00\00\00\00B\02\00\00\13\00\00\00" }>, align 8
@3 = private unnamed_addr constant <{ [1 x i8], [1 x i8] }> <{ [1 x i8] c"\01", [1 x i8] undef }>, align 1
@alloc_611ea47e56fe111765d49cc77e8ab451 = private unnamed_addr constant <{ [32 x i8] }> <{ [32 x i8] c"char len should be less than 255" }>, align 1
@alloc_e09b762e23e7aab5d1c9567cce4bbe22 = private unnamed_addr constant <{ [84 x i8] }> <{ [84 x i8] c"/home/arsalan/Documents/Github/unsafe-rust-benchmark/library/core/src/str/pattern.rs" }>, align 1
@alloc_9255bf5d4789a2e4cea7e993364e5ae0 = private unnamed_addr constant <{ ptr, [16 x i8] }> <{ ptr @alloc_e09b762e23e7aab5d1c9567cce4bbe22, [16 x i8] c"T\00\00\00\00\00\00\00,\02\00\00\0E\00\00\00" }>, align 8
@alloc_663191912e362154fd569a725b9c3026 = private unnamed_addr constant <{ [100 x i8] }> <{ [100 x i8] c"/home/arsalan/Documents/Github/unsafe-rust-benchmark/library/alloc/src/collections/btree/navigate.rs" }>, align 1
@alloc_039d7007b63baf925d2271c01a8bab24 = private unnamed_addr constant <{ ptr, [16 x i8] }> <{ ptr @alloc_663191912e362154fd569a725b9c3026, [16 x i8] c"d\00\00\00\00\00\00\00Y\02\00\000\00\00\00" }>, align 8
@alloc_c24246998cbea3ca9ebd4c6a9b03a914 = private unnamed_addr constant <{ ptr, [16 x i8] }> <{ ptr @alloc_663191912e362154fd569a725b9c3026, [16 x i8] c"d\00\00\00\00\00\00\00\C7\00\00\00'\00\00\00" }>, align 8
@alloc_ca673fb95acb8e58af271999e89294ae = private unnamed_addr constant <{ [53 x i8] }> <{ [53 x i8] c"attempt to join into collection with len > usize::MAX" }>, align 1
@alloc_d1084648e479974e70c9329824bf76f9 = private unnamed_addr constant <{ [9 x i8] }> <{ [9 x i8] c"mid > len" }>, align 1
@alloc_2b3e40161faa82f936e1f97ea2aea002 = private unnamed_addr constant <{ ptr, [8 x i8] }> <{ ptr @alloc_d1084648e479974e70c9329824bf76f9, [8 x i8] c"\09\00\00\00\00\00\00\00" }>, align 8
@alloc_893828b52faeadedfe5731d5469198ec = private unnamed_addr constant <{ [77 x i8] }> <{ [77 x i8] c"/home/arsalan/Documents/Github/unsafe-rust-benchmark/library/alloc/src/str.rs" }>, align 1
@alloc_2d7aeb4a97de0b313f8513784d77d6b3 = private unnamed_addr constant <{ ptr, [16 x i8] }> <{ ptr @alloc_893828b52faeadedfe5731d5469198ec, [16 x i8] c"M\00\00\00\00\00\00\00\B2\00\00\00\16\00\00\00" }>, align 8
@alloc_59878f27d5fbd576499d2b4843df8808 = private unnamed_addr constant <{ ptr, [16 x i8] }> <{ ptr @alloc_893828b52faeadedfe5731d5469198ec, [16 x i8] c"M\00\00\00\00\00\00\00\9B\00\00\00\0A\00\00\00" }>, align 8
@__rust_no_alloc_shim_is_unstable = external global i8
@4 = private unnamed_addr constant <{ [8 x i8], [8 x i8] }> <{ [8 x i8] c"\01\00\00\00\00\00\00\80", [8 x i8] undef }>, align 8
@alloc_59ba7b9f7211443cd55a366616eef46a = private unnamed_addr constant <{ [5 x i8] }> <{ [5 x i8] c"Empty" }>, align 1
@alloc_00315c78e51d29fe6b3102a4c1ecf6ef = private unnamed_addr constant <{ [12 x i8] }> <{ [12 x i8] c"InvalidDigit" }>, align 1
@alloc_bd3a3f3879e0d5f64554753e977f58d4 = private unnamed_addr constant <{ [11 x i8] }> <{ [11 x i8] c"PosOverflow" }>, align 1
@alloc_0964bb2a4870637395c77a018495bd5c = private unnamed_addr constant <{ [11 x i8] }> <{ [11 x i8] c"NegOverflow" }>, align 1
@alloc_6566120a3a17f930e960a0863fcbd591 = private unnamed_addr constant <{ [4 x i8] }> <{ [4 x i8] c"Zero" }>, align 1
@alloc_f62df14955f7d78bca139b0a7668683d = private unnamed_addr constant <{ [13 x i8] }> <{ [13 x i8] c"ParseIntError" }>, align 1
@alloc_a5d866b1768ad3f826bccdb004a1a8ae = private unnamed_addr constant <{ [4 x i8] }> <{ [4 x i8] c"kind" }>, align 1
@vtable.4 = private unnamed_addr constant <{ [24 x i8], ptr }> <{ [24 x i8] c"\00\00\00\00\00\00\00\00\08\00\00\00\00\00\00\00\08\00\00\00\00\00\00\00", ptr @"_ZN42_$LT$$RF$T$u20$as$u20$core..fmt..Debug$GT$3fmt17h2bb0463a494d7e47E" }>, align 8
@alloc_5cb263f26a5d50117adfcc5c7225745e = private unnamed_addr constant <{ [15 x i8] }> <{ [15 x i8] c"TryFromIntError" }>, align 1
@vtable.5 = private unnamed_addr constant <{ [24 x i8], ptr }> <{ [24 x i8] c"\00\00\00\00\00\00\00\00\08\00\00\00\00\00\00\00\08\00\00\00\00\00\00\00", ptr @"_ZN42_$LT$$RF$T$u20$as$u20$core..fmt..Debug$GT$3fmt17hd27f60d2ed0c0e8cE" }>, align 8
@alloc_abe84c54c934497055a45d5bf9aea081 = private unnamed_addr constant <{ [82 x i8] }> <{ [82 x i8] c"/home/arsalan/Documents/Github/unsafe-rust-benchmark/library/std/src/ffi/os_str.rs" }>, align 1
@alloc_234fae6edaca0695beafe2eda65d3b82 = private unnamed_addr constant <{ ptr, [16 x i8] }> <{ ptr @alloc_abe84c54c934497055a45d5bf9aea081, [16 x i8] c"R\00\00\00\00\00\00\00K\02\00\00\0E\00\00\00" }>, align 8
@alloc_e96fb6e25c55edb0aec8b24d111f5d7f = private unnamed_addr constant <{ [101 x i8] }> <{ [101 x i8] c"unsafe precondition(s) violated: slice::get_unchecked_mut requires that the index is within the slice" }>, align 1
@alloc_4606dfc766e23d9646c00ebc31b83b5c = private unnamed_addr constant <{ ptr, [16 x i8] }> <{ ptr @alloc_e09b762e23e7aab5d1c9567cce4bbe22, [16 x i8] c"T\00\00\00\00\00\00\00\BF\01\00\007\00\00\00" }>, align 8
@alloc_742f06589122110502429e832b81e8bd = private unnamed_addr constant <{ [32 x i8] }> <{ [32 x i8] c"cargo:rerun-if-changed=build.rs\0A" }>, align 1
@alloc_87bf645e20c49614b5c80b947cae4b8c = private unnamed_addr constant <{ ptr, [8 x i8] }> <{ ptr @alloc_742f06589122110502429e832b81e8bd, [8 x i8] c" \00\00\00\00\00\00\00" }>, align 8
@alloc_509e3f14595a72dfc2af0a28f5824017 = private unnamed_addr constant <{ [30 x i8] }> <{ [30 x i8] c"CARGO_FEATURE_RUSTC_DEP_OF_STD" }>, align 1
@alloc_f73607afcba5e721c2712249402644b6 = private unnamed_addr constant <{ [7 x i8] }> <{ [7 x i8] c"LIBC_CI" }>, align 1
@alloc_0389fc3ddd5345d995d2c65b5ce04041 = private unnamed_addr constant <{ [14 x i8] }> <{ [14 x i8] c"LIBC_CHECK_CFG" }>, align 1
@alloc_b74b27f2b9f751849fcbc82dbd3a9d08 = private unnamed_addr constant <{ [62 x i8] }> <{ [62 x i8] c"cargo:rerun-if-env-changed=RUST_LIBC_UNSTABLE_FREEBSD_VERSION\0A" }>, align 1
@alloc_ee53b02850fb8b75b8351633116ea8a2 = private unnamed_addr constant <{ ptr, [8 x i8] }> <{ ptr @alloc_b74b27f2b9f751849fcbc82dbd3a9d08, [8 x i8] c">\00\00\00\00\00\00\00" }>, align 8
@alloc_aaa658f8720b91022cfd120b3be84301 = private unnamed_addr constant <{ [34 x i8] }> <{ [34 x i8] c"RUST_LIBC_UNSTABLE_FREEBSD_VERSION" }>, align 1
@alloc_b7b9cd40b254e5f816ace03d1b6a3965 = private unnamed_addr constant <{ [88 x i8] }> <{ [88 x i8] c"/home/arsalan/.cargo/registry/src/index.crates.io-1949cf8c6b5b557f/libc-0.2.170/build.rs" }>, align 1
@alloc_5873591063566dbdf83ac80597f02092 = private unnamed_addr constant <{ ptr, [16 x i8] }> <{ ptr @alloc_b7b9cd40b254e5f816ace03d1b6a3965, [16 x i8] c"X\00\00\00\00\00\00\009\00\00\00$\00\00\00" }>, align 8
@alloc_bed01d763589fbbc9d4dedcfaf2df5e8 = private unnamed_addr constant <{ [41 x i8] }> <{ [41 x i8] c"cargo:warning=setting FreeBSD version to " }>, align 1
@alloc_49a1e817e911805af64bbc7efb390101 = private unnamed_addr constant <{ [1 x i8] }> <{ [1 x i8] c"\0A" }>, align 1
@alloc_e7603d3e97d2f38c40126dcaac7aedac = private unnamed_addr constant <{ ptr, [8 x i8], ptr, [8 x i8] }> <{ ptr @alloc_bed01d763589fbbc9d4dedcfaf2df5e8, [8 x i8] c")\00\00\00\00\00\00\00", ptr @alloc_49a1e817e911805af64bbc7efb390101, [8 x i8] c"\01\00\00\00\00\00\00\00" }>, align 8
@alloc_7267420313fdc34f79da1c04bfca7409 = private unnamed_addr constant <{ [9 x i8] }> <{ [9 x i8] c"freebsd10" }>, align 1
@alloc_5581ed16f5c58ecd3f36713b9b396029 = private unnamed_addr constant <{ [9 x i8] }> <{ [9 x i8] c"freebsd11" }>, align 1
@alloc_55f07188386ace482603892e4768112d = private unnamed_addr constant <{ [9 x i8] }> <{ [9 x i8] c"freebsd12" }>, align 1
@alloc_028f45a065ad7442c332be763445b925 = private unnamed_addr constant <{ [9 x i8] }> <{ [9 x i8] c"freebsd13" }>, align 1
@alloc_358590eecf303ad391259af81e368788 = private unnamed_addr constant <{ [9 x i8] }> <{ [9 x i8] c"freebsd14" }>, align 1
@alloc_c8539d7d8992b0450a5874fa781e9124 = private unnamed_addr constant <{ [9 x i8] }> <{ [9 x i8] c"freebsd15" }>, align 1
@alloc_ccedf80c3ce4e46e2ff8efee35ec798b = private unnamed_addr constant <{ [23 x i8] }> <{ [23 x i8] c"emscripten_old_stat_abi" }>, align 1
@alloc_508b13eade4b92efdda744da70d08ff7 = private unnamed_addr constant <{ [36 x i8] }> <{ [36 x i8] c"RUST_LIBC_UNSTABLE_LINUX_TIME_BITS64" }>, align 1
@alloc_b745d31eb2902e488a48adfdc7a9757f = private unnamed_addr constant <{ [64 x i8] }> <{ [64 x i8] c"cargo:rerun-if-env-changed=RUST_LIBC_UNSTABLE_LINUX_TIME_BITS64\0A" }>, align 1
@alloc_3f6cd4991254dc337463f779b3b7c410 = private unnamed_addr constant <{ ptr, [8 x i8] }> <{ ptr @alloc_b745d31eb2902e488a48adfdc7a9757f, [8 x i8] c"@\00\00\00\00\00\00\00" }>, align 8
@alloc_681b6f9e783332c8e0b8ad7b08df1498 = private unnamed_addr constant <{ [17 x i8] }> <{ [17 x i8] c"linux_time_bits64" }>, align 1
@alloc_e051788150efb5e0f212c696366647c3 = private unnamed_addr constant <{ [18 x i8] }> <{ [18 x i8] c"libc_deny_warnings" }>, align 1
@alloc_e300d0c2c56fc656630ece49b293f3f6 = private unnamed_addr constant <{ [17 x i8] }> <{ [17 x i8] c"libc_thread_local" }>, align 1
@alloc_4177d98eb312c1530fbc95a2a0fb61e7 = private unnamed_addr constant <{ [20 x i8] }> <{ [20 x i8] c"libc_const_extern_fn" }>, align 1
@alloc_c1dd1d9f50ed06e24759135ae11c1cd7 = private unnamed_addr constant <{ [13 x i8] }> <{ [13 x i8] c"espidf_time32" }>, align 1
@alloc_1841a96492b8dffe09c1643658205af6 = private unnamed_addr constant <{ [10 x i8] }> <{ [10 x i8] c"libc_ctest" }>, align 1
@alloc_a1b483cdcc0584cab28591fdffdf52bf = private unnamed_addr constant <{ ptr, [8 x i8], ptr, [8 x i8], ptr, [8 x i8], ptr, [8 x i8], ptr, [8 x i8], ptr, [8 x i8], ptr, [8 x i8], ptr, [8 x i8], ptr, [8 x i8], ptr, [8 x i8], ptr, [8 x i8], ptr, [8 x i8], ptr, [8 x i8] }> <{ ptr @alloc_ccedf80c3ce4e46e2ff8efee35ec798b, [8 x i8] c"\17\00\00\00\00\00\00\00", ptr @alloc_c1dd1d9f50ed06e24759135ae11c1cd7, [8 x i8] c"\0D\00\00\00\00\00\00\00", ptr @alloc_7267420313fdc34f79da1c04bfca7409, [8 x i8] c"\09\00\00\00\00\00\00\00", ptr @alloc_5581ed16f5c58ecd3f36713b9b396029, [8 x i8] c"\09\00\00\00\00\00\00\00", ptr @alloc_55f07188386ace482603892e4768112d, [8 x i8] c"\09\00\00\00\00\00\00\00", ptr @alloc_028f45a065ad7442c332be763445b925, [8 x i8] c"\09\00\00\00\00\00\00\00", ptr @alloc_358590eecf303ad391259af81e368788, [8 x i8] c"\09\00\00\00\00\00\00\00", ptr @alloc_c8539d7d8992b0450a5874fa781e9124, [8 x i8] c"\09\00\00\00\00\00\00\00", ptr @alloc_4177d98eb312c1530fbc95a2a0fb61e7, [8 x i8] c"\14\00\00\00\00\00\00\00", ptr @alloc_e051788150efb5e0f212c696366647c3, [8 x i8] c"\12\00\00\00\00\00\00\00", ptr @alloc_e300d0c2c56fc656630ece49b293f3f6, [8 x i8] c"\11\00\00\00\00\00\00\00", ptr @alloc_1841a96492b8dffe09c1643658205af6, [8 x i8] c"\0A\00\00\00\00\00\00\00", ptr @alloc_681b6f9e783332c8e0b8ad7b08df1498, [8 x i8] c"\11\00\00\00\00\00\00\00" }>, align 8
@alloc_2cddc5e59ad0ce52fa6a12317b7d9940 = private unnamed_addr constant <{ [9 x i8] }> <{ [9 x i8] c"target_os" }>, align 1
@alloc_06bdffecd12566b07b46a1d9c671b787 = private unnamed_addr constant <{ [6 x i8] }> <{ [6 x i8] c"switch" }>, align 1
@alloc_56682c411a884305a0498f0904259ddf = private unnamed_addr constant <{ [3 x i8] }> <{ [3 x i8] c"aix" }>, align 1
@alloc_830cd488b6068638e05ed5b0c299b4af = private unnamed_addr constant <{ [4 x i8] }> <{ [4 x i8] c"ohos" }>, align 1
@alloc_45bb0232104d815c4dda9598abc92521 = private unnamed_addr constant <{ [4 x i8] }> <{ [4 x i8] c"hurd" }>, align 1
@alloc_7d89cad1193e3093f83db65de654886c = private unnamed_addr constant <{ [5 x i8] }> <{ [5 x i8] c"rtems" }>, align 1
@alloc_c681dba5e39d19fa023e5cc12642d541 = private unnamed_addr constant <{ [8 x i8] }> <{ [8 x i8] c"visionos" }>, align 1
@alloc_83b5f38e8216cdcf7d09bbba859e9e33 = private unnamed_addr constant <{ [5 x i8] }> <{ [5 x i8] c"nuttx" }>, align 1
@alloc_298c16d9f2462ba97b1b94a83dca7fb4 = private unnamed_addr constant <{ ptr, [8 x i8], ptr, [8 x i8], ptr, [8 x i8], ptr, [8 x i8], ptr, [8 x i8], ptr, [8 x i8], ptr, [8 x i8] }> <{ ptr @alloc_06bdffecd12566b07b46a1d9c671b787, [8 x i8] c"\06\00\00\00\00\00\00\00", ptr @alloc_56682c411a884305a0498f0904259ddf, [8 x i8] c"\03\00\00\00\00\00\00\00", ptr @alloc_830cd488b6068638e05ed5b0c299b4af, [8 x i8] c"\04\00\00\00\00\00\00\00", ptr @alloc_45bb0232104d815c4dda9598abc92521, [8 x i8] c"\04\00\00\00\00\00\00\00", ptr @alloc_7d89cad1193e3093f83db65de654886c, [8 x i8] c"\05\00\00\00\00\00\00\00", ptr @alloc_c681dba5e39d19fa023e5cc12642d541, [8 x i8] c"\08\00\00\00\00\00\00\00", ptr @alloc_83b5f38e8216cdcf7d09bbba859e9e33, [8 x i8] c"\05\00\00\00\00\00\00\00" }>, align 8
@alloc_df599e29b3820982aef0645887d35e8c = private unnamed_addr constant <{ [10 x i8] }> <{ [10 x i8] c"target_env" }>, align 1
@alloc_369c643820514fbe33fb426e73a3da06 = private unnamed_addr constant <{ [7 x i8] }> <{ [7 x i8] c"illumos" }>, align 1
@alloc_7e4f24954a4fa587ee17e75c042a2c6a = private unnamed_addr constant <{ [4 x i8] }> <{ [4 x i8] c"wasi" }>, align 1
@alloc_4c4a32a23bd9dd5fd8a2fdde12485731 = private unnamed_addr constant <{ ptr, [8 x i8], ptr, [8 x i8], ptr, [8 x i8], ptr, [8 x i8] }> <{ ptr @alloc_369c643820514fbe33fb426e73a3da06, [8 x i8] c"\07\00\00\00\00\00\00\00", ptr @alloc_7e4f24954a4fa587ee17e75c042a2c6a, [8 x i8] c"\04\00\00\00\00\00\00\00", ptr @alloc_56682c411a884305a0498f0904259ddf, [8 x i8] c"\03\00\00\00\00\00\00\00", ptr @alloc_830cd488b6068638e05ed5b0c299b4af, [8 x i8] c"\04\00\00\00\00\00\00\00" }>, align 8
@alloc_9259c4107c8646157225831547e51707 = private unnamed_addr constant <{ [11 x i8] }> <{ [11 x i8] c"target_arch" }>, align 1
@alloc_be0c7e2eb8d81d67a6db9a856123bb7e = private unnamed_addr constant <{ [11 x i8] }> <{ [11 x i8] c"loongarch64" }>, align 1
@alloc_cbb73a85e2ed78c1dc2a615b03408878 = private unnamed_addr constant <{ [8 x i8] }> <{ [8 x i8] c"mips32r6" }>, align 1
@alloc_1cb3d6a6216aeea0aa93cb8b80a5f107 = private unnamed_addr constant <{ [8 x i8] }> <{ [8 x i8] c"mips64r6" }>, align 1
@alloc_a5dc2de5b3efc052edbd4e83ca0843da = private unnamed_addr constant <{ [4 x i8] }> <{ [4 x i8] c"csky" }>, align 1
@alloc_746260b83e31e93ed3a760cdb0cfd27c = private unnamed_addr constant <{ ptr, [8 x i8], ptr, [8 x i8], ptr, [8 x i8], ptr, [8 x i8] }> <{ ptr @alloc_be0c7e2eb8d81d67a6db9a856123bb7e, [8 x i8] c"\0B\00\00\00\00\00\00\00", ptr @alloc_cbb73a85e2ed78c1dc2a615b03408878, [8 x i8] c"\08\00\00\00\00\00\00\00", ptr @alloc_1cb3d6a6216aeea0aa93cb8b80a5f107, [8 x i8] c"\08\00\00\00\00\00\00\00", ptr @alloc_a5dc2de5b3efc052edbd4e83ca0843da, [8 x i8] c"\04\00\00\00\00\00\00\00" }>, align 8
@alloc_e6109ae4dae3e73a8cd2c52f6ce95b74 = private unnamed_addr constant <{ ptr, [8 x i8], ptr, [8 x i8], ptr, [8 x i8], ptr, [8 x i8], ptr, [8 x i8], ptr, [8 x i8] }> <{ ptr @alloc_2cddc5e59ad0ce52fa6a12317b7d9940, [8 x i8] c"\09\00\00\00\00\00\00\00", ptr @alloc_298c16d9f2462ba97b1b94a83dca7fb4, [8 x i8] c"\07\00\00\00\00\00\00\00", ptr @alloc_df599e29b3820982aef0645887d35e8c, [8 x i8] c"\0A\00\00\00\00\00\00\00", ptr @alloc_4c4a32a23bd9dd5fd8a2fdde12485731, [8 x i8] c"\04\00\00\00\00\00\00\00", ptr @alloc_9259c4107c8646157225831547e51707, [8 x i8] c"\0B\00\00\00\00\00\00\00", ptr @alloc_746260b83e31e93ed3a760cdb0cfd27c, [8 x i8] c"\04\00\00\00\00\00\00\00" }>, align 8
@alloc_4e81f3446308e52f5d03e9e4175413e4 = private unnamed_addr constant <{ [3 x i8] }> <{ [3 x i8] c"\22,\22" }>, align 1
@alloc_6451cabe30bf8eceba038f6f3ea6a713 = private unnamed_addr constant <{ [29 x i8] }> <{ [29 x i8] c"cargo:rustc-check-cfg=values(" }>, align 1
@alloc_2553ec131219601dd6ca857cf7016140 = private unnamed_addr constant <{ [2 x i8] }> <{ [2 x i8] c",\22" }>, align 1
@alloc_28d3976663191d6e04f2b014bc4061fd = private unnamed_addr constant <{ [3 x i8] }> <{ [3 x i8] c"\22)\0A" }>, align 1
@alloc_aca7854352273ca19f412b47c6740d26 = private unnamed_addr constant <{ ptr, [8 x i8], ptr, [8 x i8], ptr, [8 x i8] }> <{ ptr @alloc_6451cabe30bf8eceba038f6f3ea6a713, [8 x i8] c"\1D\00\00\00\00\00\00\00", ptr @alloc_2553ec131219601dd6ca857cf7016140, [8 x i8] c"\02\00\00\00\00\00\00\00", ptr @alloc_28d3976663191d6e04f2b014bc4061fd, [8 x i8] c"\03\00\00\00\00\00\00\00" }>, align 8
@alloc_8e4d7f79330c448f2977292b49677168 = private unnamed_addr constant <{ [26 x i8] }> <{ [26 x i8] c"cargo:rustc-check-cfg=cfg(" }>, align 1
@alloc_b34d42ef5bf9b2651fd979e82ea23cba = private unnamed_addr constant <{ [9 x i8] }> <{ [9 x i8] c",values(\22" }>, align 1
@alloc_cb920443507f8a0fdca067277c47c9cb = private unnamed_addr constant <{ [4 x i8] }> <{ [4 x i8] c"\22))\0A" }>, align 1
@alloc_94e475627f53aa3dbffe693807a45e03 = private unnamed_addr constant <{ ptr, [8 x i8], ptr, [8 x i8], ptr, [8 x i8] }> <{ ptr @alloc_8e4d7f79330c448f2977292b49677168, [8 x i8] c"\1A\00\00\00\00\00\00\00", ptr @alloc_b34d42ef5bf9b2651fd979e82ea23cba, [8 x i8] c"\09\00\00\00\00\00\00\00", ptr @alloc_cb920443507f8a0fdca067277c47c9cb, [8 x i8] c"\04\00\00\00\00\00\00\00" }>, align 8
@alloc_cba169e49d2f6a8c1ea9f5f92c42ec6b = private unnamed_addr constant <{ [2 x i8] }> <{ [2 x i8] c")\0A" }>, align 1
@alloc_4eeda7205751175a49b06499c9a56a10 = private unnamed_addr constant <{ ptr, [8 x i8], ptr, [8 x i8] }> <{ ptr @alloc_6451cabe30bf8eceba038f6f3ea6a713, [8 x i8] c"\1D\00\00\00\00\00\00\00", ptr @alloc_cba169e49d2f6a8c1ea9f5f92c42ec6b, [8 x i8] c"\02\00\00\00\00\00\00\00" }>, align 8
@alloc_52cdc5c3cdbc4fafb7761e3fb7e847e1 = private unnamed_addr constant <{ ptr, [8 x i8], ptr, [8 x i8] }> <{ ptr @alloc_8e4d7f79330c448f2977292b49677168, [8 x i8] c"\1A\00\00\00\00\00\00\00", ptr @alloc_cba169e49d2f6a8c1ea9f5f92c42ec6b, [8 x i8] c"\02\00\00\00\00\00\00\00" }>, align 8
@alloc_c63b2e5039c7d990f01e55018d57af8b = private unnamed_addr constant <{ [38 x i8] }> <{ [38 x i8] c"FreeBSD older than 10 is not supported" }>, align 1
@alloc_65505440ef682971eaea1b40d914453d = private unnamed_addr constant <{ ptr, [8 x i8] }> <{ ptr @alloc_c63b2e5039c7d990f01e55018d57af8b, [8 x i8] c"&\00\00\00\00\00\00\00" }>, align 8
@alloc_7861774bd4973a934c232250a3aa2b4b = private unnamed_addr constant <{ ptr, [16 x i8] }> <{ ptr @alloc_b7b9cd40b254e5f816ace03d1b6a3965, [16 x i8] c"X\00\00\00\00\00\00\00E\00\00\00\18\00\00\00" }>, align 8
@alloc_806c1ac911172019779ceab530bc1f0e = private unnamed_addr constant <{ [5 x i8] }> <{ [5 x i8] c"RUSTC" }>, align 1
@alloc_57e2a3f3daa80a9da338a6fbc7fe2a99 = private unnamed_addr constant <{ [46 x i8] }> <{ [46 x i8] c"Failed to get rustc version: missing RUSTC env" }>, align 1
@alloc_f88dd59a44b5ead7dd0b9bb7ed72554d = private unnamed_addr constant <{ ptr, [16 x i8] }> <{ ptr @alloc_b7b9cd40b254e5f816ace03d1b6a3965, [16 x i8] c"X\00\00\00\00\00\00\00\82\00\00\00&\00\00\00" }>, align 8
@alloc_f36ce88bd5d4a921175f5521f484b675 = private unnamed_addr constant <{ [13 x i8] }> <{ [13 x i8] c"RUSTC_WRAPPER" }>, align 1
@alloc_0a95b2846250f640f3e914bc2bbe7701 = private unnamed_addr constant <{ [7 x i8] }> <{ [7 x i8] c"--rustc" }>, align 1
@alloc_a887f9858119cc7413062dc002c4d9ab = private unnamed_addr constant <{ [9 x i8] }> <{ [9 x i8] c"--version" }>, align 1
@alloc_c33e5af42b9b9e21f43a4fcb9c0ba190 = private unnamed_addr constant <{ [27 x i8] }> <{ [27 x i8] c"Failed to get rustc version" }>, align 1
@alloc_3af13413d0bddf7eef95323849c68be7 = private unnamed_addr constant <{ ptr, [16 x i8] }> <{ ptr @alloc_b7b9cd40b254e5f816ace03d1b6a3965, [16 x i8] c"X\00\00\00\00\00\00\00\94\00\00\00\1F\00\00\00" }>, align 8
@alloc_24c6a125bbc985b61d58fd74e29f442b = private unnamed_addr constant <{ [21 x i8] }> <{ [21 x i8] c"failed to run rustc: " }>, align 1
@alloc_985df46ffe9b67b492b6f783eb6468a8 = private unnamed_addr constant <{ ptr, [8 x i8] }> <{ ptr @alloc_24c6a125bbc985b61d58fd74e29f442b, [8 x i8] c"\15\00\00\00\00\00\00\00" }>, align 8
@alloc_3a37d8f364212ef5c8a042cbd96bd521 = private unnamed_addr constant <{ ptr, [16 x i8] }> <{ ptr @alloc_b7b9cd40b254e5f816ace03d1b6a3965, [16 x i8] c"X\00\00\00\00\00\00\00\97\00\00\00\09\00\00\00" }>, align 8
@alloc_1e557b279fa74edf85973c9c43ef4a33 = private unnamed_addr constant <{ ptr, [8 x i8] }> <{ ptr @alloc_c33e5af42b9b9e21f43a4fcb9c0ba190, [8 x i8] c"\1B\00\00\00\00\00\00\00" }>, align 8
@alloc_3381dee63fcc6c19423c75c71fe4d2c4 = private unnamed_addr constant <{ ptr, [16 x i8] }> <{ ptr @alloc_b7b9cd40b254e5f816ace03d1b6a3965, [16 x i8] c"X\00\00\00\00\00\00\00\AE\00\00\00\08\00\00\00" }>, align 8
@alloc_55e278c996565db65fe0fb6e7409cbbb = private unnamed_addr constant <{ [6 x i8] }> <{ [6 x i8] c"clippy" }>, align 1
@alloc_845ce152f57a94641cc547246efe2f82 = private unnamed_addr constant <{ ptr, [16 x i8] }> <{ ptr @alloc_b7b9cd40b254e5f816ace03d1b6a3965, [16 x i8] c"X\00\00\00\00\00\00\00\B2\00\00\00\13\00\00\00" }>, align 8
@alloc_ca36d7e792bb4bbd1a68749f90007ce8 = private unnamed_addr constant <{ [7 x i8] }> <{ [7 x i8] c"rustc 1" }>, align 1
@alloc_7ba1d4a6fed7eab8864703bfc6e1dfbe = private unnamed_addr constant <{ ptr, [8 x i8] }> <{ ptr @alloc_ca36d7e792bb4bbd1a68749f90007ce8, [8 x i8] c"\07\00\00\00\00\00\00\00" }>, align 8
@alloc_adc9917465517c0046479f368b2fadd7 = private unnamed_addr constant <{ ptr, [16 x i8] }> <{ ptr @alloc_b7b9cd40b254e5f816ace03d1b6a3965, [16 x i8] c"X\00\00\00\00\00\00\00\C1\00\00\00\17\00\00\00" }>, align 8
@alloc_c5f034e201504799bf0661cac1d497dc = private unnamed_addr constant <{ ptr, [16 x i8] }> <{ ptr @alloc_b7b9cd40b254e5f816ace03d1b6a3965, [16 x i8] c"X\00\00\00\00\00\00\00\C5\00\00\00\17\00\00\00" }>, align 8
@alloc_2ee9e29f990da81c452b79294db7960d = private unnamed_addr constant <{ ptr, [16 x i8] }> <{ ptr @alloc_b7b9cd40b254e5f816ace03d1b6a3965, [16 x i8] c"X\00\00\00\00\00\00\00\C5\00\00\00\11\00\00\00" }>, align 8
@alloc_85e95e73cc924336dd13d27d2e4d7e90 = private unnamed_addr constant <{ ptr, [16 x i8] }> <{ ptr @alloc_b7b9cd40b254e5f816ace03d1b6a3965, [16 x i8] c"X\00\00\00\00\00\00\00\B7\00\00\00\09\00\00\00" }>, align 8
@alloc_12dcbe319bdb437b2d068742d0ee3321 = private unnamed_addr constant <{ [3 x i8] }> <{ [3 x i8] c"dev" }>, align 1
@alloc_22ec252afd5f5781ca8ee9b115d4a0d6 = private unnamed_addr constant <{ [7 x i8] }> <{ [7 x i8] c"nightly" }>, align 1
@alloc_71264e62a593ae064235a5eb90a16b4a = private unnamed_addr constant <{ [15 x i8] }> <{ [15 x i8] c"freebsd-version" }>, align 1
@alloc_e9aa3e56236bea0534a07b33b08bbbe6 = private unnamed_addr constant <{ [2 x i8] }> <{ [2 x i8] c"10" }>, align 1
@alloc_ae52c2733f312a4a903aef7e6436cb13 = private unnamed_addr constant <{ [2 x i8] }> <{ [2 x i8] c"11" }>, align 1
@alloc_3b059e5eb8e06e7498f909e7a08cef57 = private unnamed_addr constant <{ [2 x i8] }> <{ [2 x i8] c"12" }>, align 1
@alloc_d57d03743ee0b3cf85ca6cc66dce7f4d = private unnamed_addr constant <{ [2 x i8] }> <{ [2 x i8] c"13" }>, align 1
@alloc_e33ac00bdbd8c0cbb04273e924bd654c = private unnamed_addr constant <{ [2 x i8] }> <{ [2 x i8] c"14" }>, align 1
@alloc_27f411dcc9955beae922af37f2bb21f7 = private unnamed_addr constant <{ [2 x i8] }> <{ [2 x i8] c"15" }>, align 1
@alloc_e7b0dd178336291b9ad3b8b25bc77cb0 = private unnamed_addr constant <{ [4 x i8] }> <{ [4 x i8] c"emcc" }>, align 1
@alloc_53695a5ce3568835c4a92269d444b5c9 = private unnamed_addr constant <{ [12 x i8] }> <{ [12 x i8] c"-dumpversion" }>, align 1
@alloc_a99599e6e9267619b8f74409350a9da3 = private unnamed_addr constant <{ [18 x i8] }> <{ [18 x i8] c"trying to set cfg " }>, align 1
@alloc_4eb59c0c17baa4801b5eddd4ef47a15e = private unnamed_addr constant <{ [31 x i8] }> <{ [31 x i8] c", but it is not in ALLOWED_CFGS" }>, align 1
@alloc_715048d6614226cc84be59211b2dcb48 = private unnamed_addr constant <{ ptr, [8 x i8], ptr, [8 x i8] }> <{ ptr @alloc_a99599e6e9267619b8f74409350a9da3, [8 x i8] c"\12\00\00\00\00\00\00\00", ptr @alloc_4eb59c0c17baa4801b5eddd4ef47a15e, [8 x i8] c"\1F\00\00\00\00\00\00\00" }>, align 8
@alloc_0c8bce64e2c50cf18e65850deb59de1a = private unnamed_addr constant <{ ptr, [16 x i8] }> <{ ptr @alloc_b7b9cd40b254e5f816ace03d1b6a3965, [16 x i8] c"X\00\00\00\00\00\00\00\F2\00\00\00\09\00\00\00" }>, align 8
@alloc_6d37a15ac7cea7e8070c0a492e97fefb = private unnamed_addr constant <{ [16 x i8] }> <{ [16 x i8] c"cargo:rustc-cfg=" }>, align 1
@alloc_14d3fadd47c8d538d7a00d4e2acf6106 = private unnamed_addr constant <{ ptr, [8 x i8], ptr, [8 x i8] }> <{ ptr @alloc_6d37a15ac7cea7e8070c0a492e97fefb, [8 x i8] c"\10\00\00\00\00\00\00\00", ptr @alloc_49a1e817e911805af64bbc7efb390101, [8 x i8] c"\01\00\00\00\00\00\00\00" }>, align 8

; <core::iter::adapters::map::Map<I,F> as core::iter::traits::iterator::Iterator>::next
; Function Attrs: inlinehint nonlazybind uwtable
define internal { ptr, i64 } @"_ZN102_$LT$core..iter..adapters..map..Map$LT$I$C$F$GT$$u20$as$u20$core..iter..traits..iterator..Iterator$GT$4next17h18967b687a5b3a1cE"(ptr align 8 %self) unnamed_addr #0 {
start:
  %self1 = alloca [8 x i8], align 8
  %_0 = alloca [16 x i8], align 8
; call <core::slice::iter::Iter<T> as core::iter::traits::iterator::Iterator>::next
  %0 = call align 8 ptr @"_ZN91_$LT$core..slice..iter..Iter$LT$T$GT$$u20$as$u20$core..iter..traits..iterator..Iterator$GT$4next17h174653bac0558db5E"(ptr align 8 %self)
  store ptr %0, ptr %self1, align 8
  %f = getelementptr inbounds i8, ptr %self, i64 16
  %1 = load ptr, ptr %self1, align 8
  %2 = ptrtoint ptr %1 to i64
  %3 = icmp eq i64 %2, 0
  %_5 = select i1 %3, i64 0, i64 1
  %4 = icmp eq i64 %_5, 0
  br i1 %4, label %bb4, label %bb5

bb4:                                              ; preds = %start
  store ptr null, ptr %_0, align 8
  br label %bb2

bb5:                                              ; preds = %start
  %x = load ptr, ptr %self1, align 8
; call core::ops::function::impls::<impl core::ops::function::FnOnce<A> for &mut F>::call_once
  %5 = call { ptr, i64 } @"_ZN4core3ops8function5impls80_$LT$impl$u20$core..ops..function..FnOnce$LT$A$GT$$u20$for$u20$$RF$mut$u20$F$GT$9call_once17hc784ad20156a72a0E"(ptr align 1 %f, ptr align 8 %x)
  %_7.0 = extractvalue { ptr, i64 } %5, 0
  %_7.1 = extractvalue { ptr, i64 } %5, 1
  store ptr %_7.0, ptr %_0, align 8
  %6 = getelementptr inbounds i8, ptr %_0, i64 8
  store i64 %_7.1, ptr %6, align 8
  br label %bb2

bb2:                                              ; preds = %bb5, %bb4
  %7 = load ptr, ptr %_0, align 8
  %8 = getelementptr inbounds i8, ptr %_0, i64 8
  %9 = load i64, ptr %8, align 8
  %10 = insertvalue { ptr, i64 } poison, ptr %7, 0
  %11 = insertvalue { ptr, i64 } %10, i64 %9, 1
  ret { ptr, i64 } %11

bb3:                                              ; No predecessors!
  unreachable
}

; <core::str::iter::CharIndices as core::iter::traits::double_ended::DoubleEndedIterator>::next_back
; Function Attrs: inlinehint nonlazybind uwtable
define internal { i64, i32 } @"_ZN102_$LT$core..str..iter..CharIndices$u20$as$u20$core..iter..traits..double_ended..DoubleEndedIterator$GT$9next_back17hc7935b7e0451d63aE"(ptr align 8 %self) unnamed_addr #0 {
start:
  %self1 = alloca [4 x i8], align 4
  %_0 = alloca [16 x i8], align 8
; call <core::str::iter::Chars as core::iter::traits::double_ended::DoubleEndedIterator>::next_back
  %0 = call i32 @"_ZN96_$LT$core..str..iter..Chars$u20$as$u20$core..iter..traits..double_ended..DoubleEndedIterator$GT$9next_back17h98ca991e9c86d5a7E"(ptr align 8 %self)
  store i32 %0, ptr %self1, align 4
  %f = getelementptr inbounds i8, ptr %self, i64 16
  %1 = load i32, ptr %self1, align 4
  %2 = icmp eq i32 %1, 1114112
  %_6 = select i1 %2, i64 0, i64 1
  %3 = icmp eq i64 %_6, 0
  br i1 %3, label %bb4, label %bb5

bb4:                                              ; preds = %start
  %4 = load i64, ptr @0, align 8
  %5 = load i32, ptr getelementptr inbounds (i8, ptr @0, i64 8), align 8
  store i64 %4, ptr %_0, align 8
  %6 = getelementptr inbounds i8, ptr %_0, i64 8
  store i32 %5, ptr %6, align 8
  br label %bb2

bb5:                                              ; preds = %start
  %x = load i32, ptr %self1, align 4
  %_10 = load i64, ptr %f, align 8
  %self2 = getelementptr inbounds i8, ptr %self, i64 8
  %end = load ptr, ptr %self2, align 8
  %subtracted = load ptr, ptr %self, align 8
; call core::ptr::const_ptr::<impl *const T>::sub_ptr
  %_11 = call i64 @"_ZN4core3ptr9const_ptr33_$LT$impl$u20$$BP$const$u20$T$GT$7sub_ptr17h49c258bf1afa93efE"(ptr %end, ptr %subtracted)
  %index = add i64 %_10, %_11
  store i64 %index, ptr %_0, align 8
  %7 = getelementptr inbounds i8, ptr %_0, i64 8
  store i32 %x, ptr %7, align 8
  br label %bb2

bb2:                                              ; preds = %bb5, %bb4
  %8 = load i64, ptr %_0, align 8
  %9 = getelementptr inbounds i8, ptr %_0, i64 8
  %10 = load i32, ptr %9, align 8
  %11 = insertvalue { i64, i32 } poison, i64 %8, 0
  %12 = insertvalue { i64, i32 } %11, i32 %10, 1
  ret { i64, i32 } %12

bb3:                                              ; No predecessors!
  unreachable
}

; <core::str::pattern::MultiCharEqSearcher<C> as core::str::pattern::ReverseSearcher>::next_back
; Function Attrs: inlinehint nonlazybind uwtable
define internal void @"_ZN104_$LT$core..str..pattern..MultiCharEqSearcher$LT$C$GT$$u20$as$u20$core..str..pattern..ReverseSearcher$GT$9next_back17hea0fbc9150bc44caE"(ptr sret([24 x i8]) align 8 %_0, ptr align 8 %self) unnamed_addr #0 {
start:
  %_5 = alloca [16 x i8], align 8
  %s = getelementptr inbounds i8, ptr %self, i64 16
  %self1 = getelementptr inbounds i8, ptr %self, i64 16
  %0 = getelementptr inbounds i8, ptr %self, i64 16
  %self2 = getelementptr inbounds i8, ptr %0, i64 8
  %end = load ptr, ptr %self2, align 8
  %1 = getelementptr inbounds i8, ptr %self, i64 16
  %subtracted = load ptr, ptr %1, align 8
; call core::ptr::const_ptr::<impl *const T>::sub_ptr
  %pre_len = call i64 @"_ZN4core3ptr9const_ptr33_$LT$impl$u20$$BP$const$u20$T$GT$7sub_ptr17h49c258bf1afa93efE"(ptr %end, ptr %subtracted)
  %_6 = getelementptr inbounds i8, ptr %self, i64 16
; call <core::str::iter::CharIndices as core::iter::traits::double_ended::DoubleEndedIterator>::next_back
  %2 = call { i64, i32 } @"_ZN102_$LT$core..str..iter..CharIndices$u20$as$u20$core..iter..traits..double_ended..DoubleEndedIterator$GT$9next_back17hc7935b7e0451d63aE"(ptr align 8 %_6)
  %3 = extractvalue { i64, i32 } %2, 0
  %4 = extractvalue { i64, i32 } %2, 1
  store i64 %3, ptr %_5, align 8
  %5 = getelementptr inbounds i8, ptr %_5, i64 8
  store i32 %4, ptr %5, align 8
  %6 = getelementptr inbounds i8, ptr %_5, i64 8
  %7 = load i32, ptr %6, align 8
  %8 = icmp eq i32 %7, 1114112
  %_7 = select i1 %8, i64 0, i64 1
  %9 = icmp eq i64 %_7, 1
  br i1 %9, label %bb2, label %bb6

bb2:                                              ; preds = %start
  %i = load i64, ptr %_5, align 8
  %10 = getelementptr inbounds i8, ptr %_5, i64 8
  %c = load i32, ptr %10, align 8
  %self3 = getelementptr inbounds i8, ptr %self, i64 16
  %11 = getelementptr inbounds i8, ptr %self, i64 16
  %self4 = getelementptr inbounds i8, ptr %11, i64 8
  %end5 = load ptr, ptr %self4, align 8
  %12 = getelementptr inbounds i8, ptr %self, i64 16
  %subtracted6 = load ptr, ptr %12, align 8
; call core::ptr::const_ptr::<impl *const T>::sub_ptr
  %len = call i64 @"_ZN4core3ptr9const_ptr33_$LT$impl$u20$$BP$const$u20$T$GT$7sub_ptr17h49c258bf1afa93efE"(ptr %end5, ptr %subtracted6)
  %char_len = sub i64 %pre_len, %len
  %_14 = getelementptr inbounds i8, ptr %self, i64 40
; call <F as core::str::pattern::MultiCharEq>::matches
  %_13 = call zeroext i1 @"_ZN53_$LT$F$u20$as$u20$core..str..pattern..MultiCharEq$GT$7matches17h6cb746887b750275E"(ptr align 1 %_14, i32 %c)
  br i1 %_13, label %bb4, label %bb5

bb6:                                              ; preds = %start
  store i64 2, ptr %_0, align 8
  br label %bb8

bb5:                                              ; preds = %bb2
  %_16 = add i64 %i, %char_len
  %13 = getelementptr inbounds i8, ptr %_0, i64 8
  store i64 %i, ptr %13, align 8
  %14 = getelementptr inbounds i8, ptr %_0, i64 16
  store i64 %_16, ptr %14, align 8
  store i64 1, ptr %_0, align 8
  br label %bb7

bb4:                                              ; preds = %bb2
  %_15 = add i64 %i, %char_len
  %15 = getelementptr inbounds i8, ptr %_0, i64 8
  store i64 %i, ptr %15, align 8
  %16 = getelementptr inbounds i8, ptr %_0, i64 16
  store i64 %_15, ptr %16, align 8
  store i64 0, ptr %_0, align 8
  br label %bb7

bb7:                                              ; preds = %bb4, %bb5
  br label %bb8

bb8:                                              ; preds = %bb6, %bb7
  ret void

bb11:                                             ; No predecessors!
  unreachable
}

; <std::ffi::os_str::OsString as core::ops::index::Index<core::ops::range::RangeFull>>::index
; Function Attrs: inlinehint nonlazybind uwtable
define internal { ptr, i64 } @"_ZN105_$LT$std..ffi..os_str..OsString$u20$as$u20$core..ops..index..Index$LT$core..ops..range..RangeFull$GT$$GT$5index17hf84df72a7cf2063aE"(ptr align 8 %self, ptr align 8 %0) unnamed_addr #0 {
start:
  %1 = getelementptr inbounds i8, ptr %self, i64 8
  %self1 = load ptr, ptr %1, align 8
  %2 = getelementptr inbounds i8, ptr %self, i64 16
  %len = load i64, ptr %2, align 8
  br label %bb3

bb3:                                              ; preds = %start
  %3 = insertvalue { ptr, i64 } poison, ptr %self1, 0
  %4 = insertvalue { ptr, i64 } %3, i64 %len, 1
  ret { ptr, i64 } %4

bb1:                                              ; No predecessors!
  unreachable

bb2:                                              ; No predecessors!
  unreachable
}

; <core::ops::range::Range<usize> as core::slice::index::SliceIndex<[T]>>::get_unchecked
; Function Attrs: inlinehint nonlazybind uwtable
define internal { ptr, i64 } @"_ZN106_$LT$core..ops..range..Range$LT$usize$GT$$u20$as$u20$core..slice..index..SliceIndex$LT$$u5b$T$u5d$$GT$$GT$13get_unchecked17head54a658913a1a3E"(i64 %self.0, i64 %self.1, ptr %slice.0, i64 %slice.1) unnamed_addr #0 {
start:
  %rhs = alloca [8 x i8], align 8
  %self = alloca [8 x i8], align 8
  br label %bb3

bb3:                                              ; preds = %start
  store i64 %self.1, ptr %self, align 8
  store i64 %self.0, ptr %rhs, align 8
  br label %bb5

bb5:                                              ; preds = %bb4, %bb3
  %0 = load i64, ptr %self, align 8
  %1 = load i64, ptr %rhs, align 8
  %new_len = sub nuw i64 %0, %1
  %count = load i64, ptr %rhs, align 8
  %2 = load i64, ptr %rhs, align 8
  %data = getelementptr inbounds i8, ptr %slice.0, i64 %2
  %3 = insertvalue { ptr, i64 } poison, ptr %data, 0
  %4 = insertvalue { ptr, i64 } %3, i64 %new_len, 1
  ret { ptr, i64 } %4

bb1:                                              ; No predecessors!
  unreachable

bb2:                                              ; No predecessors!
  unreachable

bb4:                                              ; No predecessors!
  %5 = load i64, ptr %self, align 8
  %6 = load i64, ptr %rhs, align 8
; call core::num::<impl usize>::unchecked_sub::precondition_check
  call void @"_ZN4core3num23_$LT$impl$u20$usize$GT$13unchecked_sub18precondition_check17hfc5bd500d0ef52f0E"(i64 %5, i64 %6) #19
  br label %bb5
}

; <core::ops::range::Range<usize> as core::slice::index::SliceIndex<[T]>>::get_unchecked_mut
; Function Attrs: inlinehint nonlazybind uwtable
define internal { ptr, i64 } @"_ZN106_$LT$core..ops..range..Range$LT$usize$GT$$u20$as$u20$core..slice..index..SliceIndex$LT$$u5b$T$u5d$$GT$$GT$17get_unchecked_mut17h86b096688debf3dcE"(i64 %self.0, i64 %self.1, ptr %slice.0, i64 %slice.1) unnamed_addr #0 {
start:
  %rhs = alloca [8 x i8], align 8
  %self = alloca [8 x i8], align 8
  br label %bb3

bb3:                                              ; preds = %start
  store i64 %self.1, ptr %self, align 8
  store i64 %self.0, ptr %rhs, align 8
  br label %bb5

bb5:                                              ; preds = %bb4, %bb3
  %0 = load i64, ptr %self, align 8
  %1 = load i64, ptr %rhs, align 8
  %new_len = sub nuw i64 %0, %1
  %count = load i64, ptr %rhs, align 8
  %2 = load i64, ptr %rhs, align 8
  %data = getelementptr inbounds i8, ptr %slice.0, i64 %2
  %3 = insertvalue { ptr, i64 } poison, ptr %data, 0
  %4 = insertvalue { ptr, i64 } %3, i64 %new_len, 1
  ret { ptr, i64 } %4

bb1:                                              ; No predecessors!
  unreachable

bb2:                                              ; No predecessors!
  unreachable

bb4:                                              ; No predecessors!
  %5 = load i64, ptr %self, align 8
  %6 = load i64, ptr %rhs, align 8
; call core::num::<impl usize>::unchecked_sub::precondition_check
  call void @"_ZN4core3num23_$LT$impl$u20$usize$GT$13unchecked_sub18precondition_check17hfc5bd500d0ef52f0E"(i64 %5, i64 %6) #19
  br label %bb5
}

; <core::ops::range::Range<usize> as core::slice::index::SliceIndex<[T]>>::get_unchecked_mut
; Function Attrs: inlinehint nonlazybind uwtable
define internal { ptr, i64 } @"_ZN106_$LT$core..ops..range..Range$LT$usize$GT$$u20$as$u20$core..slice..index..SliceIndex$LT$$u5b$T$u5d$$GT$$GT$17get_unchecked_mut17h9bc7d4a5208d02c5E"(i64 %self.0, i64 %self.1, ptr %slice.0, i64 %slice.1) unnamed_addr #0 {
start:
  %rhs = alloca [8 x i8], align 8
  %self = alloca [8 x i8], align 8
  br label %bb3

bb3:                                              ; preds = %start
  store i64 %self.1, ptr %self, align 8
  store i64 %self.0, ptr %rhs, align 8
  br label %bb5

bb5:                                              ; preds = %bb4, %bb3
  %0 = load i64, ptr %self, align 8
  %1 = load i64, ptr %rhs, align 8
  %new_len = sub nuw i64 %0, %1
  %count = load i64, ptr %rhs, align 8
  %2 = load i64, ptr %rhs, align 8
  %data = getelementptr inbounds i8, ptr %slice.0, i64 %2
  %3 = insertvalue { ptr, i64 } poison, ptr %data, 0
  %4 = insertvalue { ptr, i64 } %3, i64 %new_len, 1
  ret { ptr, i64 } %4

bb1:                                              ; No predecessors!
  unreachable

bb2:                                              ; No predecessors!
  unreachable

bb4:                                              ; No predecessors!
  %5 = load i64, ptr %self, align 8
  %6 = load i64, ptr %rhs, align 8
; call core::num::<impl usize>::unchecked_sub::precondition_check
  call void @"_ZN4core3num23_$LT$impl$u20$usize$GT$13unchecked_sub18precondition_check17hfc5bd500d0ef52f0E"(i64 %5, i64 %6) #19
  br label %bb5
}

; <core::ops::range::Range<usize> as core::slice::index::SliceIndex<[T]>>::get
; Function Attrs: inlinehint nonlazybind uwtable
define internal { ptr, i64 } @"_ZN106_$LT$core..ops..range..Range$LT$usize$GT$$u20$as$u20$core..slice..index..SliceIndex$LT$$u5b$T$u5d$$GT$$GT$3get17h5f48a0f23e93e9deE"(i64 %self.0, i64 %self.1, ptr align 1 %slice.0, i64 %slice.1) unnamed_addr #0 {
start:
  %_0 = alloca [16 x i8], align 8
  %_3 = icmp ugt i64 %self.0, %self.1
  br i1 %_3, label %bb1, label %bb2

bb2:                                              ; preds = %start
  %_6 = icmp ugt i64 %self.1, %slice.1
  br i1 %_6, label %bb3, label %bb5

bb1:                                              ; preds = %start
  br label %bb4

bb5:                                              ; preds = %bb2
; call <core::ops::range::Range<usize> as core::slice::index::SliceIndex<[T]>>::get_unchecked
  %0 = call { ptr, i64 } @"_ZN106_$LT$core..ops..range..Range$LT$usize$GT$$u20$as$u20$core..slice..index..SliceIndex$LT$$u5b$T$u5d$$GT$$GT$13get_unchecked17head54a658913a1a3E"(i64 %self.0, i64 %self.1, ptr %slice.0, i64 %slice.1)
  %_9.0 = extractvalue { ptr, i64 } %0, 0
  %_9.1 = extractvalue { ptr, i64 } %0, 1
  store ptr %_9.0, ptr %_0, align 8
  %1 = getelementptr inbounds i8, ptr %_0, i64 8
  store i64 %_9.1, ptr %1, align 8
  br label %bb7

bb3:                                              ; preds = %bb2
  br label %bb4

bb7:                                              ; preds = %bb4, %bb5
  %2 = load ptr, ptr %_0, align 8
  %3 = getelementptr inbounds i8, ptr %_0, i64 8
  %4 = load i64, ptr %3, align 8
  %5 = insertvalue { ptr, i64 } poison, ptr %2, 0
  %6 = insertvalue { ptr, i64 } %5, i64 %4, 1
  ret { ptr, i64 } %6

bb4:                                              ; preds = %bb1, %bb3
  %7 = load ptr, ptr @1, align 8
  %8 = load i64, ptr getelementptr inbounds (i8, ptr @1, i64 8), align 8
  store ptr %7, ptr %_0, align 8
  %9 = getelementptr inbounds i8, ptr %_0, i64 8
  store i64 %8, ptr %9, align 8
  br label %bb7
}

; <core::ops::range::Range<usize> as core::slice::index::SliceIndex<[T]>>::index_mut
; Function Attrs: inlinehint nonlazybind uwtable
define internal { ptr, i64 } @"_ZN106_$LT$core..ops..range..Range$LT$usize$GT$$u20$as$u20$core..slice..index..SliceIndex$LT$$u5b$T$u5d$$GT$$GT$9index_mut17hcfaf81ad5a88ea13E"(i64 %self.0, i64 %self.1, ptr align 1 %slice.0, i64 %slice.1, ptr align 8 %0) unnamed_addr #0 {
start:
  %_3 = icmp ugt i64 %self.0, %self.1
  br i1 %_3, label %bb1, label %bb2

bb2:                                              ; preds = %start
  %_7 = icmp ugt i64 %self.1, %slice.1
  br i1 %_7, label %bb3, label %bb4

bb1:                                              ; preds = %start
; call core::slice::index::slice_index_order_fail
  call void @_ZN4core5slice5index22slice_index_order_fail17h035de9af16d5a022E(i64 %self.0, i64 %self.1, ptr align 8 %0) #20
  unreachable

bb4:                                              ; preds = %bb2
; call <core::ops::range::Range<usize> as core::slice::index::SliceIndex<[T]>>::get_unchecked_mut
  %1 = call { ptr, i64 } @"_ZN106_$LT$core..ops..range..Range$LT$usize$GT$$u20$as$u20$core..slice..index..SliceIndex$LT$$u5b$T$u5d$$GT$$GT$17get_unchecked_mut17h86b096688debf3dcE"(i64 %self.0, i64 %self.1, ptr %slice.0, i64 %slice.1)
  %_11.0 = extractvalue { ptr, i64 } %1, 0
  %_11.1 = extractvalue { ptr, i64 } %1, 1
  %2 = insertvalue { ptr, i64 } poison, ptr %_11.0, 0
  %3 = insertvalue { ptr, i64 } %2, i64 %_11.1, 1
  ret { ptr, i64 } %3

bb3:                                              ; preds = %bb2
; call core::slice::index::slice_end_index_len_fail
  call void @_ZN4core5slice5index24slice_end_index_len_fail17h0342d27fee357d65E(i64 %self.1, i64 %slice.1, ptr align 8 %0) #20
  unreachable
}

; <core::slice::iter::Iter<T> as core::iter::traits::double_ended::DoubleEndedIterator>::next_back
; Function Attrs: inlinehint nonlazybind uwtable
define internal align 1 ptr @"_ZN106_$LT$core..slice..iter..Iter$LT$T$GT$$u20$as$u20$core..iter..traits..double_ended..DoubleEndedIterator$GT$9next_back17h84ec5647ba69f5feE"(ptr align 8 %self) unnamed_addr #0 {
start:
  %_10.i = alloca [8 x i8], align 8
  %_0.i = alloca [8 x i8], align 8
  %self1 = alloca [8 x i8], align 8
  %end = alloca [8 x i8], align 8
  %_2 = alloca [1 x i8], align 1
  %_0 = alloca [8 x i8], align 8
  br label %bb2

bb2:                                              ; preds = %start
  %self2 = getelementptr inbounds i8, ptr %self, i64 8
  %0 = load ptr, ptr %self2, align 8
  store ptr %0, ptr %end, align 8
  %self3 = load ptr, ptr %self, align 8
  %_17 = load ptr, ptr %end, align 8
  %1 = icmp eq ptr %self3, %_17
  %2 = zext i1 %1 to i8
  store i8 %2, ptr %_2, align 1
  br label %bb3

bb3:                                              ; preds = %bb2
  %3 = load i8, ptr %_2, align 1
  %4 = trunc i8 %3 to i1
  br i1 %4, label %bb4, label %bb5

bb1:                                              ; No predecessors!
  unreachable

bb5:                                              ; preds = %bb3
  %self1.i = getelementptr inbounds i8, ptr %self, i64 8
  %self2.i = load ptr, ptr %self1.i, align 8
  %_19.i = getelementptr inbounds i8, ptr %self2.i, i64 -1
  store ptr %_19.i, ptr %_10.i, align 8
  %5 = load ptr, ptr %_10.i, align 8
  store ptr %5, ptr %self1.i, align 8
  %6 = load ptr, ptr %self1.i, align 8
  store ptr %6, ptr %_0.i, align 8
  %7 = load ptr, ptr %_0.i, align 8
  store ptr %7, ptr %self1, align 8
  %_21 = load ptr, ptr %self1, align 8
  store ptr %_21, ptr %_0, align 8
  br label %bb6

bb4:                                              ; preds = %bb3
  store ptr null, ptr %_0, align 8
  br label %bb6

bb6:                                              ; preds = %bb4, %bb5
  %8 = load ptr, ptr %_0, align 8
  ret ptr %8
}

; <core::str::pattern::CharPredicateSearcher<F> as core::str::pattern::ReverseSearcher>::next_reject_back
; Function Attrs: inlinehint nonlazybind uwtable
define internal void @"_ZN106_$LT$core..str..pattern..CharPredicateSearcher$LT$F$GT$$u20$as$u20$core..str..pattern..ReverseSearcher$GT$16next_reject_back17h0cb40bddc7b84ab6E"(ptr sret([24 x i8]) align 8 %_0, ptr align 8 %self) unnamed_addr #0 {
start:
  %_3 = alloca [24 x i8], align 8
  br label %bb1

bb1:                                              ; preds = %bb5, %start
; call <core::str::pattern::MultiCharEqSearcher<C> as core::str::pattern::ReverseSearcher>::next_back
  call void @"_ZN104_$LT$core..str..pattern..MultiCharEqSearcher$LT$C$GT$$u20$as$u20$core..str..pattern..ReverseSearcher$GT$9next_back17hea0fbc9150bc44caE"(ptr sret([24 x i8]) align 8 %_3, ptr align 8 %self)
  %_4 = load i64, ptr %_3, align 8
  switch i64 %_4, label %bb7 [
    i64 1, label %bb3
    i64 2, label %bb4
    i64 0, label %bb5
  ]

bb7:                                              ; preds = %bb1
  unreachable

bb3:                                              ; preds = %bb1
  %0 = getelementptr inbounds i8, ptr %_3, i64 8
  %a = load i64, ptr %0, align 8
  %1 = getelementptr inbounds i8, ptr %_3, i64 16
  %b = load i64, ptr %1, align 8
  %2 = getelementptr inbounds i8, ptr %_0, i64 8
  store i64 %a, ptr %2, align 8
  %3 = getelementptr inbounds i8, ptr %2, i64 8
  store i64 %b, ptr %3, align 8
  store i64 1, ptr %_0, align 8
  br label %bb6

bb4:                                              ; preds = %bb1
  store i64 0, ptr %_0, align 8
  br label %bb6

bb5:                                              ; preds = %bb1
  br label %bb1

bb6:                                              ; preds = %bb4, %bb3
  ret void
}

; <alloc::collections::btree::map::BTreeMap<K,V,A> as core::iter::traits::collect::IntoIterator>::into_iter
; Function Attrs: nonlazybind uwtable
define internal void @"_ZN119_$LT$alloc..collections..btree..map..BTreeMap$LT$K$C$V$C$A$GT$$u20$as$u20$core..iter..traits..collect..IntoIterator$GT$9into_iter17he33c1a4d32d45004E"(ptr sret([72 x i8]) align 8 %_0, ptr align 8 %self) unnamed_addr #1 {
start:
  %_26 = alloca [32 x i8], align 8
  %_24 = alloca [24 x i8], align 8
  %_23 = alloca [32 x i8], align 8
  %_22 = alloca [24 x i8], align 8
  %_21 = alloca [32 x i8], align 8
  %_14 = alloca [64 x i8], align 8
  %self1 = alloca [16 x i8], align 8
  %full_range = alloca [64 x i8], align 8
  %result = alloca [16 x i8], align 8
  %me = alloca [24 x i8], align 8
  call void @llvm.memcpy.p0.p0.i64(ptr align 8 %me, ptr align 8 %self, i64 24, i1 false)
  %0 = load ptr, ptr %me, align 8
  %1 = getelementptr inbounds i8, ptr %me, i64 8
  %2 = load i64, ptr %1, align 8
  store ptr %0, ptr %result, align 8
  %3 = getelementptr inbounds i8, ptr %result, i64 8
  store i64 %2, ptr %3, align 8
  %4 = load ptr, ptr @1, align 8
  %5 = load i64, ptr getelementptr inbounds (i8, ptr @1, i64 8), align 8
  store ptr %4, ptr %me, align 8
  %6 = getelementptr inbounds i8, ptr %me, i64 8
  store i64 %5, ptr %6, align 8
  %7 = load ptr, ptr %result, align 8
  %8 = ptrtoint ptr %7 to i64
  %9 = icmp eq i64 %8, 0
  %_6 = select i1 %9, i64 0, i64 1
  %10 = icmp eq i64 %_6, 1
  br i1 %10, label %bb1, label %bb2

bb1:                                              ; preds = %start
  %11 = getelementptr inbounds i8, ptr %result, i64 8
  %root = load i64, ptr %11, align 8
  %root2 = load ptr, ptr %result, align 8
  %12 = getelementptr inbounds i8, ptr %self1, i64 8
  store i64 %root, ptr %12, align 8
  store ptr %root2, ptr %self1, align 8
  %self2.0 = load ptr, ptr %self1, align 8
  %13 = getelementptr inbounds i8, ptr %self1, i64 8
  %self2.1 = load i64, ptr %13, align 8
  %root1.0 = load ptr, ptr %self1, align 8
  %14 = getelementptr inbounds i8, ptr %self1, i64 8
  %root1.1 = load i64, ptr %14, align 8
  %15 = getelementptr inbounds i8, ptr %_22, i64 8
  store ptr %root1.0, ptr %15, align 8
  %16 = getelementptr inbounds i8, ptr %15, i64 8
  store i64 %root1.1, ptr %16, align 8
  store ptr null, ptr %_22, align 8
  %17 = getelementptr inbounds i8, ptr %_21, i64 8
  call void @llvm.memcpy.p0.p0.i64(ptr align 8 %17, ptr align 8 %_22, i64 24, i1 false)
  store i64 1, ptr %_21, align 8
  %18 = getelementptr inbounds i8, ptr %_24, i64 8
  store ptr %self2.0, ptr %18, align 8
  %19 = getelementptr inbounds i8, ptr %18, i64 8
  store i64 %self2.1, ptr %19, align 8
  store ptr null, ptr %_24, align 8
  %20 = getelementptr inbounds i8, ptr %_23, i64 8
  call void @llvm.memcpy.p0.p0.i64(ptr align 8 %20, ptr align 8 %_24, i64 24, i1 false)
  store i64 1, ptr %_23, align 8
  call void @llvm.memcpy.p0.p0.i64(ptr align 8 %full_range, ptr align 8 %_21, i64 32, i1 false)
  %21 = getelementptr inbounds i8, ptr %full_range, i64 32
  call void @llvm.memcpy.p0.p0.i64(ptr align 8 %21, ptr align 8 %_23, i64 32, i1 false)
  %22 = getelementptr inbounds i8, ptr %me, i64 16
  %_9 = load i64, ptr %22, align 8
  %slot = getelementptr inbounds i8, ptr %me, i64 24
  %src = getelementptr inbounds i8, ptr %me, i64 24
  call void @llvm.memcpy.p0.p0.i64(ptr align 8 %_0, ptr align 8 %full_range, i64 64, i1 false)
  %23 = getelementptr inbounds i8, ptr %_0, i64 64
  store i64 %_9, ptr %23, align 8
  br label %bb3

bb2:                                              ; preds = %start
  store i64 0, ptr %_26, align 8
  call void @llvm.memcpy.p0.p0.i64(ptr align 8 %_14, ptr align 8 %_26, i64 32, i1 false)
  %24 = getelementptr inbounds i8, ptr %_14, i64 32
  call void @llvm.memcpy.p0.p0.i64(ptr align 8 %24, ptr align 8 %_26, i64 32, i1 false)
  %slot3 = getelementptr inbounds i8, ptr %me, i64 24
  %src4 = getelementptr inbounds i8, ptr %me, i64 24
  call void @llvm.memcpy.p0.p0.i64(ptr align 8 %_0, ptr align 8 %_14, i64 64, i1 false)
  %25 = getelementptr inbounds i8, ptr %_0, i64 64
  store i64 0, ptr %25, align 8
  br label %bb3

bb3:                                              ; preds = %bb2, %bb1
  ret void

bb4:                                              ; No predecessors!
  unreachable
}

; <alloc::vec::Vec<T,A> as alloc::vec::spec_extend::SpecExtend<&T,core::slice::iter::Iter<T>>>::spec_extend
; Function Attrs: nonlazybind uwtable
define internal void @"_ZN132_$LT$alloc..vec..Vec$LT$T$C$A$GT$$u20$as$u20$alloc..vec..spec_extend..SpecExtend$LT$$RF$T$C$core..slice..iter..Iter$LT$T$GT$$GT$$GT$11spec_extend17h7fc9d74f84824674E"(ptr align 8 %self, ptr %0, ptr %1) unnamed_addr #1 {
start:
  %len.i = alloca [8 x i8], align 8
  %iterator = alloca [16 x i8], align 8
  store ptr %0, ptr %iterator, align 8
  %2 = getelementptr inbounds i8, ptr %iterator, i64 8
  store ptr %1, ptr %2, align 8
  %self1.i = load ptr, ptr %iterator, align 8
  %self2.i = getelementptr inbounds i8, ptr %iterator, i64 8
  %end.i = load ptr, ptr %self2.i, align 8
; call core::ptr::const_ptr::<impl *const T>::sub_ptr
  %3 = call i64 @"_ZN4core3ptr9const_ptr33_$LT$impl$u20$$BP$const$u20$T$GT$7sub_ptr17h49c258bf1afa93efE"(ptr %end.i, ptr %self1.i)
  store i64 %3, ptr %len.i, align 8
  %_18.1.i = load i64, ptr %len.i, align 8
  %4 = insertvalue { ptr, i64 } poison, ptr %self1.i, 0
  %5 = insertvalue { ptr, i64 } %4, i64 %_18.1.i, 1
  %slice.0 = extractvalue { ptr, i64 } %5, 0
  %slice.1 = extractvalue { ptr, i64 } %5, 1
; call alloc::vec::Vec<T,A>::append_elements
  call void @"_ZN5alloc3vec16Vec$LT$T$C$A$GT$15append_elements17h2db7a2b0ba01e34dE"(ptr align 8 %self, ptr %slice.0, i64 %slice.1)
  ret void
}

; <<alloc::collections::btree::map::IntoIter<K,V,A> as core::ops::drop::Drop>::drop::DropGuard<K,V,A> as core::ops::drop::Drop>::drop
; Function Attrs: nonlazybind uwtable
define internal void @"_ZN174_$LT$$LT$alloc..collections..btree..map..IntoIter$LT$K$C$V$C$A$GT$$u20$as$u20$core..ops..drop..Drop$GT$..drop..DropGuard$LT$K$C$V$C$A$GT$$u20$as$u20$core..ops..drop..Drop$GT$4drop17h4750bfd04f0d37f4E"(ptr align 8 %self) unnamed_addr #1 {
start:
  %kv = alloca [24 x i8], align 8
  %_2 = alloca [24 x i8], align 8
  br label %bb1

bb1:                                              ; preds = %bb3, %start
  %_6 = load ptr, ptr %self, align 8
; call alloc::collections::btree::map::IntoIter<K,V,A>::dying_next
  call void @"_ZN5alloc11collections5btree3map25IntoIter$LT$K$C$V$C$A$GT$10dying_next17h327e78c596f2e96dE"(ptr sret([24 x i8]) align 8 %_2, ptr align 8 %_6)
  %0 = load ptr, ptr %_2, align 8
  %1 = ptrtoint ptr %0 to i64
  %2 = icmp eq i64 %1, 0
  %_3 = select i1 %2, i64 0, i64 1
  %3 = icmp eq i64 %_3, 1
  br i1 %3, label %bb3, label %bb5

bb3:                                              ; preds = %bb1
  call void @llvm.memcpy.p0.p0.i64(ptr align 8 %kv, ptr align 8 %_2, i64 24, i1 false)
; call alloc::collections::btree::node::Handle<alloc::collections::btree::node::NodeRef<alloc::collections::btree::node::marker::Dying,K,V,NodeType>,alloc::collections::btree::node::marker::KV>::drop_key_val
  call void @"_ZN5alloc11collections5btree4node173Handle$LT$alloc..collections..btree..node..NodeRef$LT$alloc..collections..btree..node..marker..Dying$C$K$C$V$C$NodeType$GT$$C$alloc..collections..btree..node..marker..KV$GT$12drop_key_val17h457f51c0b0f91db2E"(ptr align 8 %kv)
  br label %bb1

bb5:                                              ; preds = %bb1
  ret void

bb6:                                              ; No predecessors!
  unreachable
}

; std::sys_common::backtrace::__rust_begin_short_backtrace
; Function Attrs: noinline nonlazybind uwtable
define internal void @_ZN3std10sys_common9backtrace28__rust_begin_short_backtrace17hc4bbeb6b22e26f58E(ptr %f) unnamed_addr #2 {
start:
; call core::ops::function::FnOnce::call_once
  call void @_ZN4core3ops8function6FnOnce9call_once17hf300bd05fc11080bE(ptr %f)
  call void asm sideeffect "", "~{memory}"(), !srcloc !4
  ret void
}

; std::io::error::repr_bitpacked::decode_repr
; Function Attrs: inlinehint nonlazybind uwtable
define internal void @_ZN3std2io5error14repr_bitpacked11decode_repr17hdd4fb282ba8c5b8dE(ptr sret([16 x i8]) align 8 %_0, ptr %ptr) unnamed_addr #0 personality ptr @rust_eh_personality {
start:
  %0 = alloca [8 x i8], align 8
  %1 = alloca [16 x i8], align 8
  %_21 = alloca [1 x i8], align 1
  %self = alloca [1 x i8], align 1
  %bits = alloca [8 x i8], align 8
  store i8 1, ptr %_21, align 1
  %2 = ptrtoint ptr %ptr to i64
  store i64 %2, ptr %bits, align 8
  %3 = load i64, ptr %bits, align 8
  %_5 = and i64 %3, 3
  switch i64 %_5, label %bb1 [
    i64 2, label %bb2
    i64 3, label %bb3
    i64 0, label %bb5
    i64 1, label %bb6
  ]

bb1:                                              ; preds = %start
; invoke core::panicking::panic
  invoke void @_ZN4core9panicking5panic17hdc606204151d5569E(ptr align 1 @alloc_a500d906b91607583596fa15e63c2ada, i64 40, ptr align 8 @alloc_0454db1a094b688b9e12d48e39c001e6) #20
          to label %unreachable unwind label %cleanup

bb2:                                              ; preds = %start
  %_8 = load i64, ptr %bits, align 8
  %_7 = ashr i64 %_8, 32
  %code = trunc i64 %_7 to i32
  %4 = getelementptr inbounds i8, ptr %_0, i64 4
  store i32 %code, ptr %4, align 4
  store i8 0, ptr %_0, align 8
  br label %bb10

bb3:                                              ; preds = %start
  %5 = load i64, ptr %bits, align 8
  %_10 = lshr i64 %5, 32
  %kind_bits = trunc i64 %_10 to i32
; invoke std::io::error::repr_bitpacked::kind_from_prim
  %6 = invoke i8 @_ZN3std2io5error14repr_bitpacked14kind_from_prim17hc4ca54df2a8b596bE(i32 %kind_bits)
          to label %bb4 unwind label %cleanup

bb5:                                              ; preds = %start
  %7 = getelementptr inbounds i8, ptr %_0, i64 8
  store ptr %ptr, ptr %7, align 8
  store i8 2, ptr %_0, align 8
  br label %bb10

bb6:                                              ; preds = %start
  %8 = getelementptr i8, ptr %ptr, i64 -1
  store ptr %8, ptr %0, align 8
  %_35 = load ptr, ptr %0, align 8
  store i8 0, ptr %_21, align 1
; invoke <std::io::error::repr_bitpacked::Repr as core::ops::drop::Drop>::drop::{{closure}}
  %_17 = invoke align 8 ptr @"_ZN78_$LT$std..io..error..repr_bitpacked..Repr$u20$as$u20$core..ops..drop..Drop$GT$4drop28_$u7b$$u7b$closure$u7d$$u7d$17h2477fa102204f2a1E"(ptr %_35)
          to label %bb7 unwind label %cleanup

bb10:                                             ; preds = %bb5, %bb15, %bb2
  br label %bb8

bb12:                                             ; preds = %cleanup
  %9 = load i8, ptr %_21, align 1
  %10 = trunc i8 %9 to i1
  br i1 %10, label %bb11, label %bb9

cleanup:                                          ; preds = %bb1, %bb6, %bb3
  %11 = landingpad { ptr, i32 }
          cleanup
  %12 = extractvalue { ptr, i32 } %11, 0
  %13 = extractvalue { ptr, i32 } %11, 1
  store ptr %12, ptr %1, align 8
  %14 = getelementptr inbounds i8, ptr %1, i64 8
  store i32 %13, ptr %14, align 8
  br label %bb12

bb4:                                              ; preds = %bb3
  store i8 %6, ptr %self, align 1
  %15 = load i8, ptr %self, align 1
  %16 = icmp eq i8 %15, 41
  %_23 = select i1 %16, i64 0, i64 1
  %17 = icmp eq i64 %_23, 0
  br i1 %17, label %bb14, label %bb15

bb14:                                             ; preds = %bb4
; call core::hint::unreachable_unchecked::precondition_check
  call void @_ZN4core4hint21unreachable_unchecked18precondition_check17hb99a1892f1a8d538E() #19
  br label %bb13

bb15:                                             ; preds = %bb4
  %kind = load i8, ptr %self, align 1
  %18 = getelementptr inbounds i8, ptr %_0, i64 1
  store i8 %kind, ptr %18, align 1
  store i8 1, ptr %_0, align 8
  br label %bb10

bb13:                                             ; preds = %bb14
  unreachable

bb8:                                              ; preds = %bb7, %bb10
  ret void

bb7:                                              ; preds = %bb6
  %19 = getelementptr inbounds i8, ptr %_0, i64 8
  store ptr %_17, ptr %19, align 8
  store i8 3, ptr %_0, align 8
  br label %bb8

unreachable:                                      ; preds = %bb1
  unreachable

bb9:                                              ; preds = %bb11, %bb12
  %20 = load ptr, ptr %1, align 8
  %21 = getelementptr inbounds i8, ptr %1, i64 8
  %22 = load i32, ptr %21, align 8
  %23 = insertvalue { ptr, i32 } poison, ptr %20, 0
  %24 = insertvalue { ptr, i32 } %23, i32 %22, 1
  resume { ptr, i32 } %24

bb11:                                             ; preds = %bb12
  br label %bb9
}

; std::io::error::repr_bitpacked::kind_from_prim
; Function Attrs: inlinehint nonlazybind uwtable
define internal i8 @_ZN3std2io5error14repr_bitpacked14kind_from_prim17hc4ca54df2a8b596bE(i32 %0) unnamed_addr #0 {
start:
  %_0 = alloca [1 x i8], align 1
  %ek = alloca [4 x i8], align 4
  store i32 %0, ptr %ek, align 4
  %1 = load i32, ptr %ek, align 4
  %2 = icmp eq i32 %1, 0
  br i1 %2, label %bb1, label %bb2

bb1:                                              ; preds = %start
  store i8 0, ptr %_0, align 1
  br label %bb83

bb2:                                              ; preds = %start
  %3 = load i32, ptr %ek, align 4
  %4 = icmp eq i32 %3, 1
  br i1 %4, label %bb3, label %bb4

bb83:                                             ; preds = %bb82, %bb81, %bb79, %bb77, %bb75, %bb73, %bb71, %bb69, %bb67, %bb65, %bb63, %bb61, %bb59, %bb57, %bb55, %bb53, %bb51, %bb49, %bb47, %bb45, %bb43, %bb41, %bb39, %bb37, %bb35, %bb33, %bb31, %bb29, %bb27, %bb25, %bb23, %bb21, %bb19, %bb17, %bb15, %bb13, %bb11, %bb9, %bb7, %bb5, %bb3, %bb1
  %5 = load i8, ptr %_0, align 1
  ret i8 %5

bb3:                                              ; preds = %bb2
  store i8 1, ptr %_0, align 1
  br label %bb83

bb4:                                              ; preds = %bb2
  %6 = load i32, ptr %ek, align 4
  %7 = icmp eq i32 %6, 2
  br i1 %7, label %bb5, label %bb6

bb5:                                              ; preds = %bb4
  store i8 2, ptr %_0, align 1
  br label %bb83

bb6:                                              ; preds = %bb4
  %8 = load i32, ptr %ek, align 4
  %9 = icmp eq i32 %8, 3
  br i1 %9, label %bb7, label %bb8

bb7:                                              ; preds = %bb6
  store i8 3, ptr %_0, align 1
  br label %bb83

bb8:                                              ; preds = %bb6
  %10 = load i32, ptr %ek, align 4
  %11 = icmp eq i32 %10, 4
  br i1 %11, label %bb9, label %bb10

bb9:                                              ; preds = %bb8
  store i8 4, ptr %_0, align 1
  br label %bb83

bb10:                                             ; preds = %bb8
  %12 = load i32, ptr %ek, align 4
  %13 = icmp eq i32 %12, 5
  br i1 %13, label %bb11, label %bb12

bb11:                                             ; preds = %bb10
  store i8 5, ptr %_0, align 1
  br label %bb83

bb12:                                             ; preds = %bb10
  %14 = load i32, ptr %ek, align 4
  %15 = icmp eq i32 %14, 6
  br i1 %15, label %bb13, label %bb14

bb13:                                             ; preds = %bb12
  store i8 6, ptr %_0, align 1
  br label %bb83

bb14:                                             ; preds = %bb12
  %16 = load i32, ptr %ek, align 4
  %17 = icmp eq i32 %16, 7
  br i1 %17, label %bb15, label %bb16

bb15:                                             ; preds = %bb14
  store i8 7, ptr %_0, align 1
  br label %bb83

bb16:                                             ; preds = %bb14
  %18 = load i32, ptr %ek, align 4
  %19 = icmp eq i32 %18, 8
  br i1 %19, label %bb17, label %bb18

bb17:                                             ; preds = %bb16
  store i8 8, ptr %_0, align 1
  br label %bb83

bb18:                                             ; preds = %bb16
  %20 = load i32, ptr %ek, align 4
  %21 = icmp eq i32 %20, 9
  br i1 %21, label %bb19, label %bb20

bb19:                                             ; preds = %bb18
  store i8 9, ptr %_0, align 1
  br label %bb83

bb20:                                             ; preds = %bb18
  %22 = load i32, ptr %ek, align 4
  %23 = icmp eq i32 %22, 10
  br i1 %23, label %bb21, label %bb22

bb21:                                             ; preds = %bb20
  store i8 10, ptr %_0, align 1
  br label %bb83

bb22:                                             ; preds = %bb20
  %24 = load i32, ptr %ek, align 4
  %25 = icmp eq i32 %24, 11
  br i1 %25, label %bb23, label %bb24

bb23:                                             ; preds = %bb22
  store i8 11, ptr %_0, align 1
  br label %bb83

bb24:                                             ; preds = %bb22
  %26 = load i32, ptr %ek, align 4
  %27 = icmp eq i32 %26, 12
  br i1 %27, label %bb25, label %bb26

bb25:                                             ; preds = %bb24
  store i8 12, ptr %_0, align 1
  br label %bb83

bb26:                                             ; preds = %bb24
  %28 = load i32, ptr %ek, align 4
  %29 = icmp eq i32 %28, 13
  br i1 %29, label %bb27, label %bb28

bb27:                                             ; preds = %bb26
  store i8 13, ptr %_0, align 1
  br label %bb83

bb28:                                             ; preds = %bb26
  %30 = load i32, ptr %ek, align 4
  %31 = icmp eq i32 %30, 14
  br i1 %31, label %bb29, label %bb30

bb29:                                             ; preds = %bb28
  store i8 14, ptr %_0, align 1
  br label %bb83

bb30:                                             ; preds = %bb28
  %32 = load i32, ptr %ek, align 4
  %33 = icmp eq i32 %32, 15
  br i1 %33, label %bb31, label %bb32

bb31:                                             ; preds = %bb30
  store i8 15, ptr %_0, align 1
  br label %bb83

bb32:                                             ; preds = %bb30
  %34 = load i32, ptr %ek, align 4
  %35 = icmp eq i32 %34, 16
  br i1 %35, label %bb33, label %bb34

bb33:                                             ; preds = %bb32
  store i8 16, ptr %_0, align 1
  br label %bb83

bb34:                                             ; preds = %bb32
  %36 = load i32, ptr %ek, align 4
  %37 = icmp eq i32 %36, 17
  br i1 %37, label %bb35, label %bb36

bb35:                                             ; preds = %bb34
  store i8 17, ptr %_0, align 1
  br label %bb83

bb36:                                             ; preds = %bb34
  %38 = load i32, ptr %ek, align 4
  %39 = icmp eq i32 %38, 18
  br i1 %39, label %bb37, label %bb38

bb37:                                             ; preds = %bb36
  store i8 18, ptr %_0, align 1
  br label %bb83

bb38:                                             ; preds = %bb36
  %40 = load i32, ptr %ek, align 4
  %41 = icmp eq i32 %40, 19
  br i1 %41, label %bb39, label %bb40

bb39:                                             ; preds = %bb38
  store i8 19, ptr %_0, align 1
  br label %bb83

bb40:                                             ; preds = %bb38
  %42 = load i32, ptr %ek, align 4
  %43 = icmp eq i32 %42, 20
  br i1 %43, label %bb41, label %bb42

bb41:                                             ; preds = %bb40
  store i8 20, ptr %_0, align 1
  br label %bb83

bb42:                                             ; preds = %bb40
  %44 = load i32, ptr %ek, align 4
  %45 = icmp eq i32 %44, 21
  br i1 %45, label %bb43, label %bb44

bb43:                                             ; preds = %bb42
  store i8 21, ptr %_0, align 1
  br label %bb83

bb44:                                             ; preds = %bb42
  %46 = load i32, ptr %ek, align 4
  %47 = icmp eq i32 %46, 22
  br i1 %47, label %bb45, label %bb46

bb45:                                             ; preds = %bb44
  store i8 22, ptr %_0, align 1
  br label %bb83

bb46:                                             ; preds = %bb44
  %48 = load i32, ptr %ek, align 4
  %49 = icmp eq i32 %48, 23
  br i1 %49, label %bb47, label %bb48

bb47:                                             ; preds = %bb46
  store i8 23, ptr %_0, align 1
  br label %bb83

bb48:                                             ; preds = %bb46
  %50 = load i32, ptr %ek, align 4
  %51 = icmp eq i32 %50, 24
  br i1 %51, label %bb49, label %bb50

bb49:                                             ; preds = %bb48
  store i8 24, ptr %_0, align 1
  br label %bb83

bb50:                                             ; preds = %bb48
  %52 = load i32, ptr %ek, align 4
  %53 = icmp eq i32 %52, 25
  br i1 %53, label %bb51, label %bb52

bb51:                                             ; preds = %bb50
  store i8 25, ptr %_0, align 1
  br label %bb83

bb52:                                             ; preds = %bb50
  %54 = load i32, ptr %ek, align 4
  %55 = icmp eq i32 %54, 26
  br i1 %55, label %bb53, label %bb54

bb53:                                             ; preds = %bb52
  store i8 26, ptr %_0, align 1
  br label %bb83

bb54:                                             ; preds = %bb52
  %56 = load i32, ptr %ek, align 4
  %57 = icmp eq i32 %56, 27
  br i1 %57, label %bb55, label %bb56

bb55:                                             ; preds = %bb54
  store i8 27, ptr %_0, align 1
  br label %bb83

bb56:                                             ; preds = %bb54
  %58 = load i32, ptr %ek, align 4
  %59 = icmp eq i32 %58, 28
  br i1 %59, label %bb57, label %bb58

bb57:                                             ; preds = %bb56
  store i8 28, ptr %_0, align 1
  br label %bb83

bb58:                                             ; preds = %bb56
  %60 = load i32, ptr %ek, align 4
  %61 = icmp eq i32 %60, 29
  br i1 %61, label %bb59, label %bb60

bb59:                                             ; preds = %bb58
  store i8 29, ptr %_0, align 1
  br label %bb83

bb60:                                             ; preds = %bb58
  %62 = load i32, ptr %ek, align 4
  %63 = icmp eq i32 %62, 30
  br i1 %63, label %bb61, label %bb62

bb61:                                             ; preds = %bb60
  store i8 30, ptr %_0, align 1
  br label %bb83

bb62:                                             ; preds = %bb60
  %64 = load i32, ptr %ek, align 4
  %65 = icmp eq i32 %64, 31
  br i1 %65, label %bb63, label %bb64

bb63:                                             ; preds = %bb62
  store i8 31, ptr %_0, align 1
  br label %bb83

bb64:                                             ; preds = %bb62
  %66 = load i32, ptr %ek, align 4
  %67 = icmp eq i32 %66, 32
  br i1 %67, label %bb65, label %bb66

bb65:                                             ; preds = %bb64
  store i8 32, ptr %_0, align 1
  br label %bb83

bb66:                                             ; preds = %bb64
  %68 = load i32, ptr %ek, align 4
  %69 = icmp eq i32 %68, 33
  br i1 %69, label %bb67, label %bb68

bb67:                                             ; preds = %bb66
  store i8 33, ptr %_0, align 1
  br label %bb83

bb68:                                             ; preds = %bb66
  %70 = load i32, ptr %ek, align 4
  %71 = icmp eq i32 %70, 34
  br i1 %71, label %bb69, label %bb70

bb69:                                             ; preds = %bb68
  store i8 34, ptr %_0, align 1
  br label %bb83

bb70:                                             ; preds = %bb68
  %72 = load i32, ptr %ek, align 4
  %73 = icmp eq i32 %72, 35
  br i1 %73, label %bb71, label %bb72

bb71:                                             ; preds = %bb70
  store i8 35, ptr %_0, align 1
  br label %bb83

bb72:                                             ; preds = %bb70
  %74 = load i32, ptr %ek, align 4
  %75 = icmp eq i32 %74, 39
  br i1 %75, label %bb73, label %bb74

bb73:                                             ; preds = %bb72
  store i8 39, ptr %_0, align 1
  br label %bb83

bb74:                                             ; preds = %bb72
  %76 = load i32, ptr %ek, align 4
  %77 = icmp eq i32 %76, 37
  br i1 %77, label %bb75, label %bb76

bb75:                                             ; preds = %bb74
  store i8 37, ptr %_0, align 1
  br label %bb83

bb76:                                             ; preds = %bb74
  %78 = load i32, ptr %ek, align 4
  %79 = icmp eq i32 %78, 36
  br i1 %79, label %bb77, label %bb78

bb77:                                             ; preds = %bb76
  store i8 36, ptr %_0, align 1
  br label %bb83

bb78:                                             ; preds = %bb76
  %80 = load i32, ptr %ek, align 4
  %81 = icmp eq i32 %80, 38
  br i1 %81, label %bb79, label %bb80

bb79:                                             ; preds = %bb78
  store i8 38, ptr %_0, align 1
  br label %bb83

bb80:                                             ; preds = %bb78
  %82 = load i32, ptr %ek, align 4
  %83 = icmp eq i32 %82, 40
  br i1 %83, label %bb81, label %bb82

bb81:                                             ; preds = %bb80
  store i8 40, ptr %_0, align 1
  br label %bb83

bb82:                                             ; preds = %bb80
  store i8 41, ptr %_0, align 1
  br label %bb83
}

; std::rt::lang_start
; Function Attrs: nonlazybind uwtable
define hidden i64 @_ZN3std2rt10lang_start17h587bc53e2cb6c4edE(ptr %main, i64 %argc, ptr %argv, i8 %sigpipe) unnamed_addr #1 {
start:
  %_8 = alloca [8 x i8], align 8
  %_5 = alloca [8 x i8], align 8
  store ptr %main, ptr %_8, align 8
; call std::rt::lang_start_internal
  %0 = call i64 @_ZN3std2rt19lang_start_internal17h3ba09e125ccbefb1E(ptr align 1 %_8, ptr align 8 @vtable.0, i64 %argc, ptr %argv, i8 %sigpipe)
  store i64 %0, ptr %_5, align 8
  %v = load i64, ptr %_5, align 8
  ret i64 %v
}

; std::rt::lang_start::{{closure}}
; Function Attrs: inlinehint nonlazybind uwtable
define internal i32 @"_ZN3std2rt10lang_start28_$u7b$$u7b$closure$u7d$$u7d$17h4d04a1ab745072d6E"(ptr align 8 %_1) unnamed_addr #0 {
start:
  %self = alloca [1 x i8], align 1
  %_4 = load ptr, ptr %_1, align 8
; call std::sys_common::backtrace::__rust_begin_short_backtrace
  call void @_ZN3std10sys_common9backtrace28__rust_begin_short_backtrace17hc4bbeb6b22e26f58E(ptr %_4)
; call <() as std::process::Termination>::report
  %0 = call i8 @"_ZN54_$LT$$LP$$RP$$u20$as$u20$std..process..Termination$GT$6report17h96f7fe2f2ffeb9b9E"()
  store i8 %0, ptr %self, align 1
  %_6 = load i8, ptr %self, align 1
  %_0 = zext i8 %_6 to i32
  ret i32 %_0
}

; std::env::var
; Function Attrs: nonlazybind uwtable
define internal void @_ZN3std3env3var17h162bdecd035c656dE(ptr sret([32 x i8]) align 8 %_0, ptr align 1 %0, i64 %1) unnamed_addr #1 personality ptr @rust_eh_personality {
start:
  %2 = alloca [16 x i8], align 8
  %key = alloca [16 x i8], align 8
  store ptr %0, ptr %key, align 8
  %3 = getelementptr inbounds i8, ptr %key, i64 8
  store i64 %1, ptr %3, align 8
; invoke <&T as core::convert::AsRef<U>>::as_ref
  %4 = invoke { ptr, i64 } @"_ZN55_$LT$$RF$T$u20$as$u20$core..convert..AsRef$LT$U$GT$$GT$6as_ref17h316a7a6ab08dfda7E"(ptr align 8 %key)
          to label %bb1 unwind label %cleanup

bb4:                                              ; preds = %cleanup
  %5 = load ptr, ptr %2, align 8
  %6 = getelementptr inbounds i8, ptr %2, i64 8
  %7 = load i32, ptr %6, align 8
  %8 = insertvalue { ptr, i32 } poison, ptr %5, 0
  %9 = insertvalue { ptr, i32 } %8, i32 %7, 1
  resume { ptr, i32 } %9

cleanup:                                          ; preds = %bb1, %start
  %10 = landingpad { ptr, i32 }
          cleanup
  %11 = extractvalue { ptr, i32 } %10, 0
  %12 = extractvalue { ptr, i32 } %10, 1
  store ptr %11, ptr %2, align 8
  %13 = getelementptr inbounds i8, ptr %2, i64 8
  store i32 %12, ptr %13, align 8
  br label %bb4

bb1:                                              ; preds = %start
  %_2.0 = extractvalue { ptr, i64 } %4, 0
  %_2.1 = extractvalue { ptr, i64 } %4, 1
; invoke std::env::_var
  invoke void @_ZN3std3env4_var17he0ae9997c6c03d5aE(ptr sret([32 x i8]) align 8 %_0, ptr align 1 %_2.0, i64 %_2.1)
          to label %bb2 unwind label %cleanup

bb2:                                              ; preds = %bb1
  ret void
}

; std::env::var_os
; Function Attrs: nonlazybind uwtable
define internal void @_ZN3std3env6var_os17h83d05bac7c51de66E(ptr sret([24 x i8]) align 8 %_0, ptr align 1 %0, i64 %1) unnamed_addr #1 personality ptr @rust_eh_personality {
start:
  %2 = alloca [16 x i8], align 8
  %key = alloca [16 x i8], align 8
  store ptr %0, ptr %key, align 8
  %3 = getelementptr inbounds i8, ptr %key, i64 8
  store i64 %1, ptr %3, align 8
; invoke <&T as core::convert::AsRef<U>>::as_ref
  %4 = invoke { ptr, i64 } @"_ZN55_$LT$$RF$T$u20$as$u20$core..convert..AsRef$LT$U$GT$$GT$6as_ref17h316a7a6ab08dfda7E"(ptr align 8 %key)
          to label %bb1 unwind label %cleanup

bb4:                                              ; preds = %cleanup
  %5 = load ptr, ptr %2, align 8
  %6 = getelementptr inbounds i8, ptr %2, i64 8
  %7 = load i32, ptr %6, align 8
  %8 = insertvalue { ptr, i32 } poison, ptr %5, 0
  %9 = insertvalue { ptr, i32 } %8, i32 %7, 1
  resume { ptr, i32 } %9

cleanup:                                          ; preds = %bb1, %start
  %10 = landingpad { ptr, i32 }
          cleanup
  %11 = extractvalue { ptr, i32 } %10, 0
  %12 = extractvalue { ptr, i32 } %10, 1
  store ptr %11, ptr %2, align 8
  %13 = getelementptr inbounds i8, ptr %2, i64 8
  store i32 %12, ptr %13, align 8
  br label %bb4

bb1:                                              ; preds = %start
  %_2.0 = extractvalue { ptr, i64 } %4, 0
  %_2.1 = extractvalue { ptr, i64 } %4, 1
; invoke std::env::_var_os
  invoke void @_ZN3std3env7_var_os17h9aecae4c54784e54E(ptr sret([24 x i8]) align 8 %_0, ptr align 1 %_2.0, i64 %_2.1)
          to label %bb2 unwind label %cleanup

bb2:                                              ; preds = %bb1
  ret void
}

; std::ffi::os_str::OsStr::is_empty
; Function Attrs: inlinehint nonlazybind uwtable
define internal zeroext i1 @_ZN3std3ffi6os_str5OsStr8is_empty17h2204f3fadd369851E(ptr align 1 %self.0, i64 %self.1) unnamed_addr #0 {
start:
  %_0 = icmp eq i64 %self.1, 0
  ret i1 %_0
}

; std::ffi::os_str::<impl core::convert::AsRef<std::ffi::os_str::OsStr> for str>::as_ref
; Function Attrs: inlinehint nonlazybind uwtable
define internal { ptr, i64 } @"_ZN3std3ffi6os_str85_$LT$impl$u20$core..convert..AsRef$LT$std..ffi..os_str..OsStr$GT$$u20$for$u20$str$GT$6as_ref17h98f20a9132d97dcfE"(ptr align 1 %self.0, i64 %self.1) unnamed_addr #0 {
start:
  %0 = insertvalue { ptr, i64 } poison, ptr %self.0, 0
  %1 = insertvalue { ptr, i64 } %0, i64 %self.1, 1
  ret { ptr, i64 } %1
}

; std::sys::pal::unix::fs::debug_assert_fd_is_open
; Function Attrs: inlinehint nonlazybind uwtable
define internal void @_ZN3std3sys3pal4unix2fs23debug_assert_fd_is_open17hc145d258b167617dE(i32 %fd) unnamed_addr #0 {
start:
  %_11 = alloca [0 x i8], align 8
  %_9 = alloca [48 x i8], align 8
  %_7 = alloca [8 x i8], align 8
  %_6 = alloca [0 x i8], align 1
  br label %bb11

bb11:                                             ; preds = %start
  ret void

bb1:                                              ; No predecessors!
  unreachable

bb2:                                              ; No predecessors!
  unreachable

bb3:                                              ; No predecessors!
  unreachable

bb4:                                              ; No predecessors!
  unreachable

bb8:                                              ; No predecessors!
  unreachable

bb5:                                              ; No predecessors!
  unreachable

bb6:                                              ; No predecessors!
  unreachable

bb7:                                              ; No predecessors!
  unreachable

bb9:                                              ; No predecessors!
  unreachable

bb10:                                             ; No predecessors!
  unreachable
}

; std::process::ExitStatus::success
; Function Attrs: nonlazybind uwtable
define internal zeroext i1 @_ZN3std7process10ExitStatus7success17h6b0dc3002b18d0ccE(ptr align 4 %self) unnamed_addr #1 {
start:
  %self1 = alloca [4 x i8], align 4
  %_3 = alloca [4 x i8], align 4
  %_0 = alloca [1 x i8], align 1
  %value = load i32, ptr %self, align 4
  store i32 %value, ptr %self1, align 4
  %0 = load i32, ptr %self1, align 4
  %1 = icmp eq i32 %0, 0
  %_8 = select i1 %1, i64 0, i64 1
  %2 = icmp eq i64 %_8, 0
  br i1 %2, label %bb3, label %bb4

bb3:                                              ; preds = %start
  store i32 0, ptr %_3, align 4
  br label %bb2

bb4:                                              ; preds = %start
  %failure = load i32, ptr %self1, align 4
  store i32 %failure, ptr %_3, align 4
  br label %bb2

bb2:                                              ; preds = %bb4, %bb3
  %3 = load i32, ptr %_3, align 4
  %4 = icmp eq i32 %3, 0
  %_10 = select i1 %4, i64 0, i64 1
  %5 = icmp eq i64 %_10, 0
  br i1 %5, label %bb7, label %bb6

bb7:                                              ; preds = %bb2
  store i8 1, ptr %_0, align 1
  br label %bb5

bb6:                                              ; preds = %bb2
  store i8 0, ptr %_0, align 1
  br label %bb5

bb5:                                              ; preds = %bb6, %bb7
  %6 = load i8, ptr %_0, align 1
  %7 = trunc i8 %6 to i1
  ret i1 %7

bb1:                                              ; No predecessors!
  unreachable
}

; std::process::Command::arg
; Function Attrs: nonlazybind uwtable
define internal align 8 ptr @_ZN3std7process7Command3arg17he260816030c1fd1cE(ptr align 8 %self, ptr align 1 %0, i64 %1) unnamed_addr #1 personality ptr @rust_eh_personality {
start:
  %2 = alloca [16 x i8], align 8
  %arg = alloca [16 x i8], align 8
  store ptr %0, ptr %arg, align 8
  %3 = getelementptr inbounds i8, ptr %arg, i64 8
  store i64 %1, ptr %3, align 8
; invoke <&T as core::convert::AsRef<U>>::as_ref
  %4 = invoke { ptr, i64 } @"_ZN55_$LT$$RF$T$u20$as$u20$core..convert..AsRef$LT$U$GT$$GT$6as_ref17h316a7a6ab08dfda7E"(ptr align 8 %arg)
          to label %bb1 unwind label %cleanup

bb4:                                              ; preds = %cleanup
  %5 = load ptr, ptr %2, align 8
  %6 = getelementptr inbounds i8, ptr %2, i64 8
  %7 = load i32, ptr %6, align 8
  %8 = insertvalue { ptr, i32 } poison, ptr %5, 0
  %9 = insertvalue { ptr, i32 } %8, i32 %7, 1
  resume { ptr, i32 } %9

cleanup:                                          ; preds = %bb1, %start
  %10 = landingpad { ptr, i32 }
          cleanup
  %11 = extractvalue { ptr, i32 } %10, 0
  %12 = extractvalue { ptr, i32 } %10, 1
  store ptr %11, ptr %2, align 8
  %13 = getelementptr inbounds i8, ptr %2, i64 8
  store i32 %12, ptr %13, align 8
  br label %bb4

bb1:                                              ; preds = %start
  %_5.0 = extractvalue { ptr, i64 } %4, 0
  %_5.1 = extractvalue { ptr, i64 } %4, 1
; invoke std::sys::pal::unix::process::process_common::Command::arg
  invoke void @_ZN3std3sys3pal4unix7process14process_common7Command3arg17ha8476da1a2226c3fE(ptr align 8 %self, ptr align 1 %_5.0, i64 %_5.1)
          to label %bb2 unwind label %cleanup

bb2:                                              ; preds = %bb1
  ret ptr %self
}

; std::process::Command::arg
; Function Attrs: nonlazybind uwtable
define internal align 8 ptr @_ZN3std7process7Command3arg17hf9589226234a8e4eE(ptr align 8 %self, ptr align 8 %arg) unnamed_addr #1 personality ptr @rust_eh_personality {
start:
  %0 = alloca [16 x i8], align 8
; invoke <std::ffi::os_str::OsString as core::convert::AsRef<std::ffi::os_str::OsStr>>::as_ref
  %1 = invoke { ptr, i64 } @"_ZN98_$LT$std..ffi..os_str..OsString$u20$as$u20$core..convert..AsRef$LT$std..ffi..os_str..OsStr$GT$$GT$6as_ref17h107e68ab4a83af93E"(ptr align 8 %arg)
          to label %bb1 unwind label %cleanup

bb4:                                              ; preds = %cleanup
; invoke core::ptr::drop_in_place<std::ffi::os_str::OsString>
  invoke void @"_ZN4core3ptr47drop_in_place$LT$std..ffi..os_str..OsString$GT$17h4284c2cd9ea31f13E"(ptr align 8 %arg) #21
          to label %bb5 unwind label %terminate

cleanup:                                          ; preds = %bb1, %start
  %2 = landingpad { ptr, i32 }
          cleanup
  %3 = extractvalue { ptr, i32 } %2, 0
  %4 = extractvalue { ptr, i32 } %2, 1
  store ptr %3, ptr %0, align 8
  %5 = getelementptr inbounds i8, ptr %0, i64 8
  store i32 %4, ptr %5, align 8
  br label %bb4

bb1:                                              ; preds = %start
  %_5.0 = extractvalue { ptr, i64 } %1, 0
  %_5.1 = extractvalue { ptr, i64 } %1, 1
; invoke std::sys::pal::unix::process::process_common::Command::arg
  invoke void @_ZN3std3sys3pal4unix7process14process_common7Command3arg17ha8476da1a2226c3fE(ptr align 8 %self, ptr align 1 %_5.0, i64 %_5.1)
          to label %bb2 unwind label %cleanup

bb2:                                              ; preds = %bb1
; call core::ptr::drop_in_place<std::ffi::os_str::OsString>
  call void @"_ZN4core3ptr47drop_in_place$LT$std..ffi..os_str..OsString$GT$17h4284c2cd9ea31f13E"(ptr align 8 %arg)
  ret ptr %self

terminate:                                        ; preds = %bb4
  %6 = landingpad { ptr, i32 }
          filter [0 x ptr] zeroinitializer
  %7 = extractvalue { ptr, i32 } %6, 0
  %8 = extractvalue { ptr, i32 } %6, 1
; call core::panicking::panic_in_cleanup
  call void @_ZN4core9panicking16panic_in_cleanup17h43442956f23e9cbeE() #22
  unreachable

bb5:                                              ; preds = %bb4
  %9 = load ptr, ptr %0, align 8
  %10 = getelementptr inbounds i8, ptr %0, i64 8
  %11 = load i32, ptr %10, align 8
  %12 = insertvalue { ptr, i32 } poison, ptr %9, 0
  %13 = insertvalue { ptr, i32 } %12, i32 %11, 1
  resume { ptr, i32 } %13
}

; std::process::Command::new
; Function Attrs: nonlazybind uwtable
define internal void @_ZN3std7process7Command3new17h770c18f30c1ebbc1E(ptr sret([208 x i8]) align 8 %_0, ptr align 8 %program) unnamed_addr #1 personality ptr @rust_eh_personality {
start:
  %0 = alloca [16 x i8], align 8
  %_2 = alloca [208 x i8], align 8
; invoke <std::ffi::os_str::OsString as core::convert::AsRef<std::ffi::os_str::OsStr>>::as_ref
  %1 = invoke { ptr, i64 } @"_ZN98_$LT$std..ffi..os_str..OsString$u20$as$u20$core..convert..AsRef$LT$std..ffi..os_str..OsStr$GT$$GT$6as_ref17h107e68ab4a83af93E"(ptr align 8 %program)
          to label %bb1 unwind label %cleanup

bb4:                                              ; preds = %cleanup
; invoke core::ptr::drop_in_place<std::ffi::os_str::OsString>
  invoke void @"_ZN4core3ptr47drop_in_place$LT$std..ffi..os_str..OsString$GT$17h4284c2cd9ea31f13E"(ptr align 8 %program) #21
          to label %bb5 unwind label %terminate

cleanup:                                          ; preds = %bb1, %start
  %2 = landingpad { ptr, i32 }
          cleanup
  %3 = extractvalue { ptr, i32 } %2, 0
  %4 = extractvalue { ptr, i32 } %2, 1
  store ptr %3, ptr %0, align 8
  %5 = getelementptr inbounds i8, ptr %0, i64 8
  store i32 %4, ptr %5, align 8
  br label %bb4

bb1:                                              ; preds = %start
  %_3.0 = extractvalue { ptr, i64 } %1, 0
  %_3.1 = extractvalue { ptr, i64 } %1, 1
; invoke std::sys::pal::unix::process::process_common::Command::new
  invoke void @_ZN3std3sys3pal4unix7process14process_common7Command3new17hfa5eb68deccbe5b2E(ptr sret([208 x i8]) align 8 %_2, ptr align 1 %_3.0, i64 %_3.1)
          to label %bb2 unwind label %cleanup

bb2:                                              ; preds = %bb1
  call void @llvm.memcpy.p0.p0.i64(ptr align 8 %_0, ptr align 8 %_2, i64 208, i1 false)
; call core::ptr::drop_in_place<std::ffi::os_str::OsString>
  call void @"_ZN4core3ptr47drop_in_place$LT$std..ffi..os_str..OsString$GT$17h4284c2cd9ea31f13E"(ptr align 8 %program)
  ret void

terminate:                                        ; preds = %bb4
  %6 = landingpad { ptr, i32 }
          filter [0 x ptr] zeroinitializer
  %7 = extractvalue { ptr, i32 } %6, 0
  %8 = extractvalue { ptr, i32 } %6, 1
; call core::panicking::panic_in_cleanup
  call void @_ZN4core9panicking16panic_in_cleanup17h43442956f23e9cbeE() #22
  unreachable

bb5:                                              ; preds = %bb4
  %9 = load ptr, ptr %0, align 8
  %10 = getelementptr inbounds i8, ptr %0, i64 8
  %11 = load i32, ptr %10, align 8
  %12 = insertvalue { ptr, i32 } poison, ptr %9, 0
  %13 = insertvalue { ptr, i32 } %12, i32 %11, 1
  resume { ptr, i32 } %13
}

; std::process::Command::new
; Function Attrs: nonlazybind uwtable
define internal void @_ZN3std7process7Command3new17hdde45b1be48ff7f9E(ptr sret([208 x i8]) align 8 %_0, ptr align 1 %0, i64 %1) unnamed_addr #1 personality ptr @rust_eh_personality {
start:
  %2 = alloca [16 x i8], align 8
  %_2 = alloca [208 x i8], align 8
  %program = alloca [16 x i8], align 8
  store ptr %0, ptr %program, align 8
  %3 = getelementptr inbounds i8, ptr %program, i64 8
  store i64 %1, ptr %3, align 8
; invoke <&T as core::convert::AsRef<U>>::as_ref
  %4 = invoke { ptr, i64 } @"_ZN55_$LT$$RF$T$u20$as$u20$core..convert..AsRef$LT$U$GT$$GT$6as_ref17h316a7a6ab08dfda7E"(ptr align 8 %program)
          to label %bb1 unwind label %cleanup

bb4:                                              ; preds = %cleanup
  %5 = load ptr, ptr %2, align 8
  %6 = getelementptr inbounds i8, ptr %2, i64 8
  %7 = load i32, ptr %6, align 8
  %8 = insertvalue { ptr, i32 } poison, ptr %5, 0
  %9 = insertvalue { ptr, i32 } %8, i32 %7, 1
  resume { ptr, i32 } %9

cleanup:                                          ; preds = %bb1, %start
  %10 = landingpad { ptr, i32 }
          cleanup
  %11 = extractvalue { ptr, i32 } %10, 0
  %12 = extractvalue { ptr, i32 } %10, 1
  store ptr %11, ptr %2, align 8
  %13 = getelementptr inbounds i8, ptr %2, i64 8
  store i32 %12, ptr %13, align 8
  br label %bb4

bb1:                                              ; preds = %start
  %_3.0 = extractvalue { ptr, i64 } %4, 0
  %_3.1 = extractvalue { ptr, i64 } %4, 1
; invoke std::sys::pal::unix::process::process_common::Command::new
  invoke void @_ZN3std3sys3pal4unix7process14process_common7Command3new17hfa5eb68deccbe5b2E(ptr sret([208 x i8]) align 8 %_2, ptr align 1 %_3.0, i64 %_3.1)
          to label %bb2 unwind label %cleanup

bb2:                                              ; preds = %bb1
  call void @llvm.memcpy.p0.p0.i64(ptr align 8 %_0, ptr align 8 %_2, i64 208, i1 false)
  ret void
}

; <&T as core::fmt::Debug>::fmt
; Function Attrs: nonlazybind uwtable
define internal zeroext i1 @"_ZN42_$LT$$RF$T$u20$as$u20$core..fmt..Debug$GT$3fmt17h2bb0463a494d7e47E"(ptr align 8 %self, ptr align 8 %f) unnamed_addr #1 {
start:
  %_3 = load ptr, ptr %self, align 8
; call <core::num::error::IntErrorKind as core::fmt::Debug>::fmt
  %_0 = call zeroext i1 @"_ZN67_$LT$core..num..error..IntErrorKind$u20$as$u20$core..fmt..Debug$GT$3fmt17hc411a8832c7a2aebE"(ptr align 1 %_3, ptr align 8 %f)
  ret i1 %_0
}

; <&T as core::fmt::Debug>::fmt
; Function Attrs: nonlazybind uwtable
define internal zeroext i1 @"_ZN42_$LT$$RF$T$u20$as$u20$core..fmt..Debug$GT$3fmt17hd27f60d2ed0c0e8cE"(ptr align 8 %self, ptr align 8 %f) unnamed_addr #1 {
start:
  %_3 = load ptr, ptr %self, align 8
; call <() as core::fmt::Debug>::fmt
  %_0 = call zeroext i1 @"_ZN45_$LT$$LP$$RP$$u20$as$u20$core..fmt..Debug$GT$3fmt17h77f4286971a6a742E"(ptr align 1 %_3, ptr align 8 %f)
  ret i1 %_0
}

; <&T as core::fmt::Display>::fmt
; Function Attrs: nonlazybind uwtable
define internal zeroext i1 @"_ZN44_$LT$$RF$T$u20$as$u20$core..fmt..Display$GT$3fmt17h486aa010bb062c43E"(ptr align 8 %self, ptr align 8 %f) unnamed_addr #1 {
start:
  %_3 = load ptr, ptr %self, align 8
; call <&T as core::fmt::Display>::fmt
  %_0 = call zeroext i1 @"_ZN44_$LT$$RF$T$u20$as$u20$core..fmt..Display$GT$3fmt17hb8161bb758247d66E"(ptr align 8 %_3, ptr align 8 %f)
  ret i1 %_0
}

; <&T as core::fmt::Display>::fmt
; Function Attrs: nonlazybind uwtable
define internal zeroext i1 @"_ZN44_$LT$$RF$T$u20$as$u20$core..fmt..Display$GT$3fmt17hb8161bb758247d66E"(ptr align 8 %self, ptr align 8 %f) unnamed_addr #1 {
start:
  %_3.0 = load ptr, ptr %self, align 8
  %0 = getelementptr inbounds i8, ptr %self, i64 8
  %_3.1 = load i64, ptr %0, align 8
; call <str as core::fmt::Display>::fmt
  %_0 = call zeroext i1 @"_ZN42_$LT$str$u20$as$u20$core..fmt..Display$GT$3fmt17h49e1caa39cb6eebbE"(ptr align 1 %_3.0, i64 %_3.1, ptr align 8 %f)
  ret i1 %_0
}

; <() as core::fmt::Debug>::fmt
; Function Attrs: inlinehint nonlazybind uwtable
define internal zeroext i1 @"_ZN45_$LT$$LP$$RP$$u20$as$u20$core..fmt..Debug$GT$3fmt17h77f4286971a6a742E"(ptr align 1 %self, ptr align 8 %f) unnamed_addr #0 {
start:
; call core::fmt::Formatter::pad
  %_0 = call zeroext i1 @_ZN4core3fmt9Formatter3pad17h7a36b2c624c9ffbaE(ptr align 8 %f, ptr align 1 @alloc_ae6dc619079e3c3b08144a35532ecff7, i64 2)
  ret i1 %_0
}

; <F as core::str::pattern::Pattern>::into_searcher
; Function Attrs: inlinehint nonlazybind uwtable
define internal void @"_ZN49_$LT$F$u20$as$u20$core..str..pattern..Pattern$GT$13into_searcher17ha0ee5678c5334c96E"(ptr sret([40 x i8]) align 8 %_0, ptr align 1 %haystack.0, i64 %haystack.1) unnamed_addr #0 {
start:
  %_5 = alloca [24 x i8], align 8
  %_3 = alloca [40 x i8], align 8
  %_13 = getelementptr inbounds i8, ptr %haystack.0, i64 %haystack.1
  %0 = getelementptr inbounds i8, ptr %_5, i64 16
  store i64 0, ptr %0, align 8
  store ptr %haystack.0, ptr %_5, align 8
  %1 = getelementptr inbounds i8, ptr %_5, i64 8
  store ptr %_13, ptr %1, align 8
  store ptr %haystack.0, ptr %_3, align 8
  %2 = getelementptr inbounds i8, ptr %_3, i64 8
  store i64 %haystack.1, ptr %2, align 8
  %3 = getelementptr inbounds i8, ptr %_3, i64 16
  call void @llvm.memcpy.p0.p0.i64(ptr align 8 %3, ptr align 8 %_5, i64 24, i1 false)
  call void @llvm.memcpy.p0.p0.i64(ptr align 8 %_0, ptr align 8 %_3, i64 40, i1 false)
  ret void
}

; <usize as core::iter::range::Step>::forward_unchecked
; Function Attrs: inlinehint nonlazybind uwtable
define internal i64 @"_ZN49_$LT$usize$u20$as$u20$core..iter..range..Step$GT$17forward_unchecked17h118bfd5f470f9149E"(i64 %start1, i64 %n) unnamed_addr #0 {
start:
  br label %bb2

bb2:                                              ; preds = %start
  %_0 = add nuw i64 %start1, %n
  ret i64 %_0

bb1:                                              ; No predecessors!
  unreachable
}

; core::intrinsics::write_bytes::precondition_check
; Function Attrs: inlinehint nounwind nonlazybind uwtable
define internal void @_ZN4core10intrinsics11write_bytes18precondition_check17h2f55abd35e3dac3aE(ptr %addr, i64 %align) unnamed_addr #3 personality ptr @rust_eh_personality {
start:
  %0 = alloca [4 x i8], align 4
  %_8 = alloca [48 x i8], align 8
  %_6 = ptrtoint ptr %addr to i64
  %1 = icmp eq i64 %_6, 0
  br i1 %1, label %bb3, label %bb4

bb3:                                              ; preds = %start
  br label %bb2

bb4:                                              ; preds = %start
  %2 = call i64 @llvm.ctpop.i64(i64 %align)
  %3 = trunc i64 %2 to i32
  store i32 %3, ptr %0, align 4
  %_9 = load i32, ptr %0, align 4
  %4 = icmp eq i32 %_9, 1
  br i1 %4, label %bb5, label %bb6

bb2:                                              ; preds = %bb5, %bb3
; call core::panicking::panic_nounwind
  call void @_ZN4core9panicking14panic_nounwind17hfb4a192166a1619dE(ptr align 1 @alloc_424341b75ece3fa20496f1c69b9fb0ac, i64 111) #23
  unreachable

bb5:                                              ; preds = %bb4
  %_13 = sub i64 %align, 1
  %_12 = and i64 %_6, %_13
  %_3 = icmp eq i64 %_12, 0
  br i1 %_3, label %bb1, label %bb2

bb6:                                              ; preds = %bb4
  store ptr @alloc_041983ee8170efdaaf95ba67fd072d26, ptr %_8, align 8
  %5 = getelementptr inbounds i8, ptr %_8, i64 8
  store i64 1, ptr %5, align 8
  %6 = load ptr, ptr @1, align 8
  %7 = load i64, ptr getelementptr inbounds (i8, ptr @1, i64 8), align 8
  %8 = getelementptr inbounds i8, ptr %_8, i64 32
  store ptr %6, ptr %8, align 8
  %9 = getelementptr inbounds i8, ptr %8, i64 8
  store i64 %7, ptr %9, align 8
  %10 = getelementptr inbounds i8, ptr %_8, i64 16
  store ptr inttoptr (i64 8 to ptr), ptr %10, align 8
  %11 = getelementptr inbounds i8, ptr %10, i64 8
  store i64 0, ptr %11, align 8
; invoke core::panicking::panic_fmt
  invoke void @_ZN4core9panicking9panic_fmt17h3111a7beccfa68f5E(ptr align 8 %_8, ptr align 8 @alloc_03d266dccd993e13de22250e3dccd7d7) #20
          to label %unreachable unwind label %terminate

bb1:                                              ; preds = %bb5
  ret void

terminate:                                        ; preds = %bb6
  %12 = landingpad { ptr, i32 }
          filter [0 x ptr] zeroinitializer
  %13 = extractvalue { ptr, i32 } %12, 0
  %14 = extractvalue { ptr, i32 } %12, 1
; call core::panicking::panic_cannot_unwind
  call void @_ZN4core9panicking19panic_cannot_unwind17h3f96c9c07954d1a5E() #22
  unreachable

unreachable:                                      ; preds = %bb6
  unreachable
}

; core::intrinsics::unlikely
; Function Attrs: nounwind nonlazybind uwtable
define internal zeroext i1 @_ZN4core10intrinsics8unlikely17h961cf2266c80ae28E(i1 zeroext %b) unnamed_addr #4 {
start:
  ret i1 %b
}

; core::cmp::impls::<impl core::cmp::Ord for usize>::cmp
; Function Attrs: inlinehint nonlazybind uwtable
define internal i8 @"_ZN4core3cmp5impls50_$LT$impl$u20$core..cmp..Ord$u20$for$u20$usize$GT$3cmp17h20fde4f1c0b2f5d3E"(ptr align 8 %self, ptr align 8 %other) unnamed_addr #0 {
start:
  %_3 = load i64, ptr %self, align 8
  %_4 = load i64, ptr %other, align 8
  %0 = icmp ugt i64 %_3, %_4
  %1 = zext i1 %0 to i8
  %2 = icmp ult i64 %_3, %_4
  %3 = zext i1 %2 to i8
  %_0 = sub nsw i8 %1, %3
  ret i8 %_0
}

; core::cmp::impls::<impl core::cmp::PartialEq<&B> for &A>::eq
; Function Attrs: inlinehint nonlazybind uwtable
define internal zeroext i1 @"_ZN4core3cmp5impls69_$LT$impl$u20$core..cmp..PartialEq$LT$$RF$B$GT$$u20$for$u20$$RF$A$GT$2eq17h977b748e52cc1062E"(ptr align 8 %self, ptr align 8 %other) unnamed_addr #0 {
start:
  %_3.0 = load ptr, ptr %self, align 8
  %0 = getelementptr inbounds i8, ptr %self, i64 8
  %_3.1 = load i64, ptr %0, align 8
  %_4.0 = load ptr, ptr %other, align 8
  %1 = getelementptr inbounds i8, ptr %other, i64 8
  %_4.1 = load i64, ptr %1, align 8
; call core::str::traits::<impl core::cmp::PartialEq for str>::eq
  %_0 = call zeroext i1 @"_ZN4core3str6traits54_$LT$impl$u20$core..cmp..PartialEq$u20$for$u20$str$GT$2eq17hcfd5b29101e8c965E"(ptr align 1 %_3.0, i64 %_3.1, ptr align 1 %_4.0, i64 %_4.1)
  ret i1 %_0
}

; core::cmp::max_by
; Function Attrs: inlinehint nonlazybind uwtable
define internal i64 @_ZN4core3cmp6max_by17h44d2407d84910109E(i64 %0, i64 %1) unnamed_addr #0 personality ptr @rust_eh_personality {
start:
  %2 = alloca [16 x i8], align 8
  %_9 = alloca [1 x i8], align 1
  %_4 = alloca [1 x i8], align 1
  %_0 = alloca [8 x i8], align 8
  %v2 = alloca [8 x i8], align 8
  %v1 = alloca [8 x i8], align 8
  store i64 %0, ptr %v1, align 8
  store i64 %1, ptr %v2, align 8
  store i8 1, ptr %_9, align 1
; invoke core::ops::function::FnOnce::call_once
  %3 = invoke i8 @_ZN4core3ops8function6FnOnce9call_once17hfc8ea8b11bdd0061E(ptr align 8 %v1, ptr align 8 %v2)
          to label %bb1 unwind label %cleanup

bb6:                                              ; preds = %cleanup
  br label %bb10

cleanup:                                          ; preds = %start
  %4 = landingpad { ptr, i32 }
          cleanup
  %5 = extractvalue { ptr, i32 } %4, 0
  %6 = extractvalue { ptr, i32 } %4, 1
  store ptr %5, ptr %2, align 8
  %7 = getelementptr inbounds i8, ptr %2, i64 8
  store i32 %6, ptr %7, align 8
  br label %bb6

bb1:                                              ; preds = %start
  store i8 %3, ptr %_4, align 1
  %_8 = load i8, ptr %_4, align 1
  switch i8 %_8, label %bb2 [
    i8 -1, label %bb4
    i8 0, label %bb4
    i8 1, label %bb3
  ]

bb2:                                              ; preds = %bb1
  unreachable

bb4:                                              ; preds = %bb1, %bb1
  %8 = load i64, ptr %v2, align 8
  store i64 %8, ptr %_0, align 8
  %9 = load i8, ptr %_9, align 1
  %10 = trunc i8 %9 to i1
  br i1 %10, label %bb8, label %bb5

bb3:                                              ; preds = %bb1
  store i8 0, ptr %_9, align 1
  %11 = load i64, ptr %v1, align 8
  store i64 %11, ptr %_0, align 8
  br label %bb5

bb5:                                              ; preds = %bb3, %bb8, %bb4
  %12 = load i64, ptr %_0, align 8
  ret i64 %12

bb8:                                              ; preds = %bb4
  br label %bb5

bb10:                                             ; preds = %bb6
  %13 = load i8, ptr %_9, align 1
  %14 = trunc i8 %13 to i1
  br i1 %14, label %bb9, label %bb7

bb7:                                              ; preds = %bb9, %bb10
  %15 = load ptr, ptr %2, align 8
  %16 = getelementptr inbounds i8, ptr %2, i64 8
  %17 = load i32, ptr %16, align 8
  %18 = insertvalue { ptr, i32 } poison, ptr %15, 0
  %19 = insertvalue { ptr, i32 } %18, i32 %17, 1
  resume { ptr, i32 } %19

bb9:                                              ; preds = %bb10
  br label %bb7
}

; core::cmp::PartialEq::ne
; Function Attrs: inlinehint nonlazybind uwtable
define internal zeroext i1 @_ZN4core3cmp9PartialEq2ne17h87fa64fe54098376E(ptr align 8 %self, ptr align 8 %other) unnamed_addr #0 {
start:
; call <core::option::Option<T> as core::cmp::PartialEq>::eq
  %_3 = call zeroext i1 @"_ZN70_$LT$core..option..Option$LT$T$GT$$u20$as$u20$core..cmp..PartialEq$GT$2eq17h06d0a9de8cbe21fdE"(ptr align 8 %self, ptr align 8 %other)
  %_0 = xor i1 %_3, true
  ret i1 %_0
}

; core::fmt::Arguments::new_v1
; Function Attrs: inlinehint nonlazybind uwtable
define internal void @_ZN4core3fmt9Arguments6new_v117h152fbf703bc886e8E(ptr sret([48 x i8]) align 8 %_0, ptr align 8 %pieces, ptr align 8 %args) unnamed_addr #0 {
start:
  store ptr %pieces, ptr %_0, align 8
  %0 = getelementptr inbounds i8, ptr %_0, i64 8
  store i64 3, ptr %0, align 8
  %1 = load ptr, ptr @1, align 8
  %2 = load i64, ptr getelementptr inbounds (i8, ptr @1, i64 8), align 8
  %3 = getelementptr inbounds i8, ptr %_0, i64 32
  store ptr %1, ptr %3, align 8
  %4 = getelementptr inbounds i8, ptr %3, i64 8
  store i64 %2, ptr %4, align 8
  %5 = getelementptr inbounds i8, ptr %_0, i64 16
  store ptr %args, ptr %5, align 8
  %6 = getelementptr inbounds i8, ptr %5, i64 8
  store i64 2, ptr %6, align 8
  ret void
}

; core::fmt::Arguments::new_v1
; Function Attrs: inlinehint nonlazybind uwtable
define internal void @_ZN4core3fmt9Arguments6new_v117h273ce9241d609907E(ptr sret([48 x i8]) align 8 %_0, ptr align 8 %pieces, ptr align 8 %args) unnamed_addr #0 {
start:
  store ptr %pieces, ptr %_0, align 8
  %0 = getelementptr inbounds i8, ptr %_0, i64 8
  store i64 2, ptr %0, align 8
  %1 = load ptr, ptr @1, align 8
  %2 = load i64, ptr getelementptr inbounds (i8, ptr @1, i64 8), align 8
  %3 = getelementptr inbounds i8, ptr %_0, i64 32
  store ptr %1, ptr %3, align 8
  %4 = getelementptr inbounds i8, ptr %3, i64 8
  store i64 %2, ptr %4, align 8
  %5 = getelementptr inbounds i8, ptr %_0, i64 16
  store ptr %args, ptr %5, align 8
  %6 = getelementptr inbounds i8, ptr %5, i64 8
  store i64 1, ptr %6, align 8
  ret void
}

; core::fmt::Arguments::new_v1
; Function Attrs: inlinehint nonlazybind uwtable
define internal void @_ZN4core3fmt9Arguments6new_v117ha5f179cc86d68778E(ptr sret([48 x i8]) align 8 %_0, ptr align 8 %pieces, ptr align 8 %args) unnamed_addr #0 {
start:
  store ptr %pieces, ptr %_0, align 8
  %0 = getelementptr inbounds i8, ptr %_0, i64 8
  store i64 1, ptr %0, align 8
  %1 = load ptr, ptr @1, align 8
  %2 = load i64, ptr getelementptr inbounds (i8, ptr @1, i64 8), align 8
  %3 = getelementptr inbounds i8, ptr %_0, i64 32
  store ptr %1, ptr %3, align 8
  %4 = getelementptr inbounds i8, ptr %3, i64 8
  store i64 %2, ptr %4, align 8
  %5 = getelementptr inbounds i8, ptr %_0, i64 16
  store ptr %args, ptr %5, align 8
  %6 = getelementptr inbounds i8, ptr %5, i64 8
  store i64 1, ptr %6, align 8
  ret void
}

; core::fmt::Arguments::new_const
; Function Attrs: inlinehint nonlazybind uwtable
define internal void @_ZN4core3fmt9Arguments9new_const17ha6d8b3b68722ab74E(ptr sret([48 x i8]) align 8 %_0, ptr align 8 %pieces) unnamed_addr #0 {
start:
  store ptr %pieces, ptr %_0, align 8
  %0 = getelementptr inbounds i8, ptr %_0, i64 8
  store i64 1, ptr %0, align 8
  %1 = load ptr, ptr @1, align 8
  %2 = load i64, ptr getelementptr inbounds (i8, ptr @1, i64 8), align 8
  %3 = getelementptr inbounds i8, ptr %_0, i64 32
  store ptr %1, ptr %3, align 8
  %4 = getelementptr inbounds i8, ptr %3, i64 8
  store i64 %2, ptr %4, align 8
  %5 = getelementptr inbounds i8, ptr %_0, i64 16
  store ptr inttoptr (i64 8 to ptr), ptr %5, align 8
  %6 = getelementptr inbounds i8, ptr %5, i64 8
  store i64 0, ptr %6, align 8
  ret void
}

; core::num::<impl usize>::checked_add
; Function Attrs: inlinehint nonlazybind uwtable
define internal { i64, i64 } @"_ZN4core3num23_$LT$impl$u20$usize$GT$11checked_add17h39fa22738395dec9E"(i64 %self, i64 %rhs) unnamed_addr #0 {
start:
  %0 = alloca [1 x i8], align 1
  %_0 = alloca [16 x i8], align 8
  %1 = call { i64, i1 } @llvm.uadd.with.overflow.i64(i64 %self, i64 %rhs)
  %_6.0 = extractvalue { i64, i1 } %1, 0
  %_6.1 = extractvalue { i64, i1 } %1, 1
  %2 = call i1 @llvm.expect.i1(i1 %_6.1, i1 false)
  %3 = zext i1 %2 to i8
  store i8 %3, ptr %0, align 1
  %4 = load i8, ptr %0, align 1
  %_3 = trunc i8 %4 to i1
  br i1 %_3, label %bb2, label %bb3

bb3:                                              ; preds = %start
  %5 = getelementptr inbounds i8, ptr %_0, i64 8
  store i64 %_6.0, ptr %5, align 8
  store i64 1, ptr %_0, align 8
  br label %bb4

bb2:                                              ; preds = %start
  %6 = load i64, ptr @1, align 8
  %7 = load i64, ptr getelementptr inbounds (i8, ptr @1, i64 8), align 8
  store i64 %6, ptr %_0, align 8
  %8 = getelementptr inbounds i8, ptr %_0, i64 8
  store i64 %7, ptr %8, align 8
  br label %bb4

bb4:                                              ; preds = %bb2, %bb3
  %9 = load i64, ptr %_0, align 8
  %10 = getelementptr inbounds i8, ptr %_0, i64 8
  %11 = load i64, ptr %10, align 8
  %12 = insertvalue { i64, i64 } poison, i64 %9, 0
  %13 = insertvalue { i64, i64 } %12, i64 %11, 1
  ret { i64, i64 } %13
}

; core::num::<impl usize>::unchecked_sub::precondition_check
; Function Attrs: inlinehint nounwind nonlazybind uwtable
define internal void @"_ZN4core3num23_$LT$impl$u20$usize$GT$13unchecked_sub18precondition_check17hfc5bd500d0ef52f0E"(i64 %lhs, i64 %rhs) unnamed_addr #3 {
start:
  %_6.0 = sub i64 %lhs, %rhs
  %_6.1 = icmp ult i64 %lhs, %rhs
  br i1 %_6.1, label %bb1, label %bb2

bb2:                                              ; preds = %start
  ret void

bb1:                                              ; preds = %start
; call core::panicking::panic_nounwind
  call void @_ZN4core9panicking14panic_nounwind17hfb4a192166a1619dE(ptr align 1 @alloc_d30a741e02fc5ea2d050c92e901091a3, i64 69) #23
  unreachable
}

; core::num::nonzero::NonZero<T>::new_unchecked::precondition_check
; Function Attrs: inlinehint nounwind nonlazybind uwtable
define internal void @"_ZN4core3num7nonzero16NonZero$LT$T$GT$13new_unchecked18precondition_check17hcdcee82ad2ddbdc7E"() unnamed_addr #3 {
start:
; call core::panicking::panic_nounwind
  call void @_ZN4core9panicking14panic_nounwind17hfb4a192166a1619dE(ptr align 1 @alloc_d83bad394aa3743d4316ebb57a3b65ab, i64 92) #23
  unreachable
}

; core::ops::function::FnMut::call_mut
; Function Attrs: inlinehint nonlazybind uwtable
define internal { i64, i64 } @_ZN4core3ops8function5FnMut8call_mut17h1bd4274d9330318eE(ptr align 1 %_1, i64 %0, i64 %1) unnamed_addr #0 {
start:
  %_2 = alloca [16 x i8], align 8
  store i64 %0, ptr %_2, align 8
  %2 = getelementptr inbounds i8, ptr %_2, i64 8
  store i64 %1, ptr %2, align 8
  %3 = load i64, ptr %_2, align 8
  %4 = getelementptr inbounds i8, ptr %_2, i64 8
  %5 = load i64, ptr %4, align 8
; call core::num::<impl usize>::checked_add
  %6 = call { i64, i64 } @"_ZN4core3num23_$LT$impl$u20$usize$GT$11checked_add17h39fa22738395dec9E"(i64 %3, i64 %5)
  %_0.0 = extractvalue { i64, i64 } %6, 0
  %_0.1 = extractvalue { i64, i64 } %6, 1
  %7 = insertvalue { i64, i64 } poison, i64 %_0.0, 0
  %8 = insertvalue { i64, i64 } %7, i64 %_0.1, 1
  ret { i64, i64 } %8
}

; core::ops::function::impls::<impl core::ops::function::FnOnce<A> for &mut F>::call_once
; Function Attrs: nonlazybind uwtable
define internal { ptr, i64 } @"_ZN4core3ops8function5impls80_$LT$impl$u20$core..ops..function..FnOnce$LT$A$GT$$u20$for$u20$$RF$mut$u20$F$GT$9call_once17hc784ad20156a72a0E"(ptr align 1 %self, ptr align 8 %0) unnamed_addr #1 {
start:
  %args = alloca [8 x i8], align 8
  store ptr %0, ptr %args, align 8
  %1 = load ptr, ptr %args, align 8
; call alloc::str::join_generic_copy::{{closure}}
  %2 = call { ptr, i64 } @"_ZN5alloc3str17join_generic_copy28_$u7b$$u7b$closure$u7d$$u7d$17h7d20ac0de28aa92fE"(ptr align 1 %self, ptr align 8 %1)
  %_0.0 = extractvalue { ptr, i64 } %2, 0
  %_0.1 = extractvalue { ptr, i64 } %2, 1
  %3 = insertvalue { ptr, i64 } poison, ptr %_0.0, 0
  %4 = insertvalue { ptr, i64 } %3, i64 %_0.1, 1
  ret { ptr, i64 } %4
}

; core::ops::function::FnOnce::call_once{{vtable.shim}}
; Function Attrs: inlinehint nonlazybind uwtable
define internal i32 @"_ZN4core3ops8function6FnOnce40call_once$u7b$$u7b$vtable.shim$u7d$$u7d$17h9cefed91ac7dd19aE"(ptr %_1) unnamed_addr #0 {
start:
  %_2 = alloca [0 x i8], align 1
  %0 = load ptr, ptr %_1, align 8
; call core::ops::function::FnOnce::call_once
  %_0 = call i32 @_ZN4core3ops8function6FnOnce9call_once17h66a0f8fbc51c9c49E(ptr %0)
  ret i32 %_0
}

; core::ops::function::FnOnce::call_once
; Function Attrs: inlinehint nonlazybind uwtable
define internal i32 @_ZN4core3ops8function6FnOnce9call_once17h66a0f8fbc51c9c49E(ptr %0) unnamed_addr #0 personality ptr @rust_eh_personality {
start:
  %1 = alloca [16 x i8], align 8
  %_2 = alloca [0 x i8], align 1
  %_1 = alloca [8 x i8], align 8
  store ptr %0, ptr %_1, align 8
; invoke std::rt::lang_start::{{closure}}
  %_0 = invoke i32 @"_ZN3std2rt10lang_start28_$u7b$$u7b$closure$u7d$$u7d$17h4d04a1ab745072d6E"(ptr align 8 %_1)
          to label %bb1 unwind label %cleanup

bb3:                                              ; preds = %cleanup
  %2 = load ptr, ptr %1, align 8
  %3 = getelementptr inbounds i8, ptr %1, i64 8
  %4 = load i32, ptr %3, align 8
  %5 = insertvalue { ptr, i32 } poison, ptr %2, 0
  %6 = insertvalue { ptr, i32 } %5, i32 %4, 1
  resume { ptr, i32 } %6

cleanup:                                          ; preds = %start
  %7 = landingpad { ptr, i32 }
          cleanup
  %8 = extractvalue { ptr, i32 } %7, 0
  %9 = extractvalue { ptr, i32 } %7, 1
  store ptr %8, ptr %1, align 8
  %10 = getelementptr inbounds i8, ptr %1, i64 8
  store i32 %9, ptr %10, align 8
  br label %bb3

bb1:                                              ; preds = %start
  ret i32 %_0
}

; core::ops::function::FnOnce::call_once
; Function Attrs: inlinehint nonlazybind uwtable
define internal void @_ZN4core3ops8function6FnOnce9call_once17hf300bd05fc11080bE(ptr %_1) unnamed_addr #0 {
start:
  %_2 = alloca [0 x i8], align 1
  call void %_1()
  ret void
}

; core::ops::function::FnOnce::call_once
; Function Attrs: inlinehint nonlazybind uwtable
define internal i8 @_ZN4core3ops8function6FnOnce9call_once17hfc8ea8b11bdd0061E(ptr align 8 %0, ptr align 8 %1) unnamed_addr #0 {
start:
  %_2 = alloca [16 x i8], align 8
  store ptr %0, ptr %_2, align 8
  %2 = getelementptr inbounds i8, ptr %_2, i64 8
  store ptr %1, ptr %2, align 8
  %3 = load ptr, ptr %_2, align 8
  %4 = getelementptr inbounds i8, ptr %_2, i64 8
  %5 = load ptr, ptr %4, align 8
; call core::cmp::impls::<impl core::cmp::Ord for usize>::cmp
  %_0 = call i8 @"_ZN4core3cmp5impls50_$LT$impl$u20$core..cmp..Ord$u20$for$u20$usize$GT$3cmp17h20fde4f1c0b2f5d3E"(ptr align 8 %3, ptr align 8 %5)
  ret i8 %_0
}

; core::ptr::drop_in_place<core::option::Option<std::sys::pal::unix::process::process_common::Stdio>>
; Function Attrs: nonlazybind uwtable
define internal void @"_ZN4core3ptr100drop_in_place$LT$core..option..Option$LT$std..sys..pal..unix..process..process_common..Stdio$GT$$GT$17h401f1c7b99b42939E"(ptr align 4 %_1) unnamed_addr #1 {
start:
  %0 = load i32, ptr %_1, align 4
  %1 = icmp eq i32 %0, 5
  %_2 = select i1 %1, i64 0, i64 1
  %2 = icmp eq i64 %_2, 0
  br i1 %2, label %bb1, label %bb2

bb1:                                              ; preds = %bb2, %start
  ret void

bb2:                                              ; preds = %start
; call core::ptr::drop_in_place<std::sys::pal::unix::process::process_common::Stdio>
  call void @"_ZN4core3ptr72drop_in_place$LT$std..sys..pal..unix..process..process_common..Stdio$GT$17hcbc47e000e0e0502E"(ptr align 4 %_1)
  br label %bb1
}

; core::ptr::drop_in_place<core::result::Result<alloc::string::String,alloc::string::FromUtf8Error>>
; Function Attrs: nonlazybind uwtable
define internal void @"_ZN4core3ptr101drop_in_place$LT$core..result..Result$LT$alloc..string..String$C$alloc..string..FromUtf8Error$GT$$GT$17he663a536e0185a82E"(ptr align 8 %_1) unnamed_addr #1 {
start:
  %0 = load i64, ptr %_1, align 8
  %1 = icmp eq i64 %0, -9223372036854775808
  %_2 = select i1 %1, i64 0, i64 1
  %2 = icmp eq i64 %_2, 0
  br i1 %2, label %bb2, label %bb3

bb2:                                              ; preds = %start
  %3 = getelementptr inbounds i8, ptr %_1, i64 8
; call core::ptr::drop_in_place<alloc::string::String>
  call void @"_ZN4core3ptr42drop_in_place$LT$alloc..string..String$GT$17habd0b75e9867b120E"(ptr align 8 %3)
  br label %bb1

bb3:                                              ; preds = %start
; call core::ptr::drop_in_place<alloc::string::FromUtf8Error>
  call void @"_ZN4core3ptr49drop_in_place$LT$alloc..string..FromUtf8Error$GT$17h771e620cf543ce32E"(ptr align 8 %_1)
  br label %bb1

bb1:                                              ; preds = %bb3, %bb2
  ret void
}

; core::ptr::drop_in_place<std::io::error::ErrorData<alloc::boxed::Box<std::io::error::Custom>>>
; Function Attrs: nonlazybind uwtable
define internal void @"_ZN4core3ptr101drop_in_place$LT$std..io..error..ErrorData$LT$alloc..boxed..Box$LT$std..io..error..Custom$GT$$GT$$GT$17h1194660ea0f3ea69E"(ptr align 8 %_1) unnamed_addr #1 {
start:
  %0 = load i8, ptr %_1, align 8
  %_2 = zext i8 %0 to i64
  switch i64 %_2, label %bb2 [
    i64 0, label %bb1
    i64 1, label %bb1
    i64 2, label %bb1
  ]

bb2:                                              ; preds = %start
  %1 = getelementptr inbounds i8, ptr %_1, i64 8
; call core::ptr::drop_in_place<alloc::boxed::Box<std::io::error::Custom>>
  call void @"_ZN4core3ptr68drop_in_place$LT$alloc..boxed..Box$LT$std..io..error..Custom$GT$$GT$17h6d7b710b32fdd162E"(ptr align 8 %1)
  br label %bb1

bb1:                                              ; preds = %bb2, %start, %start, %start
  ret void
}

; core::ptr::drop_in_place<alloc::boxed::Box<dyn core::error::Error+core::marker::Send+core::marker::Sync>>
; Function Attrs: nonlazybind uwtable
define internal void @"_ZN4core3ptr118drop_in_place$LT$alloc..boxed..Box$LT$dyn$u20$core..error..Error$u2b$core..marker..Send$u2b$core..marker..Sync$GT$$GT$17hac7cc8591b2a2758E"(ptr align 8 %_1) unnamed_addr #1 personality ptr @rust_eh_personality {
start:
  %0 = alloca [16 x i8], align 8
  %_6.0 = load ptr, ptr %_1, align 8
  %1 = getelementptr inbounds i8, ptr %_1, i64 8
  %_6.1 = load ptr, ptr %1, align 8
  %2 = getelementptr inbounds i8, ptr %_6.1, i64 0
  %3 = load ptr, ptr %2, align 8, !invariant.load !5
  %4 = icmp ne ptr %3, null
  br i1 %4, label %is_not_null, label %bb3

is_not_null:                                      ; preds = %start
  invoke void %3(ptr align 1 %_6.0)
          to label %bb3 unwind label %cleanup

bb3:                                              ; preds = %is_not_null, %start
; call <alloc::boxed::Box<T,A> as core::ops::drop::Drop>::drop
  call void @"_ZN72_$LT$alloc..boxed..Box$LT$T$C$A$GT$$u20$as$u20$core..ops..drop..Drop$GT$4drop17heed72db248c3f59eE"(ptr align 8 %_1)
  ret void

bb4:                                              ; preds = %cleanup
; invoke <alloc::boxed::Box<T,A> as core::ops::drop::Drop>::drop
  invoke void @"_ZN72_$LT$alloc..boxed..Box$LT$T$C$A$GT$$u20$as$u20$core..ops..drop..Drop$GT$4drop17heed72db248c3f59eE"(ptr align 8 %_1) #21
          to label %bb1 unwind label %terminate

cleanup:                                          ; preds = %is_not_null
  %5 = landingpad { ptr, i32 }
          cleanup
  %6 = extractvalue { ptr, i32 } %5, 0
  %7 = extractvalue { ptr, i32 } %5, 1
  store ptr %6, ptr %0, align 8
  %8 = getelementptr inbounds i8, ptr %0, i64 8
  store i32 %7, ptr %8, align 8
  br label %bb4

terminate:                                        ; preds = %bb4
  %9 = landingpad { ptr, i32 }
          filter [0 x ptr] zeroinitializer
  %10 = extractvalue { ptr, i32 } %9, 0
  %11 = extractvalue { ptr, i32 } %9, 1
; call core::panicking::panic_in_cleanup
  call void @_ZN4core9panicking16panic_in_cleanup17h43442956f23e9cbeE() #22
  unreachable

bb1:                                              ; preds = %bb4
  %12 = load ptr, ptr %0, align 8
  %13 = getelementptr inbounds i8, ptr %0, i64 8
  %14 = load i32, ptr %13, align 8
  %15 = insertvalue { ptr, i32 } poison, ptr %12, 0
  %16 = insertvalue { ptr, i32 } %15, i32 %14, 1
  resume { ptr, i32 } %16
}

; core::ptr::drop_in_place<alloc::collections::btree::map::BTreeMap<std::ffi::os_str::OsString,core::option::Option<std::ffi::os_str::OsString>>>
; Function Attrs: nonlazybind uwtable
define internal void @"_ZN4core3ptr152drop_in_place$LT$alloc..collections..btree..map..BTreeMap$LT$std..ffi..os_str..OsString$C$core..option..Option$LT$std..ffi..os_str..OsString$GT$$GT$$GT$17h4f66150d8b275a0fE"(ptr align 8 %_1) unnamed_addr #1 {
start:
; call <alloc::collections::btree::map::BTreeMap<K,V,A> as core::ops::drop::Drop>::drop
  call void @"_ZN99_$LT$alloc..collections..btree..map..BTreeMap$LT$K$C$V$C$A$GT$$u20$as$u20$core..ops..drop..Drop$GT$4drop17h415a5c697265ad5dE"(ptr align 8 %_1)
  ret void
}

; core::ptr::drop_in_place<alloc::collections::btree::map::IntoIter<std::ffi::os_str::OsString,core::option::Option<std::ffi::os_str::OsString>>>
; Function Attrs: nonlazybind uwtable
define internal void @"_ZN4core3ptr152drop_in_place$LT$alloc..collections..btree..map..IntoIter$LT$std..ffi..os_str..OsString$C$core..option..Option$LT$std..ffi..os_str..OsString$GT$$GT$$GT$17h60f8703be920d92fE"(ptr align 8 %_1) unnamed_addr #1 {
start:
; call <alloc::collections::btree::map::IntoIter<K,V,A> as core::ops::drop::Drop>::drop
  call void @"_ZN99_$LT$alloc..collections..btree..map..IntoIter$LT$K$C$V$C$A$GT$$u20$as$u20$core..ops..drop..Drop$GT$4drop17h9fc77a207b2439cbE"(ptr align 8 %_1)
  ret void
}

; core::ptr::drop_in_place<dyn core::ops::function::FnMut<()>+Output = core::result::Result<(),std::io::error::Error>+core::marker::Send+core::marker::Sync>
; Function Attrs: nonlazybind uwtable
define internal void @"_ZN4core3ptr203drop_in_place$LT$dyn$u20$core..ops..function..FnMut$LT$$LP$$RP$$GT$$u2b$Output$u20$$u3d$$u20$core..result..Result$LT$$LP$$RP$$C$std..io..error..Error$GT$$u2b$core..marker..Send$u2b$core..marker..Sync$GT$17h019618db80f4d849E"(ptr align 1 %_1.0, ptr align 8 %_1.1) unnamed_addr #1 {
start:
  %0 = getelementptr inbounds i8, ptr %_1.1, i64 0
  %1 = load ptr, ptr %0, align 8, !invariant.load !5
  %2 = icmp ne ptr %1, null
  br i1 %2, label %is_not_null, label %bb1

is_not_null:                                      ; preds = %start
  call void %1(ptr align 1 %_1.0)
  br label %bb1

bb1:                                              ; preds = %is_not_null, %start
  ret void
}

; core::ptr::drop_in_place<alloc::boxed::Box<dyn core::ops::function::FnMut<()>+Output = core::result::Result<(),std::io::error::Error>+core::marker::Send+core::marker::Sync>>
; Function Attrs: nonlazybind uwtable
define internal void @"_ZN4core3ptr228drop_in_place$LT$alloc..boxed..Box$LT$dyn$u20$core..ops..function..FnMut$LT$$LP$$RP$$GT$$u2b$Output$u20$$u3d$$u20$core..result..Result$LT$$LP$$RP$$C$std..io..error..Error$GT$$u2b$core..marker..Send$u2b$core..marker..Sync$GT$$GT$17h311c66bdddda5a79E"(ptr align 8 %_1) unnamed_addr #1 personality ptr @rust_eh_personality {
start:
  %0 = alloca [16 x i8], align 8
  %_6.0 = load ptr, ptr %_1, align 8
  %1 = getelementptr inbounds i8, ptr %_1, i64 8
  %_6.1 = load ptr, ptr %1, align 8
  %2 = getelementptr inbounds i8, ptr %_6.1, i64 0
  %3 = load ptr, ptr %2, align 8, !invariant.load !5
  %4 = icmp ne ptr %3, null
  br i1 %4, label %is_not_null, label %bb3

is_not_null:                                      ; preds = %start
  invoke void %3(ptr align 1 %_6.0)
          to label %bb3 unwind label %cleanup

bb3:                                              ; preds = %is_not_null, %start
; call <alloc::boxed::Box<T,A> as core::ops::drop::Drop>::drop
  call void @"_ZN72_$LT$alloc..boxed..Box$LT$T$C$A$GT$$u20$as$u20$core..ops..drop..Drop$GT$4drop17h87eee6f39cc8ec3cE"(ptr align 8 %_1)
  ret void

bb4:                                              ; preds = %cleanup
; invoke <alloc::boxed::Box<T,A> as core::ops::drop::Drop>::drop
  invoke void @"_ZN72_$LT$alloc..boxed..Box$LT$T$C$A$GT$$u20$as$u20$core..ops..drop..Drop$GT$4drop17h87eee6f39cc8ec3cE"(ptr align 8 %_1) #21
          to label %bb1 unwind label %terminate

cleanup:                                          ; preds = %is_not_null
  %5 = landingpad { ptr, i32 }
          cleanup
  %6 = extractvalue { ptr, i32 } %5, 0
  %7 = extractvalue { ptr, i32 } %5, 1
  store ptr %6, ptr %0, align 8
  %8 = getelementptr inbounds i8, ptr %0, i64 8
  store i32 %7, ptr %8, align 8
  br label %bb4

terminate:                                        ; preds = %bb4
  %9 = landingpad { ptr, i32 }
          filter [0 x ptr] zeroinitializer
  %10 = extractvalue { ptr, i32 } %9, 0
  %11 = extractvalue { ptr, i32 } %9, 1
; call core::panicking::panic_in_cleanup
  call void @_ZN4core9panicking16panic_in_cleanup17h43442956f23e9cbeE() #22
  unreachable

bb1:                                              ; preds = %bb4
  %12 = load ptr, ptr %0, align 8
  %13 = getelementptr inbounds i8, ptr %0, i64 8
  %14 = load i32, ptr %13, align 8
  %15 = insertvalue { ptr, i32 } poison, ptr %12, 0
  %16 = insertvalue { ptr, i32 } %15, i32 %14, 1
  resume { ptr, i32 } %16
}

; core::ptr::drop_in_place<[alloc::boxed::Box<dyn core::ops::function::FnMut<()>+Output = core::result::Result<(),std::io::error::Error>+core::marker::Send+core::marker::Sync>]>
; Function Attrs: nonlazybind uwtable
define internal void @"_ZN4core3ptr238drop_in_place$LT$$u5b$alloc..boxed..Box$LT$dyn$u20$core..ops..function..FnMut$LT$$LP$$RP$$GT$$u2b$Output$u20$$u3d$$u20$core..result..Result$LT$$LP$$RP$$C$std..io..error..Error$GT$$u2b$core..marker..Send$u2b$core..marker..Sync$GT$$u5d$$GT$17h50efb2e248ebb6c8E"(ptr align 8 %_1.0, i64 %_1.1) unnamed_addr #1 personality ptr @rust_eh_personality {
start:
  %0 = alloca [16 x i8], align 8
  %_3 = alloca [8 x i8], align 8
  store i64 0, ptr %_3, align 8
  br label %bb6

bb6:                                              ; preds = %bb5, %start
  %1 = load i64, ptr %_3, align 8
  %_7 = icmp eq i64 %1, %_1.1
  br i1 %_7, label %bb1, label %bb5

bb5:                                              ; preds = %bb6
  %2 = load i64, ptr %_3, align 8
  %_6 = getelementptr inbounds [0 x %"alloc::boxed::Box<dyn core::ops::function::FnMut() -> core::result::Result<(), std::io::error::Error> + core::marker::Send + core::marker::Sync>"], ptr %_1.0, i64 0, i64 %2
  %3 = load i64, ptr %_3, align 8
  %4 = add i64 %3, 1
  store i64 %4, ptr %_3, align 8
; invoke core::ptr::drop_in_place<alloc::boxed::Box<dyn core::ops::function::FnMut<()>+Output = core::result::Result<(),std::io::error::Error>+core::marker::Send+core::marker::Sync>>
  invoke void @"_ZN4core3ptr228drop_in_place$LT$alloc..boxed..Box$LT$dyn$u20$core..ops..function..FnMut$LT$$LP$$RP$$GT$$u2b$Output$u20$$u3d$$u20$core..result..Result$LT$$LP$$RP$$C$std..io..error..Error$GT$$u2b$core..marker..Send$u2b$core..marker..Sync$GT$$GT$17h311c66bdddda5a79E"(ptr align 8 %_6)
          to label %bb6 unwind label %cleanup

bb1:                                              ; preds = %bb6
  ret void

bb4:                                              ; preds = %bb3, %cleanup
  %5 = load i64, ptr %_3, align 8
  %_5 = icmp eq i64 %5, %_1.1
  br i1 %_5, label %bb2, label %bb3

cleanup:                                          ; preds = %bb5
  %6 = landingpad { ptr, i32 }
          cleanup
  %7 = extractvalue { ptr, i32 } %6, 0
  %8 = extractvalue { ptr, i32 } %6, 1
  store ptr %7, ptr %0, align 8
  %9 = getelementptr inbounds i8, ptr %0, i64 8
  store i32 %8, ptr %9, align 8
  br label %bb4

bb3:                                              ; preds = %bb4
  %10 = load i64, ptr %_3, align 8
  %_4 = getelementptr inbounds [0 x %"alloc::boxed::Box<dyn core::ops::function::FnMut() -> core::result::Result<(), std::io::error::Error> + core::marker::Send + core::marker::Sync>"], ptr %_1.0, i64 0, i64 %10
  %11 = load i64, ptr %_3, align 8
  %12 = add i64 %11, 1
  store i64 %12, ptr %_3, align 8
; invoke core::ptr::drop_in_place<alloc::boxed::Box<dyn core::ops::function::FnMut<()>+Output = core::result::Result<(),std::io::error::Error>+core::marker::Send+core::marker::Sync>>
  invoke void @"_ZN4core3ptr228drop_in_place$LT$alloc..boxed..Box$LT$dyn$u20$core..ops..function..FnMut$LT$$LP$$RP$$GT$$u2b$Output$u20$$u3d$$u20$core..result..Result$LT$$LP$$RP$$C$std..io..error..Error$GT$$u2b$core..marker..Send$u2b$core..marker..Sync$GT$$GT$17h311c66bdddda5a79E"(ptr align 8 %_4) #21
          to label %bb4 unwind label %terminate

bb2:                                              ; preds = %bb4
  %13 = load ptr, ptr %0, align 8
  %14 = getelementptr inbounds i8, ptr %0, i64 8
  %15 = load i32, ptr %14, align 8
  %16 = insertvalue { ptr, i32 } poison, ptr %13, 0
  %17 = insertvalue { ptr, i32 } %16, i32 %15, 1
  resume { ptr, i32 } %17

terminate:                                        ; preds = %bb3
  %18 = landingpad { ptr, i32 }
          filter [0 x ptr] zeroinitializer
  %19 = extractvalue { ptr, i32 } %18, 0
  %20 = extractvalue { ptr, i32 } %18, 1
; call core::panicking::panic_in_cleanup
  call void @_ZN4core9panicking16panic_in_cleanup17h43442956f23e9cbeE() #22
  unreachable
}

; core::ptr::drop_in_place<<alloc::collections::btree::map::IntoIter<K,V,A> as core::ops::drop::Drop>::drop::DropGuard<std::ffi::os_str::OsString,core::option::Option<std::ffi::os_str::OsString>,alloc::alloc::Global>>
; Function Attrs: nonlazybind uwtable
define internal void @"_ZN4core3ptr250drop_in_place$LT$$LT$alloc..collections..btree..map..IntoIter$LT$K$C$V$C$A$GT$$u20$as$u20$core..ops..drop..Drop$GT$..drop..DropGuard$LT$std..ffi..os_str..OsString$C$core..option..Option$LT$std..ffi..os_str..OsString$GT$$C$alloc..alloc..Global$GT$$GT$17ha01db076d6557f84E"(ptr align 8 %_1) unnamed_addr #1 {
start:
; call <<alloc::collections::btree::map::IntoIter<K,V,A> as core::ops::drop::Drop>::drop::DropGuard<K,V,A> as core::ops::drop::Drop>::drop
  call void @"_ZN174_$LT$$LT$alloc..collections..btree..map..IntoIter$LT$K$C$V$C$A$GT$$u20$as$u20$core..ops..drop..Drop$GT$..drop..DropGuard$LT$K$C$V$C$A$GT$$u20$as$u20$core..ops..drop..Drop$GT$4drop17h4750bfd04f0d37f4E"(ptr align 8 %_1)
  ret void
}

; core::ptr::drop_in_place<alloc::vec::Vec<alloc::boxed::Box<dyn core::ops::function::FnMut<()>+Output = core::result::Result<(),std::io::error::Error>+core::marker::Send+core::marker::Sync>>>
; Function Attrs: nonlazybind uwtable
define internal void @"_ZN4core3ptr251drop_in_place$LT$alloc..vec..Vec$LT$alloc..boxed..Box$LT$dyn$u20$core..ops..function..FnMut$LT$$LP$$RP$$GT$$u2b$Output$u20$$u3d$$u20$core..result..Result$LT$$LP$$RP$$C$std..io..error..Error$GT$$u2b$core..marker..Send$u2b$core..marker..Sync$GT$$GT$$GT$17hf1fed4a42487d409E"(ptr align 8 %_1) unnamed_addr #1 personality ptr @rust_eh_personality {
start:
  %0 = alloca [16 x i8], align 8
; invoke <alloc::vec::Vec<T,A> as core::ops::drop::Drop>::drop
  invoke void @"_ZN70_$LT$alloc..vec..Vec$LT$T$C$A$GT$$u20$as$u20$core..ops..drop..Drop$GT$4drop17h8a2a6703473fbc5dE"(ptr align 8 %_1)
          to label %bb4 unwind label %cleanup

bb3:                                              ; preds = %cleanup
; invoke core::ptr::drop_in_place<alloc::raw_vec::RawVec<alloc::boxed::Box<dyn core::ops::function::FnMut<()>+Output = core::result::Result<(),std::io::error::Error>+core::marker::Send+core::marker::Sync>>>
  invoke void @"_ZN4core3ptr258drop_in_place$LT$alloc..raw_vec..RawVec$LT$alloc..boxed..Box$LT$dyn$u20$core..ops..function..FnMut$LT$$LP$$RP$$GT$$u2b$Output$u20$$u3d$$u20$core..result..Result$LT$$LP$$RP$$C$std..io..error..Error$GT$$u2b$core..marker..Send$u2b$core..marker..Sync$GT$$GT$$GT$17haec1f9331096c77bE"(ptr align 8 %_1) #21
          to label %bb1 unwind label %terminate

cleanup:                                          ; preds = %start
  %1 = landingpad { ptr, i32 }
          cleanup
  %2 = extractvalue { ptr, i32 } %1, 0
  %3 = extractvalue { ptr, i32 } %1, 1
  store ptr %2, ptr %0, align 8
  %4 = getelementptr inbounds i8, ptr %0, i64 8
  store i32 %3, ptr %4, align 8
  br label %bb3

bb4:                                              ; preds = %start
; call core::ptr::drop_in_place<alloc::raw_vec::RawVec<alloc::boxed::Box<dyn core::ops::function::FnMut<()>+Output = core::result::Result<(),std::io::error::Error>+core::marker::Send+core::marker::Sync>>>
  call void @"_ZN4core3ptr258drop_in_place$LT$alloc..raw_vec..RawVec$LT$alloc..boxed..Box$LT$dyn$u20$core..ops..function..FnMut$LT$$LP$$RP$$GT$$u2b$Output$u20$$u3d$$u20$core..result..Result$LT$$LP$$RP$$C$std..io..error..Error$GT$$u2b$core..marker..Send$u2b$core..marker..Sync$GT$$GT$$GT$17haec1f9331096c77bE"(ptr align 8 %_1)
  ret void

terminate:                                        ; preds = %bb3
  %5 = landingpad { ptr, i32 }
          filter [0 x ptr] zeroinitializer
  %6 = extractvalue { ptr, i32 } %5, 0
  %7 = extractvalue { ptr, i32 } %5, 1
; call core::panicking::panic_in_cleanup
  call void @_ZN4core9panicking16panic_in_cleanup17h43442956f23e9cbeE() #22
  unreachable

bb1:                                              ; preds = %bb3
  %8 = load ptr, ptr %0, align 8
  %9 = getelementptr inbounds i8, ptr %0, i64 8
  %10 = load i32, ptr %9, align 8
  %11 = insertvalue { ptr, i32 } poison, ptr %8, 0
  %12 = insertvalue { ptr, i32 } %11, i32 %10, 1
  resume { ptr, i32 } %12
}

; core::ptr::drop_in_place<alloc::raw_vec::RawVec<alloc::boxed::Box<dyn core::ops::function::FnMut<()>+Output = core::result::Result<(),std::io::error::Error>+core::marker::Send+core::marker::Sync>>>
; Function Attrs: nonlazybind uwtable
define internal void @"_ZN4core3ptr258drop_in_place$LT$alloc..raw_vec..RawVec$LT$alloc..boxed..Box$LT$dyn$u20$core..ops..function..FnMut$LT$$LP$$RP$$GT$$u2b$Output$u20$$u3d$$u20$core..result..Result$LT$$LP$$RP$$C$std..io..error..Error$GT$$u2b$core..marker..Send$u2b$core..marker..Sync$GT$$GT$$GT$17haec1f9331096c77bE"(ptr align 8 %_1) unnamed_addr #1 {
start:
; call <alloc::raw_vec::RawVec<T,A> as core::ops::drop::Drop>::drop
  call void @"_ZN77_$LT$alloc..raw_vec..RawVec$LT$T$C$A$GT$$u20$as$u20$core..ops..drop..Drop$GT$4drop17hbd8737ceac63b400E"(ptr align 8 %_1)
  ret void
}

; core::ptr::drop_in_place<&()>
; Function Attrs: inlinehint nonlazybind uwtable
define internal void @"_ZN4core3ptr33drop_in_place$LT$$RF$$LP$$RP$$GT$17h5c0e1ac2dda9f9adE"(ptr align 8 %_1) unnamed_addr #0 {
start:
  ret void
}

; core::ptr::drop_in_place<std::env::VarError>
; Function Attrs: nonlazybind uwtable
define internal void @"_ZN4core3ptr39drop_in_place$LT$std..env..VarError$GT$17h6c49ec6cfdd4b951E"(ptr align 8 %_1) unnamed_addr #1 {
start:
  %0 = load i64, ptr %_1, align 8
  %1 = icmp eq i64 %0, -9223372036854775808
  %_2 = select i1 %1, i64 0, i64 1
  %2 = icmp eq i64 %_2, 0
  br i1 %2, label %bb1, label %bb2

bb1:                                              ; preds = %bb2, %start
  ret void

bb2:                                              ; preds = %start
; call core::ptr::drop_in_place<std::ffi::os_str::OsString>
  call void @"_ZN4core3ptr47drop_in_place$LT$std..ffi..os_str..OsString$GT$17h4284c2cd9ea31f13E"(ptr align 8 %_1)
  br label %bb1
}

; core::ptr::drop_in_place<std::process::Output>
; Function Attrs: nonlazybind uwtable
define internal void @"_ZN4core3ptr41drop_in_place$LT$std..process..Output$GT$17h69427427568893a8E"(ptr align 8 %_1) unnamed_addr #1 personality ptr @rust_eh_personality {
start:
  %0 = alloca [16 x i8], align 8
; invoke core::ptr::drop_in_place<alloc::vec::Vec<u8>>
  invoke void @"_ZN4core3ptr46drop_in_place$LT$alloc..vec..Vec$LT$u8$GT$$GT$17h8517b621ca9b66b7E"(ptr align 8 %_1)
          to label %bb4 unwind label %cleanup

bb3:                                              ; preds = %cleanup
  %1 = getelementptr inbounds i8, ptr %_1, i64 24
; invoke core::ptr::drop_in_place<alloc::vec::Vec<u8>>
  invoke void @"_ZN4core3ptr46drop_in_place$LT$alloc..vec..Vec$LT$u8$GT$$GT$17h8517b621ca9b66b7E"(ptr align 8 %1) #21
          to label %bb1 unwind label %terminate

cleanup:                                          ; preds = %start
  %2 = landingpad { ptr, i32 }
          cleanup
  %3 = extractvalue { ptr, i32 } %2, 0
  %4 = extractvalue { ptr, i32 } %2, 1
  store ptr %3, ptr %0, align 8
  %5 = getelementptr inbounds i8, ptr %0, i64 8
  store i32 %4, ptr %5, align 8
  br label %bb3

bb4:                                              ; preds = %start
  %6 = getelementptr inbounds i8, ptr %_1, i64 24
; call core::ptr::drop_in_place<alloc::vec::Vec<u8>>
  call void @"_ZN4core3ptr46drop_in_place$LT$alloc..vec..Vec$LT$u8$GT$$GT$17h8517b621ca9b66b7E"(ptr align 8 %6)
  ret void

terminate:                                        ; preds = %bb3
  %7 = landingpad { ptr, i32 }
          filter [0 x ptr] zeroinitializer
  %8 = extractvalue { ptr, i32 } %7, 0
  %9 = extractvalue { ptr, i32 } %7, 1
; call core::panicking::panic_in_cleanup
  call void @_ZN4core9panicking16panic_in_cleanup17h43442956f23e9cbeE() #22
  unreachable

bb1:                                              ; preds = %bb3
  %10 = load ptr, ptr %0, align 8
  %11 = getelementptr inbounds i8, ptr %0, i64 8
  %12 = load i32, ptr %11, align 8
  %13 = insertvalue { ptr, i32 } poison, ptr %10, 0
  %14 = insertvalue { ptr, i32 } %13, i32 %12, 1
  resume { ptr, i32 } %14
}

; core::ptr::drop_in_place<alloc::string::String>
; Function Attrs: nonlazybind uwtable
define internal void @"_ZN4core3ptr42drop_in_place$LT$alloc..string..String$GT$17habd0b75e9867b120E"(ptr align 8 %_1) unnamed_addr #1 {
start:
; call core::ptr::drop_in_place<alloc::vec::Vec<u8>>
  call void @"_ZN4core3ptr46drop_in_place$LT$alloc..vec..Vec$LT$u8$GT$$GT$17h8517b621ca9b66b7E"(ptr align 8 %_1)
  ret void
}

; core::ptr::drop_in_place<std::io::error::Error>
; Function Attrs: nonlazybind uwtable
define internal void @"_ZN4core3ptr42drop_in_place$LT$std..io..error..Error$GT$17hd7a780bd154a7fa5E"(ptr align 8 %_1) unnamed_addr #1 {
start:
; call core::ptr::drop_in_place<std::io::error::repr_bitpacked::Repr>
  call void @"_ZN4core3ptr57drop_in_place$LT$std..io..error..repr_bitpacked..Repr$GT$17h23822366c7f96629E"(ptr align 8 %_1)
  ret void
}

; core::ptr::drop_in_place<std::process::Command>
; Function Attrs: nonlazybind uwtable
define internal void @"_ZN4core3ptr42drop_in_place$LT$std..process..Command$GT$17hd456cf9808648d8eE"(ptr align 8 %_1) unnamed_addr #1 {
start:
; call core::ptr::drop_in_place<std::sys::pal::unix::process::process_common::Command>
  call void @"_ZN4core3ptr74drop_in_place$LT$std..sys..pal..unix..process..process_common..Command$GT$17h27c483644f44a2a6E"(ptr align 8 %_1)
  ret void
}

; core::ptr::drop_in_place<std::io::error::Custom>
; Function Attrs: nonlazybind uwtable
define internal void @"_ZN4core3ptr43drop_in_place$LT$std..io..error..Custom$GT$17hd5ae9ceda8a313e4E"(ptr align 8 %_1) unnamed_addr #1 {
start:
; call core::ptr::drop_in_place<alloc::boxed::Box<dyn core::error::Error+core::marker::Send+core::marker::Sync>>
  call void @"_ZN4core3ptr118drop_in_place$LT$alloc..boxed..Box$LT$dyn$u20$core..error..Error$u2b$core..marker..Send$u2b$core..marker..Sync$GT$$GT$17hac7cc8591b2a2758E"(ptr align 8 %_1)
  ret void
}

; core::ptr::drop_in_place<alloc::vec::Vec<u8>>
; Function Attrs: nonlazybind uwtable
define internal void @"_ZN4core3ptr46drop_in_place$LT$alloc..vec..Vec$LT$u8$GT$$GT$17h8517b621ca9b66b7E"(ptr align 8 %_1) unnamed_addr #1 personality ptr @rust_eh_personality {
start:
  %0 = alloca [16 x i8], align 8
; invoke <alloc::vec::Vec<T,A> as core::ops::drop::Drop>::drop
  invoke void @"_ZN70_$LT$alloc..vec..Vec$LT$T$C$A$GT$$u20$as$u20$core..ops..drop..Drop$GT$4drop17h2173582f27052fb0E"(ptr align 8 %_1)
          to label %bb4 unwind label %cleanup

bb3:                                              ; preds = %cleanup
; invoke core::ptr::drop_in_place<alloc::raw_vec::RawVec<u8>>
  invoke void @"_ZN4core3ptr53drop_in_place$LT$alloc..raw_vec..RawVec$LT$u8$GT$$GT$17hbc4dbd719a1f3e29E"(ptr align 8 %_1) #21
          to label %bb1 unwind label %terminate

cleanup:                                          ; preds = %start
  %1 = landingpad { ptr, i32 }
          cleanup
  %2 = extractvalue { ptr, i32 } %1, 0
  %3 = extractvalue { ptr, i32 } %1, 1
  store ptr %2, ptr %0, align 8
  %4 = getelementptr inbounds i8, ptr %0, i64 8
  store i32 %3, ptr %4, align 8
  br label %bb3

bb4:                                              ; preds = %start
; call core::ptr::drop_in_place<alloc::raw_vec::RawVec<u8>>
  call void @"_ZN4core3ptr53drop_in_place$LT$alloc..raw_vec..RawVec$LT$u8$GT$$GT$17hbc4dbd719a1f3e29E"(ptr align 8 %_1)
  ret void

terminate:                                        ; preds = %bb3
  %5 = landingpad { ptr, i32 }
          filter [0 x ptr] zeroinitializer
  %6 = extractvalue { ptr, i32 } %5, 0
  %7 = extractvalue { ptr, i32 } %5, 1
; call core::panicking::panic_in_cleanup
  call void @_ZN4core9panicking16panic_in_cleanup17h43442956f23e9cbeE() #22
  unreachable

bb1:                                              ; preds = %bb3
  %8 = load ptr, ptr %0, align 8
  %9 = getelementptr inbounds i8, ptr %0, i64 8
  %10 = load i32, ptr %9, align 8
  %11 = insertvalue { ptr, i32 } poison, ptr %8, 0
  %12 = insertvalue { ptr, i32 } %11, i32 %10, 1
  resume { ptr, i32 } %12
}

; core::ptr::drop_in_place<alloc::ffi::c_str::CString>
; Function Attrs: nonlazybind uwtable
define internal void @"_ZN4core3ptr47drop_in_place$LT$alloc..ffi..c_str..CString$GT$17h3bfcf94198b0fe22E"(ptr align 8 %_1) unnamed_addr #1 personality ptr @rust_eh_personality {
start:
  %0 = alloca [16 x i8], align 8
; invoke <alloc::ffi::c_str::CString as core::ops::drop::Drop>::drop
  invoke void @"_ZN68_$LT$alloc..ffi..c_str..CString$u20$as$u20$core..ops..drop..Drop$GT$4drop17ha77c2b102debc3e9E"(ptr align 8 %_1)
          to label %bb4 unwind label %cleanup

bb3:                                              ; preds = %cleanup
; invoke core::ptr::drop_in_place<alloc::boxed::Box<[u8]>>
  invoke void @"_ZN4core3ptr58drop_in_place$LT$alloc..boxed..Box$LT$$u5b$u8$u5d$$GT$$GT$17h8f493596eabca5e3E"(ptr align 8 %_1) #21
          to label %bb1 unwind label %terminate

cleanup:                                          ; preds = %start
  %1 = landingpad { ptr, i32 }
          cleanup
  %2 = extractvalue { ptr, i32 } %1, 0
  %3 = extractvalue { ptr, i32 } %1, 1
  store ptr %2, ptr %0, align 8
  %4 = getelementptr inbounds i8, ptr %0, i64 8
  store i32 %3, ptr %4, align 8
  br label %bb3

bb4:                                              ; preds = %start
; call core::ptr::drop_in_place<alloc::boxed::Box<[u8]>>
  call void @"_ZN4core3ptr58drop_in_place$LT$alloc..boxed..Box$LT$$u5b$u8$u5d$$GT$$GT$17h8f493596eabca5e3E"(ptr align 8 %_1)
  ret void

terminate:                                        ; preds = %bb3
  %5 = landingpad { ptr, i32 }
          filter [0 x ptr] zeroinitializer
  %6 = extractvalue { ptr, i32 } %5, 0
  %7 = extractvalue { ptr, i32 } %5, 1
; call core::panicking::panic_in_cleanup
  call void @_ZN4core9panicking16panic_in_cleanup17h43442956f23e9cbeE() #22
  unreachable

bb1:                                              ; preds = %bb3
  %8 = load ptr, ptr %0, align 8
  %9 = getelementptr inbounds i8, ptr %0, i64 8
  %10 = load i32, ptr %9, align 8
  %11 = insertvalue { ptr, i32 } poison, ptr %8, 0
  %12 = insertvalue { ptr, i32 } %11, i32 %10, 1
  resume { ptr, i32 } %12
}

; core::ptr::drop_in_place<std::ffi::os_str::OsString>
; Function Attrs: nonlazybind uwtable
define internal void @"_ZN4core3ptr47drop_in_place$LT$std..ffi..os_str..OsString$GT$17h4284c2cd9ea31f13E"(ptr align 8 %_1) unnamed_addr #1 {
start:
; call core::ptr::drop_in_place<std::sys::os_str::bytes::Buf>
  call void @"_ZN4core3ptr49drop_in_place$LT$std..sys..os_str..bytes..Buf$GT$17ha14b7fb7966678bbE"(ptr align 8 %_1)
  ret void
}

; core::ptr::drop_in_place<std::os::fd::owned::OwnedFd>
; Function Attrs: nonlazybind uwtable
define internal void @"_ZN4core3ptr48drop_in_place$LT$std..os..fd..owned..OwnedFd$GT$17had711c81a95b3b0eE"(ptr align 4 %_1) unnamed_addr #1 {
start:
; call <std::os::fd::owned::OwnedFd as core::ops::drop::Drop>::drop
  call void @"_ZN69_$LT$std..os..fd..owned..OwnedFd$u20$as$u20$core..ops..drop..Drop$GT$4drop17h9cb13eec5fa09cb1E"(ptr align 4 %_1)
  ret void
}

; core::ptr::drop_in_place<alloc::string::FromUtf8Error>
; Function Attrs: nonlazybind uwtable
define internal void @"_ZN4core3ptr49drop_in_place$LT$alloc..string..FromUtf8Error$GT$17h771e620cf543ce32E"(ptr align 8 %_1) unnamed_addr #1 {
start:
; call core::ptr::drop_in_place<alloc::vec::Vec<u8>>
  call void @"_ZN4core3ptr46drop_in_place$LT$alloc..vec..Vec$LT$u8$GT$$GT$17h8517b621ca9b66b7E"(ptr align 8 %_1)
  ret void
}

; core::ptr::drop_in_place<std::sys::os_str::bytes::Buf>
; Function Attrs: nonlazybind uwtable
define internal void @"_ZN4core3ptr49drop_in_place$LT$std..sys..os_str..bytes..Buf$GT$17ha14b7fb7966678bbE"(ptr align 8 %_1) unnamed_addr #1 {
start:
; call core::ptr::drop_in_place<alloc::vec::Vec<u8>>
  call void @"_ZN4core3ptr46drop_in_place$LT$alloc..vec..Vec$LT$u8$GT$$GT$17h8517b621ca9b66b7E"(ptr align 8 %_1)
  ret void
}

; core::ptr::drop_in_place<alloc::borrow::Cow<str>>
; Function Attrs: nonlazybind uwtable
define internal void @"_ZN4core3ptr50drop_in_place$LT$alloc..borrow..Cow$LT$str$GT$$GT$17h3e693c3002ce159cE"(ptr align 8 %_1) unnamed_addr #1 {
start:
  %0 = load i64, ptr %_1, align 8
  %1 = icmp eq i64 %0, -9223372036854775808
  %_2 = select i1 %1, i64 0, i64 1
  %2 = icmp eq i64 %_2, 0
  br i1 %2, label %bb1, label %bb2

bb1:                                              ; preds = %bb2, %start
  ret void

bb2:                                              ; preds = %start
; call core::ptr::drop_in_place<alloc::string::String>
  call void @"_ZN4core3ptr42drop_in_place$LT$alloc..string..String$GT$17habd0b75e9867b120E"(ptr align 8 %_1)
  br label %bb1
}

; core::ptr::drop_in_place<core::num::error::ParseIntError>
; Function Attrs: inlinehint nonlazybind uwtable
define internal void @"_ZN4core3ptr52drop_in_place$LT$core..num..error..ParseIntError$GT$17h5660045afbaf098bE"(ptr align 1 %_1) unnamed_addr #0 {
start:
  ret void
}

; core::ptr::drop_in_place<alloc::raw_vec::RawVec<u8>>
; Function Attrs: nonlazybind uwtable
define internal void @"_ZN4core3ptr53drop_in_place$LT$alloc..raw_vec..RawVec$LT$u8$GT$$GT$17hbc4dbd719a1f3e29E"(ptr align 8 %_1) unnamed_addr #1 {
start:
; call <alloc::raw_vec::RawVec<T,A> as core::ops::drop::Drop>::drop
  call void @"_ZN77_$LT$alloc..raw_vec..RawVec$LT$T$C$A$GT$$u20$as$u20$core..ops..drop..Drop$GT$4drop17h87dbe6a50c396517E"(ptr align 8 %_1)
  ret void
}

; core::ptr::drop_in_place<core::num::error::TryFromIntError>
; Function Attrs: inlinehint nonlazybind uwtable
define internal void @"_ZN4core3ptr54drop_in_place$LT$core..num..error..TryFromIntError$GT$17h189b48984a9bf9b2E"(ptr align 1 %_1) unnamed_addr #0 {
start:
  ret void
}

; core::ptr::drop_in_place<std::sys::pal::unix::fd::FileDesc>
; Function Attrs: nonlazybind uwtable
define internal void @"_ZN4core3ptr54drop_in_place$LT$std..sys..pal..unix..fd..FileDesc$GT$17h37949d3c6d832292E"(ptr align 4 %_1) unnamed_addr #1 {
start:
; call core::ptr::drop_in_place<std::os::fd::owned::OwnedFd>
  call void @"_ZN4core3ptr48drop_in_place$LT$std..os..fd..owned..OwnedFd$GT$17had711c81a95b3b0eE"(ptr align 4 %_1)
  ret void
}

; core::ptr::drop_in_place<&core::num::error::IntErrorKind>
; Function Attrs: inlinehint nonlazybind uwtable
define internal void @"_ZN4core3ptr55drop_in_place$LT$$RF$core..num..error..IntErrorKind$GT$17h8b02ae6c0996e898E"(ptr align 8 %_1) unnamed_addr #0 {
start:
  ret void
}

; core::ptr::drop_in_place<[alloc::ffi::c_str::CString]>
; Function Attrs: nonlazybind uwtable
define internal void @"_ZN4core3ptr57drop_in_place$LT$$u5b$alloc..ffi..c_str..CString$u5d$$GT$17h20520f381338dbf4E"(ptr align 8 %_1.0, i64 %_1.1) unnamed_addr #1 personality ptr @rust_eh_personality {
start:
  %0 = alloca [16 x i8], align 8
  %_3 = alloca [8 x i8], align 8
  store i64 0, ptr %_3, align 8
  br label %bb6

bb6:                                              ; preds = %bb5, %start
  %1 = load i64, ptr %_3, align 8
  %_7 = icmp eq i64 %1, %_1.1
  br i1 %_7, label %bb1, label %bb5

bb5:                                              ; preds = %bb6
  %2 = load i64, ptr %_3, align 8
  %_6 = getelementptr inbounds [0 x %"alloc::ffi::c_str::CString"], ptr %_1.0, i64 0, i64 %2
  %3 = load i64, ptr %_3, align 8
  %4 = add i64 %3, 1
  store i64 %4, ptr %_3, align 8
; invoke core::ptr::drop_in_place<alloc::ffi::c_str::CString>
  invoke void @"_ZN4core3ptr47drop_in_place$LT$alloc..ffi..c_str..CString$GT$17h3bfcf94198b0fe22E"(ptr align 8 %_6)
          to label %bb6 unwind label %cleanup

bb1:                                              ; preds = %bb6
  ret void

bb4:                                              ; preds = %bb3, %cleanup
  %5 = load i64, ptr %_3, align 8
  %_5 = icmp eq i64 %5, %_1.1
  br i1 %_5, label %bb2, label %bb3

cleanup:                                          ; preds = %bb5
  %6 = landingpad { ptr, i32 }
          cleanup
  %7 = extractvalue { ptr, i32 } %6, 0
  %8 = extractvalue { ptr, i32 } %6, 1
  store ptr %7, ptr %0, align 8
  %9 = getelementptr inbounds i8, ptr %0, i64 8
  store i32 %8, ptr %9, align 8
  br label %bb4

bb3:                                              ; preds = %bb4
  %10 = load i64, ptr %_3, align 8
  %_4 = getelementptr inbounds [0 x %"alloc::ffi::c_str::CString"], ptr %_1.0, i64 0, i64 %10
  %11 = load i64, ptr %_3, align 8
  %12 = add i64 %11, 1
  store i64 %12, ptr %_3, align 8
; invoke core::ptr::drop_in_place<alloc::ffi::c_str::CString>
  invoke void @"_ZN4core3ptr47drop_in_place$LT$alloc..ffi..c_str..CString$GT$17h3bfcf94198b0fe22E"(ptr align 8 %_4) #21
          to label %bb4 unwind label %terminate

bb2:                                              ; preds = %bb4
  %13 = load ptr, ptr %0, align 8
  %14 = getelementptr inbounds i8, ptr %0, i64 8
  %15 = load i32, ptr %14, align 8
  %16 = insertvalue { ptr, i32 } poison, ptr %13, 0
  %17 = insertvalue { ptr, i32 } %16, i32 %15, 1
  resume { ptr, i32 } %17

terminate:                                        ; preds = %bb3
  %18 = landingpad { ptr, i32 }
          filter [0 x ptr] zeroinitializer
  %19 = extractvalue { ptr, i32 } %18, 0
  %20 = extractvalue { ptr, i32 } %18, 1
; call core::panicking::panic_in_cleanup
  call void @_ZN4core9panicking16panic_in_cleanup17h43442956f23e9cbeE() #22
  unreachable
}

; core::ptr::drop_in_place<std::io::error::repr_bitpacked::Repr>
; Function Attrs: nonlazybind uwtable
define internal void @"_ZN4core3ptr57drop_in_place$LT$std..io..error..repr_bitpacked..Repr$GT$17h23822366c7f96629E"(ptr align 8 %_1) unnamed_addr #1 {
start:
; call <std::io::error::repr_bitpacked::Repr as core::ops::drop::Drop>::drop
  call void @"_ZN78_$LT$std..io..error..repr_bitpacked..Repr$u20$as$u20$core..ops..drop..Drop$GT$4drop17he11f4e0927e8e8f5E"(ptr align 8 %_1)
  ret void
}

; core::ptr::drop_in_place<std::sys_common::process::CommandEnv>
; Function Attrs: nonlazybind uwtable
define internal void @"_ZN4core3ptr57drop_in_place$LT$std..sys_common..process..CommandEnv$GT$17h5555ff145fa46c0dE"(ptr align 8 %_1) unnamed_addr #1 {
start:
; call core::ptr::drop_in_place<alloc::collections::btree::map::BTreeMap<std::ffi::os_str::OsString,core::option::Option<std::ffi::os_str::OsString>>>
  call void @"_ZN4core3ptr152drop_in_place$LT$alloc..collections..btree..map..BTreeMap$LT$std..ffi..os_str..OsString$C$core..option..Option$LT$std..ffi..os_str..OsString$GT$$GT$$GT$17h4f66150d8b275a0fE"(ptr align 8 %_1)
  ret void
}

; core::ptr::drop_in_place<alloc::boxed::Box<[u8]>>
; Function Attrs: nonlazybind uwtable
define internal void @"_ZN4core3ptr58drop_in_place$LT$alloc..boxed..Box$LT$$u5b$u8$u5d$$GT$$GT$17h8f493596eabca5e3E"(ptr align 8 %_1) unnamed_addr #1 personality ptr @rust_eh_personality {
start:
  %0 = alloca [16 x i8], align 8
  %_6.0 = load ptr, ptr %_1, align 8
  %1 = getelementptr inbounds i8, ptr %_1, i64 8
  %_6.1 = load i64, ptr %1, align 8
  br label %bb3

bb3:                                              ; preds = %start
; call <alloc::boxed::Box<T,A> as core::ops::drop::Drop>::drop
  call void @"_ZN72_$LT$alloc..boxed..Box$LT$T$C$A$GT$$u20$as$u20$core..ops..drop..Drop$GT$4drop17hfe581636bbfa4333E"(ptr align 8 %_1)
  ret void

bb4:                                              ; No predecessors!
; invoke <alloc::boxed::Box<T,A> as core::ops::drop::Drop>::drop
  invoke void @"_ZN72_$LT$alloc..boxed..Box$LT$T$C$A$GT$$u20$as$u20$core..ops..drop..Drop$GT$4drop17hfe581636bbfa4333E"(ptr align 8 %_1) #21
          to label %bb1 unwind label %terminate

terminate:                                        ; preds = %bb4
  %2 = landingpad { ptr, i32 }
          filter [0 x ptr] zeroinitializer
  %3 = extractvalue { ptr, i32 } %2, 0
  %4 = extractvalue { ptr, i32 } %2, 1
; call core::panicking::panic_in_cleanup
  call void @_ZN4core9panicking16panic_in_cleanup17h43442956f23e9cbeE() #22
  unreachable

bb1:                                              ; preds = %bb4
  %5 = load ptr, ptr %0, align 8
  %6 = getelementptr inbounds i8, ptr %0, i64 8
  %7 = load i32, ptr %6, align 8
  %8 = insertvalue { ptr, i32 } poison, ptr %5, 0
  %9 = insertvalue { ptr, i32 } %8, i32 %7, 1
  resume { ptr, i32 } %9
}

; core::ptr::drop_in_place<alloc::boxed::Box<[u32]>>
; Function Attrs: nonlazybind uwtable
define internal void @"_ZN4core3ptr59drop_in_place$LT$alloc..boxed..Box$LT$$u5b$u32$u5d$$GT$$GT$17hbaf9ecb4a1a6f338E"(ptr align 8 %_1) unnamed_addr #1 personality ptr @rust_eh_personality {
start:
  %0 = alloca [16 x i8], align 8
  %_6.0 = load ptr, ptr %_1, align 8
  %1 = getelementptr inbounds i8, ptr %_1, i64 8
  %_6.1 = load i64, ptr %1, align 8
  br label %bb3

bb3:                                              ; preds = %start
; call <alloc::boxed::Box<T,A> as core::ops::drop::Drop>::drop
  call void @"_ZN72_$LT$alloc..boxed..Box$LT$T$C$A$GT$$u20$as$u20$core..ops..drop..Drop$GT$4drop17hf3f901516c687183E"(ptr align 8 %_1)
  ret void

bb4:                                              ; No predecessors!
; invoke <alloc::boxed::Box<T,A> as core::ops::drop::Drop>::drop
  invoke void @"_ZN72_$LT$alloc..boxed..Box$LT$T$C$A$GT$$u20$as$u20$core..ops..drop..Drop$GT$4drop17hf3f901516c687183E"(ptr align 8 %_1) #21
          to label %bb1 unwind label %terminate

terminate:                                        ; preds = %bb4
  %2 = landingpad { ptr, i32 }
          filter [0 x ptr] zeroinitializer
  %3 = extractvalue { ptr, i32 } %2, 0
  %4 = extractvalue { ptr, i32 } %2, 1
; call core::panicking::panic_in_cleanup
  call void @_ZN4core9panicking16panic_in_cleanup17h43442956f23e9cbeE() #22
  unreachable

bb1:                                              ; preds = %bb4
  %5 = load ptr, ptr %0, align 8
  %6 = getelementptr inbounds i8, ptr %0, i64 8
  %7 = load i32, ptr %6, align 8
  %8 = insertvalue { ptr, i32 } poison, ptr %5, 0
  %9 = insertvalue { ptr, i32 } %8, i32 %7, 1
  resume { ptr, i32 } %9
}

; core::ptr::drop_in_place<alloc::vec::Vec<*const i8>>
; Function Attrs: nonlazybind uwtable
define internal void @"_ZN4core3ptr60drop_in_place$LT$alloc..vec..Vec$LT$$BP$const$u20$i8$GT$$GT$17h68774f1efb7d89ecE"(ptr align 8 %_1) unnamed_addr #1 personality ptr @rust_eh_personality {
start:
  %0 = alloca [16 x i8], align 8
; invoke <alloc::vec::Vec<T,A> as core::ops::drop::Drop>::drop
  invoke void @"_ZN70_$LT$alloc..vec..Vec$LT$T$C$A$GT$$u20$as$u20$core..ops..drop..Drop$GT$4drop17h220a9336839473f8E"(ptr align 8 %_1)
          to label %bb4 unwind label %cleanup

bb3:                                              ; preds = %cleanup
; invoke core::ptr::drop_in_place<alloc::raw_vec::RawVec<*const i8>>
  invoke void @"_ZN4core3ptr67drop_in_place$LT$alloc..raw_vec..RawVec$LT$$BP$const$u20$i8$GT$$GT$17hc3820d3da92af997E"(ptr align 8 %_1) #21
          to label %bb1 unwind label %terminate

cleanup:                                          ; preds = %start
  %1 = landingpad { ptr, i32 }
          cleanup
  %2 = extractvalue { ptr, i32 } %1, 0
  %3 = extractvalue { ptr, i32 } %1, 1
  store ptr %2, ptr %0, align 8
  %4 = getelementptr inbounds i8, ptr %0, i64 8
  store i32 %3, ptr %4, align 8
  br label %bb3

bb4:                                              ; preds = %start
; call core::ptr::drop_in_place<alloc::raw_vec::RawVec<*const i8>>
  call void @"_ZN4core3ptr67drop_in_place$LT$alloc..raw_vec..RawVec$LT$$BP$const$u20$i8$GT$$GT$17hc3820d3da92af997E"(ptr align 8 %_1)
  ret void

terminate:                                        ; preds = %bb3
  %5 = landingpad { ptr, i32 }
          filter [0 x ptr] zeroinitializer
  %6 = extractvalue { ptr, i32 } %5, 0
  %7 = extractvalue { ptr, i32 } %5, 1
; call core::panicking::panic_in_cleanup
  call void @_ZN4core9panicking16panic_in_cleanup17h43442956f23e9cbeE() #22
  unreachable

bb1:                                              ; preds = %bb3
  %8 = load ptr, ptr %0, align 8
  %9 = getelementptr inbounds i8, ptr %0, i64 8
  %10 = load i32, ptr %9, align 8
  %11 = insertvalue { ptr, i32 } poison, ptr %8, 0
  %12 = insertvalue { ptr, i32 } %11, i32 %10, 1
  resume { ptr, i32 } %12
}

; core::ptr::drop_in_place<alloc::raw_vec::RawVec<*const i8>>
; Function Attrs: nonlazybind uwtable
define internal void @"_ZN4core3ptr67drop_in_place$LT$alloc..raw_vec..RawVec$LT$$BP$const$u20$i8$GT$$GT$17hc3820d3da92af997E"(ptr align 8 %_1) unnamed_addr #1 {
start:
; call <alloc::raw_vec::RawVec<T,A> as core::ops::drop::Drop>::drop
  call void @"_ZN77_$LT$alloc..raw_vec..RawVec$LT$T$C$A$GT$$u20$as$u20$core..ops..drop..Drop$GT$4drop17hdf7f681bc1f172e7E"(ptr align 8 %_1)
  ret void
}

; core::ptr::drop_in_place<alloc::boxed::Box<std::io::error::Custom>>
; Function Attrs: nonlazybind uwtable
define internal void @"_ZN4core3ptr68drop_in_place$LT$alloc..boxed..Box$LT$std..io..error..Custom$GT$$GT$17h6d7b710b32fdd162E"(ptr align 8 %_1) unnamed_addr #1 personality ptr @rust_eh_personality {
start:
  %0 = alloca [16 x i8], align 8
  %_6 = load ptr, ptr %_1, align 8
; invoke core::ptr::drop_in_place<std::io::error::Custom>
  invoke void @"_ZN4core3ptr43drop_in_place$LT$std..io..error..Custom$GT$17hd5ae9ceda8a313e4E"(ptr align 8 %_6)
          to label %bb3 unwind label %cleanup

bb4:                                              ; preds = %cleanup
; invoke <alloc::boxed::Box<T,A> as core::ops::drop::Drop>::drop
  invoke void @"_ZN72_$LT$alloc..boxed..Box$LT$T$C$A$GT$$u20$as$u20$core..ops..drop..Drop$GT$4drop17h6d39a54fbdd1c091E"(ptr align 8 %_1) #21
          to label %bb1 unwind label %terminate

cleanup:                                          ; preds = %start
  %1 = landingpad { ptr, i32 }
          cleanup
  %2 = extractvalue { ptr, i32 } %1, 0
  %3 = extractvalue { ptr, i32 } %1, 1
  store ptr %2, ptr %0, align 8
  %4 = getelementptr inbounds i8, ptr %0, i64 8
  store i32 %3, ptr %4, align 8
  br label %bb4

bb3:                                              ; preds = %start
; call <alloc::boxed::Box<T,A> as core::ops::drop::Drop>::drop
  call void @"_ZN72_$LT$alloc..boxed..Box$LT$T$C$A$GT$$u20$as$u20$core..ops..drop..Drop$GT$4drop17h6d39a54fbdd1c091E"(ptr align 8 %_1)
  ret void

terminate:                                        ; preds = %bb4
  %5 = landingpad { ptr, i32 }
          filter [0 x ptr] zeroinitializer
  %6 = extractvalue { ptr, i32 } %5, 0
  %7 = extractvalue { ptr, i32 } %5, 1
; call core::panicking::panic_in_cleanup
  call void @_ZN4core9panicking16panic_in_cleanup17h43442956f23e9cbeE() #22
  unreachable

bb1:                                              ; preds = %bb4
  %8 = load ptr, ptr %0, align 8
  %9 = getelementptr inbounds i8, ptr %0, i64 8
  %10 = load i32, ptr %9, align 8
  %11 = insertvalue { ptr, i32 } poison, ptr %8, 0
  %12 = insertvalue { ptr, i32 } %11, i32 %10, 1
  resume { ptr, i32 } %12
}

; core::ptr::drop_in_place<alloc::vec::Vec<alloc::ffi::c_str::CString>>
; Function Attrs: nonlazybind uwtable
define internal void @"_ZN4core3ptr70drop_in_place$LT$alloc..vec..Vec$LT$alloc..ffi..c_str..CString$GT$$GT$17h6a500ebdb2ede1e3E"(ptr align 8 %_1) unnamed_addr #1 personality ptr @rust_eh_personality {
start:
  %0 = alloca [16 x i8], align 8
; invoke <alloc::vec::Vec<T,A> as core::ops::drop::Drop>::drop
  invoke void @"_ZN70_$LT$alloc..vec..Vec$LT$T$C$A$GT$$u20$as$u20$core..ops..drop..Drop$GT$4drop17hbc60e3456f0f864eE"(ptr align 8 %_1)
          to label %bb4 unwind label %cleanup

bb3:                                              ; preds = %cleanup
; invoke core::ptr::drop_in_place<alloc::raw_vec::RawVec<alloc::ffi::c_str::CString>>
  invoke void @"_ZN4core3ptr77drop_in_place$LT$alloc..raw_vec..RawVec$LT$alloc..ffi..c_str..CString$GT$$GT$17ha3c7e7051eb399b6E"(ptr align 8 %_1) #21
          to label %bb1 unwind label %terminate

cleanup:                                          ; preds = %start
  %1 = landingpad { ptr, i32 }
          cleanup
  %2 = extractvalue { ptr, i32 } %1, 0
  %3 = extractvalue { ptr, i32 } %1, 1
  store ptr %2, ptr %0, align 8
  %4 = getelementptr inbounds i8, ptr %0, i64 8
  store i32 %3, ptr %4, align 8
  br label %bb3

bb4:                                              ; preds = %start
; call core::ptr::drop_in_place<alloc::raw_vec::RawVec<alloc::ffi::c_str::CString>>
  call void @"_ZN4core3ptr77drop_in_place$LT$alloc..raw_vec..RawVec$LT$alloc..ffi..c_str..CString$GT$$GT$17ha3c7e7051eb399b6E"(ptr align 8 %_1)
  ret void

terminate:                                        ; preds = %bb3
  %5 = landingpad { ptr, i32 }
          filter [0 x ptr] zeroinitializer
  %6 = extractvalue { ptr, i32 } %5, 0
  %7 = extractvalue { ptr, i32 } %5, 1
; call core::panicking::panic_in_cleanup
  call void @_ZN4core9panicking16panic_in_cleanup17h43442956f23e9cbeE() #22
  unreachable

bb1:                                              ; preds = %bb3
  %8 = load ptr, ptr %0, align 8
  %9 = getelementptr inbounds i8, ptr %0, i64 8
  %10 = load i32, ptr %9, align 8
  %11 = insertvalue { ptr, i32 } poison, ptr %8, 0
  %12 = insertvalue { ptr, i32 } %11, i32 %10, 1
  resume { ptr, i32 } %12
}

; core::ptr::drop_in_place<std::sys::pal::unix::process::process_common::Argv>
; Function Attrs: nonlazybind uwtable
define internal void @"_ZN4core3ptr71drop_in_place$LT$std..sys..pal..unix..process..process_common..Argv$GT$17h00a5055a1d88a410E"(ptr align 8 %_1) unnamed_addr #1 {
start:
; call core::ptr::drop_in_place<alloc::vec::Vec<*const i8>>
  call void @"_ZN4core3ptr60drop_in_place$LT$alloc..vec..Vec$LT$$BP$const$u20$i8$GT$$GT$17h68774f1efb7d89ecE"(ptr align 8 %_1)
  ret void
}

; core::ptr::drop_in_place<alloc::collections::btree::mem::replace::PanicGuard>
; Function Attrs: nonlazybind uwtable
define internal void @"_ZN4core3ptr72drop_in_place$LT$alloc..collections..btree..mem..replace..PanicGuard$GT$17hb16c564f8b0fd4e3E"(ptr align 1 %_1) unnamed_addr #1 {
start:
; call <alloc::collections::btree::mem::replace::PanicGuard as core::ops::drop::Drop>::drop
  call void @"_ZN93_$LT$alloc..collections..btree..mem..replace..PanicGuard$u20$as$u20$core..ops..drop..Drop$GT$4drop17hb2d226a95527d05eE"(ptr align 1 %_1)
  ret void
}

; core::ptr::drop_in_place<std::sys::pal::unix::process::process_common::Stdio>
; Function Attrs: nonlazybind uwtable
define internal void @"_ZN4core3ptr72drop_in_place$LT$std..sys..pal..unix..process..process_common..Stdio$GT$17hcbc47e000e0e0502E"(ptr align 4 %_1) unnamed_addr #1 {
start:
  %0 = load i32, ptr %_1, align 4
  %_2 = zext i32 %0 to i64
  switch i64 %_2, label %bb1 [
    i64 0, label %bb1
    i64 1, label %bb1
    i64 2, label %bb1
    i64 3, label %bb2
  ]

bb1:                                              ; preds = %bb2, %start, %start, %start, %start
  ret void

bb2:                                              ; preds = %start
  %1 = getelementptr inbounds i8, ptr %_1, i64 4
; call core::ptr::drop_in_place<std::sys::pal::unix::fd::FileDesc>
  call void @"_ZN4core3ptr54drop_in_place$LT$std..sys..pal..unix..fd..FileDesc$GT$17h37949d3c6d832292E"(ptr align 4 %1)
  br label %bb1
}

; core::ptr::drop_in_place<std::sys::pal::unix::process::process_common::Command>
; Function Attrs: nonlazybind uwtable
define internal void @"_ZN4core3ptr74drop_in_place$LT$std..sys..pal..unix..process..process_common..Command$GT$17h27c483644f44a2a6E"(ptr align 8 %_1) unnamed_addr #1 personality ptr @rust_eh_personality {
start:
  %0 = alloca [16 x i8], align 8
  %1 = getelementptr inbounds i8, ptr %_1, i64 152
; invoke core::ptr::drop_in_place<alloc::ffi::c_str::CString>
  invoke void @"_ZN4core3ptr47drop_in_place$LT$alloc..ffi..c_str..CString$GT$17h3bfcf94198b0fe22E"(ptr align 8 %1)
          to label %bb20 unwind label %cleanup

bb11:                                             ; preds = %cleanup
; invoke core::ptr::drop_in_place<alloc::vec::Vec<alloc::ffi::c_str::CString>>
  invoke void @"_ZN4core3ptr70drop_in_place$LT$alloc..vec..Vec$LT$alloc..ffi..c_str..CString$GT$$GT$17h6a500ebdb2ede1e3E"(ptr align 8 %_1) #21
          to label %bb10 unwind label %terminate

cleanup:                                          ; preds = %start
  %2 = landingpad { ptr, i32 }
          cleanup
  %3 = extractvalue { ptr, i32 } %2, 0
  %4 = extractvalue { ptr, i32 } %2, 1
  store ptr %3, ptr %0, align 8
  %5 = getelementptr inbounds i8, ptr %0, i64 8
  store i32 %4, ptr %5, align 8
  br label %bb11

bb20:                                             ; preds = %start
; invoke core::ptr::drop_in_place<alloc::vec::Vec<alloc::ffi::c_str::CString>>
  invoke void @"_ZN4core3ptr70drop_in_place$LT$alloc..vec..Vec$LT$alloc..ffi..c_str..CString$GT$$GT$17h6a500ebdb2ede1e3E"(ptr align 8 %_1)
          to label %bb19 unwind label %cleanup1

bb10:                                             ; preds = %bb11, %cleanup1
  %6 = getelementptr inbounds i8, ptr %_1, i64 24
; invoke core::ptr::drop_in_place<std::sys::pal::unix::process::process_common::Argv>
  invoke void @"_ZN4core3ptr71drop_in_place$LT$std..sys..pal..unix..process..process_common..Argv$GT$17h00a5055a1d88a410E"(ptr align 8 %6) #21
          to label %bb9 unwind label %terminate

cleanup1:                                         ; preds = %bb20
  %7 = landingpad { ptr, i32 }
          cleanup
  %8 = extractvalue { ptr, i32 } %7, 0
  %9 = extractvalue { ptr, i32 } %7, 1
  store ptr %8, ptr %0, align 8
  %10 = getelementptr inbounds i8, ptr %0, i64 8
  store i32 %9, ptr %10, align 8
  br label %bb10

bb19:                                             ; preds = %bb20
  %11 = getelementptr inbounds i8, ptr %_1, i64 24
; invoke core::ptr::drop_in_place<std::sys::pal::unix::process::process_common::Argv>
  invoke void @"_ZN4core3ptr71drop_in_place$LT$std..sys..pal..unix..process..process_common..Argv$GT$17h00a5055a1d88a410E"(ptr align 8 %11)
          to label %bb18 unwind label %cleanup2

bb9:                                              ; preds = %bb10, %cleanup2
  %12 = getelementptr inbounds i8, ptr %_1, i64 120
; invoke core::ptr::drop_in_place<std::sys_common::process::CommandEnv>
  invoke void @"_ZN4core3ptr57drop_in_place$LT$std..sys_common..process..CommandEnv$GT$17h5555ff145fa46c0dE"(ptr align 8 %12) #21
          to label %bb8 unwind label %terminate

cleanup2:                                         ; preds = %bb19
  %13 = landingpad { ptr, i32 }
          cleanup
  %14 = extractvalue { ptr, i32 } %13, 0
  %15 = extractvalue { ptr, i32 } %13, 1
  store ptr %14, ptr %0, align 8
  %16 = getelementptr inbounds i8, ptr %0, i64 8
  store i32 %15, ptr %16, align 8
  br label %bb9

bb18:                                             ; preds = %bb19
  %17 = getelementptr inbounds i8, ptr %_1, i64 120
; invoke core::ptr::drop_in_place<std::sys_common::process::CommandEnv>
  invoke void @"_ZN4core3ptr57drop_in_place$LT$std..sys_common..process..CommandEnv$GT$17h5555ff145fa46c0dE"(ptr align 8 %17)
          to label %bb17 unwind label %cleanup3

bb8:                                              ; preds = %bb9, %cleanup3
  %18 = getelementptr inbounds i8, ptr %_1, i64 168
; invoke core::ptr::drop_in_place<core::option::Option<alloc::ffi::c_str::CString>>
  invoke void @"_ZN4core3ptr75drop_in_place$LT$core..option..Option$LT$alloc..ffi..c_str..CString$GT$$GT$17h81a0692a54e7cc1fE"(ptr align 8 %18) #21
          to label %bb7 unwind label %terminate

cleanup3:                                         ; preds = %bb18
  %19 = landingpad { ptr, i32 }
          cleanup
  %20 = extractvalue { ptr, i32 } %19, 0
  %21 = extractvalue { ptr, i32 } %19, 1
  store ptr %20, ptr %0, align 8
  %22 = getelementptr inbounds i8, ptr %0, i64 8
  store i32 %21, ptr %22, align 8
  br label %bb8

bb17:                                             ; preds = %bb18
  %23 = getelementptr inbounds i8, ptr %_1, i64 168
; invoke core::ptr::drop_in_place<core::option::Option<alloc::ffi::c_str::CString>>
  invoke void @"_ZN4core3ptr75drop_in_place$LT$core..option..Option$LT$alloc..ffi..c_str..CString$GT$$GT$17h81a0692a54e7cc1fE"(ptr align 8 %23)
          to label %bb16 unwind label %cleanup4

bb7:                                              ; preds = %bb8, %cleanup4
  %24 = getelementptr inbounds i8, ptr %_1, i64 48
; invoke core::ptr::drop_in_place<alloc::vec::Vec<alloc::boxed::Box<dyn core::ops::function::FnMut<()>+Output = core::result::Result<(),std::io::error::Error>+core::marker::Send+core::marker::Sync>>>
  invoke void @"_ZN4core3ptr251drop_in_place$LT$alloc..vec..Vec$LT$alloc..boxed..Box$LT$dyn$u20$core..ops..function..FnMut$LT$$LP$$RP$$GT$$u2b$Output$u20$$u3d$$u20$core..result..Result$LT$$LP$$RP$$C$std..io..error..Error$GT$$u2b$core..marker..Send$u2b$core..marker..Sync$GT$$GT$$GT$17hf1fed4a42487d409E"(ptr align 8 %24) #21
          to label %bb6 unwind label %terminate

cleanup4:                                         ; preds = %bb17
  %25 = landingpad { ptr, i32 }
          cleanup
  %26 = extractvalue { ptr, i32 } %25, 0
  %27 = extractvalue { ptr, i32 } %25, 1
  store ptr %26, ptr %0, align 8
  %28 = getelementptr inbounds i8, ptr %0, i64 8
  store i32 %27, ptr %28, align 8
  br label %bb7

bb16:                                             ; preds = %bb17
  %29 = getelementptr inbounds i8, ptr %_1, i64 48
; invoke core::ptr::drop_in_place<alloc::vec::Vec<alloc::boxed::Box<dyn core::ops::function::FnMut<()>+Output = core::result::Result<(),std::io::error::Error>+core::marker::Send+core::marker::Sync>>>
  invoke void @"_ZN4core3ptr251drop_in_place$LT$alloc..vec..Vec$LT$alloc..boxed..Box$LT$dyn$u20$core..ops..function..FnMut$LT$$LP$$RP$$GT$$u2b$Output$u20$$u3d$$u20$core..result..Result$LT$$LP$$RP$$C$std..io..error..Error$GT$$u2b$core..marker..Send$u2b$core..marker..Sync$GT$$GT$$GT$17hf1fed4a42487d409E"(ptr align 8 %29)
          to label %bb15 unwind label %cleanup5

bb6:                                              ; preds = %bb7, %cleanup5
  %30 = getelementptr inbounds i8, ptr %_1, i64 184
; invoke core::ptr::drop_in_place<core::option::Option<alloc::boxed::Box<[u32]>>>
  invoke void @"_ZN4core3ptr87drop_in_place$LT$core..option..Option$LT$alloc..boxed..Box$LT$$u5b$u32$u5d$$GT$$GT$$GT$17h6ff2c315edfe7896E"(ptr align 8 %30) #21
          to label %bb5 unwind label %terminate

cleanup5:                                         ; preds = %bb16
  %31 = landingpad { ptr, i32 }
          cleanup
  %32 = extractvalue { ptr, i32 } %31, 0
  %33 = extractvalue { ptr, i32 } %31, 1
  store ptr %32, ptr %0, align 8
  %34 = getelementptr inbounds i8, ptr %0, i64 8
  store i32 %33, ptr %34, align 8
  br label %bb6

bb15:                                             ; preds = %bb16
  %35 = getelementptr inbounds i8, ptr %_1, i64 184
; invoke core::ptr::drop_in_place<core::option::Option<alloc::boxed::Box<[u32]>>>
  invoke void @"_ZN4core3ptr87drop_in_place$LT$core..option..Option$LT$alloc..boxed..Box$LT$$u5b$u32$u5d$$GT$$GT$$GT$17h6ff2c315edfe7896E"(ptr align 8 %35)
          to label %bb14 unwind label %cleanup6

bb5:                                              ; preds = %bb6, %cleanup6
  %36 = getelementptr inbounds i8, ptr %_1, i64 96
; invoke core::ptr::drop_in_place<core::option::Option<std::sys::pal::unix::process::process_common::Stdio>>
  invoke void @"_ZN4core3ptr100drop_in_place$LT$core..option..Option$LT$std..sys..pal..unix..process..process_common..Stdio$GT$$GT$17h401f1c7b99b42939E"(ptr align 4 %36) #21
          to label %bb4 unwind label %terminate

cleanup6:                                         ; preds = %bb15
  %37 = landingpad { ptr, i32 }
          cleanup
  %38 = extractvalue { ptr, i32 } %37, 0
  %39 = extractvalue { ptr, i32 } %37, 1
  store ptr %38, ptr %0, align 8
  %40 = getelementptr inbounds i8, ptr %0, i64 8
  store i32 %39, ptr %40, align 8
  br label %bb5

bb14:                                             ; preds = %bb15
  %41 = getelementptr inbounds i8, ptr %_1, i64 96
; invoke core::ptr::drop_in_place<core::option::Option<std::sys::pal::unix::process::process_common::Stdio>>
  invoke void @"_ZN4core3ptr100drop_in_place$LT$core..option..Option$LT$std..sys..pal..unix..process..process_common..Stdio$GT$$GT$17h401f1c7b99b42939E"(ptr align 4 %41)
          to label %bb13 unwind label %cleanup7

bb4:                                              ; preds = %bb5, %cleanup7
  %42 = getelementptr inbounds i8, ptr %_1, i64 104
; invoke core::ptr::drop_in_place<core::option::Option<std::sys::pal::unix::process::process_common::Stdio>>
  invoke void @"_ZN4core3ptr100drop_in_place$LT$core..option..Option$LT$std..sys..pal..unix..process..process_common..Stdio$GT$$GT$17h401f1c7b99b42939E"(ptr align 4 %42) #21
          to label %bb3 unwind label %terminate

cleanup7:                                         ; preds = %bb14
  %43 = landingpad { ptr, i32 }
          cleanup
  %44 = extractvalue { ptr, i32 } %43, 0
  %45 = extractvalue { ptr, i32 } %43, 1
  store ptr %44, ptr %0, align 8
  %46 = getelementptr inbounds i8, ptr %0, i64 8
  store i32 %45, ptr %46, align 8
  br label %bb4

bb13:                                             ; preds = %bb14
  %47 = getelementptr inbounds i8, ptr %_1, i64 104
; invoke core::ptr::drop_in_place<core::option::Option<std::sys::pal::unix::process::process_common::Stdio>>
  invoke void @"_ZN4core3ptr100drop_in_place$LT$core..option..Option$LT$std..sys..pal..unix..process..process_common..Stdio$GT$$GT$17h401f1c7b99b42939E"(ptr align 4 %47)
          to label %bb12 unwind label %cleanup8

bb3:                                              ; preds = %bb4, %cleanup8
  %48 = getelementptr inbounds i8, ptr %_1, i64 112
; invoke core::ptr::drop_in_place<core::option::Option<std::sys::pal::unix::process::process_common::Stdio>>
  invoke void @"_ZN4core3ptr100drop_in_place$LT$core..option..Option$LT$std..sys..pal..unix..process..process_common..Stdio$GT$$GT$17h401f1c7b99b42939E"(ptr align 4 %48) #21
          to label %bb1 unwind label %terminate

cleanup8:                                         ; preds = %bb13
  %49 = landingpad { ptr, i32 }
          cleanup
  %50 = extractvalue { ptr, i32 } %49, 0
  %51 = extractvalue { ptr, i32 } %49, 1
  store ptr %50, ptr %0, align 8
  %52 = getelementptr inbounds i8, ptr %0, i64 8
  store i32 %51, ptr %52, align 8
  br label %bb3

bb12:                                             ; preds = %bb13
  %53 = getelementptr inbounds i8, ptr %_1, i64 112
; call core::ptr::drop_in_place<core::option::Option<std::sys::pal::unix::process::process_common::Stdio>>
  call void @"_ZN4core3ptr100drop_in_place$LT$core..option..Option$LT$std..sys..pal..unix..process..process_common..Stdio$GT$$GT$17h401f1c7b99b42939E"(ptr align 4 %53)
  ret void

terminate:                                        ; preds = %bb3, %bb4, %bb5, %bb6, %bb7, %bb8, %bb9, %bb10, %bb11
  %54 = landingpad { ptr, i32 }
          filter [0 x ptr] zeroinitializer
  %55 = extractvalue { ptr, i32 } %54, 0
  %56 = extractvalue { ptr, i32 } %54, 1
; call core::panicking::panic_in_cleanup
  call void @_ZN4core9panicking16panic_in_cleanup17h43442956f23e9cbeE() #22
  unreachable

bb1:                                              ; preds = %bb3
  %57 = load ptr, ptr %0, align 8
  %58 = getelementptr inbounds i8, ptr %0, i64 8
  %59 = load i32, ptr %58, align 8
  %60 = insertvalue { ptr, i32 } poison, ptr %57, 0
  %61 = insertvalue { ptr, i32 } %60, i32 %59, 1
  resume { ptr, i32 } %61
}

; core::ptr::drop_in_place<core::option::Option<alloc::ffi::c_str::CString>>
; Function Attrs: nonlazybind uwtable
define internal void @"_ZN4core3ptr75drop_in_place$LT$core..option..Option$LT$alloc..ffi..c_str..CString$GT$$GT$17h81a0692a54e7cc1fE"(ptr align 8 %_1) unnamed_addr #1 {
start:
  %0 = load ptr, ptr %_1, align 8
  %1 = ptrtoint ptr %0 to i64
  %2 = icmp eq i64 %1, 0
  %_2 = select i1 %2, i64 0, i64 1
  %3 = icmp eq i64 %_2, 0
  br i1 %3, label %bb1, label %bb2

bb1:                                              ; preds = %bb2, %start
  ret void

bb2:                                              ; preds = %start
; call core::ptr::drop_in_place<alloc::ffi::c_str::CString>
  call void @"_ZN4core3ptr47drop_in_place$LT$alloc..ffi..c_str..CString$GT$17h3bfcf94198b0fe22E"(ptr align 8 %_1)
  br label %bb1
}

; core::ptr::drop_in_place<core::option::Option<std::ffi::os_str::OsString>>
; Function Attrs: nonlazybind uwtable
define internal void @"_ZN4core3ptr75drop_in_place$LT$core..option..Option$LT$std..ffi..os_str..OsString$GT$$GT$17hafa90f7afe8e4c5fE"(ptr align 8 %_1) unnamed_addr #1 {
start:
  %0 = load i64, ptr %_1, align 8
  %1 = icmp eq i64 %0, -9223372036854775808
  %_2 = select i1 %1, i64 0, i64 1
  %2 = icmp eq i64 %_2, 0
  br i1 %2, label %bb1, label %bb2

bb1:                                              ; preds = %bb2, %start
  ret void

bb2:                                              ; preds = %start
; call core::ptr::drop_in_place<std::ffi::os_str::OsString>
  call void @"_ZN4core3ptr47drop_in_place$LT$std..ffi..os_str..OsString$GT$17h4284c2cd9ea31f13E"(ptr align 8 %_1)
  br label %bb1
}

; core::ptr::drop_in_place<alloc::raw_vec::RawVec<alloc::ffi::c_str::CString>>
; Function Attrs: nonlazybind uwtable
define internal void @"_ZN4core3ptr77drop_in_place$LT$alloc..raw_vec..RawVec$LT$alloc..ffi..c_str..CString$GT$$GT$17ha3c7e7051eb399b6E"(ptr align 8 %_1) unnamed_addr #1 {
start:
; call <alloc::raw_vec::RawVec<T,A> as core::ops::drop::Drop>::drop
  call void @"_ZN77_$LT$alloc..raw_vec..RawVec$LT$T$C$A$GT$$u20$as$u20$core..ops..drop..Drop$GT$4drop17h6ba6499a888ff9d8E"(ptr align 8 %_1)
  ret void
}

; core::ptr::drop_in_place<std::rt::lang_start<()>::{{closure}}>
; Function Attrs: inlinehint nonlazybind uwtable
define internal void @"_ZN4core3ptr85drop_in_place$LT$std..rt..lang_start$LT$$LP$$RP$$GT$..$u7b$$u7b$closure$u7d$$u7d$$GT$17h6c682933a5775eddE"(ptr align 8 %_1) unnamed_addr #0 {
start:
  ret void
}

; core::ptr::drop_in_place<core::option::Option<alloc::boxed::Box<[u32]>>>
; Function Attrs: nonlazybind uwtable
define internal void @"_ZN4core3ptr87drop_in_place$LT$core..option..Option$LT$alloc..boxed..Box$LT$$u5b$u32$u5d$$GT$$GT$$GT$17h6ff2c315edfe7896E"(ptr align 8 %_1) unnamed_addr #1 {
start:
  %0 = load ptr, ptr %_1, align 8
  %1 = ptrtoint ptr %0 to i64
  %2 = icmp eq i64 %1, 0
  %_2 = select i1 %2, i64 0, i64 1
  %3 = icmp eq i64 %_2, 0
  br i1 %3, label %bb1, label %bb2

bb1:                                              ; preds = %bb2, %start
  ret void

bb2:                                              ; preds = %start
; call core::ptr::drop_in_place<alloc::boxed::Box<[u32]>>
  call void @"_ZN4core3ptr59drop_in_place$LT$alloc..boxed..Box$LT$$u5b$u32$u5d$$GT$$GT$17hbaf9ecb4a1a6f338E"(ptr align 8 %_1)
  br label %bb1
}

; core::ptr::non_null::NonNull<T>::new_unchecked::precondition_check
; Function Attrs: inlinehint nounwind nonlazybind uwtable
define internal void @"_ZN4core3ptr8non_null16NonNull$LT$T$GT$13new_unchecked18precondition_check17h71cf861eb83e7cc3E"(ptr %ptr) unnamed_addr #3 {
start:
  %_4 = ptrtoint ptr %ptr to i64
  %0 = icmp eq i64 %_4, 0
  br i1 %0, label %bb1, label %bb2

bb1:                                              ; preds = %start
; call core::panicking::panic_nounwind
  call void @_ZN4core9panicking14panic_nounwind17hfb4a192166a1619dE(ptr align 1 @alloc_20b3d155afd5c58c42e598b7e6d186ef, i64 93) #23
  unreachable

bb2:                                              ; preds = %start
  ret void
}

; core::ptr::drop_in_place<core::result::Result<alloc::string::String,std::env::VarError>>
; Function Attrs: nonlazybind uwtable
define internal void @"_ZN4core3ptr91drop_in_place$LT$core..result..Result$LT$alloc..string..String$C$std..env..VarError$GT$$GT$17h3bf1ed9949d4c356E"(ptr align 8 %_1) unnamed_addr #1 {
start:
  %_2 = load i64, ptr %_1, align 8
  %0 = icmp eq i64 %_2, 0
  br i1 %0, label %bb2, label %bb3

bb2:                                              ; preds = %start
  %1 = getelementptr inbounds i8, ptr %_1, i64 8
; call core::ptr::drop_in_place<alloc::string::String>
  call void @"_ZN4core3ptr42drop_in_place$LT$alloc..string..String$GT$17habd0b75e9867b120E"(ptr align 8 %1)
  br label %bb1

bb3:                                              ; preds = %start
  %2 = getelementptr inbounds i8, ptr %_1, i64 8
; call core::ptr::drop_in_place<std::env::VarError>
  call void @"_ZN4core3ptr39drop_in_place$LT$std..env..VarError$GT$17h6c49ec6cfdd4b951E"(ptr align 8 %2)
  br label %bb1

bb1:                                              ; preds = %bb3, %bb2
  ret void
}

; core::ptr::drop_in_place<core::result::Result<std::process::Output,std::io::error::Error>>
; Function Attrs: nonlazybind uwtable
define internal void @"_ZN4core3ptr93drop_in_place$LT$core..result..Result$LT$std..process..Output$C$std..io..error..Error$GT$$GT$17h66e71cc319753a2bE"(ptr align 8 %_1) unnamed_addr #1 {
start:
  %0 = load i64, ptr %_1, align 8
  %1 = icmp eq i64 %0, -9223372036854775808
  %_2 = select i1 %1, i64 1, i64 0
  %2 = icmp eq i64 %_2, 0
  br i1 %2, label %bb2, label %bb3

bb2:                                              ; preds = %start
; call core::ptr::drop_in_place<std::process::Output>
  call void @"_ZN4core3ptr41drop_in_place$LT$std..process..Output$GT$17h69427427568893a8E"(ptr align 8 %_1)
  br label %bb1

bb3:                                              ; preds = %start
  %3 = getelementptr inbounds i8, ptr %_1, i64 8
; call core::ptr::drop_in_place<std::io::error::Error>
  call void @"_ZN4core3ptr42drop_in_place$LT$std..io..error..Error$GT$17hd7a780bd154a7fa5E"(ptr align 8 %3)
  br label %bb1

bb1:                                              ; preds = %bb3, %bb2
  ret void
}

; core::ptr::drop_in_place<dyn core::error::Error+core::marker::Send+core::marker::Sync>
; Function Attrs: nonlazybind uwtable
define internal void @"_ZN4core3ptr93drop_in_place$LT$dyn$u20$core..error..Error$u2b$core..marker..Send$u2b$core..marker..Sync$GT$17h50fead6882f1c1a0E"(ptr align 1 %_1.0, ptr align 8 %_1.1) unnamed_addr #1 {
start:
  %0 = getelementptr inbounds i8, ptr %_1.1, i64 0
  %1 = load ptr, ptr %0, align 8, !invariant.load !5
  %2 = icmp ne ptr %1, null
  br i1 %2, label %is_not_null, label %bb1

is_not_null:                                      ; preds = %start
  call void %1(ptr align 1 %_1.0)
  br label %bb1

bb1:                                              ; preds = %is_not_null, %start
  ret void
}

; core::ptr::const_ptr::<impl *const T>::sub_ptr
; Function Attrs: inlinehint nonlazybind uwtable
define internal i64 @"_ZN4core3ptr9const_ptr33_$LT$impl$u20$$BP$const$u20$T$GT$7sub_ptr17h40f740dbac83e248E"(ptr %self, ptr %origin) unnamed_addr #0 {
start:
  %0 = alloca [8 x i8], align 8
  br label %bb3

bb3:                                              ; preds = %start
  br label %bb4

bb1:                                              ; No predecessors!
  unreachable

bb2:                                              ; No predecessors!
  unreachable

bb4:                                              ; preds = %bb3
  br label %bb5

bb5:                                              ; preds = %bb4
  %1 = ptrtoint ptr %self to i64
  %2 = ptrtoint ptr %origin to i64
  %3 = sub nuw i64 %1, %2
  %4 = udiv exact i64 %3, 16
  store i64 %4, ptr %0, align 8
  %_0 = load i64, ptr %0, align 8
  ret i64 %_0

bb6:                                              ; No predecessors!
; call core::panicking::panic
  call void @_ZN4core9panicking5panic17hdc606204151d5569E(ptr align 1 @alloc_ec595fc0e82ef92fc59bd74f68296eae, i64 73, ptr align 8 @alloc_cedbb71194daee93c1287f403fa88727) #20
  unreachable
}

; core::ptr::const_ptr::<impl *const T>::sub_ptr
; Function Attrs: inlinehint nonlazybind uwtable
define internal i64 @"_ZN4core3ptr9const_ptr33_$LT$impl$u20$$BP$const$u20$T$GT$7sub_ptr17h49c258bf1afa93efE"(ptr %self, ptr %origin) unnamed_addr #0 {
start:
  %0 = alloca [8 x i8], align 8
  br label %bb3

bb3:                                              ; preds = %start
  br label %bb4

bb1:                                              ; No predecessors!
  unreachable

bb2:                                              ; No predecessors!
  unreachable

bb4:                                              ; preds = %bb3
  br label %bb5

bb5:                                              ; preds = %bb4
  %1 = ptrtoint ptr %self to i64
  %2 = ptrtoint ptr %origin to i64
  %3 = sub nuw i64 %1, %2
  %4 = udiv exact i64 %3, 1
  store i64 %4, ptr %0, align 8
  %_0 = load i64, ptr %0, align 8
  ret i64 %_0

bb6:                                              ; No predecessors!
; call core::panicking::panic
  call void @_ZN4core9panicking5panic17hdc606204151d5569E(ptr align 1 @alloc_ec595fc0e82ef92fc59bd74f68296eae, i64 73, ptr align 8 @alloc_cedbb71194daee93c1287f403fa88727) #20
  unreachable
}

; core::str::validations::next_code_point
; Function Attrs: inlinehint nonlazybind uwtable
define internal { i32, i32 } @_ZN4core3str11validations15next_code_point17h65a435877983d1d6E(ptr align 8 %bytes) unnamed_addr #0 {
start:
  %self3 = alloca [8 x i8], align 8
  %self2 = alloca [8 x i8], align 8
  %ch = alloca [4 x i8], align 4
  %self1 = alloca [8 x i8], align 8
  %self = alloca [8 x i8], align 8
  %_3 = alloca [8 x i8], align 8
  %_0 = alloca [8 x i8], align 4
; call <core::slice::iter::Iter<T> as core::iter::traits::iterator::Iterator>::next
  %0 = call align 1 ptr @"_ZN91_$LT$core..slice..iter..Iter$LT$T$GT$$u20$as$u20$core..iter..traits..iterator..Iterator$GT$4next17h90edc9be5d59639eE"(ptr align 8 %bytes)
  store ptr %0, ptr %self, align 8
  %1 = load ptr, ptr %self, align 8
  %2 = ptrtoint ptr %1 to i64
  %3 = icmp eq i64 %2, 0
  %_27 = select i1 %3, i64 0, i64 1
  %4 = icmp eq i64 %_27, 0
  br i1 %4, label %bb13, label %bb14

bb13:                                             ; preds = %start
  %5 = load i32, ptr @2, align 4
  %6 = load i32, ptr getelementptr inbounds (i8, ptr @2, i64 4), align 4
  store i32 %5, ptr %_0, align 4
  %7 = getelementptr inbounds i8, ptr %_0, i64 4
  store i32 %6, ptr %7, align 4
  br label %bb12

bb14:                                             ; preds = %start
  %v = load ptr, ptr %self, align 8
  store ptr %v, ptr %_3, align 8
  %val = load ptr, ptr %_3, align 8
  %x = load i8, ptr %val, align 1
  %_6 = icmp ult i8 %x, -128
  br i1 %_6, label %bb3, label %bb4

bb12:                                             ; preds = %bb3, %bb11, %bb13
  %8 = load i32, ptr %_0, align 4
  %9 = getelementptr inbounds i8, ptr %_0, i64 4
  %10 = load i32, ptr %9, align 4
  %11 = insertvalue { i32, i32 } poison, i32 %8, 0
  %12 = insertvalue { i32, i32 } %11, i32 %10, 1
  ret { i32, i32 } %12

bb4:                                              ; preds = %bb14
  %_29 = and i8 %x, 31
  %init = zext i8 %_29 to i32
; call <core::slice::iter::Iter<T> as core::iter::traits::iterator::Iterator>::next
  %13 = call align 1 ptr @"_ZN91_$LT$core..slice..iter..Iter$LT$T$GT$$u20$as$u20$core..iter..traits..iterator..Iterator$GT$4next17h90edc9be5d59639eE"(ptr align 8 %bytes)
  store ptr %13, ptr %self1, align 8
  %14 = load ptr, ptr %self1, align 8
  %15 = ptrtoint ptr %14 to i64
  %16 = icmp eq i64 %15, 0
  %_30 = select i1 %16, i64 0, i64 1
  %17 = icmp eq i64 %_30, 0
  br i1 %17, label %bb15, label %bb16

bb3:                                              ; preds = %bb14
  %_7 = zext i8 %x to i32
  %18 = getelementptr inbounds i8, ptr %_0, i64 4
  store i32 %_7, ptr %18, align 4
  store i32 1, ptr %_0, align 4
  br label %bb12

bb15:                                             ; preds = %bb4
; call core::hint::unreachable_unchecked::precondition_check
  call void @_ZN4core4hint21unreachable_unchecked18precondition_check17hb99a1892f1a8d538E() #19
  br label %bb2

bb16:                                             ; preds = %bb4
  %val4 = load ptr, ptr %self1, align 8
  %y = load i8, ptr %val4, align 1
  %_33 = shl i32 %init, 6
  %_35 = and i8 %y, 63
  %ch5 = zext i8 %_35 to i32
  %19 = or i32 %_33, %ch5
  store i32 %19, ptr %ch, align 4
  %_13 = icmp uge i8 %x, -32
  br i1 %_13, label %bb6, label %bb11

bb2:                                              ; preds = %bb19, %bb17, %bb15
  unreachable

bb11:                                             ; preds = %bb10, %bb16
  %_26 = load i32, ptr %ch, align 4
  %20 = getelementptr inbounds i8, ptr %_0, i64 4
  store i32 %_26, ptr %20, align 4
  store i32 1, ptr %_0, align 4
  br label %bb12

bb6:                                              ; preds = %bb16
; call <core::slice::iter::Iter<T> as core::iter::traits::iterator::Iterator>::next
  %21 = call align 1 ptr @"_ZN91_$LT$core..slice..iter..Iter$LT$T$GT$$u20$as$u20$core..iter..traits..iterator..Iterator$GT$4next17h90edc9be5d59639eE"(ptr align 8 %bytes)
  store ptr %21, ptr %self2, align 8
  %22 = load ptr, ptr %self2, align 8
  %23 = ptrtoint ptr %22 to i64
  %24 = icmp eq i64 %23, 0
  %_36 = select i1 %24, i64 0, i64 1
  %25 = icmp eq i64 %_36, 0
  br i1 %25, label %bb17, label %bb18

bb17:                                             ; preds = %bb6
; call core::hint::unreachable_unchecked::precondition_check
  call void @_ZN4core4hint21unreachable_unchecked18precondition_check17hb99a1892f1a8d538E() #19
  br label %bb2

bb18:                                             ; preds = %bb6
  %val6 = load ptr, ptr %self2, align 8
  %z = load i8, ptr %val6, align 1
  %_39 = shl i32 %ch5, 6
  %_41 = and i8 %z, 63
  %_40 = zext i8 %_41 to i32
  %y_z = or i32 %_39, %_40
  %_18 = shl i32 %init, 12
  %26 = or i32 %_18, %y_z
  store i32 %26, ptr %ch, align 4
  %_19 = icmp uge i8 %x, -16
  br i1 %_19, label %bb8, label %bb10

bb10:                                             ; preds = %bb20, %bb18
  br label %bb11

bb8:                                              ; preds = %bb18
; call <core::slice::iter::Iter<T> as core::iter::traits::iterator::Iterator>::next
  %27 = call align 1 ptr @"_ZN91_$LT$core..slice..iter..Iter$LT$T$GT$$u20$as$u20$core..iter..traits..iterator..Iterator$GT$4next17h90edc9be5d59639eE"(ptr align 8 %bytes)
  store ptr %27, ptr %self3, align 8
  %28 = load ptr, ptr %self3, align 8
  %29 = ptrtoint ptr %28 to i64
  %30 = icmp eq i64 %29, 0
  %_42 = select i1 %30, i64 0, i64 1
  %31 = icmp eq i64 %_42, 0
  br i1 %31, label %bb19, label %bb20

bb19:                                             ; preds = %bb8
; call core::hint::unreachable_unchecked::precondition_check
  call void @_ZN4core4hint21unreachable_unchecked18precondition_check17hb99a1892f1a8d538E() #19
  br label %bb2

bb20:                                             ; preds = %bb8
  %val7 = load ptr, ptr %self3, align 8
  %w = load i8, ptr %val7, align 1
  %_24 = and i32 %init, 7
  %_23 = shl i32 %_24, 18
  %_45 = shl i32 %y_z, 6
  %_47 = and i8 %w, 63
  %_46 = zext i8 %_47 to i32
  %_25 = or i32 %_45, %_46
  %32 = or i32 %_23, %_25
  store i32 %32, ptr %ch, align 4
  br label %bb10
}

; core::str::validations::next_code_point_reverse
; Function Attrs: inlinehint nonlazybind uwtable
define internal { i32, i32 } @_ZN4core3str11validations23next_code_point_reverse17hef21a294430b14a3E(ptr align 8 %bytes) unnamed_addr #0 {
start:
  %self3 = alloca [8 x i8], align 8
  %self2 = alloca [8 x i8], align 8
  %self1 = alloca [8 x i8], align 8
  %ch = alloca [4 x i8], align 4
  %self = alloca [8 x i8], align 8
  %_2 = alloca [8 x i8], align 8
  %_0 = alloca [8 x i8], align 4
; call <core::slice::iter::Iter<T> as core::iter::traits::double_ended::DoubleEndedIterator>::next_back
  %0 = call align 1 ptr @"_ZN106_$LT$core..slice..iter..Iter$LT$T$GT$$u20$as$u20$core..iter..traits..double_ended..DoubleEndedIterator$GT$9next_back17h84ec5647ba69f5feE"(ptr align 8 %bytes)
  store ptr %0, ptr %self, align 8
  %1 = load ptr, ptr %self, align 8
  %2 = ptrtoint ptr %1 to i64
  %3 = icmp eq i64 %2, 0
  %_30 = select i1 %3, i64 0, i64 1
  %4 = icmp eq i64 %_30, 0
  br i1 %4, label %bb16, label %bb17

bb16:                                             ; preds = %start
  %5 = load i32, ptr @2, align 4
  %6 = load i32, ptr getelementptr inbounds (i8, ptr @2, i64 4), align 4
  store i32 %5, ptr %_0, align 4
  %7 = getelementptr inbounds i8, ptr %_0, i64 4
  store i32 %6, ptr %7, align 4
  br label %bb14

bb17:                                             ; preds = %start
  %v = load ptr, ptr %self, align 8
  store ptr %v, ptr %_2, align 8
  %val = load ptr, ptr %_2, align 8
  %w = load i8, ptr %val, align 1
  %_5 = icmp ult i8 %w, -128
  br i1 %_5, label %bb3, label %bb4

bb14:                                             ; preds = %bb3, %bb16
  br label %bb15

bb4:                                              ; preds = %bb17
; call <core::slice::iter::Iter<T> as core::iter::traits::double_ended::DoubleEndedIterator>::next_back
  %8 = call align 1 ptr @"_ZN106_$LT$core..slice..iter..Iter$LT$T$GT$$u20$as$u20$core..iter..traits..double_ended..DoubleEndedIterator$GT$9next_back17h84ec5647ba69f5feE"(ptr align 8 %bytes)
  store ptr %8, ptr %self1, align 8
  %9 = load ptr, ptr %self1, align 8
  %10 = ptrtoint ptr %9 to i64
  %11 = icmp eq i64 %10, 0
  %_32 = select i1 %11, i64 0, i64 1
  %12 = icmp eq i64 %_32, 0
  br i1 %12, label %bb18, label %bb19

bb3:                                              ; preds = %bb17
  %_7 = zext i8 %w to i32
  %13 = getelementptr inbounds i8, ptr %_0, i64 4
  store i32 %_7, ptr %13, align 4
  store i32 1, ptr %_0, align 4
  br label %bb14

bb18:                                             ; preds = %bb4
; call core::hint::unreachable_unchecked::precondition_check
  call void @_ZN4core4hint21unreachable_unchecked18precondition_check17hb99a1892f1a8d538E() #19
  br label %bb2

bb19:                                             ; preds = %bb4
  %val4 = load ptr, ptr %self1, align 8
  %z = load i8, ptr %val4, align 1
  %_35 = and i8 %z, 31
  %_12 = zext i8 %_35 to i32
  store i32 %_12, ptr %ch, align 4
  %_13 = icmp slt i8 %z, -64
  br i1 %_13, label %bb6, label %bb12

bb2:                                              ; preds = %bb22, %bb20, %bb18
  unreachable

bb12:                                             ; preds = %bb19
  br label %bb13

bb6:                                              ; preds = %bb19
; call <core::slice::iter::Iter<T> as core::iter::traits::double_ended::DoubleEndedIterator>::next_back
  %14 = call align 1 ptr @"_ZN106_$LT$core..slice..iter..Iter$LT$T$GT$$u20$as$u20$core..iter..traits..double_ended..DoubleEndedIterator$GT$9next_back17h84ec5647ba69f5feE"(ptr align 8 %bytes)
  store ptr %14, ptr %self2, align 8
  %15 = load ptr, ptr %self2, align 8
  %16 = ptrtoint ptr %15 to i64
  %17 = icmp eq i64 %16, 0
  %_37 = select i1 %17, i64 0, i64 1
  %18 = icmp eq i64 %_37, 0
  br i1 %18, label %bb20, label %bb21

bb13:                                             ; preds = %bb11, %bb12
  %ch9 = load i32, ptr %ch, align 4
  %_52 = shl i32 %ch9, 6
  %_54 = and i8 %w, 63
  %_53 = zext i8 %_54 to i32
  %_27 = or i32 %_52, %_53
  store i32 %_27, ptr %ch, align 4
  %_29 = load i32, ptr %ch, align 4
  %19 = getelementptr inbounds i8, ptr %_0, i64 4
  store i32 %_29, ptr %19, align 4
  store i32 1, ptr %_0, align 4
  br label %bb15

bb20:                                             ; preds = %bb6
; call core::hint::unreachable_unchecked::precondition_check
  call void @_ZN4core4hint21unreachable_unchecked18precondition_check17hb99a1892f1a8d538E() #19
  br label %bb2

bb21:                                             ; preds = %bb6
  %val5 = load ptr, ptr %self2, align 8
  %y = load i8, ptr %val5, align 1
  %_40 = and i8 %y, 15
  %_17 = zext i8 %_40 to i32
  store i32 %_17, ptr %ch, align 4
  %_18 = icmp slt i8 %y, -64
  br i1 %_18, label %bb8, label %bb10

bb10:                                             ; preds = %bb21
  br label %bb11

bb8:                                              ; preds = %bb21
; call <core::slice::iter::Iter<T> as core::iter::traits::double_ended::DoubleEndedIterator>::next_back
  %20 = call align 1 ptr @"_ZN106_$LT$core..slice..iter..Iter$LT$T$GT$$u20$as$u20$core..iter..traits..double_ended..DoubleEndedIterator$GT$9next_back17h84ec5647ba69f5feE"(ptr align 8 %bytes)
  store ptr %20, ptr %self3, align 8
  %21 = load ptr, ptr %self3, align 8
  %22 = ptrtoint ptr %21 to i64
  %23 = icmp eq i64 %22, 0
  %_42 = select i1 %23, i64 0, i64 1
  %24 = icmp eq i64 %_42, 0
  br i1 %24, label %bb22, label %bb23

bb11:                                             ; preds = %bb23, %bb10
  %ch8 = load i32, ptr %ch, align 4
  %_49 = shl i32 %ch8, 6
  %_51 = and i8 %z, 63
  %_50 = zext i8 %_51 to i32
  %_25 = or i32 %_49, %_50
  store i32 %_25, ptr %ch, align 4
  br label %bb13

bb22:                                             ; preds = %bb8
; call core::hint::unreachable_unchecked::precondition_check
  call void @_ZN4core4hint21unreachable_unchecked18precondition_check17hb99a1892f1a8d538E() #19
  br label %bb2

bb23:                                             ; preds = %bb8
  %val6 = load ptr, ptr %self3, align 8
  %x = load i8, ptr %val6, align 1
  %_45 = and i8 %x, 7
  %_22 = zext i8 %_45 to i32
  store i32 %_22, ptr %ch, align 4
  %ch7 = load i32, ptr %ch, align 4
  %_46 = shl i32 %ch7, 6
  %_48 = and i8 %y, 63
  %_47 = zext i8 %_48 to i32
  %_23 = or i32 %_46, %_47
  store i32 %_23, ptr %ch, align 4
  br label %bb11

bb15:                                             ; preds = %bb14, %bb13
  %25 = load i32, ptr %_0, align 4
  %26 = getelementptr inbounds i8, ptr %_0, i64 4
  %27 = load i32, ptr %26, align 4
  %28 = insertvalue { i32, i32 } poison, i32 %25, 0
  %29 = insertvalue { i32, i32 } %28, i32 %27, 1
  ret { i32, i32 } %29
}

; core::str::<impl str>::starts_with
; Function Attrs: nonlazybind uwtable
define internal zeroext i1 @"_ZN4core3str21_$LT$impl$u20$str$GT$11starts_with17h6812f054d5468e33E"(ptr align 1 %self.0, i64 %self.1, ptr align 1 %pat.0, i64 %pat.1) unnamed_addr #1 {
start:
; call <&str as core::str::pattern::Pattern>::is_prefix_of
  %_0 = call zeroext i1 @"_ZN55_$LT$$RF$str$u20$as$u20$core..str..pattern..Pattern$GT$12is_prefix_of17h407b3862bf8fe96fE"(ptr align 1 %pat.0, i64 %pat.1, ptr align 1 %self.0, i64 %self.1)
  ret i1 %_0
}

; core::str::<impl str>::trim_matches
; Function Attrs: nonlazybind uwtable
define internal { ptr, i64 } @"_ZN4core3str21_$LT$impl$u20$str$GT$12trim_matches17h740831213f56d311E"(ptr align 1 %self.0, i64 %self.1) unnamed_addr #1 personality ptr @rust_eh_personality {
start:
  %0 = alloca [16 x i8], align 8
  %_11 = alloca [24 x i8], align 8
  %_6 = alloca [24 x i8], align 8
  %matcher = alloca [40 x i8], align 8
  %j = alloca [8 x i8], align 8
  %i = alloca [8 x i8], align 8
  store i64 0, ptr %i, align 8
  store i64 0, ptr %j, align 8
; call <F as core::str::pattern::Pattern>::into_searcher
  call void @"_ZN49_$LT$F$u20$as$u20$core..str..pattern..Pattern$GT$13into_searcher17ha0ee5678c5334c96E"(ptr sret([40 x i8]) align 8 %matcher, ptr align 1 %self.0, i64 %self.1)
; invoke <core::str::pattern::CharPredicateSearcher<F> as core::str::pattern::Searcher>::next_reject
  invoke void @"_ZN99_$LT$core..str..pattern..CharPredicateSearcher$LT$F$GT$$u20$as$u20$core..str..pattern..Searcher$GT$11next_reject17hde370ccb543da844E"(ptr sret([24 x i8]) align 8 %_6, ptr align 8 %matcher)
          to label %bb2 unwind label %cleanup

bb9:                                              ; preds = %cleanup
  %1 = load ptr, ptr %0, align 8
  %2 = getelementptr inbounds i8, ptr %0, i64 8
  %3 = load i32, ptr %2, align 8
  %4 = insertvalue { ptr, i32 } poison, ptr %1, 0
  %5 = insertvalue { ptr, i32 } %4, i32 %3, 1
  resume { ptr, i32 } %5

cleanup:                                          ; preds = %bb4, %start
  %6 = landingpad { ptr, i32 }
          cleanup
  %7 = extractvalue { ptr, i32 } %6, 0
  %8 = extractvalue { ptr, i32 } %6, 1
  store ptr %7, ptr %0, align 8
  %9 = getelementptr inbounds i8, ptr %0, i64 8
  store i32 %8, ptr %9, align 8
  br label %bb9

bb2:                                              ; preds = %start
  %_8 = load i64, ptr %_6, align 8
  %10 = icmp eq i64 %_8, 1
  br i1 %10, label %bb3, label %bb4

bb3:                                              ; preds = %bb2
  %11 = getelementptr inbounds i8, ptr %_6, i64 8
  %a = load i64, ptr %11, align 8
  %12 = getelementptr inbounds i8, ptr %_6, i64 8
  %13 = getelementptr inbounds i8, ptr %12, i64 8
  %b = load i64, ptr %13, align 8
  store i64 %a, ptr %i, align 8
  store i64 %b, ptr %j, align 8
  br label %bb4

bb4:                                              ; preds = %bb3, %bb2
; invoke <core::str::pattern::CharPredicateSearcher<F> as core::str::pattern::ReverseSearcher>::next_reject_back
  invoke void @"_ZN106_$LT$core..str..pattern..CharPredicateSearcher$LT$F$GT$$u20$as$u20$core..str..pattern..ReverseSearcher$GT$16next_reject_back17h0cb40bddc7b84ab6E"(ptr sret([24 x i8]) align 8 %_11, ptr align 8 %matcher)
          to label %bb5 unwind label %cleanup

bb5:                                              ; preds = %bb4
  %_13 = load i64, ptr %_11, align 8
  %14 = icmp eq i64 %_13, 1
  br i1 %14, label %bb6, label %bb7

bb6:                                              ; preds = %bb5
  %15 = getelementptr inbounds i8, ptr %_11, i64 8
  %16 = getelementptr inbounds i8, ptr %15, i64 8
  %b1 = load i64, ptr %16, align 8
  store i64 %b1, ptr %j, align 8
  br label %bb7

bb7:                                              ; preds = %bb6, %bb5
  %i2 = load i64, ptr %i, align 8
  %i3 = load i64, ptr %j, align 8
  br label %bb13

bb13:                                             ; preds = %bb7
  %new_len = sub nuw i64 %i3, %i2
  %data = getelementptr inbounds i8, ptr %self.0, i64 %i2
  %17 = insertvalue { ptr, i64 } poison, ptr %data, 0
  %18 = insertvalue { ptr, i64 } %17, i64 %new_len, 1
  ret { ptr, i64 } %18

bb11:                                             ; No predecessors!
  unreachable

bb12:                                             ; No predecessors!
  unreachable

bb14:                                             ; No predecessors!
  unreachable
}

; core::str::<impl str>::trim
; Function Attrs: inlinehint nonlazybind uwtable
define internal { ptr, i64 } @"_ZN4core3str21_$LT$impl$u20$str$GT$4trim17hde3f5956a7d80715E"(ptr align 1 %self.0, i64 %self.1) unnamed_addr #0 {
start:
; call core::str::<impl str>::trim_matches
  %0 = call { ptr, i64 } @"_ZN4core3str21_$LT$impl$u20$str$GT$12trim_matches17h740831213f56d311E"(ptr align 1 %self.0, i64 %self.1)
  %_0.0 = extractvalue { ptr, i64 } %0, 0
  %_0.1 = extractvalue { ptr, i64 } %0, 1
  %1 = insertvalue { ptr, i64 } poison, ptr %_0.0, 0
  %2 = insertvalue { ptr, i64 } %1, i64 %_0.1, 1
  ret { ptr, i64 } %2
}

; core::str::<impl str>::trim::{{closure}}
; Function Attrs: inlinehint nonlazybind uwtable
define internal zeroext i1 @"_ZN4core3str21_$LT$impl$u20$str$GT$4trim28_$u7b$$u7b$closure$u7d$$u7d$17h8a19a99dc502019bE"(ptr align 1 %_1, i32 %c) unnamed_addr #0 {
start:
  %_0 = alloca [1 x i8], align 1
  %0 = icmp eq i32 %c, 32
  br i1 %0, label %bb5, label %bb3

bb5:                                              ; preds = %bb4, %start
  store i8 1, ptr %_0, align 1
  br label %bb1

bb3:                                              ; preds = %start
  %_3 = icmp ule i32 9, %c
  br i1 %_3, label %bb4, label %bb2

bb2:                                              ; preds = %bb4, %bb3
  %_5 = icmp ugt i32 %c, 127
  br i1 %_5, label %bb6, label %bb7

bb4:                                              ; preds = %bb3
  %_4 = icmp ule i32 %c, 13
  br i1 %_4, label %bb5, label %bb2

bb7:                                              ; preds = %bb2
  store i8 0, ptr %_0, align 1
  br label %bb8

bb6:                                              ; preds = %bb2
; call core::unicode::unicode_data::white_space::lookup
  %1 = call zeroext i1 @_ZN4core7unicode12unicode_data11white_space6lookup17hacb972a13d58417bE(i32 %c)
  %2 = zext i1 %1 to i8
  store i8 %2, ptr %_0, align 1
  br label %bb8

bb8:                                              ; preds = %bb6, %bb7
  br label %bb1

bb1:                                              ; preds = %bb5, %bb8
  %3 = load i8, ptr %_0, align 1
  %4 = trunc i8 %3 to i1
  ret i1 %4
}

; core::str::<impl str>::parse
; Function Attrs: inlinehint nonlazybind uwtable
define internal i64 @"_ZN4core3str21_$LT$impl$u20$str$GT$5parse17h051ab6007409c41fE"(ptr align 1 %self.0, i64 %self.1) unnamed_addr #0 {
start:
  %0 = alloca [8 x i8], align 8
  %_0 = alloca [8 x i8], align 4
; call core::num::<impl core::str::traits::FromStr for i32>::from_str
  %1 = call i64 @"_ZN4core3num60_$LT$impl$u20$core..str..traits..FromStr$u20$for$u20$i32$GT$8from_str17he2335fc4c2f623afE"(ptr align 1 %self.0, i64 %self.1)
  store i64 %1, ptr %0, align 8
  call void @llvm.memcpy.p0.p0.i64(ptr align 4 %_0, ptr align 8 %0, i64 8, i1 false)
  %2 = load i64, ptr %_0, align 4
  ret i64 %2
}

; core::str::<impl str>::parse
; Function Attrs: inlinehint nonlazybind uwtable
define internal i64 @"_ZN4core3str21_$LT$impl$u20$str$GT$5parse17h4ba369b0471ffbd1E"(ptr align 1 %self.0, i64 %self.1) unnamed_addr #0 {
start:
  %0 = alloca [8 x i8], align 8
  %_0 = alloca [8 x i8], align 4
; call core::num::<impl core::str::traits::FromStr for u32>::from_str
  %1 = call i64 @"_ZN4core3num60_$LT$impl$u20$core..str..traits..FromStr$u20$for$u20$u32$GT$8from_str17he9b8fdcb881da1e8E"(ptr align 1 %self.0, i64 %self.1)
  store i64 %1, ptr %0, align 8
  call void @llvm.memcpy.p0.p0.i64(ptr align 4 %_0, ptr align 8 %0, i64 8, i1 false)
  %2 = load i64, ptr %_0, align 4
  ret i64 %2
}

; core::str::<impl str>::parse
; Function Attrs: inlinehint nonlazybind uwtable
define internal void @"_ZN4core3str21_$LT$impl$u20$str$GT$5parse17hc11c79df26d881e7E"(ptr sret([16 x i8]) align 8 %_0, ptr align 1 %self.0, i64 %self.1) unnamed_addr #0 {
start:
; call core::num::<impl core::str::traits::FromStr for u64>::from_str
  call void @"_ZN4core3num60_$LT$impl$u20$core..str..traits..FromStr$u20$for$u20$u64$GT$8from_str17h90419969448ea2c2E"(ptr sret([16 x i8]) align 8 %_0, ptr align 1 %self.0, i64 %self.1)
  ret void
}

; core::str::<impl str>::split
; Function Attrs: inlinehint nonlazybind uwtable
define internal void @"_ZN4core3str21_$LT$impl$u20$str$GT$5split17h3e15cad19c8640e0E"(ptr sret([72 x i8]) align 8 %_0, ptr align 1 %self.0, i64 %self.1, i32 %pat) unnamed_addr #0 {
start:
  %_5 = alloca [48 x i8], align 8
  %_3 = alloca [72 x i8], align 8
; call <char as core::str::pattern::Pattern>::into_searcher
  call void @"_ZN52_$LT$char$u20$as$u20$core..str..pattern..Pattern$GT$13into_searcher17h788e1ed13051c0f6E"(ptr sret([48 x i8]) align 8 %_5, i32 %pat, ptr align 1 %self.0, i64 %self.1)
  store i64 0, ptr %_3, align 8
  %0 = getelementptr inbounds i8, ptr %_3, i64 8
  store i64 %self.1, ptr %0, align 8
  %1 = getelementptr inbounds i8, ptr %_3, i64 16
  call void @llvm.memcpy.p0.p0.i64(ptr align 8 %1, ptr align 8 %_5, i64 48, i1 false)
  %2 = getelementptr inbounds i8, ptr %_3, i64 64
  store i8 1, ptr %2, align 8
  %3 = getelementptr inbounds i8, ptr %_3, i64 65
  store i8 0, ptr %3, align 1
  call void @llvm.memcpy.p0.p0.i64(ptr align 8 %_0, ptr align 8 %_3, i64 72, i1 false)
  ret void
}

; core::str::<impl str>::split
; Function Attrs: inlinehint nonlazybind uwtable
define internal void @"_ZN4core3str21_$LT$impl$u20$str$GT$5split17he2bd705ec9b3710aE"(ptr sret([72 x i8]) align 8 %_0, ptr align 1 %self.0, i64 %self.1, i64 %0) unnamed_addr #0 {
start:
  %1 = alloca [8 x i8], align 8
  %_5 = alloca [48 x i8], align 8
  %_3 = alloca [72 x i8], align 8
  %2 = alloca [8 x i8], align 8
  %pat = alloca [8 x i8], align 4
  store i64 %0, ptr %2, align 8
  call void @llvm.memcpy.p0.p0.i64(ptr align 4 %pat, ptr align 8 %2, i64 8, i1 false)
  call void @llvm.memcpy.p0.p0.i64(ptr align 8 %1, ptr align 4 %pat, i64 8, i1 false)
  %3 = load i64, ptr %1, align 8
; call <[char; N] as core::str::pattern::Pattern>::into_searcher
  call void @"_ZN73_$LT$$u5b$char$u3b$$u20$N$u5d$$u20$as$u20$core..str..pattern..Pattern$GT$13into_searcher17he7c0c3b80ceb45b7E"(ptr sret([48 x i8]) align 8 %_5, i64 %3, ptr align 1 %self.0, i64 %self.1)
  %4 = getelementptr inbounds i8, ptr %_3, i64 48
  store i64 0, ptr %4, align 8
  %5 = getelementptr inbounds i8, ptr %_3, i64 56
  store i64 %self.1, ptr %5, align 8
  call void @llvm.memcpy.p0.p0.i64(ptr align 8 %_3, ptr align 8 %_5, i64 48, i1 false)
  %6 = getelementptr inbounds i8, ptr %_3, i64 64
  store i8 1, ptr %6, align 8
  %7 = getelementptr inbounds i8, ptr %_3, i64 65
  store i8 0, ptr %7, align 1
  call void @llvm.memcpy.p0.p0.i64(ptr align 8 %_0, ptr align 8 %_3, i64 72, i1 false)
  ret void
}

; core::str::iter::SplitInternal<P>::next
; Function Attrs: inlinehint nonlazybind uwtable
define internal { ptr, i64 } @"_ZN4core3str4iter22SplitInternal$LT$P$GT$4next17h4d22e1b11c0d3b6bE"(ptr align 8 %self) unnamed_addr #0 {
start:
  %_5 = alloca [24 x i8], align 8
  %_0 = alloca [16 x i8], align 8
  %0 = getelementptr inbounds i8, ptr %self, i64 65
  %1 = load i8, ptr %0, align 1
  %_2 = trunc i8 %1 to i1
  br i1 %_2, label %bb1, label %bb2

bb2:                                              ; preds = %start
; call <core::str::pattern::CharArraySearcher<_> as core::str::pattern::Searcher>::haystack
  %2 = call { ptr, i64 } @"_ZN95_$LT$core..str..pattern..CharArraySearcher$LT$_$GT$$u20$as$u20$core..str..pattern..Searcher$GT$8haystack17h32b5a598d187ba55E"(ptr align 8 %self)
  %haystack.0 = extractvalue { ptr, i64 } %2, 0
  %haystack.1 = extractvalue { ptr, i64 } %2, 1
; call <core::str::pattern::CharArraySearcher<_> as core::str::pattern::Searcher>::next_match
  call void @"_ZN95_$LT$core..str..pattern..CharArraySearcher$LT$_$GT$$u20$as$u20$core..str..pattern..Searcher$GT$10next_match17hf0c38c380220341aE"(ptr sret([24 x i8]) align 8 %_5, ptr align 8 %self)
  %_7 = load i64, ptr %_5, align 8
  %3 = icmp eq i64 %_7, 0
  br i1 %3, label %bb6, label %bb7

bb1:                                              ; preds = %start
  %4 = load ptr, ptr @1, align 8
  %5 = load i64, ptr getelementptr inbounds (i8, ptr @1, i64 8), align 8
  store ptr %4, ptr %_0, align 8
  %6 = getelementptr inbounds i8, ptr %_0, i64 8
  store i64 %5, ptr %6, align 8
  br label %bb9

bb6:                                              ; preds = %bb2
; call core::str::iter::SplitInternal<P>::get_end
  %7 = call { ptr, i64 } @"_ZN4core3str4iter22SplitInternal$LT$P$GT$7get_end17hca9df22170b3b3b2E"(ptr align 8 %self)
  %8 = extractvalue { ptr, i64 } %7, 0
  %9 = extractvalue { ptr, i64 } %7, 1
  store ptr %8, ptr %_0, align 8
  %10 = getelementptr inbounds i8, ptr %_0, i64 8
  store i64 %9, ptr %10, align 8
  br label %bb8

bb7:                                              ; preds = %bb2
  %11 = getelementptr inbounds i8, ptr %_5, i64 8
  %a = load i64, ptr %11, align 8
  %12 = getelementptr inbounds i8, ptr %_5, i64 8
  %13 = getelementptr inbounds i8, ptr %12, i64 8
  %b = load i64, ptr %13, align 8
  %14 = getelementptr inbounds i8, ptr %self, i64 48
  %i = load i64, ptr %14, align 8
  br label %bb12

bb8:                                              ; preds = %bb12, %bb6
  br label %bb9

bb12:                                             ; preds = %bb7
  %new_len = sub nuw i64 %a, %i
  %data = getelementptr inbounds i8, ptr %haystack.0, i64 %i
  %15 = getelementptr inbounds i8, ptr %self, i64 48
  store i64 %b, ptr %15, align 8
  store ptr %data, ptr %_0, align 8
  %16 = getelementptr inbounds i8, ptr %_0, i64 8
  store i64 %new_len, ptr %16, align 8
  br label %bb8

bb10:                                             ; No predecessors!
  unreachable

bb11:                                             ; No predecessors!
  unreachable

bb9:                                              ; preds = %bb1, %bb8
  %17 = load ptr, ptr %_0, align 8
  %18 = getelementptr inbounds i8, ptr %_0, i64 8
  %19 = load i64, ptr %18, align 8
  %20 = insertvalue { ptr, i64 } poison, ptr %17, 0
  %21 = insertvalue { ptr, i64 } %20, i64 %19, 1
  ret { ptr, i64 } %21

bb5:                                              ; No predecessors!
  unreachable
}

; core::str::iter::SplitInternal<P>::next
; Function Attrs: inlinehint nonlazybind uwtable
define internal { ptr, i64 } @"_ZN4core3str4iter22SplitInternal$LT$P$GT$4next17h4db650b45ce72ebbE"(ptr align 8 %self) unnamed_addr #0 {
start:
  %_5 = alloca [24 x i8], align 8
  %_0 = alloca [16 x i8], align 8
  %0 = getelementptr inbounds i8, ptr %self, i64 65
  %1 = load i8, ptr %0, align 1
  %_2 = trunc i8 %1 to i1
  br i1 %_2, label %bb1, label %bb2

bb2:                                              ; preds = %start
  %_4 = getelementptr inbounds i8, ptr %self, i64 16
; call <core::str::pattern::CharSearcher as core::str::pattern::Searcher>::haystack
  %2 = call { ptr, i64 } @"_ZN81_$LT$core..str..pattern..CharSearcher$u20$as$u20$core..str..pattern..Searcher$GT$8haystack17h6467896ed3ffb31eE"(ptr align 8 %_4)
  %haystack.0 = extractvalue { ptr, i64 } %2, 0
  %haystack.1 = extractvalue { ptr, i64 } %2, 1
  %_6 = getelementptr inbounds i8, ptr %self, i64 16
; call <core::str::pattern::CharSearcher as core::str::pattern::Searcher>::next_match
  call void @"_ZN81_$LT$core..str..pattern..CharSearcher$u20$as$u20$core..str..pattern..Searcher$GT$10next_match17h4664ba2d7983e3ddE"(ptr sret([24 x i8]) align 8 %_5, ptr align 8 %_6)
  %_7 = load i64, ptr %_5, align 8
  %3 = icmp eq i64 %_7, 0
  br i1 %3, label %bb6, label %bb7

bb1:                                              ; preds = %start
  %4 = load ptr, ptr @1, align 8
  %5 = load i64, ptr getelementptr inbounds (i8, ptr @1, i64 8), align 8
  store ptr %4, ptr %_0, align 8
  %6 = getelementptr inbounds i8, ptr %_0, i64 8
  store i64 %5, ptr %6, align 8
  br label %bb9

bb6:                                              ; preds = %bb2
; call core::str::iter::SplitInternal<P>::get_end
  %7 = call { ptr, i64 } @"_ZN4core3str4iter22SplitInternal$LT$P$GT$7get_end17h3c0058d0e540602cE"(ptr align 8 %self)
  %8 = extractvalue { ptr, i64 } %7, 0
  %9 = extractvalue { ptr, i64 } %7, 1
  store ptr %8, ptr %_0, align 8
  %10 = getelementptr inbounds i8, ptr %_0, i64 8
  store i64 %9, ptr %10, align 8
  br label %bb8

bb7:                                              ; preds = %bb2
  %11 = getelementptr inbounds i8, ptr %_5, i64 8
  %a = load i64, ptr %11, align 8
  %12 = getelementptr inbounds i8, ptr %_5, i64 8
  %13 = getelementptr inbounds i8, ptr %12, i64 8
  %b = load i64, ptr %13, align 8
  %i = load i64, ptr %self, align 8
  br label %bb12

bb8:                                              ; preds = %bb12, %bb6
  br label %bb9

bb12:                                             ; preds = %bb7
  %new_len = sub nuw i64 %a, %i
  %data = getelementptr inbounds i8, ptr %haystack.0, i64 %i
  store i64 %b, ptr %self, align 8
  store ptr %data, ptr %_0, align 8
  %14 = getelementptr inbounds i8, ptr %_0, i64 8
  store i64 %new_len, ptr %14, align 8
  br label %bb8

bb10:                                             ; No predecessors!
  unreachable

bb11:                                             ; No predecessors!
  unreachable

bb9:                                              ; preds = %bb1, %bb8
  %15 = load ptr, ptr %_0, align 8
  %16 = getelementptr inbounds i8, ptr %_0, i64 8
  %17 = load i64, ptr %16, align 8
  %18 = insertvalue { ptr, i64 } poison, ptr %15, 0
  %19 = insertvalue { ptr, i64 } %18, i64 %17, 1
  ret { ptr, i64 } %19

bb5:                                              ; No predecessors!
  unreachable
}

; core::str::iter::SplitInternal<P>::get_end
; Function Attrs: inlinehint nonlazybind uwtable
define internal { ptr, i64 } @"_ZN4core3str4iter22SplitInternal$LT$P$GT$7get_end17h3c0058d0e540602cE"(ptr align 8 %self) unnamed_addr #0 {
start:
  %_0 = alloca [16 x i8], align 8
  %0 = getelementptr inbounds i8, ptr %self, i64 65
  %1 = load i8, ptr %0, align 1
  %_2 = trunc i8 %1 to i1
  br i1 %_2, label %bb7, label %bb1

bb1:                                              ; preds = %start
  %2 = getelementptr inbounds i8, ptr %self, i64 65
  store i8 1, ptr %2, align 1
  %3 = getelementptr inbounds i8, ptr %self, i64 64
  %4 = load i8, ptr %3, align 8
  %_3 = trunc i8 %4 to i1
  br i1 %_3, label %bb4, label %bb2

bb7:                                              ; preds = %bb6, %start
  %5 = load ptr, ptr @1, align 8
  %6 = load i64, ptr getelementptr inbounds (i8, ptr @1, i64 8), align 8
  store ptr %5, ptr %_0, align 8
  %7 = getelementptr inbounds i8, ptr %_0, i64 8
  store i64 %6, ptr %7, align 8
  br label %bb8

bb2:                                              ; preds = %bb1
  %8 = getelementptr inbounds i8, ptr %self, i64 8
  %_6 = load i64, ptr %8, align 8
  %_7 = load i64, ptr %self, align 8
  %_5 = sub i64 %_6, %_7
  %_4 = icmp ugt i64 %_5, 0
  br i1 %_4, label %bb3, label %bb6

bb4:                                              ; preds = %bb3, %bb1
  %_9 = getelementptr inbounds i8, ptr %self, i64 16
; call <core::str::pattern::CharSearcher as core::str::pattern::Searcher>::haystack
  %9 = call { ptr, i64 } @"_ZN81_$LT$core..str..pattern..CharSearcher$u20$as$u20$core..str..pattern..Searcher$GT$8haystack17h6467896ed3ffb31eE"(ptr align 8 %_9)
  %self.0 = extractvalue { ptr, i64 } %9, 0
  %self.1 = extractvalue { ptr, i64 } %9, 1
  %i = load i64, ptr %self, align 8
  %10 = getelementptr inbounds i8, ptr %self, i64 8
  %i1 = load i64, ptr %10, align 8
  br label %bb11

bb6:                                              ; preds = %bb2
  br label %bb7

bb3:                                              ; preds = %bb2
  br label %bb4

bb11:                                             ; preds = %bb4
  %new_len = sub nuw i64 %i1, %i
  %data = getelementptr inbounds i8, ptr %self.0, i64 %i
  store ptr %data, ptr %_0, align 8
  %11 = getelementptr inbounds i8, ptr %_0, i64 8
  store i64 %new_len, ptr %11, align 8
  br label %bb8

bb9:                                              ; No predecessors!
  unreachable

bb10:                                             ; No predecessors!
  unreachable

bb8:                                              ; preds = %bb7, %bb11
  %12 = load ptr, ptr %_0, align 8
  %13 = getelementptr inbounds i8, ptr %_0, i64 8
  %14 = load i64, ptr %13, align 8
  %15 = insertvalue { ptr, i64 } poison, ptr %12, 0
  %16 = insertvalue { ptr, i64 } %15, i64 %14, 1
  ret { ptr, i64 } %16
}

; core::str::iter::SplitInternal<P>::get_end
; Function Attrs: inlinehint nonlazybind uwtable
define internal { ptr, i64 } @"_ZN4core3str4iter22SplitInternal$LT$P$GT$7get_end17hca9df22170b3b3b2E"(ptr align 8 %self) unnamed_addr #0 {
start:
  %_0 = alloca [16 x i8], align 8
  %0 = getelementptr inbounds i8, ptr %self, i64 65
  %1 = load i8, ptr %0, align 1
  %_2 = trunc i8 %1 to i1
  br i1 %_2, label %bb7, label %bb1

bb1:                                              ; preds = %start
  %2 = getelementptr inbounds i8, ptr %self, i64 65
  store i8 1, ptr %2, align 1
  %3 = getelementptr inbounds i8, ptr %self, i64 64
  %4 = load i8, ptr %3, align 8
  %_3 = trunc i8 %4 to i1
  br i1 %_3, label %bb4, label %bb2

bb7:                                              ; preds = %bb6, %start
  %5 = load ptr, ptr @1, align 8
  %6 = load i64, ptr getelementptr inbounds (i8, ptr @1, i64 8), align 8
  store ptr %5, ptr %_0, align 8
  %7 = getelementptr inbounds i8, ptr %_0, i64 8
  store i64 %6, ptr %7, align 8
  br label %bb8

bb2:                                              ; preds = %bb1
  %8 = getelementptr inbounds i8, ptr %self, i64 56
  %_6 = load i64, ptr %8, align 8
  %9 = getelementptr inbounds i8, ptr %self, i64 48
  %_7 = load i64, ptr %9, align 8
  %_5 = sub i64 %_6, %_7
  %_4 = icmp ugt i64 %_5, 0
  br i1 %_4, label %bb3, label %bb6

bb4:                                              ; preds = %bb3, %bb1
; call <core::str::pattern::CharArraySearcher<_> as core::str::pattern::Searcher>::haystack
  %10 = call { ptr, i64 } @"_ZN95_$LT$core..str..pattern..CharArraySearcher$LT$_$GT$$u20$as$u20$core..str..pattern..Searcher$GT$8haystack17h32b5a598d187ba55E"(ptr align 8 %self)
  %self.0 = extractvalue { ptr, i64 } %10, 0
  %self.1 = extractvalue { ptr, i64 } %10, 1
  %11 = getelementptr inbounds i8, ptr %self, i64 48
  %i = load i64, ptr %11, align 8
  %12 = getelementptr inbounds i8, ptr %self, i64 56
  %i1 = load i64, ptr %12, align 8
  br label %bb11

bb6:                                              ; preds = %bb2
  br label %bb7

bb3:                                              ; preds = %bb2
  br label %bb4

bb11:                                             ; preds = %bb4
  %new_len = sub nuw i64 %i1, %i
  %data = getelementptr inbounds i8, ptr %self.0, i64 %i
  store ptr %data, ptr %_0, align 8
  %13 = getelementptr inbounds i8, ptr %_0, i64 8
  store i64 %new_len, ptr %13, align 8
  br label %bb8

bb9:                                              ; No predecessors!
  unreachable

bb10:                                             ; No predecessors!
  unreachable

bb8:                                              ; preds = %bb7, %bb11
  %14 = load ptr, ptr %_0, align 8
  %15 = getelementptr inbounds i8, ptr %_0, i64 8
  %16 = load i64, ptr %15, align 8
  %17 = insertvalue { ptr, i64 } poison, ptr %14, 0
  %18 = insertvalue { ptr, i64 } %17, i64 %16, 1
  ret { ptr, i64 } %18
}

; core::str::traits::<impl core::cmp::PartialEq for str>::eq
; Function Attrs: inlinehint nonlazybind uwtable
define internal zeroext i1 @"_ZN4core3str6traits54_$LT$impl$u20$core..cmp..PartialEq$u20$for$u20$str$GT$2eq17hcfd5b29101e8c965E"(ptr align 1 %self.0, i64 %self.1, ptr align 1 %other.0, i64 %other.1) unnamed_addr #0 {
start:
  %other = alloca [16 x i8], align 8
  %self = alloca [16 x i8], align 8
  store ptr %self.0, ptr %self, align 8
  %0 = getelementptr inbounds i8, ptr %self, i64 8
  store i64 %self.1, ptr %0, align 8
  store ptr %other.0, ptr %other, align 8
  %1 = getelementptr inbounds i8, ptr %other, i64 8
  store i64 %other.1, ptr %1, align 8
  %2 = load ptr, ptr %self, align 8
  %3 = getelementptr inbounds i8, ptr %self, i64 8
  %4 = load i64, ptr %3, align 8
  %5 = load ptr, ptr %other, align 8
  %6 = getelementptr inbounds i8, ptr %other, i64 8
  %7 = load i64, ptr %6, align 8
; call <[A] as core::slice::cmp::SlicePartialEq<B>>::equal
  %_0 = call zeroext i1 @"_ZN73_$LT$$u5b$A$u5d$$u20$as$u20$core..slice..cmp..SlicePartialEq$LT$B$GT$$GT$5equal17h7a8fd17fcc171ebeE"(ptr align 1 %2, i64 %4, ptr align 1 %5, i64 %7)
  ret i1 %_0
}

; core::str::<impl core::convert::AsRef<[u8]> for str>::as_ref
; Function Attrs: inlinehint nonlazybind uwtable
define internal { ptr, i64 } @"_ZN4core3str74_$LT$impl$u20$core..convert..AsRef$LT$$u5b$u8$u5d$$GT$$u20$for$u20$str$GT$6as_ref17h8338ffb0d633fdceE"(ptr align 1 %self.0, i64 %self.1) unnamed_addr #0 {
start:
  %0 = insertvalue { ptr, i64 } poison, ptr %self.0, 0
  %1 = insertvalue { ptr, i64 } %0, i64 %self.1, 1
  ret { ptr, i64 } %1
}

; core::char::methods::encode_utf8_raw
; Function Attrs: inlinehint nonlazybind uwtable
define internal { ptr, i64 } @_ZN4core4char7methods15encode_utf8_raw17hbb7dfa4362790b02E(i32 %0, ptr align 1 %dst.0, i64 %dst.1) unnamed_addr #0 {
start:
  %_71 = alloca [16 x i8], align 8
  %_67 = alloca [16 x i8], align 8
  %_63 = alloca [16 x i8], align 8
  %_57 = alloca [8 x i8], align 8
  %_55 = alloca [16 x i8], align 8
  %_53 = alloca [16 x i8], align 8
  %_51 = alloca [16 x i8], align 8
  %_50 = alloca [48 x i8], align 8
  %_48 = alloca [48 x i8], align 8
  %len = alloca [8 x i8], align 8
  %code = alloca [4 x i8], align 4
  store i32 %0, ptr %code, align 4
  %1 = load i32, ptr %code, align 4
  %_59 = icmp ult i32 %1, 128
  br i1 %_59, label %bb11, label %bb12

bb12:                                             ; preds = %start
  %2 = load i32, ptr %code, align 4
  %_60 = icmp ult i32 %2, 2048
  br i1 %_60, label %bb13, label %bb14

bb11:                                             ; preds = %start
  store i64 1, ptr %len, align 8
  br label %bb19

bb14:                                             ; preds = %bb12
  %3 = load i32, ptr %code, align 4
  %_61 = icmp ult i32 %3, 65536
  br i1 %_61, label %bb15, label %bb16

bb13:                                             ; preds = %bb12
  store i64 2, ptr %len, align 8
  br label %bb18

bb16:                                             ; preds = %bb14
  store i64 4, ptr %len, align 8
  br label %bb17

bb15:                                             ; preds = %bb14
  store i64 3, ptr %len, align 8
  br label %bb17

bb17:                                             ; preds = %bb15, %bb16
  br label %bb18

bb18:                                             ; preds = %bb13, %bb17
  br label %bb19

bb19:                                             ; preds = %bb11, %bb18
  %_4 = load i64, ptr %len, align 8
  switch i64 %_4, label %bb1 [
    i64 1, label %bb2
    i64 2, label %bb3
    i64 3, label %bb4
    i64 4, label %bb5
  ]

bb1:                                              ; preds = %bb5, %bb4, %bb3, %bb2, %bb19
  store ptr %len, ptr %_63, align 8
  %4 = getelementptr inbounds i8, ptr %_63, i64 8
  store ptr @"_ZN4core3fmt3num3imp54_$LT$impl$u20$core..fmt..Display$u20$for$u20$usize$GT$3fmt17hdabfc7932e5a3df0E", ptr %4, align 8
  call void @llvm.memcpy.p0.p0.i64(ptr align 8 %_51, ptr align 8 %_63, i64 16, i1 false)
  store ptr %code, ptr %_67, align 8
  %5 = getelementptr inbounds i8, ptr %_67, i64 8
  store ptr @"_ZN4core3fmt3num53_$LT$impl$u20$core..fmt..UpperHex$u20$for$u20$u32$GT$3fmt17h3eaafe46ae0cfb90E", ptr %5, align 8
  call void @llvm.memcpy.p0.p0.i64(ptr align 8 %_53, ptr align 8 %_67, i64 16, i1 false)
  store i64 %dst.1, ptr %_57, align 8
  store ptr %_57, ptr %_71, align 8
  %6 = getelementptr inbounds i8, ptr %_71, i64 8
  store ptr @"_ZN4core3fmt3num3imp54_$LT$impl$u20$core..fmt..Display$u20$for$u20$usize$GT$3fmt17hdabfc7932e5a3df0E", ptr %6, align 8
  call void @llvm.memcpy.p0.p0.i64(ptr align 8 %_55, ptr align 8 %_71, i64 16, i1 false)
  %7 = getelementptr inbounds [3 x %"core::fmt::rt::Argument<'_>"], ptr %_50, i64 0, i64 0
  call void @llvm.memcpy.p0.p0.i64(ptr align 8 %7, ptr align 8 %_51, i64 16, i1 false)
  %8 = getelementptr inbounds [3 x %"core::fmt::rt::Argument<'_>"], ptr %_50, i64 0, i64 1
  call void @llvm.memcpy.p0.p0.i64(ptr align 8 %8, ptr align 8 %_53, i64 16, i1 false)
  %9 = getelementptr inbounds [3 x %"core::fmt::rt::Argument<'_>"], ptr %_50, i64 0, i64 2
  call void @llvm.memcpy.p0.p0.i64(ptr align 8 %9, ptr align 8 %_55, i64 16, i1 false)
  store ptr @alloc_d51214f097f67314513b76e97e13aa6b, ptr %_48, align 8
  %10 = getelementptr inbounds i8, ptr %_48, i64 8
  store i64 3, ptr %10, align 8
  %11 = load ptr, ptr @1, align 8
  %12 = load i64, ptr getelementptr inbounds (i8, ptr @1, i64 8), align 8
  %13 = getelementptr inbounds i8, ptr %_48, i64 32
  store ptr %11, ptr %13, align 8
  %14 = getelementptr inbounds i8, ptr %13, i64 8
  store i64 %12, ptr %14, align 8
  %15 = getelementptr inbounds i8, ptr %_48, i64 16
  store ptr %_50, ptr %15, align 8
  %16 = getelementptr inbounds i8, ptr %15, i64 8
  store i64 3, ptr %16, align 8
; call core::panicking::panic_fmt
  call void @_ZN4core9panicking9panic_fmt17h3111a7beccfa68f5E(ptr align 8 %_48, ptr align 8 @alloc_054e99fbcf449d4476ca571e33a9e487) #20
  unreachable

bb2:                                              ; preds = %bb19
  %_6 = icmp uge i64 %dst.1, 1
  br i1 %_6, label %bb6, label %bb1

bb3:                                              ; preds = %bb19
  %_8 = icmp uge i64 %dst.1, 2
  br i1 %_8, label %bb7, label %bb1

bb4:                                              ; preds = %bb19
  %_10 = icmp uge i64 %dst.1, 3
  br i1 %_10, label %bb8, label %bb1

bb5:                                              ; preds = %bb19
  %_12 = icmp uge i64 %dst.1, 4
  br i1 %_12, label %bb9, label %bb1

bb6:                                              ; preds = %bb2
  %a = getelementptr inbounds [0 x i8], ptr %dst.0, i64 0, i64 0
  %17 = getelementptr inbounds [0 x i8], ptr %dst.0, i64 0, i64 0
  %18 = load i32, ptr %code, align 4
  %19 = trunc i32 %18 to i8
  store i8 %19, ptr %17, align 1
  br label %bb10

bb10:                                             ; preds = %bb9, %bb8, %bb7, %bb6
  %index = load i64, ptr %len, align 8
; call <core::ops::range::Range<usize> as core::slice::index::SliceIndex<[T]>>::index_mut
  %20 = call { ptr, i64 } @"_ZN106_$LT$core..ops..range..Range$LT$usize$GT$$u20$as$u20$core..slice..index..SliceIndex$LT$$u5b$T$u5d$$GT$$GT$9index_mut17hcfaf81ad5a88ea13E"(i64 0, i64 %index, ptr align 1 %dst.0, i64 %dst.1, ptr align 8 @alloc_57859aeb3d01b34b21a99a66643e2791)
  %_0.0 = extractvalue { ptr, i64 } %20, 0
  %_0.1 = extractvalue { ptr, i64 } %20, 1
  %21 = insertvalue { ptr, i64 } poison, ptr %_0.0, 0
  %22 = insertvalue { ptr, i64 } %21, i64 %_0.1, 1
  ret { ptr, i64 } %22

bb7:                                              ; preds = %bb3
  %a1 = getelementptr inbounds [0 x i8], ptr %dst.0, i64 0, i64 0
  %b = getelementptr inbounds [0 x i8], ptr %dst.0, i64 0, i64 1
  %23 = load i32, ptr %code, align 4
  %_18 = lshr i32 %23, 6
  %_17 = and i32 %_18, 31
  %_16 = trunc i32 %_17 to i8
  %24 = getelementptr inbounds [0 x i8], ptr %dst.0, i64 0, i64 0
  %25 = or i8 %_16, -64
  store i8 %25, ptr %24, align 1
  %26 = load i32, ptr %code, align 4
  %_20 = and i32 %26, 63
  %_19 = trunc i32 %_20 to i8
  %27 = getelementptr inbounds [0 x i8], ptr %dst.0, i64 0, i64 1
  %28 = or i8 %_19, -128
  store i8 %28, ptr %27, align 1
  br label %bb10

bb8:                                              ; preds = %bb4
  %a2 = getelementptr inbounds [0 x i8], ptr %dst.0, i64 0, i64 0
  %b3 = getelementptr inbounds [0 x i8], ptr %dst.0, i64 0, i64 1
  %c = getelementptr inbounds [0 x i8], ptr %dst.0, i64 0, i64 2
  %29 = load i32, ptr %code, align 4
  %_26 = lshr i32 %29, 12
  %_25 = and i32 %_26, 15
  %_24 = trunc i32 %_25 to i8
  %30 = getelementptr inbounds [0 x i8], ptr %dst.0, i64 0, i64 0
  %31 = or i8 %_24, -32
  store i8 %31, ptr %30, align 1
  %32 = load i32, ptr %code, align 4
  %_29 = lshr i32 %32, 6
  %_28 = and i32 %_29, 63
  %_27 = trunc i32 %_28 to i8
  %33 = getelementptr inbounds [0 x i8], ptr %dst.0, i64 0, i64 1
  %34 = or i8 %_27, -128
  store i8 %34, ptr %33, align 1
  %35 = load i32, ptr %code, align 4
  %_31 = and i32 %35, 63
  %_30 = trunc i32 %_31 to i8
  %36 = getelementptr inbounds [0 x i8], ptr %dst.0, i64 0, i64 2
  %37 = or i8 %_30, -128
  store i8 %37, ptr %36, align 1
  br label %bb10

bb9:                                              ; preds = %bb5
  %a4 = getelementptr inbounds [0 x i8], ptr %dst.0, i64 0, i64 0
  %b5 = getelementptr inbounds [0 x i8], ptr %dst.0, i64 0, i64 1
  %c6 = getelementptr inbounds [0 x i8], ptr %dst.0, i64 0, i64 2
  %d = getelementptr inbounds [0 x i8], ptr %dst.0, i64 0, i64 3
  %38 = load i32, ptr %code, align 4
  %_38 = lshr i32 %38, 18
  %_37 = and i32 %_38, 7
  %_36 = trunc i32 %_37 to i8
  %39 = getelementptr inbounds [0 x i8], ptr %dst.0, i64 0, i64 0
  %40 = or i8 %_36, -16
  store i8 %40, ptr %39, align 1
  %41 = load i32, ptr %code, align 4
  %_41 = lshr i32 %41, 12
  %_40 = and i32 %_41, 63
  %_39 = trunc i32 %_40 to i8
  %42 = getelementptr inbounds [0 x i8], ptr %dst.0, i64 0, i64 1
  %43 = or i8 %_39, -128
  store i8 %43, ptr %42, align 1
  %44 = load i32, ptr %code, align 4
  %_44 = lshr i32 %44, 6
  %_43 = and i32 %_44, 63
  %_42 = trunc i32 %_43 to i8
  %45 = getelementptr inbounds [0 x i8], ptr %dst.0, i64 0, i64 2
  %46 = or i8 %_42, -128
  store i8 %46, ptr %45, align 1
  %47 = load i32, ptr %code, align 4
  %_46 = and i32 %47, 63
  %_45 = trunc i32 %_46 to i8
  %48 = getelementptr inbounds [0 x i8], ptr %dst.0, i64 0, i64 3
  %49 = or i8 %_45, -128
  store i8 %49, ptr %48, align 1
  br label %bb10
}

; core::hint::unreachable_unchecked::precondition_check
; Function Attrs: inlinehint nounwind nonlazybind uwtable
define internal void @_ZN4core4hint21unreachable_unchecked18precondition_check17hb99a1892f1a8d538E() unnamed_addr #3 {
start:
; call core::panicking::panic_nounwind
  call void @_ZN4core9panicking14panic_nounwind17hfb4a192166a1619dE(ptr align 1 @alloc_1eb6f53a157dccb32488e066ad957e6d, i64 82) #23
  unreachable
}

; core::iter::traits::iterator::Iterator::advance_by
; Function Attrs: inlinehint nonlazybind uwtable
define internal i64 @_ZN4core4iter6traits8iterator8Iterator10advance_by17h0b4e58bb96091d32E(ptr align 8 %self, i64 %n) unnamed_addr #0 {
start:
  %_20 = alloca [8 x i8], align 8
  %_9 = alloca [16 x i8], align 8
  %_5 = alloca [16 x i8], align 8
  %iter = alloca [16 x i8], align 8
  %_0 = alloca [8 x i8], align 8
  store i64 0, ptr %iter, align 8
  %0 = getelementptr inbounds i8, ptr %iter, i64 8
  store i64 %n, ptr %0, align 8
  br label %bb1

bb1:                                              ; preds = %bb11, %start
  %other = getelementptr inbounds i8, ptr %iter, i64 8
  %_17 = load i64, ptr %iter, align 8
  %1 = getelementptr inbounds i8, ptr %iter, i64 8
  %_18 = load i64, ptr %1, align 8
  %_12 = icmp ult i64 %_17, %_18
  br i1 %_12, label %bb7, label %bb9

bb9:                                              ; preds = %bb1
  store i64 0, ptr %_0, align 8
  br label %bb6

bb7:                                              ; preds = %bb1
  %old = load i64, ptr %iter, align 8
; call <usize as core::iter::range::Step>::forward_unchecked
  %_16 = call i64 @"_ZN49_$LT$usize$u20$as$u20$core..iter..range..Step$GT$17forward_unchecked17h118bfd5f470f9149E"(i64 %old, i64 1)
  store i64 %_16, ptr %iter, align 8
  %2 = getelementptr inbounds i8, ptr %_5, i64 8
  store i64 %old, ptr %2, align 8
  store i64 1, ptr %_5, align 8
  %3 = getelementptr inbounds i8, ptr %_5, i64 8
  %i = load i64, ptr %3, align 8
; call <core::str::iter::Split<P> as core::iter::traits::iterator::Iterator>::next
  %4 = call { ptr, i64 } @"_ZN90_$LT$core..str..iter..Split$LT$P$GT$$u20$as$u20$core..iter..traits..iterator..Iterator$GT$4next17h07f28a005775af28E"(ptr align 8 %self)
  %5 = extractvalue { ptr, i64 } %4, 0
  %6 = extractvalue { ptr, i64 } %4, 1
  store ptr %5, ptr %_9, align 8
  %7 = getelementptr inbounds i8, ptr %_9, i64 8
  store i64 %6, ptr %7, align 8
  %8 = load ptr, ptr %_9, align 8
  %9 = ptrtoint ptr %8 to i64
  %10 = icmp eq i64 %9, 0
  %_19 = select i1 %10, i64 0, i64 1
  %11 = icmp eq i64 %_19, 1
  br i1 %11, label %bb11, label %bb10

bb6:                                              ; preds = %bb13, %bb9
  %12 = load i64, ptr %_0, align 8
  ret i64 %12

bb11:                                             ; preds = %bb7
  br label %bb1

bb10:                                             ; preds = %bb7
  %n1 = sub i64 %n, %i
  store i64 %n1, ptr %_20, align 8
  %13 = load i64, ptr %_20, align 8
  %14 = icmp eq i64 %13, 0
  %_21 = select i1 %14, i64 0, i64 1
  %15 = icmp eq i64 %_21, 0
  br i1 %15, label %bb12, label %bb13

bb12:                                             ; preds = %bb10
; call core::num::nonzero::NonZero<T>::new_unchecked::precondition_check
  call void @"_ZN4core3num7nonzero16NonZero$LT$T$GT$13new_unchecked18precondition_check17hcdcee82ad2ddbdc7E"() #19
  br label %bb2

bb13:                                             ; preds = %bb10
  %n2 = load i64, ptr %_20, align 8
  store i64 %n2, ptr %_0, align 8
  br label %bb6

bb2:                                              ; preds = %bb12
  unreachable
}

; core::iter::traits::iterator::Iterator::nth
; Function Attrs: inlinehint nonlazybind uwtable
define internal { ptr, i64 } @_ZN4core4iter6traits8iterator8Iterator3nth17h24164ec4a2628c9dE(ptr align 8 %self, i64 %n) unnamed_addr #0 {
start:
  %self2 = alloca [8 x i8], align 8
  %self1 = alloca [1 x i8], align 1
  %_0 = alloca [16 x i8], align 8
; call core::iter::traits::iterator::Iterator::advance_by
  %0 = call i64 @_ZN4core4iter6traits8iterator8Iterator10advance_by17h0b4e58bb96091d32E(ptr align 8 %self, i64 %n)
  store i64 %0, ptr %self2, align 8
  %1 = load i64, ptr %self2, align 8
  %2 = icmp eq i64 %1, 0
  %_5 = select i1 %2, i64 0, i64 1
  %3 = icmp eq i64 %_5, 0
  br i1 %3, label %bb5, label %bb4

bb5:                                              ; preds = %start
  store i8 1, ptr %self1, align 1
  br label %bb6

bb4:                                              ; preds = %start
  store i8 0, ptr %self1, align 1
  br label %bb6

bb6:                                              ; preds = %bb4, %bb5
  %4 = load i8, ptr %self1, align 1
  %5 = trunc i8 %4 to i1
  %_6 = zext i1 %5 to i64
  %6 = icmp eq i64 %_6, 0
  br i1 %6, label %bb7, label %bb8

bb7:                                              ; preds = %bb6
  store ptr null, ptr %_0, align 8
  br label %bb3

bb8:                                              ; preds = %bb6
; call <core::str::iter::Split<P> as core::iter::traits::iterator::Iterator>::next
  %7 = call { ptr, i64 } @"_ZN90_$LT$core..str..iter..Split$LT$P$GT$$u20$as$u20$core..iter..traits..iterator..Iterator$GT$4next17h07f28a005775af28E"(ptr align 8 %self)
  %8 = extractvalue { ptr, i64 } %7, 0
  %9 = extractvalue { ptr, i64 } %7, 1
  store ptr %8, ptr %_0, align 8
  %10 = getelementptr inbounds i8, ptr %_0, i64 8
  store i64 %9, ptr %10, align 8
  br label %bb3

bb3:                                              ; preds = %bb8, %bb7
  %11 = load ptr, ptr %_0, align 8
  %12 = getelementptr inbounds i8, ptr %_0, i64 8
  %13 = load i64, ptr %12, align 8
  %14 = insertvalue { ptr, i64 } poison, ptr %11, 0
  %15 = insertvalue { ptr, i64 } %14, i64 %13, 1
  ret { ptr, i64 } %15

bb2:                                              ; No predecessors!
  unreachable
}

; core::iter::traits::iterator::Iterator::try_fold
; Function Attrs: inlinehint nonlazybind uwtable
define internal { i64, i64 } @_ZN4core4iter6traits8iterator8Iterator8try_fold17hb06df13204717662E(ptr align 8 %self, i64 %init, ptr align 1 %0) unnamed_addr #0 personality ptr @rust_eh_personality {
start:
  %1 = alloca [16 x i8], align 8
  %_17 = alloca [1 x i8], align 1
  %_8 = alloca [16 x i8], align 8
  %_5 = alloca [8 x i8], align 8
  %accum = alloca [8 x i8], align 8
  %_0 = alloca [16 x i8], align 8
  %f = alloca [8 x i8], align 8
  store ptr %0, ptr %f, align 8
  store i8 1, ptr %_17, align 1
  store i64 %init, ptr %accum, align 8
  br label %bb1

bb1:                                              ; preds = %bb7, %start
; invoke <core::slice::iter::Iter<T> as core::iter::traits::iterator::Iterator>::next
  %2 = invoke align 8 ptr @"_ZN91_$LT$core..slice..iter..Iter$LT$T$GT$$u20$as$u20$core..iter..traits..iterator..Iterator$GT$4next17h174653bac0558db5E"(ptr align 8 %self)
          to label %bb2 unwind label %cleanup

bb17:                                             ; preds = %cleanup
  %3 = load i8, ptr %_17, align 1
  %4 = trunc i8 %3 to i1
  br i1 %4, label %bb16, label %bb14

cleanup:                                          ; preds = %bb11, %bb8, %bb4, %bb3, %bb1
  %5 = landingpad { ptr, i32 }
          cleanup
  %6 = extractvalue { ptr, i32 } %5, 0
  %7 = extractvalue { ptr, i32 } %5, 1
  store ptr %6, ptr %1, align 8
  %8 = getelementptr inbounds i8, ptr %1, i64 8
  store i32 %7, ptr %8, align 8
  br label %bb17

bb2:                                              ; preds = %bb1
  store ptr %2, ptr %_5, align 8
  %9 = load ptr, ptr %_5, align 8
  %10 = ptrtoint ptr %9 to i64
  %11 = icmp eq i64 %10, 0
  %_6 = select i1 %11, i64 0, i64 1
  %12 = icmp eq i64 %_6, 1
  br i1 %12, label %bb3, label %bb10

bb3:                                              ; preds = %bb2
  %x = load ptr, ptr %_5, align 8
  store i8 0, ptr %_17, align 1
  %_12 = load i64, ptr %accum, align 8
; invoke core::iter::adapters::map::map_try_fold::{{closure}}
  %13 = invoke { i64, i64 } @"_ZN4core4iter8adapters3map12map_try_fold28_$u7b$$u7b$closure$u7d$$u7d$17h71156d0c0e21ce6eE"(ptr align 8 %f, i64 %_12, ptr align 8 %x)
          to label %bb4 unwind label %cleanup

bb10:                                             ; preds = %bb2
  br label %bb11

bb4:                                              ; preds = %bb3
  %_9.0 = extractvalue { i64, i64 } %13, 0
  %_9.1 = extractvalue { i64, i64 } %13, 1
; invoke <core::option::Option<T> as core::ops::try_trait::Try>::branch
  %14 = invoke { i64, i64 } @"_ZN75_$LT$core..option..Option$LT$T$GT$$u20$as$u20$core..ops..try_trait..Try$GT$6branch17h179d9ffc73e38dd4E"(i64 %_9.0, i64 %_9.1)
          to label %bb5 unwind label %cleanup

bb5:                                              ; preds = %bb4
  %15 = extractvalue { i64, i64 } %14, 0
  %16 = extractvalue { i64, i64 } %14, 1
  store i64 %15, ptr %_8, align 8
  %17 = getelementptr inbounds i8, ptr %_8, i64 8
  store i64 %16, ptr %17, align 8
  %_13 = load i64, ptr %_8, align 8
  %18 = icmp eq i64 %_13, 0
  br i1 %18, label %bb7, label %bb8

bb7:                                              ; preds = %bb5
  %19 = getelementptr inbounds i8, ptr %_8, i64 8
  %val = load i64, ptr %19, align 8
  store i8 1, ptr %_17, align 1
  store i64 %val, ptr %accum, align 8
  br label %bb1

bb8:                                              ; preds = %bb5
; invoke <core::option::Option<T> as core::ops::try_trait::FromResidual>::from_residual
  %20 = invoke { i64, i64 } @"_ZN84_$LT$core..option..Option$LT$T$GT$$u20$as$u20$core..ops..try_trait..FromResidual$GT$13from_residual17h6ac00b2d26f6b9dcE"()
          to label %bb9 unwind label %cleanup

bb9:                                              ; preds = %bb8
  %21 = extractvalue { i64, i64 } %20, 0
  %22 = extractvalue { i64, i64 } %20, 1
  store i64 %21, ptr %_0, align 8
  %23 = getelementptr inbounds i8, ptr %_0, i64 8
  store i64 %22, ptr %23, align 8
  br label %bb13

bb13:                                             ; preds = %bb12, %bb9
  %24 = load i64, ptr %_0, align 8
  %25 = getelementptr inbounds i8, ptr %_0, i64 8
  %26 = load i64, ptr %25, align 8
  %27 = insertvalue { i64, i64 } poison, i64 %24, 0
  %28 = insertvalue { i64, i64 } %27, i64 %26, 1
  ret { i64, i64 } %28

bb11:                                             ; preds = %bb10
  store i8 0, ptr %_17, align 1
  %_16 = load i64, ptr %accum, align 8
; invoke <core::option::Option<T> as core::ops::try_trait::Try>::from_output
  %29 = invoke { i64, i64 } @"_ZN75_$LT$core..option..Option$LT$T$GT$$u20$as$u20$core..ops..try_trait..Try$GT$11from_output17h48354d3dc99b775aE"(i64 %_16)
          to label %bb12 unwind label %cleanup

bb12:                                             ; preds = %bb11
  %30 = extractvalue { i64, i64 } %29, 0
  %31 = extractvalue { i64, i64 } %29, 1
  store i64 %30, ptr %_0, align 8
  %32 = getelementptr inbounds i8, ptr %_0, i64 8
  store i64 %31, ptr %32, align 8
  br label %bb13

bb6:                                              ; No predecessors!
  unreachable

bb14:                                             ; preds = %bb16, %bb17
  %33 = load ptr, ptr %1, align 8
  %34 = getelementptr inbounds i8, ptr %1, i64 8
  %35 = load i32, ptr %34, align 8
  %36 = insertvalue { ptr, i32 } poison, ptr %33, 0
  %37 = insertvalue { ptr, i32 } %36, i32 %35, 1
  resume { ptr, i32 } %37

bb16:                                             ; preds = %bb17
  br label %bb14
}

; core::iter::adapters::map::map_try_fold::{{closure}}
; Function Attrs: inlinehint nonlazybind uwtable
