; ModuleID = 'async_executor.1331364fa120f92d-cgu.0'
source_filename = "async_executor.1331364fa120f92d-cgu.0"
target datalayout = "e-m:e-p270:32:32-p271:32:32-p272:64:64-i64:64-i128:128-f80:128-n8:16:32:64-S128"
target triple = "x86_64-unknown-linux-gnu"

%"std::sys::thread_local::fast_local::lazy::Storage<core::cell::RefCell<core::option::Option<(parking::Parker, event_listener::Task)>>, ()>" = type { %"core::cell::UnsafeCell<std::sys::thread_local::fast_local::lazy::State<core::cell::RefCell<core::option::Option<(parking::Parker, event_listener::Task)>>, ()>>" }
%"core::cell::UnsafeCell<std::sys::thread_local::fast_local::lazy::State<core::cell::RefCell<core::option::Option<(parking::Parker, event_listener::Task)>>, ()>>" = type { %"std::sys::thread_local::fast_local::lazy::State<core::cell::RefCell<core::option::Option<(parking::Parker, event_listener::Task)>>, ()>" }
%"std::sys::thread_local::fast_local::lazy::State<core::cell::RefCell<core::option::Option<(parking::Parker, event_listener::Task)>>, ()>" = type { i64, [4 x i64] }
%"core::sync::atomic::AtomicUsize" = type { i64 }
%"concurrent_queue::bounded::Slot<async_task::runnable::Runnable>" = type { %"core::sync::atomic::AtomicUsize", ptr }
%"concurrent_queue::unbounded::Slot<async_task::runnable::Runnable>" = type { ptr, %"core::sync::atomic::AtomicUsize" }
%"slab::Entry<core::task::wake::Waker>" = type { ptr, [1 x i64] }
%"core::task::wake::Waker" = type { %"core::task::wake::RawWaker" }
%"core::task::wake::RawWaker" = type { ptr, ptr }

@alloc_1ccfc410ce4ba7704b8709f0d6e60294 = private unnamed_addr constant <{ [51 x i8] }> <{ [51 x i8] c"fatal runtime error: thread local panicked on drop\0A" }>, align 1
@alloc_f7c18d5ab6a04e64e435b4d6f64423e3 = private unnamed_addr constant <{ ptr, [8 x i8] }> <{ ptr @alloc_1ccfc410ce4ba7704b8709f0d6e60294, [8 x i8] c"3\00\00\00\00\00\00\00" }>, align 8
@alloc_9de874a19c4340d2205a20e83c4db32a = private unnamed_addr constant <{ [100 x i8] }> <{ [100 x i8] c"/home/arsalan/.cargo/registry/src/index.crates.io-1949cf8c6b5b557f/async-lock-3.2.0/src/once_cell.rs" }>, align 1
@alloc_78bee6610a20e359498c972b8e9d7745 = private unnamed_addr constant <{ ptr, [16 x i8] }> <{ ptr @alloc_9de874a19c4340d2205a20e83c4db32a, [16 x i8] c"d\00\00\00\00\00\00\00\80\02\00\006\00\00\00" }>, align 8
@alloc_936ad6355eb7690c02d1ad87334f8a5e = private unnamed_addr constant <{ [39 x i8] }> <{ [39 x i8] c"listener was already notified but taken" }>, align 1
@alloc_cb212e2885e8a621cd48c64a6b15f9e9 = private unnamed_addr constant <{ ptr, [8 x i8] }> <{ ptr @alloc_936ad6355eb7690c02d1ad87334f8a5e, [8 x i8] c"'\00\00\00\00\00\00\00" }>, align 8
@alloc_22319e84f33dbef830b6e51a0981dc18 = private unnamed_addr constant <{ [98 x i8] }> <{ [98 x i8] c"/home/arsalan/.cargo/registry/src/index.crates.io-1949cf8c6b5b557f/event-listener-4.0.1/src/lib.rs" }>, align 1
@alloc_1a788ce61c2724e1ee77deda4f541288 = private unnamed_addr constant <{ ptr, [16 x i8] }> <{ ptr @alloc_22319e84f33dbef830b6e51a0981dc18, [16 x i8] c"b\00\00\00\00\00\00\00\BE\04\00\00$\00\00\00" }>, align 8
@alloc_c77220a5126a58f6849fb914779b0676 = private unnamed_addr constant <{ [46 x i8] }> <{ [46 x i8] c"Shouldn't be able to borrow parker reentrantly" }>, align 1
@alloc_eea70d1ba2e2b32ed53c510137b4981e = private unnamed_addr constant <{ ptr, [16 x i8] }> <{ ptr @alloc_22319e84f33dbef830b6e51a0981dc18, [16 x i8] c"b\00\00\00\00\00\00\00&\04\00\00\1A\00\00\00" }>, align 8
@"_ZN14event_listener21Listener$LT$T$C$B$GT$13wait_internal6PARKER29_$u7b$$u7b$constant$u7d$$u7d$28_$u7b$$u7b$closure$u7d$$u7d$3VAL17hfabc1e097e722479E" = external thread_local global %"std::sys::thread_local::fast_local::lazy::Storage<core::cell::RefCell<core::option::Option<(parking::Parker, event_listener::Task)>>, ()>"
@alloc_0fcfb1685dbb639dd8535b5fd2c2a6de = private unnamed_addr constant <{ [46 x i8] }> <{ [46 x i8] c"must listen() on event listener before waiting" }>, align 1
@alloc_9db8ec74ad2294f052f900824a1d7ffc = private unnamed_addr constant <{ [38 x i8] }> <{ [38 x i8] c"We never removed ourself from the list" }>, align 1
@alloc_866cc8f48ff7503bb90b2940ab6c4be4 = private unnamed_addr constant <{ ptr, [16 x i8] }> <{ ptr @alloc_22319e84f33dbef830b6e51a0981dc18, [16 x i8] c"b\00\00\00\00\00\00\00C\04\00\00\0E\00\00\00" }>, align 8
@alloc_68ec7746c0760a8e70a883dc7486cb2a = private unnamed_addr constant <{ ptr, [16 x i8] }> <{ ptr @alloc_22319e84f33dbef830b6e51a0981dc18, [16 x i8] c"b\00\00\00\00\00\00\00X\04\00\00\1E\00\00\00" }>, align 8
@alloc_cbc0ae3a0ff7f483972df12112a7c4bc = private unnamed_addr constant <{ ptr, [16 x i8] }> <{ ptr @alloc_22319e84f33dbef830b6e51a0981dc18, [16 x i8] c"b\00\00\00\00\00\00\00r\03\00\00-\00\00\00" }>, align 8
@alloc_85c423e91305d2dc9da7e9e51cae8a5b = private unnamed_addr constant <{ [41 x i8] }> <{ [41 x i8] c"listener was never inserted into the list" }>, align 1
@alloc_a4be5a93911a8478de1908934d04fb85 = private unnamed_addr constant <{ ptr, [8 x i8] }> <{ ptr @alloc_85c423e91305d2dc9da7e9e51cae8a5b, [8 x i8] c")\00\00\00\00\00\00\00" }>, align 8
@alloc_61d0d125fbe9492258211263be330a30 = private unnamed_addr constant <{ ptr, [16 x i8] }> <{ ptr @alloc_22319e84f33dbef830b6e51a0981dc18, [16 x i8] c"b\00\00\00\00\00\00\00\D9\04\00\00$\00\00\00" }>, align 8
@alloc_e94e241015829de072b2732a84678440 = private unnamed_addr constant <{ [98 x i8] }> <{ [98 x i8] c"/home/arsalan/.cargo/registry/src/index.crates.io-1949cf8c6b5b557f/event-listener-4.0.1/src/std.rs" }>, align 1
@alloc_3d92cf09fa06db555c254e898e4a2d80 = private unnamed_addr constant <{ ptr, [16 x i8] }> <{ ptr @alloc_e94e241015829de072b2732a84678440, [16 x i8] c"b\00\00\00\00\00\00\00\D6\00\00\00\12\00\00\00" }>, align 8
@alloc_61fa7b58ed30eecb534df944972fe25f = private unnamed_addr constant <{ [17 x i8] }> <{ [17 x i8] c"tag already taken" }>, align 1
@alloc_bc69fbb54932bc0e11d2dbae19078b51 = private unnamed_addr constant <{ ptr, [16 x i8] }> <{ ptr @alloc_e94e241015829de072b2732a84678440, [16 x i8] c"b\00\00\00\00\00\00\00\E6\00\00\00,\00\00\00" }>, align 8
@alloc_51967c27c36e85c811a485c285626a1b = private unnamed_addr constant <{ [104 x i8] }> <{ [104 x i8] c"/home/arsalan/.cargo/registry/src/index.crates.io-1949cf8c6b5b557f/concurrent-queue-2.4.0/src/bounded.rs" }>, align 1
@alloc_0685a2bece727c75688f549460a00d17 = private unnamed_addr constant <{ ptr, [16 x i8] }> <{ ptr @alloc_51967c27c36e85c811a485c285626a1b, [16 x i8] c"h\00\00\00\00\00\00\00\A6\00\00\00\19\00\00\00" }>, align 8
@alloc_8d68fcbc011419193bd208f22e2789d1 = private unnamed_addr constant <{ [28 x i8] }> <{ [28 x i8] c"failed to write whole buffer" }>, align 1
@alloc_626cc8bfd6c94d404aa777557e31db63 = private unnamed_addr constant <{ ptr, [9 x i8], [7 x i8] }> <{ ptr @alloc_8d68fcbc011419193bd208f22e2789d1, [9 x i8] c"\1C\00\00\00\00\00\00\00\17", [7 x i8] undef }>, align 8
@alloc_2316e63258fe9d5bdff37bf003386e61 = private unnamed_addr constant <{ [78 x i8] }> <{ [78 x i8] c"/home/arsalan/Documents/Github/unsafe-rust-benchmark/library/std/src/io/mod.rs" }>, align 1
@alloc_d9fb3a4fb251add6517075192273824f = private unnamed_addr constant <{ ptr, [16 x i8] }> <{ ptr @alloc_2316e63258fe9d5bdff37bf003386e61, [16 x i8] c"N\00\00\00\00\00\00\00\A9\06\00\00$\00\00\00" }>, align 8
@alloc_a439077caaee6bab9af745f1531d72a4 = private unnamed_addr constant <{ [86 x i8] }> <{ [86 x i8] c"a formatting trait implementation returned an error when the underlying stream did not" }>, align 1
@alloc_b715a4cb67d5838cf1e1986f5e19fc38 = private unnamed_addr constant <{ ptr, [8 x i8] }> <{ ptr @alloc_a439077caaee6bab9af745f1531d72a4, [8 x i8] c"V\00\00\00\00\00\00\00" }>, align 8
@vtable.0 = private constant <{ ptr, [16 x i8], ptr, ptr, ptr }> <{ ptr @"_ZN4core3ptr97drop_in_place$LT$std..io..Write..write_fmt..Adapter$LT$std..sys..pal..unix..stdio..Stderr$GT$$GT$17hd7c239151c6c222cE", [16 x i8] c"\10\00\00\00\00\00\00\00\08\00\00\00\00\00\00\00", ptr @"_ZN80_$LT$std..io..Write..write_fmt..Adapter$LT$T$GT$$u20$as$u20$core..fmt..Write$GT$9write_str17h9c4022adadc6ed43E", ptr @_ZN4core3fmt5Write10write_char17h919622fedc063676E, ptr @_ZN4core3fmt5Write9write_fmt17hab64fedc03a73fbcE }>, align 8, !dbg !0
@alloc_d06916582962d4b81ada4001356ac2bb = private unnamed_addr constant <{ ptr, [16 x i8] }> <{ ptr @alloc_2316e63258fe9d5bdff37bf003386e61, [16 x i8] c"N\00\00\00\00\00\00\004\07\00\00\15\00\00\00" }>, align 8
@_ZN3std9panicking11panic_count18GLOBAL_PANIC_COUNT17h00e7dcd913cdfbe0E = external local_unnamed_addr global %"core::sync::atomic::AtomicUsize"
@vtable.1 = private constant <{ [24 x i8], ptr }> <{ [24 x i8] c"\00\00\00\00\00\00\00\00\08\00\00\00\00\00\00\00\08\00\00\00\00\00\00\00", ptr @"_ZN4core3fmt3num52_$LT$impl$u20$core..fmt..Debug$u20$for$u20$usize$GT$3fmt17ha3731fb0f809905cE" }>, align 8, !dbg !164
@vtable.2 = private constant <{ [24 x i8], ptr }> <{ [24 x i8] c"\00\00\00\00\00\00\00\00\00\00\00\00\00\00\00\00\01\00\00\00\00\00\00\00", ptr @"_ZN63_$LT$core..cell..BorrowMutError$u20$as$u20$core..fmt..Debug$GT$3fmt17h244b7fa36f4ece1fE" }>, align 8, !dbg !172
@alloc_00ae4b301f7fab8ac9617c03fcbd7274 = private unnamed_addr constant <{ [43 x i8] }> <{ [43 x i8] c"called `Result::unwrap()` on an `Err` value" }>, align 1
@vtable.3 = private constant <{ ptr, [16 x i8], ptr }> <{ ptr @"_ZN4core3ptr119drop_in_place$LT$std..sync..poison..PoisonError$LT$std..sync..mutex..MutexGuard$LT$async_executor..Sleepers$GT$$GT$$GT$17h60d1f4f8775edfb4E", [16 x i8] c"\10\00\00\00\00\00\00\00\08\00\00\00\00\00\00\00", ptr @"_ZN76_$LT$std..sync..poison..PoisonError$LT$T$GT$$u20$as$u20$core..fmt..Debug$GT$3fmt17h03a367fce8245836E" }>, align 8, !dbg !182
@vtable.4 = private constant <{ ptr, [16 x i8], ptr }> <{ ptr @"_ZN4core3ptr119drop_in_place$LT$std..sync..poison..PoisonError$LT$std..sync..mutex..MutexGuard$LT$async_executor..Sleepers$GT$$GT$$GT$17h60d1f4f8775edfb4E", [16 x i8] c"\10\00\00\00\00\00\00\00\08\00\00\00\00\00\00\00", ptr @"_ZN76_$LT$std..sync..poison..PoisonError$LT$T$GT$$u20$as$u20$core..fmt..Debug$GT$3fmt17h03a367fce8245836E" }>, align 8, !dbg !319
@vtable.5 = private constant <{ ptr, [16 x i8], ptr }> <{ ptr @"_ZN4core3ptr220drop_in_place$LT$std..sync..poison..PoisonError$LT$std..sync..rwlock..RwLockWriteGuard$LT$alloc..vec..Vec$LT$alloc..sync..Arc$LT$concurrent_queue..ConcurrentQueue$LT$async_task..runnable..Runnable$GT$$GT$$GT$$GT$$GT$$GT$17h09a4bb8f1f18dbd9E", [16 x i8] c"\10\00\00\00\00\00\00\00\08\00\00\00\00\00\00\00", ptr @"_ZN76_$LT$std..sync..poison..PoisonError$LT$T$GT$$u20$as$u20$core..fmt..Debug$GT$3fmt17h03a367fce8245836E" }>, align 8, !dbg !399
@__rust_no_alloc_shim_is_unstable = external global i8
@alloc_8e2410b80645266732854088d21653bc = private unnamed_addr constant <{ [11 x i8] }> <{ [11 x i8] c"PoisonError" }>, align 1
@alloc_4c2b13af1c87cb7922ca6db3bfa621b0 = private unnamed_addr constant <{ ptr, [16 x i8] }> <{ ptr @alloc_51967c27c36e85c811a485c285626a1b, [16 x i8] c"h\00\00\00\00\00\00\00N\01\00\00!\00\00\00" }>, align 8
@alloc_bfa86e78bb522c8c6fe2e5f061afb481 = private unnamed_addr constant <{ [8 x i8] }> <{ [8 x i8] c"Executor" }>, align 1
@alloc_3eeb5317e9b16d3e442d0f0d35c70680 = private unnamed_addr constant <{ [98 x i8] }> <{ [98 x i8] c"/home/arsalan/.cargo/registry/src/index.crates.io-1949cf8c6b5b557f/async-executor-1.8.0/src/lib.rs" }>, align 1
@alloc_a10c911af2718d9990af2b058704dde6 = private unnamed_addr constant <{ ptr, [16 x i8] }> <{ ptr @alloc_3eeb5317e9b16d3e442d0f0d35c70680, [16 x i8] c"b\00\00\00\00\00\00\00\86\00\00\00$\00\00\00" }>, align 8
@alloc_a819d5328bf308359752e709e0cfcc7d = private unnamed_addr constant <{ ptr, [16 x i8] }> <{ ptr @alloc_3eeb5317e9b16d3e442d0f0d35c70680, [16 x i8] c"b\00\00\00\00\00\00\00'\01\00\002\00\00\00" }>, align 8
@alloc_e636fbfb83c3e23899caa7bc283e6f39 = private unnamed_addr constant <{ [13 x i8] }> <{ [13 x i8] c"LocalExecutor" }>, align 1
@alloc_50784a5bbbc37cd9f6e902b53b1c0132 = private unnamed_addr constant <{ ptr, [16 x i8] }> <{ ptr @alloc_3eeb5317e9b16d3e442d0f0d35c70680, [16 x i8] c"b\00\00\00\00\00\00\00#\02\00\00.\00\00\00" }>, align 8
@alloc_10cd1d68eb29a42b5b74e4a1624770ee = private unnamed_addr constant <{ ptr, [16 x i8] }> <{ ptr @alloc_3eeb5317e9b16d3e442d0f0d35c70680, [16 x i8] c"b\00\00\00\00\00\00\00\92\02\00\007\00\00\00" }>, align 8
@alloc_cd7dfce84d1fa5895038cb13c81f0f17 = private unnamed_addr constant <{ ptr, [16 x i8] }> <{ ptr @alloc_3eeb5317e9b16d3e442d0f0d35c70680, [16 x i8] c"b\00\00\00\00\00\00\00\AD\02\00\00;\00\00\00" }>, align 8
@alloc_3434d8a4bc6e5cd0964c85f5e2192127 = private unnamed_addr constant <{ ptr, [16 x i8] }> <{ ptr @alloc_3eeb5317e9b16d3e442d0f0d35c70680, [16 x i8] c"b\00\00\00\00\00\00\00\DD\02\00\00;\00\00\00" }>, align 8
@alloc_3b487516c18718dc3fd986313da12b2c = private unnamed_addr constant <{ ptr, [16 x i8] }> <{ ptr @alloc_3eeb5317e9b16d3e442d0f0d35c70680, [16 x i8] c"b\00\00\00\00\00\00\00\0A\03\00\00\0E\00\00\00" }>, align 8
@alloc_fdd18d4f9f5043e6fc5579b9a9820f69 = private unnamed_addr constant <{ ptr, [16 x i8] }> <{ ptr @alloc_3eeb5317e9b16d3e442d0f0d35c70680, [16 x i8] c"b\00\00\00\00\00\00\00L\03\00\00\0E\00\00\00" }>, align 8
@vtable.6 = private constant <{ [24 x i8], ptr }> <{ [24 x i8] c"\00\00\00\00\00\00\00\00\00\00\00\00\00\00\00\00\01\00\00\00\00\00\00\00", ptr @"_ZN82_$LT$async_executor..debug_executor..Uninitialized$u20$as$u20$core..fmt..Debug$GT$3fmt17hd5946c66165df497E" }>, align 8, !dbg !594
@alloc_9a3e157c55b2c08230a00a013ba2557b = private unnamed_addr constant <{ [6 x i8] }> <{ [6 x i8] c"active" }>, align 1
@vtable.7 = private constant <{ [24 x i8], ptr }> <{ [24 x i8] c"\00\00\00\00\00\00\00\00\08\00\00\00\00\00\00\00\08\00\00\00\00\00\00\00", ptr @"_ZN80_$LT$async_executor..debug_executor..ActiveTasks$u20$as$u20$core..fmt..Debug$GT$3fmt17ha06e0f052c6f44d4E" }>, align 8, !dbg !604
@alloc_972ee53344da5fe3bf681df614911d94 = private unnamed_addr constant <{ [12 x i8] }> <{ [12 x i8] c"global_tasks" }>, align 1
@alloc_826360c43cafe49399a9236dd4150ab5 = private unnamed_addr constant <{ [13 x i8] }> <{ [13 x i8] c"local_runners" }>, align 1
@vtable.8 = private constant <{ [24 x i8], ptr }> <{ [24 x i8] c"\00\00\00\00\00\00\00\00\08\00\00\00\00\00\00\00\08\00\00\00\00\00\00\00", ptr @"_ZN81_$LT$async_executor..debug_executor..LocalRunners$u20$as$u20$core..fmt..Debug$GT$3fmt17h1145e5f54b956fcaE" }>, align 8, !dbg !615
@alloc_5bbc067e03c5473c9a39ca87bd9f60ec = private unnamed_addr constant <{ [8 x i8] }> <{ [8 x i8] c"sleepers" }>, align 1
@vtable.9 = private constant <{ [24 x i8], ptr }> <{ [24 x i8] c"\00\00\00\00\00\00\00\00\08\00\00\00\00\00\00\00\08\00\00\00\00\00\00\00", ptr @"_ZN79_$LT$async_executor..debug_executor..SleepCount$u20$as$u20$core..fmt..Debug$GT$3fmt17hb8234e135d56624fE" }>, align 8, !dbg !626
@alloc_dc210547500a72ed3621a73a78c875c5 = private unnamed_addr constant <{ [15 x i8] }> <{ [15 x i8] c"<uninitialized>" }>, align 1
@alloc_d74fb469a1f8eb4aca74e7e3081d5a25 = private unnamed_addr constant <{ [10 x i8] }> <{ [10 x i8] c"<poisoned>" }>, align 1
@alloc_779f4c4c227c35122e8522ff6a6f2abf = private unnamed_addr constant <{ [8 x i8] }> <{ [8 x i8] c"<locked>" }>, align 1

@_ZN14async_executor8Executor8schedule17h2d3687068e4b6aa5E = unnamed_addr alias ptr (ptr), ptr @_ZN14async_executor13LocalExecutor8schedule17h4b714ffe7c2d1ed9E

; event_listener::Listener<T,B>::wait_with_parker
; Function Attrs: nonlazybind uwtable
define internal fastcc noundef zeroext i1 @"_ZN14event_listener21Listener$LT$T$C$B$GT$16wait_with_parker17h0f610e51e3fbf7fcE"(ptr noundef nonnull align 8 %self, i64 %0, i32 noundef %1, ptr noalias noundef readonly align 8 dereferenceable(8) %parker, i64 noundef %unparker.0, ptr noundef %unparker.1) unnamed_addr #0 personality ptr @rust_eh_personality !dbg !756 {
start:
  %_5.i36 = alloca [48 x i8], align 8
  %_5.i30 = alloca [48 x i8], align 8
  %_5.i = alloca [48 x i8], align 8
  %self4 = alloca [24 x i8], align 8
  %val = alloca [24 x i8], align 8
  call void @llvm.dbg.declare(metadata ptr undef, metadata !1063, metadata !DIExpression(DW_OP_LLVM_fragment, 96, 32)), !dbg !1067
  call void @llvm.dbg.declare(metadata ptr undef, metadata !1061, metadata !DIExpression(DW_OP_LLVM_fragment, 96, 32)), !dbg !1068
  tail call void @llvm.dbg.value(metadata ptr @alloc_0fcfb1685dbb639dd8535b5fd2c2a6de, metadata !1069, metadata !DIExpression(DW_OP_LLVM_fragment, 0, 64)), !dbg !1102
  tail call void @llvm.dbg.value(metadata i64 46, metadata !1069, metadata !DIExpression(DW_OP_LLVM_fragment, 64, 64)), !dbg !1102
  tail call void @llvm.dbg.value(metadata ptr @alloc_9db8ec74ad2294f052f900824a1d7ffc, metadata !1104, metadata !DIExpression(DW_OP_LLVM_fragment, 0, 64)), !dbg !1125
  tail call void @llvm.dbg.value(metadata i64 38, metadata !1104, metadata !DIExpression(DW_OP_LLVM_fragment, 64, 64)), !dbg !1125
  tail call void @llvm.dbg.value(metadata i64 %0, metadata !1040, metadata !DIExpression(DW_OP_LLVM_fragment, 0, 64)), !dbg !1127
  tail call void @llvm.dbg.value(metadata i32 %1, metadata !1040, metadata !DIExpression(DW_OP_LLVM_fragment, 64, 32)), !dbg !1127
  tail call void @llvm.dbg.value(metadata ptr %self, metadata !1039, metadata !DIExpression()), !dbg !1127
  tail call void @llvm.dbg.value(metadata ptr %parker, metadata !1041, metadata !DIExpression()), !dbg !1127
  tail call void @llvm.dbg.value(metadata i64 %unparker.0, metadata !1042, metadata !DIExpression(DW_OP_LLVM_fragment, 0, 64)), !dbg !1127
  tail call void @llvm.dbg.value(metadata ptr %unparker.1, metadata !1042, metadata !DIExpression(DW_OP_LLVM_fragment, 64, 64)), !dbg !1127
  call void @llvm.dbg.declare(metadata ptr undef, metadata !1059, metadata !DIExpression()), !dbg !1128
  call void @llvm.dbg.declare(metadata ptr %self4, metadata !1122, metadata !DIExpression()), !dbg !1129
  call void @llvm.dbg.declare(metadata ptr undef, metadata !1065, metadata !DIExpression()), !dbg !1130
  tail call void @llvm.dbg.value(metadata ptr %self, metadata !1131, metadata !DIExpression(DW_OP_plus_uconst, 48, DW_OP_stack_value)), !dbg !1144
  tail call void @llvm.dbg.value(metadata ptr %self, metadata !1143, metadata !DIExpression()), !dbg !1144
  %_36 = getelementptr inbounds i8, ptr %self, i64 48, !dbg !1146
  tail call void @llvm.dbg.value(metadata ptr %_36, metadata !1043, metadata !DIExpression(DW_OP_LLVM_fragment, 0, 64)), !dbg !1147
  tail call void @llvm.dbg.value(metadata ptr %self, metadata !1043, metadata !DIExpression(DW_OP_LLVM_fragment, 64, 64)), !dbg !1147
  tail call void @llvm.dbg.value(metadata ptr %_36, metadata !1148, metadata !DIExpression()), !dbg !1158
  %2 = load ptr, ptr %_36, align 8, !dbg !1160, !noundef !29
  %3 = icmp eq ptr %2, null, !dbg !1160
  br i1 %3, label %bb21, label %bb22, !dbg !1161

bb21:                                             ; preds = %start
  tail call void @llvm.dbg.value(metadata ptr null, metadata !1099, metadata !DIExpression()), !dbg !1102
; call core::option::expect_failed
  tail call void @_ZN4core6option13expect_failed17h28cbd671da1a9710E(ptr noalias noundef nonnull readonly align 1 @alloc_0fcfb1685dbb639dd8535b5fd2c2a6de, i64 noundef 46, ptr noalias noundef nonnull readonly align 8 dereferenceable(24) @alloc_866cc8f48ff7503bb90b2940ab6c4be4) #23, !dbg !1162
  unreachable, !dbg !1162

bb22:                                             ; preds = %start
  tail call void @llvm.dbg.value(metadata ptr %_36, metadata !1099, metadata !DIExpression()), !dbg !1102
  call void @llvm.dbg.value(metadata ptr undef, metadata !1163, metadata !DIExpression()), !dbg !1170
  %_0.i = getelementptr inbounds i8, ptr %2, i64 16, !dbg !1172
  tail call void @llvm.dbg.value(metadata ptr %_0.i, metadata !1056, metadata !DIExpression()), !dbg !1173
; call event_listener::sys::<impl event_listener::Inner<T>>::register
  %_11 = tail call fastcc noundef i8 @"_ZN14event_listener3sys48_$LT$impl$u20$event_listener..Inner$LT$T$GT$$GT$8register17h7764f0a834634766E"(ptr noundef nonnull align 8 %_0.i, ptr noundef nonnull align 8 %self, i64 noundef %unparker.0, ptr noundef %unparker.1), !dbg !1174, !range !1175
  call void @llvm.dbg.value(metadata ptr @alloc_a4be5a93911a8478de1908934d04fb85, metadata !1176, metadata !DIExpression()), !dbg !1314
  call void @llvm.dbg.value(metadata i8 %_11, metadata !1336, metadata !DIExpression()), !dbg !1340
  switch i8 %_11, label %default.unreachable [
    i8 0, label %bb20
    i8 1, label %bb7.preheader
    i8 2, label %bb2.i
  ], !dbg !1341

bb7.preheader:                                    ; preds = %bb22
  %4 = icmp eq i32 %1, 1000000000
  br i1 %4, label %bb7.us, label %bb7, !dbg !1342

bb7.us:                                           ; preds = %bb7.preheader, %bb7.us
; call parking::Parker::park
  tail call void @_ZN7parking6Parker4park17h0b73130a889554beE(ptr noalias noundef nonnull readonly align 8 dereferenceable(8) %parker), !dbg !1343
; call event_listener::sys::<impl event_listener::Inner<T>>::register
  %_27.us = tail call fastcc noundef i8 @"_ZN14event_listener3sys48_$LT$impl$u20$event_listener..Inner$LT$T$GT$$GT$8register17h7764f0a834634766E"(ptr noundef nonnull align 8 %_0.i, ptr noundef nonnull align 8 %self, i64 noundef %unparker.0, ptr noundef %unparker.1), !dbg !1344, !range !1175
  call void @llvm.dbg.value(metadata ptr @alloc_a4be5a93911a8478de1908934d04fb85, metadata !1176, metadata !DIExpression()), !dbg !1345
  call void @llvm.dbg.value(metadata i8 %_27.us, metadata !1336, metadata !DIExpression()), !dbg !1348
  switch i8 %_27.us, label %default.unreachable [
    i8 0, label %bb20
    i8 1, label %bb7.us
    i8 2, label %bb2.i31
  ], !dbg !1349

default.unreachable:                              ; preds = %bb14, %bb7.us, %bb22
  unreachable

bb2.i:                                            ; preds = %bb22
  call void @llvm.lifetime.start.p0(i64 48, ptr nonnull %_5.i), !dbg !1350
  store ptr @alloc_a4be5a93911a8478de1908934d04fb85, ptr %_5.i, align 8, !dbg !1351
  %5 = getelementptr inbounds i8, ptr %_5.i, i64 8, !dbg !1351
  store i64 1, ptr %5, align 8, !dbg !1351
  %6 = getelementptr inbounds i8, ptr %_5.i, i64 32, !dbg !1351
  store ptr null, ptr %6, align 8, !dbg !1351
  %7 = getelementptr inbounds i8, ptr %_5.i, i64 16, !dbg !1351
  store ptr inttoptr (i64 8 to ptr), ptr %7, align 8, !dbg !1351
  %8 = getelementptr inbounds i8, ptr %_5.i, i64 24, !dbg !1351
  store i64 0, ptr %8, align 8, !dbg !1351
; call core::panicking::panic_fmt
  call void @_ZN4core9panicking9panic_fmt17h3111a7beccfa68f5E(ptr noalias nocapture noundef nonnull readonly align 8 dereferenceable(48) %_5.i, ptr noalias noundef nonnull readonly align 8 dereferenceable(24) @alloc_61d0d125fbe9492258211263be330a30) #23, !dbg !1350
  unreachable, !dbg !1350

bb20:                                             ; preds = %bb14, %bb7.us, %bb22, %"_ZN14event_listener14State$LT$T$GT$8notified17h2d26d8464a0bc143E.exit"
  %_0.sroa.0.0 = phi i1 [ %_0.sroa.0.0.i38, %"_ZN14event_listener14State$LT$T$GT$8notified17h2d26d8464a0bc143E.exit" ], [ true, %bb22 ], [ true, %bb7.us ], [ true, %bb14 ], !dbg !1173
  ret i1 %_0.sroa.0.0, !dbg !1352

bb7:                                              ; preds = %bb7.preheader, %bb14
  tail call void @llvm.dbg.value(metadata i64 %0, metadata !1061, metadata !DIExpression(DW_OP_LLVM_fragment, 0, 64)), !dbg !1353
  tail call void @llvm.dbg.value(metadata i32 %1, metadata !1061, metadata !DIExpression(DW_OP_LLVM_fragment, 64, 32)), !dbg !1353
; call std::time::Instant::now
  %9 = tail call { i64, i32 } @_ZN3std4time7Instant3now17hdd57daf13a49b9b5E(), !dbg !1354
  %10 = extractvalue { i64, i32 } %9, 0, !dbg !1354
  %11 = extractvalue { i64, i32 } %9, 1, !dbg !1354
  tail call void @llvm.dbg.value(metadata i64 %10, metadata !1063, metadata !DIExpression(DW_OP_LLVM_fragment, 0, 64)), !dbg !1355
  tail call void @llvm.dbg.value(metadata i32 %11, metadata !1063, metadata !DIExpression(DW_OP_LLVM_fragment, 64, 32)), !dbg !1355
  tail call void @llvm.dbg.value(metadata ptr undef, metadata !1356, metadata !DIExpression()), !dbg !1369
  tail call void @llvm.dbg.value(metadata ptr undef, metadata !1371, metadata !DIExpression()), !dbg !1393
  tail call void @llvm.dbg.value(metadata ptr undef, metadata !1365, metadata !DIExpression()), !dbg !1369
  tail call void @llvm.dbg.value(metadata ptr undef, metadata !1392, metadata !DIExpression()), !dbg !1393
  tail call void @llvm.dbg.value(metadata ptr undef, metadata !1395, metadata !DIExpression()), !dbg !1404
  tail call void @llvm.dbg.value(metadata ptr undef, metadata !1403, metadata !DIExpression()), !dbg !1404
  tail call void @llvm.dbg.value(metadata ptr undef, metadata !1406, metadata !DIExpression()), !dbg !1417
  tail call void @llvm.dbg.value(metadata ptr undef, metadata !1414, metadata !DIExpression()), !dbg !1417
  tail call void @llvm.dbg.value(metadata ptr undef, metadata !1419, metadata !DIExpression()), !dbg !1429
  tail call void @llvm.dbg.value(metadata ptr undef, metadata !1428, metadata !DIExpression()), !dbg !1429
  %12 = icmp slt i64 %10, %0, !dbg !1431
  %.not.i = icmp ne i64 %10, %0, !dbg !1431
  %13 = zext i1 %.not.i to i8, !dbg !1431
  %14 = select i1 %12, i8 -1, i8 %13, !dbg !1431
  %15 = icmp eq i8 %14, 0, !dbg !1432
  %16 = icmp ult i32 %11, %1, !dbg !1432
  %_16.i = sext i1 %16 to i8, !dbg !1432
  %_0.sroa.0.0.i29 = select i1 %15, i8 %_16.i, i8 %14, !dbg !1432
  %switch26 = icmp ult i8 %_0.sroa.0.0.i29, 2, !dbg !1433
  br i1 %switch26, label %bb25, label %bb14, !dbg !1433

bb14:                                             ; preds = %bb7
; call event_listener::sys::<impl event_listener::Inner<T>>::register
  %_27 = tail call fastcc noundef i8 @"_ZN14event_listener3sys48_$LT$impl$u20$event_listener..Inner$LT$T$GT$$GT$8register17h7764f0a834634766E"(ptr noundef nonnull align 8 %_0.i, ptr noundef nonnull align 8 %self, i64 noundef %unparker.0, ptr noundef %unparker.1), !dbg !1344, !range !1175
  call void @llvm.dbg.value(metadata ptr @alloc_a4be5a93911a8478de1908934d04fb85, metadata !1176, metadata !DIExpression()), !dbg !1345
  call void @llvm.dbg.value(metadata i8 %_27, metadata !1336, metadata !DIExpression()), !dbg !1348
  switch i8 %_27, label %default.unreachable [
    i8 0, label %bb20
    i8 1, label %bb7
    i8 2, label %bb2.i31
  ], !dbg !1349

bb2.i31:                                          ; preds = %bb14, %bb7.us
  call void @llvm.lifetime.start.p0(i64 48, ptr nonnull %_5.i30), !dbg !1436
  store ptr @alloc_a4be5a93911a8478de1908934d04fb85, ptr %_5.i30, align 8, !dbg !1437
  %17 = getelementptr inbounds i8, ptr %_5.i30, i64 8, !dbg !1437
  store i64 1, ptr %17, align 8, !dbg !1437
  %18 = getelementptr inbounds i8, ptr %_5.i30, i64 32, !dbg !1437
  store ptr null, ptr %18, align 8, !dbg !1437
  %19 = getelementptr inbounds i8, ptr %_5.i30, i64 16, !dbg !1437
  store ptr inttoptr (i64 8 to ptr), ptr %19, align 8, !dbg !1437
  %20 = getelementptr inbounds i8, ptr %_5.i30, i64 24, !dbg !1437
  store i64 0, ptr %20, align 8, !dbg !1437
; call core::panicking::panic_fmt
  call void @_ZN4core9panicking9panic_fmt17h3111a7beccfa68f5E(ptr noalias nocapture noundef nonnull readonly align 8 dereferenceable(48) %_5.i30, ptr noalias noundef nonnull readonly align 8 dereferenceable(24) @alloc_61d0d125fbe9492258211263be330a30) #23, !dbg !1436
  unreachable, !dbg !1436

bb25:                                             ; preds = %bb7
  call void @llvm.lifetime.start.p0(i64 24, ptr nonnull %val), !dbg !1438
  call void @llvm.lifetime.start.p0(i64 24, ptr nonnull %self4), !dbg !1438
; call event_listener::sys::<impl event_listener::Inner<T>>::remove
  call fastcc void @"_ZN14event_listener3sys48_$LT$impl$u20$event_listener..Inner$LT$T$GT$$GT$6remove17hde647effaaf43b57E"(ptr noalias nocapture noundef nonnull align 8 dereferenceable(24) %self4, ptr noundef nonnull align 8 %_0.i, ptr noundef nonnull align 8 %self, i1 noundef zeroext false), !dbg !1438
  %21 = load i8, ptr %self4, align 8, !dbg !1439, !range !1440, !noundef !29
  %22 = icmp eq i8 %21, 4, !dbg !1439
  br i1 %22, label %bb27, label %bb28, !dbg !1441

bb27:                                             ; preds = %bb25
; call core::option::expect_failed
  tail call void @_ZN4core6option13expect_failed17h28cbd671da1a9710E(ptr noalias noundef nonnull readonly align 1 @alloc_9db8ec74ad2294f052f900824a1d7ffc, i64 noundef 38, ptr noalias noundef nonnull readonly align 8 dereferenceable(24) @alloc_68ec7746c0760a8e70a883dc7486cb2a) #23, !dbg !1442
  unreachable, !dbg !1442

bb28:                                             ; preds = %bb25
  call void @llvm.memcpy.p0.p0.i64(ptr noundef nonnull align 8 dereferenceable(24) %val, ptr noundef nonnull align 8 dereferenceable(24) %self4, i64 24, i1 false), !dbg !1443
  call void @llvm.lifetime.end.p0(i64 24, ptr nonnull %self4), !dbg !1444
  tail call void @llvm.experimental.noalias.scope.decl(metadata !1445), !dbg !1438
  call void @llvm.dbg.value(metadata ptr @alloc_cb212e2885e8a621cd48c64a6b15f9e9, metadata !1448, metadata !DIExpression()), !dbg !1452
  call void @llvm.dbg.declare(metadata ptr %val, metadata !1460, metadata !DIExpression()), !dbg !1464
  %23 = load i8, ptr %val, align 8, !dbg !1465, !range !1466, !alias.scope !1445, !noundef !29
  switch i8 %23, label %bb6.i [
    i8 1, label %"_ZN14event_listener14State$LT$T$GT$8notified17h2d26d8464a0bc143E.exit"
    i8 3, label %bb3.i
  ], !dbg !1467

bb3.i:                                            ; preds = %bb28
  call void @llvm.lifetime.start.p0(i64 48, ptr nonnull %_5.i36), !dbg !1468, !noalias !1445
  store ptr @alloc_cb212e2885e8a621cd48c64a6b15f9e9, ptr %_5.i36, align 8, !dbg !1469, !noalias !1445
  %24 = getelementptr inbounds i8, ptr %_5.i36, i64 8, !dbg !1469
  store i64 1, ptr %24, align 8, !dbg !1469, !noalias !1445
  %25 = getelementptr inbounds i8, ptr %_5.i36, i64 32, !dbg !1469
  store ptr null, ptr %25, align 8, !dbg !1469, !noalias !1445
  %26 = getelementptr inbounds i8, ptr %_5.i36, i64 16, !dbg !1469
  store ptr inttoptr (i64 8 to ptr), ptr %26, align 8, !dbg !1469, !noalias !1445
  %27 = getelementptr inbounds i8, ptr %_5.i36, i64 24, !dbg !1469
  store i64 0, ptr %27, align 8, !dbg !1469, !noalias !1445
; invoke core::panicking::panic_fmt
  invoke void @_ZN4core9panicking9panic_fmt17h3111a7beccfa68f5E(ptr noalias nocapture noundef nonnull readonly align 8 dereferenceable(48) %_5.i36, ptr noalias noundef nonnull readonly align 8 dereferenceable(24) @alloc_1a788ce61c2724e1ee77deda4f541288) #23
          to label %unreachable.i unwind label %bb7.i, !dbg !1468, !noalias !1445

bb6.i:                                            ; preds = %bb28
  tail call void @llvm.experimental.noalias.scope.decl(metadata !1470), !dbg !1473
  call void @llvm.dbg.value(metadata ptr %val, metadata !1474, metadata !DIExpression()), !dbg !1481
  %cond.i.i = icmp eq i8 %23, 2, !dbg !1483
  br i1 %cond.i.i, label %bb2.i.i, label %"_ZN14event_listener14State$LT$T$GT$8notified17h2d26d8464a0bc143E.exit", !dbg !1483

bb2.i.i:                                          ; preds = %bb6.i
  %28 = getelementptr inbounds i8, ptr %val, i64 8, !dbg !1483
  tail call void @llvm.experimental.noalias.scope.decl(metadata !1484), !dbg !1483
  call void @llvm.dbg.value(metadata ptr %28, metadata !1487, metadata !DIExpression()), !dbg !1495
  %29 = load ptr, ptr %28, align 8, !dbg !1497, !alias.scope !1498, !noundef !29
  %.not.i.i.i = icmp eq ptr %29, null, !dbg !1497
  %30 = getelementptr inbounds i8, ptr %val, i64 16, !dbg !1497
  br i1 %.not.i.i.i, label %bb3.i.i.i, label %bb2.i.i.i, !dbg !1497

bb2.i.i.i:                                        ; preds = %bb2.i.i
  %_1.val1.i.i.i = load ptr, ptr %30, align 8, !dbg !1497, !alias.scope !1498, !noundef !29
  call void @llvm.dbg.value(metadata ptr undef, metadata !1499, metadata !DIExpression()), !dbg !1505
  call void @llvm.dbg.value(metadata ptr undef, metadata !1507, metadata !DIExpression()), !dbg !1515
  %31 = getelementptr inbounds i8, ptr %29, i64 24, !dbg !1517
  %_2.i.i.i.i.i = load ptr, ptr %31, align 8, !dbg !1517, !noalias !1498, !nonnull !29, !noundef !29
  tail call void %_2.i.i.i.i.i(ptr noundef %_1.val1.i.i.i), !dbg !1517, !noalias !1498
  br label %"_ZN14event_listener14State$LT$T$GT$8notified17h2d26d8464a0bc143E.exit", !dbg !1497

bb3.i.i.i:                                        ; preds = %bb2.i.i
  tail call void @llvm.experimental.noalias.scope.decl(metadata !1518), !dbg !1497
  call void @llvm.dbg.value(metadata ptr %30, metadata !1521, metadata !DIExpression()), !dbg !1529
  tail call void @llvm.experimental.noalias.scope.decl(metadata !1531), !dbg !1534
  call void @llvm.dbg.value(metadata ptr %30, metadata !1535, metadata !DIExpression()), !dbg !1543
  tail call void @llvm.experimental.noalias.scope.decl(metadata !1545), !dbg !1548
  call void @llvm.dbg.value(metadata i64 1, metadata !1549, metadata !DIExpression()), !dbg !1560
  call void @llvm.dbg.value(metadata i8 1, metadata !1559, metadata !DIExpression()), !dbg !1560
  call void @llvm.dbg.value(metadata i64 1, metadata !1570, metadata !DIExpression()), !dbg !1579
  call void @llvm.dbg.value(metadata i8 1, metadata !1578, metadata !DIExpression()), !dbg !1579
  call void @llvm.dbg.value(metadata i8 2, metadata !1581, metadata !DIExpression()), !dbg !1587
  call void @llvm.dbg.value(metadata ptr %30, metadata !1568, metadata !DIExpression()), !dbg !1589
  call void @llvm.dbg.value(metadata ptr %30, metadata !1590, metadata !DIExpression()), !dbg !1599
  call void @llvm.dbg.value(metadata ptr %30, metadata !1601, metadata !DIExpression()), !dbg !1610
  %self6.i.i.i.i.i.i = load ptr, ptr %30, align 8, !dbg !1612, !alias.scope !1613, !nonnull !29, !noundef !29
  call void @llvm.dbg.value(metadata ptr %self6.i.i.i.i.i.i, metadata !1558, metadata !DIExpression()), !dbg !1560
  call void @llvm.dbg.value(metadata ptr %self6.i.i.i.i.i.i, metadata !1577, metadata !DIExpression()), !dbg !1579
  %32 = atomicrmw sub ptr %self6.i.i.i.i.i.i, i64 1 release, align 8, !dbg !1614, !noalias !1613
  %33 = icmp eq i64 %32, 1, !dbg !1615
  br i1 %33, label %bb2.i.i.i.i.i.i, label %"_ZN14event_listener14State$LT$T$GT$8notified17h2d26d8464a0bc143E.exit", !dbg !1615

bb2.i.i.i.i.i.i:                                  ; preds = %bb3.i.i.i
  fence acquire, !dbg !1616
; call alloc::sync::Arc<T,A>::drop_slow
  call fastcc void @"_ZN5alloc4sync16Arc$LT$T$C$A$GT$9drop_slow17h9675029db5300a12E"(ptr noalias noundef nonnull align 8 dereferenceable(8) %30), !dbg !1617
  br label %"_ZN14event_listener14State$LT$T$GT$8notified17h2d26d8464a0bc143E.exit", !dbg !1617

unreachable.i:                                    ; preds = %bb3.i
  unreachable

bb4.i37:                                          ; preds = %bb7.i
  resume { ptr, i32 } %34, !dbg !1618

bb7.i:                                            ; preds = %bb3.i
  %34 = landingpad { ptr, i32 }
          cleanup
; invoke core::ptr::drop_in_place<event_listener::State<()>>
  invoke fastcc void @"_ZN4core3ptr58drop_in_place$LT$event_listener..State$LT$$LP$$RP$$GT$$GT$17hb4bae8a064ddb323E"(ptr noalias noundef nonnull align 8 dereferenceable(24) %val) #24
          to label %bb4.i37 unwind label %terminate.i, !dbg !1473

terminate.i:                                      ; preds = %bb7.i
  %35 = landingpad { ptr, i32 }
          filter [0 x ptr] zeroinitializer
; call core::panicking::panic_in_cleanup
  tail call void @_ZN4core9panicking16panic_in_cleanup17h43442956f23e9cbeE() #25, !dbg !1618, !noalias !1445
  unreachable, !dbg !1618

"_ZN14event_listener14State$LT$T$GT$8notified17h2d26d8464a0bc143E.exit": ; preds = %bb28, %bb6.i, %bb2.i.i.i, %bb3.i.i.i, %bb2.i.i.i.i.i.i
  %_0.sroa.0.0.i38 = phi i1 [ true, %bb28 ], [ false, %bb6.i ], [ false, %bb2.i.i.i ], [ false, %bb3.i.i.i ], [ false, %bb2.i.i.i.i.i.i ], !dbg !1619
  call void @llvm.lifetime.end.p0(i64 24, ptr nonnull %val), !dbg !1620
  br label %bb20, !dbg !1621
}

; event_listener::sys::Inner<T>::notify
; Function Attrs: cold nonlazybind uwtable
define internal fastcc void @"_ZN14event_listener3sys14Inner$LT$T$GT$6notify17h401283e0196ad5aeE"(ptr noalias nocapture noundef align 8 dereferenceable(40) %self, ptr noalias nocapture noundef align 8 dereferenceable(16) %notify) unnamed_addr #1 personality ptr @rust_eh_personality !dbg !1624 {
start:
  %task = alloca [16 x i8], align 8
  call void @llvm.dbg.declare(metadata ptr poison, metadata !1663, metadata !DIExpression(DW_OP_LLVM_fragment, 16, 176)), !dbg !1670
  call void @llvm.dbg.declare(metadata ptr poison, metadata !1681, metadata !DIExpression(DW_OP_LLVM_fragment, 16, 176)), !dbg !1695
  call void @llvm.dbg.declare(metadata ptr poison, metadata !1693, metadata !DIExpression(DW_OP_LLVM_fragment, 16, 176)), !dbg !1696
  %result.sroa.8 = alloca [23 x i8], align 1
  call void @llvm.dbg.declare(metadata ptr %result.sroa.8, metadata !1682, metadata !DIExpression(DW_OP_LLVM_fragment, 8, 184)), !dbg !1697
  tail call void @llvm.dbg.value(metadata ptr %self, metadata !1647, metadata !DIExpression()), !dbg !1698
  call void @llvm.dbg.declare(metadata ptr %notify, metadata !1648, metadata !DIExpression()), !dbg !1699
  call void @llvm.dbg.declare(metadata ptr undef, metadata !1659, metadata !DIExpression()), !dbg !1700
  call void @llvm.dbg.declare(metadata ptr %task, metadata !1661, metadata !DIExpression()), !dbg !1701
  %notify.val = load i64, ptr %notify, align 8, !dbg !1702, !noundef !29
  tail call void @llvm.dbg.value(metadata i64 %notify.val, metadata !1649, metadata !DIExpression()), !dbg !1703
  %0 = getelementptr inbounds i8, ptr %notify, i64 8, !dbg !1704
  %notify.val18 = load i8, ptr %0, align 8, !dbg !1704, !range !1705, !noundef !29
  tail call void @llvm.dbg.value(metadata ptr undef, metadata !1706, metadata !DIExpression()), !dbg !1720
  call void @llvm.dbg.declare(metadata ptr undef, metadata !1718, metadata !DIExpression()), !dbg !1722
  %_0.i.not = icmp eq i8 %notify.val18, 0, !dbg !1723
  tail call void @llvm.dbg.value(metadata i1 %_0.i.not, metadata !1651, metadata !DIExpression(DW_OP_LLVM_convert, 1, DW_ATE_unsigned, DW_OP_LLVM_convert, 8, DW_ATE_unsigned, DW_OP_stack_value)), !dbg !1724
  br i1 %_0.i.not, label %bb3, label %bb6, !dbg !1725

bb3:                                              ; preds = %start
  %1 = getelementptr inbounds i8, ptr %self, i64 32, !dbg !1726
  %_9 = load i64, ptr %1, align 8, !dbg !1726, !noundef !29
  %_7 = icmp ult i64 %notify.val, %_9, !dbg !1727
  br i1 %_7, label %bb16, label %bb5, !dbg !1727

bb6:                                              ; preds = %bb5, %start
  %n.sroa.0.0 = phi i64 [ %notify.val, %start ], [ %9, %bb5 ], !dbg !1698
  tail call void @llvm.dbg.value(metadata i64 %n.sroa.0.0, metadata !1649, metadata !DIExpression()), !dbg !1703
  tail call void @llvm.dbg.value(metadata i64 %n.sroa.0.0, metadata !1653, metadata !DIExpression()), !dbg !1728
  %_12.not21 = icmp eq i64 %n.sroa.0.0, 0, !dbg !1729
  br i1 %_12.not21, label %bb16, label %bb8.lr.ph, !dbg !1729

bb8.lr.ph:                                        ; preds = %bb6
  %2 = getelementptr inbounds i8, ptr %self, i64 16
  %_3.i = getelementptr inbounds i8, ptr %notify, i64 9
  %3 = getelementptr inbounds i8, ptr %self, i64 32
  %.promoted = load ptr, ptr %2, align 8
  %.promoted24 = load i64, ptr %3, align 8
  tail call void @llvm.dbg.value(metadata i64 %n.sroa.0.0, metadata !1649, metadata !DIExpression()), !dbg !1703
  tail call void @llvm.dbg.value(metadata i64 %n.sroa.0.0, metadata !1649, metadata !DIExpression(DW_OP_constu, 1, DW_OP_minus, DW_OP_stack_value)), !dbg !1703
  %4 = icmp eq ptr %.promoted, null, !dbg !1730
  br i1 %4, label %bb16, label %bb10.peel, !dbg !1731

bb10.peel:                                        ; preds = %bb8.lr.ph
  %_3.i.promoted = load i8, ptr %_3.i, align 1, !alias.scope !1732
  %5 = icmp eq i8 %_3.i.promoted, 0, !dbg !1739
  tail call void @llvm.dbg.value(metadata ptr %.promoted, metadata !1655, metadata !DIExpression()), !dbg !1771
  tail call void @llvm.dbg.value(metadata ptr %.promoted, metadata !1657, metadata !DIExpression()), !dbg !1772
  tail call void @llvm.dbg.value(metadata ptr %.promoted, metadata !1773, metadata !DIExpression(DW_OP_plus_uconst, 32, DW_OP_stack_value)), !dbg !1781
  tail call void @llvm.dbg.value(metadata ptr %.promoted, metadata !1783, metadata !DIExpression(DW_OP_plus_uconst, 32, DW_OP_stack_value)), !dbg !1792
  %_37.peel = getelementptr inbounds i8, ptr %.promoted, i64 32, !dbg !1794
  %_19.peel = load ptr, ptr %_37.peel, align 8, !dbg !1795, !noundef !29
  store ptr %_19.peel, ptr %2, align 8, !dbg !1796
  call void @llvm.dbg.value(metadata ptr %notify, metadata !1768, metadata !DIExpression()), !dbg !1797
  call void @llvm.dbg.declare(metadata ptr undef, metadata !1769, metadata !DIExpression()), !dbg !1798
  call void @llvm.dbg.value(metadata ptr %_3.i, metadata !1761, metadata !DIExpression()), !dbg !1799
  call void @llvm.dbg.value(metadata ptr @alloc_61fa7b58ed30eecb534df944972fe25f, metadata !1747, metadata !DIExpression(DW_OP_LLVM_fragment, 0, 64)), !dbg !1800
  call void @llvm.dbg.value(metadata i64 17, metadata !1747, metadata !DIExpression(DW_OP_LLVM_fragment, 64, 64)), !dbg !1800
  call void @llvm.dbg.value(metadata ptr %_3.i, metadata !1756, metadata !DIExpression(DW_OP_deref)), !dbg !1801
  call void @llvm.dbg.value(metadata ptr %_3.i, metadata !1802, metadata !DIExpression()), !dbg !1810
  call void @llvm.dbg.value(metadata ptr %_3.i, metadata !1812, metadata !DIExpression()), !dbg !1823
  call void @llvm.dbg.value(metadata ptr %_3.i, metadata !1825, metadata !DIExpression()), !dbg !1833
  call void @llvm.dbg.value(metadata i8 0, metadata !1818, metadata !DIExpression()), !dbg !1823
  call void @llvm.dbg.value(metadata i8 0, metadata !1832, metadata !DIExpression()), !dbg !1833
  call void @llvm.dbg.value(metadata i8 poison, metadata !1819, metadata !DIExpression(DW_OP_constu, 0, DW_OP_ne, DW_OP_LLVM_convert, 1, DW_ATE_unsigned, DW_OP_LLVM_convert, 8, DW_ATE_unsigned, DW_OP_stack_value)), !dbg !1835
  call void @llvm.dbg.value(metadata i8 poison, metadata !1746, metadata !DIExpression(DW_OP_constu, 0, DW_OP_ne, DW_OP_LLVM_convert, 1, DW_ATE_unsigned, DW_OP_LLVM_convert, 8, DW_ATE_unsigned, DW_OP_stack_value)), !dbg !1800
  store i8 0, ptr %_3.i, align 1, !dbg !1836, !alias.scope !1837
  br i1 %5, label %bb2.i.i.i, label %"_ZN110_$LT$event_listener..notify..GenericNotify$LT$F$GT$$u20$as$u20$event_listener..notify..NotificationPrivate$GT$8next_tag17hc77a937d03957b47E.exit.peel", !dbg !1739

"_ZN110_$LT$event_listener..notify..GenericNotify$LT$F$GT$$u20$as$u20$event_listener..notify..NotificationPrivate$GT$8next_tag17hc77a937d03957b47E.exit.peel": ; preds = %bb10.peel
  call void @llvm.lifetime.start.p0(i64 23, ptr nonnull %result.sroa.8), !dbg !1841
  tail call void @llvm.dbg.value(metadata ptr %.promoted, metadata !1692, metadata !DIExpression()), !dbg !1842
  tail call void @llvm.dbg.value(metadata i8 %notify.val18, metadata !1693, metadata !DIExpression(DW_OP_LLVM_fragment, 8, 8)), !dbg !1842
  tail call void @llvm.dbg.value(metadata i8 %notify.val18, metadata !1681, metadata !DIExpression(DW_OP_LLVM_fragment, 8, 8)), !dbg !1843
  tail call void @llvm.dbg.value(metadata i8 %notify.val18, metadata !1663, metadata !DIExpression(DW_OP_LLVM_fragment, 8, 8)), !dbg !1844
  tail call void @llvm.dbg.value(metadata i8 1, metadata !1693, metadata !DIExpression(DW_OP_LLVM_fragment, 0, 8)), !dbg !1842
  tail call void @llvm.dbg.value(metadata i8 1, metadata !1681, metadata !DIExpression(DW_OP_LLVM_fragment, 0, 8)), !dbg !1843
  tail call void @llvm.dbg.value(metadata i8 1, metadata !1663, metadata !DIExpression(DW_OP_LLVM_fragment, 0, 8)), !dbg !1844
  tail call void @llvm.dbg.value(metadata ptr %.promoted, metadata !1680, metadata !DIExpression()), !dbg !1843
  tail call void @llvm.dbg.value(metadata ptr %.promoted, metadata !1845, metadata !DIExpression()), !dbg !1852
  tail call void @llvm.dbg.value(metadata ptr %.promoted, metadata !1669, metadata !DIExpression()), !dbg !1844
  %result.sroa.0.0.copyload29 = load i8, ptr %.promoted, align 8, !dbg !1854
  tail call void @llvm.dbg.value(metadata i8 %result.sroa.0.0.copyload29, metadata !1682, metadata !DIExpression(DW_OP_LLVM_fragment, 0, 8)), !dbg !1855
  %result.sroa.8.0..promoted.sroa_idx = getelementptr inbounds i8, ptr %.promoted, i64 1, !dbg !1854
  call void @llvm.memcpy.p0.p0.i64(ptr noundef nonnull align 1 dereferenceable(23) %result.sroa.8, ptr noundef nonnull align 1 dereferenceable(23) %result.sroa.8.0..promoted.sroa_idx, i64 23, i1 false), !dbg !1854
  store i8 1, ptr %.promoted, align 8, !dbg !1856
  store i8 %notify.val18, ptr %result.sroa.8.0..promoted.sroa_idx, align 1, !dbg !1856
  %6 = icmp eq i8 %result.sroa.0.0.copyload29, 2, !dbg !1857
  br i1 %6, label %bb13.peel, label %bb19.peel, !dbg !1857

bb13.peel:                                        ; preds = %"_ZN110_$LT$event_listener..notify..GenericNotify$LT$F$GT$$u20$as$u20$event_listener..notify..NotificationPrivate$GT$8next_tag17hc77a937d03957b47E.exit.peel"
  %result.sroa.8.8.sroa_idx30 = getelementptr inbounds i8, ptr %result.sroa.8, i64 7, !dbg !1701
  call void @llvm.memcpy.p0.p0.i64(ptr noundef nonnull align 8 dereferenceable(16) %task, ptr noundef nonnull align 1 dereferenceable(16) %result.sroa.8.8.sroa_idx30, i64 16, i1 false), !dbg !1701
; call event_listener::Task::wake
  call void @_ZN14event_listener4Task4wake17h3182e8faec5fbd01E(ptr noalias nocapture noundef nonnull readonly align 8 dereferenceable(16) %task), !dbg !1858
  br label %bb19.peel

bb19.peel:                                        ; preds = %bb13.peel, %"_ZN110_$LT$event_listener..notify..GenericNotify$LT$F$GT$$u20$as$u20$event_listener..notify..NotificationPrivate$GT$8next_tag17hc77a937d03957b47E.exit.peel"
  call void @llvm.lifetime.end.p0(i64 23, ptr nonnull %result.sroa.8), !dbg !1859
  %7 = add i64 %.promoted24, 1, !dbg !1860
  store i64 %7, ptr %3, align 8, !dbg !1860
  tail call void @llvm.dbg.value(metadata i64 %n.sroa.0.0, metadata !1649, metadata !DIExpression(DW_OP_constu, 1, DW_OP_minus, DW_OP_stack_value)), !dbg !1703
  %_12.not.peel = icmp eq i64 %n.sroa.0.0, 1, !dbg !1729
  tail call void @llvm.dbg.value(metadata i64 %n.sroa.0.0, metadata !1649, metadata !DIExpression(DW_OP_constu, 1, DW_OP_minus, DW_OP_constu, 1, DW_OP_minus, DW_OP_stack_value)), !dbg !1703
  %8 = icmp eq ptr %_19.peel, null
  %or.cond = or i1 %_12.not.peel, %8, !dbg !1729
  br i1 %or.cond, label %bb16, label %bb2.i.i.i.loopexit, !dbg !1729

bb5:                                              ; preds = %bb3
  %9 = sub i64 %notify.val, %_9, !dbg !1861
  tail call void @llvm.dbg.value(metadata i64 %9, metadata !1649, metadata !DIExpression()), !dbg !1703
  br label %bb6, !dbg !1862

bb16:                                             ; preds = %bb8.lr.ph, %bb19.peel, %bb6, %bb3
  ret void, !dbg !1863

bb2.i.i.i.loopexit:                               ; preds = %bb19.peel
  tail call void @llvm.dbg.value(metadata ptr %_19.peel, metadata !1655, metadata !DIExpression()), !dbg !1771
  tail call void @llvm.dbg.value(metadata ptr %_19.peel, metadata !1657, metadata !DIExpression()), !dbg !1772
  tail call void @llvm.dbg.value(metadata ptr %_19.peel, metadata !1773, metadata !DIExpression(DW_OP_plus_uconst, 32, DW_OP_stack_value)), !dbg !1781
  tail call void @llvm.dbg.value(metadata ptr %_19.peel, metadata !1783, metadata !DIExpression(DW_OP_plus_uconst, 32, DW_OP_stack_value)), !dbg !1792
  %_37 = getelementptr inbounds i8, ptr %_19.peel, i64 32, !dbg !1794
  %_19 = load ptr, ptr %_37, align 8, !dbg !1795, !noundef !29
  store ptr %_19, ptr %2, align 8, !dbg !1796
  tail call void @llvm.experimental.noalias.scope.decl(metadata !1864), !dbg !1865
  call void @llvm.dbg.value(metadata ptr %notify, metadata !1768, metadata !DIExpression()), !dbg !1797
  call void @llvm.dbg.declare(metadata ptr undef, metadata !1769, metadata !DIExpression()), !dbg !1798
  tail call void @llvm.experimental.noalias.scope.decl(metadata !1866), !dbg !1867
  call void @llvm.dbg.value(metadata ptr %_3.i, metadata !1761, metadata !DIExpression()), !dbg !1799
  tail call void @llvm.experimental.noalias.scope.decl(metadata !1868), !dbg !1869
  call void @llvm.dbg.value(metadata ptr @alloc_61fa7b58ed30eecb534df944972fe25f, metadata !1747, metadata !DIExpression(DW_OP_LLVM_fragment, 0, 64)), !dbg !1800
  call void @llvm.dbg.value(metadata i64 17, metadata !1747, metadata !DIExpression(DW_OP_LLVM_fragment, 64, 64)), !dbg !1800
  call void @llvm.dbg.value(metadata ptr %_3.i, metadata !1756, metadata !DIExpression(DW_OP_deref)), !dbg !1801
  call void @llvm.dbg.value(metadata ptr %_3.i, metadata !1802, metadata !DIExpression()), !dbg !1810
  call void @llvm.dbg.value(metadata ptr %_3.i, metadata !1812, metadata !DIExpression()), !dbg !1823
  call void @llvm.dbg.value(metadata ptr %_3.i, metadata !1825, metadata !DIExpression()), !dbg !1833
  call void @llvm.dbg.value(metadata i8 0, metadata !1818, metadata !DIExpression()), !dbg !1823
  call void @llvm.dbg.value(metadata i8 0, metadata !1832, metadata !DIExpression()), !dbg !1833
  call void @llvm.dbg.value(metadata i8 poison, metadata !1819, metadata !DIExpression(DW_OP_constu, 0, DW_OP_ne, DW_OP_LLVM_convert, 1, DW_ATE_unsigned, DW_OP_LLVM_convert, 8, DW_ATE_unsigned, DW_OP_stack_value)), !dbg !1835
  call void @llvm.dbg.value(metadata i8 poison, metadata !1746, metadata !DIExpression(DW_OP_constu, 0, DW_OP_ne, DW_OP_LLVM_convert, 1, DW_ATE_unsigned, DW_OP_LLVM_convert, 8, DW_ATE_unsigned, DW_OP_stack_value)), !dbg !1800
  store i8 0, ptr %_3.i, align 1, !dbg !1836, !alias.scope !1732
  br label %bb2.i.i.i, !dbg !1870

bb2.i.i.i:                                        ; preds = %bb2.i.i.i.loopexit, %bb10.peel
; call core::option::expect_failed
  tail call void @_ZN4core6option13expect_failed17h28cbd671da1a9710E(ptr noalias noundef nonnull readonly align 1 @alloc_61fa7b58ed30eecb534df944972fe25f, i64 noundef 17, ptr noalias noundef nonnull readonly align 8 dereferenceable(24) @alloc_bc69fbb54932bc0e11d2dbae19078b51) #23, !dbg !1870, !noalias !1732
  unreachable, !dbg !1870
}

; event_listener::sys::Inner<T>::notify
; Function Attrs: cold nonlazybind uwtable
define internal fastcc void @"_ZN14event_listener3sys14Inner$LT$T$GT$6notify17h5c2e003e1c8210a5E"(ptr noalias nocapture noundef align 8 dereferenceable(40) %self, i64 noundef %0) unnamed_addr #1 personality ptr @rust_eh_personality !dbg !1871 {
start:
  %task = alloca [16 x i8], align 8
  call void @llvm.dbg.declare(metadata ptr poison, metadata !1903, metadata !DIExpression(DW_OP_LLVM_fragment, 16, 176)), !dbg !1908
  call void @llvm.dbg.declare(metadata ptr poison, metadata !1915, metadata !DIExpression(DW_OP_LLVM_fragment, 16, 176)), !dbg !1924
  call void @llvm.dbg.declare(metadata ptr poison, metadata !1922, metadata !DIExpression(DW_OP_LLVM_fragment, 16, 176)), !dbg !1925
  %result.sroa.4 = alloca [23 x i8], align 1
  call void @llvm.dbg.declare(metadata ptr %result.sroa.4, metadata !1916, metadata !DIExpression(DW_OP_LLVM_fragment, 8, 184)), !dbg !1926
  tail call void @llvm.dbg.value(metadata i64 %0, metadata !1888, metadata !DIExpression()), !dbg !1927
  tail call void @llvm.dbg.value(metadata ptr %self, metadata !1887, metadata !DIExpression()), !dbg !1927
  call void @llvm.dbg.declare(metadata ptr undef, metadata !1899, metadata !DIExpression()), !dbg !1928
  call void @llvm.dbg.declare(metadata ptr %task, metadata !1901, metadata !DIExpression()), !dbg !1929
  tail call void @llvm.dbg.value(metadata i64 %0, metadata !1889, metadata !DIExpression()), !dbg !1930
  tail call void @llvm.dbg.value(metadata i1 true, metadata !1891, metadata !DIExpression(DW_OP_LLVM_convert, 1, DW_ATE_unsigned, DW_OP_LLVM_convert, 8, DW_ATE_unsigned, DW_OP_stack_value)), !dbg !1931
  tail call void @llvm.dbg.value(metadata i64 %0, metadata !1889, metadata !DIExpression()), !dbg !1930
  tail call void @llvm.dbg.value(metadata i64 %0, metadata !1893, metadata !DIExpression()), !dbg !1932
  %_12.not19 = icmp eq i64 %0, 0, !dbg !1933
  br i1 %_12.not19, label %bb16, label %bb8.lr.ph, !dbg !1933

bb8.lr.ph:                                        ; preds = %start
  %1 = getelementptr inbounds i8, ptr %self, i64 16
  %2 = getelementptr inbounds i8, ptr %self, i64 32
  %.promoted = load ptr, ptr %1, align 8
  %.promoted22 = load i64, ptr %2, align 8
  %result.sroa.4.8.sroa_idx = getelementptr inbounds i8, ptr %result.sroa.4, i64 7
  br label %bb8, !dbg !1933

bb8:                                              ; preds = %bb8.lr.ph, %bb19
  %3 = phi i64 [ %.promoted22, %bb8.lr.ph ], [ %7, %bb19 ]
  %_1921 = phi ptr [ %.promoted, %bb8.lr.ph ], [ %_19, %bb19 ]
  %n.sroa.0.120 = phi i64 [ %0, %bb8.lr.ph ], [ %4, %bb19 ]
  tail call void @llvm.dbg.value(metadata i64 %n.sroa.0.120, metadata !1889, metadata !DIExpression()), !dbg !1930
  %4 = add i64 %n.sroa.0.120, -1, !dbg !1934
  tail call void @llvm.dbg.value(metadata i64 %4, metadata !1889, metadata !DIExpression()), !dbg !1930
  %5 = icmp eq ptr %_1921, null, !dbg !1935
  br i1 %5, label %bb16, label %bb10, !dbg !1936

bb16:                                             ; preds = %bb8, %bb19, %start
  ret void, !dbg !1937

bb10:                                             ; preds = %bb8
  tail call void @llvm.dbg.value(metadata ptr %_1921, metadata !1895, metadata !DIExpression()), !dbg !1938
  tail call void @llvm.dbg.value(metadata ptr %_1921, metadata !1897, metadata !DIExpression()), !dbg !1939
  tail call void @llvm.dbg.value(metadata ptr %_1921, metadata !1940, metadata !DIExpression(DW_OP_plus_uconst, 32, DW_OP_stack_value)), !dbg !1944
  tail call void @llvm.dbg.value(metadata ptr %_1921, metadata !1946, metadata !DIExpression(DW_OP_plus_uconst, 32, DW_OP_stack_value)), !dbg !1950
  %_37 = getelementptr inbounds i8, ptr %_1921, i64 32, !dbg !1952
  %_19 = load ptr, ptr %_37, align 8, !dbg !1953, !noundef !29
  store ptr %_19, ptr %1, align 8, !dbg !1954
  call void @llvm.lifetime.start.p0(i64 23, ptr nonnull %result.sroa.4), !dbg !1955
  tail call void @llvm.dbg.value(metadata ptr %_1921, metadata !1921, metadata !DIExpression()), !dbg !1956
  tail call void @llvm.dbg.value(metadata i8 1, metadata !1922, metadata !DIExpression(DW_OP_LLVM_fragment, 8, 8)), !dbg !1956
  tail call void @llvm.dbg.value(metadata i8 1, metadata !1915, metadata !DIExpression(DW_OP_LLVM_fragment, 8, 8)), !dbg !1957
  tail call void @llvm.dbg.value(metadata i8 1, metadata !1903, metadata !DIExpression(DW_OP_LLVM_fragment, 8, 8)), !dbg !1958
  tail call void @llvm.dbg.value(metadata i8 1, metadata !1922, metadata !DIExpression(DW_OP_LLVM_fragment, 0, 8)), !dbg !1956
  tail call void @llvm.dbg.value(metadata i8 1, metadata !1915, metadata !DIExpression(DW_OP_LLVM_fragment, 0, 8)), !dbg !1957
  tail call void @llvm.dbg.value(metadata i8 1, metadata !1903, metadata !DIExpression(DW_OP_LLVM_fragment, 0, 8)), !dbg !1958
  tail call void @llvm.dbg.value(metadata ptr %_1921, metadata !1914, metadata !DIExpression()), !dbg !1957
  tail call void @llvm.dbg.value(metadata ptr %_1921, metadata !1959, metadata !DIExpression()), !dbg !1963
  tail call void @llvm.dbg.value(metadata ptr %_1921, metadata !1907, metadata !DIExpression()), !dbg !1958
  %result.sroa.0.0.copyload = load i8, ptr %_1921, align 8, !dbg !1965
  tail call void @llvm.dbg.value(metadata i8 %result.sroa.0.0.copyload, metadata !1916, metadata !DIExpression(DW_OP_LLVM_fragment, 0, 8)), !dbg !1966
  %result.sroa.4.0._1921.sroa_idx = getelementptr inbounds i8, ptr %_1921, i64 1, !dbg !1965
  call void @llvm.memcpy.p0.p0.i64(ptr noundef nonnull align 1 dereferenceable(23) %result.sroa.4, ptr noundef nonnull align 1 dereferenceable(23) %result.sroa.4.0._1921.sroa_idx, i64 23, i1 false), !dbg !1965
  store i8 1, ptr %_1921, align 8, !dbg !1967
  store i8 1, ptr %result.sroa.4.0._1921.sroa_idx, align 1, !dbg !1967
  %6 = icmp eq i8 %result.sroa.0.0.copyload, 2, !dbg !1968
  br i1 %6, label %bb13, label %bb19, !dbg !1968

bb13:                                             ; preds = %bb10
  call void @llvm.memcpy.p0.p0.i64(ptr noundef nonnull align 8 dereferenceable(16) %task, ptr noundef nonnull align 1 dereferenceable(16) %result.sroa.4.8.sroa_idx, i64 16, i1 false), !dbg !1929
; call event_listener::Task::wake
  call void @_ZN14event_listener4Task4wake17h3182e8faec5fbd01E(ptr noalias nocapture noundef nonnull readonly align 8 dereferenceable(16) %task), !dbg !1969
  br label %bb19

bb19:                                             ; preds = %bb10, %bb13
  call void @llvm.lifetime.end.p0(i64 23, ptr nonnull %result.sroa.4), !dbg !1970
  %7 = add i64 %3, 1, !dbg !1971
  store i64 %7, ptr %2, align 8, !dbg !1971
  tail call void @llvm.dbg.value(metadata i64 %4, metadata !1889, metadata !DIExpression()), !dbg !1930
  %_12.not = icmp eq i64 %4, 0, !dbg !1933
  br i1 %_12.not, label %bb16, label %bb8, !dbg !1933
}

; event_listener::sys::Inner<T>::notify
; Function Attrs: cold nonlazybind uwtable
define internal fastcc void @"_ZN14event_listener3sys14Inner$LT$T$GT$6notify17hf7dd906fd8925133E"(ptr noalias nocapture noundef align 8 dereferenceable(40) %self, i64 noundef %0) unnamed_addr #1 personality ptr @rust_eh_personality !dbg !1972 {
start:
  %task = alloca [16 x i8], align 8
  call void @llvm.dbg.declare(metadata ptr poison, metadata !1996, metadata !DIExpression(DW_OP_LLVM_fragment, 16, 176)), !dbg !2001
  call void @llvm.dbg.declare(metadata ptr poison, metadata !2008, metadata !DIExpression(DW_OP_LLVM_fragment, 16, 176)), !dbg !2017
  call void @llvm.dbg.declare(metadata ptr poison, metadata !2015, metadata !DIExpression(DW_OP_LLVM_fragment, 16, 176)), !dbg !2018
  %result.sroa.4 = alloca [23 x i8], align 1
  call void @llvm.dbg.declare(metadata ptr %result.sroa.4, metadata !2009, metadata !DIExpression(DW_OP_LLVM_fragment, 8, 184)), !dbg !2019
  tail call void @llvm.dbg.value(metadata i64 %0, metadata !1981, metadata !DIExpression()), !dbg !2020
  tail call void @llvm.dbg.value(metadata ptr %self, metadata !1980, metadata !DIExpression()), !dbg !2020
  call void @llvm.dbg.declare(metadata ptr undef, metadata !1992, metadata !DIExpression()), !dbg !2021
  call void @llvm.dbg.declare(metadata ptr %task, metadata !1994, metadata !DIExpression()), !dbg !2022
  tail call void @llvm.dbg.value(metadata i64 %0, metadata !1982, metadata !DIExpression()), !dbg !2023
  tail call void @llvm.dbg.value(metadata i1 false, metadata !1984, metadata !DIExpression(DW_OP_LLVM_convert, 1, DW_ATE_unsigned, DW_OP_LLVM_convert, 8, DW_ATE_unsigned, DW_OP_stack_value)), !dbg !2024
  %1 = getelementptr inbounds i8, ptr %self, i64 32, !dbg !2025
  %_9 = load i64, ptr %1, align 8, !dbg !2025, !noundef !29
  %_7 = icmp ugt i64 %_9, %0, !dbg !2026
  br i1 %_7, label %bb16, label %bb5, !dbg !2026

bb5:                                              ; preds = %start
  %2 = sub i64 %0, %_9, !dbg !2027
  tail call void @llvm.dbg.value(metadata i64 %2, metadata !1982, metadata !DIExpression()), !dbg !2023
  tail call void @llvm.dbg.value(metadata i64 %2, metadata !1986, metadata !DIExpression()), !dbg !2028
  tail call void @llvm.dbg.value(metadata i64 %2, metadata !1982, metadata !DIExpression()), !dbg !2023
  %_12.not19 = icmp eq i64 %2, 0, !dbg !2029
  br i1 %_12.not19, label %bb16, label %bb8.lr.ph, !dbg !2029

bb8.lr.ph:                                        ; preds = %bb5
  %3 = getelementptr inbounds i8, ptr %self, i64 16
  %.promoted21 = load ptr, ptr %3, align 8
  %result.sroa.4.8.sroa_idx = getelementptr inbounds i8, ptr %result.sroa.4, i64 7
  br label %bb8, !dbg !2029

bb8:                                              ; preds = %bb8.lr.ph, %bb19
  %_1922 = phi ptr [ %.promoted21, %bb8.lr.ph ], [ %_19, %bb19 ]
  %n.sroa.0.120 = phi i64 [ %2, %bb8.lr.ph ], [ %5, %bb19 ]
  %4 = phi i64 [ %_9, %bb8.lr.ph ], [ %8, %bb19 ]
  tail call void @llvm.dbg.value(metadata i64 %n.sroa.0.120, metadata !1982, metadata !DIExpression()), !dbg !2023
  %5 = add i64 %n.sroa.0.120, -1, !dbg !2030
  tail call void @llvm.dbg.value(metadata i64 %5, metadata !1982, metadata !DIExpression()), !dbg !2023
  %6 = icmp eq ptr %_1922, null, !dbg !2031
  br i1 %6, label %bb16, label %bb10, !dbg !2032

bb16:                                             ; preds = %bb8, %bb19, %bb5, %start
  ret void, !dbg !2033

bb10:                                             ; preds = %bb8
  tail call void @llvm.dbg.value(metadata ptr %_1922, metadata !1988, metadata !DIExpression()), !dbg !2034
  tail call void @llvm.dbg.value(metadata ptr %_1922, metadata !1990, metadata !DIExpression()), !dbg !2035
  tail call void @llvm.dbg.value(metadata ptr %_1922, metadata !2036, metadata !DIExpression(DW_OP_plus_uconst, 32, DW_OP_stack_value)), !dbg !2040
  tail call void @llvm.dbg.value(metadata ptr %_1922, metadata !2042, metadata !DIExpression(DW_OP_plus_uconst, 32, DW_OP_stack_value)), !dbg !2046
  %_37 = getelementptr inbounds i8, ptr %_1922, i64 32, !dbg !2048
  %_19 = load ptr, ptr %_37, align 8, !dbg !2049, !noundef !29
  store ptr %_19, ptr %3, align 8, !dbg !2050
  call void @llvm.lifetime.start.p0(i64 23, ptr nonnull %result.sroa.4), !dbg !2051
  tail call void @llvm.dbg.value(metadata ptr %_1922, metadata !2014, metadata !DIExpression()), !dbg !2052
  tail call void @llvm.dbg.value(metadata i8 0, metadata !2015, metadata !DIExpression(DW_OP_LLVM_fragment, 8, 8)), !dbg !2052
  tail call void @llvm.dbg.value(metadata i8 0, metadata !2008, metadata !DIExpression(DW_OP_LLVM_fragment, 8, 8)), !dbg !2053
  tail call void @llvm.dbg.value(metadata i8 0, metadata !1996, metadata !DIExpression(DW_OP_LLVM_fragment, 8, 8)), !dbg !2054
  tail call void @llvm.dbg.value(metadata i8 1, metadata !2015, metadata !DIExpression(DW_OP_LLVM_fragment, 0, 8)), !dbg !2052
  tail call void @llvm.dbg.value(metadata i8 1, metadata !2008, metadata !DIExpression(DW_OP_LLVM_fragment, 0, 8)), !dbg !2053
  tail call void @llvm.dbg.value(metadata i8 1, metadata !1996, metadata !DIExpression(DW_OP_LLVM_fragment, 0, 8)), !dbg !2054
  tail call void @llvm.dbg.value(metadata ptr %_1922, metadata !2007, metadata !DIExpression()), !dbg !2053
  tail call void @llvm.dbg.value(metadata ptr %_1922, metadata !2055, metadata !DIExpression()), !dbg !2059
  tail call void @llvm.dbg.value(metadata ptr %_1922, metadata !2000, metadata !DIExpression()), !dbg !2054
  %result.sroa.0.0.copyload = load i8, ptr %_1922, align 8, !dbg !2061
  tail call void @llvm.dbg.value(metadata i8 %result.sroa.0.0.copyload, metadata !2009, metadata !DIExpression(DW_OP_LLVM_fragment, 0, 8)), !dbg !2062
  %result.sroa.4.0._1922.sroa_idx = getelementptr inbounds i8, ptr %_1922, i64 1, !dbg !2061
  call void @llvm.memcpy.p0.p0.i64(ptr noundef nonnull align 1 dereferenceable(23) %result.sroa.4, ptr noundef nonnull align 1 dereferenceable(23) %result.sroa.4.0._1922.sroa_idx, i64 23, i1 false), !dbg !2061
  store i8 1, ptr %_1922, align 8, !dbg !2063
  store i8 0, ptr %result.sroa.4.0._1922.sroa_idx, align 1, !dbg !2063
  %7 = icmp eq i8 %result.sroa.0.0.copyload, 2, !dbg !2064
  br i1 %7, label %bb13, label %bb19, !dbg !2064

bb13:                                             ; preds = %bb10
  call void @llvm.memcpy.p0.p0.i64(ptr noundef nonnull align 8 dereferenceable(16) %task, ptr noundef nonnull align 1 dereferenceable(16) %result.sroa.4.8.sroa_idx, i64 16, i1 false), !dbg !2022
; call event_listener::Task::wake
  call void @_ZN14event_listener4Task4wake17h3182e8faec5fbd01E(ptr noalias nocapture noundef nonnull readonly align 8 dereferenceable(16) %task), !dbg !2065
  br label %bb19

bb19:                                             ; preds = %bb10, %bb13
  call void @llvm.lifetime.end.p0(i64 23, ptr nonnull %result.sroa.4), !dbg !2066
  %8 = add i64 %4, 1, !dbg !2067
  store i64 %8, ptr %1, align 8, !dbg !2067
  tail call void @llvm.dbg.value(metadata i64 %5, metadata !1982, metadata !DIExpression()), !dbg !2023
  %_12.not = icmp eq i64 %5, 0, !dbg !2029
  br i1 %_12.not, label %bb16, label %bb8, !dbg !2029
}

; event_listener::sys::Inner<T>::remove
; Function Attrs: nonlazybind uwtable
define internal fastcc void @"_ZN14event_listener3sys14Inner$LT$T$GT$6remove17h4954fbc68fbeeb3fE"(ptr dead_on_unwind noalias nocapture noundef writable writeonly align 8 dereferenceable(24) %_0, ptr noalias nocapture noundef align 8 dereferenceable(40) %self, ptr noundef nonnull align 8 %0, i1 noundef zeroext %propagate) unnamed_addr #0 personality ptr @rust_eh_personality !dbg !2068 {
start:
  call void @llvm.dbg.declare(metadata ptr poison, metadata !2128, metadata !DIExpression(DW_OP_LLVM_fragment, 64, 320)), !dbg !2138
  call void @llvm.dbg.declare(metadata ptr poison, metadata !2147, metadata !DIExpression(DW_OP_LLVM_fragment, 64, 320)), !dbg !2158
  %_47 = alloca [16 x i8], align 8
  call void @llvm.dbg.declare(metadata ptr poison, metadata !2159, metadata !DIExpression(DW_OP_LLVM_fragment, 8, 184)), !dbg !2164
  call void @llvm.dbg.declare(metadata ptr poison, metadata !2171, metadata !DIExpression(DW_OP_LLVM_fragment, 8, 184)), !dbg !2174
  %state5 = alloca [24 x i8], align 8
  %state = alloca [24 x i8], align 8
  call void @llvm.dbg.declare(metadata ptr poison, metadata !2175, metadata !DIExpression(DW_OP_LLVM_fragment, 64, 320)), !dbg !2184
  call void @llvm.dbg.declare(metadata ptr poison, metadata !2148, metadata !DIExpression(DW_OP_LLVM_fragment, 64, 320)), !dbg !2186
  call void @llvm.dbg.declare(metadata ptr undef, metadata !2087, metadata !DIExpression()), !dbg !2187
  call void @llvm.dbg.declare(metadata ptr undef, metadata !2188, metadata !DIExpression()), !dbg !2195
  tail call void @llvm.dbg.value(metadata i64 1, metadata !2197, metadata !DIExpression()), !dbg !2206
  tail call void @llvm.dbg.value(metadata ptr %0, metadata !2074, metadata !DIExpression()), !dbg !2208
  tail call void @llvm.dbg.value(metadata ptr %self, metadata !2073, metadata !DIExpression()), !dbg !2208
  tail call void @llvm.dbg.value(metadata i1 %propagate, metadata !2075, metadata !DIExpression(DW_OP_LLVM_convert, 1, DW_ATE_unsigned, DW_OP_LLVM_convert, 8, DW_ATE_unsigned, DW_OP_stack_value)), !dbg !2208
  call void @llvm.dbg.declare(metadata ptr %state, metadata !2117, metadata !DIExpression()), !dbg !2209
  call void @llvm.dbg.declare(metadata ptr poison, metadata !2210, metadata !DIExpression()), !dbg !2217
  call void @llvm.dbg.declare(metadata ptr %state5, metadata !2119, metadata !DIExpression()), !dbg !2219
  call void @llvm.dbg.declare(metadata ptr %state5, metadata !2172, metadata !DIExpression()), !dbg !2220
  call void @llvm.dbg.declare(metadata ptr undef, metadata !2123, metadata !DIExpression()), !dbg !2221
  call void @llvm.dbg.declare(metadata ptr poison, metadata !2222, metadata !DIExpression()), !dbg !2229
  call void @llvm.dbg.declare(metadata ptr poison, metadata !2231, metadata !DIExpression()), !dbg !2238
  tail call void @llvm.dbg.value(metadata ptr %0, metadata !2240, metadata !DIExpression()), !dbg !2262
  tail call void @llvm.dbg.value(metadata ptr %0, metadata !2283, metadata !DIExpression()), !dbg !2287
  %_55 = load i64, ptr %0, align 8, !dbg !2288, !range !2289, !noundef !29
  %trunc.not = icmp eq i64 %_55, 0, !dbg !2290
  br i1 %trunc.not, label %bb26, label %bb27, !dbg !2290

bb26:                                             ; preds = %start
  store i8 4, ptr %_0, align 8, !dbg !2291
  br label %bb16, !dbg !2292

bb27:                                             ; preds = %start
  tail call void @llvm.dbg.value(metadata ptr %0, metadata !2260, metadata !DIExpression(DW_OP_plus_uconst, 8, DW_OP_stack_value)), !dbg !2293
  %x11 = getelementptr inbounds i8, ptr %0, i64 8, !dbg !2294
  tail call void @llvm.dbg.value(metadata ptr %x11, metadata !2076, metadata !DIExpression()), !dbg !2295
  tail call void @llvm.dbg.value(metadata ptr %x11, metadata !2296, metadata !DIExpression(DW_OP_plus_uconst, 24, DW_OP_stack_value)), !dbg !2302
  tail call void @llvm.dbg.value(metadata ptr %x11, metadata !2304, metadata !DIExpression(DW_OP_plus_uconst, 24, DW_OP_stack_value)), !dbg !2314
  %_65 = getelementptr inbounds i8, ptr %0, i64 32, !dbg !2316
  %1 = load ptr, ptr %_65, align 8, !dbg !2317, !noundef !29
  tail call void @llvm.dbg.value(metadata ptr %1, metadata !2107, metadata !DIExpression()), !dbg !2318
  tail call void @llvm.dbg.value(metadata ptr %1, metadata !2319, metadata !DIExpression()), !dbg !2330
  tail call void @llvm.dbg.value(metadata ptr %1, metadata !2332, metadata !DIExpression()), !dbg !2343
  tail call void @llvm.dbg.value(metadata ptr %1, metadata !2345, metadata !DIExpression()), !dbg !2360
  tail call void @llvm.dbg.value(metadata ptr %1, metadata !2362, metadata !DIExpression()), !dbg !2372
  tail call void @llvm.dbg.value(metadata ptr %x11, metadata !2300, metadata !DIExpression(DW_OP_plus_uconst, 32, DW_OP_stack_value)), !dbg !2374
  tail call void @llvm.dbg.value(metadata ptr %x11, metadata !2308, metadata !DIExpression(DW_OP_plus_uconst, 32, DW_OP_stack_value)), !dbg !2376
  %_68 = getelementptr inbounds i8, ptr %0, i64 40, !dbg !2378
  %2 = load ptr, ptr %_68, align 8, !dbg !2379, !noundef !29
  tail call void @llvm.dbg.value(metadata ptr %2, metadata !2109, metadata !DIExpression()), !dbg !2380
  tail call void @llvm.dbg.value(metadata ptr %2, metadata !2328, metadata !DIExpression()), !dbg !2381
  tail call void @llvm.dbg.value(metadata ptr %2, metadata !2341, metadata !DIExpression()), !dbg !2383
  tail call void @llvm.dbg.value(metadata ptr %2, metadata !2354, metadata !DIExpression()), !dbg !2385
  tail call void @llvm.dbg.value(metadata ptr %2, metadata !2370, metadata !DIExpression()), !dbg !2387
  %3 = icmp eq ptr %1, null, !dbg !2389
  %_74 = getelementptr inbounds i8, ptr %1, i64 32, !dbg !2390
  %_74.sink = select i1 %3, ptr %self, ptr %_74, !dbg !2390
  store ptr %2, ptr %_74.sink, align 8, !dbg !2380
  %4 = icmp eq ptr %2, null, !dbg !2391
  %_80 = getelementptr inbounds i8, ptr %2, i64 24, !dbg !2392
  %5 = getelementptr inbounds i8, ptr %self, i64 8, !dbg !2392
  %_80.sink = select i1 %4, ptr %5, ptr %_80, !dbg !2392
  store ptr %1, ptr %_80.sink, align 8, !dbg !2380
  %_27 = getelementptr inbounds i8, ptr %self, i64 16, !dbg !2393
  %_27.val = load ptr, ptr %_27, align 8, !dbg !2393, !noundef !29
  tail call void @llvm.dbg.value(metadata ptr undef, metadata !2394, metadata !DIExpression()), !dbg !2406
  tail call void @llvm.dbg.value(metadata ptr undef, metadata !2401, metadata !DIExpression()), !dbg !2406
  %_0.sroa.0.0.i = icmp eq ptr %x11, %_27.val, !dbg !2408
  br i1 %_0.sroa.0.0.i, label %bb9, label %bb11, !dbg !2393

bb16:                                             ; preds = %bb15, %bb26
  ret void, !dbg !2292

bb9:                                              ; preds = %bb27
  store ptr %2, ptr %_27, align 8, !dbg !2409
  br label %bb11, !dbg !2410

bb11:                                             ; preds = %bb27, %bb9
  tail call void @llvm.dbg.value(metadata ptr %0, metadata !2156, metadata !DIExpression()), !dbg !2411
  tail call void @llvm.dbg.value(metadata ptr %0, metadata !2146, metadata !DIExpression()), !dbg !2412
  tail call void @llvm.dbg.value(metadata ptr %0, metadata !2413, metadata !DIExpression()), !dbg !2420
  tail call void @llvm.dbg.value(metadata ptr %0, metadata !2135, metadata !DIExpression()), !dbg !2422
  tail call void @llvm.dbg.value(metadata i64 0, metadata !2147, metadata !DIExpression(DW_OP_LLVM_fragment, 0, 64)), !dbg !2412
  tail call void @llvm.dbg.value(metadata i64 0, metadata !2128, metadata !DIExpression(DW_OP_LLVM_fragment, 0, 64)), !dbg !2422
  %result.sroa.0.0.copyload = load i64, ptr %0, align 8, !dbg !2423
  tail call void @llvm.dbg.value(metadata i64 %result.sroa.0.0.copyload, metadata !2148, metadata !DIExpression(DW_OP_LLVM_fragment, 0, 64)), !dbg !2424
  tail call void @llvm.dbg.value(metadata i64 %result.sroa.0.0.copyload, metadata !2175, metadata !DIExpression(DW_OP_LLVM_fragment, 0, 64)), !dbg !2425
  store i64 0, ptr %0, align 8, !dbg !2426
  %switch58 = icmp eq i64 %result.sroa.0.0.copyload, 0, !dbg !2427
  br i1 %switch58, label %bb28, label %bb29, !dbg !2427

bb28:                                             ; preds = %bb11
; call core::option::unwrap_failed
  tail call void @_ZN4core6option13unwrap_failed17h7a3768beeda72485E(ptr noalias noundef nonnull readonly align 8 dereferenceable(24) @alloc_3d92cf09fa06db555c254e898e4a2d80) #23, !dbg !2428
  unreachable, !dbg !2428

bb29:                                             ; preds = %bb11
  call void @llvm.lifetime.start.p0(i64 24, ptr nonnull %state), !dbg !2429
  call void @llvm.memcpy.p0.p0.i64(ptr noundef nonnull align 8 dereferenceable(24) %state, ptr noundef nonnull align 8 dereferenceable(24) %x11, i64 24, i1 false), !dbg !2430
  tail call void @llvm.dbg.value(metadata ptr %state, metadata !2431, metadata !DIExpression()), !dbg !2439
  %6 = load i8, ptr %state, align 8, !dbg !2441, !range !1466, !noundef !29
  switch i8 %6, label %bb15 [
    i8 1, label %bb31
    i8 3, label %bb31
  ], !dbg !2442

bb31:                                             ; preds = %bb29, %bb29
  %7 = getelementptr inbounds i8, ptr %self, i64 32, !dbg !2443
  %8 = load i64, ptr %7, align 8, !dbg !2443, !noundef !29
  %9 = add i64 %8, -1, !dbg !2443
  store i64 %9, ptr %7, align 8, !dbg !2443
  br i1 %propagate, label %bb12, label %bb15, !dbg !2444

bb15:                                             ; preds = %bb29, %bb19, %bb31
  %10 = getelementptr inbounds i8, ptr %self, i64 24, !dbg !2445
  %11 = load i64, ptr %10, align 8, !dbg !2445, !noundef !29
  %12 = add i64 %11, -1, !dbg !2445
  store i64 %12, ptr %10, align 8, !dbg !2445
  call void @llvm.memcpy.p0.p0.i64(ptr noundef nonnull align 8 dereferenceable(24) %_0, ptr noundef nonnull align 8 dereferenceable(24) %state, i64 24, i1 false), !dbg !2446
  call void @llvm.lifetime.end.p0(i64 24, ptr nonnull %state), !dbg !2447
  br label %bb16, !dbg !2292

bb12:                                             ; preds = %bb31
  call void @llvm.lifetime.start.p0(i64 24, ptr nonnull %state5), !dbg !2448
  tail call void @llvm.dbg.value(metadata ptr %state, metadata !2170, metadata !DIExpression()), !dbg !2449
  tail call void @llvm.dbg.value(metadata ptr %state, metadata !2450, metadata !DIExpression()), !dbg !2454
  tail call void @llvm.dbg.value(metadata ptr %state, metadata !2163, metadata !DIExpression()), !dbg !2456
  tail call void @llvm.dbg.value(metadata i8 3, metadata !2171, metadata !DIExpression(DW_OP_LLVM_fragment, 0, 8)), !dbg !2449
  tail call void @llvm.dbg.value(metadata i8 3, metadata !2159, metadata !DIExpression(DW_OP_LLVM_fragment, 0, 8)), !dbg !2456
  call void @llvm.memcpy.p0.p0.i64(ptr noundef nonnull align 8 dereferenceable(24) %state5, ptr noundef nonnull align 8 dereferenceable(24) %x11, i64 24, i1 false), !dbg !2457
  store i8 3, ptr %state, align 8, !dbg !2458
  %13 = load i8, ptr %state5, align 8, !dbg !2459, !range !1466, !noundef !29
  %14 = icmp eq i8 %13, 1, !dbg !2459
  br i1 %14, label %bb13, label %bb22, !dbg !2459

bb13:                                             ; preds = %bb12
  %15 = getelementptr inbounds i8, ptr %state5, i64 1, !dbg !2460
  %16 = load i8, ptr %15, align 1, !dbg !2460, !range !1705, !noundef !29
  tail call void @llvm.dbg.value(metadata i8 %16, metadata !2121, metadata !DIExpression(DW_OP_constu, 0, DW_OP_ne, DW_OP_LLVM_convert, 1, DW_ATE_unsigned, DW_OP_LLVM_convert, 8, DW_ATE_unsigned, DW_OP_stack_value)), !dbg !2461
  tail call void @llvm.dbg.value(metadata i8 %16, metadata !2204, metadata !DIExpression(DW_OP_constu, 0, DW_OP_ne, DW_OP_LLVM_convert, 1, DW_ATE_unsigned, DW_OP_LLVM_convert, 8, DW_ATE_unsigned, DW_OP_stack_value)), !dbg !2206
  tail call void @llvm.dbg.value(metadata i1 true, metadata !2124, metadata !DIExpression(DW_OP_LLVM_convert, 1, DW_ATE_unsigned, DW_OP_LLVM_convert, 8, DW_ATE_unsigned, DW_OP_stack_value)), !dbg !2462
  tail call void @llvm.dbg.value(metadata i1 true, metadata !2205, metadata !DIExpression(DW_OP_LLVM_convert, 1, DW_ATE_unsigned, DW_OP_LLVM_convert, 8, DW_ATE_unsigned, DW_OP_stack_value)), !dbg !2206
  call void @llvm.lifetime.start.p0(i64 16, ptr nonnull %_47), !dbg !2207
  store i64 1, ptr %_47, align 8, !dbg !2463
  %17 = getelementptr inbounds i8, ptr %_47, i64 8, !dbg !2463
  store i8 %16, ptr %17, align 8, !dbg !2463
  %18 = getelementptr inbounds i8, ptr %_47, i64 9, !dbg !2463
  store i8 1, ptr %18, align 1, !dbg !2463
; invoke event_listener::sys::Inner<T>::notify
  invoke fastcc void @"_ZN14event_listener3sys14Inner$LT$T$GT$6notify17h401283e0196ad5aeE"(ptr noalias noundef nonnull align 8 dereferenceable(40) %self, ptr noalias nocapture noundef nonnull align 8 dereferenceable(16) %_47)
          to label %bb14 unwind label %cleanup, !dbg !2464

cleanup:                                          ; preds = %bb13
  %19 = landingpad { ptr, i32 }
          cleanup
  br label %bb17, !dbg !2465

bb14:                                             ; preds = %bb13
  call void @llvm.lifetime.end.p0(i64 16, ptr nonnull %_47), !dbg !2466
  br label %bb19, !dbg !2465

bb19:                                             ; preds = %bb2.i.i.i.i.i, %bb3.i.i, %bb22, %bb2.i.i, %bb14
  call void @llvm.lifetime.end.p0(i64 24, ptr nonnull %state5), !dbg !2465
  br label %bb15, !dbg !2467

bb22:                                             ; preds = %bb12
  tail call void @llvm.experimental.noalias.scope.decl(metadata !2468), !dbg !2465
  call void @llvm.dbg.value(metadata ptr %state5, metadata !1474, metadata !DIExpression()), !dbg !2471
  %cond.i = icmp eq i8 %13, 2, !dbg !2473
  br i1 %cond.i, label %bb2.i, label %bb19, !dbg !2473

bb2.i:                                            ; preds = %bb22
  %20 = getelementptr inbounds i8, ptr %state5, i64 8, !dbg !2473
  tail call void @llvm.experimental.noalias.scope.decl(metadata !2474), !dbg !2473
  call void @llvm.dbg.value(metadata ptr %20, metadata !1487, metadata !DIExpression()), !dbg !2477
  %21 = load ptr, ptr %20, align 8, !dbg !2479, !alias.scope !2480, !noundef !29
  %.not.i.i = icmp eq ptr %21, null, !dbg !2479
  %22 = getelementptr inbounds i8, ptr %state5, i64 16, !dbg !2479
  br i1 %.not.i.i, label %bb3.i.i, label %bb2.i.i, !dbg !2479

bb2.i.i:                                          ; preds = %bb2.i
  %_1.val1.i.i = load ptr, ptr %22, align 8, !dbg !2479, !alias.scope !2480, !noundef !29
  call void @llvm.dbg.value(metadata ptr undef, metadata !1499, metadata !DIExpression()), !dbg !2481
  call void @llvm.dbg.value(metadata ptr undef, metadata !1507, metadata !DIExpression()), !dbg !2483
  %23 = getelementptr inbounds i8, ptr %21, i64 24, !dbg !2485
  %_2.i.i.i.i = load ptr, ptr %23, align 8, !dbg !2485, !noalias !2480, !nonnull !29, !noundef !29
  invoke void %_2.i.i.i.i(ptr noundef %_1.val1.i.i)
          to label %bb19 unwind label %cleanup48, !dbg !2485

bb3.i.i:                                          ; preds = %bb2.i
  tail call void @llvm.experimental.noalias.scope.decl(metadata !2486), !dbg !2479
  call void @llvm.dbg.value(metadata ptr %22, metadata !1521, metadata !DIExpression()), !dbg !2489
  tail call void @llvm.experimental.noalias.scope.decl(metadata !2491), !dbg !2494
  call void @llvm.dbg.value(metadata ptr %22, metadata !1535, metadata !DIExpression()), !dbg !2495
  tail call void @llvm.experimental.noalias.scope.decl(metadata !2497), !dbg !2500
  call void @llvm.dbg.value(metadata i64 1, metadata !1549, metadata !DIExpression()), !dbg !2501
  call void @llvm.dbg.value(metadata i8 1, metadata !1559, metadata !DIExpression()), !dbg !2501
  call void @llvm.dbg.value(metadata i64 1, metadata !1570, metadata !DIExpression()), !dbg !2504
  call void @llvm.dbg.value(metadata i8 1, metadata !1578, metadata !DIExpression()), !dbg !2504
  call void @llvm.dbg.value(metadata i8 2, metadata !1581, metadata !DIExpression()), !dbg !2506
  call void @llvm.dbg.value(metadata ptr %22, metadata !1568, metadata !DIExpression()), !dbg !2508
  call void @llvm.dbg.value(metadata ptr %22, metadata !1590, metadata !DIExpression()), !dbg !2509
  call void @llvm.dbg.value(metadata ptr %22, metadata !1601, metadata !DIExpression()), !dbg !2511
  %self6.i.i.i.i.i = load ptr, ptr %22, align 8, !dbg !2513, !alias.scope !2514, !nonnull !29, !noundef !29
  call void @llvm.dbg.value(metadata ptr %self6.i.i.i.i.i, metadata !1558, metadata !DIExpression()), !dbg !2501
  call void @llvm.dbg.value(metadata ptr %self6.i.i.i.i.i, metadata !1577, metadata !DIExpression()), !dbg !2504
  %24 = atomicrmw sub ptr %self6.i.i.i.i.i, i64 1 release, align 8, !dbg !2515, !noalias !2514
  %25 = icmp eq i64 %24, 1, !dbg !2516
  br i1 %25, label %bb2.i.i.i.i.i, label %bb19, !dbg !2516

bb2.i.i.i.i.i:                                    ; preds = %bb3.i.i
  fence acquire, !dbg !2517
; call alloc::sync::Arc<T,A>::drop_slow
  call fastcc void @"_ZN5alloc4sync16Arc$LT$T$C$A$GT$9drop_slow17h9675029db5300a12E"(ptr noalias noundef nonnull align 8 dereferenceable(8) %22), !dbg !2518
  br label %bb19, !dbg !2518

bb17:                                             ; preds = %cleanup, %cleanup48
  %.pn = phi { ptr, i32 } [ %27, %cleanup48 ], [ %19, %cleanup ]
; invoke core::ptr::drop_in_place<event_listener::State<()>>
  invoke fastcc void @"_ZN4core3ptr58drop_in_place$LT$event_listener..State$LT$$LP$$RP$$GT$$GT$17hb4bae8a064ddb323E"(ptr noalias noundef nonnull align 8 dereferenceable(24) %state) #24
          to label %bb18 unwind label %terminate, !dbg !2447

terminate:                                        ; preds = %bb17
  %26 = landingpad { ptr, i32 }
          filter [0 x ptr] zeroinitializer
; call core::panicking::panic_in_cleanup
  tail call void @_ZN4core9panicking16panic_in_cleanup17h43442956f23e9cbeE() #25, !dbg !2519
  unreachable, !dbg !2519

cleanup48:                                        ; preds = %bb2.i.i
  %27 = landingpad { ptr, i32 }
          cleanup
  br label %bb17

bb18:                                             ; preds = %bb17
  resume { ptr, i32 } %.pn, !dbg !2519
}

; event_listener::sys::<impl event_listener::Inner<T>>::notify
; Function Attrs: cold nonlazybind uwtable
define internal fastcc void @"_ZN14event_listener3sys48_$LT$impl$u20$event_listener..Inner$LT$T$GT$$GT$6notify17h5d5eb930e9552c6bE"(ptr noundef nonnull align 8 %self, i64 noundef %notify) unnamed_addr #1 personality ptr @rust_eh_personality !dbg !2520 {
start:
  %_5 = alloca [24 x i8], align 8
  tail call void @llvm.dbg.value(metadata ptr %self, metadata !2526, metadata !DIExpression()), !dbg !2528
  tail call void @llvm.dbg.value(metadata i64 %notify, metadata !2527, metadata !DIExpression()), !dbg !2528
  call void @llvm.lifetime.start.p0(i64 24, ptr nonnull %_5), !dbg !2529
  tail call void @llvm.experimental.noalias.scope.decl(metadata !2530), !dbg !2529
  call void @llvm.dbg.value(metadata ptr %self, metadata !2533, metadata !DIExpression()), !dbg !2548
  call void @llvm.dbg.value(metadata i32 0, metadata !2550, metadata !DIExpression()), !dbg !2577
  call void @llvm.dbg.value(metadata i32 1, metadata !2574, metadata !DIExpression()), !dbg !2577
  call void @llvm.dbg.value(metadata i8 2, metadata !2575, metadata !DIExpression()), !dbg !2577
  call void @llvm.dbg.value(metadata i8 0, metadata !2576, metadata !DIExpression()), !dbg !2577
  call void @llvm.dbg.value(metadata ptr %self, metadata !2615, metadata !DIExpression()), !dbg !2617
  call void @llvm.dbg.value(metadata ptr %self, metadata !2587, metadata !DIExpression()), !dbg !2618
  call void @llvm.dbg.value(metadata ptr %self, metadata !2573, metadata !DIExpression()), !dbg !2577
  call void @llvm.dbg.value(metadata i8 2, metadata !2619, metadata !DIExpression()), !dbg !2632
  call void @llvm.dbg.value(metadata i8 0, metadata !2628, metadata !DIExpression()), !dbg !2632
  call void @llvm.dbg.value(metadata ptr %self, metadata !2625, metadata !DIExpression()), !dbg !2632
  call void @llvm.dbg.value(metadata i32 0, metadata !2626, metadata !DIExpression()), !dbg !2632
  call void @llvm.dbg.value(metadata i32 1, metadata !2627, metadata !DIExpression()), !dbg !2632
  %0 = cmpxchg ptr %self, i32 0, i32 1 acquire monotonic, align 4, !dbg !2634, !noalias !2635
  %1 = extractvalue { i32, i1 } %0, 1, !dbg !2634
  call void @llvm.dbg.value(metadata ptr undef, metadata !2638, metadata !DIExpression()), !dbg !2647
  call void @llvm.dbg.value(metadata ptr undef, metadata !2649, metadata !DIExpression()), !dbg !2654
  br i1 %1, label %bb2.i.i, label %bb4.i.i, !dbg !2656

bb4.i.i:                                          ; preds = %start
; call std::sys::sync::mutex::futex::Mutex::lock_contended
  tail call void @_ZN3std3sys4sync5mutex5futex5Mutex14lock_contended17h8fd9cbd50b365b92E(ptr noundef nonnull align 4 %self), !dbg !2658, !noalias !2635
  br label %bb2.i.i, !dbg !2658

bb2.i.i:                                          ; preds = %bb4.i.i, %start
  call void @llvm.dbg.value(metadata ptr %self, metadata !2659, metadata !DIExpression()), !dbg !2663
  call void @llvm.dbg.value(metadata ptr @_ZN3std9panicking11panic_count18GLOBAL_PANIC_COUNT17h00e7dcd913cdfbe0E, metadata !2665, metadata !DIExpression()), !dbg !2673
  call void @llvm.dbg.value(metadata i8 0, metadata !2672, metadata !DIExpression()), !dbg !2673
  call void @llvm.dbg.value(metadata i8 0, metadata !2722, metadata !DIExpression()), !dbg !2731
  call void @llvm.dbg.value(metadata ptr %self, metadata !2718, metadata !DIExpression(DW_OP_plus_uconst, 4, DW_OP_stack_value)), !dbg !2741
  call void @llvm.dbg.value(metadata ptr %self, metadata !2739, metadata !DIExpression(DW_OP_plus_uconst, 4, DW_OP_stack_value)), !dbg !2742
  call void @llvm.dbg.value(metadata i8 0, metadata !2743, metadata !DIExpression()), !dbg !2749
  call void @llvm.dbg.value(metadata ptr @_ZN3std9panicking11panic_count18GLOBAL_PANIC_COUNT17h00e7dcd913cdfbe0E, metadata !2748, metadata !DIExpression()), !dbg !2749
  %2 = load atomic i64, ptr @_ZN3std9panicking11panic_count18GLOBAL_PANIC_COUNT17h00e7dcd913cdfbe0E monotonic, align 8, !dbg !2751, !noalias !2752
  %_6.i.i.i.i = and i64 %2, 9223372036854775807, !dbg !2755
  %3 = icmp eq i64 %_6.i.i.i.i, 0, !dbg !2755
  br i1 %3, label %"_ZN14event_listener3sys48_$LT$impl$u20$event_listener..Inner$LT$T$GT$$GT$4lock17h7a863fbd782ce731E.exit", label %bb6.i.i.i.i, !dbg !2755

bb6.i.i.i.i:                                      ; preds = %bb2.i.i
; call std::panicking::panic_count::is_zero_slow_path
  %4 = tail call noundef zeroext i1 @_ZN3std9panicking11panic_count17is_zero_slow_path17h24de30857bbd803cE(), !dbg !2756, !noalias !2752
  %5 = xor i1 %4, true, !dbg !2757
  %6 = zext i1 %5 to i8, !dbg !2758
  br label %"_ZN14event_listener3sys48_$LT$impl$u20$event_listener..Inner$LT$T$GT$$GT$4lock17h7a863fbd782ce731E.exit", !dbg !2756

"_ZN14event_listener3sys48_$LT$impl$u20$event_listener..Inner$LT$T$GT$$GT$4lock17h7a863fbd782ce731E.exit": ; preds = %bb2.i.i, %bb6.i.i.i.i
  %.val3.i = phi i8 [ %6, %bb6.i.i.i.i ], [ 0, %bb2.i.i ], !dbg !2759
  %_3.i.i.i = getelementptr inbounds i8, ptr %self, i64 4, !dbg !2760
  call void @llvm.dbg.value(metadata ptr %_3.i.i.i, metadata !2718, metadata !DIExpression()), !dbg !2741
  call void @llvm.dbg.value(metadata ptr %_3.i.i.i, metadata !2739, metadata !DIExpression()), !dbg !2742
  call void @llvm.dbg.value(metadata i8 %.val3.i, metadata !2719, metadata !DIExpression(DW_OP_LLVM_convert, 1, DW_ATE_unsigned, DW_OP_LLVM_convert, 8, DW_ATE_unsigned, DW_OP_stack_value)), !dbg !2761
  call void @llvm.dbg.value(metadata ptr %_3.i.i.i, metadata !2730, metadata !DIExpression()), !dbg !2731
  call void @llvm.dbg.value(metadata i8 0, metadata !2762, metadata !DIExpression()), !dbg !2769
  call void @llvm.dbg.value(metadata ptr %_3.i.i.i, metadata !2768, metadata !DIExpression()), !dbg !2769
  %7 = load atomic i8, ptr %_3.i.i.i monotonic, align 4, !dbg !2771, !noalias !2752
  %8 = getelementptr inbounds i8, ptr %_5, i64 8, !dbg !2772
  store ptr %self, ptr %8, align 8, !dbg !2772, !alias.scope !2530
  %9 = getelementptr inbounds i8, ptr %_5, i64 16, !dbg !2772
  store i8 %.val3.i, ptr %9, align 8, !dbg !2772, !alias.scope !2530
  store ptr %self, ptr %_5, align 8, !dbg !2772, !alias.scope !2530
  tail call void @llvm.dbg.value(metadata ptr %_5, metadata !2773, metadata !DIExpression()), !dbg !2781
  tail call void @llvm.dbg.value(metadata ptr %_5, metadata !2782, metadata !DIExpression(DW_OP_plus_uconst, 8, DW_OP_stack_value)), !dbg !2790
  tail call void @llvm.dbg.value(metadata ptr %self, metadata !2792, metadata !DIExpression(DW_OP_plus_uconst, 8, DW_OP_stack_value)), !dbg !2801
  %_12 = getelementptr inbounds i8, ptr %self, i64 8, !dbg !2803
; invoke event_listener::sys::Inner<T>::notify
  invoke fastcc void @"_ZN14event_listener3sys14Inner$LT$T$GT$6notify17hf7dd906fd8925133E"(ptr noalias noundef nonnull align 8 dereferenceable(40) %_12, i64 noundef %notify)
          to label %bb2 unwind label %cleanup6, !dbg !2529

cleanup6:                                         ; preds = %"_ZN14event_listener3sys48_$LT$impl$u20$event_listener..Inner$LT$T$GT$$GT$4lock17h7a863fbd782ce731E.exit"
  %10 = landingpad { ptr, i32 }
          cleanup
; invoke core::ptr::drop_in_place<event_listener::sys::ListLock<()>>
  invoke fastcc void @"_ZN4core3ptr66drop_in_place$LT$event_listener..sys..ListLock$LT$$LP$$RP$$GT$$GT$17h5235da984ad70df5E"(ptr noalias noundef nonnull align 8 dereferenceable(24) %_5) #24
          to label %bb5 unwind label %terminate, !dbg !2804

bb2:                                              ; preds = %"_ZN14event_listener3sys48_$LT$impl$u20$event_listener..Inner$LT$T$GT$$GT$4lock17h7a863fbd782ce731E.exit"
  call void @llvm.dbg.value(metadata ptr %_5, metadata !2805, metadata !DIExpression()), !dbg !2813
  call void @llvm.dbg.value(metadata i8 1, metadata !2815, metadata !DIExpression()), !dbg !2824
  call void @llvm.dbg.value(metadata ptr %_5, metadata !2833, metadata !DIExpression()), !dbg !2837
  call void @llvm.dbg.value(metadata ptr %self, metadata !2834, metadata !DIExpression(DW_OP_plus_uconst, 8, DW_OP_stack_value)), !dbg !2838
  %11 = getelementptr inbounds i8, ptr %self, i64 40, !dbg !2839
  %_4.i.i = load i64, ptr %11, align 8, !dbg !2839, !noalias !2840, !noundef !29
  %12 = getelementptr inbounds i8, ptr %self, i64 32, !dbg !2845
  %_5.i.i = load i64, ptr %12, align 8, !dbg !2845, !noalias !2840, !noundef !29
  %_3.i.i = icmp ult i64 %_4.i.i, %_5.i.i, !dbg !2839
  %_4..i.i = select i1 %_3.i.i, i64 %_4.i.i, i64 -1, !dbg !2846
  call void @llvm.dbg.value(metadata i64 %_4..i.i, metadata !2835, metadata !DIExpression()), !dbg !2847
  call void @llvm.dbg.value(metadata ptr %self, metadata !2822, metadata !DIExpression(DW_OP_plus_uconst, 48, DW_OP_stack_value)), !dbg !2824
  call void @llvm.dbg.value(metadata i64 %_4..i.i, metadata !2823, metadata !DIExpression()), !dbg !2824
  call void @llvm.dbg.value(metadata ptr %self, metadata !2848, metadata !DIExpression(DW_OP_plus_uconst, 48, DW_OP_stack_value)), !dbg !2856
  %_17.i.i = getelementptr inbounds i8, ptr %self, i64 48, !dbg !2858
  call void @llvm.dbg.value(metadata i8 1, metadata !2859, metadata !DIExpression()), !dbg !2866
  call void @llvm.dbg.value(metadata ptr %_17.i.i, metadata !2864, metadata !DIExpression()), !dbg !2866
  call void @llvm.dbg.value(metadata i64 %_4..i.i, metadata !2865, metadata !DIExpression()), !dbg !2866
  store atomic i64 %_4..i.i, ptr %_17.i.i release, align 8, !dbg !2868, !noalias !2840
  call void @llvm.dbg.value(metadata ptr undef, metadata !2869, metadata !DIExpression()), !dbg !2875
  call void @llvm.dbg.value(metadata i32 0, metadata !2877, metadata !DIExpression()), !dbg !2886
  call void @llvm.dbg.value(metadata i8 1, metadata !2885, metadata !DIExpression()), !dbg !2886
  call void @llvm.dbg.value(metadata i32 0, metadata !2901, metadata !DIExpression()), !dbg !2909
  call void @llvm.dbg.value(metadata i8 1, metadata !2908, metadata !DIExpression()), !dbg !2909
  call void @llvm.dbg.value(metadata ptr undef, metadata !2899, metadata !DIExpression()), !dbg !2911
  call void @llvm.dbg.value(metadata ptr @_ZN3std9panicking11panic_count18GLOBAL_PANIC_COUNT17h00e7dcd913cdfbe0E, metadata !2912, metadata !DIExpression()), !dbg !2917
  call void @llvm.dbg.value(metadata i8 0, metadata !2916, metadata !DIExpression()), !dbg !2917
  call void @llvm.dbg.value(metadata i8 1, metadata !2937, metadata !DIExpression()), !dbg !2946
  call void @llvm.dbg.value(metadata i8 0, metadata !2945, metadata !DIExpression()), !dbg !2946
  call void @llvm.dbg.value(metadata ptr %_3.i.i.i, metadata !2934, metadata !DIExpression()), !dbg !2948
  call void @llvm.dbg.value(metadata ptr undef, metadata !2935, metadata !DIExpression()), !dbg !2948
  %_3.not.i.i.i.i = icmp eq i8 %.val3.i, 0, !dbg !2949
  br i1 %_3.not.i.i.i.i, label %bb1.i.i.i.i, label %_ZN3std4sync6poison4Flag4done17h6b62417d8d60c5ceE.exit.i.i.i, !dbg !2949

bb1.i.i.i.i:                                      ; preds = %bb2
  call void @llvm.dbg.value(metadata i8 0, metadata !2743, metadata !DIExpression()), !dbg !2950
  call void @llvm.dbg.value(metadata ptr @_ZN3std9panicking11panic_count18GLOBAL_PANIC_COUNT17h00e7dcd913cdfbe0E, metadata !2748, metadata !DIExpression()), !dbg !2950
  %13 = load atomic i64, ptr @_ZN3std9panicking11panic_count18GLOBAL_PANIC_COUNT17h00e7dcd913cdfbe0E monotonic, align 8, !dbg !2952, !noalias !2953
  %_7.i.i.i.i = and i64 %13, 9223372036854775807, !dbg !2956
  %14 = icmp eq i64 %_7.i.i.i.i, 0, !dbg !2956
  br i1 %14, label %_ZN3std4sync6poison4Flag4done17h6b62417d8d60c5ceE.exit.i.i.i, label %bb6.i.i.i.i9, !dbg !2956

bb6.i.i.i.i9:                                     ; preds = %bb1.i.i.i.i
; call std::panicking::panic_count::is_zero_slow_path
  %_6.i.i.i.i10 = tail call noundef zeroext i1 @_ZN3std9panicking11panic_count17is_zero_slow_path17h24de30857bbd803cE(), !dbg !2957, !noalias !2953
  br i1 %_6.i.i.i.i10, label %_ZN3std4sync6poison4Flag4done17h6b62417d8d60c5ceE.exit.i.i.i, label %bb2.i.i.i.i, !dbg !2958

bb2.i.i.i.i:                                      ; preds = %bb6.i.i.i.i9
  call void @llvm.dbg.value(metadata ptr %_3.i.i.i, metadata !2944, metadata !DIExpression()), !dbg !2946
  call void @llvm.dbg.value(metadata i8 0, metadata !2959, metadata !DIExpression()), !dbg !2967
  call void @llvm.dbg.value(metadata ptr %_3.i.i.i, metadata !2965, metadata !DIExpression()), !dbg !2967
  call void @llvm.dbg.value(metadata i8 1, metadata !2966, metadata !DIExpression()), !dbg !2967
  store atomic i8 1, ptr %_3.i.i.i monotonic, align 4, !dbg !2969, !noalias !2953
  br label %_ZN3std4sync6poison4Flag4done17h6b62417d8d60c5ceE.exit.i.i.i, !dbg !2970

_ZN3std4sync6poison4Flag4done17h6b62417d8d60c5ceE.exit.i.i.i: ; preds = %bb2.i.i.i.i, %bb6.i.i.i.i9, %bb1.i.i.i.i, %bb2
  call void @llvm.dbg.value(metadata ptr %self, metadata !2892, metadata !DIExpression()), !dbg !2971
  call void @llvm.dbg.value(metadata ptr %self, metadata !2884, metadata !DIExpression()), !dbg !2886
  call void @llvm.dbg.value(metadata ptr %self, metadata !2907, metadata !DIExpression()), !dbg !2909
  %15 = atomicrmw xchg ptr %self, i32 0 release, align 4, !dbg !2972, !noalias !2953
  %_8.i.i.i = icmp eq i32 %15, 2, !dbg !2973
  br i1 %_8.i.i.i, label %bb2.i.i.i, label %"_ZN4core3ptr66drop_in_place$LT$event_listener..sys..ListLock$LT$$LP$$RP$$GT$$GT$17h5235da984ad70df5E.exit", !dbg !2973

bb2.i.i.i:                                        ; preds = %_ZN3std4sync6poison4Flag4done17h6b62417d8d60c5ceE.exit.i.i.i
; call std::sys::sync::mutex::futex::Mutex::wake
  tail call void @_ZN3std3sys4sync5mutex5futex5Mutex4wake17hc487312157454c34E(ptr noundef nonnull align 4 %self), !dbg !2974, !noalias !2953
  br label %"_ZN4core3ptr66drop_in_place$LT$event_listener..sys..ListLock$LT$$LP$$RP$$GT$$GT$17h5235da984ad70df5E.exit", !dbg !2974

"_ZN4core3ptr66drop_in_place$LT$event_listener..sys..ListLock$LT$$LP$$RP$$GT$$GT$17h5235da984ad70df5E.exit": ; preds = %_ZN3std4sync6poison4Flag4done17h6b62417d8d60c5ceE.exit.i.i.i, %bb2.i.i.i
  call void @llvm.lifetime.end.p0(i64 24, ptr nonnull %_5), !dbg !2804
  ret void, !dbg !2975

terminate:                                        ; preds = %cleanup6
  %16 = landingpad { ptr, i32 }
          filter [0 x ptr] zeroinitializer
; call core::panicking::panic_in_cleanup
  tail call void @_ZN4core9panicking16panic_in_cleanup17h43442956f23e9cbeE() #25, !dbg !2976
  unreachable, !dbg !2976

bb5:                                              ; preds = %cleanup6
  resume { ptr, i32 } %10, !dbg !2976
}

; event_listener::sys::<impl event_listener::Inner<T>>::notify
; Function Attrs: cold nonlazybind uwtable
define internal fastcc void @"_ZN14event_listener3sys48_$LT$impl$u20$event_listener..Inner$LT$T$GT$$GT$6notify17haf0738da4fde4717E"(ptr noundef nonnull align 8 %self, i64 noundef %notify) unnamed_addr #1 personality ptr @rust_eh_personality !dbg !2977 {
start:
  %_5 = alloca [24 x i8], align 8
  tail call void @llvm.dbg.value(metadata ptr %self, metadata !2983, metadata !DIExpression()), !dbg !2985
  tail call void @llvm.dbg.value(metadata i64 %notify, metadata !2984, metadata !DIExpression()), !dbg !2985
  call void @llvm.lifetime.start.p0(i64 24, ptr nonnull %_5), !dbg !2986
  tail call void @llvm.experimental.noalias.scope.decl(metadata !2987), !dbg !2986
  call void @llvm.dbg.value(metadata ptr %self, metadata !2533, metadata !DIExpression()), !dbg !2990
  call void @llvm.dbg.value(metadata i32 0, metadata !2550, metadata !DIExpression()), !dbg !2992
  call void @llvm.dbg.value(metadata i32 1, metadata !2574, metadata !DIExpression()), !dbg !2992
  call void @llvm.dbg.value(metadata i8 2, metadata !2575, metadata !DIExpression()), !dbg !2992
  call void @llvm.dbg.value(metadata i8 0, metadata !2576, metadata !DIExpression()), !dbg !2992
  call void @llvm.dbg.value(metadata ptr %self, metadata !2615, metadata !DIExpression()), !dbg !2996
  call void @llvm.dbg.value(metadata ptr %self, metadata !2587, metadata !DIExpression()), !dbg !2997
  call void @llvm.dbg.value(metadata ptr %self, metadata !2573, metadata !DIExpression()), !dbg !2992
  call void @llvm.dbg.value(metadata i8 2, metadata !2619, metadata !DIExpression()), !dbg !2998
  call void @llvm.dbg.value(metadata i8 0, metadata !2628, metadata !DIExpression()), !dbg !2998
  call void @llvm.dbg.value(metadata ptr %self, metadata !2625, metadata !DIExpression()), !dbg !2998
  call void @llvm.dbg.value(metadata i32 0, metadata !2626, metadata !DIExpression()), !dbg !2998
  call void @llvm.dbg.value(metadata i32 1, metadata !2627, metadata !DIExpression()), !dbg !2998
  %0 = cmpxchg ptr %self, i32 0, i32 1 acquire monotonic, align 4, !dbg !3000, !noalias !3001
  %1 = extractvalue { i32, i1 } %0, 1, !dbg !3000
  call void @llvm.dbg.value(metadata ptr undef, metadata !2638, metadata !DIExpression()), !dbg !3004
  call void @llvm.dbg.value(metadata ptr undef, metadata !2649, metadata !DIExpression()), !dbg !3006
  br i1 %1, label %bb2.i.i, label %bb4.i.i, !dbg !3008

bb4.i.i:                                          ; preds = %start
; call std::sys::sync::mutex::futex::Mutex::lock_contended
  tail call void @_ZN3std3sys4sync5mutex5futex5Mutex14lock_contended17h8fd9cbd50b365b92E(ptr noundef nonnull align 4 %self), !dbg !3009, !noalias !3001
  br label %bb2.i.i, !dbg !3009

bb2.i.i:                                          ; preds = %bb4.i.i, %start
  call void @llvm.dbg.value(metadata ptr %self, metadata !2659, metadata !DIExpression()), !dbg !3010
  call void @llvm.dbg.value(metadata ptr @_ZN3std9panicking11panic_count18GLOBAL_PANIC_COUNT17h00e7dcd913cdfbe0E, metadata !2665, metadata !DIExpression()), !dbg !3012
  call void @llvm.dbg.value(metadata i8 0, metadata !2672, metadata !DIExpression()), !dbg !3012
  call void @llvm.dbg.value(metadata i8 0, metadata !2722, metadata !DIExpression()), !dbg !3018
  call void @llvm.dbg.value(metadata ptr %self, metadata !2718, metadata !DIExpression(DW_OP_plus_uconst, 4, DW_OP_stack_value)), !dbg !3021
  call void @llvm.dbg.value(metadata ptr %self, metadata !2739, metadata !DIExpression(DW_OP_plus_uconst, 4, DW_OP_stack_value)), !dbg !3022
  call void @llvm.dbg.value(metadata i8 0, metadata !2743, metadata !DIExpression()), !dbg !3023
  call void @llvm.dbg.value(metadata ptr @_ZN3std9panicking11panic_count18GLOBAL_PANIC_COUNT17h00e7dcd913cdfbe0E, metadata !2748, metadata !DIExpression()), !dbg !3023
  %2 = load atomic i64, ptr @_ZN3std9panicking11panic_count18GLOBAL_PANIC_COUNT17h00e7dcd913cdfbe0E monotonic, align 8, !dbg !3025, !noalias !3026
  %_6.i.i.i.i = and i64 %2, 9223372036854775807, !dbg !3029
  %3 = icmp eq i64 %_6.i.i.i.i, 0, !dbg !3029
  br i1 %3, label %"_ZN14event_listener3sys48_$LT$impl$u20$event_listener..Inner$LT$T$GT$$GT$4lock17h7a863fbd782ce731E.exit", label %bb6.i.i.i.i, !dbg !3029

bb6.i.i.i.i:                                      ; preds = %bb2.i.i
; call std::panicking::panic_count::is_zero_slow_path
  %4 = tail call noundef zeroext i1 @_ZN3std9panicking11panic_count17is_zero_slow_path17h24de30857bbd803cE(), !dbg !3030, !noalias !3026
  %5 = xor i1 %4, true, !dbg !3031
  %6 = zext i1 %5 to i8, !dbg !3032
  br label %"_ZN14event_listener3sys48_$LT$impl$u20$event_listener..Inner$LT$T$GT$$GT$4lock17h7a863fbd782ce731E.exit", !dbg !3030

"_ZN14event_listener3sys48_$LT$impl$u20$event_listener..Inner$LT$T$GT$$GT$4lock17h7a863fbd782ce731E.exit": ; preds = %bb2.i.i, %bb6.i.i.i.i
  %.val3.i = phi i8 [ %6, %bb6.i.i.i.i ], [ 0, %bb2.i.i ], !dbg !3033
  %_3.i.i.i = getelementptr inbounds i8, ptr %self, i64 4, !dbg !3034
  call void @llvm.dbg.value(metadata ptr %_3.i.i.i, metadata !2718, metadata !DIExpression()), !dbg !3021
  call void @llvm.dbg.value(metadata ptr %_3.i.i.i, metadata !2739, metadata !DIExpression()), !dbg !3022
  call void @llvm.dbg.value(metadata i8 %.val3.i, metadata !2719, metadata !DIExpression(DW_OP_LLVM_convert, 1, DW_ATE_unsigned, DW_OP_LLVM_convert, 8, DW_ATE_unsigned, DW_OP_stack_value)), !dbg !3035
  call void @llvm.dbg.value(metadata ptr %_3.i.i.i, metadata !2730, metadata !DIExpression()), !dbg !3018
  call void @llvm.dbg.value(metadata i8 0, metadata !2762, metadata !DIExpression()), !dbg !3036
  call void @llvm.dbg.value(metadata ptr %_3.i.i.i, metadata !2768, metadata !DIExpression()), !dbg !3036
  %7 = load atomic i8, ptr %_3.i.i.i monotonic, align 4, !dbg !3038, !noalias !3026
  %8 = getelementptr inbounds i8, ptr %_5, i64 8, !dbg !3039
  store ptr %self, ptr %8, align 8, !dbg !3039, !alias.scope !2987
  %9 = getelementptr inbounds i8, ptr %_5, i64 16, !dbg !3039
  store i8 %.val3.i, ptr %9, align 8, !dbg !3039, !alias.scope !2987
  store ptr %self, ptr %_5, align 8, !dbg !3039, !alias.scope !2987
  tail call void @llvm.dbg.value(metadata ptr %_5, metadata !3040, metadata !DIExpression()), !dbg !3044
  tail call void @llvm.dbg.value(metadata ptr %_5, metadata !3045, metadata !DIExpression(DW_OP_plus_uconst, 8, DW_OP_stack_value)), !dbg !3049
  tail call void @llvm.dbg.value(metadata ptr %self, metadata !3051, metadata !DIExpression(DW_OP_plus_uconst, 8, DW_OP_stack_value)), !dbg !3055
  %_12 = getelementptr inbounds i8, ptr %self, i64 8, !dbg !3057
; invoke event_listener::sys::Inner<T>::notify
  invoke fastcc void @"_ZN14event_listener3sys14Inner$LT$T$GT$6notify17h5c2e003e1c8210a5E"(ptr noalias noundef nonnull align 8 dereferenceable(40) %_12, i64 noundef %notify)
          to label %bb2 unwind label %cleanup6, !dbg !2986

cleanup6:                                         ; preds = %"_ZN14event_listener3sys48_$LT$impl$u20$event_listener..Inner$LT$T$GT$$GT$4lock17h7a863fbd782ce731E.exit"
  %10 = landingpad { ptr, i32 }
          cleanup
; invoke core::ptr::drop_in_place<event_listener::sys::ListLock<()>>
  invoke fastcc void @"_ZN4core3ptr66drop_in_place$LT$event_listener..sys..ListLock$LT$$LP$$RP$$GT$$GT$17h5235da984ad70df5E"(ptr noalias noundef nonnull align 8 dereferenceable(24) %_5) #24
          to label %bb5 unwind label %terminate, !dbg !3058

bb2:                                              ; preds = %"_ZN14event_listener3sys48_$LT$impl$u20$event_listener..Inner$LT$T$GT$$GT$4lock17h7a863fbd782ce731E.exit"
  call void @llvm.dbg.value(metadata ptr %_5, metadata !2805, metadata !DIExpression()), !dbg !3059
  call void @llvm.dbg.value(metadata i8 1, metadata !2815, metadata !DIExpression()), !dbg !3061
  call void @llvm.dbg.value(metadata ptr %_5, metadata !2833, metadata !DIExpression()), !dbg !3064
  call void @llvm.dbg.value(metadata ptr %self, metadata !2834, metadata !DIExpression(DW_OP_plus_uconst, 8, DW_OP_stack_value)), !dbg !3065
  %11 = getelementptr inbounds i8, ptr %self, i64 40, !dbg !3066
  %_4.i.i = load i64, ptr %11, align 8, !dbg !3066, !noalias !3067, !noundef !29
  %12 = getelementptr inbounds i8, ptr %self, i64 32, !dbg !3072
  %_5.i.i = load i64, ptr %12, align 8, !dbg !3072, !noalias !3067, !noundef !29
  %_3.i.i = icmp ult i64 %_4.i.i, %_5.i.i, !dbg !3066
  %_4..i.i = select i1 %_3.i.i, i64 %_4.i.i, i64 -1, !dbg !3073
  call void @llvm.dbg.value(metadata i64 %_4..i.i, metadata !2835, metadata !DIExpression()), !dbg !3074
  call void @llvm.dbg.value(metadata ptr %self, metadata !2822, metadata !DIExpression(DW_OP_plus_uconst, 48, DW_OP_stack_value)), !dbg !3061
  call void @llvm.dbg.value(metadata i64 %_4..i.i, metadata !2823, metadata !DIExpression()), !dbg !3061
  call void @llvm.dbg.value(metadata ptr %self, metadata !2848, metadata !DIExpression(DW_OP_plus_uconst, 48, DW_OP_stack_value)), !dbg !3075
  %_17.i.i = getelementptr inbounds i8, ptr %self, i64 48, !dbg !3077
  call void @llvm.dbg.value(metadata i8 1, metadata !2859, metadata !DIExpression()), !dbg !3078
  call void @llvm.dbg.value(metadata ptr %_17.i.i, metadata !2864, metadata !DIExpression()), !dbg !3078
  call void @llvm.dbg.value(metadata i64 %_4..i.i, metadata !2865, metadata !DIExpression()), !dbg !3078
  store atomic i64 %_4..i.i, ptr %_17.i.i release, align 8, !dbg !3080, !noalias !3067
  call void @llvm.dbg.value(metadata ptr undef, metadata !2869, metadata !DIExpression()), !dbg !3081
  call void @llvm.dbg.value(metadata i32 0, metadata !2877, metadata !DIExpression()), !dbg !3083
  call void @llvm.dbg.value(metadata i8 1, metadata !2885, metadata !DIExpression()), !dbg !3083
  call void @llvm.dbg.value(metadata i32 0, metadata !2901, metadata !DIExpression()), !dbg !3087
  call void @llvm.dbg.value(metadata i8 1, metadata !2908, metadata !DIExpression()), !dbg !3087
  call void @llvm.dbg.value(metadata ptr undef, metadata !2899, metadata !DIExpression()), !dbg !3089
  call void @llvm.dbg.value(metadata ptr @_ZN3std9panicking11panic_count18GLOBAL_PANIC_COUNT17h00e7dcd913cdfbe0E, metadata !2912, metadata !DIExpression()), !dbg !3090
  call void @llvm.dbg.value(metadata i8 0, metadata !2916, metadata !DIExpression()), !dbg !3090
  call void @llvm.dbg.value(metadata i8 1, metadata !2937, metadata !DIExpression()), !dbg !3096
  call void @llvm.dbg.value(metadata i8 0, metadata !2945, metadata !DIExpression()), !dbg !3096
  call void @llvm.dbg.value(metadata ptr %_3.i.i.i, metadata !2934, metadata !DIExpression()), !dbg !3098
  call void @llvm.dbg.value(metadata ptr undef, metadata !2935, metadata !DIExpression()), !dbg !3098
  %_3.not.i.i.i.i = icmp eq i8 %.val3.i, 0, !dbg !3099
  br i1 %_3.not.i.i.i.i, label %bb1.i.i.i.i, label %_ZN3std4sync6poison4Flag4done17h6b62417d8d60c5ceE.exit.i.i.i, !dbg !3099

bb1.i.i.i.i:                                      ; preds = %bb2
  call void @llvm.dbg.value(metadata i8 0, metadata !2743, metadata !DIExpression()), !dbg !3100
  call void @llvm.dbg.value(metadata ptr @_ZN3std9panicking11panic_count18GLOBAL_PANIC_COUNT17h00e7dcd913cdfbe0E, metadata !2748, metadata !DIExpression()), !dbg !3100
  %13 = load atomic i64, ptr @_ZN3std9panicking11panic_count18GLOBAL_PANIC_COUNT17h00e7dcd913cdfbe0E monotonic, align 8, !dbg !3102, !noalias !3103
  %_7.i.i.i.i = and i64 %13, 9223372036854775807, !dbg !3106
  %14 = icmp eq i64 %_7.i.i.i.i, 0, !dbg !3106
  br i1 %14, label %_ZN3std4sync6poison4Flag4done17h6b62417d8d60c5ceE.exit.i.i.i, label %bb6.i.i.i.i9, !dbg !3106

bb6.i.i.i.i9:                                     ; preds = %bb1.i.i.i.i
; call std::panicking::panic_count::is_zero_slow_path
  %_6.i.i.i.i10 = tail call noundef zeroext i1 @_ZN3std9panicking11panic_count17is_zero_slow_path17h24de30857bbd803cE(), !dbg !3107, !noalias !3103
  br i1 %_6.i.i.i.i10, label %_ZN3std4sync6poison4Flag4done17h6b62417d8d60c5ceE.exit.i.i.i, label %bb2.i.i.i.i, !dbg !3108

bb2.i.i.i.i:                                      ; preds = %bb6.i.i.i.i9
  call void @llvm.dbg.value(metadata ptr %_3.i.i.i, metadata !2944, metadata !DIExpression()), !dbg !3096
  call void @llvm.dbg.value(metadata i8 0, metadata !2959, metadata !DIExpression()), !dbg !3109
  call void @llvm.dbg.value(metadata ptr %_3.i.i.i, metadata !2965, metadata !DIExpression()), !dbg !3109
  call void @llvm.dbg.value(metadata i8 1, metadata !2966, metadata !DIExpression()), !dbg !3109
  store atomic i8 1, ptr %_3.i.i.i monotonic, align 4, !dbg !3111, !noalias !3103
  br label %_ZN3std4sync6poison4Flag4done17h6b62417d8d60c5ceE.exit.i.i.i, !dbg !3112

_ZN3std4sync6poison4Flag4done17h6b62417d8d60c5ceE.exit.i.i.i: ; preds = %bb2.i.i.i.i, %bb6.i.i.i.i9, %bb1.i.i.i.i, %bb2
  call void @llvm.dbg.value(metadata ptr %self, metadata !2892, metadata !DIExpression()), !dbg !3113
  call void @llvm.dbg.value(metadata ptr %self, metadata !2884, metadata !DIExpression()), !dbg !3083
  call void @llvm.dbg.value(metadata ptr %self, metadata !2907, metadata !DIExpression()), !dbg !3087
  %15 = atomicrmw xchg ptr %self, i32 0 release, align 4, !dbg !3114, !noalias !3103
  %_8.i.i.i = icmp eq i32 %15, 2, !dbg !3115
  br i1 %_8.i.i.i, label %bb2.i.i.i, label %"_ZN4core3ptr66drop_in_place$LT$event_listener..sys..ListLock$LT$$LP$$RP$$GT$$GT$17h5235da984ad70df5E.exit", !dbg !3115

bb2.i.i.i:                                        ; preds = %_ZN3std4sync6poison4Flag4done17h6b62417d8d60c5ceE.exit.i.i.i
; call std::sys::sync::mutex::futex::Mutex::wake
  tail call void @_ZN3std3sys4sync5mutex5futex5Mutex4wake17hc487312157454c34E(ptr noundef nonnull align 4 %self), !dbg !3116, !noalias !3103
  br label %"_ZN4core3ptr66drop_in_place$LT$event_listener..sys..ListLock$LT$$LP$$RP$$GT$$GT$17h5235da984ad70df5E.exit", !dbg !3116

"_ZN4core3ptr66drop_in_place$LT$event_listener..sys..ListLock$LT$$LP$$RP$$GT$$GT$17h5235da984ad70df5E.exit": ; preds = %_ZN3std4sync6poison4Flag4done17h6b62417d8d60c5ceE.exit.i.i.i, %bb2.i.i.i
  call void @llvm.lifetime.end.p0(i64 24, ptr nonnull %_5), !dbg !3058
  ret void, !dbg !3117

terminate:                                        ; preds = %cleanup6
  %16 = landingpad { ptr, i32 }
          filter [0 x ptr] zeroinitializer
; call core::panicking::panic_in_cleanup
  tail call void @_ZN4core9panicking16panic_in_cleanup17h43442956f23e9cbeE() #25, !dbg !3118
  unreachable, !dbg !3118

bb5:                                              ; preds = %cleanup6
  resume { ptr, i32 } %10, !dbg !3118
}

; event_listener::sys::<impl event_listener::Inner<T>>::remove
; Function Attrs: nonlazybind uwtable
define internal fastcc void @"_ZN14event_listener3sys48_$LT$impl$u20$event_listener..Inner$LT$T$GT$$GT$6remove17hde647effaaf43b57E"(ptr dead_on_unwind noalias nocapture noundef writable writeonly align 8 dereferenceable(24) %_0, ptr noundef nonnull align 8 %self, ptr noundef nonnull align 8 %listener, i1 noundef zeroext %propagate) unnamed_addr #0 personality ptr @rust_eh_personality !dbg !3119 {
start:
  %_6 = alloca [24 x i8], align 8
  tail call void @llvm.dbg.value(metadata ptr %self, metadata !3124, metadata !DIExpression()), !dbg !3127
  tail call void @llvm.dbg.value(metadata ptr %listener, metadata !3125, metadata !DIExpression()), !dbg !3127
  tail call void @llvm.dbg.value(metadata i1 %propagate, metadata !3126, metadata !DIExpression(DW_OP_LLVM_convert, 1, DW_ATE_unsigned, DW_OP_LLVM_convert, 8, DW_ATE_unsigned, DW_OP_stack_value)), !dbg !3127
  call void @llvm.lifetime.start.p0(i64 24, ptr nonnull %_6), !dbg !3128
  tail call void @llvm.experimental.noalias.scope.decl(metadata !3129), !dbg !3128
  call void @llvm.dbg.value(metadata ptr %self, metadata !2533, metadata !DIExpression()), !dbg !3132
  call void @llvm.dbg.value(metadata i32 0, metadata !2550, metadata !DIExpression()), !dbg !3134
  call void @llvm.dbg.value(metadata i32 1, metadata !2574, metadata !DIExpression()), !dbg !3134
  call void @llvm.dbg.value(metadata i8 2, metadata !2575, metadata !DIExpression()), !dbg !3134
  call void @llvm.dbg.value(metadata i8 0, metadata !2576, metadata !DIExpression()), !dbg !3134
  call void @llvm.dbg.value(metadata ptr %self, metadata !2615, metadata !DIExpression()), !dbg !3138
  call void @llvm.dbg.value(metadata ptr %self, metadata !2587, metadata !DIExpression()), !dbg !3139
  call void @llvm.dbg.value(metadata ptr %self, metadata !2573, metadata !DIExpression()), !dbg !3134
  call void @llvm.dbg.value(metadata i8 2, metadata !2619, metadata !DIExpression()), !dbg !3140
  call void @llvm.dbg.value(metadata i8 0, metadata !2628, metadata !DIExpression()), !dbg !3140
  call void @llvm.dbg.value(metadata ptr %self, metadata !2625, metadata !DIExpression()), !dbg !3140
  call void @llvm.dbg.value(metadata i32 0, metadata !2626, metadata !DIExpression()), !dbg !3140
  call void @llvm.dbg.value(metadata i32 1, metadata !2627, metadata !DIExpression()), !dbg !3140
  %0 = cmpxchg ptr %self, i32 0, i32 1 acquire monotonic, align 4, !dbg !3142, !noalias !3143
  %1 = extractvalue { i32, i1 } %0, 1, !dbg !3142
  call void @llvm.dbg.value(metadata ptr undef, metadata !2638, metadata !DIExpression()), !dbg !3146
  call void @llvm.dbg.value(metadata ptr undef, metadata !2649, metadata !DIExpression()), !dbg !3148
  br i1 %1, label %bb2.i.i, label %bb4.i.i, !dbg !3150

bb4.i.i:                                          ; preds = %start
; call std::sys::sync::mutex::futex::Mutex::lock_contended
  tail call void @_ZN3std3sys4sync5mutex5futex5Mutex14lock_contended17h8fd9cbd50b365b92E(ptr noundef nonnull align 4 %self), !dbg !3151, !noalias !3143
  br label %bb2.i.i, !dbg !3151

bb2.i.i:                                          ; preds = %bb4.i.i, %start
  call void @llvm.dbg.value(metadata ptr %self, metadata !2659, metadata !DIExpression()), !dbg !3152
  call void @llvm.dbg.value(metadata ptr @_ZN3std9panicking11panic_count18GLOBAL_PANIC_COUNT17h00e7dcd913cdfbe0E, metadata !2665, metadata !DIExpression()), !dbg !3154
  call void @llvm.dbg.value(metadata i8 0, metadata !2672, metadata !DIExpression()), !dbg !3154
  call void @llvm.dbg.value(metadata i8 0, metadata !2722, metadata !DIExpression()), !dbg !3160
  call void @llvm.dbg.value(metadata ptr %self, metadata !2718, metadata !DIExpression(DW_OP_plus_uconst, 4, DW_OP_stack_value)), !dbg !3163
  call void @llvm.dbg.value(metadata ptr %self, metadata !2739, metadata !DIExpression(DW_OP_plus_uconst, 4, DW_OP_stack_value)), !dbg !3164
  call void @llvm.dbg.value(metadata i8 0, metadata !2743, metadata !DIExpression()), !dbg !3165
  call void @llvm.dbg.value(metadata ptr @_ZN3std9panicking11panic_count18GLOBAL_PANIC_COUNT17h00e7dcd913cdfbe0E, metadata !2748, metadata !DIExpression()), !dbg !3165
  %2 = load atomic i64, ptr @_ZN3std9panicking11panic_count18GLOBAL_PANIC_COUNT17h00e7dcd913cdfbe0E monotonic, align 8, !dbg !3167, !noalias !3168
  %_6.i.i.i.i = and i64 %2, 9223372036854775807, !dbg !3171
  %3 = icmp eq i64 %_6.i.i.i.i, 0, !dbg !3171
  br i1 %3, label %"_ZN14event_listener3sys48_$LT$impl$u20$event_listener..Inner$LT$T$GT$$GT$4lock17h7a863fbd782ce731E.exit", label %bb6.i.i.i.i, !dbg !3171

bb6.i.i.i.i:                                      ; preds = %bb2.i.i
; call std::panicking::panic_count::is_zero_slow_path
  %4 = tail call noundef zeroext i1 @_ZN3std9panicking11panic_count17is_zero_slow_path17h24de30857bbd803cE(), !dbg !3172, !noalias !3168
  %5 = xor i1 %4, true, !dbg !3173
  %6 = zext i1 %5 to i8, !dbg !3174
  br label %"_ZN14event_listener3sys48_$LT$impl$u20$event_listener..Inner$LT$T$GT$$GT$4lock17h7a863fbd782ce731E.exit", !dbg !3172

"_ZN14event_listener3sys48_$LT$impl$u20$event_listener..Inner$LT$T$GT$$GT$4lock17h7a863fbd782ce731E.exit": ; preds = %bb2.i.i, %bb6.i.i.i.i
  %.val3.i = phi i8 [ %6, %bb6.i.i.i.i ], [ 0, %bb2.i.i ], !dbg !3175
  %_3.i.i.i = getelementptr inbounds i8, ptr %self, i64 4, !dbg !3176
  call void @llvm.dbg.value(metadata ptr %_3.i.i.i, metadata !2718, metadata !DIExpression()), !dbg !3163
  call void @llvm.dbg.value(metadata ptr %_3.i.i.i, metadata !2739, metadata !DIExpression()), !dbg !3164
  call void @llvm.dbg.value(metadata i8 %.val3.i, metadata !2719, metadata !DIExpression(DW_OP_LLVM_convert, 1, DW_ATE_unsigned, DW_OP_LLVM_convert, 8, DW_ATE_unsigned, DW_OP_stack_value)), !dbg !3177
  call void @llvm.dbg.value(metadata ptr %_3.i.i.i, metadata !2730, metadata !DIExpression()), !dbg !3160
  call void @llvm.dbg.value(metadata i8 0, metadata !2762, metadata !DIExpression()), !dbg !3178
  call void @llvm.dbg.value(metadata ptr %_3.i.i.i, metadata !2768, metadata !DIExpression()), !dbg !3178
  %7 = load atomic i8, ptr %_3.i.i.i monotonic, align 4, !dbg !3180, !noalias !3168
  %8 = getelementptr inbounds i8, ptr %_6, i64 8, !dbg !3181
  store ptr %self, ptr %8, align 8, !dbg !3181, !alias.scope !3129
  %9 = getelementptr inbounds i8, ptr %_6, i64 16, !dbg !3181
  store i8 %.val3.i, ptr %9, align 8, !dbg !3181, !alias.scope !3129
  store ptr %self, ptr %_6, align 8, !dbg !3181, !alias.scope !3129
  tail call void @llvm.dbg.value(metadata ptr %_6, metadata !3182, metadata !DIExpression()), !dbg !3186
  tail call void @llvm.dbg.value(metadata ptr %_6, metadata !3187, metadata !DIExpression(DW_OP_plus_uconst, 8, DW_OP_stack_value)), !dbg !3191
  tail call void @llvm.dbg.value(metadata ptr %self, metadata !3193, metadata !DIExpression(DW_OP_plus_uconst, 8, DW_OP_stack_value)), !dbg !3197
  %_11 = getelementptr inbounds i8, ptr %self, i64 8, !dbg !3199
; invoke event_listener::sys::Inner<T>::remove
  invoke fastcc void @"_ZN14event_listener3sys14Inner$LT$T$GT$6remove17h4954fbc68fbeeb3fE"(ptr noalias nocapture noundef nonnull align 8 dereferenceable(24) %_0, ptr noalias noundef nonnull align 8 dereferenceable(40) %_11, ptr noundef nonnull align 8 %listener, i1 noundef zeroext %propagate)
          to label %bb2 unwind label %cleanup, !dbg !3128

cleanup:                                          ; preds = %"_ZN14event_listener3sys48_$LT$impl$u20$event_listener..Inner$LT$T$GT$$GT$4lock17h7a863fbd782ce731E.exit"
  %10 = landingpad { ptr, i32 }
          cleanup
; invoke core::ptr::drop_in_place<event_listener::sys::ListLock<()>>
  invoke fastcc void @"_ZN4core3ptr66drop_in_place$LT$event_listener..sys..ListLock$LT$$LP$$RP$$GT$$GT$17h5235da984ad70df5E"(ptr noalias noundef nonnull align 8 dereferenceable(24) %_6) #24
          to label %bb5 unwind label %terminate, !dbg !3200

bb2:                                              ; preds = %"_ZN14event_listener3sys48_$LT$impl$u20$event_listener..Inner$LT$T$GT$$GT$4lock17h7a863fbd782ce731E.exit"
  call void @llvm.dbg.value(metadata ptr %_6, metadata !2805, metadata !DIExpression()), !dbg !3201
  call void @llvm.dbg.value(metadata i8 1, metadata !2815, metadata !DIExpression()), !dbg !3203
  call void @llvm.dbg.value(metadata ptr %_6, metadata !2833, metadata !DIExpression()), !dbg !3206
  call void @llvm.dbg.value(metadata ptr %self, metadata !2834, metadata !DIExpression(DW_OP_plus_uconst, 8, DW_OP_stack_value)), !dbg !3207
  %11 = getelementptr inbounds i8, ptr %self, i64 40, !dbg !3208
  %_4.i.i = load i64, ptr %11, align 8, !dbg !3208, !noalias !3209, !noundef !29
  %12 = getelementptr inbounds i8, ptr %self, i64 32, !dbg !3214
  %_5.i.i = load i64, ptr %12, align 8, !dbg !3214, !noalias !3209, !noundef !29
  %_3.i.i = icmp ult i64 %_4.i.i, %_5.i.i, !dbg !3208
  %_4..i.i = select i1 %_3.i.i, i64 %_4.i.i, i64 -1, !dbg !3215
  call void @llvm.dbg.value(metadata i64 %_4..i.i, metadata !2835, metadata !DIExpression()), !dbg !3216
  call void @llvm.dbg.value(metadata ptr %self, metadata !2822, metadata !DIExpression(DW_OP_plus_uconst, 48, DW_OP_stack_value)), !dbg !3203
  call void @llvm.dbg.value(metadata i64 %_4..i.i, metadata !2823, metadata !DIExpression()), !dbg !3203
  call void @llvm.dbg.value(metadata ptr %self, metadata !2848, metadata !DIExpression(DW_OP_plus_uconst, 48, DW_OP_stack_value)), !dbg !3217
  %_17.i.i = getelementptr inbounds i8, ptr %self, i64 48, !dbg !3219
  call void @llvm.dbg.value(metadata i8 1, metadata !2859, metadata !DIExpression()), !dbg !3220
  call void @llvm.dbg.value(metadata ptr %_17.i.i, metadata !2864, metadata !DIExpression()), !dbg !3220
  call void @llvm.dbg.value(metadata i64 %_4..i.i, metadata !2865, metadata !DIExpression()), !dbg !3220
  store atomic i64 %_4..i.i, ptr %_17.i.i release, align 8, !dbg !3222, !noalias !3209
  call void @llvm.dbg.value(metadata ptr undef, metadata !2869, metadata !DIExpression()), !dbg !3223
  call void @llvm.dbg.value(metadata i32 0, metadata !2877, metadata !DIExpression()), !dbg !3225
  call void @llvm.dbg.value(metadata i8 1, metadata !2885, metadata !DIExpression()), !dbg !3225
  call void @llvm.dbg.value(metadata i32 0, metadata !2901, metadata !DIExpression()), !dbg !3229
  call void @llvm.dbg.value(metadata i8 1, metadata !2908, metadata !DIExpression()), !dbg !3229
  call void @llvm.dbg.value(metadata ptr undef, metadata !2899, metadata !DIExpression()), !dbg !3231
  call void @llvm.dbg.value(metadata ptr @_ZN3std9panicking11panic_count18GLOBAL_PANIC_COUNT17h00e7dcd913cdfbe0E, metadata !2912, metadata !DIExpression()), !dbg !3232
  call void @llvm.dbg.value(metadata i8 0, metadata !2916, metadata !DIExpression()), !dbg !3232
  call void @llvm.dbg.value(metadata i8 1, metadata !2937, metadata !DIExpression()), !dbg !3238
  call void @llvm.dbg.value(metadata i8 0, metadata !2945, metadata !DIExpression()), !dbg !3238
  call void @llvm.dbg.value(metadata ptr %_3.i.i.i, metadata !2934, metadata !DIExpression()), !dbg !3240
  call void @llvm.dbg.value(metadata ptr undef, metadata !2935, metadata !DIExpression()), !dbg !3240
  %_3.not.i.i.i.i = icmp eq i8 %.val3.i, 0, !dbg !3241
  br i1 %_3.not.i.i.i.i, label %bb1.i.i.i.i, label %_ZN3std4sync6poison4Flag4done17h6b62417d8d60c5ceE.exit.i.i.i, !dbg !3241

bb1.i.i.i.i:                                      ; preds = %bb2
  call void @llvm.dbg.value(metadata i8 0, metadata !2743, metadata !DIExpression()), !dbg !3242
  call void @llvm.dbg.value(metadata ptr @_ZN3std9panicking11panic_count18GLOBAL_PANIC_COUNT17h00e7dcd913cdfbe0E, metadata !2748, metadata !DIExpression()), !dbg !3242
  %13 = load atomic i64, ptr @_ZN3std9panicking11panic_count18GLOBAL_PANIC_COUNT17h00e7dcd913cdfbe0E monotonic, align 8, !dbg !3244, !noalias !3245
  %_7.i.i.i.i = and i64 %13, 9223372036854775807, !dbg !3248
  %14 = icmp eq i64 %_7.i.i.i.i, 0, !dbg !3248
  br i1 %14, label %_ZN3std4sync6poison4Flag4done17h6b62417d8d60c5ceE.exit.i.i.i, label %bb6.i.i.i.i7, !dbg !3248

bb6.i.i.i.i7:                                     ; preds = %bb1.i.i.i.i
; call std::panicking::panic_count::is_zero_slow_path
  %_6.i.i.i.i8 = tail call noundef zeroext i1 @_ZN3std9panicking11panic_count17is_zero_slow_path17h24de30857bbd803cE(), !dbg !3249, !noalias !3245
  br i1 %_6.i.i.i.i8, label %_ZN3std4sync6poison4Flag4done17h6b62417d8d60c5ceE.exit.i.i.i, label %bb2.i.i.i.i, !dbg !3250

bb2.i.i.i.i:                                      ; preds = %bb6.i.i.i.i7
  call void @llvm.dbg.value(metadata ptr %_3.i.i.i, metadata !2944, metadata !DIExpression()), !dbg !3238
  call void @llvm.dbg.value(metadata i8 0, metadata !2959, metadata !DIExpression()), !dbg !3251
  call void @llvm.dbg.value(metadata ptr %_3.i.i.i, metadata !2965, metadata !DIExpression()), !dbg !3251
  call void @llvm.dbg.value(metadata i8 1, metadata !2966, metadata !DIExpression()), !dbg !3251
  store atomic i8 1, ptr %_3.i.i.i monotonic, align 4, !dbg !3253, !noalias !3245
  br label %_ZN3std4sync6poison4Flag4done17h6b62417d8d60c5ceE.exit.i.i.i, !dbg !3254

_ZN3std4sync6poison4Flag4done17h6b62417d8d60c5ceE.exit.i.i.i: ; preds = %bb2.i.i.i.i, %bb6.i.i.i.i7, %bb1.i.i.i.i, %bb2
  call void @llvm.dbg.value(metadata ptr %self, metadata !2892, metadata !DIExpression()), !dbg !3255
  call void @llvm.dbg.value(metadata ptr %self, metadata !2884, metadata !DIExpression()), !dbg !3225
  call void @llvm.dbg.value(metadata ptr %self, metadata !2907, metadata !DIExpression()), !dbg !3229
  %15 = atomicrmw xchg ptr %self, i32 0 release, align 4, !dbg !3256, !noalias !3245
  %_8.i.i.i = icmp eq i32 %15, 2, !dbg !3257
  br i1 %_8.i.i.i, label %bb2.i.i.i, label %"_ZN4core3ptr66drop_in_place$LT$event_listener..sys..ListLock$LT$$LP$$RP$$GT$$GT$17h5235da984ad70df5E.exit", !dbg !3257

bb2.i.i.i:                                        ; preds = %_ZN3std4sync6poison4Flag4done17h6b62417d8d60c5ceE.exit.i.i.i
; call std::sys::sync::mutex::futex::Mutex::wake
  tail call void @_ZN3std3sys4sync5mutex5futex5Mutex4wake17hc487312157454c34E(ptr noundef nonnull align 4 %self), !dbg !3258, !noalias !3245
  br label %"_ZN4core3ptr66drop_in_place$LT$event_listener..sys..ListLock$LT$$LP$$RP$$GT$$GT$17h5235da984ad70df5E.exit", !dbg !3258

"_ZN4core3ptr66drop_in_place$LT$event_listener..sys..ListLock$LT$$LP$$RP$$GT$$GT$17h5235da984ad70df5E.exit": ; preds = %_ZN3std4sync6poison4Flag4done17h6b62417d8d60c5ceE.exit.i.i.i, %bb2.i.i.i
  call void @llvm.lifetime.end.p0(i64 24, ptr nonnull %_6), !dbg !3200
  ret void, !dbg !3259

terminate:                                        ; preds = %cleanup
  %16 = landingpad { ptr, i32 }
          filter [0 x ptr] zeroinitializer
; call core::panicking::panic_in_cleanup
  tail call void @_ZN4core9panicking16panic_in_cleanup17h43442956f23e9cbeE() #25, !dbg !3260
  unreachable, !dbg !3260

bb5:                                              ; preds = %cleanup
  resume { ptr, i32 } %10, !dbg !3260
}

; event_listener::sys::<impl event_listener::Inner<T>>::register
; Function Attrs: nonlazybind uwtable
define internal fastcc noundef i8 @"_ZN14event_listener3sys48_$LT$impl$u20$event_listener..Inner$LT$T$GT$$GT$8register17h7764f0a834634766E"(ptr noundef nonnull align 8 %self, ptr noundef nonnull align 8 %0, i64 noundef %task.0, ptr noundef %task.1) unnamed_addr #0 personality ptr @rust_eh_personality !dbg !3261 {
start:
  call void @llvm.dbg.declare(metadata ptr poison, metadata !2117, metadata !DIExpression(DW_OP_LLVM_fragment, 8, 184)), !dbg !3281
  %result6 = alloca [24 x i8], align 8
  %result4 = alloca [24 x i8], align 8
  %_33 = alloca [16 x i8], align 8
  %val3.sroa.2 = alloca [23 x i8], align 1
  call void @llvm.dbg.declare(metadata ptr %val3.sroa.2, metadata !3283, metadata !DIExpression(DW_OP_LLVM_fragment, 8, 184)), !dbg !3294
  call void @llvm.dbg.declare(metadata ptr %val3.sroa.2, metadata !3311, metadata !DIExpression(DW_OP_LLVM_fragment, 8, 184)), !dbg !3338
  call void @llvm.dbg.declare(metadata ptr %val3.sroa.2, metadata !3324, metadata !DIExpression(DW_OP_LLVM_fragment, 8, 184)), !dbg !3339
  call void @llvm.dbg.declare(metadata ptr %val3.sroa.2, metadata !3336, metadata !DIExpression(DW_OP_LLVM_fragment, 8, 184)), !dbg !3340
  %_27 = alloca [16 x i8], align 8
  %val2.sroa.4 = alloca [23 x i8], align 1
  call void @llvm.dbg.declare(metadata ptr %val2.sroa.4, metadata !3292, metadata !DIExpression(DW_OP_LLVM_fragment, 8, 184)), !dbg !3341
  call void @llvm.dbg.declare(metadata ptr %val2.sroa.4, metadata !3307, metadata !DIExpression(DW_OP_LLVM_fragment, 8, 184)), !dbg !3346
  call void @llvm.dbg.declare(metadata ptr %val2.sroa.4, metadata !3322, metadata !DIExpression(DW_OP_LLVM_fragment, 8, 184)), !dbg !3347
  call void @llvm.dbg.declare(metadata ptr %val2.sroa.4, metadata !3334, metadata !DIExpression(DW_OP_LLVM_fragment, 8, 184)), !dbg !3348
  %other_task = alloca [16 x i8], align 8
  %_19 = alloca [24 x i8], align 8
  call void @llvm.dbg.declare(metadata ptr poison, metadata !3289, metadata !DIExpression(DW_OP_LLVM_fragment, 8, 184)), !dbg !3349
  call void @llvm.dbg.declare(metadata ptr poison, metadata !3302, metadata !DIExpression(DW_OP_LLVM_fragment, 8, 184)), !dbg !3353
  call void @llvm.dbg.declare(metadata ptr poison, metadata !3319, metadata !DIExpression(DW_OP_LLVM_fragment, 8, 184)), !dbg !3354
  %result = alloca [24 x i8], align 8
  %inner = alloca [24 x i8], align 8
  tail call void @llvm.dbg.value(metadata ptr %0, metadata !3267, metadata !DIExpression()), !dbg !3355
  tail call void @llvm.dbg.value(metadata ptr %self, metadata !3266, metadata !DIExpression()), !dbg !3355
  tail call void @llvm.dbg.value(metadata i64 %task.0, metadata !3268, metadata !DIExpression(DW_OP_LLVM_fragment, 0, 64)), !dbg !3355
  tail call void @llvm.dbg.value(metadata ptr %task.1, metadata !3268, metadata !DIExpression(DW_OP_LLVM_fragment, 64, 64)), !dbg !3355
  call void @llvm.dbg.declare(metadata ptr %inner, metadata !3269, metadata !DIExpression()), !dbg !3356
  call void @llvm.dbg.declare(metadata ptr %result, metadata !3303, metadata !DIExpression()), !dbg !3357
  call void @llvm.dbg.declare(metadata ptr undef, metadata !3277, metadata !DIExpression()), !dbg !3358
  call void @llvm.dbg.declare(metadata ptr %other_task, metadata !3279, metadata !DIExpression()), !dbg !3359
  call void @llvm.dbg.declare(metadata ptr %result4, metadata !3308, metadata !DIExpression()), !dbg !3360
  call void @llvm.dbg.declare(metadata ptr %result6, metadata !3312, metadata !DIExpression()), !dbg !3361
  call void @llvm.lifetime.start.p0(i64 24, ptr nonnull %inner), !dbg !3362
  tail call void @llvm.experimental.noalias.scope.decl(metadata !3363), !dbg !3366
  call void @llvm.dbg.value(metadata ptr %self, metadata !2533, metadata !DIExpression()), !dbg !3367
  call void @llvm.dbg.value(metadata i32 0, metadata !2550, metadata !DIExpression()), !dbg !3369
  call void @llvm.dbg.value(metadata i32 1, metadata !2574, metadata !DIExpression()), !dbg !3369
  call void @llvm.dbg.value(metadata i8 2, metadata !2575, metadata !DIExpression()), !dbg !3369
  call void @llvm.dbg.value(metadata i8 0, metadata !2576, metadata !DIExpression()), !dbg !3369
  call void @llvm.dbg.value(metadata ptr %self, metadata !2615, metadata !DIExpression()), !dbg !3373
  call void @llvm.dbg.value(metadata ptr %self, metadata !2587, metadata !DIExpression()), !dbg !3374
  call void @llvm.dbg.value(metadata ptr %self, metadata !2573, metadata !DIExpression()), !dbg !3369
  call void @llvm.dbg.value(metadata i8 2, metadata !2619, metadata !DIExpression()), !dbg !3375
  call void @llvm.dbg.value(metadata i8 0, metadata !2628, metadata !DIExpression()), !dbg !3375
  call void @llvm.dbg.value(metadata ptr %self, metadata !2625, metadata !DIExpression()), !dbg !3375
  call void @llvm.dbg.value(metadata i32 0, metadata !2626, metadata !DIExpression()), !dbg !3375
  call void @llvm.dbg.value(metadata i32 1, metadata !2627, metadata !DIExpression()), !dbg !3375
  %1 = cmpxchg ptr %self, i32 0, i32 1 acquire monotonic, align 4, !dbg !3377, !noalias !3378
  %2 = extractvalue { i32, i1 } %1, 1, !dbg !3377
  call void @llvm.dbg.value(metadata ptr undef, metadata !2638, metadata !DIExpression()), !dbg !3381
  call void @llvm.dbg.value(metadata ptr undef, metadata !2649, metadata !DIExpression()), !dbg !3383
  br i1 %2, label %bb2.i.i, label %bb4.i.i, !dbg !3385

bb4.i.i:                                          ; preds = %start
; call std::sys::sync::mutex::futex::Mutex::lock_contended
  tail call void @_ZN3std3sys4sync5mutex5futex5Mutex14lock_contended17h8fd9cbd50b365b92E(ptr noundef nonnull align 4 %self), !dbg !3386, !noalias !3378
  br label %bb2.i.i, !dbg !3386

bb2.i.i:                                          ; preds = %bb4.i.i, %start
  call void @llvm.dbg.value(metadata ptr %self, metadata !2659, metadata !DIExpression()), !dbg !3387
  call void @llvm.dbg.value(metadata ptr @_ZN3std9panicking11panic_count18GLOBAL_PANIC_COUNT17h00e7dcd913cdfbe0E, metadata !2665, metadata !DIExpression()), !dbg !3389
  call void @llvm.dbg.value(metadata i8 0, metadata !2672, metadata !DIExpression()), !dbg !3389
  call void @llvm.dbg.value(metadata i8 0, metadata !2722, metadata !DIExpression()), !dbg !3395
  call void @llvm.dbg.value(metadata ptr %self, metadata !2718, metadata !DIExpression(DW_OP_plus_uconst, 4, DW_OP_stack_value)), !dbg !3398
  call void @llvm.dbg.value(metadata ptr %self, metadata !2739, metadata !DIExpression(DW_OP_plus_uconst, 4, DW_OP_stack_value)), !dbg !3399
  call void @llvm.dbg.value(metadata i8 0, metadata !2743, metadata !DIExpression()), !dbg !3400
  call void @llvm.dbg.value(metadata ptr @_ZN3std9panicking11panic_count18GLOBAL_PANIC_COUNT17h00e7dcd913cdfbe0E, metadata !2748, metadata !DIExpression()), !dbg !3400
  %3 = load atomic i64, ptr @_ZN3std9panicking11panic_count18GLOBAL_PANIC_COUNT17h00e7dcd913cdfbe0E monotonic, align 8, !dbg !3402, !noalias !3403
  %_6.i.i.i.i = and i64 %3, 9223372036854775807, !dbg !3406
  %4 = icmp eq i64 %_6.i.i.i.i, 0, !dbg !3406
  br i1 %4, label %"_ZN14event_listener3sys48_$LT$impl$u20$event_listener..Inner$LT$T$GT$$GT$4lock17h7a863fbd782ce731E.exit", label %bb6.i.i.i.i, !dbg !3406

bb6.i.i.i.i:                                      ; preds = %bb2.i.i
; call std::panicking::panic_count::is_zero_slow_path
  %5 = tail call noundef zeroext i1 @_ZN3std9panicking11panic_count17is_zero_slow_path17h24de30857bbd803cE(), !dbg !3407, !noalias !3403
  %6 = xor i1 %5, true, !dbg !3408
  %7 = zext i1 %6 to i8, !dbg !3409
  br label %"_ZN14event_listener3sys48_$LT$impl$u20$event_listener..Inner$LT$T$GT$$GT$4lock17h7a863fbd782ce731E.exit", !dbg !3407

"_ZN14event_listener3sys48_$LT$impl$u20$event_listener..Inner$LT$T$GT$$GT$4lock17h7a863fbd782ce731E.exit": ; preds = %bb2.i.i, %bb6.i.i.i.i
  %.val3.i = phi i8 [ %7, %bb6.i.i.i.i ], [ 0, %bb2.i.i ], !dbg !3410
  %_3.i.i.i = getelementptr inbounds i8, ptr %self, i64 4, !dbg !3411
  call void @llvm.dbg.value(metadata ptr %_3.i.i.i, metadata !2718, metadata !DIExpression()), !dbg !3398
  call void @llvm.dbg.value(metadata ptr %_3.i.i.i, metadata !2739, metadata !DIExpression()), !dbg !3399
  call void @llvm.dbg.value(metadata i8 %.val3.i, metadata !2719, metadata !DIExpression(DW_OP_LLVM_convert, 1, DW_ATE_unsigned, DW_OP_LLVM_convert, 8, DW_ATE_unsigned, DW_OP_stack_value)), !dbg !3412
  call void @llvm.dbg.value(metadata ptr %_3.i.i.i, metadata !2730, metadata !DIExpression()), !dbg !3395
  call void @llvm.dbg.value(metadata i8 0, metadata !2762, metadata !DIExpression()), !dbg !3413
  call void @llvm.dbg.value(metadata ptr %_3.i.i.i, metadata !2768, metadata !DIExpression()), !dbg !3413
  %8 = load atomic i8, ptr %_3.i.i.i monotonic, align 4, !dbg !3415, !noalias !3403
  %9 = getelementptr inbounds i8, ptr %inner, i64 8, !dbg !3416
  store ptr %self, ptr %9, align 8, !dbg !3416, !alias.scope !3363
  %10 = getelementptr inbounds i8, ptr %inner, i64 16, !dbg !3416
  store i8 %.val3.i, ptr %10, align 8, !dbg !3416, !alias.scope !3363
  store ptr %self, ptr %inner, align 8, !dbg !3416, !alias.scope !3363
  tail call void @llvm.dbg.value(metadata ptr %0, metadata !3417, metadata !DIExpression()), !dbg !3423
  tail call void @llvm.dbg.value(metadata ptr %0, metadata !3428, metadata !DIExpression()), !dbg !3432
  %_42 = load i64, ptr %0, align 8, !dbg !3433, !range !2289, !noundef !29
  %trunc.not = icmp eq i64 %_42, 0, !dbg !3434
  br i1 %trunc.not, label %bb34, label %bb35, !dbg !3434

bb34:                                             ; preds = %"_ZN14event_listener3sys48_$LT$impl$u20$event_listener..Inner$LT$T$GT$$GT$4lock17h7a863fbd782ce731E.exit"
  call void @llvm.dbg.value(metadata ptr %inner, metadata !2805, metadata !DIExpression()), !dbg !3435
  call void @llvm.dbg.value(metadata i8 1, metadata !2815, metadata !DIExpression()), !dbg !3437
  call void @llvm.dbg.value(metadata ptr %inner, metadata !2833, metadata !DIExpression()), !dbg !3440
  call void @llvm.dbg.value(metadata ptr %inner, metadata !3441, metadata !DIExpression()), !dbg !3445
  call void @llvm.dbg.value(metadata ptr %inner, metadata !3447, metadata !DIExpression(DW_OP_plus_uconst, 8, DW_OP_stack_value)), !dbg !3451
  call void @llvm.dbg.value(metadata ptr %self, metadata !2834, metadata !DIExpression(DW_OP_plus_uconst, 8, DW_OP_stack_value)), !dbg !3453
  %11 = getelementptr inbounds i8, ptr %self, i64 40, !dbg !3454
  %_4.i.i = load i64, ptr %11, align 8, !dbg !3454, !noalias !3455, !noundef !29
  %12 = getelementptr inbounds i8, ptr %self, i64 32, !dbg !3460
  %_5.i.i = load i64, ptr %12, align 8, !dbg !3460, !noalias !3455, !noundef !29
  %_3.i.i = icmp ult i64 %_4.i.i, %_5.i.i, !dbg !3454
  %_4..i.i = select i1 %_3.i.i, i64 %_4.i.i, i64 -1, !dbg !3461
  call void @llvm.dbg.value(metadata i64 %_4..i.i, metadata !2835, metadata !DIExpression()), !dbg !3462
  call void @llvm.dbg.value(metadata ptr %self, metadata !2822, metadata !DIExpression(DW_OP_plus_uconst, 48, DW_OP_stack_value)), !dbg !3437
  call void @llvm.dbg.value(metadata i64 %_4..i.i, metadata !2823, metadata !DIExpression()), !dbg !3437
  call void @llvm.dbg.value(metadata ptr %self, metadata !2848, metadata !DIExpression(DW_OP_plus_uconst, 48, DW_OP_stack_value)), !dbg !3463
  %_17.i.i = getelementptr inbounds i8, ptr %self, i64 48, !dbg !3465
  call void @llvm.dbg.value(metadata i8 1, metadata !2859, metadata !DIExpression()), !dbg !3466
  call void @llvm.dbg.value(metadata ptr %_17.i.i, metadata !2864, metadata !DIExpression()), !dbg !3466
  call void @llvm.dbg.value(metadata i64 %_4..i.i, metadata !2865, metadata !DIExpression()), !dbg !3466
  store atomic i64 %_4..i.i, ptr %_17.i.i release, align 8, !dbg !3468, !noalias !3455
  call void @llvm.dbg.value(metadata ptr undef, metadata !2869, metadata !DIExpression()), !dbg !3469
  call void @llvm.dbg.value(metadata i32 0, metadata !2877, metadata !DIExpression()), !dbg !3471
  call void @llvm.dbg.value(metadata i8 1, metadata !2885, metadata !DIExpression()), !dbg !3471
  call void @llvm.dbg.value(metadata i32 0, metadata !2901, metadata !DIExpression()), !dbg !3475
  call void @llvm.dbg.value(metadata i8 1, metadata !2908, metadata !DIExpression()), !dbg !3475
  call void @llvm.dbg.value(metadata ptr undef, metadata !2899, metadata !DIExpression()), !dbg !3477
  call void @llvm.dbg.value(metadata ptr @_ZN3std9panicking11panic_count18GLOBAL_PANIC_COUNT17h00e7dcd913cdfbe0E, metadata !2912, metadata !DIExpression()), !dbg !3478
  call void @llvm.dbg.value(metadata i8 0, metadata !2916, metadata !DIExpression()), !dbg !3478
  call void @llvm.dbg.value(metadata i8 1, metadata !2937, metadata !DIExpression()), !dbg !3484
  call void @llvm.dbg.value(metadata i8 0, metadata !2945, metadata !DIExpression()), !dbg !3484
  call void @llvm.dbg.value(metadata ptr %_3.i.i.i, metadata !2934, metadata !DIExpression()), !dbg !3486
  call void @llvm.dbg.value(metadata ptr undef, metadata !2935, metadata !DIExpression()), !dbg !3486
  %_3.not.i.i.i.i = icmp eq i8 %.val3.i, 0, !dbg !3487
  br i1 %_3.not.i.i.i.i, label %bb1.i.i.i.i, label %_ZN3std4sync6poison4Flag4done17h6b62417d8d60c5ceE.exit.i.i.i, !dbg !3487

bb1.i.i.i.i:                                      ; preds = %bb34
  call void @llvm.dbg.value(metadata i8 0, metadata !2743, metadata !DIExpression()), !dbg !3488
  call void @llvm.dbg.value(metadata ptr @_ZN3std9panicking11panic_count18GLOBAL_PANIC_COUNT17h00e7dcd913cdfbe0E, metadata !2748, metadata !DIExpression()), !dbg !3488
  %13 = load atomic i64, ptr @_ZN3std9panicking11panic_count18GLOBAL_PANIC_COUNT17h00e7dcd913cdfbe0E monotonic, align 8, !dbg !3490, !noalias !3491
  %_7.i.i.i.i = and i64 %13, 9223372036854775807, !dbg !3494
  %14 = icmp eq i64 %_7.i.i.i.i, 0, !dbg !3494
  br i1 %14, label %_ZN3std4sync6poison4Flag4done17h6b62417d8d60c5ceE.exit.i.i.i, label %bb6.i.i.i.i50, !dbg !3494

bb6.i.i.i.i50:                                    ; preds = %bb1.i.i.i.i
; call std::panicking::panic_count::is_zero_slow_path
  %_6.i.i.i.i51 = tail call noundef zeroext i1 @_ZN3std9panicking11panic_count17is_zero_slow_path17h24de30857bbd803cE(), !dbg !3495, !noalias !3491
  br i1 %_6.i.i.i.i51, label %_ZN3std4sync6poison4Flag4done17h6b62417d8d60c5ceE.exit.i.i.i, label %bb2.i.i.i.i, !dbg !3496

bb2.i.i.i.i:                                      ; preds = %bb6.i.i.i.i50
  call void @llvm.dbg.value(metadata ptr %_3.i.i.i, metadata !2944, metadata !DIExpression()), !dbg !3484
  call void @llvm.dbg.value(metadata i8 0, metadata !2959, metadata !DIExpression()), !dbg !3497
  call void @llvm.dbg.value(metadata ptr %_3.i.i.i, metadata !2965, metadata !DIExpression()), !dbg !3497
  call void @llvm.dbg.value(metadata i8 1, metadata !2966, metadata !DIExpression()), !dbg !3497
  store atomic i8 1, ptr %_3.i.i.i monotonic, align 4, !dbg !3499, !noalias !3491
  br label %_ZN3std4sync6poison4Flag4done17h6b62417d8d60c5ceE.exit.i.i.i, !dbg !3500

_ZN3std4sync6poison4Flag4done17h6b62417d8d60c5ceE.exit.i.i.i: ; preds = %bb2.i.i.i.i, %bb6.i.i.i.i50, %bb1.i.i.i.i, %bb34
  call void @llvm.dbg.value(metadata ptr %self, metadata !2892, metadata !DIExpression()), !dbg !3501
  call void @llvm.dbg.value(metadata ptr %self, metadata !2884, metadata !DIExpression()), !dbg !3471
  call void @llvm.dbg.value(metadata ptr %self, metadata !2907, metadata !DIExpression()), !dbg !3475
  %15 = atomicrmw xchg ptr %self, i32 0 release, align 4, !dbg !3502, !noalias !3491
  %_8.i.i.i = icmp eq i32 %15, 2, !dbg !3503
  br i1 %_8.i.i.i, label %bb2.i.i.i, label %"_ZN4core3ptr66drop_in_place$LT$event_listener..sys..ListLock$LT$$LP$$RP$$GT$$GT$17h5235da984ad70df5E.exit", !dbg !3503

bb2.i.i.i:                                        ; preds = %_ZN3std4sync6poison4Flag4done17h6b62417d8d60c5ceE.exit.i.i.i
; call std::sys::sync::mutex::futex::Mutex::wake
  tail call void @_ZN3std3sys4sync5mutex5futex5Mutex4wake17hc487312157454c34E(ptr noundef nonnull align 4 %self), !dbg !3504, !noalias !3491
  br label %"_ZN4core3ptr66drop_in_place$LT$event_listener..sys..ListLock$LT$$LP$$RP$$GT$$GT$17h5235da984ad70df5E.exit", !dbg !3504

"_ZN4core3ptr66drop_in_place$LT$event_listener..sys..ListLock$LT$$LP$$RP$$GT$$GT$17h5235da984ad70df5E.exit": ; preds = %_ZN3std4sync6poison4Flag4done17h6b62417d8d60c5ceE.exit.i.i.i, %bb2.i.i.i
  call void @llvm.lifetime.end.p0(i64 24, ptr nonnull %inner), !dbg !3505
  br label %bb17, !dbg !3506

bb35:                                             ; preds = %"_ZN14event_listener3sys48_$LT$impl$u20$event_listener..Inner$LT$T$GT$$GT$4lock17h7a863fbd782ce731E.exit"
  tail call void @llvm.dbg.value(metadata ptr %0, metadata !3421, metadata !DIExpression(DW_OP_plus_uconst, 8, DW_OP_stack_value)), !dbg !3507
  %x10 = getelementptr inbounds i8, ptr %0, i64 8, !dbg !3508
  tail call void @llvm.dbg.value(metadata ptr %x10, metadata !3271, metadata !DIExpression()), !dbg !3509
  call void @llvm.lifetime.start.p0(i64 24, ptr nonnull %result), !dbg !3510
  tail call void @llvm.dbg.value(metadata ptr %x10, metadata !3317, metadata !DIExpression()), !dbg !3511
  tail call void @llvm.dbg.value(metadata i8 3, metadata !3319, metadata !DIExpression(DW_OP_LLVM_fragment, 0, 8)), !dbg !3511
  tail call void @llvm.dbg.value(metadata i8 3, metadata !3302, metadata !DIExpression(DW_OP_LLVM_fragment, 0, 8)), !dbg !3512
  tail call void @llvm.dbg.value(metadata i8 3, metadata !3289, metadata !DIExpression(DW_OP_LLVM_fragment, 0, 8)), !dbg !3513
  tail call void @llvm.dbg.value(metadata ptr %x10, metadata !3300, metadata !DIExpression()), !dbg !3512
  tail call void @llvm.dbg.value(metadata ptr %x10, metadata !3514, metadata !DIExpression()), !dbg !3522
  tail call void @llvm.dbg.value(metadata ptr %x10, metadata !3287, metadata !DIExpression()), !dbg !3513
  call void @llvm.memcpy.p0.p0.i64(ptr noundef nonnull align 8 dereferenceable(24) %result, ptr noundef nonnull align 8 dereferenceable(24) %x10, i64 24, i1 false), !dbg !3524
  store i8 3, ptr %x10, align 8, !dbg !3525
  %val.sroa.2.0._6.sroa.0.0.listener12.sroa_idx = getelementptr inbounds i8, ptr %0, i64 9, !dbg !3525
  %16 = load i8, ptr %result, align 8, !dbg !3510, !range !1466, !noundef !29
  switch i8 %16, label %bb3 [
    i8 1, label %bb4
    i8 2, label %bb7
  ], !dbg !3526

bb17:                                             ; preds = %bb22, %"_ZN4core3ptr66drop_in_place$LT$event_listener..sys..ListLock$LT$$LP$$RP$$GT$$GT$17h5235da984ad70df5E.exit"
  %_0.sroa.0.0 = phi i8 [ %_0.sroa.0.1, %bb22 ], [ 2, %"_ZN4core3ptr66drop_in_place$LT$event_listener..sys..ListLock$LT$$LP$$RP$$GT$$GT$17h5235da984ad70df5E.exit" ], !dbg !3527
  ret i8 %_0.sroa.0.0, !dbg !3506

bb3:                                              ; preds = %bb35
  tail call void @llvm.dbg.value(metadata ptr %x10, metadata !3335, metadata !DIExpression()), !dbg !3528
  tail call void @llvm.dbg.value(metadata ptr %x10, metadata !3323, metadata !DIExpression()), !dbg !3529
  call void @llvm.lifetime.start.p0(i64 16, ptr nonnull %_33), !dbg !3530
; invoke event_listener::TaskRef::into_task
  invoke void @_ZN14event_listener7TaskRef9into_task17h3efcc1dabcaa6adbE(ptr noalias nocapture noundef nonnull sret([16 x i8]) align 8 dereferenceable(16) %_33, i64 noundef %task.0, ptr noundef %task.1)
          to label %bb13 unwind label %cleanup29, !dbg !3530

bb4:                                              ; preds = %bb35
  call void @llvm.lifetime.start.p0(i64 24, ptr nonnull %_19), !dbg !3531
  tail call void @llvm.dbg.value(metadata ptr %inner, metadata !3532, metadata !DIExpression()), !dbg !3536
  tail call void @llvm.dbg.value(metadata ptr %inner, metadata !3537, metadata !DIExpression(DW_OP_plus_uconst, 8, DW_OP_stack_value)), !dbg !3541
  tail call void @llvm.dbg.value(metadata ptr %self, metadata !3543, metadata !DIExpression(DW_OP_plus_uconst, 8, DW_OP_stack_value)), !dbg !3547
  tail call void @llvm.experimental.noalias.scope.decl(metadata !3549), !dbg !3531
  call void @llvm.dbg.declare(metadata ptr poison, metadata !2128, metadata !DIExpression(DW_OP_LLVM_fragment, 64, 320)), !dbg !3552
  call void @llvm.dbg.declare(metadata ptr poison, metadata !2147, metadata !DIExpression(DW_OP_LLVM_fragment, 64, 320)), !dbg !3556
  call void @llvm.dbg.declare(metadata ptr poison, metadata !2175, metadata !DIExpression(DW_OP_LLVM_fragment, 64, 320)), !dbg !3557
  call void @llvm.dbg.declare(metadata ptr poison, metadata !2148, metadata !DIExpression(DW_OP_LLVM_fragment, 64, 320)), !dbg !3559
  call void @llvm.dbg.value(metadata ptr %0, metadata !2074, metadata !DIExpression()), !dbg !3560
  call void @llvm.dbg.value(metadata ptr %self, metadata !2073, metadata !DIExpression(DW_OP_plus_uconst, 8, DW_OP_stack_value)), !dbg !3560
  call void @llvm.dbg.value(metadata i1 false, metadata !2075, metadata !DIExpression(DW_OP_LLVM_convert, 1, DW_ATE_unsigned, DW_OP_LLVM_convert, 8, DW_ATE_unsigned, DW_OP_stack_value)), !dbg !3560
  %_56 = getelementptr inbounds i8, ptr %self, i64 8, !dbg !3561
  call void @llvm.dbg.value(metadata ptr %_56, metadata !2073, metadata !DIExpression()), !dbg !3560
  call void @llvm.dbg.value(metadata ptr %x10, metadata !2076, metadata !DIExpression()), !dbg !3562
  call void @llvm.dbg.value(metadata ptr %x10, metadata !2296, metadata !DIExpression(DW_OP_plus_uconst, 24, DW_OP_stack_value)), !dbg !3563
  call void @llvm.dbg.value(metadata ptr %x10, metadata !2304, metadata !DIExpression(DW_OP_plus_uconst, 24, DW_OP_stack_value)), !dbg !3565
  %_65.i = getelementptr inbounds i8, ptr %0, i64 32, !dbg !3567
  %17 = load ptr, ptr %_65.i, align 8, !dbg !3568, !noalias !3569, !noundef !29
  call void @llvm.dbg.value(metadata ptr %17, metadata !2107, metadata !DIExpression()), !dbg !3571
  call void @llvm.dbg.value(metadata ptr %x10, metadata !2300, metadata !DIExpression(DW_OP_plus_uconst, 32, DW_OP_stack_value)), !dbg !3572
  call void @llvm.dbg.value(metadata ptr %x10, metadata !2308, metadata !DIExpression(DW_OP_plus_uconst, 32, DW_OP_stack_value)), !dbg !3574
  %_68.i = getelementptr inbounds i8, ptr %0, i64 40, !dbg !3576
  %18 = load ptr, ptr %_68.i, align 8, !dbg !3577, !noalias !3569, !noundef !29
  call void @llvm.dbg.value(metadata ptr %18, metadata !2109, metadata !DIExpression()), !dbg !3578
  %19 = icmp eq ptr %17, null, !dbg !3579
  %_74.i = getelementptr inbounds i8, ptr %17, i64 32, !dbg !3580
  %_74.sink.i = select i1 %19, ptr %_56, ptr %_74.i, !dbg !3580
  store ptr %18, ptr %_74.sink.i, align 8, !dbg !3578, !noalias !3581
  %20 = icmp eq ptr %18, null, !dbg !3582
  %_80.i = getelementptr inbounds i8, ptr %18, i64 24, !dbg !3583
  %21 = getelementptr inbounds i8, ptr %self, i64 16, !dbg !3583
  %_80.sink.i = select i1 %20, ptr %21, ptr %_80.i, !dbg !3583
  store ptr %17, ptr %_80.sink.i, align 8, !dbg !3578, !noalias !3581
  %_27.i = getelementptr inbounds i8, ptr %self, i64 24, !dbg !3584
  %_27.val.i = load ptr, ptr %_27.i, align 8, !dbg !3584, !alias.scope !3549, !noalias !3581, !noundef !29
  call void @llvm.dbg.value(metadata ptr undef, metadata !2394, metadata !DIExpression()), !dbg !3585
  call void @llvm.dbg.value(metadata ptr undef, metadata !2401, metadata !DIExpression()), !dbg !3585
  %_0.sroa.0.0.i.i = icmp eq ptr %x10, %_27.val.i, !dbg !3587
  br i1 %_0.sroa.0.0.i.i, label %bb9.i, label %bb11.i, !dbg !3584

bb9.i:                                            ; preds = %bb4
  store ptr %18, ptr %_27.i, align 8, !dbg !3588, !alias.scope !3549, !noalias !3581
  br label %bb11.i, !dbg !3589

bb11.i:                                           ; preds = %bb9.i, %bb4
  call void @llvm.dbg.value(metadata ptr %0, metadata !2156, metadata !DIExpression()), !dbg !3590
  call void @llvm.dbg.value(metadata ptr %0, metadata !2146, metadata !DIExpression()), !dbg !3591
  call void @llvm.dbg.value(metadata ptr %0, metadata !2413, metadata !DIExpression()), !dbg !3592
  call void @llvm.dbg.value(metadata ptr %0, metadata !2135, metadata !DIExpression()), !dbg !3594
  call void @llvm.dbg.value(metadata i64 0, metadata !2147, metadata !DIExpression(DW_OP_LLVM_fragment, 0, 64)), !dbg !3591
  call void @llvm.dbg.value(metadata i64 0, metadata !2128, metadata !DIExpression(DW_OP_LLVM_fragment, 0, 64)), !dbg !3594
  %result.sroa.0.0.copyload.i = load i64, ptr %0, align 8, !dbg !3595, !noalias !3569
  call void @llvm.dbg.value(metadata i64 %result.sroa.0.0.copyload.i, metadata !2148, metadata !DIExpression(DW_OP_LLVM_fragment, 0, 64)), !dbg !3596
  call void @llvm.dbg.value(metadata i64 %result.sroa.0.0.copyload.i, metadata !2175, metadata !DIExpression(DW_OP_LLVM_fragment, 0, 64)), !dbg !3597
  store i64 0, ptr %0, align 8, !dbg !3598, !noalias !3569
  %switch58.i = icmp eq i64 %result.sroa.0.0.copyload.i, 0, !dbg !3599
  br i1 %switch58.i, label %bb28.i, label %bb29.i, !dbg !3599

bb28.i:                                           ; preds = %bb11.i
; invoke core::option::unwrap_failed
  invoke void @_ZN4core6option13unwrap_failed17h7a3768beeda72485E(ptr noalias noundef nonnull readonly align 8 dereferenceable(24) @alloc_3d92cf09fa06db555c254e898e4a2d80) #23
          to label %.noexc unwind label %cleanup, !dbg !3600

.noexc:                                           ; preds = %bb28.i
  unreachable, !dbg !3600

bb29.i:                                           ; preds = %bb11.i
  %state.i.sroa.0.0.copyload = load i8, ptr %x10, align 8, !dbg !3601, !noalias !3569
  tail call void @llvm.dbg.value(metadata i8 %state.i.sroa.0.0.copyload, metadata !2117, metadata !DIExpression(DW_OP_LLVM_fragment, 0, 8)), !dbg !3602
  call void @llvm.dbg.value(metadata ptr undef, metadata !2431, metadata !DIExpression()), !dbg !3603
  switch i8 %state.i.sroa.0.0.copyload, label %bb5 [
    i8 1, label %bb31.i
    i8 3, label %bb31.i
  ], !dbg !3605

bb31.i:                                           ; preds = %bb29.i, %bb29.i
  %22 = getelementptr inbounds i8, ptr %self, i64 40, !dbg !3606
  %23 = load i64, ptr %22, align 8, !dbg !3606, !alias.scope !3549, !noalias !3581, !noundef !29
  %24 = add i64 %23, -1, !dbg !3606
  store i64 %24, ptr %22, align 8, !dbg !3606, !alias.scope !3549, !noalias !3581
  br label %bb5

bb7:                                              ; preds = %bb35
  call void @llvm.lifetime.start.p0(i64 16, ptr nonnull %other_task), !dbg !3607
  %25 = getelementptr inbounds i8, ptr %result, i64 8, !dbg !3607
  call void @llvm.memcpy.p0.p0.i64(ptr noundef nonnull align 8 dereferenceable(16) %other_task, ptr noundef nonnull align 8 dereferenceable(16) %25, i64 16, i1 false), !dbg !3607
  tail call void @llvm.dbg.value(metadata ptr %x10, metadata !3332, metadata !DIExpression()), !dbg !3608
  tail call void @llvm.dbg.value(metadata ptr %x10, metadata !3320, metadata !DIExpression()), !dbg !3609
  call void @llvm.lifetime.start.p0(i64 16, ptr nonnull %_27), !dbg !3610
  tail call void @llvm.dbg.value(metadata ptr %other_task, metadata !3611, metadata !DIExpression()), !dbg !3623
  %26 = load ptr, ptr %other_task, align 8, !dbg !3625, !noundef !29
  %27 = icmp eq ptr %26, null, !dbg !3625
  %_61 = getelementptr inbounds i8, ptr %other_task, i64 8, !dbg !3626
  %_29.sroa.0.0 = zext i1 %27 to i64, !dbg !3626
  call void @llvm.dbg.value(metadata i64 %task.0, metadata !3627, metadata !DIExpression(DW_OP_LLVM_fragment, 0, 64)), !dbg !3637
  call void @llvm.dbg.value(metadata ptr %task.1, metadata !3627, metadata !DIExpression(DW_OP_LLVM_fragment, 64, 64)), !dbg !3637
  call void @llvm.dbg.value(metadata i64 %_29.sroa.0.0, metadata !3633, metadata !DIExpression(DW_OP_LLVM_fragment, 0, 64)), !dbg !3637
  call void @llvm.dbg.value(metadata ptr poison, metadata !3633, metadata !DIExpression(DW_OP_LLVM_fragment, 64, 64)), !dbg !3637
  %28 = or i64 %_29.sroa.0.0, %task.0, !dbg !3639
  %or.cond.i = icmp eq i64 %28, 0, !dbg !3639
  br i1 %or.cond.i, label %bb4.i, label %bb10, !dbg !3639

bb4.i:                                            ; preds = %bb7
  %29 = icmp ne ptr %task.1, null
  tail call void @llvm.assume(i1 %29)
  call void @llvm.dbg.value(metadata ptr %task.1, metadata !3634, metadata !DIExpression()), !dbg !3640
  call void @llvm.dbg.value(metadata ptr %task.1, metadata !3641, metadata !DIExpression()), !dbg !3655
  call void @llvm.dbg.value(metadata ptr poison, metadata !3636, metadata !DIExpression()), !dbg !3640
  call void @llvm.dbg.value(metadata ptr poison, metadata !3648, metadata !DIExpression()), !dbg !3655
  %30 = getelementptr inbounds i8, ptr %task.1, i64 8, !dbg !3657
  %a_data.i = load ptr, ptr %30, align 8, !dbg !3657, !noundef !29
  call void @llvm.dbg.value(metadata ptr %a_data.i, metadata !3649, metadata !DIExpression()), !dbg !3658
  call void @llvm.dbg.value(metadata ptr poison, metadata !3651, metadata !DIExpression()), !dbg !3658
  call void @llvm.dbg.value(metadata ptr poison, metadata !3659, metadata !DIExpression()), !dbg !3669
  %_61.sroa.gep = getelementptr inbounds i8, ptr %other_task, i64 16, !dbg !3671
  %_29.sroa.6.0.sroa.sel = select i1 %27, ptr %_61.sroa.gep, ptr %_61, !dbg !3671
  %b_data.i = load ptr, ptr %_29.sroa.6.0.sroa.sel, align 8, !dbg !3671, !noundef !29
  call void @llvm.dbg.value(metadata ptr %b_data.i, metadata !3652, metadata !DIExpression()), !dbg !3672
  call void @llvm.dbg.value(metadata ptr poison, metadata !3654, metadata !DIExpression()), !dbg !3672
  call void @llvm.dbg.value(metadata ptr poison, metadata !3666, metadata !DIExpression()), !dbg !3669
  %_12.i = icmp eq ptr %a_data.i, %b_data.i, !dbg !3673
  br i1 %_12.i, label %bb8, label %bb10, !dbg !3673

cleanup:                                          ; preds = %bb2.i.i.i53, %bb28.i
  %31 = landingpad { ptr, i32 }
          cleanup
  br label %bb19, !dbg !3674

bb5:                                              ; preds = %bb29.i, %bb31.i
  %32 = getelementptr inbounds i8, ptr %self, i64 32, !dbg !3675
  %33 = load i64, ptr %32, align 8, !dbg !3675, !alias.scope !3549, !noalias !3581, !noundef !29
  %34 = add i64 %33, -1, !dbg !3675
  store i64 %34, ptr %32, align 8, !dbg !3675, !alias.scope !3549, !noalias !3581
  store i8 %state.i.sroa.0.0.copyload, ptr %_19, align 8, !dbg !3676, !noalias !3549
  %state.i.sroa.5.0._19.sroa_idx = getelementptr inbounds i8, ptr %_19, i64 1, !dbg !3676
  call void @llvm.memcpy.p0.p0.i64(ptr noundef nonnull align 1 dereferenceable(23) %state.i.sroa.5.0._19.sroa_idx, ptr noundef nonnull align 1 dereferenceable(23) %val.sroa.2.0._6.sroa.0.0.listener12.sroa_idx, i64 23, i1 false), !dbg !3676
  tail call void @llvm.experimental.noalias.scope.decl(metadata !3677), !dbg !3680
  call void @llvm.dbg.value(metadata ptr %_19, metadata !3681, metadata !DIExpression()), !dbg !3689
  %35 = icmp eq i8 %state.i.sroa.0.0.copyload, 4, !dbg !3691
  br i1 %35, label %bb6, label %bb2.i, !dbg !3691

bb2.i:                                            ; preds = %bb5
  tail call void @llvm.experimental.noalias.scope.decl(metadata !3692), !dbg !3691
  call void @llvm.dbg.value(metadata ptr %_19, metadata !1474, metadata !DIExpression()), !dbg !3695
  %cond.i.i = icmp eq i8 %state.i.sroa.0.0.copyload, 2, !dbg !3697
  br i1 %cond.i.i, label %bb2.i.i52, label %bb6, !dbg !3697

bb2.i.i52:                                        ; preds = %bb2.i
  %36 = getelementptr inbounds i8, ptr %_19, i64 8, !dbg !3697
  tail call void @llvm.experimental.noalias.scope.decl(metadata !3698), !dbg !3697
  call void @llvm.dbg.value(metadata ptr %36, metadata !1487, metadata !DIExpression()), !dbg !3701
  %37 = load ptr, ptr %36, align 8, !dbg !3703, !alias.scope !3704, !noundef !29
  %.not.i.i.i = icmp eq ptr %37, null, !dbg !3703
  %38 = getelementptr inbounds i8, ptr %_19, i64 16, !dbg !3703
  br i1 %.not.i.i.i, label %bb3.i.i.i, label %bb2.i.i.i53, !dbg !3703

bb2.i.i.i53:                                      ; preds = %bb2.i.i52
  %_1.val1.i.i.i = load ptr, ptr %38, align 8, !dbg !3703, !alias.scope !3704, !noundef !29
  call void @llvm.dbg.value(metadata ptr undef, metadata !1499, metadata !DIExpression()), !dbg !3705
  call void @llvm.dbg.value(metadata ptr undef, metadata !1507, metadata !DIExpression()), !dbg !3707
  %39 = getelementptr inbounds i8, ptr %37, i64 24, !dbg !3709
  %_2.i.i.i.i.i = load ptr, ptr %39, align 8, !dbg !3709, !noalias !3704, !nonnull !29, !noundef !29
  invoke void %_2.i.i.i.i.i(ptr noundef %_1.val1.i.i.i)
          to label %bb6 unwind label %cleanup, !dbg !3709

bb3.i.i.i:                                        ; preds = %bb2.i.i52
  tail call void @llvm.experimental.noalias.scope.decl(metadata !3710), !dbg !3703
  call void @llvm.dbg.value(metadata ptr %38, metadata !1521, metadata !DIExpression()), !dbg !3713
  tail call void @llvm.experimental.noalias.scope.decl(metadata !3715), !dbg !3718
  call void @llvm.dbg.value(metadata ptr %38, metadata !1535, metadata !DIExpression()), !dbg !3719
  tail call void @llvm.experimental.noalias.scope.decl(metadata !3721), !dbg !3724
  call void @llvm.dbg.value(metadata i64 1, metadata !1549, metadata !DIExpression()), !dbg !3725
  call void @llvm.dbg.value(metadata i8 1, metadata !1559, metadata !DIExpression()), !dbg !3725
  call void @llvm.dbg.value(metadata i64 1, metadata !1570, metadata !DIExpression()), !dbg !3728
  call void @llvm.dbg.value(metadata i8 1, metadata !1578, metadata !DIExpression()), !dbg !3728
  call void @llvm.dbg.value(metadata i8 2, metadata !1581, metadata !DIExpression()), !dbg !3730
  call void @llvm.dbg.value(metadata ptr %38, metadata !1568, metadata !DIExpression()), !dbg !3732
  call void @llvm.dbg.value(metadata ptr %38, metadata !1590, metadata !DIExpression()), !dbg !3733
  call void @llvm.dbg.value(metadata ptr %38, metadata !1601, metadata !DIExpression()), !dbg !3735
  %self6.i.i.i.i.i.i = load ptr, ptr %38, align 8, !dbg !3737, !alias.scope !3738, !nonnull !29, !noundef !29
  call void @llvm.dbg.value(metadata ptr %self6.i.i.i.i.i.i, metadata !1558, metadata !DIExpression()), !dbg !3725
  call void @llvm.dbg.value(metadata ptr %self6.i.i.i.i.i.i, metadata !1577, metadata !DIExpression()), !dbg !3728
  %40 = atomicrmw sub ptr %self6.i.i.i.i.i.i, i64 1 release, align 8, !dbg !3739, !noalias !3738
  %41 = icmp eq i64 %40, 1, !dbg !3740
  br i1 %41, label %bb2.i.i.i.i.i.i, label %bb6, !dbg !3740

bb2.i.i.i.i.i.i:                                  ; preds = %bb3.i.i.i
  fence acquire, !dbg !3741
; call alloc::sync::Arc<T,A>::drop_slow
  call fastcc void @"_ZN5alloc4sync16Arc$LT$T$C$A$GT$9drop_slow17h9675029db5300a12E"(ptr noalias noundef nonnull align 8 dereferenceable(8) %38), !dbg !3742
  br label %bb6, !dbg !3742

bb6:                                              ; preds = %bb2.i.i.i.i.i.i, %bb3.i.i.i, %bb2.i, %bb5, %bb2.i.i.i53
  call void @llvm.lifetime.end.p0(i64 24, ptr nonnull %_19), !dbg !3680
  tail call void @llvm.experimental.noalias.scope.decl(metadata !3743), !dbg !3505
  call void @llvm.dbg.value(metadata ptr %inner, metadata !2805, metadata !DIExpression()), !dbg !3746
  tail call void @llvm.experimental.noalias.scope.decl(metadata !3748), !dbg !3751
  call void @llvm.dbg.value(metadata i8 1, metadata !2815, metadata !DIExpression()), !dbg !3752
  call void @llvm.dbg.value(metadata ptr %inner, metadata !2833, metadata !DIExpression()), !dbg !3755
  call void @llvm.dbg.value(metadata ptr %inner, metadata !3441, metadata !DIExpression()), !dbg !3756
  call void @llvm.dbg.value(metadata ptr %inner, metadata !3447, metadata !DIExpression(DW_OP_plus_uconst, 8, DW_OP_stack_value)), !dbg !3758
  %_12.i.i56 = load ptr, ptr %9, align 8, !dbg !3760, !alias.scope !3743, !nonnull !29, !align !3761, !noundef !29
  call void @llvm.dbg.value(metadata ptr %_12.i.i56, metadata !2834, metadata !DIExpression(DW_OP_plus_uconst, 8, DW_OP_stack_value)), !dbg !3762
  %42 = getelementptr inbounds i8, ptr %_12.i.i56, i64 40, !dbg !3763
  %_4.i.i57 = load i64, ptr %42, align 8, !dbg !3763, !noalias !3764, !noundef !29
  %43 = getelementptr inbounds i8, ptr %_12.i.i56, i64 32, !dbg !3765
  %_5.i.i58 = load i64, ptr %43, align 8, !dbg !3765, !noalias !3764, !noundef !29
  %_3.i.i59 = icmp ult i64 %_4.i.i57, %_5.i.i58, !dbg !3763
  %_4..i.i60 = select i1 %_3.i.i59, i64 %_4.i.i57, i64 -1, !dbg !3766
  call void @llvm.dbg.value(metadata i64 %_4..i.i60, metadata !2835, metadata !DIExpression()), !dbg !3767
  %_8.i.i61 = load ptr, ptr %inner, align 8, !dbg !3768, !alias.scope !3764, !nonnull !29, !align !3761, !noundef !29
  call void @llvm.dbg.value(metadata ptr %_8.i.i61, metadata !2822, metadata !DIExpression(DW_OP_plus_uconst, 48, DW_OP_stack_value)), !dbg !3752
  call void @llvm.dbg.value(metadata i64 %_4..i.i60, metadata !2823, metadata !DIExpression()), !dbg !3752
  call void @llvm.dbg.value(metadata ptr %_8.i.i61, metadata !2848, metadata !DIExpression(DW_OP_plus_uconst, 48, DW_OP_stack_value)), !dbg !3769
  %_17.i.i62 = getelementptr inbounds i8, ptr %_8.i.i61, i64 48, !dbg !3771
  call void @llvm.dbg.value(metadata i8 1, metadata !2859, metadata !DIExpression()), !dbg !3772
  call void @llvm.dbg.value(metadata ptr %_17.i.i62, metadata !2864, metadata !DIExpression()), !dbg !3772
  call void @llvm.dbg.value(metadata i64 %_4..i.i60, metadata !2865, metadata !DIExpression()), !dbg !3772
  store atomic i64 %_4..i.i60, ptr %_17.i.i62 release, align 8, !dbg !3774, !noalias !3764
  %.val3.i63 = load i8, ptr %10, align 8, !dbg !3751, !range !1705, !alias.scope !3775, !noundef !29
  call void @llvm.dbg.value(metadata ptr undef, metadata !2869, metadata !DIExpression()), !dbg !3778
  call void @llvm.dbg.value(metadata i32 0, metadata !2877, metadata !DIExpression()), !dbg !3780
  call void @llvm.dbg.value(metadata i8 1, metadata !2885, metadata !DIExpression()), !dbg !3780
  call void @llvm.dbg.value(metadata i32 0, metadata !2901, metadata !DIExpression()), !dbg !3784
  call void @llvm.dbg.value(metadata i8 1, metadata !2908, metadata !DIExpression()), !dbg !3784
  call void @llvm.dbg.value(metadata ptr undef, metadata !2899, metadata !DIExpression()), !dbg !3786
  %_3.i.i.i64 = getelementptr inbounds i8, ptr %_12.i.i56, i64 4, !dbg !3787
  call void @llvm.dbg.value(metadata ptr @_ZN3std9panicking11panic_count18GLOBAL_PANIC_COUNT17h00e7dcd913cdfbe0E, metadata !2912, metadata !DIExpression()), !dbg !3788
  call void @llvm.dbg.value(metadata i8 0, metadata !2916, metadata !DIExpression()), !dbg !3788
  call void @llvm.dbg.value(metadata i8 1, metadata !2937, metadata !DIExpression()), !dbg !3794
  call void @llvm.dbg.value(metadata i8 0, metadata !2945, metadata !DIExpression()), !dbg !3794
  call void @llvm.dbg.value(metadata ptr %_3.i.i.i64, metadata !2934, metadata !DIExpression()), !dbg !3796
  call void @llvm.dbg.value(metadata ptr undef, metadata !2935, metadata !DIExpression()), !dbg !3796
  %_3.not.i.i.i.i65 = icmp eq i8 %.val3.i63, 0, !dbg !3797
  br i1 %_3.not.i.i.i.i65, label %bb1.i.i.i.i69, label %_ZN3std4sync6poison4Flag4done17h6b62417d8d60c5ceE.exit.i.i.i66, !dbg !3797

bb1.i.i.i.i69:                                    ; preds = %bb6
  call void @llvm.dbg.value(metadata i8 0, metadata !2743, metadata !DIExpression()), !dbg !3798
  call void @llvm.dbg.value(metadata ptr @_ZN3std9panicking11panic_count18GLOBAL_PANIC_COUNT17h00e7dcd913cdfbe0E, metadata !2748, metadata !DIExpression()), !dbg !3798
  %44 = load atomic i64, ptr @_ZN3std9panicking11panic_count18GLOBAL_PANIC_COUNT17h00e7dcd913cdfbe0E monotonic, align 8, !dbg !3800, !noalias !3801
  %_7.i.i.i.i70 = and i64 %44, 9223372036854775807, !dbg !3804
  %45 = icmp eq i64 %_7.i.i.i.i70, 0, !dbg !3804
  br i1 %45, label %_ZN3std4sync6poison4Flag4done17h6b62417d8d60c5ceE.exit.i.i.i66, label %bb6.i.i.i.i71, !dbg !3804

bb6.i.i.i.i71:                                    ; preds = %bb1.i.i.i.i69
; invoke std::panicking::panic_count::is_zero_slow_path
  %_6.i.i.i.i7274 = invoke noundef zeroext i1 @_ZN3std9panicking11panic_count17is_zero_slow_path17h24de30857bbd803cE()
          to label %_6.i.i.i.i72.noexc unwind label %cleanup25, !dbg !3805

_6.i.i.i.i72.noexc:                               ; preds = %bb6.i.i.i.i71
  br i1 %_6.i.i.i.i7274, label %_ZN3std4sync6poison4Flag4done17h6b62417d8d60c5ceE.exit.i.i.i66, label %bb2.i.i.i.i73, !dbg !3806

bb2.i.i.i.i73:                                    ; preds = %_6.i.i.i.i72.noexc
  call void @llvm.dbg.value(metadata ptr %_3.i.i.i64, metadata !2944, metadata !DIExpression()), !dbg !3794
  call void @llvm.dbg.value(metadata i8 0, metadata !2959, metadata !DIExpression()), !dbg !3807
  call void @llvm.dbg.value(metadata ptr %_3.i.i.i64, metadata !2965, metadata !DIExpression()), !dbg !3807
  call void @llvm.dbg.value(metadata i8 1, metadata !2966, metadata !DIExpression()), !dbg !3807
  store atomic i8 1, ptr %_3.i.i.i64 monotonic, align 4, !dbg !3809, !noalias !3801
  br label %_ZN3std4sync6poison4Flag4done17h6b62417d8d60c5ceE.exit.i.i.i66, !dbg !3810

_ZN3std4sync6poison4Flag4done17h6b62417d8d60c5ceE.exit.i.i.i66: ; preds = %bb2.i.i.i.i73, %_6.i.i.i.i72.noexc, %bb1.i.i.i.i69, %bb6
  call void @llvm.dbg.value(metadata ptr %_12.i.i56, metadata !2892, metadata !DIExpression()), !dbg !3811
  call void @llvm.dbg.value(metadata ptr %_12.i.i56, metadata !2884, metadata !DIExpression()), !dbg !3780
  call void @llvm.dbg.value(metadata ptr %_12.i.i56, metadata !2907, metadata !DIExpression()), !dbg !3784
  %46 = atomicrmw xchg ptr %_12.i.i56, i32 0 release, align 4, !dbg !3812, !noalias !3801
  %_8.i.i.i67 = icmp eq i32 %46, 2, !dbg !3813
  br i1 %_8.i.i.i67, label %bb2.i.i.i68, label %bb41, !dbg !3813

bb2.i.i.i68:                                      ; preds = %_ZN3std4sync6poison4Flag4done17h6b62417d8d60c5ceE.exit.i.i.i66
; invoke std::sys::sync::mutex::futex::Mutex::wake
  invoke void @_ZN3std3sys4sync5mutex5futex5Mutex4wake17hc487312157454c34E(ptr noundef nonnull align 4 %_12.i.i56)
          to label %bb41 unwind label %cleanup25, !dbg !3814

bb33:                                             ; preds = %bb19, %cleanup25
  %_35.sroa.0.0 = phi i8 [ %_35.sroa.0.1, %cleanup25 ], [ %_35.sroa.0.3, %bb19 ], !dbg !3815
  %.pn46 = phi { ptr, i32 } [ %48, %cleanup25 ], [ %.pn, %bb19 ]
  %47 = load i8, ptr %result, align 8, !dbg !3505, !range !1466, !noundef !29
  %cond33 = icmp ne i8 %47, 2, !dbg !3505
  %.not = icmp eq i8 %_35.sroa.0.0, 0, !dbg !3505
  %or.cond = or i1 %.not, %cond33, !dbg !3505
  br i1 %or.cond, label %bb20, label %bb32, !dbg !3505

cleanup25:                                        ; preds = %bb2.i.i.i107, %bb6.i.i.i.i110, %bb2.i.i.i68, %bb6.i.i.i.i71
  %_35.sroa.0.1 = phi i8 [ 1, %bb6.i.i.i.i71 ], [ 1, %bb2.i.i.i68 ], [ %_35.sroa.0.5, %bb6.i.i.i.i110 ], [ %_35.sroa.0.5, %bb2.i.i.i107 ], !dbg !3815
  %48 = landingpad { ptr, i32 }
          cleanup
  br label %bb33

bb41:                                             ; preds = %_ZN3std4sync6poison4Flag4done17h6b62417d8d60c5ceE.exit.i.i.i66, %bb2.i.i.i68
  call void @llvm.lifetime.end.p0(i64 24, ptr nonnull %inner), !dbg !3505
  %49 = load i8, ptr %result, align 8, !dbg !3505, !range !1466, !noundef !29
  %cond = icmp eq i8 %49, 2, !dbg !3505
  br i1 %cond, label %bb26, label %bb22, !dbg !3505

bb22:                                             ; preds = %bb2.i.i.i.i133, %bb3.i131, %bb2.i128, %bb15, %bb41
  %_0.sroa.0.1 = phi i8 [ 1, %bb15 ], [ 0, %bb41 ], [ %_0.sroa.0.2139, %bb2.i128 ], [ %_0.sroa.0.2139, %bb3.i131 ], [ %_0.sroa.0.2139, %bb2.i.i.i.i133 ], !dbg !3509
  call void @llvm.lifetime.end.p0(i64 24, ptr nonnull %result), !dbg !3505
  br label %bb17, !dbg !3506

bb19:                                             ; preds = %cleanup28, %bb27, %cleanup29, %cleanup
  %_35.sroa.0.3 = phi i8 [ %_35.sroa.0.4, %cleanup29 ], [ 0, %bb27 ], [ 0, %cleanup28 ], [ 1, %cleanup ], !dbg !3509
  %.pn = phi { ptr, i32 } [ %69, %cleanup29 ], [ %lpad.thr_comm, %bb27 ], [ %lpad.thr_comm.split-lp, %cleanup28 ], [ %31, %cleanup ]
; invoke core::ptr::drop_in_place<event_listener::sys::ListLock<()>>
  invoke fastcc void @"_ZN4core3ptr66drop_in_place$LT$event_listener..sys..ListLock$LT$$LP$$RP$$GT$$GT$17h5235da984ad70df5E"(ptr noalias noundef nonnull align 8 dereferenceable(24) %inner) #24
          to label %bb33 unwind label %terminate, !dbg !3505

cleanup28:                                        ; preds = %bb2.i.i78
  %lpad.thr_comm.split-lp = landingpad { ptr, i32 }
          cleanup
  br label %bb19, !dbg !3816

bb8:                                              ; preds = %bb4.i
  %_61.val = load ptr, ptr %_61, align 8, !dbg !3817
  %b_vtable.i = select i1 %27, ptr %_61.val, ptr %26, !dbg !3817
  call void @llvm.dbg.value(metadata ptr %b_vtable.i, metadata !3654, metadata !DIExpression()), !dbg !3672
  call void @llvm.dbg.value(metadata ptr %b_vtable.i, metadata !3666, metadata !DIExpression()), !dbg !3669
  %a_vtable.i = load ptr, ptr %task.1, align 8, !dbg !3818, !nonnull !29, !align !3761, !noundef !29
  call void @llvm.dbg.value(metadata ptr %a_vtable.i, metadata !3651, metadata !DIExpression()), !dbg !3658
  call void @llvm.dbg.value(metadata ptr %a_vtable.i, metadata !3659, metadata !DIExpression()), !dbg !3669
  %50 = icmp eq ptr %a_vtable.i, %b_vtable.i, !dbg !3819
  br i1 %50, label %bb9, label %bb10, !dbg !3820

bb10:                                             ; preds = %bb7, %bb4.i, %bb8
; invoke event_listener::TaskRef::into_task
  invoke void @_ZN14event_listener7TaskRef9into_task17h3efcc1dabcaa6adbE(ptr noalias nocapture noundef nonnull sret([16 x i8]) align 8 dereferenceable(16) %_27, i64 noundef %task.0, ptr noundef %task.1)
          to label %bb11 unwind label %bb27, !dbg !3821

bb9:                                              ; preds = %bb8
  %val2.sroa.4.8.sroa_idx37 = getelementptr inbounds i8, ptr %val2.sroa.4, i64 7, !dbg !3822
  call void @llvm.memcpy.p0.p0.i64(ptr noundef nonnull align 1 dereferenceable(16) %val2.sroa.4.8.sroa_idx37, ptr noundef nonnull align 8 dereferenceable(16) %25, i64 16, i1 false), !dbg !3822
  tail call void @llvm.dbg.value(metadata i8 2, metadata !3334, metadata !DIExpression(DW_OP_LLVM_fragment, 0, 8)), !dbg !3608
  tail call void @llvm.dbg.value(metadata i8 2, metadata !3322, metadata !DIExpression(DW_OP_LLVM_fragment, 0, 8)), !dbg !3609
  tail call void @llvm.dbg.value(metadata i8 2, metadata !3307, metadata !DIExpression(DW_OP_LLVM_fragment, 0, 8)), !dbg !3823
  tail call void @llvm.dbg.value(metadata i8 2, metadata !3292, metadata !DIExpression(DW_OP_LLVM_fragment, 0, 8)), !dbg !3824
  call void @llvm.lifetime.end.p0(i64 16, ptr nonnull %_27), !dbg !3825
  call void @llvm.lifetime.start.p0(i64 24, ptr nonnull %result4), !dbg !3826
  tail call void @llvm.dbg.value(metadata ptr %x10, metadata !3305, metadata !DIExpression()), !dbg !3823
  tail call void @llvm.dbg.value(metadata ptr %x10, metadata !3518, metadata !DIExpression()), !dbg !3827
  tail call void @llvm.dbg.value(metadata ptr %x10, metadata !3290, metadata !DIExpression()), !dbg !3824
  call void @llvm.memcpy.p0.p0.i64(ptr noundef nonnull align 8 dereferenceable(24) %result4, ptr noundef nonnull align 8 dereferenceable(24) %x10, i64 24, i1 false), !dbg !3829
  store i8 2, ptr %x10, align 8, !dbg !3830
  call void @llvm.memcpy.p0.p0.i64(ptr noundef nonnull align 1 dereferenceable(23) %val.sroa.2.0._6.sroa.0.0.listener12.sroa_idx, ptr noundef nonnull align 1 dereferenceable(23) %val2.sroa.4, i64 23, i1 false), !dbg !3830
  tail call void @llvm.experimental.noalias.scope.decl(metadata !3831), !dbg !3834
  call void @llvm.dbg.value(metadata ptr %result4, metadata !1474, metadata !DIExpression()), !dbg !3835
  %51 = load i8, ptr %result4, align 8, !dbg !3837, !range !1466, !alias.scope !3831, !noundef !29
  %cond.i = icmp eq i8 %51, 2, !dbg !3837
  br i1 %cond.i, label %bb2.i77, label %bb42, !dbg !3837

bb2.i77:                                          ; preds = %bb9
  %52 = getelementptr inbounds i8, ptr %result4, i64 8, !dbg !3837
  tail call void @llvm.experimental.noalias.scope.decl(metadata !3838), !dbg !3837
  call void @llvm.dbg.value(metadata ptr %52, metadata !1487, metadata !DIExpression()), !dbg !3841
  %53 = load ptr, ptr %52, align 8, !dbg !3843, !alias.scope !3844, !noundef !29
  %.not.i.i = icmp eq ptr %53, null, !dbg !3843
  %54 = getelementptr inbounds i8, ptr %result4, i64 16, !dbg !3843
  br i1 %.not.i.i, label %bb3.i.i, label %bb2.i.i78, !dbg !3843

bb2.i.i78:                                        ; preds = %bb2.i77
  %_1.val1.i.i = load ptr, ptr %54, align 8, !dbg !3843, !alias.scope !3844, !noundef !29
  call void @llvm.dbg.value(metadata ptr undef, metadata !1499, metadata !DIExpression()), !dbg !3845
  call void @llvm.dbg.value(metadata ptr undef, metadata !1507, metadata !DIExpression()), !dbg !3847
  %55 = getelementptr inbounds i8, ptr %53, i64 24, !dbg !3849
  %_2.i.i.i.i = load ptr, ptr %55, align 8, !dbg !3849, !noalias !3844, !nonnull !29, !noundef !29
  invoke void %_2.i.i.i.i(ptr noundef %_1.val1.i.i)
          to label %bb42 unwind label %cleanup28, !dbg !3849

bb3.i.i:                                          ; preds = %bb2.i77
  tail call void @llvm.experimental.noalias.scope.decl(metadata !3850), !dbg !3843
  call void @llvm.dbg.value(metadata ptr %54, metadata !1521, metadata !DIExpression()), !dbg !3853
  tail call void @llvm.experimental.noalias.scope.decl(metadata !3855), !dbg !3858
  call void @llvm.dbg.value(metadata ptr %54, metadata !1535, metadata !DIExpression()), !dbg !3859
  tail call void @llvm.experimental.noalias.scope.decl(metadata !3861), !dbg !3864
  call void @llvm.dbg.value(metadata i64 1, metadata !1549, metadata !DIExpression()), !dbg !3865
  call void @llvm.dbg.value(metadata i8 1, metadata !1559, metadata !DIExpression()), !dbg !3865
  call void @llvm.dbg.value(metadata i64 1, metadata !1570, metadata !DIExpression()), !dbg !3868
  call void @llvm.dbg.value(metadata i8 1, metadata !1578, metadata !DIExpression()), !dbg !3868
  call void @llvm.dbg.value(metadata i8 2, metadata !1581, metadata !DIExpression()), !dbg !3870
  call void @llvm.dbg.value(metadata ptr %54, metadata !1568, metadata !DIExpression()), !dbg !3872
  call void @llvm.dbg.value(metadata ptr %54, metadata !1590, metadata !DIExpression()), !dbg !3873
  call void @llvm.dbg.value(metadata ptr %54, metadata !1601, metadata !DIExpression()), !dbg !3875
  %self6.i.i.i.i.i = load ptr, ptr %54, align 8, !dbg !3877, !alias.scope !3878, !nonnull !29, !noundef !29
  call void @llvm.dbg.value(metadata ptr %self6.i.i.i.i.i, metadata !1558, metadata !DIExpression()), !dbg !3865
  call void @llvm.dbg.value(metadata ptr %self6.i.i.i.i.i, metadata !1577, metadata !DIExpression()), !dbg !3868
  %56 = atomicrmw sub ptr %self6.i.i.i.i.i, i64 1 release, align 8, !dbg !3879, !noalias !3878
  %57 = icmp eq i64 %56, 1, !dbg !3880
  br i1 %57, label %bb2.i.i.i.i.i, label %bb42, !dbg !3880

bb2.i.i.i.i.i:                                    ; preds = %bb3.i.i
  fence acquire, !dbg !3881
; call alloc::sync::Arc<T,A>::drop_slow
  call fastcc void @"_ZN5alloc4sync16Arc$LT$T$C$A$GT$9drop_slow17h9675029db5300a12E"(ptr noalias noundef nonnull align 8 dereferenceable(8) %54), !dbg !3882
  br label %bb42, !dbg !3882

bb11:                                             ; preds = %bb10
  %val2.sroa.4.8.sroa_idx = getelementptr inbounds i8, ptr %val2.sroa.4, i64 7, !dbg !3822
  call void @llvm.memcpy.p0.p0.i64(ptr noundef nonnull align 1 dereferenceable(16) %val2.sroa.4.8.sroa_idx, ptr noundef nonnull align 8 dereferenceable(16) %_27, i64 16, i1 false), !dbg !3822
  tail call void @llvm.dbg.value(metadata i8 2, metadata !3334, metadata !DIExpression(DW_OP_LLVM_fragment, 0, 8)), !dbg !3608
  tail call void @llvm.dbg.value(metadata i8 2, metadata !3322, metadata !DIExpression(DW_OP_LLVM_fragment, 0, 8)), !dbg !3609
  tail call void @llvm.dbg.value(metadata i8 2, metadata !3307, metadata !DIExpression(DW_OP_LLVM_fragment, 0, 8)), !dbg !3823
  tail call void @llvm.dbg.value(metadata i8 2, metadata !3292, metadata !DIExpression(DW_OP_LLVM_fragment, 0, 8)), !dbg !3824
  call void @llvm.lifetime.end.p0(i64 16, ptr nonnull %_27), !dbg !3825
  call void @llvm.lifetime.start.p0(i64 24, ptr nonnull %result4), !dbg !3826
  tail call void @llvm.dbg.value(metadata ptr %x10, metadata !3305, metadata !DIExpression()), !dbg !3823
  tail call void @llvm.dbg.value(metadata ptr %x10, metadata !3518, metadata !DIExpression()), !dbg !3827
  tail call void @llvm.dbg.value(metadata ptr %x10, metadata !3290, metadata !DIExpression()), !dbg !3824
  call void @llvm.memcpy.p0.p0.i64(ptr noundef nonnull align 8 dereferenceable(24) %result4, ptr noundef nonnull align 8 dereferenceable(24) %x10, i64 24, i1 false), !dbg !3829
  store i8 2, ptr %x10, align 8, !dbg !3830
  call void @llvm.memcpy.p0.p0.i64(ptr noundef nonnull align 1 dereferenceable(23) %val.sroa.2.0._6.sroa.0.0.listener12.sroa_idx, ptr noundef nonnull align 1 dereferenceable(23) %val2.sroa.4, i64 23, i1 false), !dbg !3830
  tail call void @llvm.experimental.noalias.scope.decl(metadata !3883), !dbg !3834
  call void @llvm.dbg.value(metadata ptr %result4, metadata !1474, metadata !DIExpression()), !dbg !3886
  %58 = load i8, ptr %result4, align 8, !dbg !3888, !range !1466, !alias.scope !3883, !noundef !29
  %cond.i80 = icmp eq i8 %58, 2, !dbg !3888
  br i1 %cond.i80, label %bb2.i81, label %bb39, !dbg !3888

bb2.i81:                                          ; preds = %bb11
  %59 = getelementptr inbounds i8, ptr %result4, i64 8, !dbg !3888
  tail call void @llvm.experimental.noalias.scope.decl(metadata !3889), !dbg !3888
  call void @llvm.dbg.value(metadata ptr %59, metadata !1487, metadata !DIExpression()), !dbg !3892
  %60 = load ptr, ptr %59, align 8, !dbg !3894, !alias.scope !3895, !noundef !29
  %.not.i.i82 = icmp eq ptr %60, null, !dbg !3894
  %61 = getelementptr inbounds i8, ptr %result4, i64 16, !dbg !3894
  br i1 %.not.i.i82, label %bb3.i.i86, label %bb2.i.i83, !dbg !3894

bb2.i.i83:                                        ; preds = %bb2.i81
  %_1.val1.i.i84 = load ptr, ptr %61, align 8, !dbg !3894, !alias.scope !3895, !noundef !29
  call void @llvm.dbg.value(metadata ptr undef, metadata !1499, metadata !DIExpression()), !dbg !3896
  call void @llvm.dbg.value(metadata ptr undef, metadata !1507, metadata !DIExpression()), !dbg !3898
  %62 = getelementptr inbounds i8, ptr %60, i64 24, !dbg !3900
  %_2.i.i.i.i85 = load ptr, ptr %62, align 8, !dbg !3900, !noalias !3895, !nonnull !29, !noundef !29
  invoke void %_2.i.i.i.i85(ptr noundef %_1.val1.i.i84)
          to label %bb39 unwind label %bb27, !dbg !3900

bb3.i.i86:                                        ; preds = %bb2.i81
  tail call void @llvm.experimental.noalias.scope.decl(metadata !3901), !dbg !3894
  call void @llvm.dbg.value(metadata ptr %61, metadata !1521, metadata !DIExpression()), !dbg !3904
  tail call void @llvm.experimental.noalias.scope.decl(metadata !3906), !dbg !3909
  call void @llvm.dbg.value(metadata ptr %61, metadata !1535, metadata !DIExpression()), !dbg !3910
  tail call void @llvm.experimental.noalias.scope.decl(metadata !3912), !dbg !3915
  call void @llvm.dbg.value(metadata i64 1, metadata !1549, metadata !DIExpression()), !dbg !3916
  call void @llvm.dbg.value(metadata i8 1, metadata !1559, metadata !DIExpression()), !dbg !3916
  call void @llvm.dbg.value(metadata i64 1, metadata !1570, metadata !DIExpression()), !dbg !3919
  call void @llvm.dbg.value(metadata i8 1, metadata !1578, metadata !DIExpression()), !dbg !3919
  call void @llvm.dbg.value(metadata i8 2, metadata !1581, metadata !DIExpression()), !dbg !3921
  call void @llvm.dbg.value(metadata ptr %61, metadata !1568, metadata !DIExpression()), !dbg !3923
  call void @llvm.dbg.value(metadata ptr %61, metadata !1590, metadata !DIExpression()), !dbg !3924
  call void @llvm.dbg.value(metadata ptr %61, metadata !1601, metadata !DIExpression()), !dbg !3926
  %self6.i.i.i.i.i87 = load ptr, ptr %61, align 8, !dbg !3928, !alias.scope !3929, !nonnull !29, !noundef !29
  call void @llvm.dbg.value(metadata ptr %self6.i.i.i.i.i87, metadata !1558, metadata !DIExpression()), !dbg !3916
  call void @llvm.dbg.value(metadata ptr %self6.i.i.i.i.i87, metadata !1577, metadata !DIExpression()), !dbg !3919
  %63 = atomicrmw sub ptr %self6.i.i.i.i.i87, i64 1 release, align 8, !dbg !3930, !noalias !3929
  %64 = icmp eq i64 %63, 1, !dbg !3931
  br i1 %64, label %bb2.i.i.i.i.i88, label %bb39, !dbg !3931

bb2.i.i.i.i.i88:                                  ; preds = %bb3.i.i86
  fence acquire, !dbg !3932
; call alloc::sync::Arc<T,A>::drop_slow
  call fastcc void @"_ZN5alloc4sync16Arc$LT$T$C$A$GT$9drop_slow17h9675029db5300a12E"(ptr noalias noundef nonnull align 8 dereferenceable(8) %61), !dbg !3933
  br label %bb39, !dbg !3933

bb39:                                             ; preds = %bb2.i.i.i.i.i88, %bb3.i.i86, %bb11, %bb2.i.i83
  call void @llvm.lifetime.end.p0(i64 24, ptr nonnull %result4), !dbg !3834
  tail call void @llvm.experimental.noalias.scope.decl(metadata !3934), !dbg !3816
  call void @llvm.dbg.value(metadata ptr %other_task, metadata !1487, metadata !DIExpression()), !dbg !3937
  %65 = load ptr, ptr %other_task, align 8, !dbg !3939, !alias.scope !3934, !noundef !29
  %.not.i = icmp eq ptr %65, null, !dbg !3939
  br i1 %.not.i, label %bb3.i, label %bb2.i91, !dbg !3939

bb2.i91:                                          ; preds = %bb39
  %_1.val1.i = load ptr, ptr %_61, align 8, !dbg !3939, !alias.scope !3934, !noundef !29
  call void @llvm.dbg.value(metadata ptr undef, metadata !1499, metadata !DIExpression()), !dbg !3940
  call void @llvm.dbg.value(metadata ptr undef, metadata !1507, metadata !DIExpression()), !dbg !3942
  %66 = getelementptr inbounds i8, ptr %65, i64 24, !dbg !3944
  %_2.i.i.i = load ptr, ptr %66, align 8, !dbg !3944, !noalias !3934, !nonnull !29, !noundef !29
  invoke void %_2.i.i.i(ptr noundef %_1.val1.i)
          to label %bb12 unwind label %cleanup29, !dbg !3944

bb3.i:                                            ; preds = %bb39
  tail call void @llvm.experimental.noalias.scope.decl(metadata !3945), !dbg !3939
  call void @llvm.dbg.value(metadata ptr %_61, metadata !1521, metadata !DIExpression()), !dbg !3948
  tail call void @llvm.experimental.noalias.scope.decl(metadata !3950), !dbg !3953
  call void @llvm.dbg.value(metadata ptr %_61, metadata !1535, metadata !DIExpression()), !dbg !3954
  tail call void @llvm.experimental.noalias.scope.decl(metadata !3956), !dbg !3959
  call void @llvm.dbg.value(metadata i64 1, metadata !1549, metadata !DIExpression()), !dbg !3960
  call void @llvm.dbg.value(metadata i8 1, metadata !1559, metadata !DIExpression()), !dbg !3960
  call void @llvm.dbg.value(metadata i64 1, metadata !1570, metadata !DIExpression()), !dbg !3963
  call void @llvm.dbg.value(metadata i8 1, metadata !1578, metadata !DIExpression()), !dbg !3963
  call void @llvm.dbg.value(metadata i8 2, metadata !1581, metadata !DIExpression()), !dbg !3965
  call void @llvm.dbg.value(metadata ptr %_61, metadata !1568, metadata !DIExpression()), !dbg !3967
  call void @llvm.dbg.value(metadata ptr %_61, metadata !1590, metadata !DIExpression()), !dbg !3968
  call void @llvm.dbg.value(metadata ptr %_61, metadata !1601, metadata !DIExpression()), !dbg !3970
  %self6.i.i.i.i = load ptr, ptr %_61, align 8, !dbg !3972, !alias.scope !3973, !nonnull !29, !noundef !29
  call void @llvm.dbg.value(metadata ptr %self6.i.i.i.i, metadata !1558, metadata !DIExpression()), !dbg !3960
  call void @llvm.dbg.value(metadata ptr %self6.i.i.i.i, metadata !1577, metadata !DIExpression()), !dbg !3963
  %67 = atomicrmw sub ptr %self6.i.i.i.i, i64 1 release, align 8, !dbg !3974, !noalias !3973
  %68 = icmp eq i64 %67, 1, !dbg !3975
  br i1 %68, label %bb2.i.i.i.i92, label %bb12, !dbg !3975

bb2.i.i.i.i92:                                    ; preds = %bb3.i
  fence acquire, !dbg !3976
; call alloc::sync::Arc<T,A>::drop_slow
  call fastcc void @"_ZN5alloc4sync16Arc$LT$T$C$A$GT$9drop_slow17h9675029db5300a12E"(ptr noalias noundef nonnull align 8 dereferenceable(8) %_61), !dbg !3977
  br label %bb12, !dbg !3977

bb12:                                             ; preds = %bb2.i.i.i.i92, %bb3.i, %bb2.i91, %bb42
  call void @llvm.lifetime.end.p0(i64 16, ptr nonnull %other_task), !dbg !3816
  br label %bb14, !dbg !3816

cleanup29:                                        ; preds = %bb2.i.i119, %bb2.i91, %bb3
  %_35.sroa.0.4 = phi i8 [ 1, %bb3 ], [ 0, %bb2.i91 ], [ 1, %bb2.i.i119 ], !dbg !3509
  %69 = landingpad { ptr, i32 }
          cleanup
  br label %bb19

bb42:                                             ; preds = %bb2.i.i.i.i.i, %bb3.i.i, %bb9, %bb2.i.i78
  call void @llvm.lifetime.end.p0(i64 24, ptr nonnull %result4), !dbg !3834
  br label %bb12, !dbg !3816

bb14:                                             ; preds = %bb40, %bb12
  %.not48 = phi i1 [ false, %bb40 ], [ true, %bb12 ], !dbg !3509
  %_35.sroa.0.5 = phi i8 [ 1, %bb40 ], [ 0, %bb12 ], !dbg !3509
  tail call void @llvm.experimental.noalias.scope.decl(metadata !3978), !dbg !3505
  call void @llvm.dbg.value(metadata ptr %inner, metadata !2805, metadata !DIExpression()), !dbg !3981
  tail call void @llvm.experimental.noalias.scope.decl(metadata !3983), !dbg !3986
  call void @llvm.dbg.value(metadata i8 1, metadata !2815, metadata !DIExpression()), !dbg !3987
  call void @llvm.dbg.value(metadata ptr %inner, metadata !2833, metadata !DIExpression()), !dbg !3990
  call void @llvm.dbg.value(metadata ptr %inner, metadata !3441, metadata !DIExpression()), !dbg !3991
  call void @llvm.dbg.value(metadata ptr %inner, metadata !3447, metadata !DIExpression(DW_OP_plus_uconst, 8, DW_OP_stack_value)), !dbg !3993
  %_12.i.i95 = load ptr, ptr %9, align 8, !dbg !3995, !alias.scope !3978, !nonnull !29, !align !3761, !noundef !29
  call void @llvm.dbg.value(metadata ptr %_12.i.i95, metadata !2834, metadata !DIExpression(DW_OP_plus_uconst, 8, DW_OP_stack_value)), !dbg !3996
  %70 = getelementptr inbounds i8, ptr %_12.i.i95, i64 40, !dbg !3997
  %_4.i.i96 = load i64, ptr %70, align 8, !dbg !3997, !noalias !3998, !noundef !29
  %71 = getelementptr inbounds i8, ptr %_12.i.i95, i64 32, !dbg !3999
  %_5.i.i97 = load i64, ptr %71, align 8, !dbg !3999, !noalias !3998, !noundef !29
  %_3.i.i98 = icmp ult i64 %_4.i.i96, %_5.i.i97, !dbg !3997
  %_4..i.i99 = select i1 %_3.i.i98, i64 %_4.i.i96, i64 -1, !dbg !4000
  call void @llvm.dbg.value(metadata i64 %_4..i.i99, metadata !2835, metadata !DIExpression()), !dbg !4001
  %_8.i.i100 = load ptr, ptr %inner, align 8, !dbg !4002, !alias.scope !3998, !nonnull !29, !align !3761, !noundef !29
  call void @llvm.dbg.value(metadata ptr %_8.i.i100, metadata !2822, metadata !DIExpression(DW_OP_plus_uconst, 48, DW_OP_stack_value)), !dbg !3987
  call void @llvm.dbg.value(metadata i64 %_4..i.i99, metadata !2823, metadata !DIExpression()), !dbg !3987
  call void @llvm.dbg.value(metadata ptr %_8.i.i100, metadata !2848, metadata !DIExpression(DW_OP_plus_uconst, 48, DW_OP_stack_value)), !dbg !4003
  %_17.i.i101 = getelementptr inbounds i8, ptr %_8.i.i100, i64 48, !dbg !4005
  call void @llvm.dbg.value(metadata i8 1, metadata !2859, metadata !DIExpression()), !dbg !4006
  call void @llvm.dbg.value(metadata ptr %_17.i.i101, metadata !2864, metadata !DIExpression()), !dbg !4006
  call void @llvm.dbg.value(metadata i64 %_4..i.i99, metadata !2865, metadata !DIExpression()), !dbg !4006
  store atomic i64 %_4..i.i99, ptr %_17.i.i101 release, align 8, !dbg !4008, !noalias !3998
  %.val3.i102 = load i8, ptr %10, align 8, !dbg !3986, !range !1705, !alias.scope !4009, !noundef !29
  call void @llvm.dbg.value(metadata ptr undef, metadata !2869, metadata !DIExpression()), !dbg !4012
  call void @llvm.dbg.value(metadata i32 0, metadata !2877, metadata !DIExpression()), !dbg !4014
  call void @llvm.dbg.value(metadata i8 1, metadata !2885, metadata !DIExpression()), !dbg !4014
  call void @llvm.dbg.value(metadata i32 0, metadata !2901, metadata !DIExpression()), !dbg !4018
  call void @llvm.dbg.value(metadata i8 1, metadata !2908, metadata !DIExpression()), !dbg !4018
  call void @llvm.dbg.value(metadata ptr undef, metadata !2899, metadata !DIExpression()), !dbg !4020
  %_3.i.i.i103 = getelementptr inbounds i8, ptr %_12.i.i95, i64 4, !dbg !4021
  call void @llvm.dbg.value(metadata ptr @_ZN3std9panicking11panic_count18GLOBAL_PANIC_COUNT17h00e7dcd913cdfbe0E, metadata !2912, metadata !DIExpression()), !dbg !4022
  call void @llvm.dbg.value(metadata i8 0, metadata !2916, metadata !DIExpression()), !dbg !4022
  call void @llvm.dbg.value(metadata i8 1, metadata !2937, metadata !DIExpression()), !dbg !4028
  call void @llvm.dbg.value(metadata i8 0, metadata !2945, metadata !DIExpression()), !dbg !4028
  call void @llvm.dbg.value(metadata ptr %_3.i.i.i103, metadata !2934, metadata !DIExpression()), !dbg !4030
  call void @llvm.dbg.value(metadata ptr undef, metadata !2935, metadata !DIExpression()), !dbg !4030
  %_3.not.i.i.i.i104 = icmp eq i8 %.val3.i102, 0, !dbg !4031
  br i1 %_3.not.i.i.i.i104, label %bb1.i.i.i.i108, label %_ZN3std4sync6poison4Flag4done17h6b62417d8d60c5ceE.exit.i.i.i105, !dbg !4031

bb1.i.i.i.i108:                                   ; preds = %bb14
  call void @llvm.dbg.value(metadata i8 0, metadata !2743, metadata !DIExpression()), !dbg !4032
  call void @llvm.dbg.value(metadata ptr @_ZN3std9panicking11panic_count18GLOBAL_PANIC_COUNT17h00e7dcd913cdfbe0E, metadata !2748, metadata !DIExpression()), !dbg !4032
  %72 = load atomic i64, ptr @_ZN3std9panicking11panic_count18GLOBAL_PANIC_COUNT17h00e7dcd913cdfbe0E monotonic, align 8, !dbg !4034, !noalias !4035
  %_7.i.i.i.i109 = and i64 %72, 9223372036854775807, !dbg !4038
  %73 = icmp eq i64 %_7.i.i.i.i109, 0, !dbg !4038
  br i1 %73, label %_ZN3std4sync6poison4Flag4done17h6b62417d8d60c5ceE.exit.i.i.i105, label %bb6.i.i.i.i110, !dbg !4038

bb6.i.i.i.i110:                                   ; preds = %bb1.i.i.i.i108
; invoke std::panicking::panic_count::is_zero_slow_path
  %_6.i.i.i.i111113 = invoke noundef zeroext i1 @_ZN3std9panicking11panic_count17is_zero_slow_path17h24de30857bbd803cE()
          to label %_6.i.i.i.i111.noexc unwind label %cleanup25, !dbg !4039

_6.i.i.i.i111.noexc:                              ; preds = %bb6.i.i.i.i110
  br i1 %_6.i.i.i.i111113, label %_ZN3std4sync6poison4Flag4done17h6b62417d8d60c5ceE.exit.i.i.i105, label %bb2.i.i.i.i112, !dbg !4040

bb2.i.i.i.i112:                                   ; preds = %_6.i.i.i.i111.noexc
  call void @llvm.dbg.value(metadata ptr %_3.i.i.i103, metadata !2944, metadata !DIExpression()), !dbg !4028
  call void @llvm.dbg.value(metadata i8 0, metadata !2959, metadata !DIExpression()), !dbg !4041
  call void @llvm.dbg.value(metadata ptr %_3.i.i.i103, metadata !2965, metadata !DIExpression()), !dbg !4041
  call void @llvm.dbg.value(metadata i8 1, metadata !2966, metadata !DIExpression()), !dbg !4041
  store atomic i8 1, ptr %_3.i.i.i103 monotonic, align 4, !dbg !4043, !noalias !4035
  br label %_ZN3std4sync6poison4Flag4done17h6b62417d8d60c5ceE.exit.i.i.i105, !dbg !4044

_ZN3std4sync6poison4Flag4done17h6b62417d8d60c5ceE.exit.i.i.i105: ; preds = %bb2.i.i.i.i112, %_6.i.i.i.i111.noexc, %bb1.i.i.i.i108, %bb14
  call void @llvm.dbg.value(metadata ptr %_12.i.i95, metadata !2892, metadata !DIExpression()), !dbg !4045
  call void @llvm.dbg.value(metadata ptr %_12.i.i95, metadata !2884, metadata !DIExpression()), !dbg !4014
  call void @llvm.dbg.value(metadata ptr %_12.i.i95, metadata !2907, metadata !DIExpression()), !dbg !4018
  %74 = atomicrmw xchg ptr %_12.i.i95, i32 0 release, align 4, !dbg !4046, !noalias !4035
  %_8.i.i.i106 = icmp eq i32 %74, 2, !dbg !4047
  br i1 %_8.i.i.i106, label %bb2.i.i.i107, label %bb15, !dbg !4047

bb2.i.i.i107:                                     ; preds = %_ZN3std4sync6poison4Flag4done17h6b62417d8d60c5ceE.exit.i.i.i105
; invoke std::sys::sync::mutex::futex::Mutex::wake
  invoke void @_ZN3std3sys4sync5mutex5futex5Mutex4wake17hc487312157454c34E(ptr noundef nonnull align 4 %_12.i.i95)
          to label %bb15 unwind label %cleanup25, !dbg !4048

bb27:                                             ; preds = %bb10, %bb2.i.i83
  %lpad.thr_comm = landingpad { ptr, i32 }
          cleanup
; invoke core::ptr::drop_in_place<event_listener::Task>
  invoke fastcc void @"_ZN4core3ptr41drop_in_place$LT$event_listener..Task$GT$17hfe14f2b2e9404281E"(ptr noalias noundef nonnull align 8 dereferenceable(16) %25) #24
          to label %bb19 unwind label %terminate, !dbg !3816

terminate:                                        ; preds = %bb32, %bb19, %bb27
  %75 = landingpad { ptr, i32 }
          filter [0 x ptr] zeroinitializer
; call core::panicking::panic_in_cleanup
  tail call void @_ZN4core9panicking16panic_in_cleanup17h43442956f23e9cbeE() #25, !dbg !4049
  unreachable, !dbg !4049

bb13:                                             ; preds = %bb3
  %val3.sroa.2.8.sroa_idx = getelementptr inbounds i8, ptr %val3.sroa.2, i64 7, !dbg !4050
  call void @llvm.memcpy.p0.p0.i64(ptr noundef nonnull align 1 dereferenceable(16) %val3.sroa.2.8.sroa_idx, ptr noundef nonnull align 8 dereferenceable(16) %_33, i64 16, i1 false), !dbg !4050
  tail call void @llvm.dbg.value(metadata i8 2, metadata !3336, metadata !DIExpression(DW_OP_LLVM_fragment, 0, 8)), !dbg !3528
  tail call void @llvm.dbg.value(metadata i8 2, metadata !3324, metadata !DIExpression(DW_OP_LLVM_fragment, 0, 8)), !dbg !3529
  tail call void @llvm.dbg.value(metadata i8 2, metadata !3311, metadata !DIExpression(DW_OP_LLVM_fragment, 0, 8)), !dbg !4051
  tail call void @llvm.dbg.value(metadata i8 2, metadata !3283, metadata !DIExpression(DW_OP_LLVM_fragment, 0, 8)), !dbg !4052
  call void @llvm.lifetime.end.p0(i64 16, ptr nonnull %_33), !dbg !4053
  call void @llvm.lifetime.start.p0(i64 24, ptr nonnull %result6), !dbg !4054
  tail call void @llvm.dbg.value(metadata ptr %x10, metadata !3310, metadata !DIExpression()), !dbg !4051
  tail call void @llvm.dbg.value(metadata ptr %x10, metadata !3520, metadata !DIExpression()), !dbg !4055
  tail call void @llvm.dbg.value(metadata ptr %x10, metadata !3293, metadata !DIExpression()), !dbg !4052
  call void @llvm.memcpy.p0.p0.i64(ptr noundef nonnull align 8 dereferenceable(24) %result6, ptr noundef nonnull align 8 dereferenceable(24) %x10, i64 24, i1 false), !dbg !4057
  store i8 2, ptr %x10, align 8, !dbg !4058
  call void @llvm.memcpy.p0.p0.i64(ptr noundef nonnull align 1 dereferenceable(23) %val.sroa.2.0._6.sroa.0.0.listener12.sroa_idx, ptr noundef nonnull align 1 dereferenceable(23) %val3.sroa.2, i64 23, i1 false), !dbg !4058
  tail call void @llvm.experimental.noalias.scope.decl(metadata !4059), !dbg !4062
  call void @llvm.dbg.value(metadata ptr %result6, metadata !1474, metadata !DIExpression()), !dbg !4063
  %76 = load i8, ptr %result6, align 8, !dbg !4065, !range !1466, !alias.scope !4059, !noundef !29
  %cond.i116 = icmp eq i8 %76, 2, !dbg !4065
  br i1 %cond.i116, label %bb2.i117, label %bb40, !dbg !4065

bb2.i117:                                         ; preds = %bb13
  %77 = getelementptr inbounds i8, ptr %result6, i64 8, !dbg !4065
  tail call void @llvm.experimental.noalias.scope.decl(metadata !4066), !dbg !4065
  call void @llvm.dbg.value(metadata ptr %77, metadata !1487, metadata !DIExpression()), !dbg !4069
  %78 = load ptr, ptr %77, align 8, !dbg !4071, !alias.scope !4072, !noundef !29
  %.not.i.i118 = icmp eq ptr %78, null, !dbg !4071
  %79 = getelementptr inbounds i8, ptr %result6, i64 16, !dbg !4071
  br i1 %.not.i.i118, label %bb3.i.i122, label %bb2.i.i119, !dbg !4071

bb2.i.i119:                                       ; preds = %bb2.i117
  %_1.val1.i.i120 = load ptr, ptr %79, align 8, !dbg !4071, !alias.scope !4072, !noundef !29
  call void @llvm.dbg.value(metadata ptr undef, metadata !1499, metadata !DIExpression()), !dbg !4073
  call void @llvm.dbg.value(metadata ptr undef, metadata !1507, metadata !DIExpression()), !dbg !4075
  %80 = getelementptr inbounds i8, ptr %78, i64 24, !dbg !4077
  %_2.i.i.i.i121 = load ptr, ptr %80, align 8, !dbg !4077, !noalias !4072, !nonnull !29, !noundef !29
  invoke void %_2.i.i.i.i121(ptr noundef %_1.val1.i.i120)
          to label %bb40 unwind label %cleanup29, !dbg !4077

bb3.i.i122:                                       ; preds = %bb2.i117
  tail call void @llvm.experimental.noalias.scope.decl(metadata !4078), !dbg !4071
  call void @llvm.dbg.value(metadata ptr %79, metadata !1521, metadata !DIExpression()), !dbg !4081
  tail call void @llvm.experimental.noalias.scope.decl(metadata !4083), !dbg !4086
  call void @llvm.dbg.value(metadata ptr %79, metadata !1535, metadata !DIExpression()), !dbg !4087
  tail call void @llvm.experimental.noalias.scope.decl(metadata !4089), !dbg !4092
  call void @llvm.dbg.value(metadata i64 1, metadata !1549, metadata !DIExpression()), !dbg !4093
  call void @llvm.dbg.value(metadata i8 1, metadata !1559, metadata !DIExpression()), !dbg !4093
  call void @llvm.dbg.value(metadata i64 1, metadata !1570, metadata !DIExpression()), !dbg !4096
  call void @llvm.dbg.value(metadata i8 1, metadata !1578, metadata !DIExpression()), !dbg !4096
  call void @llvm.dbg.value(metadata i8 2, metadata !1581, metadata !DIExpression()), !dbg !4098
  call void @llvm.dbg.value(metadata ptr %79, metadata !1568, metadata !DIExpression()), !dbg !4100
  call void @llvm.dbg.value(metadata ptr %79, metadata !1590, metadata !DIExpression()), !dbg !4101
  call void @llvm.dbg.value(metadata ptr %79, metadata !1601, metadata !DIExpression()), !dbg !4103
  %self6.i.i.i.i.i123 = load ptr, ptr %79, align 8, !dbg !4105, !alias.scope !4106, !nonnull !29, !noundef !29
  call void @llvm.dbg.value(metadata ptr %self6.i.i.i.i.i123, metadata !1558, metadata !DIExpression()), !dbg !4093
  call void @llvm.dbg.value(metadata ptr %self6.i.i.i.i.i123, metadata !1577, metadata !DIExpression()), !dbg !4096
  %81 = atomicrmw sub ptr %self6.i.i.i.i.i123, i64 1 release, align 8, !dbg !4107, !noalias !4106
  %82 = icmp eq i64 %81, 1, !dbg !4108
  br i1 %82, label %bb2.i.i.i.i.i124, label %bb40, !dbg !4108

bb2.i.i.i.i.i124:                                 ; preds = %bb3.i.i122
  fence acquire, !dbg !4109
; call alloc::sync::Arc<T,A>::drop_slow
  call fastcc void @"_ZN5alloc4sync16Arc$LT$T$C$A$GT$9drop_slow17h9675029db5300a12E"(ptr noalias noundef nonnull align 8 dereferenceable(8) %79), !dbg !4110
  br label %bb40, !dbg !4110

bb40:                                             ; preds = %bb2.i.i.i.i.i124, %bb3.i.i122, %bb13, %bb2.i.i119
  call void @llvm.lifetime.end.p0(i64 24, ptr nonnull %result6), !dbg !4062
  br label %bb14, !dbg !4111

bb15:                                             ; preds = %_ZN3std4sync6poison4Flag4done17h6b62417d8d60c5ceE.exit.i.i.i105, %bb2.i.i.i107
  call void @llvm.lifetime.end.p0(i64 24, ptr nonnull %inner), !dbg !3505
  %83 = load i8, ptr %result, align 8, !dbg !3505, !range !1466, !noundef !29
  %cond34 = icmp ne i8 %83, 2, !dbg !3505
  %or.cond144 = or i1 %.not48, %cond34, !dbg !3505
  br i1 %or.cond144, label %bb22, label %bb26, !dbg !3505

bb26:                                             ; preds = %bb15, %bb41
  %_0.sroa.0.2139 = phi i8 [ 0, %bb41 ], [ 1, %bb15 ]
  %84 = getelementptr inbounds i8, ptr %result, i64 8, !dbg !3505
  tail call void @llvm.experimental.noalias.scope.decl(metadata !4112), !dbg !3505
  call void @llvm.dbg.value(metadata ptr %84, metadata !1487, metadata !DIExpression()), !dbg !4115
  %85 = load ptr, ptr %84, align 8, !dbg !4117, !alias.scope !4112, !noundef !29
  %.not.i127 = icmp eq ptr %85, null, !dbg !4117
  %86 = getelementptr inbounds i8, ptr %result, i64 16, !dbg !4117
  br i1 %.not.i127, label %bb3.i131, label %bb2.i128, !dbg !4117

bb2.i128:                                         ; preds = %bb26
  %_1.val1.i129 = load ptr, ptr %86, align 8, !dbg !4117, !alias.scope !4112, !noundef !29
  call void @llvm.dbg.value(metadata ptr undef, metadata !1499, metadata !DIExpression()), !dbg !4118
  call void @llvm.dbg.value(metadata ptr undef, metadata !1507, metadata !DIExpression()), !dbg !4120
  %87 = getelementptr inbounds i8, ptr %85, i64 24, !dbg !4122
  %_2.i.i.i130 = load ptr, ptr %87, align 8, !dbg !4122, !noalias !4112, !nonnull !29, !noundef !29
  tail call void %_2.i.i.i130(ptr noundef %_1.val1.i129), !dbg !4122, !noalias !4112
  br label %bb22, !dbg !4117

bb3.i131:                                         ; preds = %bb26
  tail call void @llvm.experimental.noalias.scope.decl(metadata !4123), !dbg !4117
  call void @llvm.dbg.value(metadata ptr %86, metadata !1521, metadata !DIExpression()), !dbg !4126
  tail call void @llvm.experimental.noalias.scope.decl(metadata !4128), !dbg !4131
  call void @llvm.dbg.value(metadata ptr %86, metadata !1535, metadata !DIExpression()), !dbg !4132
  tail call void @llvm.experimental.noalias.scope.decl(metadata !4134), !dbg !4137
  call void @llvm.dbg.value(metadata i64 1, metadata !1549, metadata !DIExpression()), !dbg !4138
  call void @llvm.dbg.value(metadata i8 1, metadata !1559, metadata !DIExpression()), !dbg !4138
  call void @llvm.dbg.value(metadata i64 1, metadata !1570, metadata !DIExpression()), !dbg !4141
  call void @llvm.dbg.value(metadata i8 1, metadata !1578, metadata !DIExpression()), !dbg !4141
  call void @llvm.dbg.value(metadata i8 2, metadata !1581, metadata !DIExpression()), !dbg !4143
  call void @llvm.dbg.value(metadata ptr %86, metadata !1568, metadata !DIExpression()), !dbg !4145
  call void @llvm.dbg.value(metadata ptr %86, metadata !1590, metadata !DIExpression()), !dbg !4146
  call void @llvm.dbg.value(metadata ptr %86, metadata !1601, metadata !DIExpression()), !dbg !4148
  %self6.i.i.i.i132 = load ptr, ptr %86, align 8, !dbg !4150, !alias.scope !4151, !nonnull !29, !noundef !29
  call void @llvm.dbg.value(metadata ptr %self6.i.i.i.i132, metadata !1558, metadata !DIExpression()), !dbg !4138
  call void @llvm.dbg.value(metadata ptr %self6.i.i.i.i132, metadata !1577, metadata !DIExpression()), !dbg !4141
  %88 = atomicrmw sub ptr %self6.i.i.i.i132, i64 1 release, align 8, !dbg !4152, !noalias !4151
  %89 = icmp eq i64 %88, 1, !dbg !4153
  br i1 %89, label %bb2.i.i.i.i133, label %bb22, !dbg !4153

bb2.i.i.i.i133:                                   ; preds = %bb3.i131
  fence acquire, !dbg !4154
; call alloc::sync::Arc<T,A>::drop_slow
  call fastcc void @"_ZN5alloc4sync16Arc$LT$T$C$A$GT$9drop_slow17h9675029db5300a12E"(ptr noalias noundef nonnull align 8 dereferenceable(8) %86), !dbg !4155
  br label %bb22, !dbg !4155

bb20:                                             ; preds = %bb33, %bb32
  resume { ptr, i32 } %.pn46, !dbg !4049

bb32:                                             ; preds = %bb33
  %90 = getelementptr inbounds i8, ptr %result, i64 8, !dbg !3505
; invoke core::ptr::drop_in_place<event_listener::Task>
  invoke fastcc void @"_ZN4core3ptr41drop_in_place$LT$event_listener..Task$GT$17hfe14f2b2e9404281E"(ptr noalias noundef nonnull align 8 dereferenceable(16) %90) #24
          to label %bb20 unwind label %terminate, !dbg !3505
}

; concurrent_queue::ConcurrentQueue<T>::pop
; Function Attrs: nonlazybind uwtable
define internal fastcc void @"_ZN16concurrent_queue24ConcurrentQueue$LT$T$GT$3pop17h5cbad9b7ae8202a3E"(ptr dead_on_unwind noalias nocapture noundef writable writeonly align 8 dereferenceable(16) %_0, ptr nocapture noundef nonnull align 128 %self) unnamed_addr #0 personality ptr @rust_eh_personality !dbg !4156 {
start:
  %_94.i = alloca [8 x i8], align 8
  %_85.i = alloca [8 x i8], align 8
  tail call void @llvm.dbg.value(metadata ptr %self, metadata !4178, metadata !DIExpression()), !dbg !4188
  %_2 = load i64, ptr %self, align 128, !dbg !4189, !range !4190, !noundef !29
  switch i64 %_2, label %default.unreachable49 [
    i64 0, label %bb3
    i64 1, label %bb5
    i64 2, label %bb2
  ], !dbg !4191

default.unreachable49:                            ; preds = %start
  unreachable

bb3:                                              ; preds = %start
  tail call void @llvm.dbg.value(metadata ptr %self, metadata !4179, metadata !DIExpression(DW_OP_plus_uconst, 8, DW_OP_stack_value)), !dbg !4192
  %_4 = getelementptr inbounds i8, ptr %self, i64 8, !dbg !4193
  tail call void @llvm.experimental.noalias.scope.decl(metadata !4194), !dbg !4193
  call void @llvm.dbg.value(metadata i8 4, metadata !4197, metadata !DIExpression()), !dbg !4223
  call void @llvm.dbg.value(metadata i8 4, metadata !4222, metadata !DIExpression()), !dbg !4223
  call void @llvm.dbg.declare(metadata ptr undef, metadata !4239, metadata !DIExpression()), !dbg !4257
  call void @llvm.dbg.value(metadata i64 -2, metadata !4259, metadata !DIExpression()), !dbg !4266
  call void @llvm.dbg.value(metadata i8 1, metadata !4265, metadata !DIExpression()), !dbg !4266
  call void @llvm.dbg.value(metadata i64 -2, metadata !4268, metadata !DIExpression()), !dbg !4274
  call void @llvm.dbg.value(metadata i8 1, metadata !4273, metadata !DIExpression()), !dbg !4274
  call void @llvm.dbg.value(metadata ptr %_4, metadata !4232, metadata !DIExpression()), !dbg !4276
  call void @llvm.dbg.value(metadata i64 2, metadata !4233, metadata !DIExpression()), !dbg !4277
  call void @llvm.dbg.value(metadata ptr %_4, metadata !4219, metadata !DIExpression()), !dbg !4223
  call void @llvm.dbg.value(metadata i64 2, metadata !4220, metadata !DIExpression()), !dbg !4223
  call void @llvm.dbg.value(metadata i64 1, metadata !4221, metadata !DIExpression()), !dbg !4223
  call void @llvm.dbg.value(metadata i8 4, metadata !4278, metadata !DIExpression()), !dbg !4290
  call void @llvm.dbg.value(metadata i8 4, metadata !4286, metadata !DIExpression()), !dbg !4290
  call void @llvm.dbg.value(metadata ptr %_4, metadata !4283, metadata !DIExpression()), !dbg !4290
  call void @llvm.dbg.value(metadata i64 2, metadata !4284, metadata !DIExpression()), !dbg !4290
  call void @llvm.dbg.value(metadata i64 1, metadata !4285, metadata !DIExpression()), !dbg !4290
  %0 = cmpxchg ptr %_4, i64 2, i64 1 seq_cst seq_cst, align 8, !dbg !4292, !noalias !4194
  call void @llvm.dbg.value(metadata i64 poison, metadata !4234, metadata !DIExpression()), !dbg !4293
  %_1023.i = extractvalue { i64, i1 } %0, 1, !dbg !4294
  br i1 %_1023.i, label %bb2.i, label %bb3.i, !dbg !4294

bb3.i:                                            ; preds = %bb3, %bb10.i
  %.pn.i = phi { i64, i1 } [ %8, %bb10.i ], [ %0, %bb3 ]
  %_8.sroa.0.0.i24.i = extractvalue { i64, i1 } %.pn.i, 0, !dbg !4290
  %_17.i = and i64 %_8.sroa.0.0.i24.i, 2, !dbg !4295
  %1 = icmp eq i64 %_17.i, 0, !dbg !4295
  br i1 %1, label %bb4.i, label %bb5.i, !dbg !4295

bb2.i:                                            ; preds = %bb10.i, %bb3
  call void @llvm.dbg.value(metadata ptr %_4, metadata !4253, metadata !DIExpression(DW_OP_plus_uconst, 8, DW_OP_stack_value)), !dbg !4296
  call void @llvm.dbg.value(metadata ptr %_4, metadata !4297, metadata !DIExpression(DW_OP_plus_uconst, 8, DW_OP_stack_value)), !dbg !4305
  %_32.i = getelementptr inbounds i8, ptr %self, i64 16, !dbg !4307
  call void @llvm.dbg.value(metadata ptr %_32.i, metadata !4308, metadata !DIExpression()), !dbg !4314
  call void @llvm.dbg.value(metadata ptr %_32.i, metadata !4316, metadata !DIExpression()), !dbg !4325
  call void @llvm.dbg.value(metadata ptr %_32.i, metadata !4327, metadata !DIExpression()), !dbg !4334
  %self8.i = load ptr, ptr %_32.i, align 16, !dbg !4336, !noalias !4194
  call void @llvm.dbg.value(metadata ptr %self8.i, metadata !4236, metadata !DIExpression()), !dbg !4337
  call void @llvm.dbg.value(metadata ptr %_4, metadata !4264, metadata !DIExpression()), !dbg !4266
  call void @llvm.dbg.value(metadata ptr %_4, metadata !4272, metadata !DIExpression()), !dbg !4274
  %2 = atomicrmw and ptr %_4, i64 -2 release, align 8, !dbg !4338, !noalias !4194
  %3 = getelementptr inbounds i8, ptr %_0, i64 8, !dbg !4339
  store ptr %self8.i, ptr %3, align 8, !dbg !4339, !alias.scope !4194
  br label %bb8, !dbg !4340

bb4.i:                                            ; preds = %bb3.i
  %_19.i = and i64 %_8.sroa.0.0.i24.i, 4, !dbg !4342
  %4 = icmp eq i64 %_19.i, 0, !dbg !4342
  %5 = getelementptr inbounds i8, ptr %_0, i64 1, !dbg !4293
  br i1 %4, label %bb6.i, label %bb7.i, !dbg !4342

bb5.i:                                            ; preds = %bb3.i
  %_21.i = and i64 %_8.sroa.0.0.i24.i, 1, !dbg !4343
  %6 = icmp eq i64 %_21.i, 0, !dbg !4343
  br i1 %6, label %bb10.i, label %bb9.i, !dbg !4343

bb6.i:                                            ; preds = %bb4.i
  store i8 0, ptr %5, align 1, !dbg !4344, !alias.scope !4194
  br label %bb8, !dbg !4345

bb7.i:                                            ; preds = %bb4.i
  store i8 1, ptr %5, align 1, !dbg !4346, !alias.scope !4194
  br label %bb8, !dbg !4347

bb9.i:                                            ; preds = %bb5.i
; call std::thread::yield_now
  tail call void @_ZN3std6thread9yield_now17h33256dae487ed64aE(), !dbg !4348, !noalias !4194
  %7 = and i64 %_8.sroa.0.0.i24.i, -2, !dbg !4354
  call void @llvm.dbg.value(metadata i64 %7, metadata !4233, metadata !DIExpression()), !dbg !4277
  br label %bb10.i, !dbg !4355

bb10.i:                                           ; preds = %bb9.i, %bb5.i
  %state.sroa.0.1.i = phi i64 [ %7, %bb9.i ], [ %_8.sroa.0.0.i24.i, %bb5.i ], !dbg !4293
  call void @llvm.dbg.value(metadata i64 %state.sroa.0.1.i, metadata !4233, metadata !DIExpression()), !dbg !4277
  call void @llvm.dbg.value(metadata ptr %_4, metadata !4219, metadata !DIExpression()), !dbg !4223
  call void @llvm.dbg.value(metadata i64 %state.sroa.0.1.i, metadata !4220, metadata !DIExpression()), !dbg !4223
  %_8.i = and i64 %state.sroa.0.1.i, -4, !dbg !4356
  %new.i = or disjoint i64 %_8.i, 1, !dbg !4356
  call void @llvm.dbg.value(metadata i64 %new.i, metadata !4221, metadata !DIExpression()), !dbg !4223
  call void @llvm.dbg.value(metadata i8 4, metadata !4278, metadata !DIExpression()), !dbg !4290
  call void @llvm.dbg.value(metadata i8 4, metadata !4286, metadata !DIExpression()), !dbg !4290
  call void @llvm.dbg.value(metadata ptr %_4, metadata !4283, metadata !DIExpression()), !dbg !4290
  call void @llvm.dbg.value(metadata i64 %state.sroa.0.1.i, metadata !4284, metadata !DIExpression()), !dbg !4290
  call void @llvm.dbg.value(metadata i64 %new.i, metadata !4285, metadata !DIExpression()), !dbg !4290
  %8 = cmpxchg ptr %_4, i64 %state.sroa.0.1.i, i64 %new.i seq_cst seq_cst, align 8, !dbg !4292, !noalias !4194
  call void @llvm.dbg.value(metadata i64 poison, metadata !4234, metadata !DIExpression()), !dbg !4293
  %_10.i = extractvalue { i64, i1 } %8, 1, !dbg !4294
  br i1 %_10.i, label %bb2.i, label %bb3.i, !dbg !4294

bb5:                                              ; preds = %start
  tail call void @llvm.dbg.value(metadata ptr %self, metadata !4182, metadata !DIExpression(DW_OP_plus_uconst, 128, DW_OP_stack_value)), !dbg !4357
  %_6 = getelementptr inbounds i8, ptr %self, i64 128, !dbg !4358
  tail call void @llvm.experimental.noalias.scope.decl(metadata !4359), !dbg !4358
  call void @llvm.dbg.value(metadata i8 0, metadata !4362, metadata !DIExpression()), !dbg !4379
  call void @llvm.dbg.value(metadata i8 2, metadata !4369, metadata !DIExpression()), !dbg !4408
  call void @llvm.dbg.value(metadata i8 4, metadata !4410, metadata !DIExpression()), !dbg !4419
  call void @llvm.dbg.value(metadata i8 0, metadata !4418, metadata !DIExpression()), !dbg !4419
  call void @llvm.dbg.declare(metadata ptr undef, metadata !4421, metadata !DIExpression()), !dbg !4433
  call void @llvm.dbg.value(metadata i8 1, metadata !4435, metadata !DIExpression()), !dbg !4441
  call void @llvm.dbg.value(metadata i64 0, metadata !4443, metadata !DIExpression()), !dbg !4448
  call void @llvm.dbg.value(metadata i64 0, metadata !4450, metadata !DIExpression()), !dbg !4457
  call void @llvm.dbg.value(metadata i8 0, metadata !4372, metadata !DIExpression()), !dbg !4459
  call void @llvm.dbg.value(metadata ptr %_6, metadata !4387, metadata !DIExpression()), !dbg !4461
  call void @llvm.dbg.value(metadata ptr %_6, metadata !4366, metadata !DIExpression()), !dbg !4379
  call void @llvm.dbg.value(metadata i8 0, metadata !2743, metadata !DIExpression()), !dbg !4462
  call void @llvm.dbg.value(metadata ptr %_6, metadata !2748, metadata !DIExpression()), !dbg !4462
  %9 = load atomic i64, ptr %_6 monotonic, align 128, !dbg !4464, !noalias !4359
  call void @llvm.dbg.value(metadata i64 %9, metadata !4388, metadata !DIExpression()), !dbg !4465
  %10 = getelementptr inbounds i8, ptr %self, i64 392
  %11 = getelementptr inbounds i8, ptr %self, i64 384
  %12 = getelementptr inbounds i8, ptr %self, i64 408
  %_857.i = load i64, ptr %10, align 8, !dbg !4466, !noalias !4359, !noundef !29
  %_758.i = add i64 %_857.i, -1, !dbg !4467
  %index59.i = and i64 %_758.i, %9, !dbg !4468
  call void @llvm.dbg.value(metadata i64 %index59.i, metadata !4390, metadata !DIExpression()), !dbg !4469
  call void @llvm.dbg.value(metadata !DIArgList(i64 poison, i64 poison, i64 poison), metadata !4392, metadata !DIExpression(DW_OP_LLVM_arg, 0, DW_OP_LLVM_arg, 2, DW_OP_minus, DW_OP_LLVM_arg, 1, DW_OP_and, DW_OP_stack_value)), !dbg !4470
  call void @llvm.dbg.value(metadata !DIArgList(i64 poison, i64 poison, i64 poison), metadata !4471, metadata !DIExpression(DW_OP_LLVM_arg, 0, DW_OP_LLVM_arg, 2, DW_OP_minus, DW_OP_LLVM_arg, 1, DW_OP_and, DW_OP_stack_value)), !dbg !4484
  %_60.163.i = load i64, ptr %12, align 8, !dbg !4486, !noalias !4359, !noundef !29
  %_1664.i = icmp ult i64 %index59.i, %_60.163.i, !dbg !4486
  br i1 %_1664.i, label %bb2.lr.ph.i, label %panic.i, !dbg !4486

bb2.lr.ph.i:                                      ; preds = %bb5
  %_1360.i = load i64, ptr %11, align 128, !dbg !4487, !noalias !4359, !noundef !29
  call void @llvm.dbg.value(metadata !DIArgList(i64 0, i64 %9, i64 %_1360.i), metadata !4392, metadata !DIExpression(DW_OP_LLVM_arg, 0, DW_OP_LLVM_arg, 2, DW_OP_minus, DW_OP_LLVM_arg, 1, DW_OP_and, DW_OP_stack_value)), !dbg !4470
  call void @llvm.dbg.value(metadata !DIArgList(i64 0, i64 %9, i64 %_1360.i), metadata !4471, metadata !DIExpression(DW_OP_LLVM_arg, 0, DW_OP_LLVM_arg, 2, DW_OP_minus, DW_OP_LLVM_arg, 1, DW_OP_and, DW_OP_stack_value)), !dbg !4484
  %_1161.i = sub i64 0, %_1360.i, !dbg !4488
  call void @llvm.dbg.value(metadata !DIArgList(i64 %_1161.i, i64 %9), metadata !4392, metadata !DIExpression(DW_OP_LLVM_arg, 0, DW_OP_LLVM_arg, 1, DW_OP_and, DW_OP_stack_value)), !dbg !4470
  call void @llvm.dbg.value(metadata !DIArgList(i64 %_1161.i, i64 %9), metadata !4471, metadata !DIExpression(DW_OP_LLVM_arg, 0, DW_OP_LLVM_arg, 1, DW_OP_and, DW_OP_stack_value)), !dbg !4484
  %lap62.i = and i64 %9, %_1161.i, !dbg !4489
  call void @llvm.dbg.value(metadata i64 %lap62.i, metadata !4392, metadata !DIExpression()), !dbg !4470
  call void @llvm.dbg.value(metadata i64 %lap62.i, metadata !4471, metadata !DIExpression()), !dbg !4484
  %13 = getelementptr inbounds i8, ptr %self, i64 400
  %_91.i = getelementptr inbounds i8, ptr %self, i64 256
  br label %bb2.i5, !dbg !4486

bb2.i5:                                           ; preds = %bb18.i, %bb2.lr.ph.i
  %lap67.i = phi i64 [ %lap62.i, %bb2.lr.ph.i ], [ %lap.i, %bb18.i ]
  %index66.i = phi i64 [ %index59.i, %bb2.lr.ph.i ], [ %index.i, %bb18.i ]
  %head.sroa.0.065.i = phi i64 [ %9, %bb2.lr.ph.i ], [ %head.sroa.0.1.i, %bb18.i ]
  call void @llvm.dbg.value(metadata i64 %head.sroa.0.065.i, metadata !4388, metadata !DIExpression()), !dbg !4465
  %_61.0.i = load ptr, ptr %13, align 16, !dbg !4490, !noalias !4359, !nonnull !29, !align !3761, !noundef !29
  %slot.i = getelementptr inbounds [0 x %"concurrent_queue::bounded::Slot<async_task::runnable::Runnable>"], ptr %_61.0.i, i64 0, i64 %index66.i, !dbg !4490
  call void @llvm.dbg.value(metadata ptr %slot.i, metadata !4394, metadata !DIExpression()), !dbg !4491
  call void @llvm.dbg.value(metadata ptr %slot.i, metadata !4367, metadata !DIExpression()), !dbg !4408
  call void @llvm.dbg.value(metadata i8 2, metadata !2743, metadata !DIExpression()), !dbg !4492
  call void @llvm.dbg.value(metadata ptr %slot.i, metadata !2748, metadata !DIExpression()), !dbg !4492
  %14 = load atomic i64, ptr %slot.i acquire, align 8, !dbg !4494, !noalias !4359
  call void @llvm.dbg.value(metadata i64 %14, metadata !4397, metadata !DIExpression()), !dbg !4495
  %_20.i = add i64 %head.sroa.0.065.i, 1, !dbg !4496
  %_19.i6 = icmp eq i64 %_20.i, %14, !dbg !4496
  br i1 %_19.i6, label %bb3.i10, label %bb10.i7, !dbg !4496

panic.i:                                          ; preds = %bb18.i, %bb5
  %index.lcssa.i = phi i64 [ %index59.i, %bb5 ], [ %index.i, %bb18.i ], !dbg !4468
  %_60.1.lcssa.i = phi i64 [ %_60.163.i, %bb5 ], [ %_60.1.i, %bb18.i ], !dbg !4486
; call core::panicking::panic_bounds_check
  call void @_ZN4core9panicking18panic_bounds_check17h5e416f3b4df94489E(i64 noundef %index.lcssa.i, i64 noundef %_60.1.lcssa.i, ptr noalias noundef nonnull readonly align 8 dereferenceable(24) @alloc_0685a2bece727c75688f549460a00d17) #23, !dbg !4486, !noalias !4359
  unreachable, !dbg !4486

bb10.i7:                                          ; preds = %bb2.i5
  %_42.i = icmp eq i64 %14, %head.sroa.0.065.i, !dbg !4497
  br i1 %_42.i, label %bb11.i, label %bb16.i, !dbg !4497

bb3.i10:                                          ; preds = %bb2.i5
  %_24.i = add nuw i64 %index66.i, 1, !dbg !4498
  %_62.1.i = load i64, ptr %12, align 8, !dbg !4499, !noalias !4359, !noundef !29
  %_23.i = icmp ult i64 %_24.i, %_62.1.i, !dbg !4498
  br i1 %_23.i, label %bb6.i12, label %bb5.i11, !dbg !4498

bb16.i:                                           ; preds = %bb10.i7
; call std::thread::yield_now
  call void @_ZN3std6thread9yield_now17h33256dae487ed64aE(), !dbg !4500, !noalias !4359
  call void @llvm.dbg.value(metadata i8 0, metadata !2743, metadata !DIExpression()), !dbg !4504
  call void @llvm.dbg.value(metadata ptr %_6, metadata !2748, metadata !DIExpression()), !dbg !4504
  call void @llvm.dbg.value(metadata i64 %18, metadata !4388, metadata !DIExpression()), !dbg !4465
  br label %bb18.sink.split.i, !dbg !4507

bb11.i:                                           ; preds = %bb10.i7
  call void @llvm.lifetime.start.p0(i64 8, ptr nonnull %_85.i), !dbg !4508, !noalias !4359
  store i64 0, ptr %_85.i, align 8, !dbg !4509, !noalias !4359
  call void asm sideeffect inteldialect "lock not qword ptr [${0:q}]", "r,~{memory}"(ptr nonnull %_85.i) #26, !dbg !4510, !noalias !4359, !srcloc !4511
  call void @llvm.lifetime.end.p0(i64 8, ptr nonnull %_85.i), !dbg !4512, !noalias !4359
  call void @llvm.dbg.value(metadata ptr %_6, metadata !4370, metadata !DIExpression(DW_OP_plus_uconst, 128, DW_OP_stack_value)), !dbg !4459
  call void @llvm.dbg.value(metadata i8 0, metadata !2743, metadata !DIExpression()), !dbg !4513
  call void @llvm.dbg.value(metadata ptr %_91.i, metadata !2748, metadata !DIExpression()), !dbg !4513
  %15 = load atomic i64, ptr %_91.i monotonic, align 128, !dbg !4515, !noalias !4359
  call void @llvm.dbg.value(metadata i64 %15, metadata !4405, metadata !DIExpression()), !dbg !4516
  %_50.i = load i64, ptr %10, align 8, !dbg !4517, !noalias !4359, !noundef !29
  %_49.i = xor i64 %_50.i, -1, !dbg !4518
  %_48.i = and i64 %15, %_49.i, !dbg !4519
  %_47.i = icmp eq i64 %_48.i, %head.sroa.0.065.i, !dbg !4519
  br i1 %_47.i, label %bb12.i, label %bb18.sink.split.i, !dbg !4519

bb12.i:                                           ; preds = %bb11.i
  %_52.i = and i64 %_50.i, %15, !dbg !4520
  %16 = icmp eq i64 %_52.i, 0, !dbg !4520
  %17 = getelementptr inbounds i8, ptr %_0, i64 1, !dbg !4516
  br i1 %16, label %bb14.i, label %bb13.i, !dbg !4520

bb18.sink.split.i:                                ; preds = %bb11.i, %bb16.i
  %18 = load atomic i64, ptr %_6 monotonic, align 128, !dbg !4521, !noalias !4359
  br label %bb18.i, !dbg !4466

bb18.i:                                           ; preds = %bb6.i12, %bb18.sink.split.i
  %head.sroa.0.1.i = phi i64 [ %_8.sroa.0.0.i.i, %bb6.i12 ], [ %18, %bb18.sink.split.i ], !dbg !4495
  call void @llvm.dbg.value(metadata i64 %head.sroa.0.1.i, metadata !4388, metadata !DIExpression()), !dbg !4465
  %_8.i8 = load i64, ptr %10, align 8, !dbg !4466, !noalias !4359, !noundef !29
  %_7.i = add i64 %_8.i8, -1, !dbg !4467
  %index.i = and i64 %_7.i, %head.sroa.0.1.i, !dbg !4468
  call void @llvm.dbg.value(metadata i64 %index.i, metadata !4390, metadata !DIExpression()), !dbg !4469
  %_13.i = load i64, ptr %11, align 128, !dbg !4487, !noalias !4359, !noundef !29
  %_11.i = sub i64 0, %_13.i, !dbg !4488
  %lap.i = and i64 %head.sroa.0.1.i, %_11.i, !dbg !4489
  call void @llvm.dbg.value(metadata i64 %lap.i, metadata !4392, metadata !DIExpression()), !dbg !4470
  call void @llvm.dbg.value(metadata i64 %lap.i, metadata !4471, metadata !DIExpression()), !dbg !4484
  %_60.1.i = load i64, ptr %12, align 8, !dbg !4486, !noalias !4359, !noundef !29
  %_16.i = icmp ult i64 %index.i, %_60.1.i, !dbg !4486
  br i1 %_16.i, label %bb2.i5, label %panic.i, !dbg !4486

bb14.i:                                           ; preds = %bb12.i
  store i8 0, ptr %17, align 1, !dbg !4524, !alias.scope !4359
  br label %bb8, !dbg !4525

bb13.i:                                           ; preds = %bb12.i
  store i8 1, ptr %17, align 1, !dbg !4526, !alias.scope !4359
  br label %bb8, !dbg !4527

bb5.i11:                                          ; preds = %bb3.i10
  %rhs.i = load i64, ptr %11, align 128, !dbg !4528, !noalias !4359, !noundef !29
  call void @llvm.dbg.value(metadata i64 %rhs.i, metadata !4480, metadata !DIExpression()), !dbg !4484
  %19 = add i64 %rhs.i, %lap67.i, !dbg !4529
  call void @llvm.dbg.value(metadata i64 %19, metadata !4399, metadata !DIExpression()), !dbg !4530
  br label %bb6.i12, !dbg !4531

bb6.i12:                                          ; preds = %bb5.i11, %bb3.i10
  %new.sroa.0.0.i = phi i64 [ %19, %bb5.i11 ], [ %14, %bb3.i10 ], !dbg !4495
  call void @llvm.dbg.value(metadata i64 %new.sroa.0.0.i, metadata !4399, metadata !DIExpression()), !dbg !4530
  call void @llvm.dbg.value(metadata ptr %_6, metadata !4415, metadata !DIExpression()), !dbg !4419
  call void @llvm.dbg.value(metadata i64 %head.sroa.0.065.i, metadata !4416, metadata !DIExpression()), !dbg !4419
  call void @llvm.dbg.value(metadata i64 %new.sroa.0.0.i, metadata !4417, metadata !DIExpression()), !dbg !4419
  call void @llvm.dbg.value(metadata i8 4, metadata !4532, metadata !DIExpression()), !dbg !4542
  call void @llvm.dbg.value(metadata i8 0, metadata !4538, metadata !DIExpression()), !dbg !4542
  call void @llvm.dbg.value(metadata ptr %_6, metadata !4535, metadata !DIExpression()), !dbg !4542
  call void @llvm.dbg.value(metadata i64 %head.sroa.0.065.i, metadata !4536, metadata !DIExpression()), !dbg !4542
  call void @llvm.dbg.value(metadata i64 %new.sroa.0.0.i, metadata !4537, metadata !DIExpression()), !dbg !4542
  %20 = cmpxchg weak ptr %_6, i64 %head.sroa.0.065.i, i64 %new.sroa.0.0.i seq_cst monotonic, align 8, !dbg !4544, !noalias !4359
  %_8.sroa.18.0.in.i.i = extractvalue { i64, i1 } %20, 1, !dbg !4542
  %_8.sroa.0.0.i.i = extractvalue { i64, i1 } %20, 0, !dbg !4542
  br i1 %_8.sroa.18.0.in.i.i, label %bb27.i, label %bb18.i, !dbg !4545

bb27.i:                                           ; preds = %bb6.i12
  call void @llvm.dbg.value(metadata ptr %slot.i, metadata !4430, metadata !DIExpression(DW_OP_plus_uconst, 8, DW_OP_stack_value)), !dbg !4546
  call void @llvm.dbg.value(metadata ptr %slot.i, metadata !4547, metadata !DIExpression(DW_OP_plus_uconst, 8, DW_OP_stack_value)), !dbg !4551
  %_76.i = getelementptr inbounds i8, ptr %slot.i, i64 8, !dbg !4553
  call void @llvm.dbg.value(metadata ptr %_76.i, metadata !4554, metadata !DIExpression()), !dbg !4560
  call void @llvm.dbg.value(metadata ptr %_76.i, metadata !4562, metadata !DIExpression()), !dbg !4566
  call void @llvm.dbg.value(metadata ptr %_76.i, metadata !4568, metadata !DIExpression()), !dbg !4572
  %self31.i = load ptr, ptr %_76.i, align 8, !dbg !4574, !noalias !4359, !nonnull !29, !noundef !29
  call void @llvm.dbg.value(metadata ptr %self31.i, metadata !4401, metadata !DIExpression()), !dbg !4575
  call void @llvm.dbg.value(metadata ptr %slot.i, metadata !4439, metadata !DIExpression()), !dbg !4441
  call void @llvm.dbg.value(metadata i64 %head.sroa.0.065.i, metadata !4481, metadata !DIExpression()), !dbg !4576
  %rhs37.i = load i64, ptr %11, align 128, !dbg !4578, !noalias !4359, !noundef !29
  call void @llvm.dbg.value(metadata i64 %rhs37.i, metadata !4483, metadata !DIExpression()), !dbg !4576
  %val.i = add i64 %rhs37.i, %head.sroa.0.065.i, !dbg !4579
  call void @llvm.dbg.value(metadata i64 %val.i, metadata !4440, metadata !DIExpression()), !dbg !4441
  call void @llvm.dbg.value(metadata i8 1, metadata !2859, metadata !DIExpression()), !dbg !4580
  call void @llvm.dbg.value(metadata ptr %slot.i, metadata !2864, metadata !DIExpression()), !dbg !4580
  call void @llvm.dbg.value(metadata i64 %val.i, metadata !2865, metadata !DIExpression()), !dbg !4580
  store atomic i64 %val.i, ptr %slot.i release, align 8, !dbg !4582, !noalias !4359
  %21 = getelementptr inbounds i8, ptr %_0, i64 8, !dbg !4583
  store ptr %self31.i, ptr %21, align 8, !dbg !4583, !alias.scope !4359
  br label %bb8, !dbg !4584

bb2:                                              ; preds = %start
  tail call void @llvm.dbg.value(metadata ptr %self, metadata !4185, metadata !DIExpression(DW_OP_plus_uconst, 128, DW_OP_stack_value)), !dbg !4586
  %_8 = getelementptr inbounds i8, ptr %self, i64 128, !dbg !4587
  tail call void @llvm.experimental.noalias.scope.decl(metadata !4588), !dbg !4587
  call void @llvm.dbg.value(metadata i8 2, metadata !4591, metadata !DIExpression()), !dbg !4605
  call void @llvm.dbg.value(metadata i8 2, metadata !4636, metadata !DIExpression()), !dbg !4657
  call void @llvm.dbg.value(metadata i8 2, metadata !4598, metadata !DIExpression()), !dbg !4659
  call void @llvm.dbg.value(metadata i64 0, metadata !4661, metadata !DIExpression()), !dbg !4666
  call void @llvm.dbg.value(metadata i64 0, metadata !4668, metadata !DIExpression()), !dbg !4672
  call void @llvm.dbg.value(metadata i8 0, metadata !4601, metadata !DIExpression()), !dbg !4674
  call void @llvm.dbg.value(metadata i8 2, metadata !4604, metadata !DIExpression()), !dbg !4676
  call void @llvm.dbg.value(metadata i8 4, metadata !4678, metadata !DIExpression()), !dbg !4686
  call void @llvm.dbg.value(metadata i8 2, metadata !4685, metadata !DIExpression()), !dbg !4686
  call void @llvm.dbg.value(metadata i64 2, metadata !4688, metadata !DIExpression()), !dbg !4693
  call void @llvm.dbg.value(metadata i8 0, metadata !4653, metadata !DIExpression()), !dbg !4695
  call void @llvm.dbg.value(metadata i8 1, metadata !4697, metadata !DIExpression()), !dbg !4706
  call void @llvm.dbg.value(metadata i8 1, metadata !4708, metadata !DIExpression()), !dbg !4714
  call void @llvm.dbg.declare(metadata ptr undef, metadata !4716, metadata !DIExpression()), !dbg !4728
  call void @llvm.dbg.value(metadata i64 2, metadata !4730, metadata !DIExpression()), !dbg !4737
  call void @llvm.dbg.value(metadata i8 3, metadata !4736, metadata !DIExpression()), !dbg !4737
  call void @llvm.dbg.value(metadata i64 2, metadata !4739, metadata !DIExpression()), !dbg !4745
  call void @llvm.dbg.value(metadata i8 3, metadata !4744, metadata !DIExpression()), !dbg !4745
  call void @llvm.dbg.value(metadata ptr %_8, metadata !4613, metadata !DIExpression()), !dbg !4747
  call void @llvm.dbg.value(metadata ptr %_8, metadata !4595, metadata !DIExpression()), !dbg !4605
  call void @llvm.dbg.value(metadata i8 2, metadata !2743, metadata !DIExpression()), !dbg !4748
  call void @llvm.dbg.value(metadata ptr %_8, metadata !2748, metadata !DIExpression()), !dbg !4748
  %22 = load atomic i64, ptr %_8 acquire, align 128, !dbg !4750, !noalias !4588
  call void @llvm.dbg.value(metadata i64 %22, metadata !4614, metadata !DIExpression()), !dbg !4751
  call void @llvm.dbg.value(metadata ptr %_8, metadata !4644, metadata !DIExpression(DW_OP_plus_uconst, 8, DW_OP_stack_value)), !dbg !4657
  call void @llvm.dbg.value(metadata ptr %_8, metadata !4752, metadata !DIExpression(DW_OP_plus_uconst, 8, DW_OP_stack_value)), !dbg !4771
  %_86.i = getelementptr inbounds i8, ptr %self, i64 136, !dbg !4773
  call void @llvm.dbg.value(metadata i8 2, metadata !4774, metadata !DIExpression()), !dbg !4781
  call void @llvm.dbg.value(metadata ptr %_86.i, metadata !4780, metadata !DIExpression()), !dbg !4781
  %23 = load atomic ptr, ptr %_86.i acquire, align 8, !dbg !4783, !noalias !4588
  call void @llvm.dbg.value(metadata ptr %23, metadata !4616, metadata !DIExpression()), !dbg !4784
  %_100.i = getelementptr inbounds i8, ptr %self, i64 256
  br label %bb1.i, !dbg !4785

bb1.i:                                            ; preds = %bb1.backedge.i, %bb2
  %block.sroa.0.0.i = phi ptr [ %23, %bb2 ], [ %33, %bb1.backedge.i ], !dbg !4751
  %head.sroa.0.0.i = phi i64 [ %22, %bb2 ], [ %head.sroa.0.0.be.i, %bb1.backedge.i ], !dbg !4747
  call void @llvm.dbg.value(metadata i64 %head.sroa.0.0.i, metadata !4614, metadata !DIExpression()), !dbg !4751
  call void @llvm.dbg.value(metadata ptr %block.sroa.0.0.i, metadata !4616, metadata !DIExpression()), !dbg !4784
  %_9.i = lshr i64 %head.sroa.0.0.i, 1, !dbg !4786
  %offset.i = and i64 %_9.i, 31, !dbg !4786
  call void @llvm.dbg.value(metadata i64 %offset.i, metadata !4618, metadata !DIExpression()), !dbg !4787
  %_11.i13 = icmp eq i64 %offset.i, 31, !dbg !4788
  br i1 %_11.i13, label %bb2.i26, label %bb3.i14, !dbg !4788

bb3.i14:                                          ; preds = %bb1.i
  %24 = add i64 %head.sroa.0.0.i, 2, !dbg !4789
  call void @llvm.dbg.value(metadata i64 %head.sroa.0.0.i, metadata !4620, metadata !DIExpression(DW_OP_plus_uconst, 2, DW_OP_stack_value)), !dbg !4790
  %_20.i15 = and i64 %head.sroa.0.0.i, 1, !dbg !4791
  %25 = icmp eq i64 %_20.i15, 0, !dbg !4791
  br i1 %25, label %bb4.i23, label %bb13.i16, !dbg !4791

bb2.i26:                                          ; preds = %bb1.i
; call std::thread::yield_now
  call void @_ZN3std6thread9yield_now17h33256dae487ed64aE(), !dbg !4792, !noalias !4588
  call void @llvm.dbg.value(metadata ptr %_8, metadata !4596, metadata !DIExpression()), !dbg !4659
  call void @llvm.dbg.value(metadata i8 2, metadata !2743, metadata !DIExpression()), !dbg !4796
  call void @llvm.dbg.value(metadata ptr %_8, metadata !2748, metadata !DIExpression()), !dbg !4796
  %26 = load atomic i64, ptr %_8 acquire, align 128, !dbg !4798, !noalias !4588
  call void @llvm.dbg.value(metadata i64 %26, metadata !4614, metadata !DIExpression()), !dbg !4751
  call void @llvm.dbg.value(metadata i8 2, metadata !4774, metadata !DIExpression()), !dbg !4799
  call void @llvm.dbg.value(metadata ptr %_86.i, metadata !4780, metadata !DIExpression()), !dbg !4799
  call void @llvm.dbg.value(metadata ptr %33, metadata !4616, metadata !DIExpression()), !dbg !4784
  br label %bb1.backedge.i, !dbg !4802

bb4.i23:                                          ; preds = %bb3.i14
  call void @llvm.lifetime.start.p0(i64 8, ptr nonnull %_94.i), !dbg !4804, !noalias !4588
  store i64 0, ptr %_94.i, align 8, !dbg !4805, !noalias !4588
  call void asm sideeffect inteldialect "lock not qword ptr [${0:q}]", "r,~{memory}"(ptr nonnull %_94.i) #26, !dbg !4806, !noalias !4588, !srcloc !4511
  call void @llvm.lifetime.end.p0(i64 8, ptr nonnull %_94.i), !dbg !4807, !noalias !4588
  call void @llvm.dbg.value(metadata ptr %_8, metadata !4599, metadata !DIExpression(DW_OP_plus_uconst, 128, DW_OP_stack_value)), !dbg !4674
  call void @llvm.dbg.value(metadata i8 0, metadata !2743, metadata !DIExpression()), !dbg !4808
  call void @llvm.dbg.value(metadata ptr %_100.i, metadata !2748, metadata !DIExpression()), !dbg !4808
  %27 = load atomic i64, ptr %_100.i monotonic, align 128, !dbg !4810, !noalias !4588
  call void @llvm.dbg.value(metadata i64 %27, metadata !4622, metadata !DIExpression()), !dbg !4811
  %_28.i = lshr i64 %27, 1, !dbg !4812
  %_25.i = icmp eq i64 %_9.i, %_28.i, !dbg !4813
  br i1 %_25.i, label %bb6.i25, label %bb9.i24, !dbg !4813

bb9.i24:                                          ; preds = %bb4.i23
  %_30.not.unshifted.i = xor i64 %27, %head.sroa.0.0.i, !dbg !4814
  %_30.not.i = icmp ugt i64 %_30.not.unshifted.i, 63, !dbg !4814
  %28 = zext i1 %_30.not.i to i64, !dbg !4814
  %spec.select.i = or disjoint i64 %24, %28, !dbg !4814
  br label %bb13.i16, !dbg !4814

bb6.i25:                                          ; preds = %bb4.i23
  %29 = trunc i64 %27 to i8, !dbg !4815
  %spec.select155.i = and i8 %29, 1, !dbg !4815
  %30 = getelementptr inbounds i8, ptr %_0, i64 1, !dbg !4811
  store i8 %spec.select155.i, ptr %30, align 1, !dbg !4811, !alias.scope !4588
  br label %bb8, !dbg !4816

bb13.i16:                                         ; preds = %bb9.i24, %bb3.i14
  %new_head.sroa.0.0.i = phi i64 [ %24, %bb3.i14 ], [ %spec.select.i, %bb9.i24 ], !dbg !4787
  call void @llvm.dbg.value(metadata i64 %new_head.sroa.0.0.i, metadata !4620, metadata !DIExpression()), !dbg !4790
  %31 = icmp eq ptr %block.sroa.0.0.i, null, !dbg !4818
  br i1 %31, label %bb14.i22, label %bb15.i, !dbg !4818

bb14.i22:                                         ; preds = %bb13.i16
; call std::thread::yield_now
  call void @_ZN3std6thread9yield_now17h33256dae487ed64aE(), !dbg !4819, !noalias !4588
  call void @llvm.dbg.value(metadata ptr %_8, metadata !4602, metadata !DIExpression()), !dbg !4676
  call void @llvm.dbg.value(metadata i8 2, metadata !2743, metadata !DIExpression()), !dbg !4822
  call void @llvm.dbg.value(metadata ptr %_8, metadata !2748, metadata !DIExpression()), !dbg !4822
  %32 = load atomic i64, ptr %_8 acquire, align 128, !dbg !4824, !noalias !4588
  call void @llvm.dbg.value(metadata i64 %32, metadata !4614, metadata !DIExpression()), !dbg !4751
  call void @llvm.dbg.value(metadata i8 2, metadata !4774, metadata !DIExpression()), !dbg !4825
  call void @llvm.dbg.value(metadata ptr %_86.i, metadata !4780, metadata !DIExpression()), !dbg !4825
  call void @llvm.dbg.value(metadata ptr %33, metadata !4616, metadata !DIExpression()), !dbg !4784
  br label %bb1.backedge.i, !dbg !4802

bb1.backedge.i:                                   ; preds = %bb17.i, %bb14.i22, %bb2.i26
  %head.sroa.0.0.be.i = phi i64 [ %26, %bb2.i26 ], [ %32, %bb14.i22 ], [ %_8.sroa.0.0.i.i18, %bb17.i ]
  %33 = load atomic ptr, ptr %_86.i acquire, align 8, !dbg !4828, !noalias !4588
  br label %bb1.i, !dbg !4751

bb15.i:                                           ; preds = %bb13.i16
  call void @llvm.dbg.value(metadata ptr %_8, metadata !4682, metadata !DIExpression()), !dbg !4686
  call void @llvm.dbg.value(metadata i64 %head.sroa.0.0.i, metadata !4683, metadata !DIExpression()), !dbg !4686
  call void @llvm.dbg.value(metadata i64 %new_head.sroa.0.0.i, metadata !4684, metadata !DIExpression()), !dbg !4686
  call void @llvm.dbg.value(metadata i8 4, metadata !4532, metadata !DIExpression()), !dbg !4831
  call void @llvm.dbg.value(metadata i8 2, metadata !4538, metadata !DIExpression()), !dbg !4831
  call void @llvm.dbg.value(metadata ptr %_8, metadata !4535, metadata !DIExpression()), !dbg !4831
  call void @llvm.dbg.value(metadata i64 %head.sroa.0.0.i, metadata !4536, metadata !DIExpression()), !dbg !4831
  call void @llvm.dbg.value(metadata i64 %new_head.sroa.0.0.i, metadata !4537, metadata !DIExpression()), !dbg !4831
  %34 = cmpxchg weak ptr %_8, i64 %head.sroa.0.0.i, i64 %new_head.sroa.0.0.i seq_cst acquire, align 8, !dbg !4833, !noalias !4588
  %_8.sroa.18.0.in.i.i17 = extractvalue { i64, i1 } %34, 1, !dbg !4831
  br i1 %_8.sroa.18.0.in.i.i17, label %bb18.i19, label %bb17.i, !dbg !4834

bb18.i19:                                         ; preds = %bb15.i
  %_49.i20 = add nuw nsw i64 %offset.i, 1, !dbg !4835, !unsafe_inst !4836
  %_48.i21 = icmp eq i64 %_49.i20, 31, !dbg !4835, !unsafe_inst !4836
  br i1 %_48.i21, label %bb19.i, label %bb54.i, !dbg !4835, !unsafe_inst !4836

bb17.i:                                           ; preds = %bb15.i
  %_8.sroa.0.0.i.i18 = extractvalue { i64, i1 } %34, 0, !dbg !4831
  call void @llvm.dbg.value(metadata i64 %_8.sroa.0.0.i.i18, metadata !4614, metadata !DIExpression()), !dbg !4751
  call void @llvm.dbg.value(metadata i8 2, metadata !4774, metadata !DIExpression()), !dbg !4837
  call void @llvm.dbg.value(metadata ptr %_86.i, metadata !4780, metadata !DIExpression()), !dbg !4837
  call void @llvm.dbg.value(metadata ptr %33, metadata !4616, metadata !DIExpression()), !dbg !4784
  br label %bb1.backedge.i, !dbg !4785

bb54.i:                                           ; preds = %bb18.i19
  call void @llvm.dbg.value(metadata ptr %block.sroa.0.0.i, metadata !4840, metadata !DIExpression(DW_OP_LLVM_fragment, 0, 64)), !dbg !4859
  call void @llvm.dbg.value(metadata ptr %block.sroa.0.0.i, metadata !4861, metadata !DIExpression(DW_OP_LLVM_fragment, 0, 64)), !dbg !4876
  call void @llvm.dbg.value(metadata i64 31, metadata !4840, metadata !DIExpression(DW_OP_LLVM_fragment, 64, 64)), !dbg !4859
  call void @llvm.dbg.value(metadata i64 31, metadata !4861, metadata !DIExpression(DW_OP_LLVM_fragment, 64, 64)), !dbg !4876
  call void @llvm.dbg.value(metadata i64 %offset.i, metadata !4855, metadata !DIExpression()), !dbg !4859
  call void @llvm.dbg.value(metadata i64 %offset.i, metadata !4874, metadata !DIExpression()), !dbg !4876
  call void @llvm.dbg.value(metadata i64 %offset.i, metadata !4878, metadata !DIExpression()), !dbg !4888
  call void @llvm.dbg.value(metadata ptr %block.sroa.0.0.i, metadata !4887, metadata !DIExpression()), !dbg !4888
  %35 = getelementptr inbounds %"concurrent_queue::unbounded::Slot<async_task::runnable::Runnable>", ptr %block.sroa.0.0.i, i64 %offset.i, !dbg !4890
  call void @llvm.dbg.value(metadata ptr %35, metadata !4628, metadata !DIExpression()), !dbg !4891
  call void @llvm.dbg.value(metadata i8 2, metadata !4892, metadata !DIExpression()), !dbg !4897
  call void @llvm.dbg.value(metadata ptr %35, metadata !4904, metadata !DIExpression()), !dbg !4906
  %_7.i.i = getelementptr inbounds i8, ptr %35, i64 8
  call void @llvm.dbg.value(metadata ptr %35, metadata !4896, metadata !DIExpression(DW_OP_plus_uconst, 8, DW_OP_stack_value)), !dbg !4897
  call void @llvm.dbg.value(metadata i8 2, metadata !2743, metadata !DIExpression()), !dbg !4907
  call void @llvm.dbg.value(metadata ptr %_7.i.i, metadata !2748, metadata !DIExpression()), !dbg !4907
  %36 = load atomic i64, ptr %_7.i.i acquire, align 8, !dbg !4909, !noalias !4588
  %_25.i.i = and i64 %36, 1, !dbg !4910
  %37 = icmp eq i64 %_25.i.i, 0, !dbg !4910
  br i1 %37, label %bb2.i.i, label %"_ZN16concurrent_queue9unbounded13Slot$LT$T$GT$10wait_write17h703d8baaf546c1f9E.exit.i", !dbg !4910

bb2.i.i:                                          ; preds = %bb54.i, %bb2.i.i
; call std::thread::yield_now
  call void @_ZN3std6thread9yield_now17h33256dae487ed64aE(), !dbg !4911, !noalias !4588
  call void @llvm.dbg.value(metadata ptr %35, metadata !4896, metadata !DIExpression(DW_OP_plus_uconst, 8, DW_OP_stack_value)), !dbg !4897
  call void @llvm.dbg.value(metadata i8 2, metadata !2743, metadata !DIExpression()), !dbg !4907
  call void @llvm.dbg.value(metadata ptr %_7.i.i, metadata !2748, metadata !DIExpression()), !dbg !4907
  %38 = load atomic i64, ptr %_7.i.i acquire, align 8, !dbg !4909, !noalias !4588
  %_2.i.i = and i64 %38, 1, !dbg !4910
  %39 = icmp eq i64 %_2.i.i, 0, !dbg !4910
  br i1 %39, label %bb2.i.i, label %"_ZN16concurrent_queue9unbounded13Slot$LT$T$GT$10wait_write17h703d8baaf546c1f9E.exit.i", !dbg !4910

"_ZN16concurrent_queue9unbounded13Slot$LT$T$GT$10wait_write17h703d8baaf546c1f9E.exit.i": ; preds = %bb2.i.i, %bb54.i
  call void @llvm.dbg.value(metadata ptr %35, metadata !4725, metadata !DIExpression()), !dbg !4915
  call void @llvm.dbg.value(metadata ptr %35, metadata !4916, metadata !DIExpression()), !dbg !4922
  call void @llvm.dbg.value(metadata ptr %35, metadata !4924, metadata !DIExpression()), !dbg !4928
  call void @llvm.dbg.value(metadata ptr %35, metadata !4930, metadata !DIExpression()), !dbg !4934
  %40 = load ptr, ptr %35, align 8, !dbg !4936, !noalias !4588, !nonnull !29, !noundef !29
  call void @llvm.dbg.value(metadata ptr %40, metadata !4937, metadata !DIExpression()), !dbg !4945
  call void @llvm.dbg.value(metadata ptr %40, metadata !4947, metadata !DIExpression()), !dbg !4955
  call void @llvm.dbg.value(metadata ptr %40, metadata !4631, metadata !DIExpression()), !dbg !4957
  call void @llvm.dbg.value(metadata ptr %35, metadata !4628, metadata !DIExpression()), !dbg !4891
  call void @llvm.dbg.value(metadata ptr %35, metadata !4735, metadata !DIExpression(DW_OP_plus_uconst, 8, DW_OP_stack_value)), !dbg !4737
  call void @llvm.dbg.value(metadata ptr %_7.i.i, metadata !4743, metadata !DIExpression()), !dbg !4745
  %41 = atomicrmw or ptr %_7.i.i, i64 2 acq_rel, align 8, !dbg !4958, !noalias !4588
  %_71.i = and i64 %41, 4, !dbg !4959, !unsafe_inst !4836
  %42 = icmp eq i64 %_71.i, 0, !dbg !4959, !unsafe_inst !4836
  br i1 %42, label %bb32.i, label %bb28.i, !dbg !4959, !unsafe_inst !4836

bb19.i:                                           ; preds = %bb18.i19
  call void @llvm.dbg.value(metadata i8 2, metadata !4960, metadata !DIExpression()), !dbg !4965
  call void @llvm.dbg.value(metadata ptr %block.sroa.0.0.i, metadata !4973, metadata !DIExpression()), !dbg !4977
  %_5.i.i = getelementptr inbounds i8, ptr %block.sroa.0.0.i, i64 496
  call void @llvm.dbg.value(metadata ptr %block.sroa.0.0.i, metadata !4964, metadata !DIExpression(DW_OP_plus_uconst, 496, DW_OP_stack_value)), !dbg !4965
  call void @llvm.dbg.value(metadata i8 2, metadata !4774, metadata !DIExpression()), !dbg !4978
  call void @llvm.dbg.value(metadata ptr %_5.i.i, metadata !4780, metadata !DIExpression()), !dbg !4978
  %43 = load atomic ptr, ptr %_5.i.i acquire, align 8, !dbg !4980, !noalias !4588
  call void @llvm.dbg.value(metadata ptr %43, metadata !4974, metadata !DIExpression()), !dbg !4981
  %44 = icmp eq ptr %43, null, !dbg !4982
  br i1 %44, label %bb2.i124.i, label %"_ZN16concurrent_queue9unbounded14Block$LT$T$GT$9wait_next17h3f15f0ce8184964bE.exit.i", !dbg !4982

bb2.i124.i:                                       ; preds = %bb19.i, %bb2.i124.i
; call std::thread::yield_now
  call void @_ZN3std6thread9yield_now17h33256dae487ed64aE(), !dbg !4983, !noalias !4588
  call void @llvm.dbg.value(metadata ptr %block.sroa.0.0.i, metadata !4964, metadata !DIExpression(DW_OP_plus_uconst, 496, DW_OP_stack_value)), !dbg !4965
  call void @llvm.dbg.value(metadata i8 2, metadata !4774, metadata !DIExpression()), !dbg !4978
  call void @llvm.dbg.value(metadata ptr %_5.i.i, metadata !4780, metadata !DIExpression()), !dbg !4978
  %45 = load atomic ptr, ptr %_5.i.i acquire, align 8, !dbg !4980, !noalias !4588
  call void @llvm.dbg.value(metadata ptr %45, metadata !4974, metadata !DIExpression()), !dbg !4981
  %46 = icmp eq ptr %45, null, !dbg !4982
  br i1 %46, label %bb2.i124.i, label %"_ZN16concurrent_queue9unbounded14Block$LT$T$GT$9wait_next17h3f15f0ce8184964bE.exit.i", !dbg !4982

"_ZN16concurrent_queue9unbounded14Block$LT$T$GT$9wait_next17h3f15f0ce8184964bE.exit.i": ; preds = %bb2.i124.i, %bb19.i
  %.lcssa.i.i = phi ptr [ %43, %bb19.i ], [ %45, %bb2.i124.i ], !dbg !4980
  call void @llvm.dbg.value(metadata ptr %.lcssa.i.i, metadata !4624, metadata !DIExpression()), !dbg !4987
  call void @llvm.dbg.value(metadata ptr %.lcssa.i.i, metadata !4705, metadata !DIExpression()), !dbg !4706
  %self48.i = and i64 %new_head.sroa.0.0.i, -2, !dbg !4988, !unsafe_inst !4836
  call void @llvm.dbg.value(metadata i64 %self48.i, metadata !4692, metadata !DIExpression()), !dbg !4693
  %47 = add i64 %self48.i, 2, !dbg !4989
  call void @llvm.dbg.value(metadata i64 %47, metadata !4626, metadata !DIExpression()), !dbg !4990
  call void @llvm.dbg.value(metadata ptr %.lcssa.i.i, metadata !4651, metadata !DIExpression(DW_OP_plus_uconst, 496, DW_OP_stack_value)), !dbg !4695
  call void @llvm.dbg.value(metadata ptr %.lcssa.i.i, metadata !4765, metadata !DIExpression(DW_OP_plus_uconst, 496, DW_OP_stack_value)), !dbg !4991
  %_116.i = getelementptr inbounds i8, ptr %.lcssa.i.i, i64 496, !dbg !4993
  call void @llvm.dbg.value(metadata i8 0, metadata !4774, metadata !DIExpression()), !dbg !4994
  call void @llvm.dbg.value(metadata ptr %_116.i, metadata !4780, metadata !DIExpression()), !dbg !4994
  %48 = load atomic ptr, ptr %_116.i monotonic, align 8, !dbg !4996, !noalias !4588
  %49 = icmp ne ptr %48, null, !dbg !4997
  %50 = zext i1 %49 to i64, !dbg !4997
  %spec.select123.i = or disjoint i64 %47, %50, !dbg !4997
  call void @llvm.dbg.value(metadata i64 %spec.select123.i, metadata !4626, metadata !DIExpression()), !dbg !4990
  call void @llvm.dbg.value(metadata ptr %_8, metadata !4704, metadata !DIExpression(DW_OP_plus_uconst, 8, DW_OP_stack_value)), !dbg !4706
  call void @llvm.dbg.value(metadata i8 1, metadata !4998, metadata !DIExpression()), !dbg !5005
  call void @llvm.dbg.value(metadata ptr %_86.i, metadata !5003, metadata !DIExpression()), !dbg !5005
  call void @llvm.dbg.value(metadata ptr %.lcssa.i.i, metadata !5004, metadata !DIExpression()), !dbg !5005
  store atomic ptr %.lcssa.i.i, ptr %_86.i release, align 8, !dbg !5007, !noalias !4588
  call void @llvm.dbg.value(metadata ptr %_8, metadata !4712, metadata !DIExpression()), !dbg !4714
  call void @llvm.dbg.value(metadata i64 %spec.select123.i, metadata !4713, metadata !DIExpression()), !dbg !4714
  call void @llvm.dbg.value(metadata i8 1, metadata !2859, metadata !DIExpression()), !dbg !5008
  call void @llvm.dbg.value(metadata ptr %_8, metadata !2864, metadata !DIExpression()), !dbg !5008
  call void @llvm.dbg.value(metadata i64 %spec.select123.i, metadata !2865, metadata !DIExpression()), !dbg !5008
  store atomic i64 %spec.select123.i, ptr %_8 release, align 128, !dbg !5010, !noalias !4588
  call void @llvm.dbg.value(metadata ptr %block.sroa.0.0.i, metadata !4840, metadata !DIExpression(DW_OP_LLVM_fragment, 0, 64)), !dbg !4859
  call void @llvm.dbg.value(metadata ptr %block.sroa.0.0.i, metadata !4861, metadata !DIExpression(DW_OP_LLVM_fragment, 0, 64)), !dbg !4876
  call void @llvm.dbg.value(metadata i64 31, metadata !4840, metadata !DIExpression(DW_OP_LLVM_fragment, 64, 64)), !dbg !4859
  call void @llvm.dbg.value(metadata i64 31, metadata !4861, metadata !DIExpression(DW_OP_LLVM_fragment, 64, 64)), !dbg !4876
  call void @llvm.dbg.value(metadata i64 %offset.i, metadata !4855, metadata !DIExpression()), !dbg !4859
  call void @llvm.dbg.value(metadata i64 %offset.i, metadata !4874, metadata !DIExpression()), !dbg !4876
  call void @llvm.dbg.value(metadata i64 %offset.i, metadata !4878, metadata !DIExpression()), !dbg !4888
  call void @llvm.dbg.value(metadata ptr %block.sroa.0.0.i, metadata !4887, metadata !DIExpression()), !dbg !4888
  %51 = getelementptr inbounds %"concurrent_queue::unbounded::Slot<async_task::runnable::Runnable>", ptr %block.sroa.0.0.i, i64 %offset.i, !dbg !4890
  call void @llvm.dbg.value(metadata ptr %51, metadata !4628, metadata !DIExpression()), !dbg !4891
  call void @llvm.dbg.value(metadata i8 2, metadata !4892, metadata !DIExpression()), !dbg !5011
  call void @llvm.dbg.value(metadata ptr %51, metadata !4904, metadata !DIExpression()), !dbg !5014
  %_7.i126.i = getelementptr inbounds i8, ptr %51, i64 8
  call void @llvm.dbg.value(metadata ptr %51, metadata !4896, metadata !DIExpression(DW_OP_plus_uconst, 8, DW_OP_stack_value)), !dbg !5011
  call void @llvm.dbg.value(metadata i8 2, metadata !2743, metadata !DIExpression()), !dbg !5015
  call void @llvm.dbg.value(metadata ptr %_7.i126.i, metadata !2748, metadata !DIExpression()), !dbg !5015
  %52 = load atomic i64, ptr %_7.i126.i acquire, align 8, !dbg !5017, !noalias !4588
  %_25.i127.i = and i64 %52, 1, !dbg !5018
  %53 = icmp eq i64 %_25.i127.i, 0, !dbg !5018
  br i1 %53, label %bb2.i128.i, label %"_ZN16concurrent_queue9unbounded13Slot$LT$T$GT$10wait_write17h703d8baaf546c1f9E.exit130.i", !dbg !5018

bb2.i128.i:                                       ; preds = %"_ZN16concurrent_queue9unbounded14Block$LT$T$GT$9wait_next17h3f15f0ce8184964bE.exit.i", %bb2.i128.i
; call std::thread::yield_now
  call void @_ZN3std6thread9yield_now17h33256dae487ed64aE(), !dbg !5019, !noalias !4588
  call void @llvm.dbg.value(metadata ptr %51, metadata !4896, metadata !DIExpression(DW_OP_plus_uconst, 8, DW_OP_stack_value)), !dbg !5011
