; ModuleID = 'async_lock.3f1c597594037a1d-cgu.0'
source_filename = "async_lock.3f1c597594037a1d-cgu.0"
target datalayout = "e-m:e-p270:32:32-p271:32:32-p272:64:64-i64:64-i128:128-f80:128-n8:16:32:64-S128"
target triple = "x86_64-unknown-linux-gnu"

%"std::sys::thread_local::fast_local::lazy::Storage<core::cell::RefCell<core::option::Option<(parking::Parker, event_listener::Task)>>, ()>" = type { %"core::cell::UnsafeCell<std::sys::thread_local::fast_local::lazy::State<core::cell::RefCell<core::option::Option<(parking::Parker, event_listener::Task)>>, ()>>" }
%"core::cell::UnsafeCell<std::sys::thread_local::fast_local::lazy::State<core::cell::RefCell<core::option::Option<(parking::Parker, event_listener::Task)>>, ()>>" = type { %"std::sys::thread_local::fast_local::lazy::State<core::cell::RefCell<core::option::Option<(parking::Parker, event_listener::Task)>>, ()>" }
%"std::sys::thread_local::fast_local::lazy::State<core::cell::RefCell<core::option::Option<(parking::Parker, event_listener::Task)>>, ()>" = type { i64, [4 x i64] }
%"core::sync::atomic::AtomicUsize" = type { i64 }

@alloc_1ccfc410ce4ba7704b8709f0d6e60294 = private unnamed_addr constant <{ [51 x i8] }> <{ [51 x i8] c"fatal runtime error: thread local panicked on drop\0A" }>, align 1
@alloc_f7c18d5ab6a04e64e435b4d6f64423e3 = private unnamed_addr constant <{ ptr, [8 x i8] }> <{ ptr @alloc_1ccfc410ce4ba7704b8709f0d6e60294, [8 x i8] c"3\00\00\00\00\00\00\00" }>, align 8
@alloc_936ad6355eb7690c02d1ad87334f8a5e = private unnamed_addr constant <{ [39 x i8] }> <{ [39 x i8] c"listener was already notified but taken" }>, align 1
@alloc_cb212e2885e8a621cd48c64a6b15f9e9 = private unnamed_addr constant <{ ptr, [8 x i8] }> <{ ptr @alloc_936ad6355eb7690c02d1ad87334f8a5e, [8 x i8] c"'\00\00\00\00\00\00\00" }>, align 8
@alloc_22319e84f33dbef830b6e51a0981dc18 = private unnamed_addr constant <{ [98 x i8] }> <{ [98 x i8] c"/home/arsalan/.cargo/registry/src/index.crates.io-1949cf8c6b5b557f/event-listener-4.0.1/src/lib.rs" }>, align 1
@alloc_1a788ce61c2724e1ee77deda4f541288 = private unnamed_addr constant <{ ptr, [16 x i8] }> <{ ptr @alloc_22319e84f33dbef830b6e51a0981dc18, [16 x i8] c"b\00\00\00\00\00\00\00\BE\04\00\00$\00\00\00" }>, align 8
@alloc_c77220a5126a58f6849fb914779b0676 = private unnamed_addr constant <{ [46 x i8] }> <{ [46 x i8] c"Shouldn't be able to borrow parker reentrantly" }>, align 1
@alloc_eea70d1ba2e2b32ed53c510137b4981e = private unnamed_addr constant <{ ptr, [16 x i8] }> <{ ptr @alloc_22319e84f33dbef830b6e51a0981dc18, [16 x i8] c"b\00\00\00\00\00\00\00&\04\00\00\1A\00\00\00" }>, align 8
@"_ZN14event_listener21Listener$LT$T$C$B$GT$13wait_internal6PARKER29_$u7b$$u7b$constant$u7d$$u7d$28_$u7b$$u7b$closure$u7d$$u7d$3VAL17hfabc1e097e722479E" = external thread_local global %"std::sys::thread_local::fast_local::lazy::Storage<core::cell::RefCell<core::option::Option<(parking::Parker, event_listener::Task)>>, ()>"
@alloc_0fcfb1685dbb639dd8535b5fd2c2a6de = private unnamed_addr constant <{ [46 x i8] }> <{ [46 x i8] c"must listen() on event listener before waiting" }>, align 1
@alloc_9db8ec74ad2294f052f900824a1d7ffc = private unnamed_addr constant <{ [38 x i8] }> <{ [38 x i8] c"We never removed ourself from the list" }>, align 1
@alloc_866cc8f48ff7503bb90b2940ab6c4be4 = private unnamed_addr constant <{ ptr, [16 x i8] }> <{ ptr @alloc_22319e84f33dbef830b6e51a0981dc18, [16 x i8] c"b\00\00\00\00\00\00\00C\04\00\00\0E\00\00\00" }>, align 8
@alloc_68ec7746c0760a8e70a883dc7486cb2a = private unnamed_addr constant <{ ptr, [16 x i8] }> <{ ptr @alloc_22319e84f33dbef830b6e51a0981dc18, [16 x i8] c"b\00\00\00\00\00\00\00X\04\00\00\1E\00\00\00" }>, align 8
@alloc_cbc0ae3a0ff7f483972df12112a7c4bc = private unnamed_addr constant <{ ptr, [16 x i8] }> <{ ptr @alloc_22319e84f33dbef830b6e51a0981dc18, [16 x i8] c"b\00\00\00\00\00\00\00r\03\00\00-\00\00\00" }>, align 8
@alloc_85c423e91305d2dc9da7e9e51cae8a5b = private unnamed_addr constant <{ [41 x i8] }> <{ [41 x i8] c"listener was never inserted into the list" }>, align 1
@alloc_a4be5a93911a8478de1908934d04fb85 = private unnamed_addr constant <{ ptr, [8 x i8] }> <{ ptr @alloc_85c423e91305d2dc9da7e9e51cae8a5b, [8 x i8] c")\00\00\00\00\00\00\00" }>, align 8
@alloc_61d0d125fbe9492258211263be330a30 = private unnamed_addr constant <{ ptr, [16 x i8] }> <{ ptr @alloc_22319e84f33dbef830b6e51a0981dc18, [16 x i8] c"b\00\00\00\00\00\00\00\D9\04\00\00$\00\00\00" }>, align 8
@alloc_e94e241015829de072b2732a84678440 = private unnamed_addr constant <{ [98 x i8] }> <{ [98 x i8] c"/home/arsalan/.cargo/registry/src/index.crates.io-1949cf8c6b5b557f/event-listener-4.0.1/src/std.rs" }>, align 1
@alloc_3d92cf09fa06db555c254e898e4a2d80 = private unnamed_addr constant <{ ptr, [16 x i8] }> <{ ptr @alloc_e94e241015829de072b2732a84678440, [16 x i8] c"b\00\00\00\00\00\00\00\D6\00\00\00\12\00\00\00" }>, align 8
@alloc_61fa7b58ed30eecb534df944972fe25f = private unnamed_addr constant <{ [17 x i8] }> <{ [17 x i8] c"tag already taken" }>, align 1
@alloc_bc69fbb54932bc0e11d2dbae19078b51 = private unnamed_addr constant <{ ptr, [16 x i8] }> <{ ptr @alloc_e94e241015829de072b2732a84678440, [16 x i8] c"b\00\00\00\00\00\00\00\E6\00\00\00,\00\00\00" }>, align 8
@alloc_8d68fcbc011419193bd208f22e2789d1 = private unnamed_addr constant <{ [28 x i8] }> <{ [28 x i8] c"failed to write whole buffer" }>, align 1
@alloc_626cc8bfd6c94d404aa777557e31db63 = private unnamed_addr constant <{ ptr, [9 x i8], [7 x i8] }> <{ ptr @alloc_8d68fcbc011419193bd208f22e2789d1, [9 x i8] c"\1C\00\00\00\00\00\00\00\17", [7 x i8] undef }>, align 8
@alloc_2316e63258fe9d5bdff37bf003386e61 = private unnamed_addr constant <{ [78 x i8] }> <{ [78 x i8] c"/home/arsalan/Documents/Github/unsafe-rust-benchmark/library/std/src/io/mod.rs" }>, align 1
@alloc_d9fb3a4fb251add6517075192273824f = private unnamed_addr constant <{ ptr, [16 x i8] }> <{ ptr @alloc_2316e63258fe9d5bdff37bf003386e61, [16 x i8] c"N\00\00\00\00\00\00\00\A9\06\00\00$\00\00\00" }>, align 8
@alloc_a439077caaee6bab9af745f1531d72a4 = private unnamed_addr constant <{ [86 x i8] }> <{ [86 x i8] c"a formatting trait implementation returned an error when the underlying stream did not" }>, align 1
@alloc_b715a4cb67d5838cf1e1986f5e19fc38 = private unnamed_addr constant <{ ptr, [8 x i8] }> <{ ptr @alloc_a439077caaee6bab9af745f1531d72a4, [8 x i8] c"V\00\00\00\00\00\00\00" }>, align 8
@vtable.0 = private constant <{ ptr, [16 x i8], ptr, ptr, ptr }> <{ ptr @"_ZN4core3ptr97drop_in_place$LT$std..io..Write..write_fmt..Adapter$LT$std..sys..pal..unix..stdio..Stderr$GT$$GT$17h7a12c0568d7b62a1E", [16 x i8] c"\10\00\00\00\00\00\00\00\08\00\00\00\00\00\00\00", ptr @"_ZN80_$LT$std..io..Write..write_fmt..Adapter$LT$T$GT$$u20$as$u20$core..fmt..Write$GT$9write_str17h46dc2b8d03a4522dE", ptr @_ZN4core3fmt5Write10write_char17hc5c2f5a37c4611cdE, ptr @_ZN4core3fmt5Write9write_fmt17hd8f58207054de8a8E }>, align 8, !dbg !0
@alloc_d06916582962d4b81ada4001356ac2bb = private unnamed_addr constant <{ ptr, [16 x i8] }> <{ ptr @alloc_2316e63258fe9d5bdff37bf003386e61, [16 x i8] c"N\00\00\00\00\00\00\004\07\00\00\15\00\00\00" }>, align 8
@_ZN3std9panicking11panic_count18GLOBAL_PANIC_COUNT17h00e7dcd913cdfbe0E = external local_unnamed_addr global %"core::sync::atomic::AtomicUsize"
@vtable.1 = private constant <{ [24 x i8], ptr }> <{ [24 x i8] c"\00\00\00\00\00\00\00\00\00\00\00\00\00\00\00\00\01\00\00\00\00\00\00\00", ptr @"_ZN63_$LT$core..cell..BorrowMutError$u20$as$u20$core..fmt..Debug$GT$3fmt17h244b7fa36f4ece1fE" }>, align 8, !dbg !164
@__rust_no_alloc_shim_is_unstable = external global i8
@alloc_c409e1cc22eaf3da23e8de3ce7e0342b = private unnamed_addr constant <{ [18 x i8] }> <{ [18 x i8] c"BarrierWait { .. }" }>, align 1
@alloc_cc21be90e1f5f402563abbacb6cc53e5 = private unnamed_addr constant <{ [98 x i8] }> <{ [98 x i8] c"/home/arsalan/.cargo/registry/src/index.crates.io-1949cf8c6b5b557f/async-lock-3.2.0/src/barrier.rs" }>, align 1
@alloc_16db191cce0854112925ce3f5f81f5a4 = private unnamed_addr constant <{ ptr, [16 x i8] }> <{ ptr @alloc_cc21be90e1f5f402563abbacb6cc53e5, [16 x i8] c"b\00\00\00\00\00\00\00\C2\00\00\00\1A\00\00\00" }>, align 8
@alloc_c1bb6c15c71875277821fe48e4cb4f3c = private unnamed_addr constant <{ ptr, [16 x i8] }> <{ ptr @alloc_cc21be90e1f5f402563abbacb6cc53e5, [16 x i8] c"b\00\00\00\00\00\00\00\E6\00\00\00\1A\00\00\00" }>, align 8
@alloc_779f4c4c227c35122e8522ff6a6f2abf = private unnamed_addr constant <{ [8 x i8] }> <{ [8 x i8] c"<locked>" }>, align 1
@alloc_785a59840599310f6056e2425c8e9099 = private unnamed_addr constant <{ [96 x i8] }> <{ [96 x i8] c"/home/arsalan/.cargo/registry/src/index.crates.io-1949cf8c6b5b557f/async-lock-3.2.0/src/mutex.rs" }>, align 1
@alloc_fa118a732d34bb2478b4d91f2bfa4159 = private unnamed_addr constant <{ [30 x i8] }> <{ [30 x i8] c"future polled after completion" }>, align 1
@alloc_55ef9d6276ff4b50edc1e116b45bd81c = private unnamed_addr constant <{ ptr, [16 x i8] }> <{ ptr @alloc_785a59840599310f6056e2425c8e9099, [16 x i8] c"`\00\00\00\00\00\00\00\0C\02\00\00!\00\00\00" }>, align 8
@alloc_267f6f94c90ad3a4e4943df7ec04001f = private unnamed_addr constant <{ ptr, [16 x i8] }> <{ ptr @alloc_785a59840599310f6056e2425c8e9099, [16 x i8] c"`\00\00\00\00\00\00\00/\02\00\00C\00\00\00" }>, align 8
@alloc_6d9426f4ec9282c14645a88e6522d7b6 = private unnamed_addr constant <{ ptr, [16 x i8] }> <{ ptr @alloc_785a59840599310f6056e2425c8e9099, [16 x i8] c"`\00\00\00\00\00\00\00\1D\02\00\00C\00\00\00" }>, align 8
@alloc_fe9dd988ecde2ef339367d3656ac6599 = private unnamed_addr constant <{ ptr, [16 x i8] }> <{ ptr @alloc_785a59840599310f6056e2425c8e9099, [16 x i8] c"`\00\00\00\00\00\00\00n\02\00\00:\00\00\00" }>, align 8
@alloc_556890a8c65b479091f254672a675b85 = private unnamed_addr constant <{ ptr, [16 x i8] }> <{ ptr @alloc_785a59840599310f6056e2425c8e9099, [16 x i8] c"`\00\00\00\00\00\00\00]\02\00\00?\00\00\00" }>, align 8
@alloc_da3dbd6bbdfe277350301a069f0a0986 = private unnamed_addr constant <{ [13 x i8] }> <{ [13 x i8] c"Invalid state" }>, align 1
@alloc_353f43239360f508bca1ed68e3aa5c5e = private unnamed_addr constant <{ ptr, [8 x i8] }> <{ ptr @alloc_da3dbd6bbdfe277350301a069f0a0986, [8 x i8] c"\0D\00\00\00\00\00\00\00" }>, align 8
@alloc_52b3a24627b09a2a2402c50a054c3b6a = private unnamed_addr constant <{ [42 x i8] }> <{ [42 x i8] c"internal error: entered unreachable code: " }>, align 1
@alloc_f323dd3c87687f4dcb7c5081f5bac745 = private unnamed_addr constant <{ ptr, [8 x i8] }> <{ ptr @alloc_52b3a24627b09a2a2402c50a054c3b6a, [8 x i8] c"*\00\00\00\00\00\00\00" }>, align 8
@alloc_9de874a19c4340d2205a20e83c4db32a = private unnamed_addr constant <{ [100 x i8] }> <{ [100 x i8] c"/home/arsalan/.cargo/registry/src/index.crates.io-1949cf8c6b5b557f/async-lock-3.2.0/src/once_cell.rs" }>, align 1
@alloc_8294d41a67d0dada80e6e74ce7a5947c = private unnamed_addr constant <{ ptr, [16 x i8] }> <{ ptr @alloc_9de874a19c4340d2205a20e83c4db32a, [16 x i8] c"d\00\00\00\00\00\00\00!\00\00\00\12\00\00\00" }>, align 8
@alloc_2cb921dc4e17c2e2a95d3ea1a45a9fba = private unnamed_addr constant <{ [14 x i8] }> <{ [14 x i8] c"Acquire { .. }" }>, align 1
@alloc_239947a0bec246535fc92d5451409349 = private unnamed_addr constant <{ [17 x i8] }> <{ [17 x i8] c"AcquireArc { .. }" }>, align 1

@"_ZN121_$LT$$LT$async_lock..rwlock..RwLock$LT$T$GT$$u20$as$u20$core..fmt..Debug$GT$..fmt..Locked$u20$as$u20$core..fmt..Debug$GT$3fmt17h7343c1315c7731dcE" = unnamed_addr alias i1 (ptr, ptr), ptr @"_ZN119_$LT$$LT$async_lock..mutex..Mutex$LT$T$GT$$u20$as$u20$core..fmt..Debug$GT$..fmt..Locked$u20$as$u20$core..fmt..Debug$GT$3fmt17h89e2cd50cab10bb3E"

; event_listener::Listener<T,B>::wait_with_parker
; Function Attrs: nonlazybind uwtable
define internal fastcc noundef zeroext i1 @"_ZN14event_listener21Listener$LT$T$C$B$GT$16wait_with_parker17h5269893ebfcdfa86E"(ptr noundef nonnull align 8 %self, i64 %0, i32 noundef %1, ptr noalias noundef readonly align 8 dereferenceable(8) %parker, i64 noundef %unparker.0, ptr noundef %unparker.1) unnamed_addr #0 personality ptr @rust_eh_personality !dbg !281 {
start:
  %_5.i36 = alloca [48 x i8], align 8
  %_5.i30 = alloca [48 x i8], align 8
  %_5.i = alloca [48 x i8], align 8
  %self4 = alloca [24 x i8], align 8
  %val = alloca [24 x i8], align 8
  call void @llvm.dbg.declare(metadata ptr undef, metadata !653, metadata !DIExpression(DW_OP_LLVM_fragment, 96, 32)), !dbg !657
  call void @llvm.dbg.declare(metadata ptr undef, metadata !651, metadata !DIExpression(DW_OP_LLVM_fragment, 96, 32)), !dbg !658
  tail call void @llvm.dbg.value(metadata ptr @alloc_0fcfb1685dbb639dd8535b5fd2c2a6de, metadata !659, metadata !DIExpression(DW_OP_LLVM_fragment, 0, 64)), !dbg !692
  tail call void @llvm.dbg.value(metadata i64 46, metadata !659, metadata !DIExpression(DW_OP_LLVM_fragment, 64, 64)), !dbg !692
  tail call void @llvm.dbg.value(metadata ptr @alloc_9db8ec74ad2294f052f900824a1d7ffc, metadata !694, metadata !DIExpression(DW_OP_LLVM_fragment, 0, 64)), !dbg !715
  tail call void @llvm.dbg.value(metadata i64 38, metadata !694, metadata !DIExpression(DW_OP_LLVM_fragment, 64, 64)), !dbg !715
  tail call void @llvm.dbg.value(metadata i64 %0, metadata !630, metadata !DIExpression(DW_OP_LLVM_fragment, 0, 64)), !dbg !717
  tail call void @llvm.dbg.value(metadata i32 %1, metadata !630, metadata !DIExpression(DW_OP_LLVM_fragment, 64, 32)), !dbg !717
  tail call void @llvm.dbg.value(metadata ptr %self, metadata !629, metadata !DIExpression()), !dbg !717
  tail call void @llvm.dbg.value(metadata ptr %parker, metadata !631, metadata !DIExpression()), !dbg !717
  tail call void @llvm.dbg.value(metadata i64 %unparker.0, metadata !632, metadata !DIExpression(DW_OP_LLVM_fragment, 0, 64)), !dbg !717
  tail call void @llvm.dbg.value(metadata ptr %unparker.1, metadata !632, metadata !DIExpression(DW_OP_LLVM_fragment, 64, 64)), !dbg !717
  call void @llvm.dbg.declare(metadata ptr undef, metadata !649, metadata !DIExpression()), !dbg !718
  call void @llvm.dbg.declare(metadata ptr %self4, metadata !712, metadata !DIExpression()), !dbg !719
  call void @llvm.dbg.declare(metadata ptr undef, metadata !655, metadata !DIExpression()), !dbg !720
  tail call void @llvm.dbg.value(metadata ptr %self, metadata !721, metadata !DIExpression(DW_OP_plus_uconst, 48, DW_OP_stack_value)), !dbg !734
  tail call void @llvm.dbg.value(metadata ptr %self, metadata !733, metadata !DIExpression()), !dbg !734
  %_36 = getelementptr inbounds i8, ptr %self, i64 48, !dbg !736
  tail call void @llvm.dbg.value(metadata ptr %_36, metadata !633, metadata !DIExpression(DW_OP_LLVM_fragment, 0, 64)), !dbg !737
  tail call void @llvm.dbg.value(metadata ptr %self, metadata !633, metadata !DIExpression(DW_OP_LLVM_fragment, 64, 64)), !dbg !737
  tail call void @llvm.dbg.value(metadata ptr %_36, metadata !738, metadata !DIExpression()), !dbg !748
  %2 = load ptr, ptr %_36, align 8, !dbg !750, !noundef !29
  %3 = icmp eq ptr %2, null, !dbg !750
  br i1 %3, label %bb21, label %bb22, !dbg !751

bb21:                                             ; preds = %start
  tail call void @llvm.dbg.value(metadata ptr null, metadata !689, metadata !DIExpression()), !dbg !692
; call core::option::expect_failed
  tail call void @_ZN4core6option13expect_failed17h28cbd671da1a9710E(ptr noalias noundef nonnull readonly align 1 @alloc_0fcfb1685dbb639dd8535b5fd2c2a6de, i64 noundef 46, ptr noalias noundef nonnull readonly align 8 dereferenceable(24) @alloc_866cc8f48ff7503bb90b2940ab6c4be4) #22, !dbg !752
  unreachable, !dbg !752

bb22:                                             ; preds = %start
  tail call void @llvm.dbg.value(metadata ptr %_36, metadata !689, metadata !DIExpression()), !dbg !692
  call void @llvm.dbg.value(metadata ptr undef, metadata !753, metadata !DIExpression()), !dbg !760
  %_0.i = getelementptr inbounds i8, ptr %2, i64 16, !dbg !762
  tail call void @llvm.dbg.value(metadata ptr %_0.i, metadata !646, metadata !DIExpression()), !dbg !763
; call event_listener::sys::<impl event_listener::Inner<T>>::register
  %_11 = tail call fastcc noundef i8 @"_ZN14event_listener3sys48_$LT$impl$u20$event_listener..Inner$LT$T$GT$$GT$8register17h7ff6ebfcfc68a8f2E"(ptr noundef nonnull align 8 %_0.i, ptr noundef nonnull align 8 %self, i64 noundef %unparker.0, ptr noundef %unparker.1), !dbg !764, !range !765
  call void @llvm.dbg.value(metadata ptr @alloc_a4be5a93911a8478de1908934d04fb85, metadata !766, metadata !DIExpression()), !dbg !904
  call void @llvm.dbg.value(metadata i8 %_11, metadata !926, metadata !DIExpression()), !dbg !930
  switch i8 %_11, label %default.unreachable [
    i8 0, label %bb20
    i8 1, label %bb7.preheader
    i8 2, label %bb2.i
  ], !dbg !931

bb7.preheader:                                    ; preds = %bb22
  %4 = icmp eq i32 %1, 1000000000
  br i1 %4, label %bb7.us, label %bb7, !dbg !932

bb7.us:                                           ; preds = %bb7.preheader, %bb7.us
; call parking::Parker::park
  tail call void @_ZN7parking6Parker4park17h0b73130a889554beE(ptr noalias noundef nonnull readonly align 8 dereferenceable(8) %parker), !dbg !933
; call event_listener::sys::<impl event_listener::Inner<T>>::register
  %_27.us = tail call fastcc noundef i8 @"_ZN14event_listener3sys48_$LT$impl$u20$event_listener..Inner$LT$T$GT$$GT$8register17h7ff6ebfcfc68a8f2E"(ptr noundef nonnull align 8 %_0.i, ptr noundef nonnull align 8 %self, i64 noundef %unparker.0, ptr noundef %unparker.1), !dbg !934, !range !765
  call void @llvm.dbg.value(metadata ptr @alloc_a4be5a93911a8478de1908934d04fb85, metadata !766, metadata !DIExpression()), !dbg !935
  call void @llvm.dbg.value(metadata i8 %_27.us, metadata !926, metadata !DIExpression()), !dbg !938
  switch i8 %_27.us, label %default.unreachable [
    i8 0, label %bb20
    i8 1, label %bb7.us
    i8 2, label %bb2.i31
  ], !dbg !939

default.unreachable:                              ; preds = %bb14, %bb7.us, %bb22
  unreachable

bb2.i:                                            ; preds = %bb22
  call void @llvm.lifetime.start.p0(i64 48, ptr nonnull %_5.i), !dbg !940
  store ptr @alloc_a4be5a93911a8478de1908934d04fb85, ptr %_5.i, align 8, !dbg !941
  %5 = getelementptr inbounds i8, ptr %_5.i, i64 8, !dbg !941
  store i64 1, ptr %5, align 8, !dbg !941
  %6 = getelementptr inbounds i8, ptr %_5.i, i64 32, !dbg !941
  store ptr null, ptr %6, align 8, !dbg !941
  %7 = getelementptr inbounds i8, ptr %_5.i, i64 16, !dbg !941
  store ptr inttoptr (i64 8 to ptr), ptr %7, align 8, !dbg !941
  %8 = getelementptr inbounds i8, ptr %_5.i, i64 24, !dbg !941
  store i64 0, ptr %8, align 8, !dbg !941
; call core::panicking::panic_fmt
  call void @_ZN4core9panicking9panic_fmt17h3111a7beccfa68f5E(ptr noalias nocapture noundef nonnull readonly align 8 dereferenceable(48) %_5.i, ptr noalias noundef nonnull readonly align 8 dereferenceable(24) @alloc_61d0d125fbe9492258211263be330a30) #22, !dbg !940
  unreachable, !dbg !940

bb20:                                             ; preds = %bb14, %bb7.us, %bb22, %"_ZN14event_listener14State$LT$T$GT$8notified17h680a833db1e98ebaE.exit"
  %_0.sroa.0.0 = phi i1 [ %_0.sroa.0.0.i38, %"_ZN14event_listener14State$LT$T$GT$8notified17h680a833db1e98ebaE.exit" ], [ true, %bb22 ], [ true, %bb7.us ], [ true, %bb14 ], !dbg !763
  ret i1 %_0.sroa.0.0, !dbg !942

bb7:                                              ; preds = %bb7.preheader, %bb14
  tail call void @llvm.dbg.value(metadata i64 %0, metadata !651, metadata !DIExpression(DW_OP_LLVM_fragment, 0, 64)), !dbg !943
  tail call void @llvm.dbg.value(metadata i32 %1, metadata !651, metadata !DIExpression(DW_OP_LLVM_fragment, 64, 32)), !dbg !943
; call std::time::Instant::now
  %9 = tail call { i64, i32 } @_ZN3std4time7Instant3now17hdd57daf13a49b9b5E(), !dbg !944
  %10 = extractvalue { i64, i32 } %9, 0, !dbg !944
  %11 = extractvalue { i64, i32 } %9, 1, !dbg !944
  tail call void @llvm.dbg.value(metadata i64 %10, metadata !653, metadata !DIExpression(DW_OP_LLVM_fragment, 0, 64)), !dbg !945
  tail call void @llvm.dbg.value(metadata i32 %11, metadata !653, metadata !DIExpression(DW_OP_LLVM_fragment, 64, 32)), !dbg !945
  tail call void @llvm.dbg.value(metadata ptr undef, metadata !946, metadata !DIExpression()), !dbg !959
  tail call void @llvm.dbg.value(metadata ptr undef, metadata !961, metadata !DIExpression()), !dbg !983
  tail call void @llvm.dbg.value(metadata ptr undef, metadata !955, metadata !DIExpression()), !dbg !959
  tail call void @llvm.dbg.value(metadata ptr undef, metadata !982, metadata !DIExpression()), !dbg !983
  tail call void @llvm.dbg.value(metadata ptr undef, metadata !985, metadata !DIExpression()), !dbg !994
  tail call void @llvm.dbg.value(metadata ptr undef, metadata !993, metadata !DIExpression()), !dbg !994
  tail call void @llvm.dbg.value(metadata ptr undef, metadata !996, metadata !DIExpression()), !dbg !1007
  tail call void @llvm.dbg.value(metadata ptr undef, metadata !1004, metadata !DIExpression()), !dbg !1007
  tail call void @llvm.dbg.value(metadata ptr undef, metadata !1009, metadata !DIExpression()), !dbg !1019
  tail call void @llvm.dbg.value(metadata ptr undef, metadata !1018, metadata !DIExpression()), !dbg !1019
  %12 = icmp slt i64 %10, %0, !dbg !1021
  %.not.i = icmp ne i64 %10, %0, !dbg !1021
  %13 = zext i1 %.not.i to i8, !dbg !1021
  %14 = select i1 %12, i8 -1, i8 %13, !dbg !1021
  %15 = icmp eq i8 %14, 0, !dbg !1022
  %16 = icmp ult i32 %11, %1, !dbg !1022
  %_16.i = sext i1 %16 to i8, !dbg !1022
  %_0.sroa.0.0.i29 = select i1 %15, i8 %_16.i, i8 %14, !dbg !1022
  %switch26 = icmp ult i8 %_0.sroa.0.0.i29, 2, !dbg !1023
  br i1 %switch26, label %bb25, label %bb14, !dbg !1023

bb14:                                             ; preds = %bb7
; call event_listener::sys::<impl event_listener::Inner<T>>::register
  %_27 = tail call fastcc noundef i8 @"_ZN14event_listener3sys48_$LT$impl$u20$event_listener..Inner$LT$T$GT$$GT$8register17h7ff6ebfcfc68a8f2E"(ptr noundef nonnull align 8 %_0.i, ptr noundef nonnull align 8 %self, i64 noundef %unparker.0, ptr noundef %unparker.1), !dbg !934, !range !765
  call void @llvm.dbg.value(metadata ptr @alloc_a4be5a93911a8478de1908934d04fb85, metadata !766, metadata !DIExpression()), !dbg !935
  call void @llvm.dbg.value(metadata i8 %_27, metadata !926, metadata !DIExpression()), !dbg !938
  switch i8 %_27, label %default.unreachable [
    i8 0, label %bb20
    i8 1, label %bb7
    i8 2, label %bb2.i31
  ], !dbg !939

bb2.i31:                                          ; preds = %bb14, %bb7.us
  call void @llvm.lifetime.start.p0(i64 48, ptr nonnull %_5.i30), !dbg !1026
  store ptr @alloc_a4be5a93911a8478de1908934d04fb85, ptr %_5.i30, align 8, !dbg !1027
  %17 = getelementptr inbounds i8, ptr %_5.i30, i64 8, !dbg !1027
  store i64 1, ptr %17, align 8, !dbg !1027
  %18 = getelementptr inbounds i8, ptr %_5.i30, i64 32, !dbg !1027
  store ptr null, ptr %18, align 8, !dbg !1027
  %19 = getelementptr inbounds i8, ptr %_5.i30, i64 16, !dbg !1027
  store ptr inttoptr (i64 8 to ptr), ptr %19, align 8, !dbg !1027
  %20 = getelementptr inbounds i8, ptr %_5.i30, i64 24, !dbg !1027
  store i64 0, ptr %20, align 8, !dbg !1027
; call core::panicking::panic_fmt
  call void @_ZN4core9panicking9panic_fmt17h3111a7beccfa68f5E(ptr noalias nocapture noundef nonnull readonly align 8 dereferenceable(48) %_5.i30, ptr noalias noundef nonnull readonly align 8 dereferenceable(24) @alloc_61d0d125fbe9492258211263be330a30) #22, !dbg !1026
  unreachable, !dbg !1026

bb25:                                             ; preds = %bb7
  call void @llvm.lifetime.start.p0(i64 24, ptr nonnull %val), !dbg !1028
  call void @llvm.lifetime.start.p0(i64 24, ptr nonnull %self4), !dbg !1028
; call event_listener::sys::<impl event_listener::Inner<T>>::remove
  call fastcc void @"_ZN14event_listener3sys48_$LT$impl$u20$event_listener..Inner$LT$T$GT$$GT$6remove17hd631f781ec612c77E"(ptr noalias nocapture noundef nonnull align 8 dereferenceable(24) %self4, ptr noundef nonnull align 8 %_0.i, ptr noundef nonnull align 8 %self, i1 noundef zeroext false), !dbg !1028
  %21 = load i8, ptr %self4, align 8, !dbg !1029, !range !1030, !noundef !29
  %22 = icmp eq i8 %21, 4, !dbg !1029
  br i1 %22, label %bb27, label %bb28, !dbg !1031

bb27:                                             ; preds = %bb25
; call core::option::expect_failed
  tail call void @_ZN4core6option13expect_failed17h28cbd671da1a9710E(ptr noalias noundef nonnull readonly align 1 @alloc_9db8ec74ad2294f052f900824a1d7ffc, i64 noundef 38, ptr noalias noundef nonnull readonly align 8 dereferenceable(24) @alloc_68ec7746c0760a8e70a883dc7486cb2a) #22, !dbg !1032
  unreachable, !dbg !1032

bb28:                                             ; preds = %bb25
  call void @llvm.memcpy.p0.p0.i64(ptr noundef nonnull align 8 dereferenceable(24) %val, ptr noundef nonnull align 8 dereferenceable(24) %self4, i64 24, i1 false), !dbg !1033
  call void @llvm.lifetime.end.p0(i64 24, ptr nonnull %self4), !dbg !1034
  tail call void @llvm.experimental.noalias.scope.decl(metadata !1035), !dbg !1028
  call void @llvm.dbg.value(metadata ptr @alloc_cb212e2885e8a621cd48c64a6b15f9e9, metadata !1038, metadata !DIExpression()), !dbg !1042
  call void @llvm.dbg.declare(metadata ptr %val, metadata !1050, metadata !DIExpression()), !dbg !1054
  %23 = load i8, ptr %val, align 8, !dbg !1055, !range !1056, !alias.scope !1035, !noundef !29
  switch i8 %23, label %bb6.i [
    i8 1, label %"_ZN14event_listener14State$LT$T$GT$8notified17h680a833db1e98ebaE.exit"
    i8 3, label %bb3.i
  ], !dbg !1057

bb3.i:                                            ; preds = %bb28
  call void @llvm.lifetime.start.p0(i64 48, ptr nonnull %_5.i36), !dbg !1058, !noalias !1035
  store ptr @alloc_cb212e2885e8a621cd48c64a6b15f9e9, ptr %_5.i36, align 8, !dbg !1059, !noalias !1035
  %24 = getelementptr inbounds i8, ptr %_5.i36, i64 8, !dbg !1059
  store i64 1, ptr %24, align 8, !dbg !1059, !noalias !1035
  %25 = getelementptr inbounds i8, ptr %_5.i36, i64 32, !dbg !1059
  store ptr null, ptr %25, align 8, !dbg !1059, !noalias !1035
  %26 = getelementptr inbounds i8, ptr %_5.i36, i64 16, !dbg !1059
  store ptr inttoptr (i64 8 to ptr), ptr %26, align 8, !dbg !1059, !noalias !1035
  %27 = getelementptr inbounds i8, ptr %_5.i36, i64 24, !dbg !1059
  store i64 0, ptr %27, align 8, !dbg !1059, !noalias !1035
; invoke core::panicking::panic_fmt
  invoke void @_ZN4core9panicking9panic_fmt17h3111a7beccfa68f5E(ptr noalias nocapture noundef nonnull readonly align 8 dereferenceable(48) %_5.i36, ptr noalias noundef nonnull readonly align 8 dereferenceable(24) @alloc_1a788ce61c2724e1ee77deda4f541288) #22
          to label %unreachable.i unwind label %bb7.i, !dbg !1058, !noalias !1035

bb6.i:                                            ; preds = %bb28
  tail call void @llvm.experimental.noalias.scope.decl(metadata !1060), !dbg !1063
  call void @llvm.dbg.value(metadata ptr %val, metadata !1064, metadata !DIExpression()), !dbg !1071
  %cond.i.i = icmp eq i8 %23, 2, !dbg !1073
  br i1 %cond.i.i, label %bb2.i.i, label %"_ZN14event_listener14State$LT$T$GT$8notified17h680a833db1e98ebaE.exit", !dbg !1073

bb2.i.i:                                          ; preds = %bb6.i
  %28 = getelementptr inbounds i8, ptr %val, i64 8, !dbg !1073
  tail call void @llvm.experimental.noalias.scope.decl(metadata !1074), !dbg !1073
  call void @llvm.dbg.value(metadata ptr %28, metadata !1077, metadata !DIExpression()), !dbg !1085
  %29 = load ptr, ptr %28, align 8, !dbg !1087, !alias.scope !1088, !noundef !29
  %.not.i.i.i = icmp eq ptr %29, null, !dbg !1087
  %30 = getelementptr inbounds i8, ptr %val, i64 16, !dbg !1087
  br i1 %.not.i.i.i, label %bb3.i.i.i, label %bb2.i.i.i, !dbg !1087

bb2.i.i.i:                                        ; preds = %bb2.i.i
  %_1.val1.i.i.i = load ptr, ptr %30, align 8, !dbg !1087, !alias.scope !1088, !noundef !29
  call void @llvm.dbg.value(metadata ptr undef, metadata !1089, metadata !DIExpression()), !dbg !1097
  call void @llvm.dbg.value(metadata ptr undef, metadata !1099, metadata !DIExpression()), !dbg !1107
  %31 = getelementptr inbounds i8, ptr %29, i64 24, !dbg !1109
  %_2.i.i.i.i.i = load ptr, ptr %31, align 8, !dbg !1109, !noalias !1088, !nonnull !29, !noundef !29
  tail call void %_2.i.i.i.i.i(ptr noundef %_1.val1.i.i.i), !dbg !1109, !noalias !1088
  br label %"_ZN14event_listener14State$LT$T$GT$8notified17h680a833db1e98ebaE.exit", !dbg !1087

bb3.i.i.i:                                        ; preds = %bb2.i.i
  tail call void @llvm.experimental.noalias.scope.decl(metadata !1110), !dbg !1087
  call void @llvm.dbg.value(metadata ptr %30, metadata !1113, metadata !DIExpression()), !dbg !1121
  tail call void @llvm.experimental.noalias.scope.decl(metadata !1123), !dbg !1126
  call void @llvm.dbg.value(metadata ptr %30, metadata !1127, metadata !DIExpression()), !dbg !1135
  tail call void @llvm.experimental.noalias.scope.decl(metadata !1137), !dbg !1140
  call void @llvm.dbg.value(metadata i64 1, metadata !1141, metadata !DIExpression()), !dbg !1152
  call void @llvm.dbg.value(metadata i8 1, metadata !1151, metadata !DIExpression()), !dbg !1152
  call void @llvm.dbg.value(metadata i64 1, metadata !1162, metadata !DIExpression()), !dbg !1171
  call void @llvm.dbg.value(metadata i8 1, metadata !1170, metadata !DIExpression()), !dbg !1171
  call void @llvm.dbg.value(metadata i8 2, metadata !1173, metadata !DIExpression()), !dbg !1179
  call void @llvm.dbg.value(metadata ptr %30, metadata !1160, metadata !DIExpression()), !dbg !1181
  call void @llvm.dbg.value(metadata ptr %30, metadata !1182, metadata !DIExpression()), !dbg !1191
  call void @llvm.dbg.value(metadata ptr %30, metadata !1193, metadata !DIExpression()), !dbg !1202
  %self6.i.i.i.i.i.i = load ptr, ptr %30, align 8, !dbg !1204, !alias.scope !1205, !nonnull !29, !noundef !29
  call void @llvm.dbg.value(metadata ptr %self6.i.i.i.i.i.i, metadata !1150, metadata !DIExpression()), !dbg !1152
  call void @llvm.dbg.value(metadata ptr %self6.i.i.i.i.i.i, metadata !1169, metadata !DIExpression()), !dbg !1171
  %32 = atomicrmw sub ptr %self6.i.i.i.i.i.i, i64 1 release, align 8, !dbg !1206, !noalias !1205
  %33 = icmp eq i64 %32, 1, !dbg !1207
  br i1 %33, label %bb2.i.i.i.i.i.i, label %"_ZN14event_listener14State$LT$T$GT$8notified17h680a833db1e98ebaE.exit", !dbg !1207

bb2.i.i.i.i.i.i:                                  ; preds = %bb3.i.i.i
  fence acquire, !dbg !1208
; call alloc::sync::Arc<T,A>::drop_slow
  call fastcc void @"_ZN5alloc4sync16Arc$LT$T$C$A$GT$9drop_slow17h5f7fc8bc35814c1fE"(ptr noalias noundef nonnull align 8 dereferenceable(8) %30), !dbg !1209
  br label %"_ZN14event_listener14State$LT$T$GT$8notified17h680a833db1e98ebaE.exit", !dbg !1209

unreachable.i:                                    ; preds = %bb3.i
  unreachable

bb4.i37:                                          ; preds = %bb7.i
  resume { ptr, i32 } %34, !dbg !1210

bb7.i:                                            ; preds = %bb3.i
  %34 = landingpad { ptr, i32 }
          cleanup
; invoke core::ptr::drop_in_place<event_listener::State<()>>
  invoke fastcc void @"_ZN4core3ptr58drop_in_place$LT$event_listener..State$LT$$LP$$RP$$GT$$GT$17hc8d6fd15a809a85cE"(ptr noalias noundef nonnull align 8 dereferenceable(24) %val) #23
          to label %bb4.i37 unwind label %terminate.i, !dbg !1063

terminate.i:                                      ; preds = %bb7.i
  %35 = landingpad { ptr, i32 }
          filter [0 x ptr] zeroinitializer
; call core::panicking::panic_in_cleanup
  tail call void @_ZN4core9panicking16panic_in_cleanup17h43442956f23e9cbeE() #24, !dbg !1210, !noalias !1035
  unreachable, !dbg !1210

"_ZN14event_listener14State$LT$T$GT$8notified17h680a833db1e98ebaE.exit": ; preds = %bb28, %bb6.i, %bb2.i.i.i, %bb3.i.i.i, %bb2.i.i.i.i.i.i
  %_0.sroa.0.0.i38 = phi i1 [ true, %bb28 ], [ false, %bb6.i ], [ false, %bb2.i.i.i ], [ false, %bb3.i.i.i ], [ false, %bb2.i.i.i.i.i.i ], !dbg !1211
  call void @llvm.lifetime.end.p0(i64 24, ptr nonnull %val), !dbg !1212
  br label %bb20, !dbg !1213
}

; event_listener::EventListener<T>::listen
; Function Attrs: nonlazybind uwtable
define internal fastcc void @"_ZN14event_listener22EventListener$LT$T$GT$6listen17h9105f13a786a1adcE"(ptr noundef nonnull align 8 %0, ptr nocapture noundef nonnull align 8 %event) unnamed_addr #0 personality ptr @rust_eh_personality !dbg !1216 {
start:
  %_3.i.sroa.6.i = alloca [23 x i8], align 1
  %inner.i = alloca [24 x i8], align 8
  %_x.i = alloca [8 x i8], align 8
  %_47 = alloca [8 x i8], align 8
  %_14 = alloca [24 x i8], align 8
  %inner = alloca [8 x i8], align 8
  tail call void @llvm.dbg.value(metadata i64 0, metadata !1258, metadata !DIExpression()), !dbg !1267
  tail call void @llvm.dbg.value(metadata i64 0, metadata !1269, metadata !DIExpression()), !dbg !1277
  tail call void @llvm.dbg.value(metadata ptr %0, metadata !1243, metadata !DIExpression()), !dbg !1279
  tail call void @llvm.dbg.value(metadata ptr %event, metadata !1244, metadata !DIExpression()), !dbg !1279
  call void @llvm.dbg.declare(metadata ptr %inner, metadata !1245, metadata !DIExpression()), !dbg !1280
  call void @llvm.lifetime.start.p0(i64 8, ptr nonnull %inner), !dbg !1281
  call void @llvm.dbg.declare(metadata ptr poison, metadata !1282, metadata !DIExpression(DW_OP_LLVM_fragment, 168, 24)), !dbg !1291
  call void @llvm.dbg.declare(metadata ptr poison, metadata !1299, metadata !DIExpression(DW_OP_LLVM_fragment, 40, 24)), !dbg !1316
  call void @llvm.dbg.value(metadata i8 2, metadata !1317, metadata !DIExpression()), !dbg !1326
  call void @llvm.dbg.value(metadata i8 3, metadata !1328, metadata !DIExpression()), !dbg !1354
  call void @llvm.dbg.value(metadata i8 2, metadata !1353, metadata !DIExpression()), !dbg !1354
  call void @llvm.dbg.value(metadata ptr %event, metadata !1309, metadata !DIExpression()), !dbg !1356
  call void @llvm.dbg.declare(metadata ptr %_x.i, metadata !1357, metadata !DIExpression()), !dbg !1365
  call void @llvm.dbg.value(metadata ptr %event, metadata !1325, metadata !DIExpression()), !dbg !1326
  call void @llvm.dbg.value(metadata i8 2, metadata !1367, metadata !DIExpression()), !dbg !1374
  call void @llvm.dbg.value(metadata ptr %event, metadata !1373, metadata !DIExpression()), !dbg !1374
  %1 = load atomic ptr, ptr %event acquire, align 8, !dbg !1376
  call void @llvm.dbg.value(metadata ptr %1, metadata !1310, metadata !DIExpression()), !dbg !1377
  %2 = icmp eq ptr %1, null, !dbg !1378
  br i1 %2, label %bb1.i, label %"_ZN14event_listener14Event$LT$T$GT$5inner17hce057da89d3cf431E.exit", !dbg !1378

bb1.i:                                            ; preds = %start
  call void @llvm.dbg.value(metadata i64 -1, metadata !1299, metadata !DIExpression(DW_OP_LLVM_fragment, 384, 64)), !dbg !1379
  call void @llvm.dbg.value(metadata i32 0, metadata !1299, metadata !DIExpression(DW_OP_LLVM_fragment, 0, 32)), !dbg !1379
  call void @llvm.dbg.value(metadata i8 0, metadata !1299, metadata !DIExpression(DW_OP_LLVM_fragment, 32, 8)), !dbg !1379
  call void @llvm.dbg.value(metadata ptr null, metadata !1299, metadata !DIExpression(DW_OP_LLVM_fragment, 64, 64)), !dbg !1379
  call void @llvm.dbg.value(metadata ptr null, metadata !1299, metadata !DIExpression(DW_OP_LLVM_fragment, 128, 64)), !dbg !1379
  call void @llvm.dbg.value(metadata ptr null, metadata !1299, metadata !DIExpression(DW_OP_LLVM_fragment, 192, 64)), !dbg !1379
  call void @llvm.dbg.value(metadata i64 0, metadata !1299, metadata !DIExpression(DW_OP_LLVM_fragment, 256, 64)), !dbg !1379
  call void @llvm.dbg.value(metadata i64 0, metadata !1299, metadata !DIExpression(DW_OP_LLVM_fragment, 320, 64)), !dbg !1379
  call void @llvm.dbg.value(metadata i64 1, metadata !1282, metadata !DIExpression(DW_OP_LLVM_fragment, 0, 64)), !dbg !1380
  call void @llvm.dbg.value(metadata i64 1, metadata !1282, metadata !DIExpression(DW_OP_LLVM_fragment, 64, 64)), !dbg !1380
  call void @llvm.dbg.value(metadata i32 0, metadata !1282, metadata !DIExpression(DW_OP_LLVM_fragment, 128, 32)), !dbg !1380
  call void @llvm.dbg.value(metadata i8 0, metadata !1282, metadata !DIExpression(DW_OP_LLVM_fragment, 160, 8)), !dbg !1380
  call void @llvm.dbg.value(metadata ptr null, metadata !1282, metadata !DIExpression(DW_OP_LLVM_fragment, 192, 64)), !dbg !1380
  call void @llvm.dbg.value(metadata ptr null, metadata !1282, metadata !DIExpression(DW_OP_LLVM_fragment, 256, 64)), !dbg !1380
  call void @llvm.dbg.value(metadata ptr null, metadata !1282, metadata !DIExpression(DW_OP_LLVM_fragment, 320, 64)), !dbg !1380
  call void @llvm.dbg.value(metadata i64 0, metadata !1282, metadata !DIExpression(DW_OP_LLVM_fragment, 384, 64)), !dbg !1380
  call void @llvm.dbg.value(metadata i64 0, metadata !1282, metadata !DIExpression(DW_OP_LLVM_fragment, 448, 64)), !dbg !1380
  call void @llvm.dbg.value(metadata i64 -1, metadata !1282, metadata !DIExpression(DW_OP_LLVM_fragment, 512, 64)), !dbg !1380
  call void @llvm.dbg.value(metadata ptr inttoptr (i64 1 to ptr), metadata !1381, metadata !DIExpression()), !dbg !1424
  call void @llvm.dbg.value(metadata i64 72, metadata !1432, metadata !DIExpression()), !dbg !1438
  call void @llvm.dbg.value(metadata i64 8, metadata !1433, metadata !DIExpression()), !dbg !1438
  call void @llvm.dbg.value(metadata i64 8, metadata !1434, metadata !DIExpression(DW_OP_LLVM_fragment, 0, 64)), !dbg !1439
  call void @llvm.dbg.value(metadata i64 8, metadata !1423, metadata !DIExpression(DW_OP_LLVM_fragment, 0, 64)), !dbg !1424
  call void @llvm.dbg.value(metadata i64 72, metadata !1434, metadata !DIExpression(DW_OP_LLVM_fragment, 64, 64)), !dbg !1439
  call void @llvm.dbg.value(metadata i64 72, metadata !1423, metadata !DIExpression(DW_OP_LLVM_fragment, 64, 64)), !dbg !1424
  call void @llvm.dbg.value(metadata i64 8, metadata !1440, metadata !DIExpression(DW_OP_LLVM_fragment, 0, 64)), !dbg !1480
  call void @llvm.dbg.value(metadata i64 72, metadata !1440, metadata !DIExpression(DW_OP_LLVM_fragment, 64, 64)), !dbg !1480
  call void @llvm.dbg.value(metadata ptr undef, metadata !1446, metadata !DIExpression()), !dbg !1480
  call void @llvm.dbg.value(metadata i1 false, metadata !1447, metadata !DIExpression(DW_OP_LLVM_convert, 1, DW_ATE_unsigned, DW_OP_LLVM_convert, 8, DW_ATE_unsigned, DW_OP_stack_value)), !dbg !1480
  call void @llvm.dbg.value(metadata i64 72, metadata !1448, metadata !DIExpression()), !dbg !1482
  call void @llvm.dbg.value(metadata ptr @__rust_no_alloc_shim_is_unstable, metadata !1483, metadata !DIExpression()), !dbg !1489
  call void @llvm.dbg.value(metadata i64 8, metadata !1495, metadata !DIExpression(DW_OP_LLVM_fragment, 0, 64)), !dbg !1497
  call void @llvm.dbg.value(metadata i64 72, metadata !1495, metadata !DIExpression(DW_OP_LLVM_fragment, 64, 64)), !dbg !1497
  %3 = load volatile i8, ptr @__rust_no_alloc_shim_is_unstable, align 1, !dbg !1498, !noalias !1499
  %_0.i.i.i.i = tail call noalias noundef align 8 dereferenceable_or_null(72) ptr @__rust_alloc(i64 noundef 72, i64 noundef 8) #25, !dbg !1502, !noalias !1499
  %4 = icmp eq ptr %_0.i.i.i.i, null, !dbg !1503
  br i1 %4, label %bb2.i.i, label %_ZN5alloc5alloc15exchange_malloc17h354862c5666a0a2aE.exit.i, !dbg !1504

bb2.i.i:                                          ; preds = %bb1.i
; call alloc::alloc::handle_alloc_error
  tail call void @_ZN5alloc5alloc18handle_alloc_error17h668ad8a7a2fd77cbE(i64 noundef 8, i64 noundef 72) #22, !dbg !1505, !noalias !1499
  unreachable, !dbg !1505

_ZN5alloc5alloc15exchange_malloc17h354862c5666a0a2aE.exit.i: ; preds = %bb1.i
  store i64 1, ptr %_0.i.i.i.i, align 8, !dbg !1506
  %_32.sroa.4.0._0.i.i.i.sroa_idx.i = getelementptr inbounds i8, ptr %_0.i.i.i.i, i64 8, !dbg !1506
  store i64 1, ptr %_32.sroa.4.0._0.i.i.i.sroa_idx.i, align 8, !dbg !1506
  %_32.sroa.5.0._0.i.i.i.sroa_idx.i = getelementptr inbounds i8, ptr %_0.i.i.i.i, i64 16, !dbg !1506
  store i32 0, ptr %_32.sroa.5.0._0.i.i.i.sroa_idx.i, align 8, !dbg !1506
  %_32.sroa.6.0._0.i.i.i.sroa_idx.i = getelementptr inbounds i8, ptr %_0.i.i.i.i, i64 20, !dbg !1506
  store i8 0, ptr %_32.sroa.6.0._0.i.i.i.sroa_idx.i, align 4, !dbg !1506
  %_32.sroa.8.0._0.i.i.i.sroa_idx.i = getelementptr inbounds i8, ptr %_0.i.i.i.i, i64 24, !dbg !1506
  %_32.sroa.13.0._0.i.i.i.sroa_idx.i = getelementptr inbounds i8, ptr %_0.i.i.i.i, i64 64, !dbg !1506
  tail call void @llvm.memset.p0.i64(ptr noundef nonnull align 8 dereferenceable(40) %_32.sroa.8.0._0.i.i.i.sroa_idx.i, i8 0, i64 40, i1 false), !dbg !1506
  store i64 -1, ptr %_32.sroa.13.0._0.i.i.i.sroa_idx.i, align 8, !dbg !1506
  call void @llvm.dbg.value(metadata ptr %_0.i.i.i.i, metadata !1311, metadata !DIExpression()), !dbg !1507
  call void @llvm.dbg.value(metadata ptr %_32.sroa.5.0._0.i.i.i.sroa_idx.i, metadata !1313, metadata !DIExpression()), !dbg !1508
  call void @llvm.dbg.value(metadata ptr %_32.sroa.5.0._0.i.i.i.sroa_idx.i, metadata !1352, metadata !DIExpression()), !dbg !1354
  call void @llvm.dbg.value(metadata ptr %_32.sroa.5.0._0.i.i.i.sroa_idx.i, metadata !1509, metadata !DIExpression()), !dbg !1516
  call void @llvm.dbg.value(metadata ptr %event, metadata !1350, metadata !DIExpression()), !dbg !1354
  call void @llvm.dbg.value(metadata ptr %1, metadata !1351, metadata !DIExpression()), !dbg !1354
  call void @llvm.dbg.value(metadata i8 3, metadata !1518, metadata !DIExpression()), !dbg !1531
  call void @llvm.dbg.value(metadata i8 2, metadata !1527, metadata !DIExpression()), !dbg !1531
  call void @llvm.dbg.value(metadata ptr %event, metadata !1524, metadata !DIExpression()), !dbg !1531
  call void @llvm.dbg.value(metadata ptr %1, metadata !1525, metadata !DIExpression()), !dbg !1531
  call void @llvm.dbg.value(metadata ptr %_32.sroa.5.0._0.i.i.i.sroa_idx.i, metadata !1526, metadata !DIExpression()), !dbg !1531
  %5 = cmpxchg ptr %event, ptr null, ptr %_32.sroa.5.0._0.i.i.i.sroa_idx.i acq_rel acquire, align 8, !dbg !1533
  %6 = extractvalue { ptr, i1 } %5, 0, !dbg !1533
  call void @llvm.dbg.value(metadata ptr %6, metadata !1310, metadata !DIExpression()), !dbg !1377
  %7 = extractvalue { ptr, i1 } %5, 1, !dbg !1534
  br i1 %7, label %"_ZN14event_listener14Event$LT$T$GT$5inner17hce057da89d3cf431E.exit", label %bb3.i, !dbg !1534

bb3.i:                                            ; preds = %_ZN5alloc5alloc15exchange_malloc17h354862c5666a0a2aE.exit.i
  call void @llvm.lifetime.start.p0(i64 8, ptr nonnull %_x.i), !dbg !1535, !unsafe_inst !1536
  store ptr %_0.i.i.i.i, ptr %_x.i, align 8, !dbg !1537
  call void @llvm.dbg.value(metadata ptr %_x.i, metadata !1538, metadata !DIExpression()), !dbg !1544
  call void @llvm.dbg.value(metadata i64 1, metadata !1546, metadata !DIExpression()), !dbg !1552
  call void @llvm.dbg.value(metadata i8 1, metadata !1551, metadata !DIExpression()), !dbg !1552
  call void @llvm.dbg.value(metadata i64 1, metadata !1560, metadata !DIExpression()), !dbg !1566
  call void @llvm.dbg.value(metadata i8 1, metadata !1565, metadata !DIExpression()), !dbg !1566
  call void @llvm.dbg.value(metadata i8 2, metadata !1568, metadata !DIExpression()), !dbg !1572
  call void @llvm.dbg.value(metadata ptr %_x.i, metadata !1558, metadata !DIExpression()), !dbg !1574
  call void @llvm.dbg.value(metadata ptr %_0.i.i.i.i, metadata !1550, metadata !DIExpression()), !dbg !1552
  call void @llvm.dbg.value(metadata ptr %_0.i.i.i.i, metadata !1564, metadata !DIExpression()), !dbg !1566
  %8 = atomicrmw sub ptr %_0.i.i.i.i, i64 1 release, align 8, !dbg !1575, !noalias !1576
  %9 = icmp eq i64 %8, 1, !dbg !1581
  br i1 %9, label %bb2.i.i.i, label %"_ZN4core3ptr82drop_in_place$LT$alloc..sync..Arc$LT$event_listener..Inner$LT$$LP$$RP$$GT$$GT$$GT$17hddb491abd7e0590fE.exit.i", !dbg !1581

bb2.i.i.i:                                        ; preds = %bb3.i
  fence acquire, !dbg !1582
; call alloc::sync::Arc<T,A>::drop_slow
  call fastcc void @"_ZN5alloc4sync16Arc$LT$T$C$A$GT$9drop_slow17hf0cec7d60ef66820E"(ptr noalias noundef nonnull align 8 dereferenceable(8) %_x.i), !dbg !1583
  br label %"_ZN4core3ptr82drop_in_place$LT$alloc..sync..Arc$LT$event_listener..Inner$LT$$LP$$RP$$GT$$GT$$GT$17hddb491abd7e0590fE.exit.i", !dbg !1583

"_ZN4core3ptr82drop_in_place$LT$alloc..sync..Arc$LT$event_listener..Inner$LT$$LP$$RP$$GT$$GT$$GT$17hddb491abd7e0590fE.exit.i": ; preds = %bb2.i.i.i, %bb3.i
  call void @llvm.lifetime.end.p0(i64 8, ptr nonnull %_x.i), !dbg !1584, !unsafe_inst !1536
  br label %"_ZN14event_listener14Event$LT$T$GT$5inner17hce057da89d3cf431E.exit", !dbg !1585

"_ZN14event_listener14Event$LT$T$GT$5inner17hce057da89d3cf431E.exit": ; preds = %start, %_ZN5alloc5alloc15exchange_malloc17h354862c5666a0a2aE.exit.i, %"_ZN4core3ptr82drop_in_place$LT$alloc..sync..Arc$LT$event_listener..Inner$LT$$LP$$RP$$GT$$GT$$GT$17hddb491abd7e0590fE.exit.i"
  %inner.sroa.0.0.i = phi ptr [ %6, %"_ZN4core3ptr82drop_in_place$LT$alloc..sync..Arc$LT$event_listener..Inner$LT$$LP$$RP$$GT$$GT$$GT$17hddb491abd7e0590fE.exit.i" ], [ %1, %start ], [ %_32.sroa.5.0._0.i.i.i.sroa_idx.i, %_ZN5alloc5alloc15exchange_malloc17h354862c5666a0a2aE.exit.i ], !dbg !1356
  call void @llvm.dbg.value(metadata ptr %inner.sroa.0.0.i, metadata !1310, metadata !DIExpression()), !dbg !1377
  tail call void @llvm.dbg.value(metadata ptr %inner.sroa.0.0.i, metadata !1247, metadata !DIExpression()), !dbg !1586
  tail call void @llvm.dbg.value(metadata ptr %inner.sroa.0.0.i, metadata !1587, metadata !DIExpression()), !dbg !1591
  tail call void @llvm.dbg.value(metadata ptr %inner.sroa.0.0.i, metadata !1593, metadata !DIExpression()), !dbg !1605
  tail call void @llvm.dbg.value(metadata ptr %inner.sroa.0.0.i, metadata !1607, metadata !DIExpression()), !dbg !1617
  call void @llvm.dbg.declare(metadata ptr undef, metadata !1599, metadata !DIExpression()), !dbg !1619
  tail call void @llvm.dbg.value(metadata i64 16, metadata !1600, metadata !DIExpression()), !dbg !1620
  tail call void @llvm.dbg.value(metadata i64 16, metadata !1616, metadata !DIExpression()), !dbg !1617
  tail call void @llvm.dbg.value(metadata i64 16, metadata !1621, metadata !DIExpression()), !dbg !1628
  tail call void @llvm.dbg.value(metadata ptr %inner.sroa.0.0.i, metadata !1627, metadata !DIExpression()), !dbg !1628
  tail call void @llvm.dbg.value(metadata ptr %inner.sroa.0.0.i, metadata !1630, metadata !DIExpression()), !dbg !1638
  tail call void @llvm.dbg.value(metadata i64 -16, metadata !1637, metadata !DIExpression()), !dbg !1638
  %10 = getelementptr inbounds i8, ptr %inner.sroa.0.0.i, i64 -16, !dbg !1640
  call void @llvm.dbg.value(metadata i64 1, metadata !1641, metadata !DIExpression()), !dbg !1648
  call void @llvm.dbg.value(metadata i8 0, metadata !1647, metadata !DIExpression()), !dbg !1648
  call void @llvm.dbg.value(metadata i64 1, metadata !1659, metadata !DIExpression()), !dbg !1665
  call void @llvm.dbg.value(metadata i8 0, metadata !1664, metadata !DIExpression()), !dbg !1665
  call void @llvm.dbg.value(metadata ptr undef, metadata !1655, metadata !DIExpression()), !dbg !1667
  call void @llvm.dbg.value(metadata ptr %10, metadata !1646, metadata !DIExpression()), !dbg !1648
  call void @llvm.dbg.value(metadata ptr %10, metadata !1663, metadata !DIExpression()), !dbg !1665
  %11 = atomicrmw add ptr %10, i64 1 monotonic, align 8, !dbg !1668
  call void @llvm.dbg.value(metadata i64 %11, metadata !1656, metadata !DIExpression()), !dbg !1669
  %_4.i = icmp slt i64 %11, 0, !dbg !1670
  br i1 %_4.i, label %bb1.i29, label %"_ZN68_$LT$alloc..sync..Arc$LT$T$C$A$GT$$u20$as$u20$core..clone..Clone$GT$5clone17hcbcfcec9b1725391E.exit", !dbg !1670

bb1.i29:                                          ; preds = %"_ZN14event_listener14Event$LT$T$GT$5inner17hce057da89d3cf431E.exit"
  tail call void @llvm.trap(), !dbg !1671
  unreachable, !dbg !1671

"_ZN68_$LT$alloc..sync..Arc$LT$T$C$A$GT$$u20$as$u20$core..clone..Clone$GT$5clone17hcbcfcec9b1725391E.exit": ; preds = %"_ZN14event_listener14Event$LT$T$GT$5inner17hce057da89d3cf431E.exit"
  store ptr %10, ptr %inner, align 8, !dbg !1672, !unsafe_inst !1536
  tail call void @llvm.dbg.value(metadata ptr %0, metadata !1673, metadata !DIExpression(DW_OP_plus_uconst, 48, DW_OP_stack_value)), !dbg !1682
  tail call void @llvm.dbg.value(metadata ptr %0, metadata !1681, metadata !DIExpression()), !dbg !1682
  %event11 = getelementptr inbounds i8, ptr %0, i64 48, !dbg !1684
  tail call void @llvm.dbg.value(metadata ptr %event11, metadata !1250, metadata !DIExpression()), !dbg !1685
  tail call void @llvm.dbg.value(metadata ptr %event11, metadata !1686, metadata !DIExpression()), !dbg !1692
  tail call void @llvm.dbg.value(metadata ptr %0, metadata !1252, metadata !DIExpression()), !dbg !1685
  %12 = load ptr, ptr %event11, align 8, !dbg !1694, !noundef !29
  %13 = icmp eq ptr %12, null, !dbg !1694
  br i1 %13, label %bb6, label %bb14, !dbg !1695

bb14:                                             ; preds = %"_ZN68_$LT$alloc..sync..Arc$LT$T$C$A$GT$$u20$as$u20$core..clone..Clone$GT$5clone17hcbcfcec9b1725391E.exit"
  tail call void @llvm.dbg.value(metadata ptr %event11, metadata !1253, metadata !DIExpression()), !dbg !1696
  call void @llvm.lifetime.start.p0(i64 24, ptr nonnull %_14), !dbg !1697
  %_15 = getelementptr inbounds i8, ptr %12, i64 16, !dbg !1697
; invoke event_listener::sys::<impl event_listener::Inner<T>>::remove
  invoke fastcc void @"_ZN14event_listener3sys48_$LT$impl$u20$event_listener..Inner$LT$T$GT$$GT$6remove17hd631f781ec612c77E"(ptr noalias nocapture noundef nonnull align 8 dereferenceable(24) %_14, ptr noundef nonnull align 8 %_15, ptr noundef nonnull align 8 %0, i1 noundef zeroext false)
          to label %bb3 unwind label %bb9, !dbg !1697

bb5:                                              ; preds = %bb2.i.i.i34, %bb2.i.i.i.i.i.i, %bb3.i.i.i, %bb2.i, %bb3
  call void @llvm.lifetime.end.p0(i64 24, ptr nonnull %_14), !dbg !1698
  %.pr = load ptr, ptr %event11, align 8, !dbg !1699, !alias.scope !1717
  %_19 = load ptr, ptr %inner, align 8, !dbg !1722, !nonnull !29, !noundef !29
  tail call void @llvm.experimental.noalias.scope.decl(metadata !1723), !dbg !1724
  call void @llvm.dbg.value(metadata ptr %event11, metadata !1714, metadata !DIExpression()), !dbg !1725
  call void @llvm.dbg.value(metadata ptr %_19, metadata !1715, metadata !DIExpression()), !dbg !1725
  tail call void @llvm.experimental.noalias.scope.decl(metadata !1726), !dbg !1727
  call void @llvm.dbg.value(metadata ptr %event11, metadata !1705, metadata !DIExpression()), !dbg !1728
  %14 = icmp eq ptr %.pr, null, !dbg !1699
  br i1 %14, label %bb6, label %bb2.i.i30, !dbg !1699

bb2.i.i30:                                        ; preds = %bb5
  call void @llvm.dbg.value(metadata ptr %event11, metadata !1538, metadata !DIExpression()), !dbg !1729
  call void @llvm.dbg.value(metadata i64 1, metadata !1546, metadata !DIExpression()), !dbg !1731
  call void @llvm.dbg.value(metadata i8 1, metadata !1551, metadata !DIExpression()), !dbg !1731
  call void @llvm.dbg.value(metadata i64 1, metadata !1560, metadata !DIExpression()), !dbg !1734
  call void @llvm.dbg.value(metadata i8 1, metadata !1565, metadata !DIExpression()), !dbg !1734
  call void @llvm.dbg.value(metadata i8 2, metadata !1568, metadata !DIExpression()), !dbg !1736
  call void @llvm.dbg.value(metadata ptr %event11, metadata !1558, metadata !DIExpression()), !dbg !1738
  call void @llvm.dbg.value(metadata ptr %.pr, metadata !1550, metadata !DIExpression()), !dbg !1731
  call void @llvm.dbg.value(metadata ptr %.pr, metadata !1564, metadata !DIExpression()), !dbg !1734
  %15 = atomicrmw sub ptr %.pr, i64 1 release, align 8, !dbg !1739, !noalias !1740
  %16 = icmp eq i64 %15, 1, !dbg !1745
  br i1 %16, label %bb2.i.i.i.i, label %bb6, !dbg !1745

bb2.i.i.i.i:                                      ; preds = %bb2.i.i30
  fence acquire, !dbg !1746
; call alloc::sync::Arc<T,A>::drop_slow
  tail call fastcc void @"_ZN5alloc4sync16Arc$LT$T$C$A$GT$9drop_slow17hf0cec7d60ef66820E"(ptr noalias noundef nonnull align 8 dereferenceable(8) %event11), !dbg !1747
  br label %bb6, !dbg !1747

bb3:                                              ; preds = %bb14
  tail call void @llvm.experimental.noalias.scope.decl(metadata !1748), !dbg !1698
  call void @llvm.dbg.value(metadata ptr %_14, metadata !1751, metadata !DIExpression()), !dbg !1759
  %17 = load i8, ptr %_14, align 8, !dbg !1761, !range !1030, !alias.scope !1748, !noundef !29
  %18 = icmp eq i8 %17, 4, !dbg !1761
  br i1 %18, label %bb5, label %bb2.i, !dbg !1761

bb2.i:                                            ; preds = %bb3
  tail call void @llvm.experimental.noalias.scope.decl(metadata !1762), !dbg !1761
  call void @llvm.dbg.value(metadata ptr %_14, metadata !1064, metadata !DIExpression()), !dbg !1765
  %cond.i.i = icmp eq i8 %17, 2, !dbg !1767
  br i1 %cond.i.i, label %bb2.i.i33, label %bb5, !dbg !1767

bb2.i.i33:                                        ; preds = %bb2.i
  %19 = getelementptr inbounds i8, ptr %_14, i64 8, !dbg !1767
  tail call void @llvm.experimental.noalias.scope.decl(metadata !1768), !dbg !1767
  call void @llvm.dbg.value(metadata ptr %19, metadata !1077, metadata !DIExpression()), !dbg !1771
  %20 = load ptr, ptr %19, align 8, !dbg !1773, !alias.scope !1774, !noundef !29
  %.not.i.i.i = icmp eq ptr %20, null, !dbg !1773
  %21 = getelementptr inbounds i8, ptr %_14, i64 16, !dbg !1773
  br i1 %.not.i.i.i, label %bb3.i.i.i, label %bb2.i.i.i34, !dbg !1773

bb2.i.i.i34:                                      ; preds = %bb2.i.i33
  %_1.val1.i.i.i = load ptr, ptr %21, align 8, !dbg !1773, !alias.scope !1774, !noundef !29
  call void @llvm.dbg.value(metadata ptr undef, metadata !1089, metadata !DIExpression()), !dbg !1775
  call void @llvm.dbg.value(metadata ptr undef, metadata !1099, metadata !DIExpression()), !dbg !1777
  %22 = getelementptr inbounds i8, ptr %20, i64 24, !dbg !1779
  %_2.i.i.i.i.i = load ptr, ptr %22, align 8, !dbg !1779, !noalias !1774, !nonnull !29, !noundef !29
  invoke void %_2.i.i.i.i.i(ptr noundef %_1.val1.i.i.i)
          to label %bb5 unwind label %bb9, !dbg !1779

bb3.i.i.i:                                        ; preds = %bb2.i.i33
  tail call void @llvm.experimental.noalias.scope.decl(metadata !1780), !dbg !1773
  call void @llvm.dbg.value(metadata ptr %21, metadata !1113, metadata !DIExpression()), !dbg !1783
  tail call void @llvm.experimental.noalias.scope.decl(metadata !1785), !dbg !1788
  call void @llvm.dbg.value(metadata ptr %21, metadata !1127, metadata !DIExpression()), !dbg !1789
  tail call void @llvm.experimental.noalias.scope.decl(metadata !1791), !dbg !1794
  call void @llvm.dbg.value(metadata i64 1, metadata !1141, metadata !DIExpression()), !dbg !1795
  call void @llvm.dbg.value(metadata i8 1, metadata !1151, metadata !DIExpression()), !dbg !1795
  call void @llvm.dbg.value(metadata i64 1, metadata !1162, metadata !DIExpression()), !dbg !1798
  call void @llvm.dbg.value(metadata i8 1, metadata !1170, metadata !DIExpression()), !dbg !1798
  call void @llvm.dbg.value(metadata i8 2, metadata !1173, metadata !DIExpression()), !dbg !1800
  call void @llvm.dbg.value(metadata ptr %21, metadata !1160, metadata !DIExpression()), !dbg !1802
  call void @llvm.dbg.value(metadata ptr %21, metadata !1182, metadata !DIExpression()), !dbg !1803
  call void @llvm.dbg.value(metadata ptr %21, metadata !1193, metadata !DIExpression()), !dbg !1805
  %self6.i.i.i.i.i.i = load ptr, ptr %21, align 8, !dbg !1807, !alias.scope !1808, !nonnull !29, !noundef !29
  call void @llvm.dbg.value(metadata ptr %self6.i.i.i.i.i.i, metadata !1150, metadata !DIExpression()), !dbg !1795
  call void @llvm.dbg.value(metadata ptr %self6.i.i.i.i.i.i, metadata !1169, metadata !DIExpression()), !dbg !1798
  %23 = atomicrmw sub ptr %self6.i.i.i.i.i.i, i64 1 release, align 8, !dbg !1809, !noalias !1808
  %24 = icmp eq i64 %23, 1, !dbg !1810
  br i1 %24, label %bb2.i.i.i.i.i.i, label %bb5, !dbg !1810

bb2.i.i.i.i.i.i:                                  ; preds = %bb3.i.i.i
  fence acquire, !dbg !1811
; call alloc::sync::Arc<T,A>::drop_slow
  call fastcc void @"_ZN5alloc4sync16Arc$LT$T$C$A$GT$9drop_slow17h5f7fc8bc35814c1fE"(ptr noalias noundef nonnull align 8 dereferenceable(8) %21), !dbg !1812
  br label %bb5, !dbg !1812

bb6:                                              ; preds = %"_ZN68_$LT$alloc..sync..Arc$LT$T$C$A$GT$$u20$as$u20$core..clone..Clone$GT$5clone17hcbcfcec9b1725391E.exit", %bb2.i.i.i.i, %bb2.i.i30, %bb5
  %_1944 = phi ptr [ %_19, %bb5 ], [ %_19, %bb2.i.i30 ], [ %_19, %bb2.i.i.i.i ], [ %10, %"_ZN68_$LT$alloc..sync..Arc$LT$T$C$A$GT$$u20$as$u20$core..clone..Clone$GT$5clone17hcbcfcec9b1725391E.exit" ]
  store ptr %_1944, ptr %event11, align 8, !dbg !1727, !alias.scope !1723
  tail call void @llvm.dbg.value(metadata ptr %event11, metadata !1255, metadata !DIExpression()), !dbg !1813
  %_21 = getelementptr inbounds i8, ptr %_1944, i64 16, !dbg !1814
  call void @llvm.dbg.declare(metadata ptr poison, metadata !1815, metadata !DIExpression(DW_OP_LLVM_fragment, 72, 184)), !dbg !1824
  call void @llvm.dbg.value(metadata ptr %0, metadata !1834, metadata !DIExpression()), !dbg !1862
  call void @llvm.dbg.value(metadata ptr %_21, metadata !1833, metadata !DIExpression()), !dbg !1862
  call void @llvm.dbg.declare(metadata ptr %inner.i, metadata !1835, metadata !DIExpression()), !dbg !1863
  call void @llvm.lifetime.start.p0(i64 24, ptr nonnull %inner.i), !dbg !1864
  tail call void @llvm.experimental.noalias.scope.decl(metadata !1865), !dbg !1868
  call void @llvm.dbg.value(metadata ptr %_21, metadata !1869, metadata !DIExpression()), !dbg !1875
  call void @llvm.dbg.value(metadata i32 0, metadata !1877, metadata !DIExpression()), !dbg !1904
  call void @llvm.dbg.value(metadata i32 1, metadata !1901, metadata !DIExpression()), !dbg !1904
  call void @llvm.dbg.value(metadata i8 2, metadata !1902, metadata !DIExpression()), !dbg !1904
  call void @llvm.dbg.value(metadata i8 0, metadata !1903, metadata !DIExpression()), !dbg !1904
  call void @llvm.dbg.value(metadata ptr %_21, metadata !1942, metadata !DIExpression()), !dbg !1944
  call void @llvm.dbg.value(metadata ptr %_21, metadata !1914, metadata !DIExpression()), !dbg !1945
  call void @llvm.dbg.value(metadata ptr %_21, metadata !1900, metadata !DIExpression()), !dbg !1904
  call void @llvm.dbg.value(metadata i8 2, metadata !1946, metadata !DIExpression()), !dbg !1959
  call void @llvm.dbg.value(metadata i8 0, metadata !1955, metadata !DIExpression()), !dbg !1959
  call void @llvm.dbg.value(metadata ptr %_21, metadata !1952, metadata !DIExpression()), !dbg !1959
  call void @llvm.dbg.value(metadata i32 0, metadata !1953, metadata !DIExpression()), !dbg !1959
  call void @llvm.dbg.value(metadata i32 1, metadata !1954, metadata !DIExpression()), !dbg !1959
  %25 = cmpxchg ptr %_21, i32 0, i32 1 acquire monotonic, align 4, !dbg !1961, !noalias !1962
  %26 = extractvalue { i32, i1 } %25, 1, !dbg !1961
  call void @llvm.dbg.value(metadata ptr undef, metadata !1965, metadata !DIExpression()), !dbg !1974
  call void @llvm.dbg.value(metadata ptr undef, metadata !1976, metadata !DIExpression()), !dbg !1981
  br i1 %26, label %bb2.i.i.i35, label %bb4.i.i.i, !dbg !1983

bb4.i.i.i:                                        ; preds = %bb6
; call std::sys::sync::mutex::futex::Mutex::lock_contended
  tail call void @_ZN3std3sys4sync5mutex5futex5Mutex14lock_contended17h8fd9cbd50b365b92E(ptr noundef nonnull align 4 %_21), !dbg !1985
  br label %bb2.i.i.i35

bb2.i.i.i35:                                      ; preds = %bb4.i.i.i, %bb6
  call void @llvm.dbg.value(metadata ptr %_21, metadata !1986, metadata !DIExpression()), !dbg !1990
  call void @llvm.dbg.value(metadata ptr @_ZN3std9panicking11panic_count18GLOBAL_PANIC_COUNT17h00e7dcd913cdfbe0E, metadata !1992, metadata !DIExpression()), !dbg !2000
  call void @llvm.dbg.value(metadata i8 0, metadata !1999, metadata !DIExpression()), !dbg !2000
  call void @llvm.dbg.value(metadata i8 0, metadata !2049, metadata !DIExpression()), !dbg !2058
  call void @llvm.dbg.value(metadata ptr %_21, metadata !2045, metadata !DIExpression(DW_OP_plus_uconst, 4, DW_OP_stack_value)), !dbg !2068
  call void @llvm.dbg.value(metadata ptr %_21, metadata !2066, metadata !DIExpression(DW_OP_plus_uconst, 4, DW_OP_stack_value)), !dbg !2069
  call void @llvm.dbg.value(metadata i8 0, metadata !2070, metadata !DIExpression()), !dbg !2077
  call void @llvm.dbg.value(metadata ptr @_ZN3std9panicking11panic_count18GLOBAL_PANIC_COUNT17h00e7dcd913cdfbe0E, metadata !2076, metadata !DIExpression()), !dbg !2077
  %27 = load atomic i64, ptr @_ZN3std9panicking11panic_count18GLOBAL_PANIC_COUNT17h00e7dcd913cdfbe0E monotonic, align 8, !dbg !2079, !noalias !2080
  %_6.i.i.i.i.i = and i64 %27, 9223372036854775807, !dbg !2083
  %28 = icmp eq i64 %_6.i.i.i.i.i, 0, !dbg !2083
  br i1 %28, label %bb1.i.i, label %bb6.i.i.i.i.i, !dbg !2083

bb6.i.i.i.i.i:                                    ; preds = %bb2.i.i.i35
; call std::panicking::panic_count::is_zero_slow_path
  %29 = tail call noundef zeroext i1 @_ZN3std9panicking11panic_count17is_zero_slow_path17h24de30857bbd803cE(), !dbg !2084
  %30 = xor i1 %29, true, !dbg !2085
  %31 = zext i1 %30 to i8, !dbg !2086
  br label %bb1.i.i, !dbg !2084

bb1.i.i:                                          ; preds = %bb6.i.i.i.i.i, %bb2.i.i.i35
  %_5.sroa.0.0.i.i.i.i.i = phi i8 [ %31, %bb6.i.i.i.i.i ], [ 0, %bb2.i.i.i35 ], !dbg !2087
  %_3.i.i.i.i = getelementptr inbounds i8, ptr %_1944, i64 20, !dbg !2088
  call void @llvm.dbg.value(metadata ptr %_3.i.i.i.i, metadata !2045, metadata !DIExpression()), !dbg !2068
  call void @llvm.dbg.value(metadata ptr %_3.i.i.i.i, metadata !2066, metadata !DIExpression()), !dbg !2069
  call void @llvm.dbg.value(metadata i8 %_5.sroa.0.0.i.i.i.i.i, metadata !2046, metadata !DIExpression(DW_OP_LLVM_convert, 1, DW_ATE_unsigned, DW_OP_LLVM_convert, 8, DW_ATE_unsigned, DW_OP_stack_value)), !dbg !2089
  call void @llvm.dbg.value(metadata ptr %_3.i.i.i.i, metadata !2057, metadata !DIExpression()), !dbg !2058
  call void @llvm.dbg.value(metadata i8 0, metadata !2090, metadata !DIExpression()), !dbg !2096
  call void @llvm.dbg.value(metadata ptr %_3.i.i.i.i, metadata !2095, metadata !DIExpression()), !dbg !2096
  %32 = load atomic i8, ptr %_3.i.i.i.i monotonic, align 1, !dbg !2098, !noalias !2080
  %33 = getelementptr inbounds i8, ptr %inner.i, i64 8, !dbg !2099
  store ptr %_21, ptr %33, align 8, !dbg !2099, !alias.scope !1865
  %34 = getelementptr inbounds i8, ptr %inner.i, i64 16, !dbg !2099
  store i8 %_5.sroa.0.0.i.i.i.i.i, ptr %34, align 8, !dbg !2099, !alias.scope !1865
  store ptr %_21, ptr %inner.i, align 8, !dbg !2099, !alias.scope !1865
  %35 = getelementptr inbounds i8, ptr %_1944, i64 32, !dbg !2100
  %value12.i = load ptr, ptr %35, align 8, !dbg !2100, !noundef !29, !unsafe_inst !1536
  call void @llvm.dbg.value(metadata i8 0, metadata !1815, metadata !DIExpression(DW_OP_LLVM_fragment, 64, 8)), !dbg !2101
  call void @llvm.dbg.value(metadata ptr %value12.i, metadata !1815, metadata !DIExpression(DW_OP_LLVM_fragment, 256, 64)), !dbg !2101
  call void @llvm.dbg.value(metadata ptr null, metadata !1815, metadata !DIExpression(DW_OP_LLVM_fragment, 320, 64)), !dbg !2101
  call void @llvm.dbg.value(metadata i64 1, metadata !1815, metadata !DIExpression(DW_OP_LLVM_fragment, 0, 64)), !dbg !2101
  call void @llvm.dbg.value(metadata ptr undef, metadata !1823, metadata !DIExpression()), !dbg !2101
  call void @llvm.lifetime.start.p0(i64 23, ptr nonnull %_3.i.sroa.6.i), !dbg !2102
  call void @llvm.dbg.value(metadata ptr %0, metadata !2103, metadata !DIExpression()), !dbg !2111
  %_2.i.i = load i64, ptr %0, align 8, !dbg !2113, !range !2114, !noalias !2115, !noundef !29
  %36 = icmp eq i64 %_2.i.i, 0, !dbg !2113
  br i1 %36, label %bb12.i, label %bb2.i.i36, !dbg !2113

bb2.i.i36:                                        ; preds = %bb1.i.i
  %37 = getelementptr inbounds i8, ptr %0, i64 8, !dbg !2113
  call void @llvm.dbg.value(metadata ptr %37, metadata !2118, metadata !DIExpression()), !dbg !2124
  tail call void @llvm.experimental.noalias.scope.decl(metadata !2126), !dbg !2129, !noalias !2115
  call void @llvm.dbg.value(metadata ptr %37, metadata !2130, metadata !DIExpression()), !dbg !2138
  tail call void @llvm.experimental.noalias.scope.decl(metadata !2140), !dbg !2143, !noalias !2115
  call void @llvm.dbg.value(metadata ptr %37, metadata !2144, metadata !DIExpression()), !dbg !2149
  tail call void @llvm.experimental.noalias.scope.decl(metadata !2151), !dbg !2154, !noalias !2115
  call void @llvm.dbg.value(metadata ptr %37, metadata !2155, metadata !DIExpression()), !dbg !2163
  tail call void @llvm.experimental.noalias.scope.decl(metadata !2165), !dbg !2168, !noalias !2115
  call void @llvm.dbg.value(metadata ptr %37, metadata !2169, metadata !DIExpression()), !dbg !2177
  tail call void @llvm.experimental.noalias.scope.decl(metadata !2179), !dbg !2182, !noalias !2115
  call void @llvm.dbg.value(metadata ptr %37, metadata !1064, metadata !DIExpression()), !dbg !2183
  %38 = load i8, ptr %37, align 8, !dbg !2185, !range !1056, !alias.scope !2186, !noalias !2115, !noundef !29
  %cond.i.i.i.i.i.i.i.i = icmp eq i8 %38, 2, !dbg !2185
  br i1 %cond.i.i.i.i.i.i.i.i, label %bb2.i.i.i.i.i.i.i.i, label %bb12.i, !dbg !2185

bb2.i.i.i.i.i.i.i.i:                              ; preds = %bb2.i.i36
  %39 = getelementptr inbounds i8, ptr %0, i64 16, !dbg !2185
  tail call void @llvm.experimental.noalias.scope.decl(metadata !2187), !dbg !2185, !noalias !2115
  call void @llvm.dbg.value(metadata ptr %39, metadata !1077, metadata !DIExpression()), !dbg !2190
  %40 = load ptr, ptr %39, align 8, !dbg !2192, !alias.scope !2193, !noalias !2115, !noundef !29
  %.not.i.i.i.i.i.i.i.i.i = icmp eq ptr %40, null, !dbg !2192
  %41 = getelementptr inbounds i8, ptr %0, i64 24, !dbg !2192
  br i1 %.not.i.i.i.i.i.i.i.i.i, label %bb3.i.i.i.i.i.i.i.i.i, label %bb2.i.i.i.i.i.i.i.i.i, !dbg !2192

bb2.i.i.i.i.i.i.i.i.i:                            ; preds = %bb2.i.i.i.i.i.i.i.i
  %_1.val1.i.i.i.i.i.i.i.i.i = load ptr, ptr %41, align 8, !dbg !2192, !alias.scope !2193, !noalias !2115, !noundef !29
  call void @llvm.dbg.value(metadata ptr undef, metadata !1089, metadata !DIExpression()), !dbg !2194
  call void @llvm.dbg.value(metadata ptr undef, metadata !1099, metadata !DIExpression()), !dbg !2196
  %42 = getelementptr inbounds i8, ptr %40, i64 24, !dbg !2198
  %_2.i.i.i.i.i.i.i.i.i.i.i = load ptr, ptr %42, align 8, !dbg !2198, !noalias !2199, !nonnull !29, !noundef !29
  invoke void %_2.i.i.i.i.i.i.i.i.i.i.i(ptr noundef %_1.val1.i.i.i.i.i.i.i.i.i)
          to label %bb12.i unwind label %cleanup.body.i, !dbg !2198

bb3.i.i.i.i.i.i.i.i.i:                            ; preds = %bb2.i.i.i.i.i.i.i.i
  tail call void @llvm.experimental.noalias.scope.decl(metadata !2200), !dbg !2192, !noalias !2115
  call void @llvm.dbg.value(metadata ptr %41, metadata !1113, metadata !DIExpression()), !dbg !2203
  tail call void @llvm.experimental.noalias.scope.decl(metadata !2205), !dbg !2208, !noalias !2115
  call void @llvm.dbg.value(metadata ptr %41, metadata !1127, metadata !DIExpression()), !dbg !2209
  tail call void @llvm.experimental.noalias.scope.decl(metadata !2211), !dbg !2214, !noalias !2115
  call void @llvm.dbg.value(metadata i64 1, metadata !1141, metadata !DIExpression()), !dbg !2215
  call void @llvm.dbg.value(metadata i8 1, metadata !1151, metadata !DIExpression()), !dbg !2215
  call void @llvm.dbg.value(metadata i64 1, metadata !1162, metadata !DIExpression()), !dbg !2218
  call void @llvm.dbg.value(metadata i8 1, metadata !1170, metadata !DIExpression()), !dbg !2218
  call void @llvm.dbg.value(metadata i8 2, metadata !1173, metadata !DIExpression()), !dbg !2220
  call void @llvm.dbg.value(metadata ptr %41, metadata !1160, metadata !DIExpression()), !dbg !2222
  call void @llvm.dbg.value(metadata ptr %41, metadata !1182, metadata !DIExpression()), !dbg !2223
  call void @llvm.dbg.value(metadata ptr %41, metadata !1193, metadata !DIExpression()), !dbg !2225
  %self6.i.i.i.i.i.i.i.i.i.i.i.i = load ptr, ptr %41, align 8, !dbg !2227, !alias.scope !2228, !noalias !2115, !nonnull !29, !noundef !29
  call void @llvm.dbg.value(metadata ptr %self6.i.i.i.i.i.i.i.i.i.i.i.i, metadata !1150, metadata !DIExpression()), !dbg !2215
  call void @llvm.dbg.value(metadata ptr %self6.i.i.i.i.i.i.i.i.i.i.i.i, metadata !1169, metadata !DIExpression()), !dbg !2218
  %43 = atomicrmw sub ptr %self6.i.i.i.i.i.i.i.i.i.i.i.i, i64 1 release, align 8, !dbg !2229, !noalias !2230
  %44 = icmp eq i64 %43, 1, !dbg !2231
  br i1 %44, label %bb2.i.i.i.i.i.i.i.i.i.i.i.i, label %bb12.i, !dbg !2231

bb2.i.i.i.i.i.i.i.i.i.i.i.i:                      ; preds = %bb3.i.i.i.i.i.i.i.i.i
  fence acquire, !dbg !2232, !noalias !2115
; call alloc::sync::Arc<T,A>::drop_slow
  tail call fastcc void @"_ZN5alloc4sync16Arc$LT$T$C$A$GT$9drop_slow17h5f7fc8bc35814c1fE"(ptr noalias noundef nonnull align 8 dereferenceable(8) %41), !dbg !2233, !noalias !2115
  br label %bb12.i, !dbg !2233

cleanup.body.i:                                   ; preds = %bb2.i.i.i.i.i.i.i.i.i
  %45 = landingpad { ptr, i32 }
          cleanup
  store i64 1, ptr %0, align 8, !dbg !2234, !noalias !2115
  store i8 0, ptr %37, align 8, !dbg !2234, !noalias !2115
  %_3.i.sroa.7.0..sroa_idx.i = getelementptr inbounds i8, ptr %0, i64 32, !dbg !2234
  store ptr %value12.i, ptr %_3.i.sroa.7.0..sroa_idx.i, align 8, !dbg !2234, !noalias !2115
  %_3.i.sroa.8.0..sroa_idx.i = getelementptr inbounds i8, ptr %0, i64 40, !dbg !2234
  store ptr null, ptr %_3.i.sroa.8.0..sroa_idx.i, align 8, !dbg !2234, !noalias !2115
; invoke core::ptr::drop_in_place<event_listener::sys::ListLock<()>>
  invoke fastcc void @"_ZN4core3ptr66drop_in_place$LT$event_listener..sys..ListLock$LT$$LP$$RP$$GT$$GT$17h4e75c2a18d201a8aE"(ptr noalias noundef nonnull align 8 dereferenceable(24) %inner.i) #23
          to label %bb8 unwind label %terminate.i, !dbg !2235

bb12.i:                                           ; preds = %bb2.i.i.i.i.i.i.i.i.i.i.i.i, %bb3.i.i.i.i.i.i.i.i.i, %bb2.i.i.i.i.i.i.i.i.i, %bb2.i.i36, %bb1.i.i
  store i64 1, ptr %0, align 8, !dbg !2234, !noalias !2115
  %_3.i.sroa.5.0..sroa_idx76.i = getelementptr inbounds i8, ptr %0, i64 8, !dbg !2234
  store i8 0, ptr %_3.i.sroa.5.0..sroa_idx76.i, align 8, !dbg !2234, !noalias !2115
  %_3.i.sroa.6.0..sroa_idx78.i = getelementptr inbounds i8, ptr %0, i64 9, !dbg !2234
  call void @llvm.memcpy.p0.p0.i64(ptr noundef nonnull align 1 dereferenceable(23) %_3.i.sroa.6.0..sroa_idx78.i, ptr noundef nonnull align 1 dereferenceable(23) %_3.i.sroa.6.i, i64 23, i1 false), !dbg !2234, !noalias !2115
  %_3.i.sroa.7.0..sroa_idx79.i = getelementptr inbounds i8, ptr %0, i64 32, !dbg !2234
  store ptr %value12.i, ptr %_3.i.sroa.7.0..sroa_idx79.i, align 8, !dbg !2234, !noalias !2115
  %_3.i.sroa.8.0..sroa_idx81.i = getelementptr inbounds i8, ptr %0, i64 40, !dbg !2234
  store ptr null, ptr %_3.i.sroa.8.0..sroa_idx81.i, align 8, !dbg !2234, !noalias !2115
  call void @llvm.lifetime.end.p0(i64 23, ptr nonnull %_3.i.sroa.6.i), !dbg !2236
  call void @llvm.dbg.value(metadata ptr %_3.i.sroa.5.0..sroa_idx76.i, metadata !1848, metadata !DIExpression()), !dbg !2237
  call void @llvm.dbg.value(metadata ptr %inner.i, metadata !2238, metadata !DIExpression()), !dbg !2253
  call void @llvm.dbg.value(metadata ptr %inner.i, metadata !2255, metadata !DIExpression(DW_OP_plus_uconst, 8, DW_OP_stack_value)), !dbg !2269
  %_66.i = load ptr, ptr %33, align 8, !dbg !2271, !nonnull !29, !align !2272, !noundef !29
  call void @llvm.dbg.value(metadata ptr %_66.i, metadata !2273, metadata !DIExpression(DW_OP_plus_uconst, 8, DW_OP_plus_uconst, 8, DW_OP_stack_value)), !dbg !2289
  call void @llvm.dbg.value(metadata ptr %_66.i, metadata !2291, metadata !DIExpression(DW_OP_plus_uconst, 8, DW_OP_plus_uconst, 8, DW_OP_stack_value)), !dbg !2300
  call void @llvm.dbg.value(metadata ptr %_66.i, metadata !2302, metadata !DIExpression(DW_OP_plus_uconst, 8, DW_OP_plus_uconst, 8, DW_OP_stack_value)), !dbg !2312
  call void @llvm.dbg.value(metadata ptr %_3.i.sroa.5.0..sroa_idx76.i, metadata !2280, metadata !DIExpression()), !dbg !2289
  call void @llvm.dbg.value(metadata ptr %_3.i.sroa.5.0..sroa_idx76.i, metadata !2308, metadata !DIExpression()), !dbg !2312
  %46 = getelementptr inbounds i8, ptr %_66.i, i64 16, !dbg !2314
  %47 = load ptr, ptr %46, align 8, !dbg !2314, !noundef !29
  call void @llvm.dbg.value(metadata ptr %47, metadata !2281, metadata !DIExpression()), !dbg !2315
  store ptr %_3.i.sroa.5.0..sroa_idx76.i, ptr %46, align 8, !dbg !2316
  %48 = icmp eq ptr %47, null, !dbg !2317
  %_81.i = getelementptr inbounds i8, ptr %47, i64 32, !dbg !2318
  %_76.i = getelementptr inbounds i8, ptr %_66.i, i64 8, !dbg !2318
  %_81.sink.i = select i1 %48, ptr %_76.i, ptr %_81.i, !dbg !2318
  store ptr %_3.i.sroa.5.0..sroa_idx76.i, ptr %_81.sink.i, align 8, !dbg !2237
  call void @llvm.dbg.value(metadata ptr %_66.i, metadata !2319, metadata !DIExpression(DW_OP_plus_uconst, 8, DW_OP_plus_uconst, 16, DW_OP_stack_value)), !dbg !2327
  call void @llvm.dbg.value(metadata ptr %_66.i, metadata !2329, metadata !DIExpression(DW_OP_plus_uconst, 8, DW_OP_plus_uconst, 16, DW_OP_stack_value)), !dbg !2334
  %49 = getelementptr inbounds i8, ptr %_66.i, i64 24, !dbg !2336
  %50 = load ptr, ptr %49, align 8, !dbg !2336, !noundef !29
  %51 = icmp eq ptr %50, null, !dbg !2336
  br i1 %51, label %bb13.i, label %bb7.i, !dbg !2337

bb13.i:                                           ; preds = %bb12.i
  call void @llvm.dbg.value(metadata ptr %_66.i, metadata !2319, metadata !DIExpression(DW_OP_plus_uconst, 8, DW_OP_plus_uconst, 16, DW_OP_stack_value)), !dbg !2327
  call void @llvm.dbg.value(metadata ptr %_66.i, metadata !2329, metadata !DIExpression(DW_OP_plus_uconst, 8, DW_OP_plus_uconst, 16, DW_OP_stack_value)), !dbg !2334
  %_40.i = load ptr, ptr %46, align 8, !dbg !2339, !noundef !29
  store ptr %_40.i, ptr %49, align 8, !dbg !2340
  br label %bb7.i, !dbg !2341

bb7.i:                                            ; preds = %bb13.i, %bb12.i
  %52 = getelementptr inbounds i8, ptr %_66.i, i64 32, !dbg !2342
  %53 = load i64, ptr %52, align 8, !dbg !2342, !noundef !29
  %54 = add i64 %53, 1, !dbg !2342
  store i64 %54, ptr %52, align 8, !dbg !2342
  tail call void @llvm.experimental.noalias.scope.decl(metadata !2343), !dbg !2235
  call void @llvm.dbg.value(metadata ptr %inner.i, metadata !2346, metadata !DIExpression()), !dbg !2354
  tail call void @llvm.experimental.noalias.scope.decl(metadata !2356), !dbg !2359
  call void @llvm.dbg.value(metadata i8 1, metadata !2360, metadata !DIExpression()), !dbg !2369
  call void @llvm.dbg.value(metadata ptr %inner.i, metadata !2378, metadata !DIExpression()), !dbg !2383
  call void @llvm.dbg.value(metadata ptr %_66.i, metadata !2379, metadata !DIExpression(DW_OP_plus_uconst, 8, DW_OP_stack_value)), !dbg !2384
  %55 = getelementptr inbounds i8, ptr %_66.i, i64 40, !dbg !2385
  %_4.i.i.i = load i64, ptr %55, align 8, !dbg !2385, !noalias !2386, !noundef !29
  %_3.i.i.i = icmp ult i64 %_4.i.i.i, %54, !dbg !2385
  %_4..i.i.i = select i1 %_3.i.i.i, i64 %_4.i.i.i, i64 -1, !dbg !2387
  call void @llvm.dbg.value(metadata i64 %_4..i.i.i, metadata !2381, metadata !DIExpression()), !dbg !2388
  %_8.i.i.i = load ptr, ptr %inner.i, align 8, !dbg !2389, !alias.scope !2386, !nonnull !29, !align !2272, !noundef !29
  call void @llvm.dbg.value(metadata ptr %_8.i.i.i, metadata !2367, metadata !DIExpression(DW_OP_plus_uconst, 48, DW_OP_stack_value)), !dbg !2369
  call void @llvm.dbg.value(metadata i64 %_4..i.i.i, metadata !2368, metadata !DIExpression()), !dbg !2369
  call void @llvm.dbg.value(metadata ptr %_8.i.i.i, metadata !2390, metadata !DIExpression(DW_OP_plus_uconst, 48, DW_OP_stack_value)), !dbg !2398
  %_17.i.i.i = getelementptr inbounds i8, ptr %_8.i.i.i, i64 48, !dbg !2400
  call void @llvm.dbg.value(metadata i8 1, metadata !2401, metadata !DIExpression()), !dbg !2408
  call void @llvm.dbg.value(metadata ptr %_17.i.i.i, metadata !2406, metadata !DIExpression()), !dbg !2408
  call void @llvm.dbg.value(metadata i64 %_4..i.i.i, metadata !2407, metadata !DIExpression()), !dbg !2408
  store atomic i64 %_4..i.i.i, ptr %_17.i.i.i release, align 8, !dbg !2410, !noalias !2386
  %.val3.i.i = load i8, ptr %34, align 8, !dbg !2359, !range !2411, !alias.scope !2412, !noundef !29
  call void @llvm.dbg.value(metadata ptr undef, metadata !2415, metadata !DIExpression()), !dbg !2421
  call void @llvm.dbg.value(metadata i32 0, metadata !2423, metadata !DIExpression()), !dbg !2432
  call void @llvm.dbg.value(metadata i8 1, metadata !2431, metadata !DIExpression()), !dbg !2432
  call void @llvm.dbg.value(metadata i32 0, metadata !2447, metadata !DIExpression()), !dbg !2455
  call void @llvm.dbg.value(metadata i8 1, metadata !2454, metadata !DIExpression()), !dbg !2455
  call void @llvm.dbg.value(metadata ptr undef, metadata !2445, metadata !DIExpression()), !dbg !2457
  %_3.i.i.i68.i = getelementptr inbounds i8, ptr %_66.i, i64 4, !dbg !2458
  call void @llvm.dbg.value(metadata ptr @_ZN3std9panicking11panic_count18GLOBAL_PANIC_COUNT17h00e7dcd913cdfbe0E, metadata !2459, metadata !DIExpression()), !dbg !2464
  call void @llvm.dbg.value(metadata i8 0, metadata !2463, metadata !DIExpression()), !dbg !2464
  call void @llvm.dbg.value(metadata i8 1, metadata !2484, metadata !DIExpression()), !dbg !2493
  call void @llvm.dbg.value(metadata i8 0, metadata !2492, metadata !DIExpression()), !dbg !2493
  call void @llvm.dbg.value(metadata ptr %_3.i.i.i68.i, metadata !2481, metadata !DIExpression()), !dbg !2495
  call void @llvm.dbg.value(metadata ptr undef, metadata !2482, metadata !DIExpression()), !dbg !2495
  %_3.not.i.i.i.i.i = icmp eq i8 %.val3.i.i, 0, !dbg !2496
  br i1 %_3.not.i.i.i.i.i, label %bb1.i.i.i.i.i, label %_ZN3std4sync6poison4Flag4done17h6b62417d8d60c5ceE.exit.i.i.i.i, !dbg !2496

bb1.i.i.i.i.i:                                    ; preds = %bb7.i
  call void @llvm.dbg.value(metadata i8 0, metadata !2070, metadata !DIExpression()), !dbg !2497
  call void @llvm.dbg.value(metadata ptr @_ZN3std9panicking11panic_count18GLOBAL_PANIC_COUNT17h00e7dcd913cdfbe0E, metadata !2076, metadata !DIExpression()), !dbg !2497
  %56 = load atomic i64, ptr @_ZN3std9panicking11panic_count18GLOBAL_PANIC_COUNT17h00e7dcd913cdfbe0E monotonic, align 8, !dbg !2499, !noalias !2500
  %_7.i.i.i.i.i = and i64 %56, 9223372036854775807, !dbg !2503
  %57 = icmp eq i64 %_7.i.i.i.i.i, 0, !dbg !2503
  br i1 %57, label %_ZN3std4sync6poison4Flag4done17h6b62417d8d60c5ceE.exit.i.i.i.i, label %bb6.i.i.i.i69.i, !dbg !2503

bb6.i.i.i.i69.i:                                  ; preds = %bb1.i.i.i.i.i
; call std::panicking::panic_count::is_zero_slow_path
  %_6.i.i.i.i70.i40 = tail call noundef zeroext i1 @_ZN3std9panicking11panic_count17is_zero_slow_path17h24de30857bbd803cE(), !dbg !2504
  br i1 %_6.i.i.i.i70.i40, label %_ZN3std4sync6poison4Flag4done17h6b62417d8d60c5ceE.exit.i.i.i.i, label %bb2.i.i.i.i.i, !dbg !2505

bb2.i.i.i.i.i:                                    ; preds = %bb6.i.i.i.i69.i
  call void @llvm.dbg.value(metadata ptr %_3.i.i.i68.i, metadata !2491, metadata !DIExpression()), !dbg !2493
  call void @llvm.dbg.value(metadata i8 0, metadata !2506, metadata !DIExpression()), !dbg !2513
  call void @llvm.dbg.value(metadata ptr %_3.i.i.i68.i, metadata !2511, metadata !DIExpression()), !dbg !2513
  call void @llvm.dbg.value(metadata i8 1, metadata !2512, metadata !DIExpression()), !dbg !2513
  store atomic i8 1, ptr %_3.i.i.i68.i monotonic, align 4, !dbg !2515, !noalias !2500
  br label %_ZN3std4sync6poison4Flag4done17h6b62417d8d60c5ceE.exit.i.i.i.i, !dbg !2516

_ZN3std4sync6poison4Flag4done17h6b62417d8d60c5ceE.exit.i.i.i.i: ; preds = %bb2.i.i.i.i.i, %bb6.i.i.i.i69.i, %bb1.i.i.i.i.i, %bb7.i
  call void @llvm.dbg.value(metadata ptr %_66.i, metadata !2438, metadata !DIExpression()), !dbg !2517
  call void @llvm.dbg.value(metadata ptr %_66.i, metadata !2430, metadata !DIExpression()), !dbg !2432
  call void @llvm.dbg.value(metadata ptr %_66.i, metadata !2453, metadata !DIExpression()), !dbg !2455
  %58 = atomicrmw xchg ptr %_66.i, i32 0 release, align 4, !dbg !2518, !noalias !2500
  %_8.i.i.i.i = icmp eq i32 %58, 2, !dbg !2519
  br i1 %_8.i.i.i.i, label %bb2.i.i.i.i37, label %bb7, !dbg !2519

bb2.i.i.i.i37:                                    ; preds = %_ZN3std4sync6poison4Flag4done17h6b62417d8d60c5ceE.exit.i.i.i.i
; call std::sys::sync::mutex::futex::Mutex::wake
  tail call void @_ZN3std3sys4sync5mutex5futex5Mutex4wake17hc487312157454c34E(ptr noundef nonnull align 4 %_66.i), !dbg !2520
  br label %bb7

terminate.i:                                      ; preds = %cleanup.body.i
  %59 = landingpad { ptr, i32 }
          filter [0 x ptr] zeroinitializer
; call core::panicking::panic_in_cleanup
  tail call void @_ZN4core9panicking16panic_in_cleanup17h43442956f23e9cbeE() #24, !dbg !2521
  unreachable, !dbg !2521

bb7:                                              ; preds = %bb2.i.i.i.i37, %_ZN3std4sync6poison4Flag4done17h6b62417d8d60c5ceE.exit.i.i.i.i
  call void @llvm.lifetime.end.p0(i64 24, ptr nonnull %inner.i), !dbg !2235
  call void @llvm.lifetime.start.p0(i64 8, ptr nonnull %_47), !dbg !2522
  store i64 0, ptr %_47, align 8, !dbg !2523
  call void asm sideeffect inteldialect "lock not qword ptr [${0:q}]", "r,~{memory}"(ptr nonnull %_47) #25, !dbg !2524, !srcloc !2525
  call void @llvm.lifetime.end.p0(i64 8, ptr nonnull %_47), !dbg !2526
  call void @llvm.lifetime.end.p0(i64 8, ptr nonnull %inner), !dbg !2527
  ret void, !dbg !2528

bb8:                                              ; preds = %bb2.i.i42, %bb9, %cleanup.body.i
  %eh.lpad-body47 = phi { ptr, i32 } [ %45, %cleanup.body.i ], [ %lpad.thr_comm.split-lp, %bb9 ], [ %lpad.thr_comm.split-lp, %bb2.i.i42 ]
  resume { ptr, i32 } %eh.lpad-body47, !dbg !2529

bb9:                                              ; preds = %bb2.i.i.i34, %bb14
  %lpad.thr_comm.split-lp = landingpad { ptr, i32 }
          cleanup
  call void @llvm.dbg.value(metadata ptr %inner, metadata !1538, metadata !DIExpression()), !dbg !2530
  call void @llvm.dbg.value(metadata i64 1, metadata !1546, metadata !DIExpression()), !dbg !2532
  call void @llvm.dbg.value(metadata i8 1, metadata !1551, metadata !DIExpression()), !dbg !2532
  call void @llvm.dbg.value(metadata i64 1, metadata !1560, metadata !DIExpression()), !dbg !2535
  call void @llvm.dbg.value(metadata i8 1, metadata !1565, metadata !DIExpression()), !dbg !2535
  call void @llvm.dbg.value(metadata i8 2, metadata !1568, metadata !DIExpression()), !dbg !2537
  call void @llvm.dbg.value(metadata ptr %inner, metadata !1558, metadata !DIExpression()), !dbg !2539
  call void @llvm.dbg.value(metadata ptr %10, metadata !1550, metadata !DIExpression()), !dbg !2532
  call void @llvm.dbg.value(metadata ptr %10, metadata !1564, metadata !DIExpression()), !dbg !2535
  %60 = atomicrmw sub ptr %10, i64 1 release, align 8, !dbg !2540, !noalias !2541
  %61 = icmp eq i64 %60, 1, !dbg !2546
  br i1 %61, label %bb2.i.i42, label %bb8, !dbg !2546

bb2.i.i42:                                        ; preds = %bb9
  fence acquire, !dbg !2547
; call alloc::sync::Arc<T,A>::drop_slow
  call fastcc void @"_ZN5alloc4sync16Arc$LT$T$C$A$GT$9drop_slow17hf0cec7d60ef66820E"(ptr noalias noundef nonnull align 8 dereferenceable(8) %inner), !dbg !2548
  br label %bb8, !dbg !2548
}

; event_listener::sys::Inner<T>::notify
; Function Attrs: cold nonlazybind uwtable
define internal fastcc void @"_ZN14event_listener3sys14Inner$LT$T$GT$6notify17had02d77c0cadb8b8E"(ptr noalias nocapture noundef align 8 dereferenceable(40) %self, ptr noalias nocapture noundef align 8 dereferenceable(16) %notify) unnamed_addr #1 personality ptr @rust_eh_personality !dbg !2549 {
start:
  %task = alloca [16 x i8], align 8
  call void @llvm.dbg.declare(metadata ptr poison, metadata !2585, metadata !DIExpression(DW_OP_LLVM_fragment, 16, 176)), !dbg !2592
  call void @llvm.dbg.declare(metadata ptr poison, metadata !2602, metadata !DIExpression(DW_OP_LLVM_fragment, 16, 176)), !dbg !2615
  call void @llvm.dbg.declare(metadata ptr poison, metadata !2613, metadata !DIExpression(DW_OP_LLVM_fragment, 16, 176)), !dbg !2616
  %result.sroa.8 = alloca [23 x i8], align 1
  call void @llvm.dbg.declare(metadata ptr %result.sroa.8, metadata !2603, metadata !DIExpression(DW_OP_LLVM_fragment, 8, 184)), !dbg !2617
  tail call void @llvm.dbg.value(metadata ptr %self, metadata !2569, metadata !DIExpression()), !dbg !2618
  call void @llvm.dbg.declare(metadata ptr %notify, metadata !2570, metadata !DIExpression()), !dbg !2619
  call void @llvm.dbg.declare(metadata ptr undef, metadata !2581, metadata !DIExpression()), !dbg !2620
  call void @llvm.dbg.declare(metadata ptr %task, metadata !2583, metadata !DIExpression()), !dbg !2621
  %notify.val = load i64, ptr %notify, align 8, !dbg !2622, !noundef !29
  tail call void @llvm.dbg.value(metadata i64 %notify.val, metadata !2571, metadata !DIExpression()), !dbg !2623
  %0 = getelementptr inbounds i8, ptr %notify, i64 8, !dbg !2624
  %notify.val18 = load i8, ptr %0, align 8, !dbg !2624, !range !2411, !noundef !29
  tail call void @llvm.dbg.value(metadata ptr undef, metadata !2625, metadata !DIExpression()), !dbg !2638
  call void @llvm.dbg.declare(metadata ptr undef, metadata !2636, metadata !DIExpression()), !dbg !2640
  %_0.i.not = icmp eq i8 %notify.val18, 0, !dbg !2641
  tail call void @llvm.dbg.value(metadata i1 %_0.i.not, metadata !2573, metadata !DIExpression(DW_OP_LLVM_convert, 1, DW_ATE_unsigned, DW_OP_LLVM_convert, 8, DW_ATE_unsigned, DW_OP_stack_value)), !dbg !2642
  br i1 %_0.i.not, label %bb3, label %bb6, !dbg !2643

bb3:                                              ; preds = %start
  %1 = getelementptr inbounds i8, ptr %self, i64 32, !dbg !2644
  %_9 = load i64, ptr %1, align 8, !dbg !2644, !noundef !29
  %_7 = icmp ult i64 %notify.val, %_9, !dbg !2645
  br i1 %_7, label %bb16, label %bb5, !dbg !2645

bb6:                                              ; preds = %bb5, %start
  %n.sroa.0.0 = phi i64 [ %notify.val, %start ], [ %9, %bb5 ], !dbg !2618
  tail call void @llvm.dbg.value(metadata i64 %n.sroa.0.0, metadata !2571, metadata !DIExpression()), !dbg !2623
  tail call void @llvm.dbg.value(metadata i64 %n.sroa.0.0, metadata !2575, metadata !DIExpression()), !dbg !2646
  %_12.not21 = icmp eq i64 %n.sroa.0.0, 0, !dbg !2647
  br i1 %_12.not21, label %bb16, label %bb8.lr.ph, !dbg !2647

bb8.lr.ph:                                        ; preds = %bb6
  %2 = getelementptr inbounds i8, ptr %self, i64 16
  %_3.i = getelementptr inbounds i8, ptr %notify, i64 9
  %3 = getelementptr inbounds i8, ptr %self, i64 32
  %.promoted = load ptr, ptr %2, align 8
  %.promoted24 = load i64, ptr %3, align 8
  tail call void @llvm.dbg.value(metadata i64 %n.sroa.0.0, metadata !2571, metadata !DIExpression()), !dbg !2623
  tail call void @llvm.dbg.value(metadata i64 %n.sroa.0.0, metadata !2571, metadata !DIExpression(DW_OP_constu, 1, DW_OP_minus, DW_OP_stack_value)), !dbg !2623
  %4 = icmp eq ptr %.promoted, null, !dbg !2648
  br i1 %4, label %bb16, label %bb10.peel, !dbg !2649

bb10.peel:                                        ; preds = %bb8.lr.ph
  %_3.i.promoted = load i8, ptr %_3.i, align 1, !alias.scope !2650
  %5 = icmp eq i8 %_3.i.promoted, 0, !dbg !2657
  tail call void @llvm.dbg.value(metadata ptr %.promoted, metadata !2577, metadata !DIExpression()), !dbg !2689
  tail call void @llvm.dbg.value(metadata ptr %.promoted, metadata !2579, metadata !DIExpression()), !dbg !2690
  tail call void @llvm.dbg.value(metadata ptr %.promoted, metadata !2691, metadata !DIExpression(DW_OP_plus_uconst, 32, DW_OP_stack_value)), !dbg !2699
  tail call void @llvm.dbg.value(metadata ptr %.promoted, metadata !2701, metadata !DIExpression(DW_OP_plus_uconst, 32, DW_OP_stack_value)), !dbg !2709
  %_37.peel = getelementptr inbounds i8, ptr %.promoted, i64 32, !dbg !2711
  %_19.peel = load ptr, ptr %_37.peel, align 8, !dbg !2712, !noundef !29
  store ptr %_19.peel, ptr %2, align 8, !dbg !2713
  call void @llvm.dbg.value(metadata ptr %notify, metadata !2686, metadata !DIExpression()), !dbg !2714
  call void @llvm.dbg.declare(metadata ptr undef, metadata !2687, metadata !DIExpression()), !dbg !2715
  call void @llvm.dbg.value(metadata ptr %_3.i, metadata !2679, metadata !DIExpression()), !dbg !2716
  call void @llvm.dbg.value(metadata ptr @alloc_61fa7b58ed30eecb534df944972fe25f, metadata !2665, metadata !DIExpression(DW_OP_LLVM_fragment, 0, 64)), !dbg !2717
  call void @llvm.dbg.value(metadata i64 17, metadata !2665, metadata !DIExpression(DW_OP_LLVM_fragment, 64, 64)), !dbg !2717
  call void @llvm.dbg.value(metadata ptr %_3.i, metadata !2674, metadata !DIExpression(DW_OP_deref)), !dbg !2718
  call void @llvm.dbg.value(metadata ptr %_3.i, metadata !2719, metadata !DIExpression()), !dbg !2727
  call void @llvm.dbg.value(metadata ptr %_3.i, metadata !2729, metadata !DIExpression()), !dbg !2740
  call void @llvm.dbg.value(metadata ptr %_3.i, metadata !2742, metadata !DIExpression()), !dbg !2750
  call void @llvm.dbg.value(metadata i8 0, metadata !2735, metadata !DIExpression()), !dbg !2740
  call void @llvm.dbg.value(metadata i8 0, metadata !2749, metadata !DIExpression()), !dbg !2750
  call void @llvm.dbg.value(metadata i8 poison, metadata !2736, metadata !DIExpression(DW_OP_constu, 0, DW_OP_ne, DW_OP_LLVM_convert, 1, DW_ATE_unsigned, DW_OP_LLVM_convert, 8, DW_ATE_unsigned, DW_OP_stack_value)), !dbg !2752
  call void @llvm.dbg.value(metadata i8 poison, metadata !2664, metadata !DIExpression(DW_OP_constu, 0, DW_OP_ne, DW_OP_LLVM_convert, 1, DW_ATE_unsigned, DW_OP_LLVM_convert, 8, DW_ATE_unsigned, DW_OP_stack_value)), !dbg !2717
  store i8 0, ptr %_3.i, align 1, !dbg !2753, !alias.scope !2754
  br i1 %5, label %bb2.i.i.i, label %"_ZN110_$LT$event_listener..notify..GenericNotify$LT$F$GT$$u20$as$u20$event_listener..notify..NotificationPrivate$GT$8next_tag17had5dfb03cb70fe3fE.exit.peel", !dbg !2657

"_ZN110_$LT$event_listener..notify..GenericNotify$LT$F$GT$$u20$as$u20$event_listener..notify..NotificationPrivate$GT$8next_tag17had5dfb03cb70fe3fE.exit.peel": ; preds = %bb10.peel
  call void @llvm.lifetime.start.p0(i64 23, ptr nonnull %result.sroa.8), !dbg !2758
  tail call void @llvm.dbg.value(metadata ptr %.promoted, metadata !2612, metadata !DIExpression()), !dbg !2759
  tail call void @llvm.dbg.value(metadata i8 %notify.val18, metadata !2613, metadata !DIExpression(DW_OP_LLVM_fragment, 8, 8)), !dbg !2759
  tail call void @llvm.dbg.value(metadata i8 %notify.val18, metadata !2602, metadata !DIExpression(DW_OP_LLVM_fragment, 8, 8)), !dbg !2760
  tail call void @llvm.dbg.value(metadata i8 %notify.val18, metadata !2585, metadata !DIExpression(DW_OP_LLVM_fragment, 8, 8)), !dbg !2761
  tail call void @llvm.dbg.value(metadata i8 1, metadata !2613, metadata !DIExpression(DW_OP_LLVM_fragment, 0, 8)), !dbg !2759
  tail call void @llvm.dbg.value(metadata i8 1, metadata !2602, metadata !DIExpression(DW_OP_LLVM_fragment, 0, 8)), !dbg !2760
  tail call void @llvm.dbg.value(metadata i8 1, metadata !2585, metadata !DIExpression(DW_OP_LLVM_fragment, 0, 8)), !dbg !2761
  tail call void @llvm.dbg.value(metadata ptr %.promoted, metadata !2601, metadata !DIExpression()), !dbg !2760
  tail call void @llvm.dbg.value(metadata ptr %.promoted, metadata !2762, metadata !DIExpression()), !dbg !2769
  tail call void @llvm.dbg.value(metadata ptr %.promoted, metadata !2591, metadata !DIExpression()), !dbg !2761
  %result.sroa.0.0.copyload29 = load i8, ptr %.promoted, align 8, !dbg !2771
  tail call void @llvm.dbg.value(metadata i8 %result.sroa.0.0.copyload29, metadata !2603, metadata !DIExpression(DW_OP_LLVM_fragment, 0, 8)), !dbg !2772
  %result.sroa.8.0..promoted.sroa_idx = getelementptr inbounds i8, ptr %.promoted, i64 1, !dbg !2771
  call void @llvm.memcpy.p0.p0.i64(ptr noundef nonnull align 1 dereferenceable(23) %result.sroa.8, ptr noundef nonnull align 1 dereferenceable(23) %result.sroa.8.0..promoted.sroa_idx, i64 23, i1 false), !dbg !2771
  store i8 1, ptr %.promoted, align 8, !dbg !2773
  store i8 %notify.val18, ptr %result.sroa.8.0..promoted.sroa_idx, align 1, !dbg !2773
  %6 = icmp eq i8 %result.sroa.0.0.copyload29, 2, !dbg !2774
  br i1 %6, label %bb13.peel, label %bb19.peel, !dbg !2774

bb13.peel:                                        ; preds = %"_ZN110_$LT$event_listener..notify..GenericNotify$LT$F$GT$$u20$as$u20$event_listener..notify..NotificationPrivate$GT$8next_tag17had5dfb03cb70fe3fE.exit.peel"
  %result.sroa.8.8.sroa_idx30 = getelementptr inbounds i8, ptr %result.sroa.8, i64 7, !dbg !2621
  call void @llvm.memcpy.p0.p0.i64(ptr noundef nonnull align 8 dereferenceable(16) %task, ptr noundef nonnull align 1 dereferenceable(16) %result.sroa.8.8.sroa_idx30, i64 16, i1 false), !dbg !2621
; call event_listener::Task::wake
  call void @_ZN14event_listener4Task4wake17h3182e8faec5fbd01E(ptr noalias nocapture noundef nonnull readonly align 8 dereferenceable(16) %task), !dbg !2775
  br label %bb19.peel

bb19.peel:                                        ; preds = %bb13.peel, %"_ZN110_$LT$event_listener..notify..GenericNotify$LT$F$GT$$u20$as$u20$event_listener..notify..NotificationPrivate$GT$8next_tag17had5dfb03cb70fe3fE.exit.peel"
  call void @llvm.lifetime.end.p0(i64 23, ptr nonnull %result.sroa.8), !dbg !2776
  %7 = add i64 %.promoted24, 1, !dbg !2777
  store i64 %7, ptr %3, align 8, !dbg !2777
  tail call void @llvm.dbg.value(metadata i64 %n.sroa.0.0, metadata !2571, metadata !DIExpression(DW_OP_constu, 1, DW_OP_minus, DW_OP_stack_value)), !dbg !2623
  %_12.not.peel = icmp eq i64 %n.sroa.0.0, 1, !dbg !2647
  tail call void @llvm.dbg.value(metadata i64 %n.sroa.0.0, metadata !2571, metadata !DIExpression(DW_OP_constu, 1, DW_OP_minus, DW_OP_constu, 1, DW_OP_minus, DW_OP_stack_value)), !dbg !2623
  %8 = icmp eq ptr %_19.peel, null
  %or.cond = or i1 %_12.not.peel, %8, !dbg !2647
  br i1 %or.cond, label %bb16, label %bb2.i.i.i.loopexit, !dbg !2647

bb5:                                              ; preds = %bb3
  %9 = sub i64 %notify.val, %_9, !dbg !2778
  tail call void @llvm.dbg.value(metadata i64 %9, metadata !2571, metadata !DIExpression()), !dbg !2623
  br label %bb6, !dbg !2779

bb16:                                             ; preds = %bb8.lr.ph, %bb19.peel, %bb6, %bb3
  ret void, !dbg !2780

bb2.i.i.i.loopexit:                               ; preds = %bb19.peel
  tail call void @llvm.dbg.value(metadata ptr %_19.peel, metadata !2577, metadata !DIExpression()), !dbg !2689
  tail call void @llvm.dbg.value(metadata ptr %_19.peel, metadata !2579, metadata !DIExpression()), !dbg !2690
  tail call void @llvm.dbg.value(metadata ptr %_19.peel, metadata !2691, metadata !DIExpression(DW_OP_plus_uconst, 32, DW_OP_stack_value)), !dbg !2699
  tail call void @llvm.dbg.value(metadata ptr %_19.peel, metadata !2701, metadata !DIExpression(DW_OP_plus_uconst, 32, DW_OP_stack_value)), !dbg !2709
  %_37 = getelementptr inbounds i8, ptr %_19.peel, i64 32, !dbg !2711
  %_19 = load ptr, ptr %_37, align 8, !dbg !2712, !noundef !29
  store ptr %_19, ptr %2, align 8, !dbg !2713
  tail call void @llvm.experimental.noalias.scope.decl(metadata !2781), !dbg !2782
  call void @llvm.dbg.value(metadata ptr %notify, metadata !2686, metadata !DIExpression()), !dbg !2714
  call void @llvm.dbg.declare(metadata ptr undef, metadata !2687, metadata !DIExpression()), !dbg !2715
  tail call void @llvm.experimental.noalias.scope.decl(metadata !2783), !dbg !2784
  call void @llvm.dbg.value(metadata ptr %_3.i, metadata !2679, metadata !DIExpression()), !dbg !2716
  tail call void @llvm.experimental.noalias.scope.decl(metadata !2785), !dbg !2786
  call void @llvm.dbg.value(metadata ptr @alloc_61fa7b58ed30eecb534df944972fe25f, metadata !2665, metadata !DIExpression(DW_OP_LLVM_fragment, 0, 64)), !dbg !2717
  call void @llvm.dbg.value(metadata i64 17, metadata !2665, metadata !DIExpression(DW_OP_LLVM_fragment, 64, 64)), !dbg !2717
  call void @llvm.dbg.value(metadata ptr %_3.i, metadata !2674, metadata !DIExpression(DW_OP_deref)), !dbg !2718
  call void @llvm.dbg.value(metadata ptr %_3.i, metadata !2719, metadata !DIExpression()), !dbg !2727
  call void @llvm.dbg.value(metadata ptr %_3.i, metadata !2729, metadata !DIExpression()), !dbg !2740
  call void @llvm.dbg.value(metadata ptr %_3.i, metadata !2742, metadata !DIExpression()), !dbg !2750
  call void @llvm.dbg.value(metadata i8 0, metadata !2735, metadata !DIExpression()), !dbg !2740
  call void @llvm.dbg.value(metadata i8 0, metadata !2749, metadata !DIExpression()), !dbg !2750
  call void @llvm.dbg.value(metadata i8 poison, metadata !2736, metadata !DIExpression(DW_OP_constu, 0, DW_OP_ne, DW_OP_LLVM_convert, 1, DW_ATE_unsigned, DW_OP_LLVM_convert, 8, DW_ATE_unsigned, DW_OP_stack_value)), !dbg !2752
  call void @llvm.dbg.value(metadata i8 poison, metadata !2664, metadata !DIExpression(DW_OP_constu, 0, DW_OP_ne, DW_OP_LLVM_convert, 1, DW_ATE_unsigned, DW_OP_LLVM_convert, 8, DW_ATE_unsigned, DW_OP_stack_value)), !dbg !2717
  store i8 0, ptr %_3.i, align 1, !dbg !2753, !alias.scope !2650
  br label %bb2.i.i.i, !dbg !2787

bb2.i.i.i:                                        ; preds = %bb2.i.i.i.loopexit, %bb10.peel
; call core::option::expect_failed
  tail call void @_ZN4core6option13expect_failed17h28cbd671da1a9710E(ptr noalias noundef nonnull readonly align 1 @alloc_61fa7b58ed30eecb534df944972fe25f, i64 noundef 17, ptr noalias noundef nonnull readonly align 8 dereferenceable(24) @alloc_bc69fbb54932bc0e11d2dbae19078b51) #22, !dbg !2787, !noalias !2650
  unreachable, !dbg !2787
}

; event_listener::sys::Inner<T>::notify
; Function Attrs: cold nonlazybind uwtable
define internal fastcc void @"_ZN14event_listener3sys14Inner$LT$T$GT$6notify17hdd28bd09ca1169d3E"(ptr noalias nocapture noundef align 8 dereferenceable(40) %self, i64 noundef %0) unnamed_addr #1 personality ptr @rust_eh_personality !dbg !2788 {
start:
  %task = alloca [16 x i8], align 8
  call void @llvm.dbg.declare(metadata ptr poison, metadata !2815, metadata !DIExpression(DW_OP_LLVM_fragment, 16, 176)), !dbg !2820
  call void @llvm.dbg.declare(metadata ptr poison, metadata !2827, metadata !DIExpression(DW_OP_LLVM_fragment, 16, 176)), !dbg !2836
  call void @llvm.dbg.declare(metadata ptr poison, metadata !2834, metadata !DIExpression(DW_OP_LLVM_fragment, 16, 176)), !dbg !2837
  %result.sroa.4 = alloca [23 x i8], align 1
  call void @llvm.dbg.declare(metadata ptr %result.sroa.4, metadata !2828, metadata !DIExpression(DW_OP_LLVM_fragment, 8, 184)), !dbg !2838
  tail call void @llvm.dbg.value(metadata i64 %0, metadata !2800, metadata !DIExpression()), !dbg !2839
  tail call void @llvm.dbg.value(metadata ptr %self, metadata !2799, metadata !DIExpression()), !dbg !2839
  call void @llvm.dbg.declare(metadata ptr undef, metadata !2811, metadata !DIExpression()), !dbg !2840
  call void @llvm.dbg.declare(metadata ptr %task, metadata !2813, metadata !DIExpression()), !dbg !2841
  tail call void @llvm.dbg.value(metadata i64 %0, metadata !2801, metadata !DIExpression()), !dbg !2842
  tail call void @llvm.dbg.value(metadata i1 false, metadata !2803, metadata !DIExpression(DW_OP_LLVM_convert, 1, DW_ATE_unsigned, DW_OP_LLVM_convert, 8, DW_ATE_unsigned, DW_OP_stack_value)), !dbg !2843
  %1 = getelementptr inbounds i8, ptr %self, i64 32, !dbg !2844
  %_9 = load i64, ptr %1, align 8, !dbg !2844, !noundef !29
  %_7 = icmp ugt i64 %_9, %0, !dbg !2845
  br i1 %_7, label %bb16, label %bb5, !dbg !2845

bb5:                                              ; preds = %start
  %2 = sub i64 %0, %_9, !dbg !2846
  tail call void @llvm.dbg.value(metadata i64 %2, metadata !2801, metadata !DIExpression()), !dbg !2842
  tail call void @llvm.dbg.value(metadata i64 %2, metadata !2805, metadata !DIExpression()), !dbg !2847
  tail call void @llvm.dbg.value(metadata i64 %2, metadata !2801, metadata !DIExpression()), !dbg !2842
  %_12.not19 = icmp eq i64 %2, 0, !dbg !2848
  br i1 %_12.not19, label %bb16, label %bb8.lr.ph, !dbg !2848

bb8.lr.ph:                                        ; preds = %bb5
  %3 = getelementptr inbounds i8, ptr %self, i64 16
  %.promoted21 = load ptr, ptr %3, align 8
  %result.sroa.4.8.sroa_idx = getelementptr inbounds i8, ptr %result.sroa.4, i64 7
  br label %bb8, !dbg !2848

bb8:                                              ; preds = %bb8.lr.ph, %bb19
  %_1922 = phi ptr [ %.promoted21, %bb8.lr.ph ], [ %_19, %bb19 ]
  %n.sroa.0.120 = phi i64 [ %2, %bb8.lr.ph ], [ %5, %bb19 ]
  %4 = phi i64 [ %_9, %bb8.lr.ph ], [ %8, %bb19 ]
  tail call void @llvm.dbg.value(metadata i64 %n.sroa.0.120, metadata !2801, metadata !DIExpression()), !dbg !2842
  %5 = add i64 %n.sroa.0.120, -1, !dbg !2849
  tail call void @llvm.dbg.value(metadata i64 %5, metadata !2801, metadata !DIExpression()), !dbg !2842
  %6 = icmp eq ptr %_1922, null, !dbg !2850
  br i1 %6, label %bb16, label %bb10, !dbg !2851

bb16:                                             ; preds = %bb8, %bb19, %bb5, %start
  ret void, !dbg !2852

bb10:                                             ; preds = %bb8
  tail call void @llvm.dbg.value(metadata ptr %_1922, metadata !2807, metadata !DIExpression()), !dbg !2853
  tail call void @llvm.dbg.value(metadata ptr %_1922, metadata !2809, metadata !DIExpression()), !dbg !2854
  tail call void @llvm.dbg.value(metadata ptr %_1922, metadata !2855, metadata !DIExpression(DW_OP_plus_uconst, 32, DW_OP_stack_value)), !dbg !2859
  tail call void @llvm.dbg.value(metadata ptr %_1922, metadata !2861, metadata !DIExpression(DW_OP_plus_uconst, 32, DW_OP_stack_value)), !dbg !2865
  %_37 = getelementptr inbounds i8, ptr %_1922, i64 32, !dbg !2867
  %_19 = load ptr, ptr %_37, align 8, !dbg !2868, !noundef !29
  store ptr %_19, ptr %3, align 8, !dbg !2869
  call void @llvm.lifetime.start.p0(i64 23, ptr nonnull %result.sroa.4), !dbg !2870
  tail call void @llvm.dbg.value(metadata ptr %_1922, metadata !2833, metadata !DIExpression()), !dbg !2871
  tail call void @llvm.dbg.value(metadata i8 0, metadata !2834, metadata !DIExpression(DW_OP_LLVM_fragment, 8, 8)), !dbg !2871
  tail call void @llvm.dbg.value(metadata i8 0, metadata !2827, metadata !DIExpression(DW_OP_LLVM_fragment, 8, 8)), !dbg !2872
  tail call void @llvm.dbg.value(metadata i8 0, metadata !2815, metadata !DIExpression(DW_OP_LLVM_fragment, 8, 8)), !dbg !2873
  tail call void @llvm.dbg.value(metadata i8 1, metadata !2834, metadata !DIExpression(DW_OP_LLVM_fragment, 0, 8)), !dbg !2871
  tail call void @llvm.dbg.value(metadata i8 1, metadata !2827, metadata !DIExpression(DW_OP_LLVM_fragment, 0, 8)), !dbg !2872
  tail call void @llvm.dbg.value(metadata i8 1, metadata !2815, metadata !DIExpression(DW_OP_LLVM_fragment, 0, 8)), !dbg !2873
  tail call void @llvm.dbg.value(metadata ptr %_1922, metadata !2826, metadata !DIExpression()), !dbg !2872
  tail call void @llvm.dbg.value(metadata ptr %_1922, metadata !2874, metadata !DIExpression()), !dbg !2878
  tail call void @llvm.dbg.value(metadata ptr %_1922, metadata !2819, metadata !DIExpression()), !dbg !2873
  %result.sroa.0.0.copyload = load i8, ptr %_1922, align 8, !dbg !2880
  tail call void @llvm.dbg.value(metadata i8 %result.sroa.0.0.copyload, metadata !2828, metadata !DIExpression(DW_OP_LLVM_fragment, 0, 8)), !dbg !2881
  %result.sroa.4.0._1922.sroa_idx = getelementptr inbounds i8, ptr %_1922, i64 1, !dbg !2880
  call void @llvm.memcpy.p0.p0.i64(ptr noundef nonnull align 1 dereferenceable(23) %result.sroa.4, ptr noundef nonnull align 1 dereferenceable(23) %result.sroa.4.0._1922.sroa_idx, i64 23, i1 false), !dbg !2880
  store i8 1, ptr %_1922, align 8, !dbg !2882
  store i8 0, ptr %result.sroa.4.0._1922.sroa_idx, align 1, !dbg !2882
  %7 = icmp eq i8 %result.sroa.0.0.copyload, 2, !dbg !2883
  br i1 %7, label %bb13, label %bb19, !dbg !2883

bb13:                                             ; preds = %bb10
  call void @llvm.memcpy.p0.p0.i64(ptr noundef nonnull align 8 dereferenceable(16) %task, ptr noundef nonnull align 1 dereferenceable(16) %result.sroa.4.8.sroa_idx, i64 16, i1 false), !dbg !2841
; call event_listener::Task::wake
  call void @_ZN14event_listener4Task4wake17h3182e8faec5fbd01E(ptr noalias nocapture noundef nonnull readonly align 8 dereferenceable(16) %task), !dbg !2884
  br label %bb19

bb19:                                             ; preds = %bb10, %bb13
  call void @llvm.lifetime.end.p0(i64 23, ptr nonnull %result.sroa.4), !dbg !2885
  %8 = add i64 %4, 1, !dbg !2886
  store i64 %8, ptr %1, align 8, !dbg !2886
  tail call void @llvm.dbg.value(metadata i64 %5, metadata !2801, metadata !DIExpression()), !dbg !2842
  %_12.not = icmp eq i64 %5, 0, !dbg !2848
  br i1 %_12.not, label %bb16, label %bb8, !dbg !2848
}

; event_listener::sys::<impl event_listener::Inner<T>>::notify
; Function Attrs: cold nonlazybind uwtable
define internal fastcc void @"_ZN14event_listener3sys48_$LT$impl$u20$event_listener..Inner$LT$T$GT$$GT$6notify17hf504047093ab5187E"(ptr noundef nonnull align 8 %self, i64 noundef %notify) unnamed_addr #1 personality ptr @rust_eh_personality !dbg !2887 {
start:
  %_5 = alloca [24 x i8], align 8
  tail call void @llvm.dbg.value(metadata ptr %self, metadata !2893, metadata !DIExpression()), !dbg !2895
  tail call void @llvm.dbg.value(metadata i64 %notify, metadata !2894, metadata !DIExpression()), !dbg !2895
  call void @llvm.lifetime.start.p0(i64 24, ptr nonnull %_5), !dbg !2896
  tail call void @llvm.experimental.noalias.scope.decl(metadata !2897), !dbg !2896
  call void @llvm.dbg.value(metadata ptr %self, metadata !1869, metadata !DIExpression()), !dbg !2900
  call void @llvm.dbg.value(metadata i32 0, metadata !1877, metadata !DIExpression()), !dbg !2902
  call void @llvm.dbg.value(metadata i32 1, metadata !1901, metadata !DIExpression()), !dbg !2902
  call void @llvm.dbg.value(metadata i8 2, metadata !1902, metadata !DIExpression()), !dbg !2902
  call void @llvm.dbg.value(metadata i8 0, metadata !1903, metadata !DIExpression()), !dbg !2902
  call void @llvm.dbg.value(metadata ptr %self, metadata !1942, metadata !DIExpression()), !dbg !2906
  call void @llvm.dbg.value(metadata ptr %self, metadata !1914, metadata !DIExpression()), !dbg !2907
  call void @llvm.dbg.value(metadata ptr %self, metadata !1900, metadata !DIExpression()), !dbg !2902
  call void @llvm.dbg.value(metadata i8 2, metadata !1946, metadata !DIExpression()), !dbg !2908
  call void @llvm.dbg.value(metadata i8 0, metadata !1955, metadata !DIExpression()), !dbg !2908
  call void @llvm.dbg.value(metadata ptr %self, metadata !1952, metadata !DIExpression()), !dbg !2908
  call void @llvm.dbg.value(metadata i32 0, metadata !1953, metadata !DIExpression()), !dbg !2908
  call void @llvm.dbg.value(metadata i32 1, metadata !1954, metadata !DIExpression()), !dbg !2908
  %0 = cmpxchg ptr %self, i32 0, i32 1 acquire monotonic, align 4, !dbg !2910, !noalias !2911
  %1 = extractvalue { i32, i1 } %0, 1, !dbg !2910
  call void @llvm.dbg.value(metadata ptr undef, metadata !1965, metadata !DIExpression()), !dbg !2914
  call void @llvm.dbg.value(metadata ptr undef, metadata !1976, metadata !DIExpression()), !dbg !2916
  br i1 %1, label %bb2.i.i, label %bb4.i.i, !dbg !2918

bb4.i.i:                                          ; preds = %start
; call std::sys::sync::mutex::futex::Mutex::lock_contended
  tail call void @_ZN3std3sys4sync5mutex5futex5Mutex14lock_contended17h8fd9cbd50b365b92E(ptr noundef nonnull align 4 %self), !dbg !2919, !noalias !2911
  br label %bb2.i.i, !dbg !2919

bb2.i.i:                                          ; preds = %bb4.i.i, %start
  call void @llvm.dbg.value(metadata ptr %self, metadata !1986, metadata !DIExpression()), !dbg !2920
  call void @llvm.dbg.value(metadata ptr @_ZN3std9panicking11panic_count18GLOBAL_PANIC_COUNT17h00e7dcd913cdfbe0E, metadata !1992, metadata !DIExpression()), !dbg !2922
  call void @llvm.dbg.value(metadata i8 0, metadata !1999, metadata !DIExpression()), !dbg !2922
  call void @llvm.dbg.value(metadata i8 0, metadata !2049, metadata !DIExpression()), !dbg !2928
  call void @llvm.dbg.value(metadata ptr %self, metadata !2045, metadata !DIExpression(DW_OP_plus_uconst, 4, DW_OP_stack_value)), !dbg !2931
  call void @llvm.dbg.value(metadata ptr %self, metadata !2066, metadata !DIExpression(DW_OP_plus_uconst, 4, DW_OP_stack_value)), !dbg !2932
  call void @llvm.dbg.value(metadata i8 0, metadata !2070, metadata !DIExpression()), !dbg !2933
  call void @llvm.dbg.value(metadata ptr @_ZN3std9panicking11panic_count18GLOBAL_PANIC_COUNT17h00e7dcd913cdfbe0E, metadata !2076, metadata !DIExpression()), !dbg !2933
  %2 = load atomic i64, ptr @_ZN3std9panicking11panic_count18GLOBAL_PANIC_COUNT17h00e7dcd913cdfbe0E monotonic, align 8, !dbg !2935, !noalias !2936
  %_6.i.i.i.i = and i64 %2, 9223372036854775807, !dbg !2939
  %3 = icmp eq i64 %_6.i.i.i.i, 0, !dbg !2939
  br i1 %3, label %"_ZN14event_listener3sys48_$LT$impl$u20$event_listener..Inner$LT$T$GT$$GT$4lock17h08e0b66e1297c0afE.exit", label %bb6.i.i.i.i, !dbg !2939

bb6.i.i.i.i:                                      ; preds = %bb2.i.i
; call std::panicking::panic_count::is_zero_slow_path
  %4 = tail call noundef zeroext i1 @_ZN3std9panicking11panic_count17is_zero_slow_path17h24de30857bbd803cE(), !dbg !2940, !noalias !2936
  %5 = xor i1 %4, true, !dbg !2941
  %6 = zext i1 %5 to i8, !dbg !2942
  br label %"_ZN14event_listener3sys48_$LT$impl$u20$event_listener..Inner$LT$T$GT$$GT$4lock17h08e0b66e1297c0afE.exit", !dbg !2940

"_ZN14event_listener3sys48_$LT$impl$u20$event_listener..Inner$LT$T$GT$$GT$4lock17h08e0b66e1297c0afE.exit": ; preds = %bb2.i.i, %bb6.i.i.i.i
  %.val3.i = phi i8 [ %6, %bb6.i.i.i.i ], [ 0, %bb2.i.i ], !dbg !2943
  %_3.i.i.i = getelementptr inbounds i8, ptr %self, i64 4, !dbg !2944
  call void @llvm.dbg.value(metadata ptr %_3.i.i.i, metadata !2045, metadata !DIExpression()), !dbg !2931
  call void @llvm.dbg.value(metadata ptr %_3.i.i.i, metadata !2066, metadata !DIExpression()), !dbg !2932
  call void @llvm.dbg.value(metadata i8 %.val3.i, metadata !2046, metadata !DIExpression(DW_OP_LLVM_convert, 1, DW_ATE_unsigned, DW_OP_LLVM_convert, 8, DW_ATE_unsigned, DW_OP_stack_value)), !dbg !2945
  call void @llvm.dbg.value(metadata ptr %_3.i.i.i, metadata !2057, metadata !DIExpression()), !dbg !2928
  call void @llvm.dbg.value(metadata i8 0, metadata !2090, metadata !DIExpression()), !dbg !2946
  call void @llvm.dbg.value(metadata ptr %_3.i.i.i, metadata !2095, metadata !DIExpression()), !dbg !2946
  %7 = load atomic i8, ptr %_3.i.i.i monotonic, align 4, !dbg !2948, !noalias !2936
  %8 = getelementptr inbounds i8, ptr %_5, i64 8, !dbg !2949
  store ptr %self, ptr %8, align 8, !dbg !2949, !alias.scope !2897
  %9 = getelementptr inbounds i8, ptr %_5, i64 16, !dbg !2949
  store i8 %.val3.i, ptr %9, align 8, !dbg !2949, !alias.scope !2897
  store ptr %self, ptr %_5, align 8, !dbg !2949, !alias.scope !2897
  tail call void @llvm.dbg.value(metadata ptr %_5, metadata !2950, metadata !DIExpression()), !dbg !2954
  tail call void @llvm.dbg.value(metadata ptr %_5, metadata !2955, metadata !DIExpression(DW_OP_plus_uconst, 8, DW_OP_stack_value)), !dbg !2959
  tail call void @llvm.dbg.value(metadata ptr %self, metadata !2961, metadata !DIExpression(DW_OP_plus_uconst, 8, DW_OP_stack_value)), !dbg !2969
  %_12 = getelementptr inbounds i8, ptr %self, i64 8, !dbg !2971
; invoke event_listener::sys::Inner<T>::notify
  invoke fastcc void @"_ZN14event_listener3sys14Inner$LT$T$GT$6notify17hdd28bd09ca1169d3E"(ptr noalias noundef nonnull align 8 dereferenceable(40) %_12, i64 noundef %notify)
          to label %bb2 unwind label %cleanup6, !dbg !2896

cleanup6:                                         ; preds = %"_ZN14event_listener3sys48_$LT$impl$u20$event_listener..Inner$LT$T$GT$$GT$4lock17h08e0b66e1297c0afE.exit"
  %10 = landingpad { ptr, i32 }
          cleanup
; invoke core::ptr::drop_in_place<event_listener::sys::ListLock<()>>
  invoke fastcc void @"_ZN4core3ptr66drop_in_place$LT$event_listener..sys..ListLock$LT$$LP$$RP$$GT$$GT$17h4e75c2a18d201a8aE"(ptr noalias noundef nonnull align 8 dereferenceable(24) %_5) #23
          to label %bb5 unwind label %terminate, !dbg !2972

bb2:                                              ; preds = %"_ZN14event_listener3sys48_$LT$impl$u20$event_listener..Inner$LT$T$GT$$GT$4lock17h08e0b66e1297c0afE.exit"
  call void @llvm.dbg.value(metadata ptr %_5, metadata !2346, metadata !DIExpression()), !dbg !2973
  call void @llvm.dbg.value(metadata i8 1, metadata !2360, metadata !DIExpression()), !dbg !2975
  call void @llvm.dbg.value(metadata ptr %_5, metadata !2378, metadata !DIExpression()), !dbg !2978
  call void @llvm.dbg.value(metadata ptr %self, metadata !2379, metadata !DIExpression(DW_OP_plus_uconst, 8, DW_OP_stack_value)), !dbg !2979
  %11 = getelementptr inbounds i8, ptr %self, i64 40, !dbg !2980
  %_4.i.i = load i64, ptr %11, align 8, !dbg !2980, !noalias !2981, !noundef !29
  %12 = getelementptr inbounds i8, ptr %self, i64 32, !dbg !2986
  %_5.i.i = load i64, ptr %12, align 8, !dbg !2986, !noalias !2981, !noundef !29
  %_3.i.i = icmp ult i64 %_4.i.i, %_5.i.i, !dbg !2980
  %_4..i.i = select i1 %_3.i.i, i64 %_4.i.i, i64 -1, !dbg !2987
  call void @llvm.dbg.value(metadata i64 %_4..i.i, metadata !2381, metadata !DIExpression()), !dbg !2988
  call void @llvm.dbg.value(metadata ptr %self, metadata !2367, metadata !DIExpression(DW_OP_plus_uconst, 48, DW_OP_stack_value)), !dbg !2975
  call void @llvm.dbg.value(metadata i64 %_4..i.i, metadata !2368, metadata !DIExpression()), !dbg !2975
  call void @llvm.dbg.value(metadata ptr %self, metadata !2390, metadata !DIExpression(DW_OP_plus_uconst, 48, DW_OP_stack_value)), !dbg !2989
  %_17.i.i = getelementptr inbounds i8, ptr %self, i64 48, !dbg !2991
  call void @llvm.dbg.value(metadata i8 1, metadata !2401, metadata !DIExpression()), !dbg !2992
  call void @llvm.dbg.value(metadata ptr %_17.i.i, metadata !2406, metadata !DIExpression()), !dbg !2992
  call void @llvm.dbg.value(metadata i64 %_4..i.i, metadata !2407, metadata !DIExpression()), !dbg !2992
  store atomic i64 %_4..i.i, ptr %_17.i.i release, align 8, !dbg !2994, !noalias !2981
  call void @llvm.dbg.value(metadata ptr undef, metadata !2415, metadata !DIExpression()), !dbg !2995
  call void @llvm.dbg.value(metadata i32 0, metadata !2423, metadata !DIExpression()), !dbg !2997
  call void @llvm.dbg.value(metadata i8 1, metadata !2431, metadata !DIExpression()), !dbg !2997
  call void @llvm.dbg.value(metadata i32 0, metadata !2447, metadata !DIExpression()), !dbg !3001
  call void @llvm.dbg.value(metadata i8 1, metadata !2454, metadata !DIExpression()), !dbg !3001
  call void @llvm.dbg.value(metadata ptr undef, metadata !2445, metadata !DIExpression()), !dbg !3003
  call void @llvm.dbg.value(metadata ptr @_ZN3std9panicking11panic_count18GLOBAL_PANIC_COUNT17h00e7dcd913cdfbe0E, metadata !2459, metadata !DIExpression()), !dbg !3004
  call void @llvm.dbg.value(metadata i8 0, metadata !2463, metadata !DIExpression()), !dbg !3004
  call void @llvm.dbg.value(metadata i8 1, metadata !2484, metadata !DIExpression()), !dbg !3010
  call void @llvm.dbg.value(metadata i8 0, metadata !2492, metadata !DIExpression()), !dbg !3010
  call void @llvm.dbg.value(metadata ptr %_3.i.i.i, metadata !2481, metadata !DIExpression()), !dbg !3012
  call void @llvm.dbg.value(metadata ptr undef, metadata !2482, metadata !DIExpression()), !dbg !3012
  %_3.not.i.i.i.i = icmp eq i8 %.val3.i, 0, !dbg !3013
  br i1 %_3.not.i.i.i.i, label %bb1.i.i.i.i, label %_ZN3std4sync6poison4Flag4done17h6b62417d8d60c5ceE.exit.i.i.i, !dbg !3013

bb1.i.i.i.i:                                      ; preds = %bb2
  call void @llvm.dbg.value(metadata i8 0, metadata !2070, metadata !DIExpression()), !dbg !3014
  call void @llvm.dbg.value(metadata ptr @_ZN3std9panicking11panic_count18GLOBAL_PANIC_COUNT17h00e7dcd913cdfbe0E, metadata !2076, metadata !DIExpression()), !dbg !3014
  %13 = load atomic i64, ptr @_ZN3std9panicking11panic_count18GLOBAL_PANIC_COUNT17h00e7dcd913cdfbe0E monotonic, align 8, !dbg !3016, !noalias !3017
  %_7.i.i.i.i = and i64 %13, 9223372036854775807, !dbg !3020
  %14 = icmp eq i64 %_7.i.i.i.i, 0, !dbg !3020
  br i1 %14, label %_ZN3std4sync6poison4Flag4done17h6b62417d8d60c5ceE.exit.i.i.i, label %bb6.i.i.i.i9, !dbg !3020

bb6.i.i.i.i9:                                     ; preds = %bb1.i.i.i.i
; call std::panicking::panic_count::is_zero_slow_path
  %_6.i.i.i.i10 = tail call noundef zeroext i1 @_ZN3std9panicking11panic_count17is_zero_slow_path17h24de30857bbd803cE(), !dbg !3021, !noalias !3017
  br i1 %_6.i.i.i.i10, label %_ZN3std4sync6poison4Flag4done17h6b62417d8d60c5ceE.exit.i.i.i, label %bb2.i.i.i.i, !dbg !3022

bb2.i.i.i.i:                                      ; preds = %bb6.i.i.i.i9
  call void @llvm.dbg.value(metadata ptr %_3.i.i.i, metadata !2491, metadata !DIExpression()), !dbg !3010
  call void @llvm.dbg.value(metadata i8 0, metadata !2506, metadata !DIExpression()), !dbg !3023
  call void @llvm.dbg.value(metadata ptr %_3.i.i.i, metadata !2511, metadata !DIExpression()), !dbg !3023
  call void @llvm.dbg.value(metadata i8 1, metadata !2512, metadata !DIExpression()), !dbg !3023
  store atomic i8 1, ptr %_3.i.i.i monotonic, align 4, !dbg !3025, !noalias !3017
  br label %_ZN3std4sync6poison4Flag4done17h6b62417d8d60c5ceE.exit.i.i.i, !dbg !3026

_ZN3std4sync6poison4Flag4done17h6b62417d8d60c5ceE.exit.i.i.i: ; preds = %bb2.i.i.i.i, %bb6.i.i.i.i9, %bb1.i.i.i.i, %bb2
  call void @llvm.dbg.value(metadata ptr %self, metadata !2438, metadata !DIExpression()), !dbg !3027
  call void @llvm.dbg.value(metadata ptr %self, metadata !2430, metadata !DIExpression()), !dbg !2997
  call void @llvm.dbg.value(metadata ptr %self, metadata !2453, metadata !DIExpression()), !dbg !3001
  %15 = atomicrmw xchg ptr %self, i32 0 release, align 4, !dbg !3028, !noalias !3017
  %_8.i.i.i = icmp eq i32 %15, 2, !dbg !3029
  br i1 %_8.i.i.i, label %bb2.i.i.i, label %"_ZN4core3ptr66drop_in_place$LT$event_listener..sys..ListLock$LT$$LP$$RP$$GT$$GT$17h4e75c2a18d201a8aE.exit", !dbg !3029

bb2.i.i.i:                                        ; preds = %_ZN3std4sync6poison4Flag4done17h6b62417d8d60c5ceE.exit.i.i.i
; call std::sys::sync::mutex::futex::Mutex::wake
  tail call void @_ZN3std3sys4sync5mutex5futex5Mutex4wake17hc487312157454c34E(ptr noundef nonnull align 4 %self), !dbg !3030, !noalias !3017
  br label %"_ZN4core3ptr66drop_in_place$LT$event_listener..sys..ListLock$LT$$LP$$RP$$GT$$GT$17h4e75c2a18d201a8aE.exit", !dbg !3030

"_ZN4core3ptr66drop_in_place$LT$event_listener..sys..ListLock$LT$$LP$$RP$$GT$$GT$17h4e75c2a18d201a8aE.exit": ; preds = %_ZN3std4sync6poison4Flag4done17h6b62417d8d60c5ceE.exit.i.i.i, %bb2.i.i.i
  call void @llvm.lifetime.end.p0(i64 24, ptr nonnull %_5), !dbg !2972
  ret void, !dbg !3031

terminate:                                        ; preds = %cleanup6
  %16 = landingpad { ptr, i32 }
          filter [0 x ptr] zeroinitializer
; call core::panicking::panic_in_cleanup
  tail call void @_ZN4core9panicking16panic_in_cleanup17h43442956f23e9cbeE() #24, !dbg !3032
  unreachable, !dbg !3032

bb5:                                              ; preds = %cleanup6
  resume { ptr, i32 } %10, !dbg !3032
}

; event_listener::sys::<impl event_listener::Inner<T>>::remove
; Function Attrs: nonlazybind uwtable
define internal fastcc void @"_ZN14event_listener3sys48_$LT$impl$u20$event_listener..Inner$LT$T$GT$$GT$6remove17hd631f781ec612c77E"(ptr dead_on_unwind noalias nocapture noundef writable writeonly align 8 dereferenceable(24) %_0, ptr noundef nonnull align 8 %self, ptr noundef nonnull align 8 %listener, i1 noundef zeroext %propagate) unnamed_addr #0 personality ptr @rust_eh_personality !dbg !3033 {
start:
  %_47.i = alloca [16 x i8], align 8
  %state5.i = alloca [24 x i8], align 8
  %state.i = alloca [24 x i8], align 8
  %_6 = alloca [24 x i8], align 8
  tail call void @llvm.dbg.value(metadata ptr %self, metadata !3038, metadata !DIExpression()), !dbg !3041
  tail call void @llvm.dbg.value(metadata ptr %listener, metadata !3039, metadata !DIExpression()), !dbg !3041
  tail call void @llvm.dbg.value(metadata i1 %propagate, metadata !3040, metadata !DIExpression(DW_OP_LLVM_convert, 1, DW_ATE_unsigned, DW_OP_LLVM_convert, 8, DW_ATE_unsigned, DW_OP_stack_value)), !dbg !3041
  call void @llvm.lifetime.start.p0(i64 24, ptr nonnull %_6), !dbg !3042
  tail call void @llvm.experimental.noalias.scope.decl(metadata !3043), !dbg !3042
  call void @llvm.dbg.value(metadata ptr %self, metadata !1869, metadata !DIExpression()), !dbg !3046
  call void @llvm.dbg.value(metadata i32 0, metadata !1877, metadata !DIExpression()), !dbg !3048
  call void @llvm.dbg.value(metadata i32 1, metadata !1901, metadata !DIExpression()), !dbg !3048
  call void @llvm.dbg.value(metadata i8 2, metadata !1902, metadata !DIExpression()), !dbg !3048
  call void @llvm.dbg.value(metadata i8 0, metadata !1903, metadata !DIExpression()), !dbg !3048
  call void @llvm.dbg.value(metadata ptr %self, metadata !1942, metadata !DIExpression()), !dbg !3052
  call void @llvm.dbg.value(metadata ptr %self, metadata !1914, metadata !DIExpression()), !dbg !3053
  call void @llvm.dbg.value(metadata ptr %self, metadata !1900, metadata !DIExpression()), !dbg !3048
  call void @llvm.dbg.value(metadata i8 2, metadata !1946, metadata !DIExpression()), !dbg !3054
  call void @llvm.dbg.value(metadata i8 0, metadata !1955, metadata !DIExpression()), !dbg !3054
  call void @llvm.dbg.value(metadata ptr %self, metadata !1952, metadata !DIExpression()), !dbg !3054
  call void @llvm.dbg.value(metadata i32 0, metadata !1953, metadata !DIExpression()), !dbg !3054
  call void @llvm.dbg.value(metadata i32 1, metadata !1954, metadata !DIExpression()), !dbg !3054
  %0 = cmpxchg ptr %self, i32 0, i32 1 acquire monotonic, align 4, !dbg !3056, !noalias !3057
  %1 = extractvalue { i32, i1 } %0, 1, !dbg !3056
  call void @llvm.dbg.value(metadata ptr undef, metadata !1965, metadata !DIExpression()), !dbg !3060
  call void @llvm.dbg.value(metadata ptr undef, metadata !1976, metadata !DIExpression()), !dbg !3062
  br i1 %1, label %bb2.i.i, label %bb4.i.i, !dbg !3064

bb4.i.i:                                          ; preds = %start
; call std::sys::sync::mutex::futex::Mutex::lock_contended
  tail call void @_ZN3std3sys4sync5mutex5futex5Mutex14lock_contended17h8fd9cbd50b365b92E(ptr noundef nonnull align 4 %self), !dbg !3065, !noalias !3057
  br label %bb2.i.i, !dbg !3065

bb2.i.i:                                          ; preds = %bb4.i.i, %start
  call void @llvm.dbg.value(metadata ptr %self, metadata !1986, metadata !DIExpression()), !dbg !3066
  call void @llvm.dbg.value(metadata ptr @_ZN3std9panicking11panic_count18GLOBAL_PANIC_COUNT17h00e7dcd913cdfbe0E, metadata !1992, metadata !DIExpression()), !dbg !3068
  call void @llvm.dbg.value(metadata i8 0, metadata !1999, metadata !DIExpression()), !dbg !3068
  call void @llvm.dbg.value(metadata i8 0, metadata !2049, metadata !DIExpression()), !dbg !3074
  call void @llvm.dbg.value(metadata ptr %self, metadata !2045, metadata !DIExpression(DW_OP_plus_uconst, 4, DW_OP_stack_value)), !dbg !3077
  call void @llvm.dbg.value(metadata ptr %self, metadata !2066, metadata !DIExpression(DW_OP_plus_uconst, 4, DW_OP_stack_value)), !dbg !3078
  call void @llvm.dbg.value(metadata i8 0, metadata !2070, metadata !DIExpression()), !dbg !3079
  call void @llvm.dbg.value(metadata ptr @_ZN3std9panicking11panic_count18GLOBAL_PANIC_COUNT17h00e7dcd913cdfbe0E, metadata !2076, metadata !DIExpression()), !dbg !3079
  %2 = load atomic i64, ptr @_ZN3std9panicking11panic_count18GLOBAL_PANIC_COUNT17h00e7dcd913cdfbe0E monotonic, align 8, !dbg !3081, !noalias !3082
  %_6.i.i.i.i = and i64 %2, 9223372036854775807, !dbg !3085
  %3 = icmp eq i64 %_6.i.i.i.i, 0, !dbg !3085
  br i1 %3, label %"_ZN14event_listener3sys48_$LT$impl$u20$event_listener..Inner$LT$T$GT$$GT$4lock17h08e0b66e1297c0afE.exit", label %bb6.i.i.i.i, !dbg !3085

bb6.i.i.i.i:                                      ; preds = %bb2.i.i
; call std::panicking::panic_count::is_zero_slow_path
  %4 = tail call noundef zeroext i1 @_ZN3std9panicking11panic_count17is_zero_slow_path17h24de30857bbd803cE(), !dbg !3086, !noalias !3082
  %5 = xor i1 %4, true, !dbg !3087
  %6 = zext i1 %5 to i8, !dbg !3088
  br label %"_ZN14event_listener3sys48_$LT$impl$u20$event_listener..Inner$LT$T$GT$$GT$4lock17h08e0b66e1297c0afE.exit", !dbg !3086

"_ZN14event_listener3sys48_$LT$impl$u20$event_listener..Inner$LT$T$GT$$GT$4lock17h08e0b66e1297c0afE.exit": ; preds = %bb2.i.i, %bb6.i.i.i.i
  %_5.sroa.0.0.i.i.i.i = phi i8 [ %6, %bb6.i.i.i.i ], [ 0, %bb2.i.i ], !dbg !3089
  %_3.i.i.i = getelementptr inbounds i8, ptr %self, i64 4, !dbg !3090
  call void @llvm.dbg.value(metadata ptr %_3.i.i.i, metadata !2045, metadata !DIExpression()), !dbg !3077
  call void @llvm.dbg.value(metadata ptr %_3.i.i.i, metadata !2066, metadata !DIExpression()), !dbg !3078
  call void @llvm.dbg.value(metadata i8 %_5.sroa.0.0.i.i.i.i, metadata !2046, metadata !DIExpression(DW_OP_LLVM_convert, 1, DW_ATE_unsigned, DW_OP_LLVM_convert, 8, DW_ATE_unsigned, DW_OP_stack_value)), !dbg !3091
  call void @llvm.dbg.value(metadata ptr %_3.i.i.i, metadata !2057, metadata !DIExpression()), !dbg !3074
  call void @llvm.dbg.value(metadata i8 0, metadata !2090, metadata !DIExpression()), !dbg !3092
  call void @llvm.dbg.value(metadata ptr %_3.i.i.i, metadata !2095, metadata !DIExpression()), !dbg !3092
  %7 = load atomic i8, ptr %_3.i.i.i monotonic, align 4, !dbg !3094, !noalias !3082
  %8 = getelementptr inbounds i8, ptr %_6, i64 8, !dbg !3095
  store ptr %self, ptr %8, align 8, !dbg !3095, !alias.scope !3043
  %9 = getelementptr inbounds i8, ptr %_6, i64 16, !dbg !3095
  store i8 %_5.sroa.0.0.i.i.i.i, ptr %9, align 8, !dbg !3095, !alias.scope !3043
  store ptr %self, ptr %_6, align 8, !dbg !3095, !alias.scope !3043
  tail call void @llvm.dbg.value(metadata ptr %_6, metadata !3096, metadata !DIExpression()), !dbg !3100
  tail call void @llvm.dbg.value(metadata ptr %_6, metadata !3101, metadata !DIExpression(DW_OP_plus_uconst, 8, DW_OP_stack_value)), !dbg !3105
  tail call void @llvm.dbg.value(metadata ptr %self, metadata !3107, metadata !DIExpression(DW_OP_plus_uconst, 8, DW_OP_stack_value)), !dbg !3111
  %_11 = getelementptr inbounds i8, ptr %self, i64 8, !dbg !3113
  tail call void @llvm.experimental.noalias.scope.decl(metadata !3114), !dbg !3042
  tail call void @llvm.experimental.noalias.scope.decl(metadata !3117), !dbg !3042
  call void @llvm.dbg.declare(metadata ptr poison, metadata !3119, metadata !DIExpression(DW_OP_LLVM_fragment, 64, 320)), !dbg !3126
  call void @llvm.dbg.declare(metadata ptr poison, metadata !3135, metadata !DIExpression(DW_OP_LLVM_fragment, 64, 320)), !dbg !3195
  call void @llvm.dbg.declare(metadata ptr poison, metadata !3196, metadata !DIExpression(DW_OP_LLVM_fragment, 8, 184)), !dbg !3201
  call void @llvm.dbg.declare(metadata ptr poison, metadata !3208, metadata !DIExpression(DW_OP_LLVM_fragment, 8, 184)), !dbg !3211
  call void @llvm.dbg.declare(metadata ptr poison, metadata !3212, metadata !DIExpression(DW_OP_LLVM_fragment, 64, 320)), !dbg !3221
  call void @llvm.dbg.declare(metadata ptr poison, metadata !3136, metadata !DIExpression(DW_OP_LLVM_fragment, 64, 320)), !dbg !3223
  call void @llvm.dbg.declare(metadata ptr undef, metadata !3160, metadata !DIExpression()), !dbg !3224
  call void @llvm.dbg.declare(metadata ptr undef, metadata !3225, metadata !DIExpression()), !dbg !3232
  call void @llvm.dbg.value(metadata i64 1, metadata !3234, metadata !DIExpression()), !dbg !3243
  call void @llvm.dbg.value(metadata ptr %listener, metadata !3155, metadata !DIExpression()), !dbg !3245
  call void @llvm.dbg.value(metadata ptr %_11, metadata !3154, metadata !DIExpression()), !dbg !3245
  call void @llvm.dbg.value(metadata i1 %propagate, metadata !3156, metadata !DIExpression(DW_OP_LLVM_convert, 1, DW_ATE_unsigned, DW_OP_LLVM_convert, 8, DW_ATE_unsigned, DW_OP_stack_value)), !dbg !3245
  call void @llvm.dbg.declare(metadata ptr %state.i, metadata !3183, metadata !DIExpression()), !dbg !3246
  call void @llvm.dbg.declare(metadata ptr %state5.i, metadata !3185, metadata !DIExpression()), !dbg !3247
  call void @llvm.dbg.declare(metadata ptr %state5.i, metadata !3209, metadata !DIExpression()), !dbg !3248
  call void @llvm.dbg.declare(metadata ptr undef, metadata !3189, metadata !DIExpression()), !dbg !3249
  call void @llvm.dbg.value(metadata ptr %listener, metadata !3250, metadata !DIExpression()), !dbg !3272
  call void @llvm.dbg.value(metadata ptr %listener, metadata !3293, metadata !DIExpression()), !dbg !3297
  %_55.i = load i64, ptr %listener, align 8, !dbg !3298, !range !2114, !noalias !3299, !noundef !29
  %trunc.not.i = icmp eq i64 %_55.i, 0, !dbg !3300
  br i1 %trunc.not.i, label %bb26.i, label %bb27.i, !dbg !3300

bb26.i:                                           ; preds = %"_ZN14event_listener3sys48_$LT$impl$u20$event_listener..Inner$LT$T$GT$$GT$4lock17h08e0b66e1297c0afE.exit"
  store i8 4, ptr %_0, align 8, !dbg !3301, !alias.scope !3114, !noalias !3117
  br label %bb2, !dbg !3302

bb27.i:                                           ; preds = %"_ZN14event_listener3sys48_$LT$impl$u20$event_listener..Inner$LT$T$GT$$GT$4lock17h08e0b66e1297c0afE.exit"
  call void @llvm.dbg.value(metadata ptr %listener, metadata !3270, metadata !DIExpression(DW_OP_plus_uconst, 8, DW_OP_stack_value)), !dbg !3303
  %x11.i = getelementptr inbounds i8, ptr %listener, i64 8, !dbg !3304
  call void @llvm.dbg.value(metadata ptr %x11.i, metadata !3157, metadata !DIExpression()), !dbg !3305
  call void @llvm.dbg.value(metadata ptr %x11.i, metadata !3306, metadata !DIExpression(DW_OP_plus_uconst, 24, DW_OP_stack_value)), !dbg !3312
  call void @llvm.dbg.value(metadata ptr %x11.i, metadata !3314, metadata !DIExpression(DW_OP_plus_uconst, 24, DW_OP_stack_value)), !dbg !3324
  %_65.i = getelementptr inbounds i8, ptr %listener, i64 32, !dbg !3326
  %10 = load ptr, ptr %_65.i, align 8, !dbg !3327, !noalias !3299, !noundef !29
  call void @llvm.dbg.value(metadata ptr %10, metadata !3175, metadata !DIExpression()), !dbg !3328
  call void @llvm.dbg.value(metadata ptr %x11.i, metadata !3310, metadata !DIExpression(DW_OP_plus_uconst, 32, DW_OP_stack_value)), !dbg !3329
  call void @llvm.dbg.value(metadata ptr %x11.i, metadata !3318, metadata !DIExpression(DW_OP_plus_uconst, 32, DW_OP_stack_value)), !dbg !3331
  %_68.i = getelementptr inbounds i8, ptr %listener, i64 40, !dbg !3333
  %11 = load ptr, ptr %_68.i, align 8, !dbg !3334, !noalias !3299, !noundef !29
  call void @llvm.dbg.value(metadata ptr %11, metadata !3176, metadata !DIExpression()), !dbg !3335
  %12 = icmp eq ptr %10, null, !dbg !3336
  %_74.i = getelementptr inbounds i8, ptr %10, i64 32, !dbg !3337
  %_74.sink.i = select i1 %12, ptr %_11, ptr %_74.i, !dbg !3337
  store ptr %11, ptr %_74.sink.i, align 8, !dbg !3335, !noalias !3114
  %13 = icmp eq ptr %11, null, !dbg !3338
  %_80.i = getelementptr inbounds i8, ptr %11, i64 24, !dbg !3339
  %14 = getelementptr inbounds i8, ptr %self, i64 16, !dbg !3339
  %_80.sink.i = select i1 %13, ptr %14, ptr %_80.i, !dbg !3339
  store ptr %10, ptr %_80.sink.i, align 8, !dbg !3335, !noalias !3114
  %_27.i = getelementptr inbounds i8, ptr %self, i64 24, !dbg !3340
  %_27.val.i = load ptr, ptr %_27.i, align 8, !dbg !3340, !alias.scope !3117, !noalias !3114, !noundef !29
  call void @llvm.dbg.value(metadata ptr undef, metadata !3341, metadata !DIExpression()), !dbg !3352
  call void @llvm.dbg.value(metadata ptr undef, metadata !3347, metadata !DIExpression()), !dbg !3352
  %_0.sroa.0.0.i.i = icmp eq ptr %x11.i, %_27.val.i, !dbg !3354
  br i1 %_0.sroa.0.0.i.i, label %bb9.i, label %bb11.i, !dbg !3340

bb9.i:                                            ; preds = %bb27.i
  store ptr %11, ptr %_27.i, align 8, !dbg !3355, !alias.scope !3117, !noalias !3114
  br label %bb11.i, !dbg !3356

bb11.i:                                           ; preds = %bb9.i, %bb27.i
  call void @llvm.dbg.value(metadata ptr %listener, metadata !3144, metadata !DIExpression()), !dbg !3357
  call void @llvm.dbg.value(metadata ptr %listener, metadata !3134, metadata !DIExpression()), !dbg !3358
  call void @llvm.dbg.value(metadata ptr %listener, metadata !3359, metadata !DIExpression()), !dbg !3366
  call void @llvm.dbg.value(metadata ptr %listener, metadata !3125, metadata !DIExpression()), !dbg !3368
  call void @llvm.dbg.value(metadata i64 0, metadata !3135, metadata !DIExpression(DW_OP_LLVM_fragment, 0, 64)), !dbg !3358
  call void @llvm.dbg.value(metadata i64 0, metadata !3119, metadata !DIExpression(DW_OP_LLVM_fragment, 0, 64)), !dbg !3368
  %result.sroa.0.0.copyload.i = load i64, ptr %listener, align 8, !dbg !3369, !noalias !3299
  call void @llvm.dbg.value(metadata i64 %result.sroa.0.0.copyload.i, metadata !3136, metadata !DIExpression(DW_OP_LLVM_fragment, 0, 64)), !dbg !3370
  call void @llvm.dbg.value(metadata i64 %result.sroa.0.0.copyload.i, metadata !3212, metadata !DIExpression(DW_OP_LLVM_fragment, 0, 64)), !dbg !3371
  store i64 0, ptr %listener, align 8, !dbg !3372, !noalias !3299
  %switch58.i = icmp eq i64 %result.sroa.0.0.copyload.i, 0, !dbg !3373
  br i1 %switch58.i, label %bb28.i, label %bb29.i, !dbg !3373

bb28.i:                                           ; preds = %bb11.i
; invoke core::option::unwrap_failed
  invoke void @_ZN4core6option13unwrap_failed17h7a3768beeda72485E(ptr noalias noundef nonnull readonly align 8 dereferenceable(24) @alloc_3d92cf09fa06db555c254e898e4a2d80) #22
          to label %.noexc unwind label %cleanup, !dbg !3374

.noexc:                                           ; preds = %bb28.i
  unreachable, !dbg !3374

bb29.i:                                           ; preds = %bb11.i
  call void @llvm.lifetime.start.p0(i64 24, ptr nonnull %state.i), !dbg !3375, !noalias !3299
  call void @llvm.memcpy.p0.p0.i64(ptr noundef nonnull align 8 dereferenceable(24) %state.i, ptr noundef nonnull align 8 dereferenceable(24) %x11.i, i64 24, i1 false), !dbg !3376, !noalias !3299
  call void @llvm.dbg.value(metadata ptr %state.i, metadata !3377, metadata !DIExpression()), !dbg !3385
  %15 = load i8, ptr %state.i, align 8, !dbg !3387, !range !1056, !noalias !3299, !noundef !29
  switch i8 %15, label %bb15.i [
    i8 1, label %bb31.i
    i8 3, label %bb31.i
  ], !dbg !3388

bb31.i:                                           ; preds = %bb29.i, %bb29.i
  %16 = getelementptr inbounds i8, ptr %self, i64 40, !dbg !3389
  %17 = load i64, ptr %16, align 8, !dbg !3389, !alias.scope !3117, !noalias !3114, !noundef !29
  %18 = add i64 %17, -1, !dbg !3389
  store i64 %18, ptr %16, align 8, !dbg !3389, !alias.scope !3117, !noalias !3114
  br i1 %propagate, label %bb12.i, label %bb15.i, !dbg !3390

bb15.i:                                           ; preds = %bb19.i, %bb31.i, %bb29.i
  %.val3.i.pre = phi i8 [ %.val3.i.pre.pre, %bb19.i ], [ %_5.sroa.0.0.i.i.i.i, %bb31.i ], [ %_5.sroa.0.0.i.i.i.i, %bb29.i ], !dbg !3391
  %_8.i.i.pre = phi ptr [ %_8.i.i.pre.pre, %bb19.i ], [ %self, %bb31.i ], [ %self, %bb29.i ], !dbg !3393
  %_12.i.i.pre = phi ptr [ %_12.i.i.pre.pre, %bb19.i ], [ %self, %bb31.i ], [ %self, %bb29.i ], !dbg !3395
  %19 = getelementptr inbounds i8, ptr %self, i64 32, !dbg !3406
  %20 = load i64, ptr %19, align 8, !dbg !3406, !alias.scope !3117, !noalias !3114, !noundef !29
  %21 = add i64 %20, -1, !dbg !3406
  store i64 %21, ptr %19, align 8, !dbg !3406, !alias.scope !3117, !noalias !3114
  call void @llvm.memcpy.p0.p0.i64(ptr noundef nonnull align 8 dereferenceable(24) %_0, ptr noundef nonnull align 8 dereferenceable(24) %state.i, i64 24, i1 false), !dbg !3407, !noalias !3117
  call void @llvm.lifetime.end.p0(i64 24, ptr nonnull %state.i), !dbg !3408, !noalias !3299
  br label %bb2, !dbg !3302

bb12.i:                                           ; preds = %bb31.i
  call void @llvm.lifetime.start.p0(i64 24, ptr nonnull %state5.i), !dbg !3409, !noalias !3299
  call void @llvm.dbg.value(metadata ptr %state.i, metadata !3207, metadata !DIExpression()), !dbg !3410
  call void @llvm.dbg.value(metadata ptr %state.i, metadata !3411, metadata !DIExpression()), !dbg !3415
  call void @llvm.dbg.value(metadata ptr %state.i, metadata !3200, metadata !DIExpression()), !dbg !3417
  call void @llvm.dbg.value(metadata i8 3, metadata !3208, metadata !DIExpression(DW_OP_LLVM_fragment, 0, 8)), !dbg !3410
  call void @llvm.dbg.value(metadata i8 3, metadata !3196, metadata !DIExpression(DW_OP_LLVM_fragment, 0, 8)), !dbg !3417
  call void @llvm.memcpy.p0.p0.i64(ptr noundef nonnull align 8 dereferenceable(24) %state5.i, ptr noundef nonnull align 8 dereferenceable(24) %x11.i, i64 24, i1 false), !dbg !3418, !noalias !3299
  store i8 3, ptr %state.i, align 8, !dbg !3419, !noalias !3299
  %22 = load i8, ptr %state5.i, align 8, !dbg !3420, !range !1056, !noalias !3299, !noundef !29
  %23 = icmp eq i8 %22, 1, !dbg !3420
  br i1 %23, label %bb13.i, label %bb22.i, !dbg !3420

bb13.i:                                           ; preds = %bb12.i
  %24 = getelementptr inbounds i8, ptr %state5.i, i64 1, !dbg !3421
  %25 = load i8, ptr %24, align 1, !dbg !3421, !range !2411, !noalias !3299, !noundef !29
  call void @llvm.dbg.value(metadata i8 %25, metadata !3187, metadata !DIExpression(DW_OP_constu, 0, DW_OP_ne, DW_OP_LLVM_convert, 1, DW_ATE_unsigned, DW_OP_LLVM_convert, 8, DW_ATE_unsigned, DW_OP_stack_value)), !dbg !3422
  call void @llvm.dbg.value(metadata i8 %25, metadata !3241, metadata !DIExpression(DW_OP_constu, 0, DW_OP_ne, DW_OP_LLVM_convert, 1, DW_ATE_unsigned, DW_OP_LLVM_convert, 8, DW_ATE_unsigned, DW_OP_stack_value)), !dbg !3243
  call void @llvm.dbg.value(metadata i1 true, metadata !3190, metadata !DIExpression(DW_OP_LLVM_convert, 1, DW_ATE_unsigned, DW_OP_LLVM_convert, 8, DW_ATE_unsigned, DW_OP_stack_value)), !dbg !3423
  call void @llvm.dbg.value(metadata i1 true, metadata !3242, metadata !DIExpression(DW_OP_LLVM_convert, 1, DW_ATE_unsigned, DW_OP_LLVM_convert, 8, DW_ATE_unsigned, DW_OP_stack_value)), !dbg !3243
  call void @llvm.lifetime.start.p0(i64 16, ptr nonnull %_47.i), !dbg !3424, !noalias !3299
  store i64 1, ptr %_47.i, align 8, !dbg !3425, !noalias !3299
  %26 = getelementptr inbounds i8, ptr %_47.i, i64 8, !dbg !3425
  store i8 %25, ptr %26, align 8, !dbg !3425, !noalias !3299
  %27 = getelementptr inbounds i8, ptr %_47.i, i64 9, !dbg !3425
  store i8 1, ptr %27, align 1, !dbg !3425, !noalias !3299
; invoke event_listener::sys::Inner<T>::notify
  invoke fastcc void @"_ZN14event_listener3sys14Inner$LT$T$GT$6notify17had02d77c0cadb8b8E"(ptr noalias noundef nonnull align 8 dereferenceable(40) %_11, ptr noalias nocapture noundef nonnull align 8 dereferenceable(16) %_47.i)
          to label %bb14.i unwind label %cleanup.i, !dbg !3426

cleanup.i:                                        ; preds = %bb13.i
  %28 = landingpad { ptr, i32 }
          cleanup
  br label %bb17.i, !dbg !3427

bb14.i:                                           ; preds = %bb13.i
  call void @llvm.lifetime.end.p0(i64 16, ptr nonnull %_47.i), !dbg !3428, !noalias !3299
  br label %bb19.i, !dbg !3427

bb19.i:                                           ; preds = %bb2.i.i.i.i.i.i, %bb3.i.i.i, %bb2.i.i.i, %bb22.i, %bb14.i
  call void @llvm.lifetime.end.p0(i64 24, ptr nonnull %state5.i), !dbg !3427, !noalias !3299
  %_12.i.i.pre.pre = load ptr, ptr %8, align 8, !dbg !3395, !alias.scope !3429
  %_8.i.i.pre.pre = load ptr, ptr %_6, align 8, !dbg !3393, !alias.scope !3432
  %.val3.i.pre.pre = load i8, ptr %9, align 8, !dbg !3391, !range !2411, !alias.scope !3435
  br label %bb15.i, !dbg !3438

bb22.i:                                           ; preds = %bb12.i
  tail call void @llvm.experimental.noalias.scope.decl(metadata !3439), !dbg !3427
  call void @llvm.dbg.value(metadata ptr %state5.i, metadata !1064, metadata !DIExpression()), !dbg !3442
  %cond.i.i = icmp eq i8 %22, 2, !dbg !3444
  br i1 %cond.i.i, label %bb2.i.i6, label %bb19.i, !dbg !3444

bb2.i.i6:                                         ; preds = %bb22.i
  %29 = getelementptr inbounds i8, ptr %state5.i, i64 8, !dbg !3444
  tail call void @llvm.experimental.noalias.scope.decl(metadata !3445), !dbg !3444
  call void @llvm.dbg.value(metadata ptr %29, metadata !1077, metadata !DIExpression()), !dbg !3448
  %30 = load ptr, ptr %29, align 8, !dbg !3450, !alias.scope !3451, !noalias !3299, !noundef !29
  %.not.i.i.i = icmp eq ptr %30, null, !dbg !3450
  %31 = getelementptr inbounds i8, ptr %state5.i, i64 16, !dbg !3450
  br i1 %.not.i.i.i, label %bb3.i.i.i, label %bb2.i.i.i, !dbg !3450

bb2.i.i.i:                                        ; preds = %bb2.i.i6
  %_1.val1.i.i.i = load ptr, ptr %31, align 8, !dbg !3450, !alias.scope !3451, !noalias !3299, !noundef !29
  call void @llvm.dbg.value(metadata ptr undef, metadata !1089, metadata !DIExpression()), !dbg !3452
  call void @llvm.dbg.value(metadata ptr undef, metadata !1099, metadata !DIExpression()), !dbg !3454
  %32 = getelementptr inbounds i8, ptr %30, i64 24, !dbg !3456
  %_2.i.i.i.i.i = load ptr, ptr %32, align 8, !dbg !3456, !noalias !3457, !nonnull !29, !noundef !29
  invoke void %_2.i.i.i.i.i(ptr noundef %_1.val1.i.i.i)
          to label %bb19.i unwind label %cleanup48.i, !dbg !3456, !noalias !3299

bb3.i.i.i:                                        ; preds = %bb2.i.i6
  tail call void @llvm.experimental.noalias.scope.decl(metadata !3458), !dbg !3450
  call void @llvm.dbg.value(metadata ptr %31, metadata !1113, metadata !DIExpression()), !dbg !3461
  tail call void @llvm.experimental.noalias.scope.decl(metadata !3463), !dbg !3466
  call void @llvm.dbg.value(metadata ptr %31, metadata !1127, metadata !DIExpression()), !dbg !3467
  tail call void @llvm.experimental.noalias.scope.decl(metadata !3469), !dbg !3472
  call void @llvm.dbg.value(metadata i64 1, metadata !1141, metadata !DIExpression()), !dbg !3473
  call void @llvm.dbg.value(metadata i8 1, metadata !1151, metadata !DIExpression()), !dbg !3473
  call void @llvm.dbg.value(metadata i64 1, metadata !1162, metadata !DIExpression()), !dbg !3476
  call void @llvm.dbg.value(metadata i8 1, metadata !1170, metadata !DIExpression()), !dbg !3476
  call void @llvm.dbg.value(metadata i8 2, metadata !1173, metadata !DIExpression()), !dbg !3478
  call void @llvm.dbg.value(metadata ptr %31, metadata !1160, metadata !DIExpression()), !dbg !3480
  call void @llvm.dbg.value(metadata ptr %31, metadata !1182, metadata !DIExpression()), !dbg !3481
  call void @llvm.dbg.value(metadata ptr %31, metadata !1193, metadata !DIExpression()), !dbg !3483
  %self6.i.i.i.i.i.i = load ptr, ptr %31, align 8, !dbg !3485, !alias.scope !3486, !noalias !3299, !nonnull !29, !noundef !29
  call void @llvm.dbg.value(metadata ptr %self6.i.i.i.i.i.i, metadata !1150, metadata !DIExpression()), !dbg !3473
  call void @llvm.dbg.value(metadata ptr %self6.i.i.i.i.i.i, metadata !1169, metadata !DIExpression()), !dbg !3476
  %33 = atomicrmw sub ptr %self6.i.i.i.i.i.i, i64 1 release, align 8, !dbg !3487, !noalias !3488
  %34 = icmp eq i64 %33, 1, !dbg !3489
  br i1 %34, label %bb2.i.i.i.i.i.i, label %bb19.i, !dbg !3489

bb2.i.i.i.i.i.i:                                  ; preds = %bb3.i.i.i
  fence acquire, !dbg !3490
; call alloc::sync::Arc<T,A>::drop_slow
  call fastcc void @"_ZN5alloc4sync16Arc$LT$T$C$A$GT$9drop_slow17h5f7fc8bc35814c1fE"(ptr noalias noundef nonnull align 8 dereferenceable(8) %31), !dbg !3491, !noalias !3299
  br label %bb19.i, !dbg !3491

bb17.i:                                           ; preds = %cleanup48.i, %cleanup.i
  %.pn.i = phi { ptr, i32 } [ %36, %cleanup48.i ], [ %28, %cleanup.i ]
; invoke core::ptr::drop_in_place<event_listener::State<()>>
  invoke fastcc void @"_ZN4core3ptr58drop_in_place$LT$event_listener..State$LT$$LP$$RP$$GT$$GT$17hc8d6fd15a809a85cE"(ptr noalias noundef nonnull align 8 dereferenceable(24) %state.i) #23
          to label %cleanup.body unwind label %terminate.i, !dbg !3408, !noalias !3299

terminate.i:                                      ; preds = %bb17.i
  %35 = landingpad { ptr, i32 }
          filter [0 x ptr] zeroinitializer
; call core::panicking::panic_in_cleanup
  tail call void @_ZN4core9panicking16panic_in_cleanup17h43442956f23e9cbeE() #24, !dbg !3492, !noalias !3299
  unreachable, !dbg !3492

cleanup48.i:                                      ; preds = %bb2.i.i.i
  %36 = landingpad { ptr, i32 }
          cleanup
  br label %bb17.i

cleanup:                                          ; preds = %bb28.i
  %37 = landingpad { ptr, i32 }
          cleanup
  br label %cleanup.body, !dbg !3493

cleanup.body:                                     ; preds = %bb17.i, %cleanup
  %eh.lpad-body = phi { ptr, i32 } [ %37, %cleanup ], [ %.pn.i, %bb17.i ]
; invoke core::ptr::drop_in_place<event_listener::sys::ListLock<()>>
  invoke fastcc void @"_ZN4core3ptr66drop_in_place$LT$event_listener..sys..ListLock$LT$$LP$$RP$$GT$$GT$17h4e75c2a18d201a8aE"(ptr noalias noundef nonnull align 8 dereferenceable(24) %_6) #23
          to label %bb5 unwind label %terminate, !dbg !3493

bb2:                                              ; preds = %bb15.i, %bb26.i
  %.val3.i = phi i8 [ %.val3.i.pre, %bb15.i ], [ %_5.sroa.0.0.i.i.i.i, %bb26.i ], !dbg !3391
  %_8.i.i = phi ptr [ %_8.i.i.pre, %bb15.i ], [ %self, %bb26.i ], !dbg !3393
  %_12.i.i = phi ptr [ %_12.i.i.pre, %bb15.i ], [ %self, %bb26.i ], !dbg !3395
  tail call void @llvm.experimental.noalias.scope.decl(metadata !3429), !dbg !3493
  call void @llvm.dbg.value(metadata ptr %_6, metadata !2346, metadata !DIExpression()), !dbg !3494
  tail call void @llvm.experimental.noalias.scope.decl(metadata !3495), !dbg !3391
  call void @llvm.dbg.value(metadata i8 1, metadata !2360, metadata !DIExpression()), !dbg !3496
  call void @llvm.dbg.value(metadata ptr %_6, metadata !2378, metadata !DIExpression()), !dbg !3498
  call void @llvm.dbg.value(metadata ptr %_6, metadata !3404, metadata !DIExpression()), !dbg !3499
  call void @llvm.dbg.value(metadata ptr %_6, metadata !3399, metadata !DIExpression(DW_OP_plus_uconst, 8, DW_OP_stack_value)), !dbg !3500
  call void @llvm.dbg.value(metadata ptr %_12.i.i, metadata !2379, metadata !DIExpression(DW_OP_plus_uconst, 8, DW_OP_stack_value)), !dbg !3501
  %38 = getelementptr inbounds i8, ptr %_12.i.i, i64 40, !dbg !3502
  %_4.i.i = load i64, ptr %38, align 8, !dbg !3502, !noalias !3432, !noundef !29
  %39 = getelementptr inbounds i8, ptr %_12.i.i, i64 32, !dbg !3503
  %_5.i.i = load i64, ptr %39, align 8, !dbg !3503, !noalias !3432, !noundef !29
  %_3.i.i = icmp ult i64 %_4.i.i, %_5.i.i, !dbg !3502
  %_4..i.i = select i1 %_3.i.i, i64 %_4.i.i, i64 -1, !dbg !3504
  call void @llvm.dbg.value(metadata i64 %_4..i.i, metadata !2381, metadata !DIExpression()), !dbg !3505
  call void @llvm.dbg.value(metadata ptr %_8.i.i, metadata !2367, metadata !DIExpression(DW_OP_plus_uconst, 48, DW_OP_stack_value)), !dbg !3496
  call void @llvm.dbg.value(metadata i64 %_4..i.i, metadata !2368, metadata !DIExpression()), !dbg !3496
  call void @llvm.dbg.value(metadata ptr %_8.i.i, metadata !2390, metadata !DIExpression(DW_OP_plus_uconst, 48, DW_OP_stack_value)), !dbg !3506
  %_17.i.i = getelementptr inbounds i8, ptr %_8.i.i, i64 48, !dbg !3508
  call void @llvm.dbg.value(metadata i8 1, metadata !2401, metadata !DIExpression()), !dbg !3509
  call void @llvm.dbg.value(metadata ptr %_17.i.i, metadata !2406, metadata !DIExpression()), !dbg !3509
  call void @llvm.dbg.value(metadata i64 %_4..i.i, metadata !2407, metadata !DIExpression()), !dbg !3509
  store atomic i64 %_4..i.i, ptr %_17.i.i release, align 8, !dbg !3511, !noalias !3432
  call void @llvm.dbg.value(metadata ptr undef, metadata !2415, metadata !DIExpression()), !dbg !3512
  call void @llvm.dbg.value(metadata i32 0, metadata !2423, metadata !DIExpression()), !dbg !3514
  call void @llvm.dbg.value(metadata i8 1, metadata !2431, metadata !DIExpression()), !dbg !3514
  call void @llvm.dbg.value(metadata i32 0, metadata !2447, metadata !DIExpression()), !dbg !3518
  call void @llvm.dbg.value(metadata i8 1, metadata !2454, metadata !DIExpression()), !dbg !3518
  call void @llvm.dbg.value(metadata ptr undef, metadata !2445, metadata !DIExpression()), !dbg !3520
  %_3.i.i.i7 = getelementptr inbounds i8, ptr %_12.i.i, i64 4, !dbg !3521
  call void @llvm.dbg.value(metadata ptr @_ZN3std9panicking11panic_count18GLOBAL_PANIC_COUNT17h00e7dcd913cdfbe0E, metadata !2459, metadata !DIExpression()), !dbg !3522
  call void @llvm.dbg.value(metadata i8 0, metadata !2463, metadata !DIExpression()), !dbg !3522
  call void @llvm.dbg.value(metadata i8 1, metadata !2484, metadata !DIExpression()), !dbg !3528
  call void @llvm.dbg.value(metadata i8 0, metadata !2492, metadata !DIExpression()), !dbg !3528
  call void @llvm.dbg.value(metadata ptr %_3.i.i.i7, metadata !2481, metadata !DIExpression()), !dbg !3530
  call void @llvm.dbg.value(metadata ptr undef, metadata !2482, metadata !DIExpression()), !dbg !3530
  %_3.not.i.i.i.i = icmp eq i8 %.val3.i, 0, !dbg !3531
  br i1 %_3.not.i.i.i.i, label %bb1.i.i.i.i, label %_ZN3std4sync6poison4Flag4done17h6b62417d8d60c5ceE.exit.i.i.i, !dbg !3531

bb1.i.i.i.i:                                      ; preds = %bb2
  call void @llvm.dbg.value(metadata i8 0, metadata !2070, metadata !DIExpression()), !dbg !3532
  call void @llvm.dbg.value(metadata ptr @_ZN3std9panicking11panic_count18GLOBAL_PANIC_COUNT17h00e7dcd913cdfbe0E, metadata !2076, metadata !DIExpression()), !dbg !3532
  %40 = load atomic i64, ptr @_ZN3std9panicking11panic_count18GLOBAL_PANIC_COUNT17h00e7dcd913cdfbe0E monotonic, align 8, !dbg !3534, !noalias !3535
  %_7.i.i.i.i = and i64 %40, 9223372036854775807, !dbg !3538
  %41 = icmp eq i64 %_7.i.i.i.i, 0, !dbg !3538
  br i1 %41, label %_ZN3std4sync6poison4Flag4done17h6b62417d8d60c5ceE.exit.i.i.i, label %bb6.i.i.i.i9, !dbg !3538

bb6.i.i.i.i9:                                     ; preds = %bb1.i.i.i.i
; call std::panicking::panic_count::is_zero_slow_path
  %_6.i.i.i.i10 = tail call noundef zeroext i1 @_ZN3std9panicking11panic_count17is_zero_slow_path17h24de30857bbd803cE(), !dbg !3539, !noalias !3535
  br i1 %_6.i.i.i.i10, label %_ZN3std4sync6poison4Flag4done17h6b62417d8d60c5ceE.exit.i.i.i, label %bb2.i.i.i.i, !dbg !3540

bb2.i.i.i.i:                                      ; preds = %bb6.i.i.i.i9
  call void @llvm.dbg.value(metadata ptr %_3.i.i.i7, metadata !2491, metadata !DIExpression()), !dbg !3528
  call void @llvm.dbg.value(metadata i8 0, metadata !2506, metadata !DIExpression()), !dbg !3541
  call void @llvm.dbg.value(metadata ptr %_3.i.i.i7, metadata !2511, metadata !DIExpression()), !dbg !3541
  call void @llvm.dbg.value(metadata i8 1, metadata !2512, metadata !DIExpression()), !dbg !3541
  store atomic i8 1, ptr %_3.i.i.i7 monotonic, align 1, !dbg !3543, !noalias !3535
  br label %_ZN3std4sync6poison4Flag4done17h6b62417d8d60c5ceE.exit.i.i.i, !dbg !3544

_ZN3std4sync6poison4Flag4done17h6b62417d8d60c5ceE.exit.i.i.i: ; preds = %bb2.i.i.i.i, %bb6.i.i.i.i9, %bb1.i.i.i.i, %bb2
  call void @llvm.dbg.value(metadata ptr %_12.i.i, metadata !2438, metadata !DIExpression()), !dbg !3545
  call void @llvm.dbg.value(metadata ptr %_12.i.i, metadata !2430, metadata !DIExpression()), !dbg !3514
  call void @llvm.dbg.value(metadata ptr %_12.i.i, metadata !2453, metadata !DIExpression()), !dbg !3518
  %42 = atomicrmw xchg ptr %_12.i.i, i32 0 release, align 4, !dbg !3546, !noalias !3535
  %_8.i.i.i = icmp eq i32 %42, 2, !dbg !3547
  br i1 %_8.i.i.i, label %bb2.i.i.i8, label %"_ZN4core3ptr66drop_in_place$LT$event_listener..sys..ListLock$LT$$LP$$RP$$GT$$GT$17h4e75c2a18d201a8aE.exit", !dbg !3547

bb2.i.i.i8:                                       ; preds = %_ZN3std4sync6poison4Flag4done17h6b62417d8d60c5ceE.exit.i.i.i
; call std::sys::sync::mutex::futex::Mutex::wake
  tail call void @_ZN3std3sys4sync5mutex5futex5Mutex4wake17hc487312157454c34E(ptr noundef nonnull align 4 %_12.i.i), !dbg !3548, !noalias !3535
  br label %"_ZN4core3ptr66drop_in_place$LT$event_listener..sys..ListLock$LT$$LP$$RP$$GT$$GT$17h4e75c2a18d201a8aE.exit", !dbg !3548

"_ZN4core3ptr66drop_in_place$LT$event_listener..sys..ListLock$LT$$LP$$RP$$GT$$GT$17h4e75c2a18d201a8aE.exit": ; preds = %_ZN3std4sync6poison4Flag4done17h6b62417d8d60c5ceE.exit.i.i.i, %bb2.i.i.i8
  call void @llvm.lifetime.end.p0(i64 24, ptr nonnull %_6), !dbg !3493
  ret void, !dbg !3549

terminate:                                        ; preds = %cleanup.body
  %43 = landingpad { ptr, i32 }
          filter [0 x ptr] zeroinitializer
; call core::panicking::panic_in_cleanup
  tail call void @_ZN4core9panicking16panic_in_cleanup17h43442956f23e9cbeE() #24, !dbg !3550
  unreachable, !dbg !3550

bb5:                                              ; preds = %cleanup.body
  resume { ptr, i32 } %eh.lpad-body, !dbg !3550
}

; event_listener::sys::<impl event_listener::Inner<T>>::register
; Function Attrs: nonlazybind uwtable
define internal fastcc noundef i8 @"_ZN14event_listener3sys48_$LT$impl$u20$event_listener..Inner$LT$T$GT$$GT$8register17h7ff6ebfcfc68a8f2E"(ptr noundef nonnull align 8 %self, ptr noundef nonnull align 8 %0, i64 noundef %task.0, ptr noundef %task.1) unnamed_addr #0 personality ptr @rust_eh_personality !dbg !3551 {
start:
  call void @llvm.dbg.declare(metadata ptr poison, metadata !3183, metadata !DIExpression(DW_OP_LLVM_fragment, 8, 184)), !dbg !3571
  %result6 = alloca [24 x i8], align 8
  %result4 = alloca [24 x i8], align 8
  %_33 = alloca [16 x i8], align 8
  %val3.sroa.2 = alloca [23 x i8], align 1
  call void @llvm.dbg.declare(metadata ptr %val3.sroa.2, metadata !3573, metadata !DIExpression(DW_OP_LLVM_fragment, 8, 184)), !dbg !3584
  call void @llvm.dbg.declare(metadata ptr %val3.sroa.2, metadata !3601, metadata !DIExpression(DW_OP_LLVM_fragment, 8, 184)), !dbg !3628
  call void @llvm.dbg.declare(metadata ptr %val3.sroa.2, metadata !3614, metadata !DIExpression(DW_OP_LLVM_fragment, 8, 184)), !dbg !3629
  call void @llvm.dbg.declare(metadata ptr %val3.sroa.2, metadata !3626, metadata !DIExpression(DW_OP_LLVM_fragment, 8, 184)), !dbg !3630
  %_27 = alloca [16 x i8], align 8
  %val2.sroa.4 = alloca [23 x i8], align 1
  call void @llvm.dbg.declare(metadata ptr %val2.sroa.4, metadata !3582, metadata !DIExpression(DW_OP_LLVM_fragment, 8, 184)), !dbg !3631
  call void @llvm.dbg.declare(metadata ptr %val2.sroa.4, metadata !3597, metadata !DIExpression(DW_OP_LLVM_fragment, 8, 184)), !dbg !3636
  call void @llvm.dbg.declare(metadata ptr %val2.sroa.4, metadata !3612, metadata !DIExpression(DW_OP_LLVM_fragment, 8, 184)), !dbg !3637
  call void @llvm.dbg.declare(metadata ptr %val2.sroa.4, metadata !3624, metadata !DIExpression(DW_OP_LLVM_fragment, 8, 184)), !dbg !3638
  %other_task = alloca [16 x i8], align 8
  %_19 = alloca [24 x i8], align 8
  call void @llvm.dbg.declare(metadata ptr poison, metadata !3579, metadata !DIExpression(DW_OP_LLVM_fragment, 8, 184)), !dbg !3639
  call void @llvm.dbg.declare(metadata ptr poison, metadata !3592, metadata !DIExpression(DW_OP_LLVM_fragment, 8, 184)), !dbg !3643
  call void @llvm.dbg.declare(metadata ptr poison, metadata !3609, metadata !DIExpression(DW_OP_LLVM_fragment, 8, 184)), !dbg !3644
  %result = alloca [24 x i8], align 8
  %inner = alloca [24 x i8], align 8
  tail call void @llvm.dbg.value(metadata ptr %0, metadata !3557, metadata !DIExpression()), !dbg !3645
  tail call void @llvm.dbg.value(metadata ptr %self, metadata !3556, metadata !DIExpression()), !dbg !3645
  tail call void @llvm.dbg.value(metadata i64 %task.0, metadata !3558, metadata !DIExpression(DW_OP_LLVM_fragment, 0, 64)), !dbg !3645
  tail call void @llvm.dbg.value(metadata ptr %task.1, metadata !3558, metadata !DIExpression(DW_OP_LLVM_fragment, 64, 64)), !dbg !3645
  call void @llvm.dbg.declare(metadata ptr %inner, metadata !3559, metadata !DIExpression()), !dbg !3646
  call void @llvm.dbg.declare(metadata ptr %result, metadata !3593, metadata !DIExpression()), !dbg !3647
  call void @llvm.dbg.declare(metadata ptr undef, metadata !3567, metadata !DIExpression()), !dbg !3648
  call void @llvm.dbg.declare(metadata ptr %other_task, metadata !3569, metadata !DIExpression()), !dbg !3649
  call void @llvm.dbg.declare(metadata ptr %result4, metadata !3598, metadata !DIExpression()), !dbg !3650
  call void @llvm.dbg.declare(metadata ptr %result6, metadata !3602, metadata !DIExpression()), !dbg !3651
  call void @llvm.lifetime.start.p0(i64 24, ptr nonnull %inner), !dbg !3652
  tail call void @llvm.experimental.noalias.scope.decl(metadata !3653), !dbg !3656
  call void @llvm.dbg.value(metadata ptr %self, metadata !1869, metadata !DIExpression()), !dbg !3657
  call void @llvm.dbg.value(metadata i32 0, metadata !1877, metadata !DIExpression()), !dbg !3659
  call void @llvm.dbg.value(metadata i32 1, metadata !1901, metadata !DIExpression()), !dbg !3659
  call void @llvm.dbg.value(metadata i8 2, metadata !1902, metadata !DIExpression()), !dbg !3659
  call void @llvm.dbg.value(metadata i8 0, metadata !1903, metadata !DIExpression()), !dbg !3659
  call void @llvm.dbg.value(metadata ptr %self, metadata !1942, metadata !DIExpression()), !dbg !3663
  call void @llvm.dbg.value(metadata ptr %self, metadata !1914, metadata !DIExpression()), !dbg !3664
  call void @llvm.dbg.value(metadata ptr %self, metadata !1900, metadata !DIExpression()), !dbg !3659
  call void @llvm.dbg.value(metadata i8 2, metadata !1946, metadata !DIExpression()), !dbg !3665
  call void @llvm.dbg.value(metadata i8 0, metadata !1955, metadata !DIExpression()), !dbg !3665
  call void @llvm.dbg.value(metadata ptr %self, metadata !1952, metadata !DIExpression()), !dbg !3665
  call void @llvm.dbg.value(metadata i32 0, metadata !1953, metadata !DIExpression()), !dbg !3665
  call void @llvm.dbg.value(metadata i32 1, metadata !1954, metadata !DIExpression()), !dbg !3665
  %1 = cmpxchg ptr %self, i32 0, i32 1 acquire monotonic, align 4, !dbg !3667, !noalias !3668
  %2 = extractvalue { i32, i1 } %1, 1, !dbg !3667
  call void @llvm.dbg.value(metadata ptr undef, metadata !1965, metadata !DIExpression()), !dbg !3671
  call void @llvm.dbg.value(metadata ptr undef, metadata !1976, metadata !DIExpression()), !dbg !3673
  br i1 %2, label %bb2.i.i, label %bb4.i.i, !dbg !3675

bb4.i.i:                                          ; preds = %start
; call std::sys::sync::mutex::futex::Mutex::lock_contended
  tail call void @_ZN3std3sys4sync5mutex5futex5Mutex14lock_contended17h8fd9cbd50b365b92E(ptr noundef nonnull align 4 %self), !dbg !3676, !noalias !3668
  br label %bb2.i.i, !dbg !3676

bb2.i.i:                                          ; preds = %bb4.i.i, %start
  call void @llvm.dbg.value(metadata ptr %self, metadata !1986, metadata !DIExpression()), !dbg !3677
  call void @llvm.dbg.value(metadata ptr @_ZN3std9panicking11panic_count18GLOBAL_PANIC_COUNT17h00e7dcd913cdfbe0E, metadata !1992, metadata !DIExpression()), !dbg !3679
  call void @llvm.dbg.value(metadata i8 0, metadata !1999, metadata !DIExpression()), !dbg !3679
  call void @llvm.dbg.value(metadata i8 0, metadata !2049, metadata !DIExpression()), !dbg !3685
  call void @llvm.dbg.value(metadata ptr %self, metadata !2045, metadata !DIExpression(DW_OP_plus_uconst, 4, DW_OP_stack_value)), !dbg !3688
  call void @llvm.dbg.value(metadata ptr %self, metadata !2066, metadata !DIExpression(DW_OP_plus_uconst, 4, DW_OP_stack_value)), !dbg !3689
  call void @llvm.dbg.value(metadata i8 0, metadata !2070, metadata !DIExpression()), !dbg !3690
  call void @llvm.dbg.value(metadata ptr @_ZN3std9panicking11panic_count18GLOBAL_PANIC_COUNT17h00e7dcd913cdfbe0E, metadata !2076, metadata !DIExpression()), !dbg !3690
  %3 = load atomic i64, ptr @_ZN3std9panicking11panic_count18GLOBAL_PANIC_COUNT17h00e7dcd913cdfbe0E monotonic, align 8, !dbg !3692, !noalias !3693
  %_6.i.i.i.i = and i64 %3, 9223372036854775807, !dbg !3696
  %4 = icmp eq i64 %_6.i.i.i.i, 0, !dbg !3696
  br i1 %4, label %"_ZN14event_listener3sys48_$LT$impl$u20$event_listener..Inner$LT$T$GT$$GT$4lock17h08e0b66e1297c0afE.exit", label %bb6.i.i.i.i, !dbg !3696

bb6.i.i.i.i:                                      ; preds = %bb2.i.i
; call std::panicking::panic_count::is_zero_slow_path
  %5 = tail call noundef zeroext i1 @_ZN3std9panicking11panic_count17is_zero_slow_path17h24de30857bbd803cE(), !dbg !3697, !noalias !3693
  %6 = xor i1 %5, true, !dbg !3698
  %7 = zext i1 %6 to i8, !dbg !3699
  br label %"_ZN14event_listener3sys48_$LT$impl$u20$event_listener..Inner$LT$T$GT$$GT$4lock17h08e0b66e1297c0afE.exit", !dbg !3697

"_ZN14event_listener3sys48_$LT$impl$u20$event_listener..Inner$LT$T$GT$$GT$4lock17h08e0b66e1297c0afE.exit": ; preds = %bb2.i.i, %bb6.i.i.i.i
  %.val3.i = phi i8 [ %7, %bb6.i.i.i.i ], [ 0, %bb2.i.i ], !dbg !3700
  %_3.i.i.i = getelementptr inbounds i8, ptr %self, i64 4, !dbg !3701
  call void @llvm.dbg.value(metadata ptr %_3.i.i.i, metadata !2045, metadata !DIExpression()), !dbg !3688
  call void @llvm.dbg.value(metadata ptr %_3.i.i.i, metadata !2066, metadata !DIExpression()), !dbg !3689
  call void @llvm.dbg.value(metadata i8 %.val3.i, metadata !2046, metadata !DIExpression(DW_OP_LLVM_convert, 1, DW_ATE_unsigned, DW_OP_LLVM_convert, 8, DW_ATE_unsigned, DW_OP_stack_value)), !dbg !3702
  call void @llvm.dbg.value(metadata ptr %_3.i.i.i, metadata !2057, metadata !DIExpression()), !dbg !3685
  call void @llvm.dbg.value(metadata i8 0, metadata !2090, metadata !DIExpression()), !dbg !3703
  call void @llvm.dbg.value(metadata ptr %_3.i.i.i, metadata !2095, metadata !DIExpression()), !dbg !3703
  %8 = load atomic i8, ptr %_3.i.i.i monotonic, align 4, !dbg !3705, !noalias !3693
  %9 = getelementptr inbounds i8, ptr %inner, i64 8, !dbg !3706
  store ptr %self, ptr %9, align 8, !dbg !3706, !alias.scope !3653
  %10 = getelementptr inbounds i8, ptr %inner, i64 16, !dbg !3706
  store i8 %.val3.i, ptr %10, align 8, !dbg !3706, !alias.scope !3653
  store ptr %self, ptr %inner, align 8, !dbg !3706, !alias.scope !3653
  tail call void @llvm.dbg.value(metadata ptr %0, metadata !3707, metadata !DIExpression()), !dbg !3713
  tail call void @llvm.dbg.value(metadata ptr %0, metadata !3718, metadata !DIExpression()), !dbg !3722
  %_42 = load i64, ptr %0, align 8, !dbg !3723, !range !2114, !noundef !29
  %trunc.not = icmp eq i64 %_42, 0, !dbg !3724
  br i1 %trunc.not, label %bb34, label %bb35, !dbg !3724

bb34:                                             ; preds = %"_ZN14event_listener3sys48_$LT$impl$u20$event_listener..Inner$LT$T$GT$$GT$4lock17h08e0b66e1297c0afE.exit"
  call void @llvm.dbg.value(metadata ptr %inner, metadata !2346, metadata !DIExpression()), !dbg !3725
  call void @llvm.dbg.value(metadata i8 1, metadata !2360, metadata !DIExpression()), !dbg !3727
  call void @llvm.dbg.value(metadata ptr %inner, metadata !2378, metadata !DIExpression()), !dbg !3730
  call void @llvm.dbg.value(metadata ptr %inner, metadata !3404, metadata !DIExpression()), !dbg !3731
  call void @llvm.dbg.value(metadata ptr %inner, metadata !3399, metadata !DIExpression(DW_OP_plus_uconst, 8, DW_OP_stack_value)), !dbg !3733
  call void @llvm.dbg.value(metadata ptr %self, metadata !2379, metadata !DIExpression(DW_OP_plus_uconst, 8, DW_OP_stack_value)), !dbg !3735
  %11 = getelementptr inbounds i8, ptr %self, i64 40, !dbg !3736
  %_4.i.i = load i64, ptr %11, align 8, !dbg !3736, !noalias !3737, !noundef !29
  %12 = getelementptr inbounds i8, ptr %self, i64 32, !dbg !3742
  %_5.i.i = load i64, ptr %12, align 8, !dbg !3742, !noalias !3737, !noundef !29
  %_3.i.i = icmp ult i64 %_4.i.i, %_5.i.i, !dbg !3736
  %_4..i.i = select i1 %_3.i.i, i64 %_4.i.i, i64 -1, !dbg !3743
  call void @llvm.dbg.value(metadata i64 %_4..i.i, metadata !2381, metadata !DIExpression()), !dbg !3744
  call void @llvm.dbg.value(metadata ptr %self, metadata !2367, metadata !DIExpression(DW_OP_plus_uconst, 48, DW_OP_stack_value)), !dbg !3727
  call void @llvm.dbg.value(metadata i64 %_4..i.i, metadata !2368, metadata !DIExpression()), !dbg !3727
  call void @llvm.dbg.value(metadata ptr %self, metadata !2390, metadata !DIExpression(DW_OP_plus_uconst, 48, DW_OP_stack_value)), !dbg !3745
  %_17.i.i = getelementptr inbounds i8, ptr %self, i64 48, !dbg !3747
  call void @llvm.dbg.value(metadata i8 1, metadata !2401, metadata !DIExpression()), !dbg !3748
  call void @llvm.dbg.value(metadata ptr %_17.i.i, metadata !2406, metadata !DIExpression()), !dbg !3748
  call void @llvm.dbg.value(metadata i64 %_4..i.i, metadata !2407, metadata !DIExpression()), !dbg !3748
  store atomic i64 %_4..i.i, ptr %_17.i.i release, align 8, !dbg !3750, !noalias !3737
  call void @llvm.dbg.value(metadata ptr undef, metadata !2415, metadata !DIExpression()), !dbg !3751
  call void @llvm.dbg.value(metadata i32 0, metadata !2423, metadata !DIExpression()), !dbg !3753
  call void @llvm.dbg.value(metadata i8 1, metadata !2431, metadata !DIExpression()), !dbg !3753
  call void @llvm.dbg.value(metadata i32 0, metadata !2447, metadata !DIExpression()), !dbg !3757
  call void @llvm.dbg.value(metadata i8 1, metadata !2454, metadata !DIExpression()), !dbg !3757
  call void @llvm.dbg.value(metadata ptr undef, metadata !2445, metadata !DIExpression()), !dbg !3759
  call void @llvm.dbg.value(metadata ptr @_ZN3std9panicking11panic_count18GLOBAL_PANIC_COUNT17h00e7dcd913cdfbe0E, metadata !2459, metadata !DIExpression()), !dbg !3760
  call void @llvm.dbg.value(metadata i8 0, metadata !2463, metadata !DIExpression()), !dbg !3760
  call void @llvm.dbg.value(metadata i8 1, metadata !2484, metadata !DIExpression()), !dbg !3766
  call void @llvm.dbg.value(metadata i8 0, metadata !2492, metadata !DIExpression()), !dbg !3766
  call void @llvm.dbg.value(metadata ptr %_3.i.i.i, metadata !2481, metadata !DIExpression()), !dbg !3768
  call void @llvm.dbg.value(metadata ptr undef, metadata !2482, metadata !DIExpression()), !dbg !3768
  %_3.not.i.i.i.i = icmp eq i8 %.val3.i, 0, !dbg !3769
  br i1 %_3.not.i.i.i.i, label %bb1.i.i.i.i, label %_ZN3std4sync6poison4Flag4done17h6b62417d8d60c5ceE.exit.i.i.i, !dbg !3769

bb1.i.i.i.i:                                      ; preds = %bb34
  call void @llvm.dbg.value(metadata i8 0, metadata !2070, metadata !DIExpression()), !dbg !3770
  call void @llvm.dbg.value(metadata ptr @_ZN3std9panicking11panic_count18GLOBAL_PANIC_COUNT17h00e7dcd913cdfbe0E, metadata !2076, metadata !DIExpression()), !dbg !3770
  %13 = load atomic i64, ptr @_ZN3std9panicking11panic_count18GLOBAL_PANIC_COUNT17h00e7dcd913cdfbe0E monotonic, align 8, !dbg !3772, !noalias !3773
  %_7.i.i.i.i = and i64 %13, 9223372036854775807, !dbg !3776
  %14 = icmp eq i64 %_7.i.i.i.i, 0, !dbg !3776
  br i1 %14, label %_ZN3std4sync6poison4Flag4done17h6b62417d8d60c5ceE.exit.i.i.i, label %bb6.i.i.i.i50, !dbg !3776

bb6.i.i.i.i50:                                    ; preds = %bb1.i.i.i.i
; call std::panicking::panic_count::is_zero_slow_path
  %_6.i.i.i.i51 = tail call noundef zeroext i1 @_ZN3std9panicking11panic_count17is_zero_slow_path17h24de30857bbd803cE(), !dbg !3777, !noalias !3773
  br i1 %_6.i.i.i.i51, label %_ZN3std4sync6poison4Flag4done17h6b62417d8d60c5ceE.exit.i.i.i, label %bb2.i.i.i.i, !dbg !3778

bb2.i.i.i.i:                                      ; preds = %bb6.i.i.i.i50
  call void @llvm.dbg.value(metadata ptr %_3.i.i.i, metadata !2491, metadata !DIExpression()), !dbg !3766
  call void @llvm.dbg.value(metadata i8 0, metadata !2506, metadata !DIExpression()), !dbg !3779
  call void @llvm.dbg.value(metadata ptr %_3.i.i.i, metadata !2511, metadata !DIExpression()), !dbg !3779
  call void @llvm.dbg.value(metadata i8 1, metadata !2512, metadata !DIExpression()), !dbg !3779
  store atomic i8 1, ptr %_3.i.i.i monotonic, align 4, !dbg !3781, !noalias !3773
  br label %_ZN3std4sync6poison4Flag4done17h6b62417d8d60c5ceE.exit.i.i.i, !dbg !3782

_ZN3std4sync6poison4Flag4done17h6b62417d8d60c5ceE.exit.i.i.i: ; preds = %bb2.i.i.i.i, %bb6.i.i.i.i50, %bb1.i.i.i.i, %bb34
  call void @llvm.dbg.value(metadata ptr %self, metadata !2438, metadata !DIExpression()), !dbg !3783
  call void @llvm.dbg.value(metadata ptr %self, metadata !2430, metadata !DIExpression()), !dbg !3753
  call void @llvm.dbg.value(metadata ptr %self, metadata !2453, metadata !DIExpression()), !dbg !3757
  %15 = atomicrmw xchg ptr %self, i32 0 release, align 4, !dbg !3784, !noalias !3773
  %_8.i.i.i = icmp eq i32 %15, 2, !dbg !3785
  br i1 %_8.i.i.i, label %bb2.i.i.i, label %"_ZN4core3ptr66drop_in_place$LT$event_listener..sys..ListLock$LT$$LP$$RP$$GT$$GT$17h4e75c2a18d201a8aE.exit", !dbg !3785

bb2.i.i.i:                                        ; preds = %_ZN3std4sync6poison4Flag4done17h6b62417d8d60c5ceE.exit.i.i.i
; call std::sys::sync::mutex::futex::Mutex::wake
  tail call void @_ZN3std3sys4sync5mutex5futex5Mutex4wake17hc487312157454c34E(ptr noundef nonnull align 4 %self), !dbg !3786, !noalias !3773
  br label %"_ZN4core3ptr66drop_in_place$LT$event_listener..sys..ListLock$LT$$LP$$RP$$GT$$GT$17h4e75c2a18d201a8aE.exit", !dbg !3786

"_ZN4core3ptr66drop_in_place$LT$event_listener..sys..ListLock$LT$$LP$$RP$$GT$$GT$17h4e75c2a18d201a8aE.exit": ; preds = %_ZN3std4sync6poison4Flag4done17h6b62417d8d60c5ceE.exit.i.i.i, %bb2.i.i.i
  call void @llvm.lifetime.end.p0(i64 24, ptr nonnull %inner), !dbg !3787
  br label %bb17, !dbg !3788

bb35:                                             ; preds = %"_ZN14event_listener3sys48_$LT$impl$u20$event_listener..Inner$LT$T$GT$$GT$4lock17h08e0b66e1297c0afE.exit"
  tail call void @llvm.dbg.value(metadata ptr %0, metadata !3711, metadata !DIExpression(DW_OP_plus_uconst, 8, DW_OP_stack_value)), !dbg !3789
  %x10 = getelementptr inbounds i8, ptr %0, i64 8, !dbg !3790
  tail call void @llvm.dbg.value(metadata ptr %x10, metadata !3561, metadata !DIExpression()), !dbg !3791
  call void @llvm.lifetime.start.p0(i64 24, ptr nonnull %result), !dbg !3792
  tail call void @llvm.dbg.value(metadata ptr %x10, metadata !3607, metadata !DIExpression()), !dbg !3793
  tail call void @llvm.dbg.value(metadata i8 3, metadata !3609, metadata !DIExpression(DW_OP_LLVM_fragment, 0, 8)), !dbg !3793
  tail call void @llvm.dbg.value(metadata i8 3, metadata !3592, metadata !DIExpression(DW_OP_LLVM_fragment, 0, 8)), !dbg !3794
  tail call void @llvm.dbg.value(metadata i8 3, metadata !3579, metadata !DIExpression(DW_OP_LLVM_fragment, 0, 8)), !dbg !3795
  tail call void @llvm.dbg.value(metadata ptr %x10, metadata !3590, metadata !DIExpression()), !dbg !3794
  tail call void @llvm.dbg.value(metadata ptr %x10, metadata !3796, metadata !DIExpression()), !dbg !3804
  tail call void @llvm.dbg.value(metadata ptr %x10, metadata !3577, metadata !DIExpression()), !dbg !3795
  call void @llvm.memcpy.p0.p0.i64(ptr noundef nonnull align 8 dereferenceable(24) %result, ptr noundef nonnull align 8 dereferenceable(24) %x10, i64 24, i1 false), !dbg !3806
  store i8 3, ptr %x10, align 8, !dbg !3807
  %val.sroa.2.0._6.sroa.0.0.listener12.sroa_idx = getelementptr inbounds i8, ptr %0, i64 9, !dbg !3807
  %16 = load i8, ptr %result, align 8, !dbg !3792, !range !1056, !noundef !29
  switch i8 %16, label %bb3 [
    i8 1, label %bb4
    i8 2, label %bb7
  ], !dbg !3808

bb17:                                             ; preds = %bb22, %"_ZN4core3ptr66drop_in_place$LT$event_listener..sys..ListLock$LT$$LP$$RP$$GT$$GT$17h4e75c2a18d201a8aE.exit"
  %_0.sroa.0.0 = phi i8 [ %_0.sroa.0.1, %bb22 ], [ 2, %"_ZN4core3ptr66drop_in_place$LT$event_listener..sys..ListLock$LT$$LP$$RP$$GT$$GT$17h4e75c2a18d201a8aE.exit" ], !dbg !3809
  ret i8 %_0.sroa.0.0, !dbg !3788

bb3:                                              ; preds = %bb35
  tail call void @llvm.dbg.value(metadata ptr %x10, metadata !3625, metadata !DIExpression()), !dbg !3810
  tail call void @llvm.dbg.value(metadata ptr %x10, metadata !3613, metadata !DIExpression()), !dbg !3811
  call void @llvm.lifetime.start.p0(i64 16, ptr nonnull %_33), !dbg !3812
; invoke event_listener::TaskRef::into_task
  invoke void @_ZN14event_listener7TaskRef9into_task17h3efcc1dabcaa6adbE(ptr noalias nocapture noundef nonnull sret([16 x i8]) align 8 dereferenceable(16) %_33, i64 noundef %task.0, ptr noundef %task.1)
          to label %bb13 unwind label %cleanup29, !dbg !3812

bb4:                                              ; preds = %bb35
  call void @llvm.lifetime.start.p0(i64 24, ptr nonnull %_19), !dbg !3813
  tail call void @llvm.dbg.value(metadata ptr %inner, metadata !3814, metadata !DIExpression()), !dbg !3818
  tail call void @llvm.dbg.value(metadata ptr %inner, metadata !3819, metadata !DIExpression(DW_OP_plus_uconst, 8, DW_OP_stack_value)), !dbg !3823
  tail call void @llvm.dbg.value(metadata ptr %self, metadata !3825, metadata !DIExpression(DW_OP_plus_uconst, 8, DW_OP_stack_value)), !dbg !3829
  tail call void @llvm.experimental.noalias.scope.decl(metadata !3831), !dbg !3813
  call void @llvm.dbg.declare(metadata ptr poison, metadata !3119, metadata !DIExpression(DW_OP_LLVM_fragment, 64, 320)), !dbg !3834
  call void @llvm.dbg.declare(metadata ptr poison, metadata !3135, metadata !DIExpression(DW_OP_LLVM_fragment, 64, 320)), !dbg !3838
  call void @llvm.dbg.declare(metadata ptr poison, metadata !3212, metadata !DIExpression(DW_OP_LLVM_fragment, 64, 320)), !dbg !3839
  call void @llvm.dbg.declare(metadata ptr poison, metadata !3136, metadata !DIExpression(DW_OP_LLVM_fragment, 64, 320)), !dbg !3841
  call void @llvm.dbg.value(metadata ptr %0, metadata !3155, metadata !DIExpression()), !dbg !3842
  call void @llvm.dbg.value(metadata ptr %self, metadata !3154, metadata !DIExpression(DW_OP_plus_uconst, 8, DW_OP_stack_value)), !dbg !3842
  call void @llvm.dbg.value(metadata i1 false, metadata !3156, metadata !DIExpression(DW_OP_LLVM_convert, 1, DW_ATE_unsigned, DW_OP_LLVM_convert, 8, DW_ATE_unsigned, DW_OP_stack_value)), !dbg !3842
  %_56 = getelementptr inbounds i8, ptr %self, i64 8, !dbg !3843
  call void @llvm.dbg.value(metadata ptr %_56, metadata !3154, metadata !DIExpression()), !dbg !3842
  call void @llvm.dbg.value(metadata ptr %x10, metadata !3157, metadata !DIExpression()), !dbg !3844
  call void @llvm.dbg.value(metadata ptr %x10, metadata !3306, metadata !DIExpression(DW_OP_plus_uconst, 24, DW_OP_stack_value)), !dbg !3845
  call void @llvm.dbg.value(metadata ptr %x10, metadata !3314, metadata !DIExpression(DW_OP_plus_uconst, 24, DW_OP_stack_value)), !dbg !3847
  %_65.i = getelementptr inbounds i8, ptr %0, i64 32, !dbg !3849
  %17 = load ptr, ptr %_65.i, align 8, !dbg !3850, !noalias !3851, !noundef !29
  call void @llvm.dbg.value(metadata ptr %17, metadata !3175, metadata !DIExpression()), !dbg !3853
  call void @llvm.dbg.value(metadata ptr %x10, metadata !3310, metadata !DIExpression(DW_OP_plus_uconst, 32, DW_OP_stack_value)), !dbg !3854
  call void @llvm.dbg.value(metadata ptr %x10, metadata !3318, metadata !DIExpression(DW_OP_plus_uconst, 32, DW_OP_stack_value)), !dbg !3856
  %_68.i = getelementptr inbounds i8, ptr %0, i64 40, !dbg !3858
  %18 = load ptr, ptr %_68.i, align 8, !dbg !3859, !noalias !3851, !noundef !29
  call void @llvm.dbg.value(metadata ptr %18, metadata !3176, metadata !DIExpression()), !dbg !3860
  %19 = icmp eq ptr %17, null, !dbg !3861
  %_74.i = getelementptr inbounds i8, ptr %17, i64 32, !dbg !3862
  %_74.sink.i = select i1 %19, ptr %_56, ptr %_74.i, !dbg !3862
  store ptr %18, ptr %_74.sink.i, align 8, !dbg !3860, !noalias !3863
  %20 = icmp eq ptr %18, null, !dbg !3864
  %_80.i = getelementptr inbounds i8, ptr %18, i64 24, !dbg !3865
  %21 = getelementptr inbounds i8, ptr %self, i64 16, !dbg !3865
  %_80.sink.i = select i1 %20, ptr %21, ptr %_80.i, !dbg !3865
  store ptr %17, ptr %_80.sink.i, align 8, !dbg !3860, !noalias !3863
  %_27.i = getelementptr inbounds i8, ptr %self, i64 24, !dbg !3866
  %_27.val.i = load ptr, ptr %_27.i, align 8, !dbg !3866, !alias.scope !3831, !noalias !3863, !noundef !29
  call void @llvm.dbg.value(metadata ptr undef, metadata !3341, metadata !DIExpression()), !dbg !3867
  call void @llvm.dbg.value(metadata ptr undef, metadata !3347, metadata !DIExpression()), !dbg !3867
  %_0.sroa.0.0.i.i = icmp eq ptr %x10, %_27.val.i, !dbg !3869
  br i1 %_0.sroa.0.0.i.i, label %bb9.i, label %bb11.i, !dbg !3866

bb9.i:                                            ; preds = %bb4
  store ptr %18, ptr %_27.i, align 8, !dbg !3870, !alias.scope !3831, !noalias !3863
  br label %bb11.i, !dbg !3871

bb11.i:                                           ; preds = %bb9.i, %bb4
  call void @llvm.dbg.value(metadata ptr %0, metadata !3144, metadata !DIExpression()), !dbg !3872
  call void @llvm.dbg.value(metadata ptr %0, metadata !3134, metadata !DIExpression()), !dbg !3873
  call void @llvm.dbg.value(metadata ptr %0, metadata !3359, metadata !DIExpression()), !dbg !3874
  call void @llvm.dbg.value(metadata ptr %0, metadata !3125, metadata !DIExpression()), !dbg !3876
  call void @llvm.dbg.value(metadata i64 0, metadata !3135, metadata !DIExpression(DW_OP_LLVM_fragment, 0, 64)), !dbg !3873
  call void @llvm.dbg.value(metadata i64 0, metadata !3119, metadata !DIExpression(DW_OP_LLVM_fragment, 0, 64)), !dbg !3876
  %result.sroa.0.0.copyload.i = load i64, ptr %0, align 8, !dbg !3877, !noalias !3851
  call void @llvm.dbg.value(metadata i64 %result.sroa.0.0.copyload.i, metadata !3136, metadata !DIExpression(DW_OP_LLVM_fragment, 0, 64)), !dbg !3878
  call void @llvm.dbg.value(metadata i64 %result.sroa.0.0.copyload.i, metadata !3212, metadata !DIExpression(DW_OP_LLVM_fragment, 0, 64)), !dbg !3879
  store i64 0, ptr %0, align 8, !dbg !3880, !noalias !3851
  %switch58.i = icmp eq i64 %result.sroa.0.0.copyload.i, 0, !dbg !3881
  br i1 %switch58.i, label %bb28.i, label %bb29.i, !dbg !3881

bb28.i:                                           ; preds = %bb11.i
; invoke core::option::unwrap_failed
  invoke void @_ZN4core6option13unwrap_failed17h7a3768beeda72485E(ptr noalias noundef nonnull readonly align 8 dereferenceable(24) @alloc_3d92cf09fa06db555c254e898e4a2d80) #22
          to label %.noexc unwind label %cleanup, !dbg !3882

.noexc:                                           ; preds = %bb28.i
  unreachable, !dbg !3882

bb29.i:                                           ; preds = %bb11.i
  %state.i.sroa.0.0.copyload = load i8, ptr %x10, align 8, !dbg !3883, !noalias !3851
  tail call void @llvm.dbg.value(metadata i8 %state.i.sroa.0.0.copyload, metadata !3183, metadata !DIExpression(DW_OP_LLVM_fragment, 0, 8)), !dbg !3884
  call void @llvm.dbg.value(metadata ptr undef, metadata !3377, metadata !DIExpression()), !dbg !3885
  switch i8 %state.i.sroa.0.0.copyload, label %bb5 [
    i8 1, label %bb31.i
    i8 3, label %bb31.i
  ], !dbg !3887

bb31.i:                                           ; preds = %bb29.i, %bb29.i
  %22 = getelementptr inbounds i8, ptr %self, i64 40, !dbg !3888
  %23 = load i64, ptr %22, align 8, !dbg !3888, !alias.scope !3831, !noalias !3863, !noundef !29
  %24 = add i64 %23, -1, !dbg !3888
  store i64 %24, ptr %22, align 8, !dbg !3888, !alias.scope !3831, !noalias !3863
  br label %bb5

bb7:                                              ; preds = %bb35
  call void @llvm.lifetime.start.p0(i64 16, ptr nonnull %other_task), !dbg !3889
  %25 = getelementptr inbounds i8, ptr %result, i64 8, !dbg !3889
  call void @llvm.memcpy.p0.p0.i64(ptr noundef nonnull align 8 dereferenceable(16) %other_task, ptr noundef nonnull align 8 dereferenceable(16) %25, i64 16, i1 false), !dbg !3889
  tail call void @llvm.dbg.value(metadata ptr %x10, metadata !3622, metadata !DIExpression()), !dbg !3890
  tail call void @llvm.dbg.value(metadata ptr %x10, metadata !3610, metadata !DIExpression()), !dbg !3891
  call void @llvm.lifetime.start.p0(i64 16, ptr nonnull %_27), !dbg !3892
  tail call void @llvm.dbg.value(metadata ptr %other_task, metadata !3893, metadata !DIExpression()), !dbg !3905
  %26 = load ptr, ptr %other_task, align 8, !dbg !3907, !noundef !29
  %27 = icmp eq ptr %26, null, !dbg !3907
  %_61 = getelementptr inbounds i8, ptr %other_task, i64 8, !dbg !3908
  %_29.sroa.0.0 = zext i1 %27 to i64, !dbg !3908
  call void @llvm.dbg.value(metadata i64 %task.0, metadata !3909, metadata !DIExpression(DW_OP_LLVM_fragment, 0, 64)), !dbg !3919
  call void @llvm.dbg.value(metadata ptr %task.1, metadata !3909, metadata !DIExpression(DW_OP_LLVM_fragment, 64, 64)), !dbg !3919
  call void @llvm.dbg.value(metadata i64 %_29.sroa.0.0, metadata !3915, metadata !DIExpression(DW_OP_LLVM_fragment, 0, 64)), !dbg !3919
  call void @llvm.dbg.value(metadata ptr poison, metadata !3915, metadata !DIExpression(DW_OP_LLVM_fragment, 64, 64)), !dbg !3919
  %28 = or i64 %_29.sroa.0.0, %task.0, !dbg !3921
  %or.cond.i = icmp eq i64 %28, 0, !dbg !3921
  br i1 %or.cond.i, label %bb4.i, label %bb10, !dbg !3921

bb4.i:                                            ; preds = %bb7
  %29 = icmp ne ptr %task.1, null
  tail call void @llvm.assume(i1 %29)
  call void @llvm.dbg.value(metadata ptr %task.1, metadata !3916, metadata !DIExpression()), !dbg !3922
  call void @llvm.dbg.value(metadata ptr %task.1, metadata !3923, metadata !DIExpression()), !dbg !3937
  call void @llvm.dbg.value(metadata ptr poison, metadata !3918, metadata !DIExpression()), !dbg !3922
  call void @llvm.dbg.value(metadata ptr poison, metadata !3930, metadata !DIExpression()), !dbg !3937
  %30 = getelementptr inbounds i8, ptr %task.1, i64 8, !dbg !3939
  %a_data.i = load ptr, ptr %30, align 8, !dbg !3939, !noundef !29
  call void @llvm.dbg.value(metadata ptr %a_data.i, metadata !3931, metadata !DIExpression()), !dbg !3940
  call void @llvm.dbg.value(metadata ptr poison, metadata !3933, metadata !DIExpression()), !dbg !3940
  call void @llvm.dbg.value(metadata ptr poison, metadata !3941, metadata !DIExpression()), !dbg !3951
  %_61.sroa.gep = getelementptr inbounds i8, ptr %other_task, i64 16, !dbg !3953
  %_29.sroa.6.0.sroa.sel = select i1 %27, ptr %_61.sroa.gep, ptr %_61, !dbg !3953
  %b_data.i = load ptr, ptr %_29.sroa.6.0.sroa.sel, align 8, !dbg !3953, !noundef !29
  call void @llvm.dbg.value(metadata ptr %b_data.i, metadata !3934, metadata !DIExpression()), !dbg !3954
  call void @llvm.dbg.value(metadata ptr poison, metadata !3936, metadata !DIExpression()), !dbg !3954
  call void @llvm.dbg.value(metadata ptr poison, metadata !3948, metadata !DIExpression()), !dbg !3951
  %_12.i = icmp eq ptr %a_data.i, %b_data.i, !dbg !3955
  br i1 %_12.i, label %bb8, label %bb10, !dbg !3955

cleanup:                                          ; preds = %bb2.i.i.i53, %bb28.i
  %31 = landingpad { ptr, i32 }
          cleanup
  br label %bb19, !dbg !3956

bb5:                                              ; preds = %bb29.i, %bb31.i
  %32 = getelementptr inbounds i8, ptr %self, i64 32, !dbg !3957
  %33 = load i64, ptr %32, align 8, !dbg !3957, !alias.scope !3831, !noalias !3863, !noundef !29
  %34 = add i64 %33, -1, !dbg !3957
  store i64 %34, ptr %32, align 8, !dbg !3957, !alias.scope !3831, !noalias !3863
  store i8 %state.i.sroa.0.0.copyload, ptr %_19, align 8, !dbg !3958, !noalias !3831
  %state.i.sroa.5.0._19.sroa_idx = getelementptr inbounds i8, ptr %_19, i64 1, !dbg !3958
  call void @llvm.memcpy.p0.p0.i64(ptr noundef nonnull align 1 dereferenceable(23) %state.i.sroa.5.0._19.sroa_idx, ptr noundef nonnull align 1 dereferenceable(23) %val.sroa.2.0._6.sroa.0.0.listener12.sroa_idx, i64 23, i1 false), !dbg !3958
  tail call void @llvm.experimental.noalias.scope.decl(metadata !3959), !dbg !3962
  call void @llvm.dbg.value(metadata ptr %_19, metadata !1751, metadata !DIExpression()), !dbg !3963
  %35 = icmp eq i8 %state.i.sroa.0.0.copyload, 4, !dbg !3965
  br i1 %35, label %bb6, label %bb2.i, !dbg !3965

bb2.i:                                            ; preds = %bb5
  tail call void @llvm.experimental.noalias.scope.decl(metadata !3966), !dbg !3965
  call void @llvm.dbg.value(metadata ptr %_19, metadata !1064, metadata !DIExpression()), !dbg !3969
  %cond.i.i = icmp eq i8 %state.i.sroa.0.0.copyload, 2, !dbg !3971
  br i1 %cond.i.i, label %bb2.i.i52, label %bb6, !dbg !3971

bb2.i.i52:                                        ; preds = %bb2.i
  %36 = getelementptr inbounds i8, ptr %_19, i64 8, !dbg !3971
  tail call void @llvm.experimental.noalias.scope.decl(metadata !3972), !dbg !3971
  call void @llvm.dbg.value(metadata ptr %36, metadata !1077, metadata !DIExpression()), !dbg !3975
  %37 = load ptr, ptr %36, align 8, !dbg !3977, !alias.scope !3978, !noundef !29
  %.not.i.i.i = icmp eq ptr %37, null, !dbg !3977
  %38 = getelementptr inbounds i8, ptr %_19, i64 16, !dbg !3977
  br i1 %.not.i.i.i, label %bb3.i.i.i, label %bb2.i.i.i53, !dbg !3977

bb2.i.i.i53:                                      ; preds = %bb2.i.i52
  %_1.val1.i.i.i = load ptr, ptr %38, align 8, !dbg !3977, !alias.scope !3978, !noundef !29
  call void @llvm.dbg.value(metadata ptr undef, metadata !1089, metadata !DIExpression()), !dbg !3979
  call void @llvm.dbg.value(metadata ptr undef, metadata !1099, metadata !DIExpression()), !dbg !3981
  %39 = getelementptr inbounds i8, ptr %37, i64 24, !dbg !3983
  %_2.i.i.i.i.i = load ptr, ptr %39, align 8, !dbg !3983, !noalias !3978, !nonnull !29, !noundef !29
  invoke void %_2.i.i.i.i.i(ptr noundef %_1.val1.i.i.i)
          to label %bb6 unwind label %cleanup, !dbg !3983

bb3.i.i.i:                                        ; preds = %bb2.i.i52
  tail call void @llvm.experimental.noalias.scope.decl(metadata !3984), !dbg !3977
  call void @llvm.dbg.value(metadata ptr %38, metadata !1113, metadata !DIExpression()), !dbg !3987
  tail call void @llvm.experimental.noalias.scope.decl(metadata !3989), !dbg !3992
  call void @llvm.dbg.value(metadata ptr %38, metadata !1127, metadata !DIExpression()), !dbg !3993
  tail call void @llvm.experimental.noalias.scope.decl(metadata !3995), !dbg !3998
  call void @llvm.dbg.value(metadata i64 1, metadata !1141, metadata !DIExpression()), !dbg !3999
  call void @llvm.dbg.value(metadata i8 1, metadata !1151, metadata !DIExpression()), !dbg !3999
  call void @llvm.dbg.value(metadata i64 1, metadata !1162, metadata !DIExpression()), !dbg !4002
  call void @llvm.dbg.value(metadata i8 1, metadata !1170, metadata !DIExpression()), !dbg !4002
  call void @llvm.dbg.value(metadata i8 2, metadata !1173, metadata !DIExpression()), !dbg !4004
  call void @llvm.dbg.value(metadata ptr %38, metadata !1160, metadata !DIExpression()), !dbg !4006
  call void @llvm.dbg.value(metadata ptr %38, metadata !1182, metadata !DIExpression()), !dbg !4007
  call void @llvm.dbg.value(metadata ptr %38, metadata !1193, metadata !DIExpression()), !dbg !4009
  %self6.i.i.i.i.i.i = load ptr, ptr %38, align 8, !dbg !4011, !alias.scope !4012, !nonnull !29, !noundef !29
  call void @llvm.dbg.value(metadata ptr %self6.i.i.i.i.i.i, metadata !1150, metadata !DIExpression()), !dbg !3999
  call void @llvm.dbg.value(metadata ptr %self6.i.i.i.i.i.i, metadata !1169, metadata !DIExpression()), !dbg !4002
  %40 = atomicrmw sub ptr %self6.i.i.i.i.i.i, i64 1 release, align 8, !dbg !4013, !noalias !4012
  %41 = icmp eq i64 %40, 1, !dbg !4014
  br i1 %41, label %bb2.i.i.i.i.i.i, label %bb6, !dbg !4014

bb2.i.i.i.i.i.i:                                  ; preds = %bb3.i.i.i
  fence acquire, !dbg !4015
; call alloc::sync::Arc<T,A>::drop_slow
  call fastcc void @"_ZN5alloc4sync16Arc$LT$T$C$A$GT$9drop_slow17h5f7fc8bc35814c1fE"(ptr noalias noundef nonnull align 8 dereferenceable(8) %38), !dbg !4016
  br label %bb6, !dbg !4016

bb6:                                              ; preds = %bb2.i.i.i.i.i.i, %bb3.i.i.i, %bb2.i, %bb5, %bb2.i.i.i53
  call void @llvm.lifetime.end.p0(i64 24, ptr nonnull %_19), !dbg !3962
  tail call void @llvm.experimental.noalias.scope.decl(metadata !4017), !dbg !3787
  call void @llvm.dbg.value(metadata ptr %inner, metadata !2346, metadata !DIExpression()), !dbg !4020
  tail call void @llvm.experimental.noalias.scope.decl(metadata !4022), !dbg !4025
  call void @llvm.dbg.value(metadata i8 1, metadata !2360, metadata !DIExpression()), !dbg !4026
  call void @llvm.dbg.value(metadata ptr %inner, metadata !2378, metadata !DIExpression()), !dbg !4029
  call void @llvm.dbg.value(metadata ptr %inner, metadata !3404, metadata !DIExpression()), !dbg !4030
  call void @llvm.dbg.value(metadata ptr %inner, metadata !3399, metadata !DIExpression(DW_OP_plus_uconst, 8, DW_OP_stack_value)), !dbg !4032
  %_12.i.i56 = load ptr, ptr %9, align 8, !dbg !4034, !alias.scope !4017, !nonnull !29, !align !2272, !noundef !29
  call void @llvm.dbg.value(metadata ptr %_12.i.i56, metadata !2379, metadata !DIExpression(DW_OP_plus_uconst, 8, DW_OP_stack_value)), !dbg !4035
  %42 = getelementptr inbounds i8, ptr %_12.i.i56, i64 40, !dbg !4036
  %_4.i.i57 = load i64, ptr %42, align 8, !dbg !4036, !noalias !4037, !noundef !29
  %43 = getelementptr inbounds i8, ptr %_12.i.i56, i64 32, !dbg !4038
  %_5.i.i58 = load i64, ptr %43, align 8, !dbg !4038, !noalias !4037, !noundef !29
  %_3.i.i59 = icmp ult i64 %_4.i.i57, %_5.i.i58, !dbg !4036
  %_4..i.i60 = select i1 %_3.i.i59, i64 %_4.i.i57, i64 -1, !dbg !4039
  call void @llvm.dbg.value(metadata i64 %_4..i.i60, metadata !2381, metadata !DIExpression()), !dbg !4040
  %_8.i.i61 = load ptr, ptr %inner, align 8, !dbg !4041, !alias.scope !4037, !nonnull !29, !align !2272, !noundef !29
  call void @llvm.dbg.value(metadata ptr %_8.i.i61, metadata !2367, metadata !DIExpression(DW_OP_plus_uconst, 48, DW_OP_stack_value)), !dbg !4026
  call void @llvm.dbg.value(metadata i64 %_4..i.i60, metadata !2368, metadata !DIExpression()), !dbg !4026
  call void @llvm.dbg.value(metadata ptr %_8.i.i61, metadata !2390, metadata !DIExpression(DW_OP_plus_uconst, 48, DW_OP_stack_value)), !dbg !4042
  %_17.i.i62 = getelementptr inbounds i8, ptr %_8.i.i61, i64 48, !dbg !4044
  call void @llvm.dbg.value(metadata i8 1, metadata !2401, metadata !DIExpression()), !dbg !4045
  call void @llvm.dbg.value(metadata ptr %_17.i.i62, metadata !2406, metadata !DIExpression()), !dbg !4045
  call void @llvm.dbg.value(metadata i64 %_4..i.i60, metadata !2407, metadata !DIExpression()), !dbg !4045
  store atomic i64 %_4..i.i60, ptr %_17.i.i62 release, align 8, !dbg !4047, !noalias !4037
  %.val3.i63 = load i8, ptr %10, align 8, !dbg !4025, !range !2411, !alias.scope !4048, !noundef !29
  call void @llvm.dbg.value(metadata ptr undef, metadata !2415, metadata !DIExpression()), !dbg !4051
  call void @llvm.dbg.value(metadata i32 0, metadata !2423, metadata !DIExpression()), !dbg !4053
  call void @llvm.dbg.value(metadata i8 1, metadata !2431, metadata !DIExpression()), !dbg !4053
  call void @llvm.dbg.value(metadata i32 0, metadata !2447, metadata !DIExpression()), !dbg !4057
  call void @llvm.dbg.value(metadata i8 1, metadata !2454, metadata !DIExpression()), !dbg !4057
  call void @llvm.dbg.value(metadata ptr undef, metadata !2445, metadata !DIExpression()), !dbg !4059
  %_3.i.i.i64 = getelementptr inbounds i8, ptr %_12.i.i56, i64 4, !dbg !4060
  call void @llvm.dbg.value(metadata ptr @_ZN3std9panicking11panic_count18GLOBAL_PANIC_COUNT17h00e7dcd913cdfbe0E, metadata !2459, metadata !DIExpression()), !dbg !4061
  call void @llvm.dbg.value(metadata i8 0, metadata !2463, metadata !DIExpression()), !dbg !4061
  call void @llvm.dbg.value(metadata i8 1, metadata !2484, metadata !DIExpression()), !dbg !4067
  call void @llvm.dbg.value(metadata i8 0, metadata !2492, metadata !DIExpression()), !dbg !4067
  call void @llvm.dbg.value(metadata ptr %_3.i.i.i64, metadata !2481, metadata !DIExpression()), !dbg !4069
  call void @llvm.dbg.value(metadata ptr undef, metadata !2482, metadata !DIExpression()), !dbg !4069
  %_3.not.i.i.i.i65 = icmp eq i8 %.val3.i63, 0, !dbg !4070
  br i1 %_3.not.i.i.i.i65, label %bb1.i.i.i.i69, label %_ZN3std4sync6poison4Flag4done17h6b62417d8d60c5ceE.exit.i.i.i66, !dbg !4070

bb1.i.i.i.i69:                                    ; preds = %bb6
  call void @llvm.dbg.value(metadata i8 0, metadata !2070, metadata !DIExpression()), !dbg !4071
  call void @llvm.dbg.value(metadata ptr @_ZN3std9panicking11panic_count18GLOBAL_PANIC_COUNT17h00e7dcd913cdfbe0E, metadata !2076, metadata !DIExpression()), !dbg !4071
  %44 = load atomic i64, ptr @_ZN3std9panicking11panic_count18GLOBAL_PANIC_COUNT17h00e7dcd913cdfbe0E monotonic, align 8, !dbg !4073, !noalias !4074
  %_7.i.i.i.i70 = and i64 %44, 9223372036854775807, !dbg !4077
  %45 = icmp eq i64 %_7.i.i.i.i70, 0, !dbg !4077
  br i1 %45, label %_ZN3std4sync6poison4Flag4done17h6b62417d8d60c5ceE.exit.i.i.i66, label %bb6.i.i.i.i71, !dbg !4077

bb6.i.i.i.i71:                                    ; preds = %bb1.i.i.i.i69
; invoke std::panicking::panic_count::is_zero_slow_path
  %_6.i.i.i.i7274 = invoke noundef zeroext i1 @_ZN3std9panicking11panic_count17is_zero_slow_path17h24de30857bbd803cE()
          to label %_6.i.i.i.i72.noexc unwind label %cleanup25, !dbg !4078

_6.i.i.i.i72.noexc:                               ; preds = %bb6.i.i.i.i71
  br i1 %_6.i.i.i.i7274, label %_ZN3std4sync6poison4Flag4done17h6b62417d8d60c5ceE.exit.i.i.i66, label %bb2.i.i.i.i73, !dbg !4079

bb2.i.i.i.i73:                                    ; preds = %_6.i.i.i.i72.noexc
  call void @llvm.dbg.value(metadata ptr %_3.i.i.i64, metadata !2491, metadata !DIExpression()), !dbg !4067
  call void @llvm.dbg.value(metadata i8 0, metadata !2506, metadata !DIExpression()), !dbg !4080
  call void @llvm.dbg.value(metadata ptr %_3.i.i.i64, metadata !2511, metadata !DIExpression()), !dbg !4080
  call void @llvm.dbg.value(metadata i8 1, metadata !2512, metadata !DIExpression()), !dbg !4080
  store atomic i8 1, ptr %_3.i.i.i64 monotonic, align 4, !dbg !4082, !noalias !4074
  br label %_ZN3std4sync6poison4Flag4done17h6b62417d8d60c5ceE.exit.i.i.i66, !dbg !4083

_ZN3std4sync6poison4Flag4done17h6b62417d8d60c5ceE.exit.i.i.i66: ; preds = %bb2.i.i.i.i73, %_6.i.i.i.i72.noexc, %bb1.i.i.i.i69, %bb6
  call void @llvm.dbg.value(metadata ptr %_12.i.i56, metadata !2438, metadata !DIExpression()), !dbg !4084
  call void @llvm.dbg.value(metadata ptr %_12.i.i56, metadata !2430, metadata !DIExpression()), !dbg !4053
  call void @llvm.dbg.value(metadata ptr %_12.i.i56, metadata !2453, metadata !DIExpression()), !dbg !4057
  %46 = atomicrmw xchg ptr %_12.i.i56, i32 0 release, align 4, !dbg !4085, !noalias !4074
  %_8.i.i.i67 = icmp eq i32 %46, 2, !dbg !4086
  br i1 %_8.i.i.i67, label %bb2.i.i.i68, label %bb41, !dbg !4086

bb2.i.i.i68:                                      ; preds = %_ZN3std4sync6poison4Flag4done17h6b62417d8d60c5ceE.exit.i.i.i66
; invoke std::sys::sync::mutex::futex::Mutex::wake
  invoke void @_ZN3std3sys4sync5mutex5futex5Mutex4wake17hc487312157454c34E(ptr noundef nonnull align 4 %_12.i.i56)
          to label %bb41 unwind label %cleanup25, !dbg !4087

bb33:                                             ; preds = %bb19, %cleanup25
  %_35.sroa.0.0 = phi i8 [ %_35.sroa.0.1, %cleanup25 ], [ %_35.sroa.0.3, %bb19 ], !dbg !4088
  %.pn46 = phi { ptr, i32 } [ %48, %cleanup25 ], [ %.pn, %bb19 ]
  %47 = load i8, ptr %result, align 8, !dbg !3787, !range !1056, !noundef !29
  %cond33 = icmp ne i8 %47, 2, !dbg !3787
  %.not = icmp eq i8 %_35.sroa.0.0, 0, !dbg !3787
  %or.cond = or i1 %.not, %cond33, !dbg !3787
  br i1 %or.cond, label %bb20, label %bb32, !dbg !3787

cleanup25:                                        ; preds = %bb2.i.i.i107, %bb6.i.i.i.i110, %bb2.i.i.i68, %bb6.i.i.i.i71
  %_35.sroa.0.1 = phi i8 [ 1, %bb6.i.i.i.i71 ], [ 1, %bb2.i.i.i68 ], [ %_35.sroa.0.5, %bb6.i.i.i.i110 ], [ %_35.sroa.0.5, %bb2.i.i.i107 ], !dbg !4088
  %48 = landingpad { ptr, i32 }
          cleanup
  br label %bb33

bb41:                                             ; preds = %_ZN3std4sync6poison4Flag4done17h6b62417d8d60c5ceE.exit.i.i.i66, %bb2.i.i.i68
  call void @llvm.lifetime.end.p0(i64 24, ptr nonnull %inner), !dbg !3787
  %49 = load i8, ptr %result, align 8, !dbg !3787, !range !1056, !noundef !29
  %cond = icmp eq i8 %49, 2, !dbg !3787
  br i1 %cond, label %bb26, label %bb22, !dbg !3787

bb22:                                             ; preds = %bb2.i.i.i.i133, %bb3.i131, %bb2.i128, %bb15, %bb41
  %_0.sroa.0.1 = phi i8 [ 1, %bb15 ], [ 0, %bb41 ], [ %_0.sroa.0.2139, %bb2.i128 ], [ %_0.sroa.0.2139, %bb3.i131 ], [ %_0.sroa.0.2139, %bb2.i.i.i.i133 ], !dbg !3791
  call void @llvm.lifetime.end.p0(i64 24, ptr nonnull %result), !dbg !3787
  br label %bb17, !dbg !3788

bb19:                                             ; preds = %cleanup28, %bb27, %cleanup29, %cleanup
  %_35.sroa.0.3 = phi i8 [ %_35.sroa.0.4, %cleanup29 ], [ 0, %bb27 ], [ 0, %cleanup28 ], [ 1, %cleanup ], !dbg !3791
  %.pn = phi { ptr, i32 } [ %69, %cleanup29 ], [ %lpad.thr_comm, %bb27 ], [ %lpad.thr_comm.split-lp, %cleanup28 ], [ %31, %cleanup ]
; invoke core::ptr::drop_in_place<event_listener::sys::ListLock<()>>
  invoke fastcc void @"_ZN4core3ptr66drop_in_place$LT$event_listener..sys..ListLock$LT$$LP$$RP$$GT$$GT$17h4e75c2a18d201a8aE"(ptr noalias noundef nonnull align 8 dereferenceable(24) %inner) #23
          to label %bb33 unwind label %terminate, !dbg !3787

cleanup28:                                        ; preds = %bb2.i.i78
  %lpad.thr_comm.split-lp = landingpad { ptr, i32 }
          cleanup
  br label %bb19, !dbg !4089

bb8:                                              ; preds = %bb4.i
  %_61.val = load ptr, ptr %_61, align 8, !dbg !4090
  %b_vtable.i = select i1 %27, ptr %_61.val, ptr %26, !dbg !4090
  call void @llvm.dbg.value(metadata ptr %b_vtable.i, metadata !3936, metadata !DIExpression()), !dbg !3954
  call void @llvm.dbg.value(metadata ptr %b_vtable.i, metadata !3948, metadata !DIExpression()), !dbg !3951
  %a_vtable.i = load ptr, ptr %task.1, align 8, !dbg !4091, !nonnull !29, !align !2272, !noundef !29
  call void @llvm.dbg.value(metadata ptr %a_vtable.i, metadata !3933, metadata !DIExpression()), !dbg !3940
  call void @llvm.dbg.value(metadata ptr %a_vtable.i, metadata !3941, metadata !DIExpression()), !dbg !3951
  %50 = icmp eq ptr %a_vtable.i, %b_vtable.i, !dbg !4092
  br i1 %50, label %bb9, label %bb10, !dbg !4093

bb10:                                             ; preds = %bb7, %bb4.i, %bb8
; invoke event_listener::TaskRef::into_task
  invoke void @_ZN14event_listener7TaskRef9into_task17h3efcc1dabcaa6adbE(ptr noalias nocapture noundef nonnull sret([16 x i8]) align 8 dereferenceable(16) %_27, i64 noundef %task.0, ptr noundef %task.1)
          to label %bb11 unwind label %bb27, !dbg !4094

bb9:                                              ; preds = %bb8
  %val2.sroa.4.8.sroa_idx37 = getelementptr inbounds i8, ptr %val2.sroa.4, i64 7, !dbg !4095
  call void @llvm.memcpy.p0.p0.i64(ptr noundef nonnull align 1 dereferenceable(16) %val2.sroa.4.8.sroa_idx37, ptr noundef nonnull align 8 dereferenceable(16) %25, i64 16, i1 false), !dbg !4095
  tail call void @llvm.dbg.value(metadata i8 2, metadata !3624, metadata !DIExpression(DW_OP_LLVM_fragment, 0, 8)), !dbg !3890
  tail call void @llvm.dbg.value(metadata i8 2, metadata !3612, metadata !DIExpression(DW_OP_LLVM_fragment, 0, 8)), !dbg !3891
  tail call void @llvm.dbg.value(metadata i8 2, metadata !3597, metadata !DIExpression(DW_OP_LLVM_fragment, 0, 8)), !dbg !4096
  tail call void @llvm.dbg.value(metadata i8 2, metadata !3582, metadata !DIExpression(DW_OP_LLVM_fragment, 0, 8)), !dbg !4097
  call void @llvm.lifetime.end.p0(i64 16, ptr nonnull %_27), !dbg !4098
  call void @llvm.lifetime.start.p0(i64 24, ptr nonnull %result4), !dbg !4099
  tail call void @llvm.dbg.value(metadata ptr %x10, metadata !3595, metadata !DIExpression()), !dbg !4096
  tail call void @llvm.dbg.value(metadata ptr %x10, metadata !3800, metadata !DIExpression()), !dbg !4100
  tail call void @llvm.dbg.value(metadata ptr %x10, metadata !3580, metadata !DIExpression()), !dbg !4097
  call void @llvm.memcpy.p0.p0.i64(ptr noundef nonnull align 8 dereferenceable(24) %result4, ptr noundef nonnull align 8 dereferenceable(24) %x10, i64 24, i1 false), !dbg !4102
  store i8 2, ptr %x10, align 8, !dbg !4103
  call void @llvm.memcpy.p0.p0.i64(ptr noundef nonnull align 1 dereferenceable(23) %val.sroa.2.0._6.sroa.0.0.listener12.sroa_idx, ptr noundef nonnull align 1 dereferenceable(23) %val2.sroa.4, i64 23, i1 false), !dbg !4103
  tail call void @llvm.experimental.noalias.scope.decl(metadata !4104), !dbg !4107
  call void @llvm.dbg.value(metadata ptr %result4, metadata !1064, metadata !DIExpression()), !dbg !4108
  %51 = load i8, ptr %result4, align 8, !dbg !4110, !range !1056, !alias.scope !4104, !noundef !29
  %cond.i = icmp eq i8 %51, 2, !dbg !4110
  br i1 %cond.i, label %bb2.i77, label %bb42, !dbg !4110

bb2.i77:                                          ; preds = %bb9
  %52 = getelementptr inbounds i8, ptr %result4, i64 8, !dbg !4110
  tail call void @llvm.experimental.noalias.scope.decl(metadata !4111), !dbg !4110
  call void @llvm.dbg.value(metadata ptr %52, metadata !1077, metadata !DIExpression()), !dbg !4114
  %53 = load ptr, ptr %52, align 8, !dbg !4116, !alias.scope !4117, !noundef !29
  %.not.i.i = icmp eq ptr %53, null, !dbg !4116
  %54 = getelementptr inbounds i8, ptr %result4, i64 16, !dbg !4116
  br i1 %.not.i.i, label %bb3.i.i, label %bb2.i.i78, !dbg !4116

bb2.i.i78:                                        ; preds = %bb2.i77
  %_1.val1.i.i = load ptr, ptr %54, align 8, !dbg !4116, !alias.scope !4117, !noundef !29
  call void @llvm.dbg.value(metadata ptr undef, metadata !1089, metadata !DIExpression()), !dbg !4118
  call void @llvm.dbg.value(metadata ptr undef, metadata !1099, metadata !DIExpression()), !dbg !4120
  %55 = getelementptr inbounds i8, ptr %53, i64 24, !dbg !4122
  %_2.i.i.i.i = load ptr, ptr %55, align 8, !dbg !4122, !noalias !4117, !nonnull !29, !noundef !29
  invoke void %_2.i.i.i.i(ptr noundef %_1.val1.i.i)
          to label %bb42 unwind label %cleanup28, !dbg !4122

bb3.i.i:                                          ; preds = %bb2.i77
  tail call void @llvm.experimental.noalias.scope.decl(metadata !4123), !dbg !4116
  call void @llvm.dbg.value(metadata ptr %54, metadata !1113, metadata !DIExpression()), !dbg !4126
  tail call void @llvm.experimental.noalias.scope.decl(metadata !4128), !dbg !4131
  call void @llvm.dbg.value(metadata ptr %54, metadata !1127, metadata !DIExpression()), !dbg !4132
  tail call void @llvm.experimental.noalias.scope.decl(metadata !4134), !dbg !4137
  call void @llvm.dbg.value(metadata i64 1, metadata !1141, metadata !DIExpression()), !dbg !4138
  call void @llvm.dbg.value(metadata i8 1, metadata !1151, metadata !DIExpression()), !dbg !4138
  call void @llvm.dbg.value(metadata i64 1, metadata !1162, metadata !DIExpression()), !dbg !4141
  call void @llvm.dbg.value(metadata i8 1, metadata !1170, metadata !DIExpression()), !dbg !4141
  call void @llvm.dbg.value(metadata i8 2, metadata !1173, metadata !DIExpression()), !dbg !4143
  call void @llvm.dbg.value(metadata ptr %54, metadata !1160, metadata !DIExpression()), !dbg !4145
  call void @llvm.dbg.value(metadata ptr %54, metadata !1182, metadata !DIExpression()), !dbg !4146
  call void @llvm.dbg.value(metadata ptr %54, metadata !1193, metadata !DIExpression()), !dbg !4148
  %self6.i.i.i.i.i = load ptr, ptr %54, align 8, !dbg !4150, !alias.scope !4151, !nonnull !29, !noundef !29
  call void @llvm.dbg.value(metadata ptr %self6.i.i.i.i.i, metadata !1150, metadata !DIExpression()), !dbg !4138
  call void @llvm.dbg.value(metadata ptr %self6.i.i.i.i.i, metadata !1169, metadata !DIExpression()), !dbg !4141
  %56 = atomicrmw sub ptr %self6.i.i.i.i.i, i64 1 release, align 8, !dbg !4152, !noalias !4151
  %57 = icmp eq i64 %56, 1, !dbg !4153
  br i1 %57, label %bb2.i.i.i.i.i, label %bb42, !dbg !4153

bb2.i.i.i.i.i:                                    ; preds = %bb3.i.i
  fence acquire, !dbg !4154
; call alloc::sync::Arc<T,A>::drop_slow
  call fastcc void @"_ZN5alloc4sync16Arc$LT$T$C$A$GT$9drop_slow17h5f7fc8bc35814c1fE"(ptr noalias noundef nonnull align 8 dereferenceable(8) %54), !dbg !4155
  br label %bb42, !dbg !4155

bb11:                                             ; preds = %bb10
  %val2.sroa.4.8.sroa_idx = getelementptr inbounds i8, ptr %val2.sroa.4, i64 7, !dbg !4095
  call void @llvm.memcpy.p0.p0.i64(ptr noundef nonnull align 1 dereferenceable(16) %val2.sroa.4.8.sroa_idx, ptr noundef nonnull align 8 dereferenceable(16) %_27, i64 16, i1 false), !dbg !4095
  tail call void @llvm.dbg.value(metadata i8 2, metadata !3624, metadata !DIExpression(DW_OP_LLVM_fragment, 0, 8)), !dbg !3890
  tail call void @llvm.dbg.value(metadata i8 2, metadata !3612, metadata !DIExpression(DW_OP_LLVM_fragment, 0, 8)), !dbg !3891
  tail call void @llvm.dbg.value(metadata i8 2, metadata !3597, metadata !DIExpression(DW_OP_LLVM_fragment, 0, 8)), !dbg !4096
  tail call void @llvm.dbg.value(metadata i8 2, metadata !3582, metadata !DIExpression(DW_OP_LLVM_fragment, 0, 8)), !dbg !4097
  call void @llvm.lifetime.end.p0(i64 16, ptr nonnull %_27), !dbg !4098
  call void @llvm.lifetime.start.p0(i64 24, ptr nonnull %result4), !dbg !4099
  tail call void @llvm.dbg.value(metadata ptr %x10, metadata !3595, metadata !DIExpression()), !dbg !4096
  tail call void @llvm.dbg.value(metadata ptr %x10, metadata !3800, metadata !DIExpression()), !dbg !4100
  tail call void @llvm.dbg.value(metadata ptr %x10, metadata !3580, metadata !DIExpression()), !dbg !4097
  call void @llvm.memcpy.p0.p0.i64(ptr noundef nonnull align 8 dereferenceable(24) %result4, ptr noundef nonnull align 8 dereferenceable(24) %x10, i64 24, i1 false), !dbg !4102
  store i8 2, ptr %x10, align 8, !dbg !4103
  call void @llvm.memcpy.p0.p0.i64(ptr noundef nonnull align 1 dereferenceable(23) %val.sroa.2.0._6.sroa.0.0.listener12.sroa_idx, ptr noundef nonnull align 1 dereferenceable(23) %val2.sroa.4, i64 23, i1 false), !dbg !4103
  tail call void @llvm.experimental.noalias.scope.decl(metadata !4156), !dbg !4107
  call void @llvm.dbg.value(metadata ptr %result4, metadata !1064, metadata !DIExpression()), !dbg !4159
  %58 = load i8, ptr %result4, align 8, !dbg !4161, !range !1056, !alias.scope !4156, !noundef !29
  %cond.i80 = icmp eq i8 %58, 2, !dbg !4161
  br i1 %cond.i80, label %bb2.i81, label %bb39, !dbg !4161

bb2.i81:                                          ; preds = %bb11
  %59 = getelementptr inbounds i8, ptr %result4, i64 8, !dbg !4161
  tail call void @llvm.experimental.noalias.scope.decl(metadata !4162), !dbg !4161
  call void @llvm.dbg.value(metadata ptr %59, metadata !1077, metadata !DIExpression()), !dbg !4165
  %60 = load ptr, ptr %59, align 8, !dbg !4167, !alias.scope !4168, !noundef !29
  %.not.i.i82 = icmp eq ptr %60, null, !dbg !4167
  %61 = getelementptr inbounds i8, ptr %result4, i64 16, !dbg !4167
  br i1 %.not.i.i82, label %bb3.i.i86, label %bb2.i.i83, !dbg !4167

bb2.i.i83:                                        ; preds = %bb2.i81
  %_1.val1.i.i84 = load ptr, ptr %61, align 8, !dbg !4167, !alias.scope !4168, !noundef !29
  call void @llvm.dbg.value(metadata ptr undef, metadata !1089, metadata !DIExpression()), !dbg !4169
  call void @llvm.dbg.value(metadata ptr undef, metadata !1099, metadata !DIExpression()), !dbg !4171
  %62 = getelementptr inbounds i8, ptr %60, i64 24, !dbg !4173
  %_2.i.i.i.i85 = load ptr, ptr %62, align 8, !dbg !4173, !noalias !4168, !nonnull !29, !noundef !29
  invoke void %_2.i.i.i.i85(ptr noundef %_1.val1.i.i84)
          to label %bb39 unwind label %bb27, !dbg !4173

bb3.i.i86:                                        ; preds = %bb2.i81
  tail call void @llvm.experimental.noalias.scope.decl(metadata !4174), !dbg !4167
  call void @llvm.dbg.value(metadata ptr %61, metadata !1113, metadata !DIExpression()), !dbg !4177
  tail call void @llvm.experimental.noalias.scope.decl(metadata !4179), !dbg !4182
  call void @llvm.dbg.value(metadata ptr %61, metadata !1127, metadata !DIExpression()), !dbg !4183
  tail call void @llvm.experimental.noalias.scope.decl(metadata !4185), !dbg !4188
  call void @llvm.dbg.value(metadata i64 1, metadata !1141, metadata !DIExpression()), !dbg !4189
  call void @llvm.dbg.value(metadata i8 1, metadata !1151, metadata !DIExpression()), !dbg !4189
  call void @llvm.dbg.value(metadata i64 1, metadata !1162, metadata !DIExpression()), !dbg !4192
  call void @llvm.dbg.value(metadata i8 1, metadata !1170, metadata !DIExpression()), !dbg !4192
  call void @llvm.dbg.value(metadata i8 2, metadata !1173, metadata !DIExpression()), !dbg !4194
  call void @llvm.dbg.value(metadata ptr %61, metadata !1160, metadata !DIExpression()), !dbg !4196
  call void @llvm.dbg.value(metadata ptr %61, metadata !1182, metadata !DIExpression()), !dbg !4197
  call void @llvm.dbg.value(metadata ptr %61, metadata !1193, metadata !DIExpression()), !dbg !4199
  %self6.i.i.i.i.i87 = load ptr, ptr %61, align 8, !dbg !4201, !alias.scope !4202, !nonnull !29, !noundef !29
  call void @llvm.dbg.value(metadata ptr %self6.i.i.i.i.i87, metadata !1150, metadata !DIExpression()), !dbg !4189
  call void @llvm.dbg.value(metadata ptr %self6.i.i.i.i.i87, metadata !1169, metadata !DIExpression()), !dbg !4192
  %63 = atomicrmw sub ptr %self6.i.i.i.i.i87, i64 1 release, align 8, !dbg !4203, !noalias !4202
  %64 = icmp eq i64 %63, 1, !dbg !4204
  br i1 %64, label %bb2.i.i.i.i.i88, label %bb39, !dbg !4204

bb2.i.i.i.i.i88:                                  ; preds = %bb3.i.i86
  fence acquire, !dbg !4205
; call alloc::sync::Arc<T,A>::drop_slow
  call fastcc void @"_ZN5alloc4sync16Arc$LT$T$C$A$GT$9drop_slow17h5f7fc8bc35814c1fE"(ptr noalias noundef nonnull align 8 dereferenceable(8) %61), !dbg !4206
  br label %bb39, !dbg !4206

bb39:                                             ; preds = %bb2.i.i.i.i.i88, %bb3.i.i86, %bb11, %bb2.i.i83
  call void @llvm.lifetime.end.p0(i64 24, ptr nonnull %result4), !dbg !4107
  tail call void @llvm.experimental.noalias.scope.decl(metadata !4207), !dbg !4089
  call void @llvm.dbg.value(metadata ptr %other_task, metadata !1077, metadata !DIExpression()), !dbg !4210
  %65 = load ptr, ptr %other_task, align 8, !dbg !4212, !alias.scope !4207, !noundef !29
  %.not.i = icmp eq ptr %65, null, !dbg !4212
  br i1 %.not.i, label %bb3.i, label %bb2.i91, !dbg !4212

bb2.i91:                                          ; preds = %bb39
  %_1.val1.i = load ptr, ptr %_61, align 8, !dbg !4212, !alias.scope !4207, !noundef !29
  call void @llvm.dbg.value(metadata ptr undef, metadata !1089, metadata !DIExpression()), !dbg !4213
  call void @llvm.dbg.value(metadata ptr undef, metadata !1099, metadata !DIExpression()), !dbg !4215
  %66 = getelementptr inbounds i8, ptr %65, i64 24, !dbg !4217
  %_2.i.i.i = load ptr, ptr %66, align 8, !dbg !4217, !noalias !4207, !nonnull !29, !noundef !29
  invoke void %_2.i.i.i(ptr noundef %_1.val1.i)
          to label %bb12 unwind label %cleanup29, !dbg !4217

bb3.i:                                            ; preds = %bb39
  tail call void @llvm.experimental.noalias.scope.decl(metadata !4218), !dbg !4212
  call void @llvm.dbg.value(metadata ptr %_61, metadata !1113, metadata !DIExpression()), !dbg !4221
  tail call void @llvm.experimental.noalias.scope.decl(metadata !4223), !dbg !4226
  call void @llvm.dbg.value(metadata ptr %_61, metadata !1127, metadata !DIExpression()), !dbg !4227
  tail call void @llvm.experimental.noalias.scope.decl(metadata !4229), !dbg !4232
  call void @llvm.dbg.value(metadata i64 1, metadata !1141, metadata !DIExpression()), !dbg !4233
  call void @llvm.dbg.value(metadata i8 1, metadata !1151, metadata !DIExpression()), !dbg !4233
  call void @llvm.dbg.value(metadata i64 1, metadata !1162, metadata !DIExpression()), !dbg !4236
  call void @llvm.dbg.value(metadata i8 1, metadata !1170, metadata !DIExpression()), !dbg !4236
  call void @llvm.dbg.value(metadata i8 2, metadata !1173, metadata !DIExpression()), !dbg !4238
  call void @llvm.dbg.value(metadata ptr %_61, metadata !1160, metadata !DIExpression()), !dbg !4240
  call void @llvm.dbg.value(metadata ptr %_61, metadata !1182, metadata !DIExpression()), !dbg !4241
  call void @llvm.dbg.value(metadata ptr %_61, metadata !1193, metadata !DIExpression()), !dbg !4243
  %self6.i.i.i.i = load ptr, ptr %_61, align 8, !dbg !4245, !alias.scope !4246, !nonnull !29, !noundef !29
  call void @llvm.dbg.value(metadata ptr %self6.i.i.i.i, metadata !1150, metadata !DIExpression()), !dbg !4233
  call void @llvm.dbg.value(metadata ptr %self6.i.i.i.i, metadata !1169, metadata !DIExpression()), !dbg !4236
  %67 = atomicrmw sub ptr %self6.i.i.i.i, i64 1 release, align 8, !dbg !4247, !noalias !4246
  %68 = icmp eq i64 %67, 1, !dbg !4248
  br i1 %68, label %bb2.i.i.i.i92, label %bb12, !dbg !4248

bb2.i.i.i.i92:                                    ; preds = %bb3.i
  fence acquire, !dbg !4249
; call alloc::sync::Arc<T,A>::drop_slow
  call fastcc void @"_ZN5alloc4sync16Arc$LT$T$C$A$GT$9drop_slow17h5f7fc8bc35814c1fE"(ptr noalias noundef nonnull align 8 dereferenceable(8) %_61), !dbg !4250
  br label %bb12, !dbg !4250

bb12:                                             ; preds = %bb2.i.i.i.i92, %bb3.i, %bb2.i91, %bb42
  call void @llvm.lifetime.end.p0(i64 16, ptr nonnull %other_task), !dbg !4089
  br label %bb14, !dbg !4089

cleanup29:                                        ; preds = %bb2.i.i119, %bb2.i91, %bb3
  %_35.sroa.0.4 = phi i8 [ 1, %bb3 ], [ 0, %bb2.i91 ], [ 1, %bb2.i.i119 ], !dbg !3791
  %69 = landingpad { ptr, i32 }
          cleanup
  br label %bb19

bb42:                                             ; preds = %bb2.i.i.i.i.i, %bb3.i.i, %bb9, %bb2.i.i78
  call void @llvm.lifetime.end.p0(i64 24, ptr nonnull %result4), !dbg !4107
  br label %bb12, !dbg !4089

bb14:                                             ; preds = %bb40, %bb12
  %.not48 = phi i1 [ false, %bb40 ], [ true, %bb12 ], !dbg !3791
  %_35.sroa.0.5 = phi i8 [ 1, %bb40 ], [ 0, %bb12 ], !dbg !3791
  tail call void @llvm.experimental.noalias.scope.decl(metadata !4251), !dbg !3787
  call void @llvm.dbg.value(metadata ptr %inner, metadata !2346, metadata !DIExpression()), !dbg !4254
  tail call void @llvm.experimental.noalias.scope.decl(metadata !4256), !dbg !4259
  call void @llvm.dbg.value(metadata i8 1, metadata !2360, metadata !DIExpression()), !dbg !4260
  call void @llvm.dbg.value(metadata ptr %inner, metadata !2378, metadata !DIExpression()), !dbg !4263
  call void @llvm.dbg.value(metadata ptr %inner, metadata !3404, metadata !DIExpression()), !dbg !4264
  call void @llvm.dbg.value(metadata ptr %inner, metadata !3399, metadata !DIExpression(DW_OP_plus_uconst, 8, DW_OP_stack_value)), !dbg !4266
  %_12.i.i95 = load ptr, ptr %9, align 8, !dbg !4268, !alias.scope !4251, !nonnull !29, !align !2272, !noundef !29
  call void @llvm.dbg.value(metadata ptr %_12.i.i95, metadata !2379, metadata !DIExpression(DW_OP_plus_uconst, 8, DW_OP_stack_value)), !dbg !4269
  %70 = getelementptr inbounds i8, ptr %_12.i.i95, i64 40, !dbg !4270
  %_4.i.i96 = load i64, ptr %70, align 8, !dbg !4270, !noalias !4271, !noundef !29
  %71 = getelementptr inbounds i8, ptr %_12.i.i95, i64 32, !dbg !4272
  %_5.i.i97 = load i64, ptr %71, align 8, !dbg !4272, !noalias !4271, !noundef !29
  %_3.i.i98 = icmp ult i64 %_4.i.i96, %_5.i.i97, !dbg !4270
  %_4..i.i99 = select i1 %_3.i.i98, i64 %_4.i.i96, i64 -1, !dbg !4273
  call void @llvm.dbg.value(metadata i64 %_4..i.i99, metadata !2381, metadata !DIExpression()), !dbg !4274
  %_8.i.i100 = load ptr, ptr %inner, align 8, !dbg !4275, !alias.scope !4271, !nonnull !29, !align !2272, !noundef !29
  call void @llvm.dbg.value(metadata ptr %_8.i.i100, metadata !2367, metadata !DIExpression(DW_OP_plus_uconst, 48, DW_OP_stack_value)), !dbg !4260
  call void @llvm.dbg.value(metadata i64 %_4..i.i99, metadata !2368, metadata !DIExpression()), !dbg !4260
  call void @llvm.dbg.value(metadata ptr %_8.i.i100, metadata !2390, metadata !DIExpression(DW_OP_plus_uconst, 48, DW_OP_stack_value)), !dbg !4276
  %_17.i.i101 = getelementptr inbounds i8, ptr %_8.i.i100, i64 48, !dbg !4278
  call void @llvm.dbg.value(metadata i8 1, metadata !2401, metadata !DIExpression()), !dbg !4279
  call void @llvm.dbg.value(metadata ptr %_17.i.i101, metadata !2406, metadata !DIExpression()), !dbg !4279
  call void @llvm.dbg.value(metadata i64 %_4..i.i99, metadata !2407, metadata !DIExpression()), !dbg !4279
  store atomic i64 %_4..i.i99, ptr %_17.i.i101 release, align 8, !dbg !4281, !noalias !4271
  %.val3.i102 = load i8, ptr %10, align 8, !dbg !4259, !range !2411, !alias.scope !4282, !noundef !29
  call void @llvm.dbg.value(metadata ptr undef, metadata !2415, metadata !DIExpression()), !dbg !4285
  call void @llvm.dbg.value(metadata i32 0, metadata !2423, metadata !DIExpression()), !dbg !4287
  call void @llvm.dbg.value(metadata i8 1, metadata !2431, metadata !DIExpression()), !dbg !4287
  call void @llvm.dbg.value(metadata i32 0, metadata !2447, metadata !DIExpression()), !dbg !4291
  call void @llvm.dbg.value(metadata i8 1, metadata !2454, metadata !DIExpression()), !dbg !4291
  call void @llvm.dbg.value(metadata ptr undef, metadata !2445, metadata !DIExpression()), !dbg !4293
  %_3.i.i.i103 = getelementptr inbounds i8, ptr %_12.i.i95, i64 4, !dbg !4294
  call void @llvm.dbg.value(metadata ptr @_ZN3std9panicking11panic_count18GLOBAL_PANIC_COUNT17h00e7dcd913cdfbe0E, metadata !2459, metadata !DIExpression()), !dbg !4295
  call void @llvm.dbg.value(metadata i8 0, metadata !2463, metadata !DIExpression()), !dbg !4295
  call void @llvm.dbg.value(metadata i8 1, metadata !2484, metadata !DIExpression()), !dbg !4301
  call void @llvm.dbg.value(metadata i8 0, metadata !2492, metadata !DIExpression()), !dbg !4301
  call void @llvm.dbg.value(metadata ptr %_3.i.i.i103, metadata !2481, metadata !DIExpression()), !dbg !4303
  call void @llvm.dbg.value(metadata ptr undef, metadata !2482, metadata !DIExpression()), !dbg !4303
  %_3.not.i.i.i.i104 = icmp eq i8 %.val3.i102, 0, !dbg !4304
  br i1 %_3.not.i.i.i.i104, label %bb1.i.i.i.i108, label %_ZN3std4sync6poison4Flag4done17h6b62417d8d60c5ceE.exit.i.i.i105, !dbg !4304

bb1.i.i.i.i108:                                   ; preds = %bb14
  call void @llvm.dbg.value(metadata i8 0, metadata !2070, metadata !DIExpression()), !dbg !4305
  call void @llvm.dbg.value(metadata ptr @_ZN3std9panicking11panic_count18GLOBAL_PANIC_COUNT17h00e7dcd913cdfbe0E, metadata !2076, metadata !DIExpression()), !dbg !4305
  %72 = load atomic i64, ptr @_ZN3std9panicking11panic_count18GLOBAL_PANIC_COUNT17h00e7dcd913cdfbe0E monotonic, align 8, !dbg !4307, !noalias !4308
  %_7.i.i.i.i109 = and i64 %72, 9223372036854775807, !dbg !4311
  %73 = icmp eq i64 %_7.i.i.i.i109, 0, !dbg !4311
  br i1 %73, label %_ZN3std4sync6poison4Flag4done17h6b62417d8d60c5ceE.exit.i.i.i105, label %bb6.i.i.i.i110, !dbg !4311

bb6.i.i.i.i110:                                   ; preds = %bb1.i.i.i.i108
; invoke std::panicking::panic_count::is_zero_slow_path
  %_6.i.i.i.i111113 = invoke noundef zeroext i1 @_ZN3std9panicking11panic_count17is_zero_slow_path17h24de30857bbd803cE()
          to label %_6.i.i.i.i111.noexc unwind label %cleanup25, !dbg !4312

_6.i.i.i.i111.noexc:                              ; preds = %bb6.i.i.i.i110
  br i1 %_6.i.i.i.i111113, label %_ZN3std4sync6poison4Flag4done17h6b62417d8d60c5ceE.exit.i.i.i105, label %bb2.i.i.i.i112, !dbg !4313

bb2.i.i.i.i112:                                   ; preds = %_6.i.i.i.i111.noexc
  call void @llvm.dbg.value(metadata ptr %_3.i.i.i103, metadata !2491, metadata !DIExpression()), !dbg !4301
  call void @llvm.dbg.value(metadata i8 0, metadata !2506, metadata !DIExpression()), !dbg !4314
  call void @llvm.dbg.value(metadata ptr %_3.i.i.i103, metadata !2511, metadata !DIExpression()), !dbg !4314
  call void @llvm.dbg.value(metadata i8 1, metadata !2512, metadata !DIExpression()), !dbg !4314
  store atomic i8 1, ptr %_3.i.i.i103 monotonic, align 4, !dbg !4316, !noalias !4308
  br label %_ZN3std4sync6poison4Flag4done17h6b62417d8d60c5ceE.exit.i.i.i105, !dbg !4317

_ZN3std4sync6poison4Flag4done17h6b62417d8d60c5ceE.exit.i.i.i105: ; preds = %bb2.i.i.i.i112, %_6.i.i.i.i111.noexc, %bb1.i.i.i.i108, %bb14
  call void @llvm.dbg.value(metadata ptr %_12.i.i95, metadata !2438, metadata !DIExpression()), !dbg !4318
  call void @llvm.dbg.value(metadata ptr %_12.i.i95, metadata !2430, metadata !DIExpression()), !dbg !4287
  call void @llvm.dbg.value(metadata ptr %_12.i.i95, metadata !2453, metadata !DIExpression()), !dbg !4291
  %74 = atomicrmw xchg ptr %_12.i.i95, i32 0 release, align 4, !dbg !4319, !noalias !4308
  %_8.i.i.i106 = icmp eq i32 %74, 2, !dbg !4320
  br i1 %_8.i.i.i106, label %bb2.i.i.i107, label %bb15, !dbg !4320

bb2.i.i.i107:                                     ; preds = %_ZN3std4sync6poison4Flag4done17h6b62417d8d60c5ceE.exit.i.i.i105
; invoke std::sys::sync::mutex::futex::Mutex::wake
  invoke void @_ZN3std3sys4sync5mutex5futex5Mutex4wake17hc487312157454c34E(ptr noundef nonnull align 4 %_12.i.i95)
          to label %bb15 unwind label %cleanup25, !dbg !4321

bb27:                                             ; preds = %bb10, %bb2.i.i83
  %lpad.thr_comm = landingpad { ptr, i32 }
          cleanup
; invoke core::ptr::drop_in_place<event_listener::Task>
  invoke fastcc void @"_ZN4core3ptr41drop_in_place$LT$event_listener..Task$GT$17h4254889b83f705ffE"(ptr noalias noundef nonnull align 8 dereferenceable(16) %25) #23
          to label %bb19 unwind label %terminate, !dbg !4089

terminate:                                        ; preds = %bb32, %bb19, %bb27
  %75 = landingpad { ptr, i32 }
          filter [0 x ptr] zeroinitializer
; call core::panicking::panic_in_cleanup
  tail call void @_ZN4core9panicking16panic_in_cleanup17h43442956f23e9cbeE() #24, !dbg !4322
  unreachable, !dbg !4322

bb13:                                             ; preds = %bb3
  %val3.sroa.2.8.sroa_idx = getelementptr inbounds i8, ptr %val3.sroa.2, i64 7, !dbg !4323
  call void @llvm.memcpy.p0.p0.i64(ptr noundef nonnull align 1 dereferenceable(16) %val3.sroa.2.8.sroa_idx, ptr noundef nonnull align 8 dereferenceable(16) %_33, i64 16, i1 false), !dbg !4323
  tail call void @llvm.dbg.value(metadata i8 2, metadata !3626, metadata !DIExpression(DW_OP_LLVM_fragment, 0, 8)), !dbg !3810
  tail call void @llvm.dbg.value(metadata i8 2, metadata !3614, metadata !DIExpression(DW_OP_LLVM_fragment, 0, 8)), !dbg !3811
  tail call void @llvm.dbg.value(metadata i8 2, metadata !3601, metadata !DIExpression(DW_OP_LLVM_fragment, 0, 8)), !dbg !4324
  tail call void @llvm.dbg.value(metadata i8 2, metadata !3573, metadata !DIExpression(DW_OP_LLVM_fragment, 0, 8)), !dbg !4325
  call void @llvm.lifetime.end.p0(i64 16, ptr nonnull %_33), !dbg !4326
  call void @llvm.lifetime.start.p0(i64 24, ptr nonnull %result6), !dbg !4327
  tail call void @llvm.dbg.value(metadata ptr %x10, metadata !3600, metadata !DIExpression()), !dbg !4324
  tail call void @llvm.dbg.value(metadata ptr %x10, metadata !3802, metadata !DIExpression()), !dbg !4328
  tail call void @llvm.dbg.value(metadata ptr %x10, metadata !3583, metadata !DIExpression()), !dbg !4325
  call void @llvm.memcpy.p0.p0.i64(ptr noundef nonnull align 8 dereferenceable(24) %result6, ptr noundef nonnull align 8 dereferenceable(24) %x10, i64 24, i1 false), !dbg !4330
  store i8 2, ptr %x10, align 8, !dbg !4331
  call void @llvm.memcpy.p0.p0.i64(ptr noundef nonnull align 1 dereferenceable(23) %val.sroa.2.0._6.sroa.0.0.listener12.sroa_idx, ptr noundef nonnull align 1 dereferenceable(23) %val3.sroa.2, i64 23, i1 false), !dbg !4331
  tail call void @llvm.experimental.noalias.scope.decl(metadata !4332), !dbg !4335
  call void @llvm.dbg.value(metadata ptr %result6, metadata !1064, metadata !DIExpression()), !dbg !4336
  %76 = load i8, ptr %result6, align 8, !dbg !4338, !range !1056, !alias.scope !4332, !noundef !29
  %cond.i116 = icmp eq i8 %76, 2, !dbg !4338
  br i1 %cond.i116, label %bb2.i117, label %bb40, !dbg !4338

bb2.i117:                                         ; preds = %bb13
  %77 = getelementptr inbounds i8, ptr %result6, i64 8, !dbg !4338
  tail call void @llvm.experimental.noalias.scope.decl(metadata !4339), !dbg !4338
  call void @llvm.dbg.value(metadata ptr %77, metadata !1077, metadata !DIExpression()), !dbg !4342
  %78 = load ptr, ptr %77, align 8, !dbg !4344, !alias.scope !4345, !noundef !29
  %.not.i.i118 = icmp eq ptr %78, null, !dbg !4344
  %79 = getelementptr inbounds i8, ptr %result6, i64 16, !dbg !4344
  br i1 %.not.i.i118, label %bb3.i.i122, label %bb2.i.i119, !dbg !4344

bb2.i.i119:                                       ; preds = %bb2.i117
  %_1.val1.i.i120 = load ptr, ptr %79, align 8, !dbg !4344, !alias.scope !4345, !noundef !29
  call void @llvm.dbg.value(metadata ptr undef, metadata !1089, metadata !DIExpression()), !dbg !4346
  call void @llvm.dbg.value(metadata ptr undef, metadata !1099, metadata !DIExpression()), !dbg !4348
  %80 = getelementptr inbounds i8, ptr %78, i64 24, !dbg !4350
  %_2.i.i.i.i121 = load ptr, ptr %80, align 8, !dbg !4350, !noalias !4345, !nonnull !29, !noundef !29
  invoke void %_2.i.i.i.i121(ptr noundef %_1.val1.i.i120)
          to label %bb40 unwind label %cleanup29, !dbg !4350

bb3.i.i122:                                       ; preds = %bb2.i117
  tail call void @llvm.experimental.noalias.scope.decl(metadata !4351), !dbg !4344
  call void @llvm.dbg.value(metadata ptr %79, metadata !1113, metadata !DIExpression()), !dbg !4354
  tail call void @llvm.experimental.noalias.scope.decl(metadata !4356), !dbg !4359
  call void @llvm.dbg.value(metadata ptr %79, metadata !1127, metadata !DIExpression()), !dbg !4360
  tail call void @llvm.experimental.noalias.scope.decl(metadata !4362), !dbg !4365
  call void @llvm.dbg.value(metadata i64 1, metadata !1141, metadata !DIExpression()), !dbg !4366
  call void @llvm.dbg.value(metadata i8 1, metadata !1151, metadata !DIExpression()), !dbg !4366
  call void @llvm.dbg.value(metadata i64 1, metadata !1162, metadata !DIExpression()), !dbg !4369
  call void @llvm.dbg.value(metadata i8 1, metadata !1170, metadata !DIExpression()), !dbg !4369
  call void @llvm.dbg.value(metadata i8 2, metadata !1173, metadata !DIExpression()), !dbg !4371
  call void @llvm.dbg.value(metadata ptr %79, metadata !1160, metadata !DIExpression()), !dbg !4373
  call void @llvm.dbg.value(metadata ptr %79, metadata !1182, metadata !DIExpression()), !dbg !4374
  call void @llvm.dbg.value(metadata ptr %79, metadata !1193, metadata !DIExpression()), !dbg !4376
  %self6.i.i.i.i.i123 = load ptr, ptr %79, align 8, !dbg !4378, !alias.scope !4379, !nonnull !29, !noundef !29
  call void @llvm.dbg.value(metadata ptr %self6.i.i.i.i.i123, metadata !1150, metadata !DIExpression()), !dbg !4366
  call void @llvm.dbg.value(metadata ptr %self6.i.i.i.i.i123, metadata !1169, metadata !DIExpression()), !dbg !4369
  %81 = atomicrmw sub ptr %self6.i.i.i.i.i123, i64 1 release, align 8, !dbg !4380, !noalias !4379
  %82 = icmp eq i64 %81, 1, !dbg !4381
  br i1 %82, label %bb2.i.i.i.i.i124, label %bb40, !dbg !4381

bb2.i.i.i.i.i124:                                 ; preds = %bb3.i.i122
  fence acquire, !dbg !4382
; call alloc::sync::Arc<T,A>::drop_slow
  call fastcc void @"_ZN5alloc4sync16Arc$LT$T$C$A$GT$9drop_slow17h5f7fc8bc35814c1fE"(ptr noalias noundef nonnull align 8 dereferenceable(8) %79), !dbg !4383
  br label %bb40, !dbg !4383

bb40:                                             ; preds = %bb2.i.i.i.i.i124, %bb3.i.i122, %bb13, %bb2.i.i119
  call void @llvm.lifetime.end.p0(i64 24, ptr nonnull %result6), !dbg !4335
  br label %bb14, !dbg !4384

bb15:                                             ; preds = %_ZN3std4sync6poison4Flag4done17h6b62417d8d60c5ceE.exit.i.i.i105, %bb2.i.i.i107
  call void @llvm.lifetime.end.p0(i64 24, ptr nonnull %inner), !dbg !3787
  %83 = load i8, ptr %result, align 8, !dbg !3787, !range !1056, !noundef !29
  %cond34 = icmp ne i8 %83, 2, !dbg !3787
  %or.cond144 = or i1 %.not48, %cond34, !dbg !3787
  br i1 %or.cond144, label %bb22, label %bb26, !dbg !3787

bb26:                                             ; preds = %bb15, %bb41
  %_0.sroa.0.2139 = phi i8 [ 0, %bb41 ], [ 1, %bb15 ]
  %84 = getelementptr inbounds i8, ptr %result, i64 8, !dbg !3787
  tail call void @llvm.experimental.noalias.scope.decl(metadata !4385), !dbg !3787
  call void @llvm.dbg.value(metadata ptr %84, metadata !1077, metadata !DIExpression()), !dbg !4388
  %85 = load ptr, ptr %84, align 8, !dbg !4390, !alias.scope !4385, !noundef !29
  %.not.i127 = icmp eq ptr %85, null, !dbg !4390
  %86 = getelementptr inbounds i8, ptr %result, i64 16, !dbg !4390
  br i1 %.not.i127, label %bb3.i131, label %bb2.i128, !dbg !4390

bb2.i128:                                         ; preds = %bb26
  %_1.val1.i129 = load ptr, ptr %86, align 8, !dbg !4390, !alias.scope !4385, !noundef !29
  call void @llvm.dbg.value(metadata ptr undef, metadata !1089, metadata !DIExpression()), !dbg !4391
  call void @llvm.dbg.value(metadata ptr undef, metadata !1099, metadata !DIExpression()), !dbg !4393
  %87 = getelementptr inbounds i8, ptr %85, i64 24, !dbg !4395
  %_2.i.i.i130 = load ptr, ptr %87, align 8, !dbg !4395, !noalias !4385, !nonnull !29, !noundef !29
  tail call void %_2.i.i.i130(ptr noundef %_1.val1.i129), !dbg !4395, !noalias !4385
  br label %bb22, !dbg !4390

bb3.i131:                                         ; preds = %bb26
  tail call void @llvm.experimental.noalias.scope.decl(metadata !4396), !dbg !4390
  call void @llvm.dbg.value(metadata ptr %86, metadata !1113, metadata !DIExpression()), !dbg !4399
  tail call void @llvm.experimental.noalias.scope.decl(metadata !4401), !dbg !4404
  call void @llvm.dbg.value(metadata ptr %86, metadata !1127, metadata !DIExpression()), !dbg !4405
  tail call void @llvm.experimental.noalias.scope.decl(metadata !4407), !dbg !4410
  call void @llvm.dbg.value(metadata i64 1, metadata !1141, metadata !DIExpression()), !dbg !4411
  call void @llvm.dbg.value(metadata i8 1, metadata !1151, metadata !DIExpression()), !dbg !4411
  call void @llvm.dbg.value(metadata i64 1, metadata !1162, metadata !DIExpression()), !dbg !4414
  call void @llvm.dbg.value(metadata i8 1, metadata !1170, metadata !DIExpression()), !dbg !4414
  call void @llvm.dbg.value(metadata i8 2, metadata !1173, metadata !DIExpression()), !dbg !4416
  call void @llvm.dbg.value(metadata ptr %86, metadata !1160, metadata !DIExpression()), !dbg !4418
  call void @llvm.dbg.value(metadata ptr %86, metadata !1182, metadata !DIExpression()), !dbg !4419
  call void @llvm.dbg.value(metadata ptr %86, metadata !1193, metadata !DIExpression()), !dbg !4421
  %self6.i.i.i.i132 = load ptr, ptr %86, align 8, !dbg !4423, !alias.scope !4424, !nonnull !29, !noundef !29
  call void @llvm.dbg.value(metadata ptr %self6.i.i.i.i132, metadata !1150, metadata !DIExpression()), !dbg !4411
  call void @llvm.dbg.value(metadata ptr %self6.i.i.i.i132, metadata !1169, metadata !DIExpression()), !dbg !4414
  %88 = atomicrmw sub ptr %self6.i.i.i.i132, i64 1 release, align 8, !dbg !4425, !noalias !4424
  %89 = icmp eq i64 %88, 1, !dbg !4426
  br i1 %89, label %bb2.i.i.i.i133, label %bb22, !dbg !4426

bb2.i.i.i.i133:                                   ; preds = %bb3.i131
  fence acquire, !dbg !4427
; call alloc::sync::Arc<T,A>::drop_slow
  call fastcc void @"_ZN5alloc4sync16Arc$LT$T$C$A$GT$9drop_slow17h5f7fc8bc35814c1fE"(ptr noalias noundef nonnull align 8 dereferenceable(8) %86), !dbg !4428
  br label %bb22, !dbg !4428

bb20:                                             ; preds = %bb33, %bb32
  resume { ptr, i32 } %.pn46, !dbg !4322

bb32:                                             ; preds = %bb33
  %90 = getelementptr inbounds i8, ptr %result, i64 8, !dbg !3787
; invoke core::ptr::drop_in_place<event_listener::Task>
  invoke fastcc void @"_ZN4core3ptr41drop_in_place$LT$event_listener..Task$GT$17h4254889b83f705ffE"(ptr noalias noundef nonnull align 8 dereferenceable(16) %90) #23
          to label %bb20 unwind label %terminate, !dbg !3787
}

; std::io::Write::write_fmt
; Function Attrs: nonlazybind uwtable
define internal fastcc noundef ptr @_ZN3std2io5Write9write_fmt17hefe46ffef5847131E(ptr noalias noundef nonnull align 1 %self, ptr noalias nocapture noundef readonly align 8 dereferenceable(48) %fmt) unnamed_addr #0 personality ptr @rust_eh_personality !dbg !4429 {
start:
  %_10 = alloca [48 x i8], align 8
  %output = alloca [16 x i8], align 8
  tail call void @llvm.dbg.value(metadata ptr @alloc_b715a4cb67d5838cf1e1986f5e19fc38, metadata !4440, metadata !DIExpression()), !dbg !4444
  tail call void @llvm.dbg.value(metadata ptr %self, metadata !4434, metadata !DIExpression()), !dbg !4447
  call void @llvm.dbg.declare(metadata ptr %fmt, metadata !4435, metadata !DIExpression()), !dbg !4448
  call void @llvm.dbg.declare(metadata ptr %output, metadata !4436, metadata !DIExpression()), !dbg !4449
  call void @llvm.lifetime.start.p0(i64 16, ptr nonnull %output), !dbg !4450
  store ptr %self, ptr %output, align 8, !dbg !4451
  %0 = getelementptr inbounds i8, ptr %output, i64 8, !dbg !4451
  store ptr null, ptr %0, align 8, !dbg !4451
; invoke core::fmt::write
  %1 = invoke noundef zeroext i1 @_ZN4core3fmt5write17h2b71bd12250911d0E(ptr noundef nonnull align 1 %output, ptr noalias noundef nonnull readonly align 8 dereferenceable(48) @vtable.0, ptr noalias nocapture noundef nonnull readonly align 8 dereferenceable(48) %fmt)
          to label %bb1 unwind label %cleanup, !dbg !4452

cleanup:                                          ; preds = %bb9, %start
  %2 = landingpad { ptr, i32 }
          cleanup
  call void @llvm.dbg.value(metadata ptr %output, metadata !4453, metadata !DIExpression()), !dbg !4461
  %.val.i = load ptr, ptr %0, align 8, !dbg !4463, !alias.scope !4464, !noundef !29
  call void @llvm.dbg.value(metadata ptr undef, metadata !4467, metadata !DIExpression()), !dbg !4475
  %3 = icmp eq ptr %.val.i, null, !dbg !4477
  br i1 %3, label %bb6, label %bb2.i.i, !dbg !4477

bb2.i.i:                                          ; preds = %cleanup
; invoke core::ptr::drop_in_place<std::io::error::Error>
  invoke fastcc void @"_ZN4core3ptr42drop_in_place$LT$std..io..error..Error$GT$17ha7b6225b3aff14ebE"(ptr nonnull %.val.i)
          to label %bb6 unwind label %terminate, !dbg !4477

bb1:                                              ; preds = %start
  %4 = load ptr, ptr %0, align 8, !dbg !4447, !noundef !29
  %5 = icmp eq ptr %4, null, !dbg !4447
  br i1 %1, label %bb3, label %bb4, !dbg !4478

bb4:                                              ; preds = %bb1
  call void @llvm.dbg.value(metadata ptr undef, metadata !4467, metadata !DIExpression()), !dbg !4479
  br i1 %5, label %bb7, label %bb2.i, !dbg !4481

bb2.i:                                            ; preds = %bb4
; call core::ptr::drop_in_place<std::io::error::Error>
  call fastcc void @"_ZN4core3ptr42drop_in_place$LT$std..io..error..Error$GT$17ha7b6225b3aff14ebE"(ptr nonnull %4), !dbg !4481
  br label %bb7, !dbg !4481

bb3:                                              ; preds = %bb1
  tail call void @llvm.dbg.value(metadata ptr %output, metadata !4482, metadata !DIExpression(DW_OP_plus_uconst, 8, DW_OP_stack_value)), !dbg !4490
  tail call void @llvm.dbg.value(metadata ptr %output, metadata !4492, metadata !DIExpression(DW_OP_plus_uconst, 8, DW_OP_stack_value)), !dbg !4497
  br i1 %5, label %bb9, label %bb7, !dbg !4499

bb7:                                              ; preds = %bb2.i, %bb4, %bb3
  %_0.sroa.0.0 = phi ptr [ %4, %bb3 ], [ null, %bb4 ], [ null, %bb2.i ], !dbg !4501
  call void @llvm.lifetime.end.p0(i64 16, ptr nonnull %output), !dbg !4502
  ret ptr %_0.sroa.0.0, !dbg !4503

bb9:                                              ; preds = %bb3
  call void @llvm.lifetime.start.p0(i64 48, ptr nonnull %_10), !dbg !4504
  store ptr @alloc_b715a4cb67d5838cf1e1986f5e19fc38, ptr %_10, align 8, !dbg !4505
  %6 = getelementptr inbounds i8, ptr %_10, i64 8, !dbg !4505
  store i64 1, ptr %6, align 8, !dbg !4505
  %7 = getelementptr inbounds i8, ptr %_10, i64 32, !dbg !4505
  store ptr null, ptr %7, align 8, !dbg !4505
  %8 = getelementptr inbounds i8, ptr %_10, i64 16, !dbg !4505
  store ptr inttoptr (i64 8 to ptr), ptr %8, align 8, !dbg !4505
  %9 = getelementptr inbounds i8, ptr %_10, i64 24, !dbg !4505
  store i64 0, ptr %9, align 8, !dbg !4505
; invoke core::panicking::panic_fmt
  invoke void @_ZN4core9panicking9panic_fmt17h3111a7beccfa68f5E(ptr noalias nocapture noundef nonnull readonly align 8 dereferenceable(48) %_10, ptr noalias noundef nonnull readonly align 8 dereferenceable(24) @alloc_d06916582962d4b81ada4001356ac2bb) #22
          to label %unreachable unwind label %cleanup, !dbg !4504

unreachable:                                      ; preds = %bb9
  unreachable

terminate:                                        ; preds = %bb2.i.i
  %10 = landingpad { ptr, i32 }
          filter [0 x ptr] zeroinitializer
; call core::panicking::panic_in_cleanup
  call void @_ZN4core9panicking16panic_in_cleanup17h43442956f23e9cbeE() #24, !dbg !4506
  unreachable, !dbg !4506

bb6:                                              ; preds = %cleanup, %bb2.i.i
  resume { ptr, i32 } %2, !dbg !4506
}

; std::sys::thread_local::fast_local::lazy::Storage<T,D>::initialize
; Function Attrs: cold nonlazybind uwtable
define internal fastcc void @"_ZN3std3sys12thread_local10fast_local4lazy20Storage$LT$T$C$D$GT$10initialize17hff966bf621d1376aE"(ptr noalias nocapture noundef align 8 dereferenceable_or_null(40) %0) unnamed_addr #1 personality ptr @rust_eh_personality !dbg !4507 {
start:
  %_x = alloca [40 x i8], align 8
  call void @llvm.dbg.declare(metadata ptr %v, metadata !4622, metadata !DIExpression(DW_OP_LLVM_fragment, 64, 256)), !dbg !4630
  call void @llvm.dbg.declare(metadata ptr %v, metadata !4640, metadata !DIExpression(DW_OP_LLVM_fragment, 64, 256)), !dbg !4660
  call void @llvm.dbg.declare(metadata ptr %v, metadata !4649, metadata !DIExpression(DW_OP_LLVM_fragment, 64, 256)), !dbg !4661
  call void @llvm.dbg.declare(metadata ptr %v, metadata !4658, metadata !DIExpression(DW_OP_LLVM_fragment, 64, 256)), !dbg !4662
  %old = alloca [40 x i8], align 8
  call void @llvm.dbg.declare(metadata ptr poison, metadata !4663, metadata !DIExpression(DW_OP_LLVM_fragment, 64, 256)), !dbg !4674
  call void @llvm.dbg.declare(metadata ptr poison, metadata !4715, metadata !DIExpression(DW_OP_LLVM_fragment, 64, 256)), !dbg !4727
  %v = alloca [32 x i8], align 8
  call void @llvm.dbg.declare(metadata ptr undef, metadata !4712, metadata !DIExpression()), !dbg !4729
  tail call void @llvm.dbg.value(metadata ptr %0, metadata !4611, metadata !DIExpression()), !dbg !4730
  tail call void @llvm.dbg.value(metadata ptr %0, metadata !4711, metadata !DIExpression()), !dbg !4731
  tail call void @llvm.dbg.value(metadata ptr @"_ZN14event_listener21Listener$LT$T$C$B$GT$13wait_internal6PARKER29_$u7b$$u7b$constant$u7d$$u7d$28_$u7b$$u7b$closure$u7d$$u7d$3VAL17hfabc1e097e722479E", metadata !4610, metadata !DIExpression()), !dbg !4730
  call void @llvm.dbg.declare(metadata ptr undef, metadata !4612, metadata !DIExpression()), !dbg !4732
  call void @llvm.dbg.declare(metadata ptr %v, metadata !4613, metadata !DIExpression()), !dbg !4733
  call void @llvm.dbg.declare(metadata ptr undef, metadata !4724, metadata !DIExpression()), !dbg !4734
  call void @llvm.dbg.declare(metadata ptr %old, metadata !4615, metadata !DIExpression()), !dbg !4735
  call void @llvm.dbg.declare(metadata ptr %old, metadata !4641, metadata !DIExpression()), !dbg !4736
  call void @llvm.dbg.declare(metadata ptr poison, metadata !4617, metadata !DIExpression()), !dbg !4737
  call void @llvm.dbg.declare(metadata ptr %_x, metadata !4738, metadata !DIExpression()), !dbg !4744
  call void @llvm.dbg.declare(metadata ptr poison, metadata !4725, metadata !DIExpression()), !dbg !4746
  %1 = icmp eq ptr %0, null, !dbg !4747
  br i1 %1, label %bb16, label %bb13, !dbg !4748

bb13:                                             ; preds = %start
  tail call void @llvm.dbg.value(metadata ptr %0, metadata !4713, metadata !DIExpression()), !dbg !4749
  tail call void @llvm.experimental.noalias.scope.decl(metadata !4750), !dbg !4753
  call void @llvm.dbg.value(metadata ptr %0, metadata !4693, metadata !DIExpression()), !dbg !4754
  call void @llvm.dbg.declare(metadata ptr undef, metadata !4692, metadata !DIExpression()), !dbg !4755
  tail call void @llvm.experimental.noalias.scope.decl(metadata !4756), !dbg !4755
  call void @llvm.dbg.declare(metadata ptr poison, metadata !4759, metadata !DIExpression(DW_OP_LLVM_fragment, 64, 256)), !dbg !4767
  call void @llvm.dbg.declare(metadata ptr poison, metadata !4671, metadata !DIExpression(DW_OP_LLVM_fragment, 64, 256)), !dbg !4769
  call void @llvm.dbg.value(metadata ptr %0, metadata !4681, metadata !DIExpression()), !dbg !4770
  call void @llvm.dbg.value(metadata ptr %0, metadata !4670, metadata !DIExpression()), !dbg !4771
  call void @llvm.dbg.value(metadata ptr %0, metadata !4772, metadata !DIExpression()), !dbg !4779
  call void @llvm.dbg.value(metadata ptr %0, metadata !4766, metadata !DIExpression()), !dbg !4781
  call void @llvm.dbg.value(metadata i64 0, metadata !4671, metadata !DIExpression(DW_OP_LLVM_fragment, 0, 64)), !dbg !4771
  call void @llvm.dbg.value(metadata i64 0, metadata !4759, metadata !DIExpression(DW_OP_LLVM_fragment, 0, 64)), !dbg !4781
  %self2.sroa.0.0.copyload = load i64, ptr %0, align 8, !dbg !4782, !alias.scope !4783
  tail call void @llvm.dbg.value(metadata i64 %self2.sroa.0.0.copyload, metadata !4715, metadata !DIExpression(DW_OP_LLVM_fragment, 0, 64)), !dbg !4786
  tail call void @llvm.dbg.value(metadata i64 %self2.sroa.0.0.copyload, metadata !4663, metadata !DIExpression(DW_OP_LLVM_fragment, 0, 64)), !dbg !4787
  store i64 0, ptr %0, align 8, !dbg !4788, !alias.scope !4789, !noalias !4790
  %trunc.not = icmp eq i64 %self2.sroa.0.0.copyload, 0, !dbg !4791
  br i1 %trunc.not, label %bb16, label %bb17, !dbg !4791

bb16:                                             ; preds = %start, %bb13
  call void @llvm.dbg.declare(metadata ptr undef, metadata !4792, metadata !DIExpression()), !dbg !4801
  call void @llvm.dbg.declare(metadata ptr undef, metadata !4797, metadata !DIExpression()), !dbg !4801
  call void @llvm.dbg.declare(metadata ptr poison, metadata !4803, metadata !DIExpression(DW_OP_LLVM_fragment, 64, 128)), !dbg !4810
  call void @llvm.dbg.value(metadata ptr null, metadata !4803, metadata !DIExpression(DW_OP_LLVM_fragment, 0, 64)), !dbg !4819
  call void @llvm.memset.p0.i64(ptr noundef nonnull align 8 dereferenceable(16) %v, i8 0, i64 16, i1 false), !dbg !4820, !alias.scope !4821
  br label %bb15

bb17:                                             ; preds = %bb13
  %self2.sroa.5.0..sroa_idx = getelementptr inbounds i8, ptr %0, i64 8, !dbg !4782
  call void @llvm.memcpy.p0.p0.i64(ptr noundef nonnull align 8 dereferenceable(32) %v, ptr noundef nonnull align 8 dereferenceable(32) %self2.sroa.5.0..sroa_idx, i64 32, i1 false), !dbg !4826
  br label %bb15, !dbg !4827

bb15:                                             ; preds = %bb16, %bb17
  call void @llvm.lifetime.start.p0(i64 40, ptr nonnull %old), !dbg !4828
  tail call void @llvm.dbg.value(metadata ptr @"_ZN14event_listener21Listener$LT$T$C$B$GT$13wait_internal6PARKER29_$u7b$$u7b$constant$u7d$$u7d$28_$u7b$$u7b$closure$u7d$$u7d$3VAL17hfabc1e097e722479E", metadata !4657, metadata !DIExpression()), !dbg !4829
  tail call void @llvm.dbg.value(metadata ptr @"_ZN14event_listener21Listener$LT$T$C$B$GT$13wait_internal6PARKER29_$u7b$$u7b$constant$u7d$$u7d$28_$u7b$$u7b$closure$u7d$$u7d$3VAL17hfabc1e097e722479E", metadata !4648, metadata !DIExpression()), !dbg !4830
  tail call void @llvm.dbg.value(metadata ptr @"_ZN14event_listener21Listener$LT$T$C$B$GT$13wait_internal6PARKER29_$u7b$$u7b$constant$u7d$$u7d$28_$u7b$$u7b$closure$u7d$$u7d$3VAL17hfabc1e097e722479E", metadata !4639, metadata !DIExpression()), !dbg !4831
  tail call void @llvm.dbg.value(metadata ptr @"_ZN14event_listener21Listener$LT$T$C$B$GT$13wait_internal6PARKER29_$u7b$$u7b$constant$u7d$$u7d$28_$u7b$$u7b$closure$u7d$$u7d$3VAL17hfabc1e097e722479E", metadata !4832, metadata !DIExpression()), !dbg !4839
  tail call void @llvm.dbg.value(metadata ptr @"_ZN14event_listener21Listener$LT$T$C$B$GT$13wait_internal6PARKER29_$u7b$$u7b$constant$u7d$$u7d$28_$u7b$$u7b$closure$u7d$$u7d$3VAL17hfabc1e097e722479E", metadata !4629, metadata !DIExpression()), !dbg !4841
  tail call void @llvm.dbg.value(metadata i64 1, metadata !4658, metadata !DIExpression(DW_OP_LLVM_fragment, 0, 64)), !dbg !4829
  tail call void @llvm.dbg.value(metadata i64 1, metadata !4649, metadata !DIExpression(DW_OP_LLVM_fragment, 0, 64)), !dbg !4830
  tail call void @llvm.dbg.value(metadata i64 1, metadata !4640, metadata !DIExpression(DW_OP_LLVM_fragment, 0, 64)), !dbg !4831
  tail call void @llvm.dbg.value(metadata i64 1, metadata !4622, metadata !DIExpression(DW_OP_LLVM_fragment, 0, 64)), !dbg !4841
  call void @llvm.memcpy.p0.p0.i64(ptr noundef nonnull align 8 dereferenceable(40) %old, ptr noundef nonnull align 8 dereferenceable(40) @"_ZN14event_listener21Listener$LT$T$C$B$GT$13wait_internal6PARKER29_$u7b$$u7b$constant$u7d$$u7d$28_$u7b$$u7b$closure$u7d$$u7d$3VAL17hfabc1e097e722479E", i64 40, i1 false), !dbg !4842
  store i64 1, ptr @"_ZN14event_listener21Listener$LT$T$C$B$GT$13wait_internal6PARKER29_$u7b$$u7b$constant$u7d$$u7d$28_$u7b$$u7b$closure$u7d$$u7d$3VAL17hfabc1e097e722479E", align 8, !dbg !4843
  call void @llvm.memcpy.p0.p0.i64(ptr noundef nonnull align 8 dereferenceable(32) getelementptr inbounds (%"std::sys::thread_local::fast_local::lazy::Storage<core::cell::RefCell<core::option::Option<(parking::Parker, event_listener::Task)>>, ()>", ptr @"_ZN14event_listener21Listener$LT$T$C$B$GT$13wait_internal6PARKER29_$u7b$$u7b$constant$u7d$$u7d$28_$u7b$$u7b$closure$u7d$$u7d$3VAL17hfabc1e097e722479E", i64 0, i32 0, i32 0, i32 1, i64 0), ptr noundef nonnull align 8 dereferenceable(32) %v, i64 32, i1 false), !dbg !4843
  %_13 = load i64, ptr %old, align 8, !dbg !4844, !range !4845, !noundef !29
  %2 = icmp eq i64 %_13, 0, !dbg !4846
  br i1 %2, label %bb2, label %bb1, !dbg !4846

bb2:                                              ; preds = %bb15
  call void @llvm.dbg.value(metadata ptr @"_ZN14event_listener21Listener$LT$T$C$B$GT$13wait_internal6PARKER29_$u7b$$u7b$constant$u7d$$u7d$28_$u7b$$u7b$closure$u7d$$u7d$3VAL17hfabc1e097e722479E", metadata !4847, metadata !DIExpression()), !dbg !4853
; invoke std::sys::pal::unix::thread_local_dtor::register_dtor
  invoke void @_ZN3std3sys3pal4unix17thread_local_dtor13register_dtor17he5496cab91c7cb8cE(ptr noundef nonnull @"_ZN14event_listener21Listener$LT$T$C$B$GT$13wait_internal6PARKER29_$u7b$$u7b$constant$u7d$$u7d$28_$u7b$$u7b$closure$u7d$$u7d$3VAL17hfabc1e097e722479E", ptr noundef nonnull @_ZN3std3sys12thread_local10fast_local4lazy7destroy17h001634fc7a79e15eE)
          to label %bb5 unwind label %bb7, !dbg !4855

bb1:                                              ; preds = %bb15
  call void @llvm.lifetime.start.p0(i64 40, ptr nonnull %_x), !dbg !4856
  call void @llvm.memcpy.p0.p0.i64(ptr noundef nonnull align 8 dereferenceable(40) %_x, ptr noundef nonnull align 8 dereferenceable(40) %old, i64 40, i1 false), !dbg !4857
  tail call void @llvm.experimental.noalias.scope.decl(metadata !4858), !dbg !4861
  call void @llvm.dbg.value(metadata ptr %_x, metadata !4862, metadata !DIExpression()), !dbg !4867
  %_2.i = load i64, ptr %_x, align 8, !dbg !4869, !range !4845, !alias.scope !4858, !noundef !29
  %cond.i = icmp eq i64 %_2.i, 1, !dbg !4869
  br i1 %cond.i, label %bb2.i, label %bb22, !dbg !4869

bb2.i:                                            ; preds = %bb1
  tail call void @llvm.experimental.noalias.scope.decl(metadata !4870), !dbg !4869
  call void @llvm.dbg.value(metadata ptr %_x, metadata !4873, metadata !DIExpression(DW_OP_plus_uconst, 8, DW_OP_stack_value)), !dbg !4879
  %3 = getelementptr inbounds i8, ptr %_x, i64 16, !dbg !4881
  tail call void @llvm.experimental.noalias.scope.decl(metadata !4882), !dbg !4881
  call void @llvm.dbg.value(metadata ptr %3, metadata !4885, metadata !DIExpression()), !dbg !4893
  tail call void @llvm.experimental.noalias.scope.decl(metadata !4895), !dbg !4898
  call void @llvm.dbg.value(metadata ptr %3, metadata !4899, metadata !DIExpression()), !dbg !4905
  %4 = load ptr, ptr %3, align 8, !dbg !4907, !alias.scope !4908, !noundef !29
  %5 = icmp eq ptr %4, null, !dbg !4907
  br i1 %5, label %bb22, label %bb2.i.i.i.i, !dbg !4907

bb2.i.i.i.i:                                      ; preds = %bb2.i
  tail call void @llvm.experimental.noalias.scope.decl(metadata !4909), !dbg !4907
  call void @llvm.dbg.value(metadata ptr %3, metadata !4912, metadata !DIExpression()), !dbg !4918
  call void @llvm.dbg.value(metadata ptr %3, metadata !4920, metadata !DIExpression()), !dbg !4928
  call void @llvm.dbg.value(metadata ptr %3, metadata !1113, metadata !DIExpression()), !dbg !4930
  call void @llvm.dbg.value(metadata ptr %3, metadata !1127, metadata !DIExpression()), !dbg !4932
  call void @llvm.dbg.value(metadata i64 1, metadata !1141, metadata !DIExpression()), !dbg !4934
  call void @llvm.dbg.value(metadata i8 1, metadata !1151, metadata !DIExpression()), !dbg !4934
  call void @llvm.dbg.value(metadata i64 1, metadata !1162, metadata !DIExpression()), !dbg !4937
  call void @llvm.dbg.value(metadata i8 1, metadata !1170, metadata !DIExpression()), !dbg !4937
  call void @llvm.dbg.value(metadata i8 2, metadata !1173, metadata !DIExpression()), !dbg !4939
  call void @llvm.dbg.value(metadata ptr %3, metadata !1160, metadata !DIExpression()), !dbg !4941
  call void @llvm.dbg.value(metadata ptr %3, metadata !1182, metadata !DIExpression()), !dbg !4942
  call void @llvm.dbg.value(metadata ptr %3, metadata !1193, metadata !DIExpression()), !dbg !4944
  call void @llvm.dbg.value(metadata ptr %4, metadata !1150, metadata !DIExpression()), !dbg !4934
  call void @llvm.dbg.value(metadata ptr %4, metadata !1169, metadata !DIExpression()), !dbg !4937
  %6 = atomicrmw sub ptr %4, i64 1 release, align 8, !dbg !4946, !noalias !4947
  %7 = icmp eq i64 %6, 1, !dbg !4956
  br i1 %7, label %bb2.i.i.i.i.i.i.i.i.i, label %bb4.i.i.i.i.i, !dbg !4956

bb2.i.i.i.i.i.i.i.i.i:                            ; preds = %bb2.i.i.i.i
  fence acquire, !dbg !4957
; call alloc::sync::Arc<T,A>::drop_slow
  call fastcc void @"_ZN5alloc4sync16Arc$LT$T$C$A$GT$9drop_slow17h5f7fc8bc35814c1fE"(ptr noalias noundef nonnull align 8 dereferenceable(8) %3), !dbg !4958
