; ModuleID = 'async_signal.202203b544e74697-cgu.0'
source_filename = "async_signal.202203b544e74697-cgu.0"
target datalayout = "e-m:e-p270:32:32-p271:32:32-p272:64:64-i64:64-i128:128-f80:128-n8:16:32:64-S128"
target triple = "x86_64-unknown-linux-gnu"

%"core::sync::atomic::AtomicUsize" = type { i64 }
%"slab::Entry<core::option::Option<core::task::wake::Waker>>" = type { i64, [2 x i64] }
%"async_io::reactor::Direction" = type { %"core::option::Option<(usize, usize)>", %"slab::Slab<core::option::Option<core::task::wake::Waker>>", i64, %"core::option::Option<core::task::wake::Waker>" }
%"core::option::Option<(usize, usize)>" = type { i64, [2 x i64] }
%"slab::Slab<core::option::Option<core::task::wake::Waker>>" = type { %"alloc::vec::Vec<slab::Entry<core::option::Option<core::task::wake::Waker>>>", i64, i64 }
%"alloc::vec::Vec<slab::Entry<core::option::Option<core::task::wake::Waker>>>" = type { %"alloc::raw_vec::RawVec<slab::Entry<core::option::Option<core::task::wake::Waker>>>", i64 }
%"alloc::raw_vec::RawVec<slab::Entry<core::option::Option<core::task::wake::Waker>>>" = type { i64, ptr, %"alloc::alloc::Global" }
%"alloc::alloc::Global" = type {}
%"core::option::Option<core::task::wake::Waker>" = type { ptr, [1 x i64] }
%"signal_hook_registry::SigId" = type { i128, i32, [3 x i32] }

@_ZN3std9panicking11panic_count18GLOBAL_PANIC_COUNT17h00e7dcd913cdfbe0E = external local_unnamed_addr global %"core::sync::atomic::AtomicUsize"
@vtable.0 = private constant <{ [24 x i8], ptr }> <{ [24 x i8] c"\00\00\00\00\00\00\00\00\08\00\00\00\00\00\00\00\08\00\00\00\00\00\00\00", ptr @"_ZN4core3fmt3num52_$LT$impl$u20$core..fmt..Debug$u20$for$u20$usize$GT$3fmt17ha3731fb0f809905cE" }>, align 8, !dbg !0
@vtable.1 = private constant <{ [24 x i8], ptr }> <{ [24 x i8] c"\00\00\00\00\00\00\00\00\08\00\00\00\00\00\00\00\08\00\00\00\00\00\00\00", ptr @"_ZN42_$LT$$RF$T$u20$as$u20$core..fmt..Debug$GT$3fmt17hc8b5ecf03b0cbe9aE" }>, align 8, !dbg !13
@vtable.2 = private constant <{ [24 x i8], ptr }> <{ [24 x i8] c"\00\00\00\00\00\00\00\00\08\00\00\00\00\00\00\00\08\00\00\00\00\00\00\00", ptr @"_ZN42_$LT$$RF$T$u20$as$u20$core..fmt..Debug$GT$3fmt17h146d1ce221f8b843E" }>, align 8, !dbg !60
@vtable.3 = private constant <{ [24 x i8], ptr }> <{ [24 x i8] c"\00\00\00\00\00\00\00\00\08\00\00\00\00\00\00\00\08\00\00\00\00\00\00\00", ptr @"_ZN42_$LT$$RF$T$u20$as$u20$core..fmt..Debug$GT$3fmt17h1d69a82588c79890E" }>, align 8, !dbg !102
@vtable.4 = private constant <{ [24 x i8], ptr }> <{ [24 x i8] c"\00\00\00\00\00\00\00\00\08\00\00\00\00\00\00\00\08\00\00\00\00\00\00\00", ptr @"_ZN42_$LT$$RF$T$u20$as$u20$core..fmt..Debug$GT$3fmt17h77136a7a6810a7e1E" }>, align 8, !dbg !191
@alloc_ecae43ede18fdba78b6dffdc5df90dd8 = private unnamed_addr constant <{ [4 x i8] }> <{ [4 x i8] c"Slab" }>, align 1
@alloc_f92b1a49cd2fef011d7606f6333298f2 = private unnamed_addr constant <{ [3 x i8] }> <{ [3 x i8] c"len" }>, align 1
@alloc_84452d4c362ef91ce628cf4a12e63db7 = private unnamed_addr constant <{ [3 x i8] }> <{ [3 x i8] c"cap" }>, align 1
@alloc_e7747642fb036448f60b3f6e680665e5 = private unnamed_addr constant <{ [5 x i8] }> <{ [5 x i8] c"Async" }>, align 1
@alloc_2d1abda73e6150f56d5ce7d36aeb59ff = private unnamed_addr constant <{ [6 x i8] }> <{ [6 x i8] c"source" }>, align 1
@vtable.5 = private constant <{ ptr, [16 x i8], ptr }> <{ ptr @"_ZN4core3ptr70drop_in_place$LT$alloc..sync..Arc$LT$async_io..reactor..Source$GT$$GT$17h6bc544a4ebf5d0d5E", [16 x i8] c"\08\00\00\00\00\00\00\00\08\00\00\00\00\00\00\00", ptr @"_ZN66_$LT$alloc..sync..Arc$LT$T$C$A$GT$$u20$as$u20$core..fmt..Debug$GT$3fmt17h5dcf683ef80a7604E" }>, align 8, !dbg !200
@alloc_fd94ba86361780db0c69bd8f77a77d05 = private unnamed_addr constant <{ [2 x i8] }> <{ [2 x i8] c"io" }>, align 1
@vtable.6 = private constant <{ [24 x i8], ptr }> <{ [24 x i8] c"\00\00\00\00\00\00\00\00\08\00\00\00\00\00\00\00\08\00\00\00\00\00\00\00", ptr @"_ZN42_$LT$$RF$T$u20$as$u20$core..fmt..Debug$GT$3fmt17hd21c264134b9179dE" }>, align 8, !dbg !294
@alloc_4ca5c993f10267ecb607b27d5a5fc76a = private unnamed_addr constant <{ [6 x i8] }> <{ [6 x i8] c"Source" }>, align 1
@alloc_b81c1c76c31fe778eebad5984ce77fe5 = private unnamed_addr constant <{ [12 x i8] }> <{ [12 x i8] c"registration" }>, align 1
@vtable.7 = private constant <{ [24 x i8], ptr }> <{ [24 x i8] c"\00\00\00\00\00\00\00\00\04\00\00\00\00\00\00\00\04\00\00\00\00\00\00\00", ptr @"_ZN74_$LT$async_io..reactor..unix..Registration$u20$as$u20$core..fmt..Debug$GT$3fmt17hc95147656f82fc56E" }>, align 8, !dbg !338
@alloc_25e0d7e970dcb58d756f6f40f94c4cb8 = private unnamed_addr constant <{ [3 x i8] }> <{ [3 x i8] c"key" }>, align 1
@alloc_53dc2ae8bb09ccd50a261f689b87edcd = private unnamed_addr constant <{ [5 x i8] }> <{ [5 x i8] c"state" }>, align 1
@vtable.8 = private constant <{ [24 x i8], ptr }> <{ [24 x i8] c"\00\00\00\00\00\00\00\00\08\00\00\00\00\00\00\00\08\00\00\00\00\00\00\00", ptr @"_ZN42_$LT$$RF$T$u20$as$u20$core..fmt..Debug$GT$3fmt17h4d82bc6f144d1fbfE" }>, align 8, !dbg !346
@alloc_165216ea5f0573267a6d7e83e220d173 = private unnamed_addr constant <{ [9 x i8] }> <{ [9 x i8] c"Direction" }>, align 1
@alloc_e0b34d1a88578f8fc19863aeb6fdef8f = private unnamed_addr constant <{ [4 x i8] }> <{ [4 x i8] c"tick" }>, align 1
@alloc_43c05827ed715b82bda303d89a1aa8c1 = private unnamed_addr constant <{ [5 x i8] }> <{ [5 x i8] c"ticks" }>, align 1
@vtable.9 = private constant <{ [24 x i8], ptr }> <{ [24 x i8] c"\00\00\00\00\00\00\00\00\18\00\00\00\00\00\00\00\08\00\00\00\00\00\00\00", ptr @"_ZN66_$LT$core..option..Option$LT$T$GT$$u20$as$u20$core..fmt..Debug$GT$3fmt17ha5d8bd20fdb7a5c5E" }>, align 8, !dbg !355
@alloc_73e1800f31d4535feeba2f1f63010466 = private unnamed_addr constant <{ [5 x i8] }> <{ [5 x i8] c"waker" }>, align 1
@vtable.a = private constant <{ ptr, [16 x i8], ptr }> <{ ptr @"_ZN4core3ptr72drop_in_place$LT$core..option..Option$LT$core..task..wake..Waker$GT$$GT$17hd41b0b6942456cf4E", [16 x i8] c"\10\00\00\00\00\00\00\00\08\00\00\00\00\00\00\00", ptr @"_ZN66_$LT$core..option..Option$LT$T$GT$$u20$as$u20$core..fmt..Debug$GT$3fmt17h070f329d0fc42b27E" }>, align 8, !dbg !363
@alloc_1bfc62899b6f355cd11d58a575195cc7 = private unnamed_addr constant <{ [6 x i8] }> <{ [6 x i8] c"wakers" }>, align 1
@vtable.b = private constant <{ [24 x i8], ptr }> <{ [24 x i8] c"\00\00\00\00\00\00\00\00\08\00\00\00\00\00\00\00\08\00\00\00\00\00\00\00", ptr @"_ZN42_$LT$$RF$T$u20$as$u20$core..fmt..Debug$GT$3fmt17ha5fbe053f5d193a2E" }>, align 8, !dbg !371
@alloc_37d2e53432a03a1f90b3e7253015eaf9 = private unnamed_addr constant <{ [4 x i8] }> <{ [4 x i8] c"None" }>, align 1
@alloc_9535bf4c204f3eb9b19ec2c83e446e52 = private unnamed_addr constant <{ [4 x i8] }> <{ [4 x i8] c"Some" }>, align 1
@vtable.c = private constant <{ [24 x i8], ptr }> <{ [24 x i8] c"\00\00\00\00\00\00\00\00\08\00\00\00\00\00\00\00\08\00\00\00\00\00\00\00", ptr @"_ZN42_$LT$$RF$T$u20$as$u20$core..fmt..Debug$GT$3fmt17hdded1754ab8b1346E" }>, align 8, !dbg !380
@vtable.d = private constant <{ [24 x i8], ptr }> <{ [24 x i8] c"\00\00\00\00\00\00\00\00\08\00\00\00\00\00\00\00\08\00\00\00\00\00\00\00", ptr @"_ZN42_$LT$$RF$T$u20$as$u20$core..fmt..Debug$GT$3fmt17h03be6afb8fe5fbacE" }>, align 8, !dbg !389
@vtable.e = private constant <{ [24 x i8], ptr }> <{ [24 x i8] c"\00\00\00\00\00\00\00\00\08\00\00\00\00\00\00\00\08\00\00\00\00\00\00\00", ptr @"_ZN42_$LT$$RF$T$u20$as$u20$core..fmt..Debug$GT$3fmt17hb4d62ce02d8f0424E" }>, align 8, !dbg !398
@alloc_779f4c4c227c35122e8522ff6a6f2abf = private unnamed_addr constant <{ [8 x i8] }> <{ [8 x i8] c"<locked>" }>, align 1
@alloc_e7da523892c0ee07ea8497633a6786bd = private unnamed_addr constant <{ ptr, [8 x i8] }> <{ ptr @alloc_779f4c4c227c35122e8522ff6a6f2abf, [8 x i8] c"\08\00\00\00\00\00\00\00" }>, align 8
@alloc_146cdbcee2ca1daae8d2f82a75846c0e = private unnamed_addr constant <{ [5 x i8] }> <{ [5 x i8] c"Mutex" }>, align 1
@alloc_1143f07fefcd705b3d341a339521c9b4 = private unnamed_addr constant <{ [4 x i8] }> <{ [4 x i8] c"data" }>, align 1
@vtable.f = private constant <{ [24 x i8], ptr }> <{ [24 x i8] c"\00\00\00\00\00\00\00\00\08\00\00\00\00\00\00\00\08\00\00\00\00\00\00\00", ptr @"_ZN42_$LT$$RF$T$u20$as$u20$core..fmt..Debug$GT$3fmt17hc144f745167bd286E" }>, align 8, !dbg !407
@vtable.g = private constant <{ [24 x i8], ptr }> <{ [24 x i8] c"\00\00\00\00\00\00\00\000\00\00\00\00\00\00\00\08\00\00\00\00\00\00\00", ptr @"_ZN57_$LT$core..fmt..Arguments$u20$as$u20$core..fmt..Debug$GT$3fmt17h88ad6f5138354091E" }>, align 8, !dbg !416
@alloc_a95dcc2b546265fe51dc710e0ec4e047 = private unnamed_addr constant <{ [8 x i8] }> <{ [8 x i8] c"poisoned" }>, align 1
@vtable.h = private constant <{ [24 x i8], ptr }> <{ [24 x i8] c"\00\00\00\00\00\00\00\00\01\00\00\00\00\00\00\00\01\00\00\00\00\00\00\00", ptr @"_ZN41_$LT$bool$u20$as$u20$core..fmt..Debug$GT$3fmt17h40eba7a03f944241E" }>, align 8, !dbg !565
@alloc_7388a895b2aca881a4d8d5e646f7ec2b = private unnamed_addr constant <{ [92 x i8] }> <{ [92 x i8] c"/home/arsalan/.cargo/registry/src/index.crates.io-1949cf8c6b5b557f/async-io-2.2.2/src/lib.rs" }>, align 1
@alloc_e79bef84619fba06046d63981eaa7026 = private unnamed_addr constant <{ ptr, [16 x i8] }> <{ ptr @alloc_7388a895b2aca881a4d8d5e646f7ec2b, [16 x i8] c"\\\00\00\00\00\00\00\00D\03\00\00\1A\00\00\00" }>, align 8
@alloc_d0ba07bd560740c98258b85e04b0bc90 = private unnamed_addr constant <{ [7 x i8] }> <{ [7 x i8] c"Signals" }>, align 1
@alloc_cd601671f88ccc08a48d5dc725e43406 = private unnamed_addr constant <{ [8 x i8] }> <{ [8 x i8] c"notifier" }>, align 1
@vtable.i = private constant <{ ptr, [16 x i8], ptr }> <{ ptr @"_ZN4core3ptr49drop_in_place$LT$async_signal..pipe..Notifier$GT$17hd88ab744cd43a69dE", [16 x i8] c"\18\00\00\00\00\00\00\00\08\00\00\00\00\00\00\00", ptr @"_ZN65_$LT$async_signal..pipe..Notifier$u20$as$u20$core..fmt..Debug$GT$3fmt17hf2dd0f83ffb0207dE" }>, align 8, !dbg !574
@alloc_1f5671f7711c3c941c416a946d72f6b1 = private unnamed_addr constant <{ [10 x i8] }> <{ [10 x i8] c"signal_ids" }>, align 1
@vtable.j = private constant <{ [24 x i8], ptr }> <{ [24 x i8] c"\00\00\00\00\00\00\00\00\08\00\00\00\00\00\00\00\08\00\00\00\00\00\00\00", ptr @"_ZN118_$LT$$LT$async_signal..Signals$u20$as$u20$core..fmt..Debug$GT$..fmt..RegisteredSignals$u20$as$u20$core..fmt..Debug$GT$3fmt17h6d1bfb92659cc381E" }>, align 8, !dbg !591
@alloc_a900827cd4aea47f958a31517035a02b = private unnamed_addr constant <{ [8 x i8] }> <{ [8 x i8] c"Notifier" }>, align 1
@alloc_d26b4880e79b08198f490952eebe851f = private unnamed_addr constant <{ [4 x i8] }> <{ [4 x i8] c"read" }>, align 1
@vtable.k = private constant <{ ptr, [16 x i8], ptr }> <{ ptr @"_ZN4core3ptr82drop_in_place$LT$async_io..Async$LT$std..os..unix..net..stream..UnixStream$GT$$GT$17h7bb2294c5f2c8e80E", [16 x i8] c"\10\00\00\00\00\00\00\00\08\00\00\00\00\00\00\00", ptr @"_ZN61_$LT$async_io..Async$LT$T$GT$$u20$as$u20$core..fmt..Debug$GT$3fmt17ha214a8cb4a14674aE" }>, align 8, !dbg !661
@alloc_9a4da7ce8a199d36628a418880e8891a = private unnamed_addr constant <{ [5 x i8] }> <{ [5 x i8] c"write" }>, align 1
@alloc_c2a8f6b5f32bc774ad47c653b4a7cbe9 = private unnamed_addr constant <{ [3 x i8] }> <{ [3 x i8] c"Hup" }>, align 1
@alloc_293b67fa5801884b066e002d642328a3 = private unnamed_addr constant <{ [3 x i8] }> <{ [3 x i8] c"Int" }>, align 1
@alloc_5aeb0a12179010418bb2ccab3324f433 = private unnamed_addr constant <{ [4 x i8] }> <{ [4 x i8] c"Quit" }>, align 1
@alloc_0594faa7557e44a042082310c7dabfcd = private unnamed_addr constant <{ [3 x i8] }> <{ [3 x i8] c"Ill" }>, align 1
@alloc_08f967813778cd1445fb63c6b0c10167 = private unnamed_addr constant <{ [4 x i8] }> <{ [4 x i8] c"Trap" }>, align 1
@alloc_9c2e5328629f7d08d559699d2bfda347 = private unnamed_addr constant <{ [5 x i8] }> <{ [5 x i8] c"Abort" }>, align 1
@alloc_e0a71e0ec9606c9f57151552871bd381 = private unnamed_addr constant <{ [3 x i8] }> <{ [3 x i8] c"Bus" }>, align 1
@alloc_52d25392b320635be78e472e20ba7481 = private unnamed_addr constant <{ [3 x i8] }> <{ [3 x i8] c"Fpe" }>, align 1
@alloc_440f066d4b0ed03ae9b1314c3fec60a3 = private unnamed_addr constant <{ [4 x i8] }> <{ [4 x i8] c"Kill" }>, align 1
@alloc_01b8ddc3ec3e22547beb93975d63cdf5 = private unnamed_addr constant <{ [4 x i8] }> <{ [4 x i8] c"Usr1" }>, align 1
@alloc_7d5d3989ffe92a3ca5c26556fb4a1b31 = private unnamed_addr constant <{ [4 x i8] }> <{ [4 x i8] c"Segv" }>, align 1
@alloc_f7ed961ba48b923b1ca51544977bef94 = private unnamed_addr constant <{ [4 x i8] }> <{ [4 x i8] c"Usr2" }>, align 1
@alloc_9ea687ed38ed2de89e671cda62d01258 = private unnamed_addr constant <{ [4 x i8] }> <{ [4 x i8] c"Pipe" }>, align 1
@alloc_2861b6d3c34ee512ab4c1baefb82c365 = private unnamed_addr constant <{ [5 x i8] }> <{ [5 x i8] c"Alarm" }>, align 1
@alloc_eb22e391f49693e321e0ca3b0debde82 = private unnamed_addr constant <{ [4 x i8] }> <{ [4 x i8] c"Term" }>, align 1
@alloc_71b86b73ba1ced4825ebda0e9db7e177 = private unnamed_addr constant <{ [5 x i8] }> <{ [5 x i8] c"Child" }>, align 1
@alloc_d43470402707774e429eeaab6b6828d8 = private unnamed_addr constant <{ [4 x i8] }> <{ [4 x i8] c"Cont" }>, align 1
@alloc_e6d79413b6016226a02b301598378ba1 = private unnamed_addr constant <{ [4 x i8] }> <{ [4 x i8] c"Stop" }>, align 1
@alloc_630848b4be9e48aff744255441930ad3 = private unnamed_addr constant <{ [4 x i8] }> <{ [4 x i8] c"Tstp" }>, align 1
@alloc_b95d9065b42e9ad18b2421a844162ea3 = private unnamed_addr constant <{ [4 x i8] }> <{ [4 x i8] c"Ttin" }>, align 1
@alloc_806bb3b2c96cb3ab111d7e095f43953c = private unnamed_addr constant <{ [4 x i8] }> <{ [4 x i8] c"Ttou" }>, align 1
@alloc_475258ae9bafcbd999ce31ba9e72b4fb = private unnamed_addr constant <{ [3 x i8] }> <{ [3 x i8] c"Urg" }>, align 1
@alloc_243644d53c610bb3fd9666eae9442c00 = private unnamed_addr constant <{ [4 x i8] }> <{ [4 x i8] c"Xcpu" }>, align 1
@alloc_74988ab0887d12a1e8fa52ce64755df1 = private unnamed_addr constant <{ [4 x i8] }> <{ [4 x i8] c"Xfsz" }>, align 1
@alloc_a4ab12c4c790b758db8756a7afca08e2 = private unnamed_addr constant <{ [7 x i8] }> <{ [7 x i8] c"Vtalarm" }>, align 1
@alloc_d499edb457e7015d2d9ef9e8b42bd734 = private unnamed_addr constant <{ [4 x i8] }> <{ [4 x i8] c"Prof" }>, align 1
@alloc_2abef4d00f3118a1651603ef5d1df972 = private unnamed_addr constant <{ [5 x i8] }> <{ [5 x i8] c"Winch" }>, align 1
@alloc_24a9d1d9c182d85dcff0523bfa2532d4 = private unnamed_addr constant <{ [2 x i8] }> <{ [2 x i8] c"Io" }>, align 1
@alloc_34ddc613607b50ee9723d644f67dd890 = private unnamed_addr constant <{ [3 x i8] }> <{ [3 x i8] c"Sys" }>, align 1
@"switch.table._ZN42_$LT$$RF$T$u20$as$u20$core..fmt..Debug$GT$3fmt17h146d1ce221f8b843E" = private unnamed_addr constant [31 x i64] [i64 3, i64 3, i64 4, i64 3, i64 4, i64 5, i64 3, i64 3, i64 4, i64 4, i64 4, i64 4, i64 4, i64 5, i64 4, i64 3, i64 5, i64 4, i64 4, i64 4, i64 4, i64 4, i64 3, i64 4, i64 4, i64 7, i64 4, i64 5, i64 2, i64 3, i64 3], align 8
@"reltable._ZN42_$LT$$RF$T$u20$as$u20$core..fmt..Debug$GT$3fmt17h146d1ce221f8b843E" = private unnamed_addr constant [31 x i32] [i32 trunc (i64 sub (i64 ptrtoint (ptr @alloc_c2a8f6b5f32bc774ad47c653b4a7cbe9 to i64), i64 ptrtoint (ptr @"reltable._ZN42_$LT$$RF$T$u20$as$u20$core..fmt..Debug$GT$3fmt17h146d1ce221f8b843E" to i64)) to i32), i32 trunc (i64 sub (i64 ptrtoint (ptr @alloc_293b67fa5801884b066e002d642328a3 to i64), i64 ptrtoint (ptr @"reltable._ZN42_$LT$$RF$T$u20$as$u20$core..fmt..Debug$GT$3fmt17h146d1ce221f8b843E" to i64)) to i32), i32 trunc (i64 sub (i64 ptrtoint (ptr @alloc_5aeb0a12179010418bb2ccab3324f433 to i64), i64 ptrtoint (ptr @"reltable._ZN42_$LT$$RF$T$u20$as$u20$core..fmt..Debug$GT$3fmt17h146d1ce221f8b843E" to i64)) to i32), i32 trunc (i64 sub (i64 ptrtoint (ptr @alloc_0594faa7557e44a042082310c7dabfcd to i64), i64 ptrtoint (ptr @"reltable._ZN42_$LT$$RF$T$u20$as$u20$core..fmt..Debug$GT$3fmt17h146d1ce221f8b843E" to i64)) to i32), i32 trunc (i64 sub (i64 ptrtoint (ptr @alloc_08f967813778cd1445fb63c6b0c10167 to i64), i64 ptrtoint (ptr @"reltable._ZN42_$LT$$RF$T$u20$as$u20$core..fmt..Debug$GT$3fmt17h146d1ce221f8b843E" to i64)) to i32), i32 trunc (i64 sub (i64 ptrtoint (ptr @alloc_9c2e5328629f7d08d559699d2bfda347 to i64), i64 ptrtoint (ptr @"reltable._ZN42_$LT$$RF$T$u20$as$u20$core..fmt..Debug$GT$3fmt17h146d1ce221f8b843E" to i64)) to i32), i32 trunc (i64 sub (i64 ptrtoint (ptr @alloc_e0a71e0ec9606c9f57151552871bd381 to i64), i64 ptrtoint (ptr @"reltable._ZN42_$LT$$RF$T$u20$as$u20$core..fmt..Debug$GT$3fmt17h146d1ce221f8b843E" to i64)) to i32), i32 trunc (i64 sub (i64 ptrtoint (ptr @alloc_52d25392b320635be78e472e20ba7481 to i64), i64 ptrtoint (ptr @"reltable._ZN42_$LT$$RF$T$u20$as$u20$core..fmt..Debug$GT$3fmt17h146d1ce221f8b843E" to i64)) to i32), i32 trunc (i64 sub (i64 ptrtoint (ptr @alloc_440f066d4b0ed03ae9b1314c3fec60a3 to i64), i64 ptrtoint (ptr @"reltable._ZN42_$LT$$RF$T$u20$as$u20$core..fmt..Debug$GT$3fmt17h146d1ce221f8b843E" to i64)) to i32), i32 trunc (i64 sub (i64 ptrtoint (ptr @alloc_01b8ddc3ec3e22547beb93975d63cdf5 to i64), i64 ptrtoint (ptr @"reltable._ZN42_$LT$$RF$T$u20$as$u20$core..fmt..Debug$GT$3fmt17h146d1ce221f8b843E" to i64)) to i32), i32 trunc (i64 sub (i64 ptrtoint (ptr @alloc_7d5d3989ffe92a3ca5c26556fb4a1b31 to i64), i64 ptrtoint (ptr @"reltable._ZN42_$LT$$RF$T$u20$as$u20$core..fmt..Debug$GT$3fmt17h146d1ce221f8b843E" to i64)) to i32), i32 trunc (i64 sub (i64 ptrtoint (ptr @alloc_f7ed961ba48b923b1ca51544977bef94 to i64), i64 ptrtoint (ptr @"reltable._ZN42_$LT$$RF$T$u20$as$u20$core..fmt..Debug$GT$3fmt17h146d1ce221f8b843E" to i64)) to i32), i32 trunc (i64 sub (i64 ptrtoint (ptr @alloc_9ea687ed38ed2de89e671cda62d01258 to i64), i64 ptrtoint (ptr @"reltable._ZN42_$LT$$RF$T$u20$as$u20$core..fmt..Debug$GT$3fmt17h146d1ce221f8b843E" to i64)) to i32), i32 trunc (i64 sub (i64 ptrtoint (ptr @alloc_2861b6d3c34ee512ab4c1baefb82c365 to i64), i64 ptrtoint (ptr @"reltable._ZN42_$LT$$RF$T$u20$as$u20$core..fmt..Debug$GT$3fmt17h146d1ce221f8b843E" to i64)) to i32), i32 trunc (i64 sub (i64 ptrtoint (ptr @alloc_eb22e391f49693e321e0ca3b0debde82 to i64), i64 ptrtoint (ptr @"reltable._ZN42_$LT$$RF$T$u20$as$u20$core..fmt..Debug$GT$3fmt17h146d1ce221f8b843E" to i64)) to i32), i32 trunc (i64 sub (i64 ptrtoint (ptr @alloc_c2a8f6b5f32bc774ad47c653b4a7cbe9 to i64), i64 ptrtoint (ptr @"reltable._ZN42_$LT$$RF$T$u20$as$u20$core..fmt..Debug$GT$3fmt17h146d1ce221f8b843E" to i64)) to i32), i32 trunc (i64 sub (i64 ptrtoint (ptr @alloc_71b86b73ba1ced4825ebda0e9db7e177 to i64), i64 ptrtoint (ptr @"reltable._ZN42_$LT$$RF$T$u20$as$u20$core..fmt..Debug$GT$3fmt17h146d1ce221f8b843E" to i64)) to i32), i32 trunc (i64 sub (i64 ptrtoint (ptr @alloc_d43470402707774e429eeaab6b6828d8 to i64), i64 ptrtoint (ptr @"reltable._ZN42_$LT$$RF$T$u20$as$u20$core..fmt..Debug$GT$3fmt17h146d1ce221f8b843E" to i64)) to i32), i32 trunc (i64 sub (i64 ptrtoint (ptr @alloc_e6d79413b6016226a02b301598378ba1 to i64), i64 ptrtoint (ptr @"reltable._ZN42_$LT$$RF$T$u20$as$u20$core..fmt..Debug$GT$3fmt17h146d1ce221f8b843E" to i64)) to i32), i32 trunc (i64 sub (i64 ptrtoint (ptr @alloc_630848b4be9e48aff744255441930ad3 to i64), i64 ptrtoint (ptr @"reltable._ZN42_$LT$$RF$T$u20$as$u20$core..fmt..Debug$GT$3fmt17h146d1ce221f8b843E" to i64)) to i32), i32 trunc (i64 sub (i64 ptrtoint (ptr @alloc_b95d9065b42e9ad18b2421a844162ea3 to i64), i64 ptrtoint (ptr @"reltable._ZN42_$LT$$RF$T$u20$as$u20$core..fmt..Debug$GT$3fmt17h146d1ce221f8b843E" to i64)) to i32), i32 trunc (i64 sub (i64 ptrtoint (ptr @alloc_806bb3b2c96cb3ab111d7e095f43953c to i64), i64 ptrtoint (ptr @"reltable._ZN42_$LT$$RF$T$u20$as$u20$core..fmt..Debug$GT$3fmt17h146d1ce221f8b843E" to i64)) to i32), i32 trunc (i64 sub (i64 ptrtoint (ptr @alloc_475258ae9bafcbd999ce31ba9e72b4fb to i64), i64 ptrtoint (ptr @"reltable._ZN42_$LT$$RF$T$u20$as$u20$core..fmt..Debug$GT$3fmt17h146d1ce221f8b843E" to i64)) to i32), i32 trunc (i64 sub (i64 ptrtoint (ptr @alloc_243644d53c610bb3fd9666eae9442c00 to i64), i64 ptrtoint (ptr @"reltable._ZN42_$LT$$RF$T$u20$as$u20$core..fmt..Debug$GT$3fmt17h146d1ce221f8b843E" to i64)) to i32), i32 trunc (i64 sub (i64 ptrtoint (ptr @alloc_74988ab0887d12a1e8fa52ce64755df1 to i64), i64 ptrtoint (ptr @"reltable._ZN42_$LT$$RF$T$u20$as$u20$core..fmt..Debug$GT$3fmt17h146d1ce221f8b843E" to i64)) to i32), i32 trunc (i64 sub (i64 ptrtoint (ptr @alloc_a4ab12c4c790b758db8756a7afca08e2 to i64), i64 ptrtoint (ptr @"reltable._ZN42_$LT$$RF$T$u20$as$u20$core..fmt..Debug$GT$3fmt17h146d1ce221f8b843E" to i64)) to i32), i32 trunc (i64 sub (i64 ptrtoint (ptr @alloc_d499edb457e7015d2d9ef9e8b42bd734 to i64), i64 ptrtoint (ptr @"reltable._ZN42_$LT$$RF$T$u20$as$u20$core..fmt..Debug$GT$3fmt17h146d1ce221f8b843E" to i64)) to i32), i32 trunc (i64 sub (i64 ptrtoint (ptr @alloc_2abef4d00f3118a1651603ef5d1df972 to i64), i64 ptrtoint (ptr @"reltable._ZN42_$LT$$RF$T$u20$as$u20$core..fmt..Debug$GT$3fmt17h146d1ce221f8b843E" to i64)) to i32), i32 trunc (i64 sub (i64 ptrtoint (ptr @alloc_24a9d1d9c182d85dcff0523bfa2532d4 to i64), i64 ptrtoint (ptr @"reltable._ZN42_$LT$$RF$T$u20$as$u20$core..fmt..Debug$GT$3fmt17h146d1ce221f8b843E" to i64)) to i32), i32 trunc (i64 sub (i64 ptrtoint (ptr @alloc_c2a8f6b5f32bc774ad47c653b4a7cbe9 to i64), i64 ptrtoint (ptr @"reltable._ZN42_$LT$$RF$T$u20$as$u20$core..fmt..Debug$GT$3fmt17h146d1ce221f8b843E" to i64)) to i32), i32 trunc (i64 sub (i64 ptrtoint (ptr @alloc_34ddc613607b50ee9723d644f67dd890 to i64), i64 ptrtoint (ptr @"reltable._ZN42_$LT$$RF$T$u20$as$u20$core..fmt..Debug$GT$3fmt17h146d1ce221f8b843E" to i64)) to i32)], align 4

; <bool as core::fmt::Debug>::fmt
; Function Attrs: inlinehint nonlazybind uwtable
define internal noundef zeroext i1 @"_ZN41_$LT$bool$u20$as$u20$core..fmt..Debug$GT$3fmt17h40eba7a03f944241E"(ptr noalias noundef readonly align 1 dereferenceable(1) %self, ptr noalias noundef align 8 dereferenceable(64) %f) unnamed_addr #0 !dbg !808 {
start:
  tail call void @llvm.dbg.value(metadata ptr %self, metadata !815, metadata !DIExpression()), !dbg !817
  tail call void @llvm.dbg.value(metadata ptr %f, metadata !816, metadata !DIExpression()), !dbg !817
; call <bool as core::fmt::Display>::fmt
  %_0 = tail call noundef zeroext i1 @"_ZN43_$LT$bool$u20$as$u20$core..fmt..Display$GT$3fmt17he691df9786a4e217E"(ptr noalias noundef nonnull readonly align 1 dereferenceable(1) %self, ptr noalias noundef nonnull align 8 dereferenceable(64) %f), !dbg !818
  ret i1 %_0, !dbg !819
}

; <&T as core::fmt::Debug>::fmt
; Function Attrs: nonlazybind uwtable
define internal noundef zeroext i1 @"_ZN42_$LT$$RF$T$u20$as$u20$core..fmt..Debug$GT$3fmt17h03be6afb8fe5fbacE"(ptr noalias nocapture noundef readonly align 8 dereferenceable(8) %self, ptr noalias noundef align 8 dereferenceable(64) %f) unnamed_addr #1 !dbg !820 {
start:
  tail call void @llvm.dbg.value(metadata ptr %self, metadata !826, metadata !DIExpression()), !dbg !828
  tail call void @llvm.dbg.value(metadata ptr %f, metadata !827, metadata !DIExpression()), !dbg !828
  %_3 = load ptr, ptr %self, align 8, !dbg !829, !nonnull !12, !align !830, !noundef !12
; call <std::os::unix::net::stream::UnixStream as core::fmt::Debug>::fmt
  %_0 = tail call noundef zeroext i1 @"_ZN75_$LT$std..os..unix..net..stream..UnixStream$u20$as$u20$core..fmt..Debug$GT$3fmt17h9c45edbdd0fd2aa2E"(ptr noalias noundef nonnull readonly align 4 dereferenceable(4) %_3, ptr noalias noundef nonnull align 8 dereferenceable(64) %f), !dbg !831
  ret i1 %_0, !dbg !832
}

; <&T as core::fmt::Debug>::fmt
; Function Attrs: nonlazybind uwtable
define internal noundef zeroext i1 @"_ZN42_$LT$$RF$T$u20$as$u20$core..fmt..Debug$GT$3fmt17h146d1ce221f8b843E"(ptr noalias nocapture noundef readonly align 8 dereferenceable(8) %self, ptr noalias noundef align 8 dereferenceable(64) %f) unnamed_addr #1 !dbg !833 {
start:
  tail call void @llvm.dbg.value(metadata ptr %self, metadata !838, metadata !DIExpression()), !dbg !842
  tail call void @llvm.dbg.value(metadata ptr %f, metadata !839, metadata !DIExpression()), !dbg !842
  %_3 = load ptr, ptr %self, align 8, !dbg !843, !nonnull !12, !align !830, !noundef !12
  %_3.val = load i32, ptr %_3, align 4, !dbg !844, !range !845, !noundef !12
  call void @llvm.dbg.value(metadata ptr undef, metadata !846, metadata !DIExpression()), !dbg !854
  call void @llvm.dbg.value(metadata ptr %f, metadata !853, metadata !DIExpression()), !dbg !854
  %switch.tableidx = add nsw i32 %_3.val, -1, !dbg !856
  %switch.shifted = lshr i32 1610579967, %switch.tableidx, !dbg !856
  %0 = and i32 %switch.shifted, 1, !dbg !856
  %switch.lobit = icmp ne i32 %0, 0, !dbg !856
  tail call void @llvm.assume(i1 %switch.lobit), !dbg !856
  %1 = sext i32 %switch.tableidx to i64, !dbg !856
  %switch.gep = getelementptr inbounds [31 x i64], ptr @"switch.table._ZN42_$LT$$RF$T$u20$as$u20$core..fmt..Debug$GT$3fmt17h146d1ce221f8b843E", i64 0, i64 %1, !dbg !856
  %switch.load = load i64, ptr %switch.gep, align 8, !dbg !856
  %2 = sext i32 %switch.tableidx to i64, !dbg !856
  %reltable.shift = shl i64 %2, 2, !dbg !856
  %reltable.intrinsic = call ptr @llvm.load.relative.i64(ptr @"reltable._ZN42_$LT$$RF$T$u20$as$u20$core..fmt..Debug$GT$3fmt17h146d1ce221f8b843E", i64 %reltable.shift), !dbg !856
; call core::fmt::Formatter::write_str
  %_0.i = tail call noundef zeroext i1 @_ZN4core3fmt9Formatter9write_str17h35be9e09c65db375E(ptr noalias noundef nonnull align 8 dereferenceable(64) %f, ptr noalias noundef nonnull readonly align 1 %reltable.intrinsic, i64 noundef %switch.load), !dbg !856
  ret i1 %_0.i, !dbg !857
}

; <&T as core::fmt::Debug>::fmt
; Function Attrs: nonlazybind uwtable
define internal noundef zeroext i1 @"_ZN42_$LT$$RF$T$u20$as$u20$core..fmt..Debug$GT$3fmt17h1d69a82588c79890E"(ptr noalias nocapture noundef readonly align 8 dereferenceable(8) %self, ptr noalias noundef align 8 dereferenceable(64) %f) unnamed_addr #1 !dbg !858 {
start:
  %_16.i = alloca [8 x i8], align 8
  tail call void @llvm.dbg.value(metadata ptr %self, metadata !863, metadata !DIExpression()), !dbg !867
  tail call void @llvm.dbg.value(metadata ptr %f, metadata !864, metadata !DIExpression()), !dbg !867
  %_3 = load ptr, ptr %self, align 8, !dbg !868, !nonnull !12, !align !869, !noundef !12
  call void @llvm.dbg.value(metadata ptr %_3, metadata !870, metadata !DIExpression()), !dbg !878
  call void @llvm.dbg.value(metadata ptr %f, metadata !877, metadata !DIExpression()), !dbg !878
  %_6.i = getelementptr inbounds i8, ptr %_3, i64 64, !dbg !880
  %_12.i = getelementptr inbounds i8, ptr %_3, i64 72, !dbg !881
  call void @llvm.lifetime.start.p0(i64 8, ptr nonnull %_16.i), !dbg !882, !noalias !883
  %0 = getelementptr inbounds i8, ptr %_3, i64 24, !dbg !882
  store ptr %0, ptr %_16.i, align 8, !dbg !882, !noalias !883
; call core::fmt::Formatter::debug_struct_field4_finish
  %_0.i = call noundef zeroext i1 @_ZN4core3fmt9Formatter26debug_struct_field4_finish17h7a3782a83f1f9ce9E(ptr noalias noundef nonnull align 8 dereferenceable(64) %f, ptr noalias noundef nonnull readonly align 1 @alloc_165216ea5f0573267a6d7e83e220d173, i64 noundef 9, ptr noalias noundef nonnull readonly align 1 @alloc_e0b34d1a88578f8fc19863aeb6fdef8f, i64 noundef 4, ptr noundef nonnull align 1 %_6.i, ptr noalias noundef nonnull readonly align 8 dereferenceable(32) @vtable.0, ptr noalias noundef nonnull readonly align 1 @alloc_43c05827ed715b82bda303d89a1aa8c1, i64 noundef 5, ptr noundef nonnull align 1 %_3, ptr noalias noundef nonnull readonly align 8 dereferenceable(32) @vtable.9, ptr noalias noundef nonnull readonly align 1 @alloc_73e1800f31d4535feeba2f1f63010466, i64 noundef 5, ptr noundef nonnull align 1 %_12.i, ptr noalias noundef nonnull readonly align 8 dereferenceable(32) @vtable.a, ptr noalias noundef nonnull readonly align 1 @alloc_1bfc62899b6f355cd11d58a575195cc7, i64 noundef 6, ptr noundef nonnull align 1 %_16.i, ptr noalias noundef nonnull readonly align 8 dereferenceable(32) @vtable.b), !dbg !887
  call void @llvm.lifetime.end.p0(i64 8, ptr nonnull %_16.i), !dbg !888, !noalias !883
  ret i1 %_0.i, !dbg !889
}

; <&T as core::fmt::Debug>::fmt
; Function Attrs: nonlazybind uwtable
define internal noundef zeroext i1 @"_ZN42_$LT$$RF$T$u20$as$u20$core..fmt..Debug$GT$3fmt17h4d82bc6f144d1fbfE"(ptr noalias nocapture noundef readonly align 8 dereferenceable(8) %self, ptr noalias noundef align 8 dereferenceable(64) %f) unnamed_addr #1 personality ptr @rust_eh_personality !dbg !890 {
start:
  %_36.i = alloca [1 x i8], align 1
  %_30.i = alloca [48 x i8], align 8
  %_22.i = alloca [8 x i8], align 8
  %_14.i = alloca [8 x i8], align 8
  %d.i = alloca [16 x i8], align 8
  tail call void @llvm.dbg.value(metadata ptr %self, metadata !895, metadata !DIExpression()), !dbg !899
  tail call void @llvm.dbg.value(metadata ptr %f, metadata !896, metadata !DIExpression()), !dbg !899
  %_3 = load ptr, ptr %self, align 8, !dbg !900, !nonnull !12, !align !869, !noundef !12
  call void @llvm.dbg.declare(metadata ptr undef, metadata !901, metadata !DIExpression(DW_OP_LLVM_fragment, 72, 56)), !dbg !933
  call void @llvm.dbg.declare(metadata ptr undef, metadata !919, metadata !DIExpression(DW_OP_LLVM_fragment, 72, 56)), !dbg !935
  call void @llvm.dbg.value(metadata ptr @alloc_e7da523892c0ee07ea8497633a6786bd, metadata !936, metadata !DIExpression()), !dbg !947
  call void @llvm.dbg.value(metadata i8 0, metadata !949, metadata !DIExpression()), !dbg !959
  call void @llvm.dbg.value(metadata ptr %_3, metadata !910, metadata !DIExpression()), !dbg !971
  call void @llvm.dbg.value(metadata ptr %f, metadata !911, metadata !DIExpression()), !dbg !971
  call void @llvm.dbg.declare(metadata ptr %d.i, metadata !912, metadata !DIExpression()), !dbg !972
  call void @llvm.lifetime.start.p0(i64 16, ptr nonnull %d.i), !dbg !973, !noalias !974
; call core::fmt::Formatter::debug_struct
  call void @_ZN4core3fmt9Formatter12debug_struct17hfe55f8660bb7c366E(ptr noalias nocapture noundef nonnull sret([16 x i8]) align 8 dereferenceable(16) %d.i, ptr noalias noundef nonnull align 8 dereferenceable(64) %f, ptr noalias noundef nonnull readonly align 1 @alloc_146cdbcee2ca1daae8d2f82a75846c0e, i64 noundef 5), !dbg !977
  call void @llvm.dbg.value(metadata i32 0, metadata !978, metadata !DIExpression()), !dbg !1005
  call void @llvm.dbg.value(metadata i32 1, metadata !1002, metadata !DIExpression()), !dbg !1005
  call void @llvm.dbg.value(metadata i8 2, metadata !1003, metadata !DIExpression()), !dbg !1005
  call void @llvm.dbg.value(metadata i8 0, metadata !1004, metadata !DIExpression()), !dbg !1005
  call void @llvm.dbg.value(metadata ptr %_3, metadata !1048, metadata !DIExpression()), !dbg !1073
  call void @llvm.dbg.value(metadata ptr %_3, metadata !1015, metadata !DIExpression()), !dbg !1074
  call void @llvm.dbg.value(metadata ptr %_3, metadata !1001, metadata !DIExpression()), !dbg !1005
  call void @llvm.dbg.value(metadata i8 2, metadata !1075, metadata !DIExpression()), !dbg !1088
  call void @llvm.dbg.value(metadata i8 0, metadata !1084, metadata !DIExpression()), !dbg !1088
  call void @llvm.dbg.value(metadata ptr %_3, metadata !1081, metadata !DIExpression()), !dbg !1088
  call void @llvm.dbg.value(metadata i32 0, metadata !1082, metadata !DIExpression()), !dbg !1088
  call void @llvm.dbg.value(metadata i32 1, metadata !1083, metadata !DIExpression()), !dbg !1088
  %0 = cmpxchg ptr %_3, i32 0, i32 1 acquire monotonic, align 4, !dbg !1090, !noalias !1091
  %1 = extractvalue { i32, i1 } %0, 1, !dbg !1090
  call void @llvm.dbg.value(metadata ptr undef, metadata !1094, metadata !DIExpression()), !dbg !1103
  br i1 %1, label %bb7.i.i, label %bb5.i, !dbg !1105

bb7.i.i:                                          ; preds = %start
  call void @llvm.dbg.value(metadata ptr %_3, metadata !1108, metadata !DIExpression()), !dbg !1128
  call void @llvm.dbg.value(metadata ptr @_ZN3std9panicking11panic_count18GLOBAL_PANIC_COUNT17h00e7dcd913cdfbe0E, metadata !1130, metadata !DIExpression()), !dbg !1139
  call void @llvm.dbg.value(metadata i8 0, metadata !1138, metadata !DIExpression()), !dbg !1139
  call void @llvm.dbg.value(metadata i8 0, metadata !1186, metadata !DIExpression()), !dbg !1191
  call void @llvm.dbg.value(metadata ptr %_3, metadata !1182, metadata !DIExpression(DW_OP_plus_uconst, 4, DW_OP_stack_value)), !dbg !1198
  call void @llvm.dbg.value(metadata ptr %_3, metadata !1196, metadata !DIExpression(DW_OP_plus_uconst, 4, DW_OP_stack_value)), !dbg !1199
  call void @llvm.dbg.value(metadata i8 0, metadata !1200, metadata !DIExpression()), !dbg !1207
  call void @llvm.dbg.value(metadata ptr @_ZN3std9panicking11panic_count18GLOBAL_PANIC_COUNT17h00e7dcd913cdfbe0E, metadata !1206, metadata !DIExpression()), !dbg !1207
  %2 = load atomic i64, ptr @_ZN3std9panicking11panic_count18GLOBAL_PANIC_COUNT17h00e7dcd913cdfbe0E monotonic, align 8, !dbg !1209, !noalias !1210
  %_6.i.i.i.i = and i64 %2, 9223372036854775807, !dbg !1213
  %3 = icmp eq i64 %_6.i.i.i.i, 0, !dbg !1213
  br i1 %3, label %"_ZN3std4sync5mutex14Mutex$LT$T$GT$8try_lock17hc360a7a27a31d0c5E.exit.i", label %bb6.i.i.i.i, !dbg !1213

bb6.i.i.i.i:                                      ; preds = %bb7.i.i
; call std::panicking::panic_count::is_zero_slow_path
  %4 = tail call noundef zeroext i1 @_ZN3std9panicking11panic_count17is_zero_slow_path17h24de30857bbd803cE(), !dbg !1214, !noalias !1215
  %5 = xor i1 %4, true, !dbg !1216
  %6 = zext i1 %5 to i8, !dbg !1217
  br label %"_ZN3std4sync5mutex14Mutex$LT$T$GT$8try_lock17hc360a7a27a31d0c5E.exit.i", !dbg !1214

"_ZN3std4sync5mutex14Mutex$LT$T$GT$8try_lock17hc360a7a27a31d0c5E.exit.i": ; preds = %bb6.i.i.i.i, %bb7.i.i
  %_5.sroa.0.0.i.i.i.i = phi i8 [ %6, %bb6.i.i.i.i ], [ 0, %bb7.i.i ], !dbg !1218
  %_3.i.i.i = getelementptr inbounds i8, ptr %_3, i64 4, !dbg !1219
  call void @llvm.dbg.value(metadata ptr %_3.i.i.i, metadata !1182, metadata !DIExpression()), !dbg !1198
  call void @llvm.dbg.value(metadata ptr %_3.i.i.i, metadata !1196, metadata !DIExpression()), !dbg !1199
  call void @llvm.dbg.value(metadata i8 %_5.sroa.0.0.i.i.i.i, metadata !1183, metadata !DIExpression(DW_OP_LLVM_convert, 1, DW_ATE_unsigned, DW_OP_LLVM_convert, 8, DW_ATE_unsigned, DW_OP_stack_value)), !dbg !1220
  call void @llvm.dbg.value(metadata ptr %_3.i.i.i, metadata !1190, metadata !DIExpression()), !dbg !1191
  call void @llvm.dbg.value(metadata i8 0, metadata !1221, metadata !DIExpression()), !dbg !1227
  call void @llvm.dbg.value(metadata ptr %_3.i.i.i, metadata !1226, metadata !DIExpression()), !dbg !1227
  %7 = load atomic i8, ptr %_3.i.i.i monotonic, align 4, !dbg !1229, !noalias !1210
  %.not.i.not.i = icmp eq i8 %7, 0, !dbg !1230
  %_44.i = getelementptr inbounds i8, ptr %_3, i64 8, !dbg !1231
  br i1 %.not.i.not.i, label %bb6.i, label %bb9.i, !dbg !1256

bb6.i:                                            ; preds = %"_ZN3std4sync5mutex14Mutex$LT$T$GT$8try_lock17hc360a7a27a31d0c5E.exit.i"
  call void @llvm.dbg.value(metadata ptr %_3, metadata !919, metadata !DIExpression(DW_OP_LLVM_fragment, 0, 64)), !dbg !1257
  call void @llvm.dbg.value(metadata i8 %_5.sroa.0.0.i.i.i.i, metadata !919, metadata !DIExpression(DW_OP_LLVM_fragment, 64, 8)), !dbg !1257
  call void @llvm.lifetime.start.p0(i64 8, ptr nonnull %_14.i), !dbg !1258, !noalias !974
  store ptr %_44.i, ptr %_14.i, align 8, !dbg !1258, !noalias !974
; invoke core::fmt::builders::DebugStruct::field
  %_9.i = invoke noundef align 8 dereferenceable(16) ptr @_ZN4core3fmt8builders11DebugStruct5field17ha9e91e16904b9623E(ptr noalias noundef nonnull align 8 dereferenceable(16) %d.i, ptr noalias noundef nonnull readonly align 1 @alloc_1143f07fefcd705b3d341a339521c9b4, i64 noundef 4, ptr noundef nonnull align 1 %_14.i, ptr noalias noundef nonnull readonly align 8 dereferenceable(32) @vtable.f)
          to label %bb7.i unwind label %cleanup.i, !dbg !1259

cleanup.i:                                        ; preds = %bb6.i
  %8 = landingpad { ptr, i32 }
          cleanup
; invoke core::ptr::drop_in_place<std::sync::mutex::MutexGuard<[async_io::reactor::Direction; 2]>>
  invoke fastcc void @"_ZN4core3ptr106drop_in_place$LT$std..sync..mutex..MutexGuard$LT$$u5b$async_io..reactor..Direction$u3b$$u20$2$u5d$$GT$$GT$17hcc31a7b446319476E"(ptr nonnull %_3, i8 %_5.sroa.0.0.i.i.i.i) #14
          to label %bb17.i unwind label %terminate.i, !dbg !1260

bb7.i:                                            ; preds = %bb6.i
  call void @llvm.lifetime.end.p0(i64 8, ptr nonnull %_14.i), !dbg !1261, !noalias !974
  call void @llvm.dbg.value(metadata ptr undef, metadata !1262, metadata !DIExpression()), !dbg !1269
  call void @llvm.dbg.value(metadata i32 0, metadata !1271, metadata !DIExpression()), !dbg !1280
  call void @llvm.dbg.value(metadata i8 1, metadata !1279, metadata !DIExpression()), !dbg !1280
  call void @llvm.dbg.value(metadata i32 0, metadata !1298, metadata !DIExpression()), !dbg !1306
  call void @llvm.dbg.value(metadata i8 1, metadata !1305, metadata !DIExpression()), !dbg !1306
  call void @llvm.dbg.value(metadata ptr undef, metadata !1296, metadata !DIExpression()), !dbg !1308
  call void @llvm.dbg.value(metadata ptr @_ZN3std9panicking11panic_count18GLOBAL_PANIC_COUNT17h00e7dcd913cdfbe0E, metadata !1309, metadata !DIExpression()), !dbg !1314
  call void @llvm.dbg.value(metadata i8 0, metadata !1313, metadata !DIExpression()), !dbg !1314
  call void @llvm.dbg.value(metadata i8 1, metadata !1334, metadata !DIExpression()), !dbg !1343
  call void @llvm.dbg.value(metadata i8 0, metadata !1342, metadata !DIExpression()), !dbg !1343
  call void @llvm.dbg.value(metadata ptr %_3.i.i.i, metadata !1331, metadata !DIExpression()), !dbg !1345
  call void @llvm.dbg.value(metadata ptr undef, metadata !1332, metadata !DIExpression()), !dbg !1345
  %_3.not.i.i.i.i = icmp eq i8 %_5.sroa.0.0.i.i.i.i, 0, !dbg !1346
  br i1 %_3.not.i.i.i.i, label %bb1.i.i.i.i, label %_ZN3std4sync6poison4Flag4done17h6b62417d8d60c5ceE.exit.i.i.i, !dbg !1346

bb1.i.i.i.i:                                      ; preds = %bb7.i
  call void @llvm.dbg.value(metadata i8 0, metadata !1200, metadata !DIExpression()), !dbg !1347
  call void @llvm.dbg.value(metadata ptr @_ZN3std9panicking11panic_count18GLOBAL_PANIC_COUNT17h00e7dcd913cdfbe0E, metadata !1206, metadata !DIExpression()), !dbg !1347
  %9 = load atomic i64, ptr @_ZN3std9panicking11panic_count18GLOBAL_PANIC_COUNT17h00e7dcd913cdfbe0E monotonic, align 8, !dbg !1349, !noalias !1350
  %_7.i.i.i.i = and i64 %9, 9223372036854775807, !dbg !1353
  %10 = icmp eq i64 %_7.i.i.i.i, 0, !dbg !1353
  br i1 %10, label %_ZN3std4sync6poison4Flag4done17h6b62417d8d60c5ceE.exit.i.i.i, label %bb6.i.i.i23.i, !dbg !1353

bb6.i.i.i23.i:                                    ; preds = %bb1.i.i.i.i
; call std::panicking::panic_count::is_zero_slow_path
  %_6.i.i.i24.i = call noundef zeroext i1 @_ZN3std9panicking11panic_count17is_zero_slow_path17h24de30857bbd803cE(), !dbg !1354, !noalias !1355
  br i1 %_6.i.i.i24.i, label %_ZN3std4sync6poison4Flag4done17h6b62417d8d60c5ceE.exit.i.i.i, label %bb2.i.i.i.i, !dbg !1356

bb2.i.i.i.i:                                      ; preds = %bb6.i.i.i23.i
  call void @llvm.dbg.value(metadata ptr %_3.i.i.i, metadata !1341, metadata !DIExpression()), !dbg !1343
  call void @llvm.dbg.value(metadata i8 0, metadata !1357, metadata !DIExpression()), !dbg !1365
  call void @llvm.dbg.value(metadata ptr %_3.i.i.i, metadata !1363, metadata !DIExpression()), !dbg !1365
  call void @llvm.dbg.value(metadata i8 1, metadata !1364, metadata !DIExpression()), !dbg !1365
  store atomic i8 1, ptr %_3.i.i.i monotonic, align 4, !dbg !1367, !noalias !1350
  br label %_ZN3std4sync6poison4Flag4done17h6b62417d8d60c5ceE.exit.i.i.i, !dbg !1368

_ZN3std4sync6poison4Flag4done17h6b62417d8d60c5ceE.exit.i.i.i: ; preds = %bb2.i.i.i.i, %bb6.i.i.i23.i, %bb1.i.i.i.i, %bb7.i
  call void @llvm.dbg.value(metadata ptr %_3, metadata !1288, metadata !DIExpression()), !dbg !1369
  call void @llvm.dbg.value(metadata ptr %_3, metadata !1278, metadata !DIExpression()), !dbg !1280
  call void @llvm.dbg.value(metadata ptr %_3, metadata !1304, metadata !DIExpression()), !dbg !1306
  %11 = atomicrmw xchg ptr %_3, i32 0 release, align 4, !dbg !1370, !noalias !1350
  %_8.i.i.i = icmp eq i32 %11, 2, !dbg !1371
  br i1 %_8.i.i.i, label %bb2.i.i.i, label %"_ZN69_$LT$std..sync..mutex..Mutex$LT$T$GT$$u20$as$u20$core..fmt..Debug$GT$3fmt17h68c821938d1b85bbE.exit", !dbg !1371

bb2.i.i.i:                                        ; preds = %_ZN3std4sync6poison4Flag4done17h6b62417d8d60c5ceE.exit.i.i.i
; call std::sys::sync::mutex::futex::Mutex::wake
  call void @_ZN3std3sys4sync5mutex5futex5Mutex4wake17hc487312157454c34E(ptr noundef nonnull align 4 %_3), !dbg !1372, !noalias !1355
  br label %"_ZN69_$LT$std..sync..mutex..Mutex$LT$T$GT$$u20$as$u20$core..fmt..Debug$GT$3fmt17h68c821938d1b85bbE.exit", !dbg !1372

terminate.i:                                      ; preds = %cleanup8.i, %cleanup.i
  %12 = landingpad { ptr, i32 }
          filter [0 x ptr] zeroinitializer
; call core::panicking::panic_in_cleanup
  call void @_ZN4core9panicking16panic_in_cleanup17h43442956f23e9cbeE() #15, !dbg !1373
  unreachable, !dbg !1373

bb17.i:                                           ; preds = %cleanup8.i, %cleanup.i
  %.pn.i = phi { ptr, i32 } [ %17, %cleanup8.i ], [ %8, %cleanup.i ]
  resume { ptr, i32 } %.pn.i, !dbg !1373

bb9.i:                                            ; preds = %"_ZN3std4sync5mutex14Mutex$LT$T$GT$8try_lock17hc360a7a27a31d0c5E.exit.i"
  call void @llvm.dbg.value(metadata ptr %_3, metadata !901, metadata !DIExpression(DW_OP_LLVM_fragment, 0, 64)), !dbg !1374
  call void @llvm.dbg.value(metadata i8 %_5.sroa.0.0.i.i.i.i, metadata !901, metadata !DIExpression(DW_OP_LLVM_fragment, 64, 8)), !dbg !1374
  call void @llvm.lifetime.start.p0(i64 8, ptr nonnull %_22.i), !dbg !1375, !noalias !974
  store ptr %_44.i, ptr %_22.i, align 8, !dbg !1375, !noalias !974
; invoke core::fmt::builders::DebugStruct::field
  %_17.i = invoke noundef align 8 dereferenceable(16) ptr @_ZN4core3fmt8builders11DebugStruct5field17ha9e91e16904b9623E(ptr noalias noundef nonnull align 8 dereferenceable(16) %d.i, ptr noalias noundef nonnull readonly align 1 @alloc_1143f07fefcd705b3d341a339521c9b4, i64 noundef 4, ptr noundef nonnull align 1 %_22.i, ptr noalias noundef nonnull readonly align 8 dereferenceable(32) @vtable.f)
          to label %bb10.i unwind label %cleanup8.i, !dbg !1376

bb5.i:                                            ; preds = %start
  call void @llvm.lifetime.start.p0(i64 48, ptr nonnull %_30.i), !dbg !1377, !noalias !974
  store ptr @alloc_e7da523892c0ee07ea8497633a6786bd, ptr %_30.i, align 8, !dbg !1378, !noalias !974
  %13 = getelementptr inbounds i8, ptr %_30.i, i64 8, !dbg !1378
  store i64 1, ptr %13, align 8, !dbg !1378, !noalias !974
  %14 = getelementptr inbounds i8, ptr %_30.i, i64 32, !dbg !1378
  store ptr null, ptr %14, align 8, !dbg !1378, !noalias !974
  %15 = getelementptr inbounds i8, ptr %_30.i, i64 16, !dbg !1378
  store ptr inttoptr (i64 8 to ptr), ptr %15, align 8, !dbg !1378, !noalias !974
  %16 = getelementptr inbounds i8, ptr %_30.i, i64 24, !dbg !1378
  store i64 0, ptr %16, align 8, !dbg !1378, !noalias !974
; call core::fmt::builders::DebugStruct::field
  %_25.i = call noundef align 8 dereferenceable(16) ptr @_ZN4core3fmt8builders11DebugStruct5field17ha9e91e16904b9623E(ptr noalias noundef nonnull align 8 dereferenceable(16) %d.i, ptr noalias noundef nonnull readonly align 1 @alloc_1143f07fefcd705b3d341a339521c9b4, i64 noundef 4, ptr noundef nonnull align 1 %_30.i, ptr noalias noundef nonnull readonly align 8 dereferenceable(32) @vtable.g), !dbg !1379
  call void @llvm.lifetime.end.p0(i64 48, ptr nonnull %_30.i), !dbg !1380, !noalias !974
  br label %"_ZN69_$LT$std..sync..mutex..Mutex$LT$T$GT$$u20$as$u20$core..fmt..Debug$GT$3fmt17h68c821938d1b85bbE.exit", !dbg !1381

cleanup8.i:                                       ; preds = %bb9.i
  %17 = landingpad { ptr, i32 }
          cleanup
; invoke core::ptr::drop_in_place<std::sync::poison::PoisonError<std::sync::mutex::MutexGuard<[async_io::reactor::Direction; 2]>>>
  invoke fastcc void @"_ZN4core3ptr144drop_in_place$LT$std..sync..poison..PoisonError$LT$std..sync..mutex..MutexGuard$LT$$u5b$async_io..reactor..Direction$u3b$$u20$2$u5d$$GT$$GT$$GT$17h25af2e82673dfa1bE"(ptr nonnull %_3, i8 %_5.sroa.0.0.i.i.i.i) #14
          to label %bb17.i unwind label %terminate.i, !dbg !1382

bb10.i:                                           ; preds = %bb9.i
  call void @llvm.lifetime.end.p0(i64 8, ptr nonnull %_22.i), !dbg !1383, !noalias !974
  call void @llvm.dbg.value(metadata ptr undef, metadata !1384, metadata !DIExpression()), !dbg !1392
  call void @llvm.dbg.value(metadata ptr undef, metadata !1262, metadata !DIExpression()), !dbg !1394
  call void @llvm.dbg.value(metadata i32 0, metadata !1271, metadata !DIExpression()), !dbg !1396
  call void @llvm.dbg.value(metadata i8 1, metadata !1279, metadata !DIExpression()), !dbg !1396
  call void @llvm.dbg.value(metadata i32 0, metadata !1298, metadata !DIExpression()), !dbg !1400
  call void @llvm.dbg.value(metadata i8 1, metadata !1305, metadata !DIExpression()), !dbg !1400
  call void @llvm.dbg.value(metadata ptr undef, metadata !1296, metadata !DIExpression()), !dbg !1402
  call void @llvm.dbg.value(metadata ptr @_ZN3std9panicking11panic_count18GLOBAL_PANIC_COUNT17h00e7dcd913cdfbe0E, metadata !1309, metadata !DIExpression()), !dbg !1403
  call void @llvm.dbg.value(metadata i8 0, metadata !1313, metadata !DIExpression()), !dbg !1403
  call void @llvm.dbg.value(metadata i8 1, metadata !1334, metadata !DIExpression()), !dbg !1409
  call void @llvm.dbg.value(metadata i8 0, metadata !1342, metadata !DIExpression()), !dbg !1409
  call void @llvm.dbg.value(metadata ptr %_3.i.i.i, metadata !1331, metadata !DIExpression()), !dbg !1411
  call void @llvm.dbg.value(metadata ptr undef, metadata !1332, metadata !DIExpression()), !dbg !1411
  %_3.not.i.i.i.i.i = icmp eq i8 %_5.sroa.0.0.i.i.i.i, 0, !dbg !1412
  br i1 %_3.not.i.i.i.i.i, label %bb1.i.i.i.i.i, label %_ZN3std4sync6poison4Flag4done17h6b62417d8d60c5ceE.exit.i.i.i.i, !dbg !1412

bb1.i.i.i.i.i:                                    ; preds = %bb10.i
  call void @llvm.dbg.value(metadata i8 0, metadata !1200, metadata !DIExpression()), !dbg !1413
  call void @llvm.dbg.value(metadata ptr @_ZN3std9panicking11panic_count18GLOBAL_PANIC_COUNT17h00e7dcd913cdfbe0E, metadata !1206, metadata !DIExpression()), !dbg !1413
  %18 = load atomic i64, ptr @_ZN3std9panicking11panic_count18GLOBAL_PANIC_COUNT17h00e7dcd913cdfbe0E monotonic, align 8, !dbg !1415, !noalias !1416
  %_7.i.i.i.i.i = and i64 %18, 9223372036854775807, !dbg !1419
  %19 = icmp eq i64 %_7.i.i.i.i.i, 0, !dbg !1419
  br i1 %19, label %_ZN3std4sync6poison4Flag4done17h6b62417d8d60c5ceE.exit.i.i.i.i, label %bb6.i.i.i.i.i, !dbg !1419

bb6.i.i.i.i.i:                                    ; preds = %bb1.i.i.i.i.i
; call std::panicking::panic_count::is_zero_slow_path
  %_6.i.i.i.i.i = call noundef zeroext i1 @_ZN3std9panicking11panic_count17is_zero_slow_path17h24de30857bbd803cE(), !dbg !1420, !noalias !1421
  br i1 %_6.i.i.i.i.i, label %_ZN3std4sync6poison4Flag4done17h6b62417d8d60c5ceE.exit.i.i.i.i, label %bb2.i.i.i.i.i, !dbg !1422

bb2.i.i.i.i.i:                                    ; preds = %bb6.i.i.i.i.i
  call void @llvm.dbg.value(metadata ptr %_3.i.i.i, metadata !1341, metadata !DIExpression()), !dbg !1409
  call void @llvm.dbg.value(metadata i8 0, metadata !1357, metadata !DIExpression()), !dbg !1423
  call void @llvm.dbg.value(metadata ptr %_3.i.i.i, metadata !1363, metadata !DIExpression()), !dbg !1423
  call void @llvm.dbg.value(metadata i8 1, metadata !1364, metadata !DIExpression()), !dbg !1423
  store atomic i8 1, ptr %_3.i.i.i monotonic, align 4, !dbg !1425, !noalias !1416
  br label %_ZN3std4sync6poison4Flag4done17h6b62417d8d60c5ceE.exit.i.i.i.i, !dbg !1426

_ZN3std4sync6poison4Flag4done17h6b62417d8d60c5ceE.exit.i.i.i.i: ; preds = %bb2.i.i.i.i.i, %bb6.i.i.i.i.i, %bb1.i.i.i.i.i, %bb10.i
  call void @llvm.dbg.value(metadata ptr %_3, metadata !1288, metadata !DIExpression()), !dbg !1427
  call void @llvm.dbg.value(metadata ptr %_3, metadata !1278, metadata !DIExpression()), !dbg !1396
  call void @llvm.dbg.value(metadata ptr %_3, metadata !1304, metadata !DIExpression()), !dbg !1400
  %20 = atomicrmw xchg ptr %_3, i32 0 release, align 4, !dbg !1428, !noalias !1416
  %_8.i.i.i.i = icmp eq i32 %20, 2, !dbg !1429
  br i1 %_8.i.i.i.i, label %bb2.i.i.i25.i, label %"_ZN69_$LT$std..sync..mutex..Mutex$LT$T$GT$$u20$as$u20$core..fmt..Debug$GT$3fmt17h68c821938d1b85bbE.exit", !dbg !1429

bb2.i.i.i25.i:                                    ; preds = %_ZN3std4sync6poison4Flag4done17h6b62417d8d60c5ceE.exit.i.i.i.i
; call std::sys::sync::mutex::futex::Mutex::wake
  call void @_ZN3std3sys4sync5mutex5futex5Mutex4wake17hc487312157454c34E(ptr noundef nonnull align 4 %_3), !dbg !1430, !noalias !1421
  br label %"_ZN69_$LT$std..sync..mutex..Mutex$LT$T$GT$$u20$as$u20$core..fmt..Debug$GT$3fmt17h68c821938d1b85bbE.exit", !dbg !1430

"_ZN69_$LT$std..sync..mutex..Mutex$LT$T$GT$$u20$as$u20$core..fmt..Debug$GT$3fmt17h68c821938d1b85bbE.exit": ; preds = %_ZN3std4sync6poison4Flag4done17h6b62417d8d60c5ceE.exit.i.i.i, %bb2.i.i.i, %bb5.i, %_ZN3std4sync6poison4Flag4done17h6b62417d8d60c5ceE.exit.i.i.i.i, %bb2.i.i.i25.i
  call void @llvm.lifetime.start.p0(i64 1, ptr nonnull %_36.i), !dbg !1431, !noalias !974
  call void @llvm.dbg.value(metadata ptr %_3, metadata !969, metadata !DIExpression(DW_OP_plus_uconst, 4, DW_OP_stack_value)), !dbg !1432
  call void @llvm.dbg.value(metadata ptr %_3, metadata !958, metadata !DIExpression(DW_OP_plus_uconst, 4, DW_OP_stack_value)), !dbg !959
  call void @llvm.dbg.value(metadata ptr %_3, metadata !1433, metadata !DIExpression(DW_OP_plus_uconst, 4, DW_OP_stack_value)), !dbg !1441
  %_53.i = getelementptr inbounds i8, ptr %_3, i64 4, !dbg !1443
  call void @llvm.dbg.value(metadata i8 0, metadata !1221, metadata !DIExpression()), !dbg !1444
  call void @llvm.dbg.value(metadata ptr %_53.i, metadata !1226, metadata !DIExpression()), !dbg !1444
  %21 = load atomic i8, ptr %_53.i monotonic, align 4, !dbg !1446, !noalias !974
  %22 = icmp ne i8 %21, 0, !dbg !1447
  %23 = zext i1 %22 to i8, !dbg !1447
  store i8 %23, ptr %_36.i, align 1, !dbg !1447, !noalias !974
; call core::fmt::builders::DebugStruct::field
  %_31.i = call noundef align 8 dereferenceable(16) ptr @_ZN4core3fmt8builders11DebugStruct5field17ha9e91e16904b9623E(ptr noalias noundef nonnull align 8 dereferenceable(16) %d.i, ptr noalias noundef nonnull readonly align 1 @alloc_a95dcc2b546265fe51dc710e0ec4e047, i64 noundef 8, ptr noundef nonnull align 1 %_36.i, ptr noalias noundef nonnull readonly align 8 dereferenceable(32) @vtable.h), !dbg !1448
  call void @llvm.lifetime.end.p0(i64 1, ptr nonnull %_36.i), !dbg !1449, !noalias !974
; call core::fmt::builders::DebugStruct::finish_non_exhaustive
  %_0.i = call noundef zeroext i1 @_ZN4core3fmt8builders11DebugStruct21finish_non_exhaustive17h13844b69093bed9cE(ptr noalias noundef nonnull align 8 dereferenceable(16) %d.i), !dbg !1450
  call void @llvm.lifetime.end.p0(i64 16, ptr nonnull %d.i), !dbg !1451, !noalias !974
  ret i1 %_0.i, !dbg !1452
}

; <&T as core::fmt::Debug>::fmt
; Function Attrs: nonlazybind uwtable
define internal noundef zeroext i1 @"_ZN42_$LT$$RF$T$u20$as$u20$core..fmt..Debug$GT$3fmt17h77136a7a6810a7e1E"(ptr noalias nocapture noundef readonly align 8 dereferenceable(8) %self, ptr noalias noundef align 8 dereferenceable(64) %f) unnamed_addr #1 !dbg !1453 {
start:
  tail call void @llvm.dbg.value(metadata ptr %self, metadata !1458, metadata !DIExpression()), !dbg !1460
  tail call void @llvm.dbg.value(metadata ptr %f, metadata !1459, metadata !DIExpression()), !dbg !1460
  %_3 = load ptr, ptr %self, align 8, !dbg !1461, !nonnull !12, !align !869, !noundef !12
  call void @llvm.dbg.value(metadata ptr %_3, metadata !1462, metadata !DIExpression()), !dbg !1471
  call void @llvm.dbg.value(metadata ptr %f, metadata !1470, metadata !DIExpression()), !dbg !1471
  call void @llvm.dbg.value(metadata ptr %f, metadata !1473, metadata !DIExpression()), !dbg !1481
  call void @llvm.dbg.value(metadata ptr %f, metadata !1483, metadata !DIExpression()), !dbg !1488
  %0 = getelementptr inbounds i8, ptr %f, i64 52, !dbg !1490
  %_4.i = load i32, ptr %0, align 4, !dbg !1490, !alias.scope !1491, !noalias !1494, !noundef !12
  %_3.i = and i32 %_4.i, 16, !dbg !1490
  %1 = icmp eq i32 %_3.i, 0, !dbg !1496
  br i1 %1, label %bb2.i, label %bb1.i, !dbg !1496

bb2.i:                                            ; preds = %start
  %_5.i = and i32 %_4.i, 32, !dbg !1497
  %2 = icmp eq i32 %_5.i, 0, !dbg !1498
  br i1 %2, label %bb4.i, label %bb3.i, !dbg !1498

bb1.i:                                            ; preds = %start
; call core::fmt::num::<impl core::fmt::LowerHex for usize>::fmt
  %3 = tail call noundef zeroext i1 @"_ZN4core3fmt3num55_$LT$impl$u20$core..fmt..LowerHex$u20$for$u20$usize$GT$3fmt17hb89b543945fdac37E"(ptr noalias noundef nonnull readonly align 8 dereferenceable(8) %_3, ptr noalias noundef nonnull align 8 dereferenceable(64) %f), !dbg !1499
  br label %"_ZN4core3fmt3num52_$LT$impl$u20$core..fmt..Debug$u20$for$u20$usize$GT$3fmt17ha3731fb0f809905cE.exit", !dbg !1499

bb4.i:                                            ; preds = %bb2.i
; call core::fmt::num::imp::<impl core::fmt::Display for usize>::fmt
  %4 = tail call noundef zeroext i1 @"_ZN4core3fmt3num3imp54_$LT$impl$u20$core..fmt..Display$u20$for$u20$usize$GT$3fmt17hdabfc7932e5a3df0E"(ptr noalias noundef nonnull readonly align 8 dereferenceable(8) %_3, ptr noalias noundef nonnull align 8 dereferenceable(64) %f), !dbg !1500
  br label %"_ZN4core3fmt3num52_$LT$impl$u20$core..fmt..Debug$u20$for$u20$usize$GT$3fmt17ha3731fb0f809905cE.exit", !dbg !1500

bb3.i:                                            ; preds = %bb2.i
; call core::fmt::num::<impl core::fmt::UpperHex for usize>::fmt
  %5 = tail call noundef zeroext i1 @"_ZN4core3fmt3num55_$LT$impl$u20$core..fmt..UpperHex$u20$for$u20$usize$GT$3fmt17hb258a21f77c3d954E"(ptr noalias noundef nonnull readonly align 8 dereferenceable(8) %_3, ptr noalias noundef nonnull align 8 dereferenceable(64) %f), !dbg !1501
  br label %"_ZN4core3fmt3num52_$LT$impl$u20$core..fmt..Debug$u20$for$u20$usize$GT$3fmt17ha3731fb0f809905cE.exit", !dbg !1501

"_ZN4core3fmt3num52_$LT$impl$u20$core..fmt..Debug$u20$for$u20$usize$GT$3fmt17ha3731fb0f809905cE.exit": ; preds = %bb1.i, %bb4.i, %bb3.i
  %_0.sroa.0.0.in.i = phi i1 [ %4, %bb4.i ], [ %5, %bb3.i ], [ %3, %bb1.i ]
  ret i1 %_0.sroa.0.0.in.i, !dbg !1502
}

; <&T as core::fmt::Debug>::fmt
; Function Attrs: nonlazybind uwtable
define internal noundef zeroext i1 @"_ZN42_$LT$$RF$T$u20$as$u20$core..fmt..Debug$GT$3fmt17ha5fbe053f5d193a2E"(ptr noalias nocapture noundef readonly align 8 dereferenceable(8) %self, ptr noalias noundef align 8 dereferenceable(64) %f) unnamed_addr #1 personality ptr @rust_eh_personality !dbg !1503 {
start:
  %v.i.i = alloca [8 x i8], align 8
  %k.i.i = alloca [8 x i8], align 8
  %_18.i = alloca [8 x i8], align 8
  %_10.i = alloca [16 x i8], align 8
  %_5.i = alloca [16 x i8], align 8
  tail call void @llvm.dbg.value(metadata ptr %self, metadata !1508, metadata !DIExpression()), !dbg !1512
  tail call void @llvm.dbg.value(metadata ptr %f, metadata !1509, metadata !DIExpression()), !dbg !1512
  %_3 = load ptr, ptr %self, align 8, !dbg !1513, !nonnull !12, !align !869, !noundef !12
  tail call void @llvm.experimental.noalias.scope.decl(metadata !1514), !dbg !1517
  tail call void @llvm.experimental.noalias.scope.decl(metadata !1518), !dbg !1517
  call void @llvm.dbg.value(metadata ptr %_3, metadata !1520, metadata !DIExpression()), !dbg !1528
  call void @llvm.dbg.value(metadata ptr %_3, metadata !1530, metadata !DIExpression()), !dbg !1537
  call void @llvm.dbg.value(metadata ptr %f, metadata !1527, metadata !DIExpression()), !dbg !1528
  call void @llvm.dbg.value(metadata ptr %f, metadata !1539, metadata !DIExpression()), !dbg !1544
  %0 = getelementptr inbounds i8, ptr %f, i64 52, !dbg !1546
  %_20.i = load i32, ptr %0, align 4, !dbg !1546, !alias.scope !1518, !noalias !1514, !noundef !12
  %_19.i = and i32 %_20.i, 4, !dbg !1546
  %1 = icmp eq i32 %_19.i, 0, !dbg !1547
  br i1 %1, label %bb6.i, label %bb1.i, !dbg !1547

bb6.i:                                            ; preds = %start
  call void @llvm.lifetime.start.p0(i64 16, ptr nonnull %_10.i), !dbg !1548, !noalias !1549
; call core::fmt::Formatter::debug_struct
  call void @_ZN4core3fmt9Formatter12debug_struct17hfe55f8660bb7c366E(ptr noalias nocapture noundef nonnull sret([16 x i8]) align 8 dereferenceable(16) %_10.i, ptr noalias noundef nonnull align 8 dereferenceable(64) %f, ptr noalias noundef nonnull readonly align 1 @alloc_ecae43ede18fdba78b6dffdc5df90dd8, i64 noundef 4), !dbg !1548, !noalias !1514
  %_14.i = getelementptr inbounds i8, ptr %_3, i64 24, !dbg !1550
; call core::fmt::builders::DebugStruct::field
  %_8.i = call noundef align 8 dereferenceable(16) ptr @_ZN4core3fmt8builders11DebugStruct5field17ha9e91e16904b9623E(ptr noalias noundef nonnull align 8 dereferenceable(16) %_10.i, ptr noalias noundef nonnull readonly align 1 @alloc_f92b1a49cd2fef011d7606f6333298f2, i64 noundef 3, ptr noundef nonnull align 1 %_14.i, ptr noalias noundef nonnull readonly align 8 dereferenceable(32) @vtable.0), !dbg !1548
  call void @llvm.lifetime.start.p0(i64 8, ptr nonnull %_18.i), !dbg !1551, !noalias !1549
  call void @llvm.dbg.value(metadata ptr %_3, metadata !1552, metadata !DIExpression()), !dbg !1561
  call void @llvm.dbg.value(metadata ptr %_3, metadata !1563, metadata !DIExpression()), !dbg !1572
  %2 = load i64, ptr %_3, align 8, !dbg !1574, !alias.scope !1514, !noalias !1518, !noundef !12
  store i64 %2, ptr %_18.i, align 8, !dbg !1574, !noalias !1549
; call core::fmt::builders::DebugStruct::field
  %_7.i = call noundef align 8 dereferenceable(16) ptr @_ZN4core3fmt8builders11DebugStruct5field17ha9e91e16904b9623E(ptr noalias noundef nonnull align 8 dereferenceable(16) %_8.i, ptr noalias noundef nonnull readonly align 1 @alloc_84452d4c362ef91ce628cf4a12e63db7, i64 noundef 3, ptr noundef nonnull align 1 %_18.i, ptr noalias noundef nonnull readonly align 8 dereferenceable(32) @vtable.0), !dbg !1548
; call core::fmt::builders::DebugStruct::finish
  %3 = call noundef zeroext i1 @_ZN4core3fmt8builders11DebugStruct6finish17hfe9f97b163d30fe5E(ptr noalias noundef nonnull align 8 dereferenceable(16) %_7.i), !dbg !1548
  call void @llvm.lifetime.end.p0(i64 8, ptr nonnull %_18.i), !dbg !1575, !noalias !1549
  call void @llvm.lifetime.end.p0(i64 16, ptr nonnull %_10.i), !dbg !1575, !noalias !1549
  br label %"_ZN56_$LT$slab..Slab$LT$T$GT$$u20$as$u20$core..fmt..Debug$GT$3fmt17h5af40dc3c2b8339aE.exit", !dbg !1576

bb1.i:                                            ; preds = %start
  call void @llvm.lifetime.start.p0(i64 16, ptr nonnull %_5.i), !dbg !1577, !noalias !1549
; call core::fmt::Formatter::debug_map
  call void @_ZN4core3fmt9Formatter9debug_map17h7f882350f87eccd8E(ptr noalias nocapture noundef nonnull sret([16 x i8]) align 8 dereferenceable(16) %_5.i, ptr noalias noundef nonnull align 8 dereferenceable(64) %f), !dbg !1577, !noalias !1514
  call void @llvm.dbg.value(metadata ptr %_3, metadata !1578, metadata !DIExpression()), !dbg !1608
  call void @llvm.dbg.value(metadata ptr %_3, metadata !1610, metadata !DIExpression()), !dbg !1622
  call void @llvm.dbg.value(metadata ptr %_3, metadata !1624, metadata !DIExpression()), !dbg !1631
  call void @llvm.dbg.value(metadata ptr %_3, metadata !1633, metadata !DIExpression()), !dbg !1641
  %4 = getelementptr inbounds i8, ptr %_3, i64 8, !dbg !1643
  %self3.i.i = load ptr, ptr %4, align 8, !dbg !1643, !alias.scope !1644, !noalias !1647, !nonnull !12, !noundef !12
  %5 = getelementptr inbounds i8, ptr %_3, i64 16, !dbg !1649
  %len.i.i = load i64, ptr %5, align 8, !dbg !1649, !alias.scope !1644, !noalias !1647, !noundef !12
  call void @llvm.dbg.value(metadata ptr %self3.i.i, metadata !1650, metadata !DIExpression(DW_OP_LLVM_fragment, 0, 64)), !dbg !1662
  call void @llvm.dbg.value(metadata ptr %self3.i.i, metadata !1664, metadata !DIExpression(DW_OP_LLVM_fragment, 0, 64)), !dbg !1676
  call void @llvm.dbg.value(metadata i64 %len.i.i, metadata !1650, metadata !DIExpression(DW_OP_LLVM_fragment, 64, 64)), !dbg !1662
  call void @llvm.dbg.value(metadata i64 %len.i.i, metadata !1664, metadata !DIExpression(DW_OP_LLVM_fragment, 64, 64)), !dbg !1676
  call void @llvm.dbg.value(metadata i64 %len.i.i, metadata !1670, metadata !DIExpression()), !dbg !1678
  call void @llvm.dbg.value(metadata i64 %len.i.i, metadata !1679, metadata !DIExpression()), !dbg !1689
  call void @llvm.dbg.value(metadata ptr %self3.i.i, metadata !1672, metadata !DIExpression()), !dbg !1691
  call void @llvm.dbg.value(metadata ptr %self3.i.i, metadata !1688, metadata !DIExpression()), !dbg !1689
  %_16.i.i = getelementptr inbounds %"slab::Entry<core::option::Option<core::task::wake::Waker>>", ptr %self3.i.i, i64 %len.i.i, !dbg !1692
  call void @llvm.dbg.value(metadata ptr %self3.i.i, metadata !1693, metadata !DIExpression(DW_OP_LLVM_fragment, 0, 64)), !dbg !1721
  call void @llvm.dbg.value(metadata ptr %_16.i.i, metadata !1693, metadata !DIExpression(DW_OP_LLVM_fragment, 64, 64)), !dbg !1721
  call void @llvm.dbg.value(metadata i64 0, metadata !1693, metadata !DIExpression(DW_OP_LLVM_fragment, 128, 64)), !dbg !1721
  call void @llvm.dbg.value(metadata i64 poison, metadata !1693, metadata !DIExpression(DW_OP_LLVM_fragment, 192, 64)), !dbg !1721
  call void @llvm.dbg.value(metadata ptr %_5.i, metadata !1715, metadata !DIExpression()), !dbg !1721
  call void @llvm.dbg.declare(metadata ptr %k.i.i, metadata !1718, metadata !DIExpression()), !dbg !1723
  call void @llvm.dbg.declare(metadata ptr %v.i.i, metadata !1720, metadata !DIExpression()), !dbg !1724
  call void @llvm.dbg.value(metadata ptr %self3.i.i, metadata !1716, metadata !DIExpression(DW_OP_LLVM_fragment, 0, 64)), !dbg !1725
  call void @llvm.dbg.value(metadata ptr %_16.i.i, metadata !1716, metadata !DIExpression(DW_OP_LLVM_fragment, 64, 64)), !dbg !1725
  call void @llvm.dbg.value(metadata i64 0, metadata !1716, metadata !DIExpression(DW_OP_LLVM_fragment, 128, 64)), !dbg !1725
  call void @llvm.dbg.value(metadata i64 poison, metadata !1716, metadata !DIExpression(DW_OP_LLVM_fragment, 192, 64)), !dbg !1725
  br label %bb1.i.i.i, !dbg !1726

bb1.i.i.i:                                        ; preds = %bb1.i.i.i.backedge, %bb1.i
  %_8.0.i7.i.i.i = phi i64 [ 0, %bb1.i ], [ %_8.0.i.i.i.i, %bb1.i.i.i.backedge ]
  %_14.i.i.i6.i.i.i = phi ptr [ %self3.i.i, %bb1.i ], [ %_14.i.i.i.i.i.i, %bb1.i.i.i.backedge ]
  call void @llvm.dbg.value(metadata ptr poison, metadata !1716, metadata !DIExpression(DW_OP_LLVM_fragment, 0, 64)), !dbg !1725
  call void @llvm.dbg.value(metadata i64 poison, metadata !1716, metadata !DIExpression(DW_OP_LLVM_fragment, 128, 64)), !dbg !1725
  call void @llvm.dbg.value(metadata ptr undef, metadata !1727, metadata !DIExpression()), !dbg !1758
  call void @llvm.dbg.value(metadata ptr undef, metadata !1799, metadata !DIExpression()), !dbg !1825
  call void @llvm.dbg.value(metadata ptr undef, metadata !1827, metadata !DIExpression()), !dbg !1850
  call void @llvm.dbg.value(metadata ptr undef, metadata !1852, metadata !DIExpression()), !dbg !1859
  call void @llvm.dbg.value(metadata ptr %_16.i.i, metadata !1848, metadata !DIExpression()), !dbg !1861
  call void @llvm.dbg.value(metadata ptr undef, metadata !1862, metadata !DIExpression()), !dbg !1872
  call void @llvm.dbg.value(metadata ptr undef, metadata !1871, metadata !DIExpression()), !dbg !1872
  %6 = icmp eq ptr %_14.i.i.i6.i.i.i, %_16.i.i, !dbg !1874
  br i1 %6, label %_ZN4core3fmt8builders8DebugMap7entries17ha3f283d7c4c06c8cE.exit.i, label %bb3.i.i.i, !dbg !1875

bb3.i.i.i:                                        ; preds = %bb1.i.i.i
  call void @llvm.dbg.value(metadata ptr undef, metadata !1876, metadata !DIExpression()), !dbg !1891
  call void @llvm.dbg.value(metadata i64 1, metadata !1882, metadata !DIExpression()), !dbg !1891
  call void @llvm.dbg.value(metadata i64 1, metadata !1893, metadata !DIExpression()), !dbg !1901
  call void @llvm.dbg.value(metadata ptr %_14.i.i.i6.i.i.i, metadata !1883, metadata !DIExpression()), !dbg !1903
  call void @llvm.dbg.value(metadata ptr undef, metadata !1888, metadata !DIExpression(DW_OP_plus_uconst, 8, DW_OP_stack_value)), !dbg !1904
  call void @llvm.dbg.value(metadata ptr %_14.i.i.i6.i.i.i, metadata !1900, metadata !DIExpression()), !dbg !1901
  %_14.i.i.i.i.i.i = getelementptr inbounds %"slab::Entry<core::option::Option<core::task::wake::Waker>>", ptr %_14.i.i.i6.i.i.i, i64 1, !dbg !1905
  call void @llvm.dbg.value(metadata ptr %_14.i.i.i.i.i.i, metadata !1716, metadata !DIExpression(DW_OP_LLVM_fragment, 0, 64)), !dbg !1725
  call void @llvm.dbg.value(metadata ptr %_14.i.i.i6.i.i.i, metadata !1806, metadata !DIExpression()), !dbg !1906
  call void @llvm.dbg.value(metadata i64 %_8.0.i7.i.i.i, metadata !1823, metadata !DIExpression()), !dbg !1907
  %_8.0.i.i.i.i = add i64 %_8.0.i7.i.i.i, 1, !dbg !1908
  call void @llvm.dbg.value(metadata i64 %_8.0.i.i.i.i, metadata !1716, metadata !DIExpression(DW_OP_LLVM_fragment, 128, 64)), !dbg !1725
  call void @llvm.dbg.value(metadata i64 poison, metadata !1786, metadata !DIExpression()), !dbg !1909
  call void @llvm.dbg.value(metadata ptr %_14.i.i.i6.i.i.i, metadata !1788, metadata !DIExpression()), !dbg !1909
  %_9.i.i.i = load i64, ptr %_14.i.i.i6.i.i.i, align 8, !dbg !1910, !range !1911, !noalias !1912, !noundef !12
  %trunc.not.not.i.i.i = icmp eq i64 %_9.i.i.i, 0, !dbg !1910
  br i1 %trunc.not.not.i.i.i, label %bb1.i.i.i.backedge, label %bb5.i.i, !dbg !1910

bb1.i.i.i.backedge:                               ; preds = %bb3.i.i.i, %bb5.i.i
  br label %bb1.i.i.i, !dbg !1725

bb5.i.i:                                          ; preds = %bb3.i.i.i
  call void @llvm.dbg.value(metadata ptr %_14.i.i.i6.i.i.i, metadata !1789, metadata !DIExpression(DW_OP_plus_uconst, 8, DW_OP_stack_value)), !dbg !1917
  call void @llvm.dbg.value(metadata i64 poison, metadata !1716, metadata !DIExpression(DW_OP_constu, 1, DW_OP_minus, DW_OP_stack_value, DW_OP_LLVM_fragment, 192, 64)), !dbg !1725
  %_12.i.i.i = getelementptr inbounds i8, ptr %_14.i.i.i6.i.i.i, i64 8, !dbg !1918
  call void @llvm.dbg.value(metadata ptr %_14.i.i.i.i.i.i, metadata !1716, metadata !DIExpression(DW_OP_LLVM_fragment, 0, 64)), !dbg !1725
  call void @llvm.dbg.value(metadata i64 poison, metadata !1716, metadata !DIExpression(DW_OP_constu, 1, DW_OP_minus, DW_OP_stack_value, DW_OP_LLVM_fragment, 192, 64)), !dbg !1725
  call void @llvm.dbg.value(metadata i64 %_8.0.i.i.i.i, metadata !1716, metadata !DIExpression(DW_OP_LLVM_fragment, 128, 64)), !dbg !1725
  call void @llvm.lifetime.start.p0(i64 8, ptr nonnull %k.i.i), !dbg !1919, !noalias !1920
  store i64 %_8.0.i7.i.i.i, ptr %k.i.i, align 8, !dbg !1919, !noalias !1920
  call void @llvm.lifetime.start.p0(i64 8, ptr nonnull %v.i.i), !dbg !1922, !noalias !1920
  store ptr %_12.i.i.i, ptr %v.i.i, align 8, !dbg !1922, !noalias !1920
; call core::fmt::builders::DebugMap::entry
  %_10.i.i = call noundef align 8 dereferenceable(16) ptr @_ZN4core3fmt8builders8DebugMap5entry17h04bcd5f7847cc8bdE(ptr noalias noundef nonnull align 8 dereferenceable(16) %_5.i, ptr noundef nonnull align 1 %k.i.i, ptr noalias noundef nonnull readonly align 8 dereferenceable(32) @vtable.0, ptr noundef nonnull align 1 %v.i.i, ptr noalias noundef nonnull readonly align 8 dereferenceable(32) @vtable.1), !dbg !1923, !noalias !1924
  call void @llvm.lifetime.end.p0(i64 8, ptr nonnull %v.i.i), !dbg !1925, !noalias !1920
  call void @llvm.lifetime.end.p0(i64 8, ptr nonnull %k.i.i), !dbg !1925, !noalias !1920
  br label %bb1.i.i.i.backedge, !dbg !1726

_ZN4core3fmt8builders8DebugMap7entries17ha3f283d7c4c06c8cE.exit.i: ; preds = %bb1.i.i.i
  call void @llvm.dbg.value(metadata ptr poison, metadata !1716, metadata !DIExpression(DW_OP_LLVM_fragment, 0, 64)), !dbg !1725
  call void @llvm.dbg.value(metadata i64 poison, metadata !1716, metadata !DIExpression(DW_OP_LLVM_fragment, 192, 64)), !dbg !1725
  call void @llvm.dbg.value(metadata i64 poison, metadata !1716, metadata !DIExpression(DW_OP_LLVM_fragment, 128, 64)), !dbg !1725
; call core::fmt::builders::DebugMap::finish
  %7 = call noundef zeroext i1 @_ZN4core3fmt8builders8DebugMap6finish17h8fb4873755bbd67aE(ptr noalias noundef nonnull align 8 dereferenceable(16) %_5.i), !dbg !1577, !noalias !1514
  call void @llvm.lifetime.end.p0(i64 16, ptr nonnull %_5.i), !dbg !1926, !noalias !1549
  br label %"_ZN56_$LT$slab..Slab$LT$T$GT$$u20$as$u20$core..fmt..Debug$GT$3fmt17h5af40dc3c2b8339aE.exit", !dbg !1576

"_ZN56_$LT$slab..Slab$LT$T$GT$$u20$as$u20$core..fmt..Debug$GT$3fmt17h5af40dc3c2b8339aE.exit": ; preds = %bb6.i, %_ZN4core3fmt8builders8DebugMap7entries17ha3f283d7c4c06c8cE.exit.i
  %_0.sroa.0.0.in.i = phi i1 [ %3, %bb6.i ], [ %7, %_ZN4core3fmt8builders8DebugMap7entries17ha3f283d7c4c06c8cE.exit.i ]
  ret i1 %_0.sroa.0.0.in.i, !dbg !1927
}

; <&T as core::fmt::Debug>::fmt
; Function Attrs: nonlazybind uwtable
define internal noundef zeroext i1 @"_ZN42_$LT$$RF$T$u20$as$u20$core..fmt..Debug$GT$3fmt17hb4d62ce02d8f0424E"(ptr noalias nocapture noundef readonly align 8 dereferenceable(8) %self, ptr noalias noundef align 8 dereferenceable(64) %f) unnamed_addr #1 !dbg !1928 {
start:
  %T.i = alloca [8 x i8], align 8
  %U.i = alloca [8 x i8], align 8
  %builder.i = alloca [24 x i8], align 8
  tail call void @llvm.dbg.value(metadata ptr %self, metadata !1933, metadata !DIExpression()), !dbg !1935
  tail call void @llvm.dbg.value(metadata ptr %f, metadata !1934, metadata !DIExpression()), !dbg !1935
  %_3 = load ptr, ptr %self, align 8, !dbg !1936, !nonnull !12, !align !869, !noundef !12
  call void @llvm.dbg.value(metadata ptr %_3, metadata !1937, metadata !DIExpression()), !dbg !1957
  call void @llvm.dbg.value(metadata ptr %f, metadata !1943, metadata !DIExpression()), !dbg !1957
  call void @llvm.dbg.declare(metadata ptr %builder.i, metadata !1944, metadata !DIExpression()), !dbg !1959
  call void @llvm.dbg.declare(metadata ptr %U.i, metadata !1952, metadata !DIExpression()), !dbg !1960
  call void @llvm.dbg.declare(metadata ptr %T.i, metadata !1954, metadata !DIExpression()), !dbg !1960
  call void @llvm.lifetime.start.p0(i64 24, ptr nonnull %builder.i), !dbg !1961, !noalias !1962
; call core::fmt::Formatter::debug_tuple
  call void @_ZN4core3fmt9Formatter11debug_tuple17h9634dda5ede991a5E(ptr noalias nocapture noundef nonnull sret([24 x i8]) align 8 dereferenceable(24) %builder.i, ptr noalias noundef nonnull align 8 dereferenceable(64) %f, ptr noalias noundef nonnull readonly align 1 inttoptr (i64 1 to ptr), i64 noundef 0), !dbg !1966, !noalias !1967
  call void @llvm.lifetime.start.p0(i64 8, ptr nonnull %U.i), !dbg !1968, !noalias !1962
  store ptr %_3, ptr %U.i, align 8, !dbg !1968, !noalias !1962
  call void @llvm.lifetime.start.p0(i64 8, ptr nonnull %T.i), !dbg !1968, !noalias !1962
  %0 = getelementptr inbounds i8, ptr %_3, i64 8, !dbg !1968
  store ptr %0, ptr %T.i, align 8, !dbg !1968, !noalias !1962
; call core::fmt::builders::DebugTuple::field
  %_7.i = call noundef align 8 dereferenceable(24) ptr @_ZN4core3fmt8builders10DebugTuple5field17h402e09bf70aec2f8E(ptr noalias noundef nonnull align 8 dereferenceable(24) %builder.i, ptr noundef nonnull align 1 %U.i, ptr noalias noundef nonnull readonly align 8 dereferenceable(32) @vtable.4), !dbg !1969
; call core::fmt::builders::DebugTuple::field
  %_11.i = call noundef align 8 dereferenceable(24) ptr @_ZN4core3fmt8builders10DebugTuple5field17h402e09bf70aec2f8E(ptr noalias noundef nonnull align 8 dereferenceable(24) %builder.i, ptr noundef nonnull align 1 %T.i, ptr noalias noundef nonnull readonly align 8 dereferenceable(32) @vtable.4), !dbg !1969
; call core::fmt::builders::DebugTuple::finish
  %_0.i = call noundef zeroext i1 @_ZN4core3fmt8builders10DebugTuple6finish17ha2afba6d4a556f7cE(ptr noalias noundef nonnull align 8 dereferenceable(24) %builder.i), !dbg !1970
  call void @llvm.lifetime.end.p0(i64 8, ptr nonnull %T.i), !dbg !1971, !noalias !1962
  call void @llvm.lifetime.end.p0(i64 8, ptr nonnull %U.i), !dbg !1971, !noalias !1962
  call void @llvm.lifetime.end.p0(i64 24, ptr nonnull %builder.i), !dbg !1972, !noalias !1962
  ret i1 %_0.i, !dbg !1973
}

; <&T as core::fmt::Debug>::fmt
; Function Attrs: nonlazybind uwtable
define internal noundef zeroext i1 @"_ZN42_$LT$$RF$T$u20$as$u20$core..fmt..Debug$GT$3fmt17hc144f745167bd286E"(ptr noalias nocapture noundef readonly align 8 dereferenceable(8) %self, ptr noalias noundef align 8 dereferenceable(64) %f) unnamed_addr #1 personality ptr @rust_eh_personality !dbg !1974 {
start:
  %entry.i.i.i = alloca [8 x i8], align 8
  %_5.i.i = alloca [16 x i8], align 8
  tail call void @llvm.dbg.value(metadata ptr %self, metadata !1979, metadata !DIExpression()), !dbg !1981
  tail call void @llvm.dbg.value(metadata ptr %f, metadata !1980, metadata !DIExpression()), !dbg !1981
  %_3 = load ptr, ptr %self, align 8, !dbg !1982, !nonnull !12, !align !869, !noundef !12
  call void @llvm.dbg.value(metadata ptr %_3, metadata !1983, metadata !DIExpression()), !dbg !1992
  call void @llvm.dbg.value(metadata ptr %f, metadata !1991, metadata !DIExpression()), !dbg !1992
  call void @llvm.dbg.value(metadata ptr %f, metadata !1994, metadata !DIExpression()), !dbg !2007
  call void @llvm.dbg.value(metadata ptr undef, metadata !2006, metadata !DIExpression()), !dbg !2007
  call void @llvm.dbg.value(metadata ptr %_3, metadata !2009, metadata !DIExpression(DW_OP_LLVM_fragment, 0, 64)), !dbg !2016
  call void @llvm.dbg.value(metadata i64 2, metadata !2009, metadata !DIExpression(DW_OP_LLVM_fragment, 64, 64)), !dbg !2016
  call void @llvm.dbg.value(metadata ptr %f, metadata !2015, metadata !DIExpression()), !dbg !2016
  call void @llvm.lifetime.start.p0(i64 16, ptr nonnull %_5.i.i), !dbg !2018, !noalias !2019
; call core::fmt::Formatter::debug_list
  call void @_ZN4core3fmt9Formatter10debug_list17hce1082af628ba6fcE(ptr noalias nocapture noundef nonnull sret([16 x i8]) align 8 dereferenceable(16) %_5.i.i, ptr noalias noundef nonnull align 8 dereferenceable(64) %f), !dbg !2018, !noalias !2026
  call void @llvm.dbg.value(metadata ptr %_5.i.i, metadata !2027, metadata !DIExpression()), !dbg !2062
  call void @llvm.dbg.value(metadata ptr %_3, metadata !2057, metadata !DIExpression(DW_OP_LLVM_fragment, 0, 64)), !dbg !2062
  call void @llvm.dbg.value(metadata ptr %_3, metadata !2057, metadata !DIExpression(DW_OP_plus_uconst, 176, DW_OP_stack_value, DW_OP_LLVM_fragment, 64, 64)), !dbg !2062
  call void @llvm.dbg.declare(metadata ptr %entry.i.i.i, metadata !2060, metadata !DIExpression()), !dbg !2064
  call void @llvm.dbg.value(metadata ptr %_3, metadata !2058, metadata !DIExpression(DW_OP_LLVM_fragment, 0, 64)), !dbg !2065
  call void @llvm.dbg.value(metadata ptr %_3, metadata !2058, metadata !DIExpression(DW_OP_plus_uconst, 176, DW_OP_stack_value, DW_OP_LLVM_fragment, 64, 64)), !dbg !2065
  call void @llvm.dbg.value(metadata ptr %_3, metadata !2058, metadata !DIExpression(DW_OP_LLVM_fragment, 0, 64)), !dbg !2065
  call void @llvm.dbg.value(metadata ptr undef, metadata !2066, metadata !DIExpression()), !dbg !2087
  call void @llvm.dbg.value(metadata ptr undef, metadata !2089, metadata !DIExpression()), !dbg !2095
  call void @llvm.dbg.value(metadata ptr %_3, metadata !2058, metadata !DIExpression(DW_OP_LLVM_fragment, 0, 64)), !dbg !2065
  call void @llvm.dbg.value(metadata ptr undef, metadata !2097, metadata !DIExpression()), !dbg !2111
  call void @llvm.dbg.value(metadata i64 1, metadata !2103, metadata !DIExpression()), !dbg !2111
  call void @llvm.dbg.value(metadata i64 1, metadata !2113, metadata !DIExpression()), !dbg !2121
  call void @llvm.dbg.value(metadata ptr %_3, metadata !2104, metadata !DIExpression()), !dbg !2123
  call void @llvm.dbg.value(metadata ptr undef, metadata !2108, metadata !DIExpression(DW_OP_plus_uconst, 8, DW_OP_stack_value)), !dbg !2124
  call void @llvm.dbg.value(metadata ptr %_3, metadata !2120, metadata !DIExpression()), !dbg !2121
  call void @llvm.dbg.value(metadata !DIArgList(ptr %_3, i64 88), metadata !2058, metadata !DIExpression(DW_OP_LLVM_arg, 0, DW_OP_LLVM_arg, 1, DW_OP_constu, 1, DW_OP_mul, DW_OP_plus, DW_OP_stack_value, DW_OP_LLVM_fragment, 0, 64)), !dbg !2065
  call void @llvm.lifetime.start.p0(i64 8, ptr nonnull %entry.i.i.i), !dbg !2125, !noalias !2126
  store ptr %_3, ptr %entry.i.i.i, align 8, !dbg !2125, !noalias !2126
; call core::fmt::builders::DebugList::entry
  %_9.i.i.i = call noundef align 8 dereferenceable(16) ptr @_ZN4core3fmt8builders9DebugList5entry17he5a4465e1dd4a691E(ptr noalias noundef nonnull align 8 dereferenceable(16) %_5.i.i, ptr noundef nonnull align 1 %entry.i.i.i, ptr noalias noundef nonnull readonly align 8 dereferenceable(32) @vtable.3), !dbg !2129
  call void @llvm.lifetime.end.p0(i64 8, ptr nonnull %entry.i.i.i), !dbg !2130, !noalias !2126
  call void @llvm.dbg.value(metadata ptr undef, metadata !2066, metadata !DIExpression()), !dbg !2087
  call void @llvm.dbg.value(metadata ptr undef, metadata !2089, metadata !DIExpression()), !dbg !2095
  %iter.sroa.0.06.i.ptr.1.i.i = getelementptr inbounds i8, ptr %_3, i64 88, !dbg !2131
  call void @llvm.dbg.value(metadata ptr %iter.sroa.0.06.i.ptr.1.i.i, metadata !2058, metadata !DIExpression(DW_OP_LLVM_fragment, 0, 64)), !dbg !2065
  call void @llvm.dbg.value(metadata ptr undef, metadata !2097, metadata !DIExpression()), !dbg !2111
  call void @llvm.dbg.value(metadata i64 1, metadata !2103, metadata !DIExpression()), !dbg !2111
  call void @llvm.dbg.value(metadata i64 1, metadata !2113, metadata !DIExpression()), !dbg !2121
  call void @llvm.dbg.value(metadata ptr %iter.sroa.0.06.i.ptr.1.i.i, metadata !2104, metadata !DIExpression()), !dbg !2123
  call void @llvm.dbg.value(metadata ptr undef, metadata !2108, metadata !DIExpression(DW_OP_plus_uconst, 8, DW_OP_stack_value)), !dbg !2124
  call void @llvm.dbg.value(metadata ptr %iter.sroa.0.06.i.ptr.1.i.i, metadata !2120, metadata !DIExpression()), !dbg !2121
  call void @llvm.dbg.value(metadata !DIArgList(ptr %_3, i64 176), metadata !2058, metadata !DIExpression(DW_OP_LLVM_arg, 0, DW_OP_LLVM_arg, 1, DW_OP_constu, 1, DW_OP_mul, DW_OP_plus, DW_OP_stack_value, DW_OP_LLVM_fragment, 0, 64)), !dbg !2065
  call void @llvm.lifetime.start.p0(i64 8, ptr nonnull %entry.i.i.i), !dbg !2125, !noalias !2126
  store ptr %iter.sroa.0.06.i.ptr.1.i.i, ptr %entry.i.i.i, align 8, !dbg !2125, !noalias !2126
; call core::fmt::builders::DebugList::entry
  %_9.i.1.i.i = call noundef align 8 dereferenceable(16) ptr @_ZN4core3fmt8builders9DebugList5entry17he5a4465e1dd4a691E(ptr noalias noundef nonnull align 8 dereferenceable(16) %_5.i.i, ptr noundef nonnull align 1 %entry.i.i.i, ptr noalias noundef nonnull readonly align 8 dereferenceable(32) @vtable.3), !dbg !2129
  call void @llvm.lifetime.end.p0(i64 8, ptr nonnull %entry.i.i.i), !dbg !2130, !noalias !2126
  call void @llvm.dbg.value(metadata ptr undef, metadata !2066, metadata !DIExpression()), !dbg !2087
  call void @llvm.dbg.value(metadata ptr undef, metadata !2089, metadata !DIExpression()), !dbg !2095
  call void @llvm.dbg.value(metadata ptr poison, metadata !2058, metadata !DIExpression(DW_OP_LLVM_fragment, 0, 64)), !dbg !2065
; call core::fmt::builders::DebugList::finish
  %_0.i.i = call noundef zeroext i1 @_ZN4core3fmt8builders9DebugList6finish17h9fea27fe6baef614E(ptr noalias noundef nonnull align 8 dereferenceable(16) %_5.i.i), !dbg !2018
  call void @llvm.lifetime.end.p0(i64 16, ptr nonnull %_5.i.i), !dbg !2132, !noalias !2019
  ret i1 %_0.i.i, !dbg !2133
}

; <&T as core::fmt::Debug>::fmt
; Function Attrs: nonlazybind uwtable
define internal noundef zeroext i1 @"_ZN42_$LT$$RF$T$u20$as$u20$core..fmt..Debug$GT$3fmt17hc8b5ecf03b0cbe9aE"(ptr noalias nocapture noundef readonly align 8 dereferenceable(8) %self, ptr noalias noundef align 8 dereferenceable(64) %f) unnamed_addr #1 !dbg !2134 {
start:
  %__self_0.i = alloca [8 x i8], align 8
  tail call void @llvm.dbg.value(metadata ptr %self, metadata !2139, metadata !DIExpression()), !dbg !2141
  tail call void @llvm.dbg.value(metadata ptr %f, metadata !2140, metadata !DIExpression()), !dbg !2141
  %_3 = load ptr, ptr %self, align 8, !dbg !2142, !nonnull !12, !align !869, !noundef !12
  tail call void @llvm.experimental.noalias.scope.decl(metadata !2143), !dbg !2146
  call void @llvm.dbg.value(metadata ptr %_3, metadata !2147, metadata !DIExpression()), !dbg !2157
  call void @llvm.dbg.value(metadata ptr %f, metadata !2154, metadata !DIExpression()), !dbg !2157
  call void @llvm.dbg.declare(metadata ptr %__self_0.i, metadata !2155, metadata !DIExpression()), !dbg !2159
  %0 = load ptr, ptr %_3, align 8, !dbg !2160, !alias.scope !2143, !noalias !2161, !noundef !12
  %1 = icmp eq ptr %0, null, !dbg !2160
  br i1 %1, label %bb3.i, label %bb2.i, !dbg !2160

bb3.i:                                            ; preds = %start
; call core::fmt::Formatter::write_str
  %2 = tail call noundef zeroext i1 @_ZN4core3fmt9Formatter9write_str17h35be9e09c65db375E(ptr noalias noundef nonnull align 8 dereferenceable(64) %f, ptr noalias noundef nonnull readonly align 1 @alloc_37d2e53432a03a1f90b3e7253015eaf9, i64 noundef 4), !dbg !2160, !noalias !2143
  br label %"_ZN66_$LT$core..option..Option$LT$T$GT$$u20$as$u20$core..fmt..Debug$GT$3fmt17h070f329d0fc42b27E.exit", !dbg !2160

bb2.i:                                            ; preds = %start
  call void @llvm.lifetime.start.p0(i64 8, ptr nonnull %__self_0.i), !dbg !2163, !noalias !2164
  store ptr %_3, ptr %__self_0.i, align 8, !dbg !2163, !noalias !2164
; call core::fmt::Formatter::debug_tuple_field1_finish
  %3 = call noundef zeroext i1 @_ZN4core3fmt9Formatter25debug_tuple_field1_finish17hda02114f9a9fecb7E(ptr noalias noundef nonnull align 8 dereferenceable(64) %f, ptr noalias noundef nonnull readonly align 1 @alloc_9535bf4c204f3eb9b19ec2c83e446e52, i64 noundef 4, ptr noundef nonnull align 1 %__self_0.i, ptr noalias noundef nonnull readonly align 8 dereferenceable(32) @vtable.c), !dbg !2165
  call void @llvm.lifetime.end.p0(i64 8, ptr nonnull %__self_0.i), !dbg !2166, !noalias !2164
  br label %"_ZN66_$LT$core..option..Option$LT$T$GT$$u20$as$u20$core..fmt..Debug$GT$3fmt17h070f329d0fc42b27E.exit", !dbg !2166

"_ZN66_$LT$core..option..Option$LT$T$GT$$u20$as$u20$core..fmt..Debug$GT$3fmt17h070f329d0fc42b27E.exit": ; preds = %bb3.i, %bb2.i
  %_0.sroa.0.0.in.i = phi i1 [ %2, %bb3.i ], [ %3, %bb2.i ]
  ret i1 %_0.sroa.0.0.in.i, !dbg !2167
}

; <&T as core::fmt::Debug>::fmt
; Function Attrs: nonlazybind uwtable
define internal noundef zeroext i1 @"_ZN42_$LT$$RF$T$u20$as$u20$core..fmt..Debug$GT$3fmt17hd21c264134b9179dE"(ptr noalias nocapture noundef readonly align 8 dereferenceable(8) %self, ptr noalias noundef align 8 dereferenceable(64) %f) unnamed_addr #1 !dbg !2168 {
start:
  %__self_0.i = alloca [8 x i8], align 8
  tail call void @llvm.dbg.value(metadata ptr %self, metadata !2173, metadata !DIExpression()), !dbg !2177
  tail call void @llvm.dbg.value(metadata ptr %f, metadata !2174, metadata !DIExpression()), !dbg !2177
  %_3 = load ptr, ptr %self, align 8, !dbg !2178, !nonnull !12, !align !830, !noundef !12
  tail call void @llvm.experimental.noalias.scope.decl(metadata !2179), !dbg !2182
  call void @llvm.dbg.value(metadata ptr %_3, metadata !2183, metadata !DIExpression()), !dbg !2191
  call void @llvm.dbg.value(metadata ptr %f, metadata !2188, metadata !DIExpression()), !dbg !2191
  call void @llvm.dbg.declare(metadata ptr %__self_0.i, metadata !2189, metadata !DIExpression()), !dbg !2193
  %0 = load i32, ptr %_3, align 4, !dbg !2194, !alias.scope !2179, !noalias !2195, !noundef !12
  %1 = icmp eq i32 %0, -1, !dbg !2194
  br i1 %1, label %bb3.i, label %bb2.i, !dbg !2194

bb3.i:                                            ; preds = %start
; call core::fmt::Formatter::write_str
  %2 = tail call noundef zeroext i1 @_ZN4core3fmt9Formatter9write_str17h35be9e09c65db375E(ptr noalias noundef nonnull align 8 dereferenceable(64) %f, ptr noalias noundef nonnull readonly align 1 @alloc_37d2e53432a03a1f90b3e7253015eaf9, i64 noundef 4), !dbg !2194, !noalias !2179
  br label %"_ZN66_$LT$core..option..Option$LT$T$GT$$u20$as$u20$core..fmt..Debug$GT$3fmt17h862b752061092e25E.exit", !dbg !2194

bb2.i:                                            ; preds = %start
  call void @llvm.lifetime.start.p0(i64 8, ptr nonnull %__self_0.i), !dbg !2197, !noalias !2198
  store ptr %_3, ptr %__self_0.i, align 8, !dbg !2197, !noalias !2198
; call core::fmt::Formatter::debug_tuple_field1_finish
  %3 = call noundef zeroext i1 @_ZN4core3fmt9Formatter25debug_tuple_field1_finish17hda02114f9a9fecb7E(ptr noalias noundef nonnull align 8 dereferenceable(64) %f, ptr noalias noundef nonnull readonly align 1 @alloc_9535bf4c204f3eb9b19ec2c83e446e52, i64 noundef 4, ptr noundef nonnull align 1 %__self_0.i, ptr noalias noundef nonnull readonly align 8 dereferenceable(32) @vtable.d), !dbg !2199
  call void @llvm.lifetime.end.p0(i64 8, ptr nonnull %__self_0.i), !dbg !2200, !noalias !2198
  br label %"_ZN66_$LT$core..option..Option$LT$T$GT$$u20$as$u20$core..fmt..Debug$GT$3fmt17h862b752061092e25E.exit", !dbg !2200

"_ZN66_$LT$core..option..Option$LT$T$GT$$u20$as$u20$core..fmt..Debug$GT$3fmt17h862b752061092e25E.exit": ; preds = %bb3.i, %bb2.i
  %_0.sroa.0.0.in.i = phi i1 [ %2, %bb3.i ], [ %3, %bb2.i ]
  ret i1 %_0.sroa.0.0.in.i, !dbg !2201
}

; <&T as core::fmt::Debug>::fmt
; Function Attrs: nonlazybind uwtable
define internal noundef zeroext i1 @"_ZN42_$LT$$RF$T$u20$as$u20$core..fmt..Debug$GT$3fmt17hdded1754ab8b1346E"(ptr noalias nocapture noundef readonly align 8 dereferenceable(8) %self, ptr noalias noundef align 8 dereferenceable(64) %f) unnamed_addr #1 !dbg !2202 {
start:
  tail call void @llvm.dbg.value(metadata ptr %self, metadata !2207, metadata !DIExpression()), !dbg !2209
  tail call void @llvm.dbg.value(metadata ptr %f, metadata !2208, metadata !DIExpression()), !dbg !2209
  %_3 = load ptr, ptr %self, align 8, !dbg !2210, !nonnull !12, !align !869, !noundef !12
; call <core::task::wake::Waker as core::fmt::Debug>::fmt
  %_0 = tail call noundef zeroext i1 @"_ZN60_$LT$core..task..wake..Waker$u20$as$u20$core..fmt..Debug$GT$3fmt17h4536cb5a43270df5E"(ptr noalias noundef nonnull readonly align 8 dereferenceable(16) %_3, ptr noalias noundef nonnull align 8 dereferenceable(64) %f), !dbg !2211
  ret i1 %_0, !dbg !2212
}

; core::fmt::num::<impl core::fmt::Debug for usize>::fmt
; Function Attrs: inlinehint nonlazybind uwtable
define internal noundef zeroext i1 @"_ZN4core3fmt3num52_$LT$impl$u20$core..fmt..Debug$u20$for$u20$usize$GT$3fmt17ha3731fb0f809905cE"(ptr noalias noundef readonly align 8 dereferenceable(8) %self, ptr noalias noundef align 8 dereferenceable(64) %f) unnamed_addr #0 !dbg !1463 {
start:
  tail call void @llvm.dbg.value(metadata ptr %self, metadata !1462, metadata !DIExpression()), !dbg !2213
  tail call void @llvm.dbg.value(metadata ptr %f, metadata !1470, metadata !DIExpression()), !dbg !2213
  tail call void @llvm.dbg.value(metadata ptr %f, metadata !1473, metadata !DIExpression()), !dbg !2214
  tail call void @llvm.dbg.value(metadata ptr %f, metadata !1483, metadata !DIExpression()), !dbg !2216
  %0 = getelementptr inbounds i8, ptr %f, i64 52, !dbg !2218
  %_4 = load i32, ptr %0, align 4, !dbg !2218, !noundef !12
  %_3 = and i32 %_4, 16, !dbg !2218
  %1 = icmp eq i32 %_3, 0, !dbg !2219
  br i1 %1, label %bb2, label %bb1, !dbg !2219

bb2:                                              ; preds = %start
  %_5 = and i32 %_4, 32, !dbg !2220
  %2 = icmp eq i32 %_5, 0, !dbg !2221
  br i1 %2, label %bb4, label %bb3, !dbg !2221

bb1:                                              ; preds = %start
; call core::fmt::num::<impl core::fmt::LowerHex for usize>::fmt
  %3 = tail call noundef zeroext i1 @"_ZN4core3fmt3num55_$LT$impl$u20$core..fmt..LowerHex$u20$for$u20$usize$GT$3fmt17hb89b543945fdac37E"(ptr noalias noundef nonnull readonly align 8 dereferenceable(8) %self, ptr noalias noundef nonnull align 8 dereferenceable(64) %f), !dbg !2222
  br label %bb6, !dbg !2222

bb4:                                              ; preds = %bb2
; call core::fmt::num::imp::<impl core::fmt::Display for usize>::fmt
  %4 = tail call noundef zeroext i1 @"_ZN4core3fmt3num3imp54_$LT$impl$u20$core..fmt..Display$u20$for$u20$usize$GT$3fmt17hdabfc7932e5a3df0E"(ptr noalias noundef nonnull readonly align 8 dereferenceable(8) %self, ptr noalias noundef nonnull align 8 dereferenceable(64) %f), !dbg !2223
  br label %bb6, !dbg !2223

bb3:                                              ; preds = %bb2
; call core::fmt::num::<impl core::fmt::UpperHex for usize>::fmt
  %5 = tail call noundef zeroext i1 @"_ZN4core3fmt3num55_$LT$impl$u20$core..fmt..UpperHex$u20$for$u20$usize$GT$3fmt17hb258a21f77c3d954E"(ptr noalias noundef nonnull readonly align 8 dereferenceable(8) %self, ptr noalias noundef nonnull align 8 dereferenceable(64) %f), !dbg !2224
  br label %bb6, !dbg !2224

bb6:                                              ; preds = %bb4, %bb3, %bb1
  %_0.sroa.0.0.in = phi i1 [ %4, %bb4 ], [ %5, %bb3 ], [ %3, %bb1 ]
  ret i1 %_0.sroa.0.0.in, !dbg !2225
}

; core::ptr::drop_in_place<std::sync::mutex::MutexGuard<[async_io::reactor::Direction; 2]>>
; Function Attrs: nonlazybind uwtable
define internal fastcc void @"_ZN4core3ptr106drop_in_place$LT$std..sync..mutex..MutexGuard$LT$$u5b$async_io..reactor..Direction$u3b$$u20$2$u5d$$GT$$GT$17hcc31a7b446319476E"(ptr %_1.0.val, i8 %_1.8.val) unnamed_addr #1 !dbg !1263 {
start:
  tail call void @llvm.dbg.value(metadata ptr undef, metadata !1262, metadata !DIExpression()), !dbg !2226
  call void @llvm.dbg.value(metadata i32 0, metadata !1271, metadata !DIExpression()), !dbg !2227
  call void @llvm.dbg.value(metadata i8 1, metadata !1279, metadata !DIExpression()), !dbg !2227
  call void @llvm.dbg.value(metadata i32 0, metadata !1298, metadata !DIExpression()), !dbg !2231
  call void @llvm.dbg.value(metadata i8 1, metadata !1305, metadata !DIExpression()), !dbg !2231
  call void @llvm.dbg.value(metadata ptr undef, metadata !1296, metadata !DIExpression()), !dbg !2233
  %0 = icmp ne ptr %_1.0.val, null
  tail call void @llvm.assume(i1 %0)
  %_3.i = getelementptr inbounds i8, ptr %_1.0.val, i64 4, !dbg !2234
  call void @llvm.dbg.value(metadata ptr @_ZN3std9panicking11panic_count18GLOBAL_PANIC_COUNT17h00e7dcd913cdfbe0E, metadata !1309, metadata !DIExpression()), !dbg !2235
  call void @llvm.dbg.value(metadata i8 0, metadata !1313, metadata !DIExpression()), !dbg !2235
  call void @llvm.dbg.value(metadata i8 1, metadata !1334, metadata !DIExpression()), !dbg !2241
  call void @llvm.dbg.value(metadata i8 0, metadata !1342, metadata !DIExpression()), !dbg !2241
  call void @llvm.dbg.value(metadata ptr %_3.i, metadata !1331, metadata !DIExpression()), !dbg !2243
  call void @llvm.dbg.value(metadata ptr undef, metadata !1332, metadata !DIExpression()), !dbg !2243
  %_3.not.i.i = icmp eq i8 %_1.8.val, 0, !dbg !2244
  br i1 %_3.not.i.i, label %bb1.i.i, label %_ZN3std4sync6poison4Flag4done17h6b62417d8d60c5ceE.exit.i, !dbg !2244

bb1.i.i:                                          ; preds = %start
  call void @llvm.dbg.value(metadata i8 0, metadata !1200, metadata !DIExpression()), !dbg !2245
  call void @llvm.dbg.value(metadata ptr @_ZN3std9panicking11panic_count18GLOBAL_PANIC_COUNT17h00e7dcd913cdfbe0E, metadata !1206, metadata !DIExpression()), !dbg !2245
  %1 = load atomic i64, ptr @_ZN3std9panicking11panic_count18GLOBAL_PANIC_COUNT17h00e7dcd913cdfbe0E monotonic, align 8, !dbg !2247, !noalias !2248
  %_7.i.i = and i64 %1, 9223372036854775807, !dbg !2251
  %2 = icmp eq i64 %_7.i.i, 0, !dbg !2251
  br i1 %2, label %_ZN3std4sync6poison4Flag4done17h6b62417d8d60c5ceE.exit.i, label %bb6.i.i, !dbg !2251

bb6.i.i:                                          ; preds = %bb1.i.i
; call std::panicking::panic_count::is_zero_slow_path
  %_6.i.i = tail call noundef zeroext i1 @_ZN3std9panicking11panic_count17is_zero_slow_path17h24de30857bbd803cE(), !dbg !2252, !noalias !2248
  br i1 %_6.i.i, label %_ZN3std4sync6poison4Flag4done17h6b62417d8d60c5ceE.exit.i, label %bb2.i.i, !dbg !2253

bb2.i.i:                                          ; preds = %bb6.i.i
  call void @llvm.dbg.value(metadata ptr %_3.i, metadata !1341, metadata !DIExpression()), !dbg !2241
  call void @llvm.dbg.value(metadata i8 0, metadata !1357, metadata !DIExpression()), !dbg !2254
  call void @llvm.dbg.value(metadata ptr %_3.i, metadata !1363, metadata !DIExpression()), !dbg !2254
  call void @llvm.dbg.value(metadata i8 1, metadata !1364, metadata !DIExpression()), !dbg !2254
  store atomic i8 1, ptr %_3.i monotonic, align 1, !dbg !2256, !noalias !2248
  br label %_ZN3std4sync6poison4Flag4done17h6b62417d8d60c5ceE.exit.i, !dbg !2257

_ZN3std4sync6poison4Flag4done17h6b62417d8d60c5ceE.exit.i: ; preds = %bb2.i.i, %bb6.i.i, %bb1.i.i, %start
  call void @llvm.dbg.value(metadata ptr %_1.0.val, metadata !1288, metadata !DIExpression()), !dbg !2258
  call void @llvm.dbg.value(metadata ptr %_1.0.val, metadata !1278, metadata !DIExpression()), !dbg !2227
  call void @llvm.dbg.value(metadata ptr %_1.0.val, metadata !1304, metadata !DIExpression()), !dbg !2231
  %3 = atomicrmw xchg ptr %_1.0.val, i32 0 release, align 4, !dbg !2259, !noalias !2248
  %_8.i = icmp eq i32 %3, 2, !dbg !2260
  br i1 %_8.i, label %bb2.i, label %"_ZN79_$LT$std..sync..mutex..MutexGuard$LT$T$GT$$u20$as$u20$core..ops..drop..Drop$GT$4drop17h2be4ec1bef7b05b6E.exit", !dbg !2260

bb2.i:                                            ; preds = %_ZN3std4sync6poison4Flag4done17h6b62417d8d60c5ceE.exit.i
; call std::sys::sync::mutex::futex::Mutex::wake
  tail call void @_ZN3std3sys4sync5mutex5futex5Mutex4wake17hc487312157454c34E(ptr noundef nonnull align 4 %_1.0.val), !dbg !2261, !noalias !2248
  br label %"_ZN79_$LT$std..sync..mutex..MutexGuard$LT$T$GT$$u20$as$u20$core..ops..drop..Drop$GT$4drop17h2be4ec1bef7b05b6E.exit", !dbg !2261

"_ZN79_$LT$std..sync..mutex..MutexGuard$LT$T$GT$$u20$as$u20$core..ops..drop..Drop$GT$4drop17h2be4ec1bef7b05b6E.exit": ; preds = %_ZN3std4sync6poison4Flag4done17h6b62417d8d60c5ceE.exit.i, %bb2.i
  ret void, !dbg !2262
}

; core::ptr::drop_in_place<std::sync::poison::PoisonError<std::sync::mutex::MutexGuard<[async_io::reactor::Direction; 2]>>>
; Function Attrs: nonlazybind uwtable
define internal fastcc void @"_ZN4core3ptr144drop_in_place$LT$std..sync..poison..PoisonError$LT$std..sync..mutex..MutexGuard$LT$$u5b$async_io..reactor..Direction$u3b$$u20$2$u5d$$GT$$GT$$GT$17h25af2e82673dfa1bE"(ptr %_1.0.val, i8 %_1.8.val) unnamed_addr #1 !dbg !1385 {
start:
  tail call void @llvm.dbg.value(metadata ptr undef, metadata !1384, metadata !DIExpression()), !dbg !2263
  %0 = icmp ne ptr %_1.0.val, null
  tail call void @llvm.assume(i1 %0)
  call void @llvm.dbg.value(metadata ptr undef, metadata !1262, metadata !DIExpression()), !dbg !2264
  call void @llvm.dbg.value(metadata i32 0, metadata !1271, metadata !DIExpression()), !dbg !2266
  call void @llvm.dbg.value(metadata i8 1, metadata !1279, metadata !DIExpression()), !dbg !2266
  call void @llvm.dbg.value(metadata i32 0, metadata !1298, metadata !DIExpression()), !dbg !2270
  call void @llvm.dbg.value(metadata i8 1, metadata !1305, metadata !DIExpression()), !dbg !2270
  call void @llvm.dbg.value(metadata ptr undef, metadata !1296, metadata !DIExpression()), !dbg !2272
  %_3.i.i = getelementptr inbounds i8, ptr %_1.0.val, i64 4, !dbg !2273
  call void @llvm.dbg.value(metadata ptr @_ZN3std9panicking11panic_count18GLOBAL_PANIC_COUNT17h00e7dcd913cdfbe0E, metadata !1309, metadata !DIExpression()), !dbg !2274
  call void @llvm.dbg.value(metadata i8 0, metadata !1313, metadata !DIExpression()), !dbg !2274
  call void @llvm.dbg.value(metadata i8 1, metadata !1334, metadata !DIExpression()), !dbg !2280
  call void @llvm.dbg.value(metadata i8 0, metadata !1342, metadata !DIExpression()), !dbg !2280
  call void @llvm.dbg.value(metadata ptr %_3.i.i, metadata !1331, metadata !DIExpression()), !dbg !2282
  call void @llvm.dbg.value(metadata ptr undef, metadata !1332, metadata !DIExpression()), !dbg !2282
  %_3.not.i.i.i = icmp eq i8 %_1.8.val, 0, !dbg !2283
  br i1 %_3.not.i.i.i, label %bb1.i.i.i, label %_ZN3std4sync6poison4Flag4done17h6b62417d8d60c5ceE.exit.i.i, !dbg !2283

bb1.i.i.i:                                        ; preds = %start
  call void @llvm.dbg.value(metadata i8 0, metadata !1200, metadata !DIExpression()), !dbg !2284
  call void @llvm.dbg.value(metadata ptr @_ZN3std9panicking11panic_count18GLOBAL_PANIC_COUNT17h00e7dcd913cdfbe0E, metadata !1206, metadata !DIExpression()), !dbg !2284
  %1 = load atomic i64, ptr @_ZN3std9panicking11panic_count18GLOBAL_PANIC_COUNT17h00e7dcd913cdfbe0E monotonic, align 8, !dbg !2286, !noalias !2287
  %_7.i.i.i = and i64 %1, 9223372036854775807, !dbg !2290
  %2 = icmp eq i64 %_7.i.i.i, 0, !dbg !2290
  br i1 %2, label %_ZN3std4sync6poison4Flag4done17h6b62417d8d60c5ceE.exit.i.i, label %bb6.i.i.i, !dbg !2290

bb6.i.i.i:                                        ; preds = %bb1.i.i.i
; call std::panicking::panic_count::is_zero_slow_path
  %_6.i.i.i = tail call noundef zeroext i1 @_ZN3std9panicking11panic_count17is_zero_slow_path17h24de30857bbd803cE(), !dbg !2291, !noalias !2287
  br i1 %_6.i.i.i, label %_ZN3std4sync6poison4Flag4done17h6b62417d8d60c5ceE.exit.i.i, label %bb2.i.i.i, !dbg !2292

bb2.i.i.i:                                        ; preds = %bb6.i.i.i
  call void @llvm.dbg.value(metadata ptr %_3.i.i, metadata !1341, metadata !DIExpression()), !dbg !2280
  call void @llvm.dbg.value(metadata i8 0, metadata !1357, metadata !DIExpression()), !dbg !2293
  call void @llvm.dbg.value(metadata ptr %_3.i.i, metadata !1363, metadata !DIExpression()), !dbg !2293
  call void @llvm.dbg.value(metadata i8 1, metadata !1364, metadata !DIExpression()), !dbg !2293
  store atomic i8 1, ptr %_3.i.i monotonic, align 1, !dbg !2295, !noalias !2287
  br label %_ZN3std4sync6poison4Flag4done17h6b62417d8d60c5ceE.exit.i.i, !dbg !2296

_ZN3std4sync6poison4Flag4done17h6b62417d8d60c5ceE.exit.i.i: ; preds = %bb2.i.i.i, %bb6.i.i.i, %bb1.i.i.i, %start
  call void @llvm.dbg.value(metadata ptr %_1.0.val, metadata !1288, metadata !DIExpression()), !dbg !2297
  call void @llvm.dbg.value(metadata ptr %_1.0.val, metadata !1278, metadata !DIExpression()), !dbg !2266
  call void @llvm.dbg.value(metadata ptr %_1.0.val, metadata !1304, metadata !DIExpression()), !dbg !2270
  %3 = atomicrmw xchg ptr %_1.0.val, i32 0 release, align 4, !dbg !2298, !noalias !2287
  %_8.i.i = icmp eq i32 %3, 2, !dbg !2299
  br i1 %_8.i.i, label %bb2.i.i, label %"_ZN4core3ptr106drop_in_place$LT$std..sync..mutex..MutexGuard$LT$$u5b$async_io..reactor..Direction$u3b$$u20$2$u5d$$GT$$GT$17hcc31a7b446319476E.exit", !dbg !2299

bb2.i.i:                                          ; preds = %_ZN3std4sync6poison4Flag4done17h6b62417d8d60c5ceE.exit.i.i
; call std::sys::sync::mutex::futex::Mutex::wake
  tail call void @_ZN3std3sys4sync5mutex5futex5Mutex4wake17hc487312157454c34E(ptr noundef nonnull align 4 %_1.0.val), !dbg !2300, !noalias !2287
  br label %"_ZN4core3ptr106drop_in_place$LT$std..sync..mutex..MutexGuard$LT$$u5b$async_io..reactor..Direction$u3b$$u20$2$u5d$$GT$$GT$17hcc31a7b446319476E.exit", !dbg !2300

"_ZN4core3ptr106drop_in_place$LT$std..sync..mutex..MutexGuard$LT$$u5b$async_io..reactor..Direction$u3b$$u20$2$u5d$$GT$$GT$17hcc31a7b446319476E.exit": ; preds = %_ZN3std4sync6poison4Flag4done17h6b62417d8d60c5ceE.exit.i.i, %bb2.i.i
  ret void, !dbg !2301
}

; core::ptr::drop_in_place<std::io::error::Error>
; Function Attrs: nonlazybind uwtable
define internal fastcc void @"_ZN4core3ptr42drop_in_place$LT$std..io..error..Error$GT$17h9a97790ae083c45fE"(ptr %_1.0.val) unnamed_addr #1 personality ptr @rust_eh_personality !dbg !2302 {
start:
  tail call void @llvm.dbg.value(metadata ptr undef, metadata !2365, metadata !DIExpression()), !dbg !2368
  %0 = icmp ne ptr %_1.0.val, null
  tail call void @llvm.assume(i1 %0)
  call void @llvm.dbg.value(metadata ptr undef, metadata !2369, metadata !DIExpression()), !dbg !2377
  call void @llvm.dbg.value(metadata ptr undef, metadata !2379, metadata !DIExpression()), !dbg !2387
  call void @llvm.dbg.value(metadata i64 1, metadata !2389, metadata !DIExpression()), !dbg !2397
  call void @llvm.dbg.value(metadata i64 1, metadata !2421, metadata !DIExpression()), !dbg !2428
  call void @llvm.dbg.value(metadata i64 -1, metadata !2430, metadata !DIExpression()), !dbg !2438
  call void @llvm.dbg.value(metadata ptr %_1.0.val, metadata !2406, metadata !DIExpression()), !dbg !2440
  call void @llvm.dbg.declare(metadata ptr undef, metadata !2407, metadata !DIExpression()), !dbg !2441
  call void @llvm.dbg.value(metadata ptr %_1.0.val, metadata !2442, metadata !DIExpression()), !dbg !2448
  call void @llvm.dbg.value(metadata ptr %_1.0.val, metadata !2396, metadata !DIExpression()), !dbg !2397
  %1 = ptrtoint ptr %_1.0.val to i64, !dbg !2450
  call void @llvm.dbg.value(metadata i64 %1, metadata !2408, metadata !DIExpression()), !dbg !2451
  %_5.i.i.i = and i64 %1, 3, !dbg !2452
  switch i64 %_5.i.i.i, label %default.unreachable [
    i64 2, label %"_ZN4core3ptr57drop_in_place$LT$std..io..error..repr_bitpacked..Repr$GT$17h5f41bbfefcef97f2E.exit"
    i64 3, label %bb3.i.i.i
    i64 0, label %"_ZN4core3ptr57drop_in_place$LT$std..io..error..repr_bitpacked..Repr$GT$17h5f41bbfefcef97f2E.exit"
    i64 1, label %bb2.i2.i.i
  ], !dbg !2453

default.unreachable:                              ; preds = %start
  unreachable

bb3.i.i.i:                                        ; preds = %start
  %_10.i.i.i = lshr i64 %1, 32, !dbg !2454
  %kind_bits.i.i.i = trunc i64 %_10.i.i.i to i32, !dbg !2454
  call void @llvm.dbg.value(metadata i32 %kind_bits.i.i.i, metadata !2411, metadata !DIExpression()), !dbg !2455
  call void @llvm.dbg.value(metadata i32 %kind_bits.i.i.i, metadata !2456, metadata !DIExpression()), !dbg !2598
  %switch.i.i = icmp ult i32 %kind_bits.i.i.i, 41, !dbg !2600
  call void @llvm.dbg.value(metadata i8 poison, metadata !2601, metadata !DIExpression()), !dbg !2625
  call void @llvm.dbg.value(metadata ptr undef, metadata !2622, metadata !DIExpression()), !dbg !2625
  tail call void @llvm.assume(i1 %switch.i.i), !dbg !2627
  br label %"_ZN4core3ptr57drop_in_place$LT$std..io..error..repr_bitpacked..Repr$GT$17h5f41bbfefcef97f2E.exit", !dbg !2628

bb2.i2.i.i:                                       ; preds = %start
  call void @llvm.dbg.value(metadata ptr %_1.0.val, metadata !2427, metadata !DIExpression()), !dbg !2428
  call void @llvm.dbg.value(metadata ptr %_1.0.val, metadata !2437, metadata !DIExpression()), !dbg !2438
  %2 = getelementptr i8, ptr %_1.0.val, i64 -1, !dbg !2629
  call void @llvm.dbg.value(metadata ptr undef, metadata !2630, metadata !DIExpression()), !dbg !2636
  call void @llvm.dbg.value(metadata ptr undef, metadata !2638, metadata !DIExpression()), !dbg !2646
  %_6.val.i.i.i.i = load ptr, ptr %2, align 8, !dbg !2648
  %3 = getelementptr i8, ptr %_1.0.val, i64 7, !dbg !2648
  %_6.val1.i.i.i.i = load ptr, ptr %3, align 8, !dbg !2648, !nonnull !12, !align !869, !noundef !12
  call void @llvm.dbg.value(metadata ptr undef, metadata !2649, metadata !DIExpression()), !dbg !2656
  call void @llvm.dbg.value(metadata ptr undef, metadata !2658, metadata !DIExpression()), !dbg !2666
  %4 = load ptr, ptr %_6.val1.i.i.i.i, align 8, !dbg !2668, !invariant.load !12
  %.not.i.i.i.i.i.i = icmp eq ptr %4, null, !dbg !2668
  br i1 %.not.i.i.i.i.i.i, label %bb3.i.i.i.i.i.i, label %is_not_null.i.i.i.i.i.i, !dbg !2668

is_not_null.i.i.i.i.i.i:                          ; preds = %bb2.i2.i.i
  invoke void %4(ptr noundef nonnull align 1 %_6.val.i.i.i.i)
          to label %bb3.i.i.i.i.i.i unwind label %cleanup.i.i.i.i.i.i, !dbg !2668

bb3.i.i.i.i.i.i:                                  ; preds = %is_not_null.i.i.i.i.i.i, %bb2.i2.i.i
  %5 = icmp ne ptr %_6.val.i.i.i.i, null
  tail call void @llvm.assume(i1 %5)
  call void @llvm.dbg.value(metadata ptr undef, metadata !2669, metadata !DIExpression()), !dbg !2706
  call void @llvm.dbg.value(metadata ptr %_6.val.i.i.i.i, metadata !2678, metadata !DIExpression(DW_OP_LLVM_fragment, 0, 64)), !dbg !2708
  call void @llvm.dbg.value(metadata ptr %_6.val1.i.i.i.i, metadata !2678, metadata !DIExpression(DW_OP_LLVM_fragment, 64, 64)), !dbg !2708
  call void @llvm.dbg.value(metadata ptr %_6.val.i.i.i.i, metadata !2709, metadata !DIExpression(DW_OP_LLVM_fragment, 0, 64)), !dbg !2720
  call void @llvm.dbg.value(metadata ptr %_6.val.i.i.i.i, metadata !2722, metadata !DIExpression(DW_OP_LLVM_fragment, 0, 64)), !dbg !2730
  call void @llvm.dbg.value(metadata ptr %_6.val.i.i.i.i, metadata !2732, metadata !DIExpression(DW_OP_LLVM_fragment, 0, 64)), !dbg !2736
  call void @llvm.dbg.value(metadata ptr %_6.val1.i.i.i.i, metadata !2709, metadata !DIExpression(DW_OP_LLVM_fragment, 64, 64)), !dbg !2720
  call void @llvm.dbg.value(metadata ptr %_6.val1.i.i.i.i, metadata !2722, metadata !DIExpression(DW_OP_LLVM_fragment, 64, 64)), !dbg !2730
  call void @llvm.dbg.value(metadata ptr %_6.val1.i.i.i.i, metadata !2732, metadata !DIExpression(DW_OP_LLVM_fragment, 64, 64)), !dbg !2736
  %6 = getelementptr inbounds i8, ptr %_6.val1.i.i.i.i, i64 8, !dbg !2738
  %7 = load i64, ptr %6, align 8, !dbg !2738, !range !2739, !invariant.load !12
  %8 = getelementptr inbounds i8, ptr %_6.val1.i.i.i.i, i64 16, !dbg !2738
  call void @llvm.dbg.value(metadata i64 %7, metadata !2717, metadata !DIExpression()), !dbg !2740
  call void @llvm.dbg.value(metadata i64 %7, metadata !2741, metadata !DIExpression()), !dbg !2749
  %9 = load i64, ptr %8, align 8, !dbg !2751, !range !2752, !invariant.load !12
  call void @llvm.dbg.value(metadata i64 %9, metadata !2719, metadata !DIExpression()), !dbg !2740
  call void @llvm.dbg.value(metadata i64 %9, metadata !2748, metadata !DIExpression()), !dbg !2749
  call void @llvm.dbg.value(metadata i64 %9, metadata !2753, metadata !DIExpression()), !dbg !2761
  %10 = icmp ult i64 %9, -9223372036854775807, !dbg !2763
  tail call void @llvm.assume(i1 %10), !dbg !2763
  call void @llvm.dbg.value(metadata i64 %7, metadata !2694, metadata !DIExpression(DW_OP_LLVM_fragment, 64, 64)), !dbg !2764
  call void @llvm.dbg.value(metadata i64 %9, metadata !2694, metadata !DIExpression(DW_OP_LLVM_fragment, 0, 64)), !dbg !2764
  %11 = icmp eq i64 %7, 0, !dbg !2765
  br i1 %11, label %"_ZN4core3ptr68drop_in_place$LT$alloc..boxed..Box$LT$std..io..error..Custom$GT$$GT$17h7486b3444d695d84E.exit.i.i.i", label %"_ZN63_$LT$alloc..alloc..Global$u20$as$u20$core..alloc..Allocator$GT$10deallocate17h0f2d39528d187dc6E.exit.i.i.i.i.i.i.i", !dbg !2765

"_ZN63_$LT$alloc..alloc..Global$u20$as$u20$core..alloc..Allocator$GT$10deallocate17h0f2d39528d187dc6E.exit.i.i.i.i.i.i.i": ; preds = %bb3.i.i.i.i.i.i
  call void @llvm.dbg.value(metadata i64 %9, metadata !2766, metadata !DIExpression(DW_OP_LLVM_fragment, 0, 64)), !dbg !2776
  call void @llvm.dbg.value(metadata i64 %7, metadata !2766, metadata !DIExpression(DW_OP_LLVM_fragment, 64, 64)), !dbg !2776
  call void @llvm.dbg.value(metadata ptr undef, metadata !2774, metadata !DIExpression()), !dbg !2776
  call void @llvm.dbg.value(metadata ptr %_6.val.i.i.i.i, metadata !2775, metadata !DIExpression()), !dbg !2776
  call void @llvm.dbg.value(metadata ptr %_6.val.i.i.i.i, metadata !2778, metadata !DIExpression()), !dbg !2785
  call void @llvm.dbg.value(metadata i64 %9, metadata !2784, metadata !DIExpression(DW_OP_LLVM_fragment, 0, 64)), !dbg !2785
  call void @llvm.dbg.value(metadata i64 %7, metadata !2784, metadata !DIExpression(DW_OP_LLVM_fragment, 64, 64)), !dbg !2785
  tail call void @__rust_dealloc(ptr noundef nonnull %_6.val.i.i.i.i, i64 noundef %7, i64 noundef %9) #16, !dbg !2787
  br label %"_ZN4core3ptr68drop_in_place$LT$alloc..boxed..Box$LT$std..io..error..Custom$GT$$GT$17h7486b3444d695d84E.exit.i.i.i", !dbg !2788

cleanup.i.i.i.i.i.i:                              ; preds = %is_not_null.i.i.i.i.i.i
  %12 = landingpad { ptr, i32 }
          cleanup
  %13 = icmp ne ptr %_6.val.i.i.i.i, null
  tail call void @llvm.assume(i1 %13)
  call void @llvm.dbg.value(metadata ptr undef, metadata !2669, metadata !DIExpression()), !dbg !2789
  call void @llvm.dbg.value(metadata ptr %_6.val.i.i.i.i, metadata !2678, metadata !DIExpression(DW_OP_LLVM_fragment, 0, 64)), !dbg !2791
  call void @llvm.dbg.value(metadata ptr %_6.val1.i.i.i.i, metadata !2678, metadata !DIExpression(DW_OP_LLVM_fragment, 64, 64)), !dbg !2791
  call void @llvm.dbg.value(metadata ptr %_6.val.i.i.i.i, metadata !2709, metadata !DIExpression(DW_OP_LLVM_fragment, 0, 64)), !dbg !2792
  call void @llvm.dbg.value(metadata ptr %_6.val.i.i.i.i, metadata !2722, metadata !DIExpression(DW_OP_LLVM_fragment, 0, 64)), !dbg !2794
  call void @llvm.dbg.value(metadata ptr %_6.val.i.i.i.i, metadata !2732, metadata !DIExpression(DW_OP_LLVM_fragment, 0, 64)), !dbg !2796
  call void @llvm.dbg.value(metadata ptr %_6.val1.i.i.i.i, metadata !2709, metadata !DIExpression(DW_OP_LLVM_fragment, 64, 64)), !dbg !2792
  call void @llvm.dbg.value(metadata ptr %_6.val1.i.i.i.i, metadata !2722, metadata !DIExpression(DW_OP_LLVM_fragment, 64, 64)), !dbg !2794
  call void @llvm.dbg.value(metadata ptr %_6.val1.i.i.i.i, metadata !2732, metadata !DIExpression(DW_OP_LLVM_fragment, 64, 64)), !dbg !2796
  %14 = getelementptr inbounds i8, ptr %_6.val1.i.i.i.i, i64 8, !dbg !2798
  %15 = load i64, ptr %14, align 8, !dbg !2798, !range !2739, !invariant.load !12
  %16 = getelementptr inbounds i8, ptr %_6.val1.i.i.i.i, i64 16, !dbg !2798
  call void @llvm.dbg.value(metadata i64 %15, metadata !2717, metadata !DIExpression()), !dbg !2799
  call void @llvm.dbg.value(metadata i64 %15, metadata !2741, metadata !DIExpression()), !dbg !2800
  %17 = load i64, ptr %16, align 8, !dbg !2802, !range !2752, !invariant.load !12
  call void @llvm.dbg.value(metadata i64 %17, metadata !2719, metadata !DIExpression()), !dbg !2799
  call void @llvm.dbg.value(metadata i64 %17, metadata !2748, metadata !DIExpression()), !dbg !2800
  call void @llvm.dbg.value(metadata i64 %17, metadata !2753, metadata !DIExpression()), !dbg !2803
  %18 = icmp ult i64 %17, -9223372036854775807, !dbg !2805
  tail call void @llvm.assume(i1 %18), !dbg !2805
  call void @llvm.dbg.value(metadata i64 %15, metadata !2694, metadata !DIExpression(DW_OP_LLVM_fragment, 64, 64)), !dbg !2806
  call void @llvm.dbg.value(metadata i64 %17, metadata !2694, metadata !DIExpression(DW_OP_LLVM_fragment, 0, 64)), !dbg !2806
  %19 = icmp eq i64 %15, 0, !dbg !2807
  br i1 %19, label %bb1.i.i.i.i, label %"_ZN63_$LT$alloc..alloc..Global$u20$as$u20$core..alloc..Allocator$GT$10deallocate17h0f2d39528d187dc6E.exit.i4.i.i.i.i.i.i", !dbg !2807

"_ZN63_$LT$alloc..alloc..Global$u20$as$u20$core..alloc..Allocator$GT$10deallocate17h0f2d39528d187dc6E.exit.i4.i.i.i.i.i.i": ; preds = %cleanup.i.i.i.i.i.i
  call void @llvm.dbg.value(metadata i64 %17, metadata !2766, metadata !DIExpression(DW_OP_LLVM_fragment, 0, 64)), !dbg !2808
  call void @llvm.dbg.value(metadata i64 %15, metadata !2766, metadata !DIExpression(DW_OP_LLVM_fragment, 64, 64)), !dbg !2808
  call void @llvm.dbg.value(metadata ptr undef, metadata !2774, metadata !DIExpression()), !dbg !2808
  call void @llvm.dbg.value(metadata ptr %_6.val.i.i.i.i, metadata !2775, metadata !DIExpression()), !dbg !2808
  call void @llvm.dbg.value(metadata ptr %_6.val.i.i.i.i, metadata !2778, metadata !DIExpression()), !dbg !2810
  call void @llvm.dbg.value(metadata i64 %17, metadata !2784, metadata !DIExpression(DW_OP_LLVM_fragment, 0, 64)), !dbg !2810
  call void @llvm.dbg.value(metadata i64 %15, metadata !2784, metadata !DIExpression(DW_OP_LLVM_fragment, 64, 64)), !dbg !2810
  tail call void @__rust_dealloc(ptr noundef nonnull %_6.val.i.i.i.i, i64 noundef %15, i64 noundef %17) #16, !dbg !2812
  br label %bb1.i.i.i.i, !dbg !2813

bb1.i.i.i.i:                                      ; preds = %"_ZN63_$LT$alloc..alloc..Global$u20$as$u20$core..alloc..Allocator$GT$10deallocate17h0f2d39528d187dc6E.exit.i4.i.i.i.i.i.i", %cleanup.i.i.i.i.i.i
  call void @llvm.dbg.value(metadata ptr undef, metadata !2814, metadata !DIExpression()), !dbg !2834
  call void @llvm.dbg.value(metadata i64 24, metadata !2831, metadata !DIExpression(DW_OP_LLVM_fragment, 64, 64)), !dbg !2836
  call void @llvm.dbg.value(metadata i64 8, metadata !2831, metadata !DIExpression(DW_OP_LLVM_fragment, 0, 64)), !dbg !2836
  call void @llvm.dbg.value(metadata ptr %2, metadata !2820, metadata !DIExpression()), !dbg !2837
  call void @llvm.dbg.value(metadata i64 8, metadata !2766, metadata !DIExpression(DW_OP_LLVM_fragment, 0, 64)), !dbg !2838
  call void @llvm.dbg.value(metadata i64 24, metadata !2766, metadata !DIExpression(DW_OP_LLVM_fragment, 64, 64)), !dbg !2838
  call void @llvm.dbg.value(metadata ptr undef, metadata !2774, metadata !DIExpression()), !dbg !2838
  call void @llvm.dbg.value(metadata ptr %2, metadata !2775, metadata !DIExpression()), !dbg !2838
  call void @llvm.dbg.value(metadata ptr %2, metadata !2778, metadata !DIExpression()), !dbg !2840
  call void @llvm.dbg.value(metadata i64 8, metadata !2784, metadata !DIExpression(DW_OP_LLVM_fragment, 0, 64)), !dbg !2840
  call void @llvm.dbg.value(metadata i64 24, metadata !2784, metadata !DIExpression(DW_OP_LLVM_fragment, 64, 64)), !dbg !2840
  tail call void @__rust_dealloc(ptr noundef nonnull %2, i64 noundef 24, i64 noundef 8) #16, !dbg !2842
  resume { ptr, i32 } %12, !dbg !2648

"_ZN4core3ptr68drop_in_place$LT$alloc..boxed..Box$LT$std..io..error..Custom$GT$$GT$17h7486b3444d695d84E.exit.i.i.i": ; preds = %"_ZN63_$LT$alloc..alloc..Global$u20$as$u20$core..alloc..Allocator$GT$10deallocate17h0f2d39528d187dc6E.exit.i.i.i.i.i.i.i", %bb3.i.i.i.i.i.i
  call void @llvm.dbg.value(metadata ptr undef, metadata !2814, metadata !DIExpression()), !dbg !2843
  call void @llvm.dbg.value(metadata i64 24, metadata !2831, metadata !DIExpression(DW_OP_LLVM_fragment, 64, 64)), !dbg !2845
  call void @llvm.dbg.value(metadata i64 8, metadata !2831, metadata !DIExpression(DW_OP_LLVM_fragment, 0, 64)), !dbg !2845
  call void @llvm.dbg.value(metadata ptr %2, metadata !2820, metadata !DIExpression()), !dbg !2846
  call void @llvm.dbg.value(metadata i64 8, metadata !2766, metadata !DIExpression(DW_OP_LLVM_fragment, 0, 64)), !dbg !2847
  call void @llvm.dbg.value(metadata i64 24, metadata !2766, metadata !DIExpression(DW_OP_LLVM_fragment, 64, 64)), !dbg !2847
  call void @llvm.dbg.value(metadata ptr undef, metadata !2774, metadata !DIExpression()), !dbg !2847
  call void @llvm.dbg.value(metadata ptr %2, metadata !2775, metadata !DIExpression()), !dbg !2847
  call void @llvm.dbg.value(metadata ptr %2, metadata !2778, metadata !DIExpression()), !dbg !2849
  call void @llvm.dbg.value(metadata i64 8, metadata !2784, metadata !DIExpression(DW_OP_LLVM_fragment, 0, 64)), !dbg !2849
  call void @llvm.dbg.value(metadata i64 24, metadata !2784, metadata !DIExpression(DW_OP_LLVM_fragment, 64, 64)), !dbg !2849
  tail call void @__rust_dealloc(ptr noundef nonnull %2, i64 noundef 24, i64 noundef 8) #16, !dbg !2851
  br label %"_ZN4core3ptr57drop_in_place$LT$std..io..error..repr_bitpacked..Repr$GT$17h5f41bbfefcef97f2E.exit", !dbg !2852

"_ZN4core3ptr57drop_in_place$LT$std..io..error..repr_bitpacked..Repr$GT$17h5f41bbfefcef97f2E.exit": ; preds = %start, %start, %bb3.i.i.i, %"_ZN4core3ptr68drop_in_place$LT$alloc..boxed..Box$LT$std..io..error..Custom$GT$$GT$17h7486b3444d695d84E.exit.i.i.i"
  ret void, !dbg !2853
}

; core::ptr::drop_in_place<async_io::reactor::Direction>
; Function Attrs: nonlazybind uwtable
define internal fastcc void @"_ZN4core3ptr49drop_in_place$LT$async_io..reactor..Direction$GT$17hbf30d1b46c4d51d2E"(ptr noalias nocapture noundef readonly align 8 dereferenceable(88) %_1) unnamed_addr #1 personality ptr @rust_eh_personality !dbg !2854 {
start:
  tail call void @llvm.dbg.value(metadata ptr %_1, metadata !2859, metadata !DIExpression()), !dbg !2860
  %0 = getelementptr inbounds i8, ptr %_1, i64 72, !dbg !2861
  tail call void @llvm.experimental.noalias.scope.decl(metadata !2862), !dbg !2861
  call void @llvm.dbg.value(metadata ptr %0, metadata !2865, metadata !DIExpression()), !dbg !2871
  %1 = load ptr, ptr %0, align 8, !dbg !2873, !alias.scope !2862, !noundef !12
  %2 = icmp eq ptr %1, null, !dbg !2873
  br i1 %2, label %bb4, label %bb2.i, !dbg !2873

bb2.i:                                            ; preds = %start
  %3 = getelementptr inbounds i8, ptr %_1, i64 80, !dbg !2873
  %_1.val1.i = load ptr, ptr %3, align 8, !dbg !2873, !alias.scope !2862, !noundef !12
  call void @llvm.dbg.value(metadata ptr undef, metadata !2874, metadata !DIExpression()), !dbg !2880
  call void @llvm.dbg.value(metadata ptr undef, metadata !2882, metadata !DIExpression()), !dbg !2890
  %4 = getelementptr inbounds i8, ptr %1, i64 24, !dbg !2892
  %_2.i.i.i = load ptr, ptr %4, align 8, !dbg !2892, !noalias !2862, !nonnull !12, !noundef !12
  invoke void %_2.i.i.i(ptr noundef %_1.val1.i)
          to label %bb4 unwind label %cleanup, !dbg !2892

cleanup:                                          ; preds = %bb2.i
  %5 = landingpad { ptr, i32 }
          cleanup
  %6 = getelementptr inbounds i8, ptr %_1, i64 24, !dbg !2861
; invoke core::ptr::drop_in_place<slab::Slab<core::option::Option<core::task::wake::Waker>>>
  invoke fastcc void @"_ZN4core3ptr90drop_in_place$LT$slab..Slab$LT$core..option..Option$LT$core..task..wake..Waker$GT$$GT$$GT$17hf9782a0ca539c651E"(ptr noalias noundef nonnull align 8 dereferenceable(40) %6) #14
          to label %bb1 unwind label %terminate, !dbg !2861

bb4:                                              ; preds = %start, %bb2.i
  %7 = getelementptr inbounds i8, ptr %_1, i64 24, !dbg !2861
; call core::ptr::drop_in_place<slab::Slab<core::option::Option<core::task::wake::Waker>>>
  tail call fastcc void @"_ZN4core3ptr90drop_in_place$LT$slab..Slab$LT$core..option..Option$LT$core..task..wake..Waker$GT$$GT$$GT$17hf9782a0ca539c651E"(ptr noalias noundef nonnull align 8 dereferenceable(40) %7), !dbg !2861
  ret void, !dbg !2861

terminate:                                        ; preds = %cleanup
  %8 = landingpad { ptr, i32 }
          filter [0 x ptr] zeroinitializer
; call core::panicking::panic_in_cleanup
  tail call void @_ZN4core9panicking16panic_in_cleanup17h43442956f23e9cbeE() #15, !dbg !2861
  unreachable, !dbg !2861

bb1:                                              ; preds = %cleanup
  resume { ptr, i32 } %5, !dbg !2861
}

; core::ptr::drop_in_place<async_signal::pipe::Notifier>
; Function Attrs: nonlazybind uwtable
define internal void @"_ZN4core3ptr49drop_in_place$LT$async_signal..pipe..Notifier$GT$17hd88ab744cd43a69dE"(ptr noalias nocapture noundef align 8 dereferenceable(24) %_1) unnamed_addr #1 personality ptr @rust_eh_personality !dbg !2893 {
start:
  tail call void @llvm.dbg.value(metadata ptr %_1, metadata !2898, metadata !DIExpression()), !dbg !2901
; invoke core::ptr::drop_in_place<async_io::Async<std::os::unix::net::stream::UnixStream>>
  invoke void @"_ZN4core3ptr82drop_in_place$LT$async_io..Async$LT$std..os..unix..net..stream..UnixStream$GT$$GT$17h7bb2294c5f2c8e80E"(ptr noalias noundef nonnull align 8 dereferenceable(16) %_1)
          to label %bb4 unwind label %cleanup, !dbg !2902

cleanup:                                          ; preds = %start
  %0 = landingpad { ptr, i32 }
          cleanup
  %1 = getelementptr inbounds i8, ptr %_1, i64 16, !dbg !2902
  %.val = load i32, ptr %1, align 8, !dbg !2902, !noundef !12
  call void @llvm.dbg.value(metadata ptr undef, metadata !2903, metadata !DIExpression()), !dbg !2909
  call void @llvm.dbg.value(metadata ptr undef, metadata !2911, metadata !DIExpression()), !dbg !2919
  call void @llvm.dbg.value(metadata ptr undef, metadata !2921, metadata !DIExpression()), !dbg !2929
  call void @llvm.dbg.value(metadata ptr undef, metadata !2931, metadata !DIExpression()), !dbg !2939
  call void @llvm.dbg.value(metadata ptr undef, metadata !2941, metadata !DIExpression()), !dbg !2949
  %_4.i.i.i.i.i2 = invoke noundef i32 @close(i32 noundef %.val)
          to label %bb1 unwind label %terminate, !dbg !2951

bb4:                                              ; preds = %start
  %2 = getelementptr inbounds i8, ptr %_1, i64 16, !dbg !2902
  %.val1 = load i32, ptr %2, align 8, !dbg !2902, !noundef !12
  call void @llvm.dbg.value(metadata ptr undef, metadata !2903, metadata !DIExpression()), !dbg !2952
  call void @llvm.dbg.value(metadata ptr undef, metadata !2911, metadata !DIExpression()), !dbg !2954
  call void @llvm.dbg.value(metadata ptr undef, metadata !2921, metadata !DIExpression()), !dbg !2956
  call void @llvm.dbg.value(metadata ptr undef, metadata !2931, metadata !DIExpression()), !dbg !2958
  call void @llvm.dbg.value(metadata ptr undef, metadata !2941, metadata !DIExpression()), !dbg !2960
  %_4.i.i.i.i.i = tail call noundef i32 @close(i32 noundef %.val1), !dbg !2962
  ret void, !dbg !2902

terminate:                                        ; preds = %cleanup
  %3 = landingpad { ptr, i32 }
          filter [0 x ptr] zeroinitializer
; call core::panicking::panic_in_cleanup
  tail call void @_ZN4core9panicking16panic_in_cleanup17h43442956f23e9cbeE() #15, !dbg !2902
  unreachable, !dbg !2902

bb1:                                              ; preds = %cleanup
  resume { ptr, i32 } %0, !dbg !2902
}

; core::ptr::drop_in_place<alloc::sync::Arc<async_io::reactor::Source>>
; Function Attrs: nonlazybind uwtable
define internal void @"_ZN4core3ptr70drop_in_place$LT$alloc..sync..Arc$LT$async_io..reactor..Source$GT$$GT$17h6bc544a4ebf5d0d5E"(ptr noalias nocapture noundef readonly align 8 dereferenceable(8) %_1) unnamed_addr #1 !dbg !2963 {
start:
  tail call void @llvm.dbg.value(metadata ptr %_1, metadata !2968, metadata !DIExpression()), !dbg !2971
  tail call void @llvm.experimental.noalias.scope.decl(metadata !2972), !dbg !2975
  call void @llvm.dbg.value(metadata i64 1, metadata !2976, metadata !DIExpression()), !dbg !2985
  call void @llvm.dbg.value(metadata i8 1, metadata !2984, metadata !DIExpression()), !dbg !2985
  call void @llvm.dbg.value(metadata i64 1, metadata !2996, metadata !DIExpression()), !dbg !3004
  call void @llvm.dbg.value(metadata i8 1, metadata !3003, metadata !DIExpression()), !dbg !3004
  call void @llvm.dbg.value(metadata i8 2, metadata !3006, metadata !DIExpression()), !dbg !3012
  call void @llvm.dbg.value(metadata ptr %_1, metadata !2994, metadata !DIExpression()), !dbg !3014
  call void @llvm.dbg.value(metadata ptr %_1, metadata !3015, metadata !DIExpression()), !dbg !3024
  call void @llvm.dbg.value(metadata ptr %_1, metadata !3026, metadata !DIExpression()), !dbg !3034
  %self6.i = load ptr, ptr %_1, align 8, !dbg !3036, !alias.scope !2972, !nonnull !12, !noundef !12
  call void @llvm.dbg.value(metadata ptr %self6.i, metadata !2983, metadata !DIExpression()), !dbg !2985
  call void @llvm.dbg.value(metadata ptr %self6.i, metadata !3002, metadata !DIExpression()), !dbg !3004
  %0 = atomicrmw sub ptr %self6.i, i64 1 release, align 8, !dbg !3037, !noalias !2972
  %1 = icmp eq i64 %0, 1, !dbg !3038
  br i1 %1, label %bb2.i, label %"_ZN71_$LT$alloc..sync..Arc$LT$T$C$A$GT$$u20$as$u20$core..ops..drop..Drop$GT$4drop17he16ae2918c935383E.exit", !dbg !3038

bb2.i:                                            ; preds = %start
  fence acquire, !dbg !3039
; call alloc::sync::Arc<T,A>::drop_slow
  tail call fastcc void @"_ZN5alloc4sync16Arc$LT$T$C$A$GT$9drop_slow17h4f6dd52df48320f9E"(ptr noalias noundef nonnull align 8 dereferenceable(8) %_1), !dbg !3040
  br label %"_ZN71_$LT$alloc..sync..Arc$LT$T$C$A$GT$$u20$as$u20$core..ops..drop..Drop$GT$4drop17he16ae2918c935383E.exit", !dbg !3040

"_ZN71_$LT$alloc..sync..Arc$LT$T$C$A$GT$$u20$as$u20$core..ops..drop..Drop$GT$4drop17he16ae2918c935383E.exit": ; preds = %start, %bb2.i
  ret void, !dbg !2975
}

; core::ptr::drop_in_place<core::option::Option<core::task::wake::Waker>>
; Function Attrs: nonlazybind uwtable
define internal void @"_ZN4core3ptr72drop_in_place$LT$core..option..Option$LT$core..task..wake..Waker$GT$$GT$17hd41b0b6942456cf4E"(ptr noalias nocapture noundef readonly align 8 dereferenceable(16) %_1) unnamed_addr #1 !dbg !2866 {
start:
  tail call void @llvm.dbg.value(metadata ptr %_1, metadata !2865, metadata !DIExpression()), !dbg !3041
  %0 = load ptr, ptr %_1, align 8, !dbg !3042, !noundef !12
  %1 = icmp eq ptr %0, null, !dbg !3042
  br i1 %1, label %bb1, label %bb2, !dbg !3042

bb1:                                              ; preds = %bb2, %start
  ret void, !dbg !3042

bb2:                                              ; preds = %start
  %2 = getelementptr inbounds i8, ptr %_1, i64 8, !dbg !3042
  %_1.val1 = load ptr, ptr %2, align 8, !dbg !3042, !noundef !12
  call void @llvm.dbg.value(metadata ptr undef, metadata !2874, metadata !DIExpression()), !dbg !3043
  call void @llvm.dbg.value(metadata ptr undef, metadata !2882, metadata !DIExpression()), !dbg !3045
  %3 = getelementptr inbounds i8, ptr %0, i64 24, !dbg !3047
  %_2.i.i = load ptr, ptr %3, align 8, !dbg !3047, !nonnull !12, !noundef !12
  tail call void %_2.i.i(ptr noundef %_1.val1), !dbg !3047
  br label %bb1, !dbg !3042
}

; core::ptr::drop_in_place<async_io::Async<std::os::unix::net::stream::UnixStream>>
; Function Attrs: nonlazybind uwtable
define internal void @"_ZN4core3ptr82drop_in_place$LT$async_io..Async$LT$std..os..unix..net..stream..UnixStream$GT$$GT$17h7bb2294c5f2c8e80E"(ptr noalias nocapture noundef align 8 dereferenceable(16) %_1) unnamed_addr #1 personality ptr @rust_eh_personality !dbg !3048 {
start:
  tail call void @llvm.dbg.value(metadata ptr %_1, metadata !3053, metadata !DIExpression()), !dbg !3056
  call void @llvm.dbg.value(metadata ptr %_1, metadata !3057, metadata !DIExpression()), !dbg !3065
  call void @llvm.dbg.value(metadata ptr %_1, metadata !3067, metadata !DIExpression(DW_OP_plus_uconst, 8, DW_OP_stack_value)), !dbg !3074
  %0 = getelementptr inbounds i8, ptr %_1, i64 8, !dbg !3076
  %1 = load i32, ptr %0, align 8, !dbg !3076, !alias.scope !3077, !noundef !12
  %2 = icmp eq i32 %1, -1, !dbg !3076
  br i1 %2, label %start.bb6_crit_edge, label %bb6.i, !dbg !3080

start.bb6_crit_edge:                              ; preds = %start
  %self6.i.i8.pre = load ptr, ptr %_1, align 8, !dbg !3082, !alias.scope !3087
  br label %bb6, !dbg !3080

bb6.i:                                            ; preds = %start
; invoke async_io::reactor::Reactor::get
  %_4.i4 = invoke noundef nonnull align 128 ptr @_ZN8async_io7reactor7Reactor3get17h8ab68c7c052817bfE()
          to label %_4.i.noexc unwind label %cleanup, !dbg !3092

_4.i.noexc:                                       ; preds = %bb6.i
  call void @llvm.dbg.value(metadata ptr %_1, metadata !3093, metadata !DIExpression()), !dbg !3101
  call void @llvm.dbg.value(metadata ptr %_1, metadata !3103, metadata !DIExpression()), !dbg !3107
  call void @llvm.dbg.value(metadata ptr %_1, metadata !3109, metadata !DIExpression()), !dbg !3113
  %self6.i = load ptr, ptr %_1, align 8, !dbg !3115, !nonnull !12, !noundef !12
  %_5.i = getelementptr inbounds i8, ptr %self6.i, i64 16, !dbg !3116
; invoke async_io::reactor::Reactor::remove_io
  %3 = invoke noundef ptr @_ZN8async_io7reactor7Reactor9remove_io17hc8bc74a413fd254aE(ptr noundef nonnull align 128 %_4.i4, ptr noundef nonnull align 8 %_5.i)
          to label %.noexc unwind label %cleanup, !dbg !3092

.noexc:                                           ; preds = %_4.i.noexc
  call void @llvm.dbg.value(metadata ptr %3, metadata !3117, metadata !DIExpression()), !dbg !3152
  %4 = icmp eq ptr %3, null, !dbg !3154
  br i1 %4, label %"_ZN4core3ptr87drop_in_place$LT$core..option..Option$LT$std..os..unix..net..stream..UnixStream$GT$$GT$17h4368cb80277bbda0E.exit.i", label %"_ZN4core3ptr81drop_in_place$LT$core..result..Result$LT$$LP$$RP$$C$std..io..error..Error$GT$$GT$17h7c99962828588e26E.exit.i", !dbg !3154

"_ZN4core3ptr87drop_in_place$LT$core..option..Option$LT$std..os..unix..net..stream..UnixStream$GT$$GT$17h4368cb80277bbda0E.exit.i": ; preds = %"_ZN4core3ptr81drop_in_place$LT$core..result..Result$LT$$LP$$RP$$C$std..io..error..Error$GT$$GT$17h7c99962828588e26E.exit.i", %.noexc
  call void @llvm.dbg.value(metadata ptr %_1, metadata !3155, metadata !DIExpression(DW_OP_plus_uconst, 8, DW_OP_stack_value)), !dbg !3163
  call void @llvm.dbg.value(metadata ptr %_1, metadata !3165, metadata !DIExpression(DW_OP_plus_uconst, 8, DW_OP_stack_value)), !dbg !3174
  call void @llvm.dbg.value(metadata ptr %_1, metadata !3176, metadata !DIExpression(DW_OP_plus_uconst, 8, DW_OP_stack_value)), !dbg !3184
  call void @llvm.dbg.value(metadata i32 -1, metadata !3171, metadata !DIExpression()), !dbg !3174
  call void @llvm.dbg.value(metadata i32 -1, metadata !3183, metadata !DIExpression()), !dbg !3184
  call void @llvm.dbg.value(metadata i32 %1, metadata !3172, metadata !DIExpression()), !dbg !3186
  store i32 -1, ptr %0, align 8, !dbg !3187, !alias.scope !3077
  call void @llvm.dbg.value(metadata ptr undef, metadata !3188, metadata !DIExpression()), !dbg !3193
  call void @llvm.dbg.value(metadata ptr undef, metadata !2903, metadata !DIExpression()), !dbg !3195
  call void @llvm.dbg.value(metadata ptr undef, metadata !2911, metadata !DIExpression()), !dbg !3197
  call void @llvm.dbg.value(metadata ptr undef, metadata !2921, metadata !DIExpression()), !dbg !3199
  call void @llvm.dbg.value(metadata ptr undef, metadata !2931, metadata !DIExpression()), !dbg !3201
  call void @llvm.dbg.value(metadata ptr undef, metadata !2941, metadata !DIExpression()), !dbg !3203
  %_4.i.i.i.i.i.i.i5 = invoke noundef i32 @close(i32 noundef %1)
          to label %bb6 unwind label %cleanup, !dbg !3205

"_ZN4core3ptr81drop_in_place$LT$core..result..Result$LT$$LP$$RP$$C$std..io..error..Error$GT$$GT$17h7c99962828588e26E.exit.i": ; preds = %.noexc
  call void @llvm.dbg.value(metadata ptr undef, metadata !3206, metadata !DIExpression()), !dbg !3214
; invoke core::ptr::drop_in_place<std::io::error::Error>
  invoke fastcc void @"_ZN4core3ptr42drop_in_place$LT$std..io..error..Error$GT$17h9a97790ae083c45fE"(ptr nonnull %3)
          to label %"_ZN4core3ptr87drop_in_place$LT$core..option..Option$LT$std..os..unix..net..stream..UnixStream$GT$$GT$17h4368cb80277bbda0E.exit.i" unwind label %cleanup, !dbg !3216

cleanup:                                          ; preds = %"_ZN4core3ptr81drop_in_place$LT$core..result..Result$LT$$LP$$RP$$C$std..io..error..Error$GT$$GT$17h7c99962828588e26E.exit.i", %"_ZN4core3ptr87drop_in_place$LT$core..option..Option$LT$std..os..unix..net..stream..UnixStream$GT$$GT$17h4368cb80277bbda0E.exit.i", %_4.i.noexc, %bb6.i
  %5 = landingpad { ptr, i32 }
          cleanup
  tail call void @llvm.experimental.noalias.scope.decl(metadata !3217), !dbg !3220
  call void @llvm.dbg.value(metadata ptr %_1, metadata !2968, metadata !DIExpression()), !dbg !3221
  tail call void @llvm.experimental.noalias.scope.decl(metadata !3223), !dbg !3226
  call void @llvm.dbg.value(metadata i64 1, metadata !2976, metadata !DIExpression()), !dbg !3227
  call void @llvm.dbg.value(metadata i8 1, metadata !2984, metadata !DIExpression()), !dbg !3227
  call void @llvm.dbg.value(metadata i64 1, metadata !2996, metadata !DIExpression()), !dbg !3230
  call void @llvm.dbg.value(metadata i8 1, metadata !3003, metadata !DIExpression()), !dbg !3230
  call void @llvm.dbg.value(metadata i8 2, metadata !3006, metadata !DIExpression()), !dbg !3232
  call void @llvm.dbg.value(metadata ptr %_1, metadata !2994, metadata !DIExpression()), !dbg !3234
  call void @llvm.dbg.value(metadata ptr %_1, metadata !3015, metadata !DIExpression()), !dbg !3235
  call void @llvm.dbg.value(metadata ptr %_1, metadata !3026, metadata !DIExpression()), !dbg !3237
  %self6.i.i = load ptr, ptr %_1, align 8, !dbg !3239, !alias.scope !3240, !nonnull !12, !noundef !12
  call void @llvm.dbg.value(metadata ptr %self6.i.i, metadata !2983, metadata !DIExpression()), !dbg !3227
  call void @llvm.dbg.value(metadata ptr %self6.i.i, metadata !3002, metadata !DIExpression()), !dbg !3230
  %6 = atomicrmw sub ptr %self6.i.i, i64 1 release, align 8, !dbg !3241, !noalias !3240
  %7 = icmp eq i64 %6, 1, !dbg !3242
  br i1 %7, label %bb2.i.i, label %bb3, !dbg !3242

bb2.i.i:                                          ; preds = %cleanup
  fence acquire, !dbg !3243
; invoke alloc::sync::Arc<T,A>::drop_slow
  invoke fastcc void @"_ZN5alloc4sync16Arc$LT$T$C$A$GT$9drop_slow17h4f6dd52df48320f9E"(ptr noalias noundef nonnull align 8 dereferenceable(8) %_1)
          to label %bb3 unwind label %terminate, !dbg !3244

bb6:                                              ; preds = %start.bb6_crit_edge, %"_ZN4core3ptr87drop_in_place$LT$core..option..Option$LT$std..os..unix..net..stream..UnixStream$GT$$GT$17h4368cb80277bbda0E.exit.i"
  %self6.i.i8 = phi ptr [ %self6.i.i8.pre, %start.bb6_crit_edge ], [ %self6.i, %"_ZN4core3ptr87drop_in_place$LT$core..option..Option$LT$std..os..unix..net..stream..UnixStream$GT$$GT$17h4368cb80277bbda0E.exit.i" ], !dbg !3082
  tail call void @llvm.experimental.noalias.scope.decl(metadata !3245), !dbg !3220
  call void @llvm.dbg.value(metadata ptr %_1, metadata !2968, metadata !DIExpression()), !dbg !3246
  tail call void @llvm.experimental.noalias.scope.decl(metadata !3247), !dbg !3248
  call void @llvm.dbg.value(metadata i64 1, metadata !2976, metadata !DIExpression()), !dbg !3249
  call void @llvm.dbg.value(metadata i8 1, metadata !2984, metadata !DIExpression()), !dbg !3249
  call void @llvm.dbg.value(metadata i64 1, metadata !2996, metadata !DIExpression()), !dbg !3251
  call void @llvm.dbg.value(metadata i8 1, metadata !3003, metadata !DIExpression()), !dbg !3251
  call void @llvm.dbg.value(metadata i8 2, metadata !3006, metadata !DIExpression()), !dbg !3253
  call void @llvm.dbg.value(metadata ptr %_1, metadata !2994, metadata !DIExpression()), !dbg !3255
  call void @llvm.dbg.value(metadata ptr %_1, metadata !3015, metadata !DIExpression()), !dbg !3256
  call void @llvm.dbg.value(metadata ptr %_1, metadata !3026, metadata !DIExpression()), !dbg !3257
  call void @llvm.dbg.value(metadata ptr %self6.i.i8, metadata !2983, metadata !DIExpression()), !dbg !3249
  call void @llvm.dbg.value(metadata ptr %self6.i.i8, metadata !3002, metadata !DIExpression()), !dbg !3251
  %8 = atomicrmw sub ptr %self6.i.i8, i64 1 release, align 8, !dbg !3258, !noalias !3087
  %9 = icmp eq i64 %8, 1, !dbg !3259
  br i1 %9, label %bb2.i.i9, label %bb5, !dbg !3259

bb2.i.i9:                                         ; preds = %bb6
  fence acquire, !dbg !3260
; invoke alloc::sync::Arc<T,A>::drop_slow
  invoke fastcc void @"_ZN5alloc4sync16Arc$LT$T$C$A$GT$9drop_slow17h4f6dd52df48320f9E"(ptr noalias noundef nonnull align 8 dereferenceable(8) %_1)
          to label %bb5 unwind label %cleanup1, !dbg !3261

bb3:                                              ; preds = %cleanup, %bb2.i.i, %cleanup1
  %.pn = phi { ptr, i32 } [ %11, %cleanup1 ], [ %5, %bb2.i.i ], [ %5, %cleanup ]
  %.val = load i32, ptr %0, align 8, !dbg !3220, !noundef !12
  call void @llvm.dbg.value(metadata ptr undef, metadata !3188, metadata !DIExpression()), !dbg !3262
  %10 = icmp eq i32 %.val, -1, !dbg !3264
  br i1 %10, label %bb1, label %bb2.i, !dbg !3264

bb2.i:                                            ; preds = %bb3
  call void @llvm.dbg.value(metadata ptr undef, metadata !2903, metadata !DIExpression()), !dbg !3265
  call void @llvm.dbg.value(metadata ptr undef, metadata !2911, metadata !DIExpression()), !dbg !3267
  call void @llvm.dbg.value(metadata ptr undef, metadata !2921, metadata !DIExpression()), !dbg !3269
  call void @llvm.dbg.value(metadata ptr undef, metadata !2931, metadata !DIExpression()), !dbg !3271
  call void @llvm.dbg.value(metadata ptr undef, metadata !2941, metadata !DIExpression()), !dbg !3273
  %_4.i.i.i.i.i.i12 = invoke noundef i32 @close(i32 noundef %.val)
          to label %bb1 unwind label %terminate, !dbg !3275

cleanup1:                                         ; preds = %bb2.i.i9
  %11 = landingpad { ptr, i32 }
          cleanup
  br label %bb3

bb5:                                              ; preds = %bb6, %bb2.i.i9
  %.val3 = load i32, ptr %0, align 8, !dbg !3220, !noundef !12
  call void @llvm.dbg.value(metadata ptr undef, metadata !3188, metadata !DIExpression()), !dbg !3276
  %12 = icmp eq i32 %.val3, -1, !dbg !3278
  br i1 %12, label %"_ZN4core3ptr87drop_in_place$LT$core..option..Option$LT$std..os..unix..net..stream..UnixStream$GT$$GT$17h4368cb80277bbda0E.exit14", label %bb2.i13, !dbg !3278

bb2.i13:                                          ; preds = %bb5
  call void @llvm.dbg.value(metadata ptr undef, metadata !2903, metadata !DIExpression()), !dbg !3279
  call void @llvm.dbg.value(metadata ptr undef, metadata !2911, metadata !DIExpression()), !dbg !3281
  call void @llvm.dbg.value(metadata ptr undef, metadata !2921, metadata !DIExpression()), !dbg !3283
  call void @llvm.dbg.value(metadata ptr undef, metadata !2931, metadata !DIExpression()), !dbg !3285
  call void @llvm.dbg.value(metadata ptr undef, metadata !2941, metadata !DIExpression()), !dbg !3287
  %_4.i.i.i.i.i.i = tail call noundef i32 @close(i32 noundef %.val3), !dbg !3289
  br label %"_ZN4core3ptr87drop_in_place$LT$core..option..Option$LT$std..os..unix..net..stream..UnixStream$GT$$GT$17h4368cb80277bbda0E.exit14", !dbg !3278

"_ZN4core3ptr87drop_in_place$LT$core..option..Option$LT$std..os..unix..net..stream..UnixStream$GT$$GT$17h4368cb80277bbda0E.exit14": ; preds = %bb5, %bb2.i13
  ret void, !dbg !3220

terminate:                                        ; preds = %bb2.i, %bb2.i.i
  %13 = landingpad { ptr, i32 }
          filter [0 x ptr] zeroinitializer
; call core::panicking::panic_in_cleanup
  tail call void @_ZN4core9panicking16panic_in_cleanup17h43442956f23e9cbeE() #15, !dbg !3220
  unreachable, !dbg !3220

bb1:                                              ; preds = %bb3, %bb2.i
  resume { ptr, i32 } %.pn, !dbg !3220
}

; core::ptr::drop_in_place<slab::Slab<core::option::Option<core::task::wake::Waker>>>
; Function Attrs: nonlazybind uwtable
define internal fastcc void @"_ZN4core3ptr90drop_in_place$LT$slab..Slab$LT$core..option..Option$LT$core..task..wake..Waker$GT$$GT$$GT$17hf9782a0ca539c651E"(ptr noalias nocapture noundef readonly align 8 dereferenceable(40) %_1) unnamed_addr #1 personality ptr @rust_eh_personality !dbg !3290 {
start:
  tail call void @llvm.dbg.value(metadata ptr %_1, metadata !3295, metadata !DIExpression()), !dbg !3296
  tail call void @llvm.experimental.noalias.scope.decl(metadata !3297), !dbg !3300
  call void @llvm.dbg.value(metadata ptr %_1, metadata !3301, metadata !DIExpression()), !dbg !3309
  %0 = getelementptr inbounds i8, ptr %_1, i64 8, !dbg !3311
  %_1.val.i = load ptr, ptr %0, align 8, !dbg !3311, !alias.scope !3297, !nonnull !12, !noundef !12
  %1 = getelementptr inbounds i8, ptr %_1, i64 16, !dbg !3311
  %_1.val1.i = load i64, ptr %1, align 8, !dbg !3311, !alias.scope !3297, !noundef !12
  call void @llvm.dbg.value(metadata ptr undef, metadata !3312, metadata !DIExpression()), !dbg !3319
  tail call void @llvm.experimental.noalias.scope.decl(metadata !3321), !dbg !3324
  call void @llvm.dbg.value(metadata ptr %_1.val.i, metadata !3325, metadata !DIExpression(DW_OP_LLVM_fragment, 0, 64)), !dbg !3334
  call void @llvm.dbg.value(metadata i64 %_1.val1.i, metadata !3325, metadata !DIExpression(DW_OP_LLVM_fragment, 64, 64)), !dbg !3334
  %_713.i.i.i = icmp eq i64 %_1.val1.i, 0, !dbg !3336
  br i1 %_713.i.i.i, label %bb4.i, label %bb5.i.i.i, !dbg !3336

bb5.i.i.i:                                        ; preds = %start, %"_ZN4core3ptr91drop_in_place$LT$slab..Entry$LT$core..option..Option$LT$core..task..wake..Waker$GT$$GT$$GT$17h8fa89118025d143cE.exit.i.i.i"
  %_3.sroa.0.014.i.i.i = phi i64 [ %2, %"_ZN4core3ptr91drop_in_place$LT$slab..Entry$LT$core..option..Option$LT$core..task..wake..Waker$GT$$GT$$GT$17h8fa89118025d143cE.exit.i.i.i" ], [ 0, %start ]
  %_6.i.i.i = getelementptr inbounds [0 x %"slab::Entry<core::option::Option<core::task::wake::Waker>>"], ptr %_1.val.i, i64 0, i64 %_3.sroa.0.014.i.i.i, !dbg !3336
  %2 = add nuw i64 %_3.sroa.0.014.i.i.i, 1, !dbg !3336
  tail call void @llvm.experimental.noalias.scope.decl(metadata !3337), !dbg !3336
  call void @llvm.dbg.value(metadata ptr %_6.i.i.i, metadata !3340, metadata !DIExpression()), !dbg !3345
  %_2.i.i.i.i = load i64, ptr %_6.i.i.i, align 8, !dbg !3347, !range !1911, !alias.scope !3348, !noalias !3297, !noundef !12
  %3 = icmp eq i64 %_2.i.i.i.i, 0, !dbg !3347
  br i1 %3, label %"_ZN4core3ptr91drop_in_place$LT$slab..Entry$LT$core..option..Option$LT$core..task..wake..Waker$GT$$GT$$GT$17h8fa89118025d143cE.exit.i.i.i", label %bb2.i.i.i.i, !dbg !3347

bb2.i.i.i.i:                                      ; preds = %bb5.i.i.i
  %4 = getelementptr inbounds i8, ptr %_6.i.i.i, i64 8, !dbg !3347
  tail call void @llvm.experimental.noalias.scope.decl(metadata !3349), !dbg !3347
  call void @llvm.dbg.value(metadata ptr %4, metadata !2865, metadata !DIExpression()), !dbg !3352
  %5 = load ptr, ptr %4, align 8, !dbg !3354, !alias.scope !3355, !noalias !3297, !noundef !12
  %6 = icmp eq ptr %5, null, !dbg !3354
  br i1 %6, label %"_ZN4core3ptr91drop_in_place$LT$slab..Entry$LT$core..option..Option$LT$core..task..wake..Waker$GT$$GT$$GT$17h8fa89118025d143cE.exit.i.i.i", label %bb2.i.i.i.i.i, !dbg !3354

bb2.i.i.i.i.i:                                    ; preds = %bb2.i.i.i.i
  %7 = getelementptr inbounds i8, ptr %_6.i.i.i, i64 16, !dbg !3354
  %_1.val1.i.i.i.i.i = load ptr, ptr %7, align 8, !dbg !3354, !alias.scope !3355, !noalias !3297, !noundef !12
  call void @llvm.dbg.value(metadata ptr undef, metadata !2874, metadata !DIExpression()), !dbg !3356
  call void @llvm.dbg.value(metadata ptr undef, metadata !2882, metadata !DIExpression()), !dbg !3358
  %8 = getelementptr inbounds i8, ptr %5, i64 24, !dbg !3360
  %_2.i.i.i.i.i.i.i = load ptr, ptr %8, align 8, !dbg !3360, !noalias !3361, !nonnull !12, !noundef !12
  invoke void %_2.i.i.i.i.i.i.i(ptr noundef %_1.val1.i.i.i.i.i)
          to label %"_ZN4core3ptr91drop_in_place$LT$slab..Entry$LT$core..option..Option$LT$core..task..wake..Waker$GT$$GT$$GT$17h8fa89118025d143cE.exit.i.i.i" unwind label %cleanup.i.i.i, !dbg !3360, !noalias !3362

"_ZN4core3ptr91drop_in_place$LT$slab..Entry$LT$core..option..Option$LT$core..task..wake..Waker$GT$$GT$$GT$17h8fa89118025d143cE.exit.i.i.i": ; preds = %bb2.i.i.i.i.i, %bb2.i.i.i.i, %bb5.i.i.i
  %_7.i.i.i = icmp eq i64 %2, %_1.val1.i, !dbg !3336
  br i1 %_7.i.i.i, label %bb4.i, label %bb5.i.i.i, !dbg !3336

cleanup.i.i.i:                                    ; preds = %bb2.i.i.i.i.i
  %9 = landingpad { ptr, i32 }
          cleanup
  %_515.i.i.i = icmp eq i64 %2, %_1.val1.i, !dbg !3336
  br i1 %_515.i.i.i, label %cleanup.body.i, label %bb3.i.i.i, !dbg !3336

bb3.i.i.i:                                        ; preds = %cleanup.i.i.i, %"_ZN4core3ptr91drop_in_place$LT$slab..Entry$LT$core..option..Option$LT$core..task..wake..Waker$GT$$GT$$GT$17h8fa89118025d143cE.exit12.i.i.i"
  %_3.sroa.0.116.i.i.i = phi i64 [ %10, %"_ZN4core3ptr91drop_in_place$LT$slab..Entry$LT$core..option..Option$LT$core..task..wake..Waker$GT$$GT$$GT$17h8fa89118025d143cE.exit12.i.i.i" ], [ %2, %cleanup.i.i.i ]
  %_4.i.i.i = getelementptr inbounds [0 x %"slab::Entry<core::option::Option<core::task::wake::Waker>>"], ptr %_1.val.i, i64 0, i64 %_3.sroa.0.116.i.i.i, !dbg !3336
  %10 = add i64 %_3.sroa.0.116.i.i.i, 1, !dbg !3336
  tail call void @llvm.experimental.noalias.scope.decl(metadata !3363), !dbg !3336
  call void @llvm.dbg.value(metadata ptr %_4.i.i.i, metadata !3340, metadata !DIExpression()), !dbg !3366
  %_2.i6.i.i.i = load i64, ptr %_4.i.i.i, align 8, !dbg !3368, !range !1911, !alias.scope !3369, !noalias !3297, !noundef !12
  %11 = icmp eq i64 %_2.i6.i.i.i, 0, !dbg !3368
  br i1 %11, label %"_ZN4core3ptr91drop_in_place$LT$slab..Entry$LT$core..option..Option$LT$core..task..wake..Waker$GT$$GT$$GT$17h8fa89118025d143cE.exit12.i.i.i", label %bb2.i7.i.i.i, !dbg !3368

bb2.i7.i.i.i:                                     ; preds = %bb3.i.i.i
  %12 = getelementptr inbounds i8, ptr %_4.i.i.i, i64 8, !dbg !3368
  tail call void @llvm.experimental.noalias.scope.decl(metadata !3370), !dbg !3368
  call void @llvm.dbg.value(metadata ptr %12, metadata !2865, metadata !DIExpression()), !dbg !3373
  %13 = load ptr, ptr %12, align 8, !dbg !3375, !alias.scope !3376, !noalias !3297, !noundef !12
  %14 = icmp eq ptr %13, null, !dbg !3375
  br i1 %14, label %"_ZN4core3ptr91drop_in_place$LT$slab..Entry$LT$core..option..Option$LT$core..task..wake..Waker$GT$$GT$$GT$17h8fa89118025d143cE.exit12.i.i.i", label %bb2.i.i8.i.i.i, !dbg !3375

bb2.i.i8.i.i.i:                                   ; preds = %bb2.i7.i.i.i
  %15 = getelementptr inbounds i8, ptr %_4.i.i.i, i64 16, !dbg !3375
  %_1.val1.i.i9.i.i.i = load ptr, ptr %15, align 8, !dbg !3375, !alias.scope !3376, !noalias !3297, !noundef !12
  call void @llvm.dbg.value(metadata ptr undef, metadata !2874, metadata !DIExpression()), !dbg !3377
  call void @llvm.dbg.value(metadata ptr undef, metadata !2882, metadata !DIExpression()), !dbg !3379
  %16 = getelementptr inbounds i8, ptr %13, i64 24, !dbg !3381
  %_2.i.i.i.i10.i.i.i = load ptr, ptr %16, align 8, !dbg !3381, !noalias !3382, !nonnull !12, !noundef !12
  invoke void %_2.i.i.i.i10.i.i.i(ptr noundef %_1.val1.i.i9.i.i.i)
          to label %"_ZN4core3ptr91drop_in_place$LT$slab..Entry$LT$core..option..Option$LT$core..task..wake..Waker$GT$$GT$$GT$17h8fa89118025d143cE.exit12.i.i.i" unwind label %terminate.i.i.i, !dbg !3381, !noalias !3362

"_ZN4core3ptr91drop_in_place$LT$slab..Entry$LT$core..option..Option$LT$core..task..wake..Waker$GT$$GT$$GT$17h8fa89118025d143cE.exit12.i.i.i": ; preds = %bb2.i.i8.i.i.i, %bb2.i7.i.i.i, %bb3.i.i.i
  %_5.i.i.i = icmp eq i64 %10, %_1.val1.i, !dbg !3336
  br i1 %_5.i.i.i, label %cleanup.body.i, label %bb3.i.i.i, !dbg !3336

terminate.i.i.i:                                  ; preds = %bb2.i.i8.i.i.i
  %17 = landingpad { ptr, i32 }
          filter [0 x ptr] zeroinitializer
; call core::panicking::panic_in_cleanup
  tail call void @_ZN4core9panicking16panic_in_cleanup17h43442956f23e9cbeE() #15, !dbg !3336, !noalias !3362
  unreachable, !dbg !3336

cleanup.body.i:                                   ; preds = %"_ZN4core3ptr91drop_in_place$LT$slab..Entry$LT$core..option..Option$LT$core..task..wake..Waker$GT$$GT$$GT$17h8fa89118025d143cE.exit12.i.i.i", %cleanup.i.i.i
  %_1.val2.i = load i64, ptr %_1, align 8, !dbg !3311, !alias.scope !3297, !noundef !12
  call void @llvm.dbg.value(metadata ptr undef, metadata !3383, metadata !DIExpression()), !dbg !3391
  call void @llvm.dbg.value(metadata ptr undef, metadata !3393, metadata !DIExpression()), !dbg !3403
  call void @llvm.dbg.value(metadata ptr undef, metadata !3405, metadata !DIExpression()), !dbg !3434
  %18 = icmp eq i64 %_1.val2.i, 0, !dbg !3436
  br i1 %18, label %bb1.i, label %bb2.i.i6.i, !dbg !3436

bb2.i.i6.i:                                       ; preds = %cleanup.body.i
  call void @llvm.dbg.value(metadata i64 8, metadata !3428, metadata !DIExpression()), !dbg !3437
  call void @llvm.dbg.value(metadata i64 24, metadata !3438, metadata !DIExpression()), !dbg !3448
  call void @llvm.dbg.value(metadata i64 %_1.val2.i, metadata !3447, metadata !DIExpression()), !dbg !3448
  call void @llvm.dbg.value(metadata ptr %_1.val.i, metadata !3400, metadata !DIExpression()), !dbg !3450
  call void @llvm.dbg.value(metadata i64 8, metadata !3402, metadata !DIExpression(DW_OP_LLVM_fragment, 0, 64)), !dbg !3450
  call void @llvm.dbg.value(metadata i64 %_1.val2.i, metadata !3402, metadata !DIExpression(DW_OP_constu, 24, DW_OP_mul, DW_OP_stack_value, DW_OP_LLVM_fragment, 64, 64)), !dbg !3450
  call void @llvm.dbg.value(metadata i64 8, metadata !2766, metadata !DIExpression(DW_OP_LLVM_fragment, 0, 64)), !dbg !3451
  call void @llvm.dbg.value(metadata i64 %_1.val2.i, metadata !2766, metadata !DIExpression(DW_OP_constu, 24, DW_OP_mul, DW_OP_stack_value, DW_OP_LLVM_fragment, 64, 64)), !dbg !3451
  call void @llvm.dbg.value(metadata ptr undef, metadata !2774, metadata !DIExpression()), !dbg !3451
  call void @llvm.dbg.value(metadata ptr %_1.val.i, metadata !2775, metadata !DIExpression()), !dbg !3451
  %size.i.i.i.i = mul nuw i64 %_1.val2.i, 24, !dbg !3453
  call void @llvm.dbg.value(metadata i64 %size.i.i.i.i, metadata !3402, metadata !DIExpression(DW_OP_LLVM_fragment, 64, 64)), !dbg !3450
  call void @llvm.dbg.value(metadata i64 %size.i.i.i.i, metadata !2766, metadata !DIExpression(DW_OP_LLVM_fragment, 64, 64)), !dbg !3451
  call void @llvm.dbg.value(metadata ptr %_1.val.i, metadata !2778, metadata !DIExpression()), !dbg !3454
  call void @llvm.dbg.value(metadata i64 8, metadata !2784, metadata !DIExpression(DW_OP_LLVM_fragment, 0, 64)), !dbg !3454
  call void @llvm.dbg.value(metadata i64 %size.i.i.i.i, metadata !2784, metadata !DIExpression(DW_OP_LLVM_fragment, 64, 64)), !dbg !3454
  tail call void @__rust_dealloc(ptr noundef nonnull %_1.val.i, i64 noundef %size.i.i.i.i, i64 noundef 8) #16, !dbg !3456, !noalias !3297
  br label %bb1.i, !dbg !3457

bb4.i:                                            ; preds = %"_ZN4core3ptr91drop_in_place$LT$slab..Entry$LT$core..option..Option$LT$core..task..wake..Waker$GT$$GT$$GT$17h8fa89118025d143cE.exit.i.i.i", %start
  %_1.val4.i = load i64, ptr %_1, align 8, !dbg !3311, !alias.scope !3297, !noundef !12
  call void @llvm.dbg.value(metadata ptr undef, metadata !3383, metadata !DIExpression()), !dbg !3458
  call void @llvm.dbg.value(metadata ptr undef, metadata !3393, metadata !DIExpression()), !dbg !3460
  call void @llvm.dbg.value(metadata ptr undef, metadata !3405, metadata !DIExpression()), !dbg !3462
  %19 = icmp eq i64 %_1.val4.i, 0, !dbg !3464
  br i1 %19, label %"_ZN4core3ptr114drop_in_place$LT$alloc..vec..Vec$LT$slab..Entry$LT$core..option..Option$LT$core..task..wake..Waker$GT$$GT$$GT$$GT$17h88e6f6b2db4d19c4E.exit", label %bb2.i.i7.i, !dbg !3464

bb2.i.i7.i:                                       ; preds = %bb4.i
  call void @llvm.dbg.value(metadata i64 8, metadata !3428, metadata !DIExpression()), !dbg !3465
  call void @llvm.dbg.value(metadata i64 24, metadata !3438, metadata !DIExpression()), !dbg !3466
  call void @llvm.dbg.value(metadata i64 %_1.val4.i, metadata !3447, metadata !DIExpression()), !dbg !3466
  call void @llvm.dbg.value(metadata ptr %_1.val.i, metadata !3400, metadata !DIExpression()), !dbg !3468
  call void @llvm.dbg.value(metadata i64 8, metadata !3402, metadata !DIExpression(DW_OP_LLVM_fragment, 0, 64)), !dbg !3468
  call void @llvm.dbg.value(metadata i64 %_1.val4.i, metadata !3402, metadata !DIExpression(DW_OP_constu, 24, DW_OP_mul, DW_OP_stack_value, DW_OP_LLVM_fragment, 64, 64)), !dbg !3468
  call void @llvm.dbg.value(metadata i64 8, metadata !2766, metadata !DIExpression(DW_OP_LLVM_fragment, 0, 64)), !dbg !3469
  call void @llvm.dbg.value(metadata i64 %_1.val4.i, metadata !2766, metadata !DIExpression(DW_OP_constu, 24, DW_OP_mul, DW_OP_stack_value, DW_OP_LLVM_fragment, 64, 64)), !dbg !3469
  call void @llvm.dbg.value(metadata ptr undef, metadata !2774, metadata !DIExpression()), !dbg !3469
  call void @llvm.dbg.value(metadata ptr %_1.val.i, metadata !2775, metadata !DIExpression()), !dbg !3469
  %size.i.i.i8.i = mul nuw i64 %_1.val4.i, 24, !dbg !3471
  call void @llvm.dbg.value(metadata i64 %size.i.i.i8.i, metadata !3402, metadata !DIExpression(DW_OP_LLVM_fragment, 64, 64)), !dbg !3468
  call void @llvm.dbg.value(metadata i64 %size.i.i.i8.i, metadata !2766, metadata !DIExpression(DW_OP_LLVM_fragment, 64, 64)), !dbg !3469
  call void @llvm.dbg.value(metadata ptr %_1.val.i, metadata !2778, metadata !DIExpression()), !dbg !3472
  call void @llvm.dbg.value(metadata i64 8, metadata !2784, metadata !DIExpression(DW_OP_LLVM_fragment, 0, 64)), !dbg !3472
  call void @llvm.dbg.value(metadata i64 %size.i.i.i8.i, metadata !2784, metadata !DIExpression(DW_OP_LLVM_fragment, 64, 64)), !dbg !3472
  tail call void @__rust_dealloc(ptr noundef nonnull %_1.val.i, i64 noundef %size.i.i.i8.i, i64 noundef 8) #16, !dbg !3474, !noalias !3297
  br label %"_ZN4core3ptr114drop_in_place$LT$alloc..vec..Vec$LT$slab..Entry$LT$core..option..Option$LT$core..task..wake..Waker$GT$$GT$$GT$$GT$17h88e6f6b2db4d19c4E.exit", !dbg !3475

bb1.i:                                            ; preds = %bb2.i.i6.i, %cleanup.body.i
  resume { ptr, i32 } %9, !dbg !3311

"_ZN4core3ptr114drop_in_place$LT$alloc..vec..Vec$LT$slab..Entry$LT$core..option..Option$LT$core..task..wake..Waker$GT$$GT$$GT$$GT$17h88e6f6b2db4d19c4E.exit": ; preds = %bb4.i, %bb2.i.i7.i
  ret void, !dbg !3300
}

; alloc::sync::Arc<T,A>::drop_slow
; Function Attrs: noinline nonlazybind uwtable
define internal fastcc void @"_ZN5alloc4sync16Arc$LT$T$C$A$GT$9drop_slow17h4f6dd52df48320f9E"(ptr noalias nocapture noundef readonly align 8 dereferenceable(8) %self) unnamed_addr #2 personality ptr @rust_eh_personality !dbg !3476 {
start:
  tail call void @llvm.dbg.value(metadata ptr %self, metadata !3479, metadata !DIExpression()), !dbg !3480
  tail call void @llvm.dbg.value(metadata ptr %self, metadata !3481, metadata !DIExpression()), !dbg !3489
  %self1 = load ptr, ptr %self, align 8, !dbg !3491, !nonnull !12, !noundef !12
  tail call void @llvm.experimental.noalias.scope.decl(metadata !3492), !dbg !3495
  call void @llvm.dbg.value(metadata ptr %self1, metadata !3496, metadata !DIExpression(DW_OP_plus_uconst, 16, DW_OP_stack_value)), !dbg !3502
  tail call void @llvm.experimental.noalias.scope.decl(metadata !3504), !dbg !3507
  call void @llvm.dbg.value(metadata ptr %self1, metadata !3508, metadata !DIExpression(DW_OP_plus_uconst, 16, DW_OP_plus_uconst, 8, DW_OP_stack_value)), !dbg !3514
  %0 = getelementptr inbounds i8, ptr %self1, i64 32, !dbg !3516
  tail call void @llvm.experimental.noalias.scope.decl(metadata !3517), !dbg !3516
  call void @llvm.dbg.value(metadata ptr %0, metadata !3520, metadata !DIExpression()), !dbg !3528
  tail call void @llvm.experimental.noalias.scope.decl(metadata !3530), !dbg !3533
  call void @llvm.dbg.value(metadata ptr %0, metadata !3534, metadata !DIExpression()), !dbg !3539
  br label %bb6.i.i.i.i, !dbg !3541

bb6.i.i.i.i:                                      ; preds = %bb4.i.i.i.i.i, %start
  %_3.sroa.0.0.i.i.i.i = phi i64 [ 0, %start ], [ %1, %bb4.i.i.i.i.i ], !dbg !3541
  %_7.i.i.i.i = icmp eq i64 %_3.sroa.0.0.i.i.i.i, 2, !dbg !3541
  br i1 %_7.i.i.i.i, label %"_ZN4core3ptr46drop_in_place$LT$async_io..reactor..Source$GT$17hb9212fc4f16a865eE.exit", label %bb5.i.i.i.i, !dbg !3541

bb5.i.i.i.i:                                      ; preds = %bb6.i.i.i.i
  %_6.i.i.i.i = getelementptr inbounds [2 x %"async_io::reactor::Direction"], ptr %0, i64 0, i64 %_3.sroa.0.0.i.i.i.i, !dbg !3541
  %1 = add nuw nsw i64 %_3.sroa.0.0.i.i.i.i, 1, !dbg !3541
  tail call void @llvm.experimental.noalias.scope.decl(metadata !3542), !dbg !3541
  call void @llvm.dbg.value(metadata ptr %_6.i.i.i.i, metadata !2859, metadata !DIExpression()), !dbg !3545
  %2 = getelementptr inbounds i8, ptr %_6.i.i.i.i, i64 72, !dbg !3547
  tail call void @llvm.experimental.noalias.scope.decl(metadata !3548), !dbg !3547
  call void @llvm.dbg.value(metadata ptr %2, metadata !2865, metadata !DIExpression()), !dbg !3551
  %3 = load ptr, ptr %2, align 8, !dbg !3553, !alias.scope !3554, !noundef !12
  %4 = icmp eq ptr %3, null, !dbg !3553
  br i1 %4, label %bb4.i.i.i.i.i, label %bb2.i.i.i.i.i.i, !dbg !3553

bb2.i.i.i.i.i.i:                                  ; preds = %bb5.i.i.i.i
  %5 = getelementptr inbounds i8, ptr %_6.i.i.i.i, i64 80, !dbg !3553
  %_1.val1.i.i.i.i.i.i = load ptr, ptr %5, align 8, !dbg !3553, !alias.scope !3554, !noundef !12
  call void @llvm.dbg.value(metadata ptr undef, metadata !2874, metadata !DIExpression()), !dbg !3555
  call void @llvm.dbg.value(metadata ptr undef, metadata !2882, metadata !DIExpression()), !dbg !3557
  %6 = getelementptr inbounds i8, ptr %3, i64 24, !dbg !3559
  %_2.i.i.i.i.i.i.i.i = load ptr, ptr %6, align 8, !dbg !3559, !noalias !3554, !nonnull !12, !noundef !12
  invoke void %_2.i.i.i.i.i.i.i.i(ptr noundef %_1.val1.i.i.i.i.i.i)
          to label %bb4.i.i.i.i.i unwind label %cleanup.i.i.i.i.i, !dbg !3559, !noalias !3560

cleanup.i.i.i.i.i:                                ; preds = %bb2.i.i.i.i.i.i
  %7 = landingpad { ptr, i32 }
          cleanup
  %8 = getelementptr inbounds i8, ptr %_6.i.i.i.i, i64 24, !dbg !3547
; invoke core::ptr::drop_in_place<slab::Slab<core::option::Option<core::task::wake::Waker>>>
  invoke fastcc void @"_ZN4core3ptr90drop_in_place$LT$slab..Slab$LT$core..option..Option$LT$core..task..wake..Waker$GT$$GT$$GT$17hf9782a0ca539c651E"(ptr noalias noundef nonnull align 8 dereferenceable(40) %8) #14
          to label %cleanup.body.i.i.i.i unwind label %terminate.i.i.i.i.i, !dbg !3547

bb4.i.i.i.i.i:                                    ; preds = %bb2.i.i.i.i.i.i, %bb5.i.i.i.i
  %9 = getelementptr inbounds i8, ptr %_6.i.i.i.i, i64 24, !dbg !3547
; invoke core::ptr::drop_in_place<slab::Slab<core::option::Option<core::task::wake::Waker>>>
  invoke fastcc void @"_ZN4core3ptr90drop_in_place$LT$slab..Slab$LT$core..option..Option$LT$core..task..wake..Waker$GT$$GT$$GT$17hf9782a0ca539c651E"(ptr noalias noundef nonnull align 8 dereferenceable(40) %9)
          to label %bb6.i.i.i.i unwind label %cleanup.i.i.i.i, !dbg !3547

terminate.i.i.i.i.i:                              ; preds = %cleanup.i.i.i.i.i
  %10 = landingpad { ptr, i32 }
          filter [0 x ptr] zeroinitializer
; call core::panicking::panic_in_cleanup
  tail call void @_ZN4core9panicking16panic_in_cleanup17h43442956f23e9cbeE() #15, !dbg !3547, !noalias !3560
  unreachable, !dbg !3547

cleanup.i.i.i.i:                                  ; preds = %bb4.i.i.i.i.i
  %11 = landingpad { ptr, i32 }
          cleanup
  br label %cleanup.body.i.i.i.i, !dbg !3541

cleanup.body.i.i.i.i:                             ; preds = %cleanup.i.i.i.i, %cleanup.i.i.i.i.i
  %eh.lpad-body.i.i.i.i = phi { ptr, i32 } [ %11, %cleanup.i.i.i.i ], [ %7, %cleanup.i.i.i.i.i ]
  %12 = icmp eq i64 %1, 2, !dbg !3541
  br i1 %12, label %bb2.i.i.i.i, label %bb3.i.i.i.i, !dbg !3541

bb3.i.i.i.i:                                      ; preds = %cleanup.body.i.i.i.i
  %_4.i.i.i.i = getelementptr inbounds i8, ptr %self1, i64 120, !dbg !3541
; invoke core::ptr::drop_in_place<async_io::reactor::Direction>
  invoke fastcc void @"_ZN4core3ptr49drop_in_place$LT$async_io..reactor..Direction$GT$17hbf30d1b46c4d51d2E"(ptr noalias noundef nonnull align 8 dereferenceable(88) %_4.i.i.i.i) #14
          to label %bb2.i.i.i.i unwind label %terminate.i.i.i.i, !dbg !3541

bb2.i.i.i.i:                                      ; preds = %bb3.i.i.i.i, %cleanup.body.i.i.i.i
  resume { ptr, i32 } %eh.lpad-body.i.i.i.i, !dbg !3541

terminate.i.i.i.i:                                ; preds = %bb3.i.i.i.i
  %13 = landingpad { ptr, i32 }
          filter [0 x ptr] zeroinitializer
; call core::panicking::panic_in_cleanup
  tail call void @_ZN4core9panicking16panic_in_cleanup17h43442956f23e9cbeE() #15, !dbg !3541, !noalias !3561
  unreachable, !dbg !3541

"_ZN4core3ptr46drop_in_place$LT$async_io..reactor..Source$GT$17hb9212fc4f16a865eE.exit": ; preds = %bb6.i.i.i.i
  tail call void @llvm.dbg.value(metadata ptr %self1, metadata !3562, metadata !DIExpression(DW_OP_LLVM_fragment, 0, 64)), !dbg !3576
  tail call void @llvm.dbg.value(metadata ptr %self, metadata !3562, metadata !DIExpression(DW_OP_plus_uconst, 8, DW_OP_stack_value, DW_OP_LLVM_fragment, 64, 64)), !dbg !3576
  call void @llvm.dbg.value(metadata ptr undef, metadata !3578, metadata !DIExpression()), !dbg !3584
  call void @llvm.dbg.value(metadata i64 1, metadata !3586, metadata !DIExpression()), !dbg !3592
  call void @llvm.dbg.value(metadata i8 1, metadata !3591, metadata !DIExpression()), !dbg !3592
  call void @llvm.dbg.value(metadata i64 1, metadata !3610, metadata !DIExpression()), !dbg !3616
  call void @llvm.dbg.value(metadata i8 1, metadata !3615, metadata !DIExpression()), !dbg !3616
  call void @llvm.dbg.value(metadata i8 2, metadata !3618, metadata !DIExpression()), !dbg !3622
  call void @llvm.dbg.value(metadata ptr undef, metadata !3601, metadata !DIExpression()), !dbg !3624
  call void @llvm.dbg.value(metadata ptr undef, metadata !3625, metadata !DIExpression()), !dbg !3649
  call void @llvm.dbg.value(metadata ptr %self1, metadata !3651, metadata !DIExpression()), !dbg !3659
  call void @llvm.dbg.value(metadata ptr %self1, metadata !3646, metadata !DIExpression()), !dbg !3661
  %_15.i.i = icmp eq ptr %self1, inttoptr (i64 -1 to ptr), !dbg !3662
  br i1 %_15.i.i, label %"_ZN4core3ptr98drop_in_place$LT$alloc..sync..Weak$LT$async_io..reactor..Source$C$$RF$alloc..alloc..Global$GT$$GT$17ha5bfcbf77b7e0477E.exit", label %bb7.i.i, !dbg !3663

bb7.i.i:                                          ; preds = %"_ZN4core3ptr46drop_in_place$LT$async_io..reactor..Source$GT$17hb9212fc4f16a865eE.exit"
  %_18.i.i = getelementptr inbounds i8, ptr %self1, i64 8, !dbg !3664
  call void @llvm.dbg.value(metadata ptr %_18.i.i, metadata !3602, metadata !DIExpression(DW_OP_LLVM_fragment, 0, 64)), !dbg !3665
  call void @llvm.dbg.value(metadata ptr %_18.i.i, metadata !3607, metadata !DIExpression(DW_OP_LLVM_fragment, 0, 64)), !dbg !3666
  call void @llvm.dbg.value(metadata ptr %_18.i.i, metadata !3590, metadata !DIExpression()), !dbg !3592
  call void @llvm.dbg.value(metadata ptr %self1, metadata !3602, metadata !DIExpression(DW_OP_LLVM_fragment, 64, 64)), !dbg !3665
  call void @llvm.dbg.value(metadata ptr %self1, metadata !3607, metadata !DIExpression(DW_OP_LLVM_fragment, 64, 64)), !dbg !3666
  call void @llvm.dbg.value(metadata ptr %_18.i.i, metadata !3614, metadata !DIExpression()), !dbg !3616
  %14 = atomicrmw sub ptr %_18.i.i, i64 1 release, align 8, !dbg !3667, !noalias !3668
  %15 = icmp eq i64 %14, 1, !dbg !3671
  br i1 %15, label %bb1.i.i, label %"_ZN4core3ptr98drop_in_place$LT$alloc..sync..Weak$LT$async_io..reactor..Source$C$$RF$alloc..alloc..Global$GT$$GT$17ha5bfcbf77b7e0477E.exit", !dbg !3671

bb1.i.i:                                          ; preds = %bb7.i.i
  fence acquire, !dbg !3672
  call void @llvm.dbg.value(metadata ptr undef, metadata !3673, metadata !DIExpression()), !dbg !3684
  call void @llvm.dbg.value(metadata ptr %self1, metadata !3681, metadata !DIExpression()), !dbg !3684
  call void @llvm.dbg.value(metadata i64 8, metadata !3682, metadata !DIExpression(DW_OP_LLVM_fragment, 0, 64)), !dbg !3684
  call void @llvm.dbg.value(metadata i64 216, metadata !3682, metadata !DIExpression(DW_OP_LLVM_fragment, 64, 64)), !dbg !3684
  call void @llvm.dbg.value(metadata i64 8, metadata !2766, metadata !DIExpression(DW_OP_LLVM_fragment, 0, 64)), !dbg !3686
  call void @llvm.dbg.value(metadata i64 216, metadata !2766, metadata !DIExpression(DW_OP_LLVM_fragment, 64, 64)), !dbg !3686
  call void @llvm.dbg.value(metadata ptr undef, metadata !2774, metadata !DIExpression()), !dbg !3686
  call void @llvm.dbg.value(metadata ptr %self1, metadata !2775, metadata !DIExpression()), !dbg !3686
  call void @llvm.dbg.value(metadata ptr %self1, metadata !2778, metadata !DIExpression()), !dbg !3688
  call void @llvm.dbg.value(metadata i64 8, metadata !2784, metadata !DIExpression(DW_OP_LLVM_fragment, 0, 64)), !dbg !3688
  call void @llvm.dbg.value(metadata i64 216, metadata !2784, metadata !DIExpression(DW_OP_LLVM_fragment, 64, 64)), !dbg !3688
  tail call void @__rust_dealloc(ptr noundef nonnull %self1, i64 noundef 216, i64 noundef 8) #16, !dbg !3690, !noalias !3668
  br label %"_ZN4core3ptr98drop_in_place$LT$alloc..sync..Weak$LT$async_io..reactor..Source$C$$RF$alloc..alloc..Global$GT$$GT$17ha5bfcbf77b7e0477E.exit", !dbg !3691

"_ZN4core3ptr98drop_in_place$LT$alloc..sync..Weak$LT$async_io..reactor..Source$C$$RF$alloc..alloc..Global$GT$$GT$17ha5bfcbf77b7e0477E.exit": ; preds = %"_ZN4core3ptr46drop_in_place$LT$async_io..reactor..Source$GT$17hb9212fc4f16a865eE.exit", %bb7.i.i, %bb1.i.i
  ret void, !dbg !3692
}

; <async_io::Async<T> as core::fmt::Debug>::fmt
; Function Attrs: inlinehint nonlazybind uwtable
define internal noundef zeroext i1 @"_ZN61_$LT$async_io..Async$LT$T$GT$$u20$as$u20$core..fmt..Debug$GT$3fmt17ha214a8cb4a14674aE"(ptr noalias noundef readonly align 8 dereferenceable(16) %self, ptr noalias noundef align 8 dereferenceable(64) %f) unnamed_addr #0 !dbg !3693 {
start:
  %_10 = alloca [8 x i8], align 8
  tail call void @llvm.dbg.value(metadata ptr %self, metadata !3699, metadata !DIExpression()), !dbg !3701
  tail call void @llvm.dbg.value(metadata ptr %f, metadata !3700, metadata !DIExpression()), !dbg !3701
  call void @llvm.lifetime.start.p0(i64 8, ptr nonnull %_10), !dbg !3702
  %0 = getelementptr inbounds i8, ptr %self, i64 8, !dbg !3702
  store ptr %0, ptr %_10, align 8, !dbg !3702
; call core::fmt::Formatter::debug_struct_field2_finish
  %_0 = call noundef zeroext i1 @_ZN4core3fmt9Formatter26debug_struct_field2_finish17hf213de27bcce7889E(ptr noalias noundef nonnull align 8 dereferenceable(64) %f, ptr noalias noundef nonnull readonly align 1 @alloc_e7747642fb036448f60b3f6e680665e5, i64 noundef 5, ptr noalias noundef nonnull readonly align 1 @alloc_2d1abda73e6150f56d5ce7d36aeb59ff, i64 noundef 6, ptr noundef nonnull align 1 %self, ptr noalias noundef nonnull readonly align 8 dereferenceable(32) @vtable.5, ptr noalias noundef nonnull readonly align 1 @alloc_fd94ba86361780db0c69bd8f77a77d05, i64 noundef 2, ptr noundef nonnull align 1 %_10, ptr noalias noundef nonnull readonly align 8 dereferenceable(32) @vtable.6), !dbg !3703
  call void @llvm.lifetime.end.p0(i64 8, ptr nonnull %_10), !dbg !3704
  ret i1 %_0, !dbg !3705
}

; <alloc::sync::Arc<T,A> as core::fmt::Debug>::fmt
; Function Attrs: nonlazybind uwtable
define internal noundef zeroext i1 @"_ZN66_$LT$alloc..sync..Arc$LT$T$C$A$GT$$u20$as$u20$core..fmt..Debug$GT$3fmt17h5dcf683ef80a7604E"(ptr noalias nocapture noundef readonly align 8 dereferenceable(8) %self, ptr noalias noundef align 8 dereferenceable(64) %f) unnamed_addr #1 !dbg !3706 {
start:
  %_13.i = alloca [8 x i8], align 8
  tail call void @llvm.dbg.value(metadata ptr %self, metadata !3711, metadata !DIExpression()), !dbg !3713
  tail call void @llvm.dbg.value(metadata ptr %self, metadata !3714, metadata !DIExpression()), !dbg !3718
  tail call void @llvm.dbg.value(metadata ptr %self, metadata !3720, metadata !DIExpression()), !dbg !3724
  tail call void @llvm.dbg.value(metadata ptr %f, metadata !3712, metadata !DIExpression()), !dbg !3713
  tail call void @llvm.dbg.value(metadata ptr %self, metadata !3726, metadata !DIExpression()), !dbg !3730
  %self2 = load ptr, ptr %self, align 8, !dbg !3732, !nonnull !12, !noundef !12
  %_3 = getelementptr inbounds i8, ptr %self2, i64 16, !dbg !3733
  call void @llvm.dbg.value(metadata ptr %_3, metadata !3734, metadata !DIExpression()), !dbg !3741
  call void @llvm.dbg.value(metadata ptr %f, metadata !3740, metadata !DIExpression()), !dbg !3741
  %_6.i = getelementptr inbounds i8, ptr %self2, i64 208, !dbg !3743
  call void @llvm.lifetime.start.p0(i64 8, ptr nonnull %_13.i), !dbg !3744, !noalias !3745
  %0 = getelementptr inbounds i8, ptr %self2, i64 24, !dbg !3744
  store ptr %0, ptr %_13.i, align 8, !dbg !3744, !noalias !3745
; call core::fmt::Formatter::debug_struct_field3_finish
  %_0.i = call noundef zeroext i1 @_ZN4core3fmt9Formatter26debug_struct_field3_finish17h63dbca31cb765d6bE(ptr noalias noundef nonnull align 8 dereferenceable(64) %f, ptr noalias noundef nonnull readonly align 1 @alloc_4ca5c993f10267ecb607b27d5a5fc76a, i64 noundef 6, ptr noalias noundef nonnull readonly align 1 @alloc_b81c1c76c31fe778eebad5984ce77fe5, i64 noundef 12, ptr noundef nonnull align 1 %_6.i, ptr noalias noundef nonnull readonly align 8 dereferenceable(32) @vtable.7, ptr noalias noundef nonnull readonly align 1 @alloc_25e0d7e970dcb58d756f6f40f94c4cb8, i64 noundef 3, ptr noundef nonnull align 1 %_3, ptr noalias noundef nonnull readonly align 8 dereferenceable(32) @vtable.0, ptr noalias noundef nonnull readonly align 1 @alloc_53dc2ae8bb09ccd50a261f689b87edcd, i64 noundef 5, ptr noundef nonnull align 1 %_13.i, ptr noalias noundef nonnull readonly align 8 dereferenceable(32) @vtable.8), !dbg !3748
  call void @llvm.lifetime.end.p0(i64 8, ptr nonnull %_13.i), !dbg !3749, !noalias !3745
  ret i1 %_0.i, !dbg !3750
}

; <core::option::Option<T> as core::fmt::Debug>::fmt
; Function Attrs: inlinehint nonlazybind uwtable
define internal noundef zeroext i1 @"_ZN66_$LT$core..option..Option$LT$T$GT$$u20$as$u20$core..fmt..Debug$GT$3fmt17h070f329d0fc42b27E"(ptr noalias noundef readonly align 8 dereferenceable(16) %self, ptr noalias noundef align 8 dereferenceable(64) %f) unnamed_addr #0 !dbg !2148 {
start:
  %__self_0 = alloca [8 x i8], align 8
  tail call void @llvm.dbg.value(metadata ptr %self, metadata !2147, metadata !DIExpression()), !dbg !3751
  tail call void @llvm.dbg.value(metadata ptr %f, metadata !2154, metadata !DIExpression()), !dbg !3751
  call void @llvm.dbg.declare(metadata ptr %__self_0, metadata !2155, metadata !DIExpression()), !dbg !3752
  %0 = load ptr, ptr %self, align 8, !dbg !3753, !noundef !12
  %1 = icmp eq ptr %0, null, !dbg !3753
  br i1 %1, label %bb3, label %bb2, !dbg !3753

bb3:                                              ; preds = %start
; call core::fmt::Formatter::write_str
  %2 = tail call noundef zeroext i1 @_ZN4core3fmt9Formatter9write_str17h35be9e09c65db375E(ptr noalias noundef nonnull align 8 dereferenceable(64) %f, ptr noalias noundef nonnull readonly align 1 @alloc_37d2e53432a03a1f90b3e7253015eaf9, i64 noundef 4), !dbg !3753
  br label %bb5, !dbg !3753

bb2:                                              ; preds = %start
  call void @llvm.lifetime.start.p0(i64 8, ptr nonnull %__self_0), !dbg !3754
  store ptr %self, ptr %__self_0, align 8, !dbg !3754
; call core::fmt::Formatter::debug_tuple_field1_finish
  %3 = call noundef zeroext i1 @_ZN4core3fmt9Formatter25debug_tuple_field1_finish17hda02114f9a9fecb7E(ptr noalias noundef nonnull align 8 dereferenceable(64) %f, ptr noalias noundef nonnull readonly align 1 @alloc_9535bf4c204f3eb9b19ec2c83e446e52, i64 noundef 4, ptr noundef nonnull align 1 %__self_0, ptr noalias noundef nonnull readonly align 8 dereferenceable(32) @vtable.c), !dbg !3755
  call void @llvm.lifetime.end.p0(i64 8, ptr nonnull %__self_0), !dbg !3756
  br label %bb5, !dbg !3756

bb5:                                              ; preds = %bb2, %bb3
  %_0.sroa.0.0.in = phi i1 [ %2, %bb3 ], [ %3, %bb2 ]
  ret i1 %_0.sroa.0.0.in, !dbg !3757
}

; <core::option::Option<T> as core::fmt::Debug>::fmt
; Function Attrs: inlinehint nonlazybind uwtable
define internal noundef zeroext i1 @"_ZN66_$LT$core..option..Option$LT$T$GT$$u20$as$u20$core..fmt..Debug$GT$3fmt17ha5d8bd20fdb7a5c5E"(ptr noalias noundef readonly align 8 dereferenceable(24) %self, ptr noalias noundef align 8 dereferenceable(64) %f) unnamed_addr #0 !dbg !3758 {
start:
  %__self_0 = alloca [8 x i8], align 8
  tail call void @llvm.dbg.value(metadata ptr %self, metadata !3763, metadata !DIExpression()), !dbg !3767
  tail call void @llvm.dbg.value(metadata ptr %f, metadata !3764, metadata !DIExpression()), !dbg !3767
  call void @llvm.dbg.declare(metadata ptr %__self_0, metadata !3765, metadata !DIExpression()), !dbg !3768
  %_3 = load i64, ptr %self, align 8, !dbg !3769, !range !1911, !noundef !12
  %trunc.not = icmp eq i64 %_3, 0, !dbg !3769
  br i1 %trunc.not, label %bb3, label %bb2, !dbg !3769

bb3:                                              ; preds = %start
; call core::fmt::Formatter::write_str
  %0 = tail call noundef zeroext i1 @_ZN4core3fmt9Formatter9write_str17h35be9e09c65db375E(ptr noalias noundef nonnull align 8 dereferenceable(64) %f, ptr noalias noundef nonnull readonly align 1 @alloc_37d2e53432a03a1f90b3e7253015eaf9, i64 noundef 4), !dbg !3769
  br label %bb5, !dbg !3769

bb2:                                              ; preds = %start
  call void @llvm.lifetime.start.p0(i64 8, ptr nonnull %__self_0), !dbg !3770
  %1 = getelementptr inbounds i8, ptr %self, i64 8, !dbg !3770
  store ptr %1, ptr %__self_0, align 8, !dbg !3770
; call core::fmt::Formatter::debug_tuple_field1_finish
  %2 = call noundef zeroext i1 @_ZN4core3fmt9Formatter25debug_tuple_field1_finish17hda02114f9a9fecb7E(ptr noalias noundef nonnull align 8 dereferenceable(64) %f, ptr noalias noundef nonnull readonly align 1 @alloc_9535bf4c204f3eb9b19ec2c83e446e52, i64 noundef 4, ptr noundef nonnull align 1 %__self_0, ptr noalias noundef nonnull readonly align 8 dereferenceable(32) @vtable.e), !dbg !3771
  call void @llvm.lifetime.end.p0(i64 8, ptr nonnull %__self_0), !dbg !3772
  br label %bb5, !dbg !3772

bb5:                                              ; preds = %bb2, %bb3
  %_0.sroa.0.0.in = phi i1 [ %2, %bb2 ], [ %0, %bb3 ]
  ret i1 %_0.sroa.0.0.in, !dbg !3773
}

; <async_signal::Signals as core::ops::drop::Drop>::drop
; Function Attrs: nonlazybind uwtable
define void @"_ZN63_$LT$async_signal..Signals$u20$as$u20$core..ops..drop..Drop$GT$4drop17h56864d73e923059bE"(ptr noalias nocapture noundef readonly align 8 dereferenceable(72) %self) unnamed_addr #1 !dbg !3774 {
start:
  tail call void @llvm.dbg.value(metadata ptr %self, metadata !3784, metadata !DIExpression()), !dbg !3833
  tail call void @llvm.dbg.value(metadata ptr %self, metadata !3834, metadata !DIExpression(DW_OP_plus_uconst, 24, DW_OP_stack_value)), !dbg !3842
  tail call void @llvm.dbg.value(metadata ptr %self, metadata !3844, metadata !DIExpression(DW_OP_plus_uconst, 24, DW_OP_stack_value)), !dbg !3851
  tail call void @llvm.experimental.noalias.scope.decl(metadata !3853), !dbg !3856
  tail call void @llvm.dbg.value(metadata ptr %self, metadata !3857, metadata !DIExpression(DW_OP_plus_uconst, 24, DW_OP_stack_value)), !dbg !3865
  tail call void @llvm.dbg.value(metadata ptr %self, metadata !3867, metadata !DIExpression(DW_OP_plus_uconst, 24, DW_OP_stack_value)), !dbg !3876
  tail call void @llvm.dbg.value(metadata ptr %self, metadata !3878, metadata !DIExpression(DW_OP_plus_uconst, 24, DW_OP_stack_value)), !dbg !3888
  tail call void @llvm.dbg.value(metadata ptr %self, metadata !3890, metadata !DIExpression(DW_OP_plus_uconst, 24, DW_OP_stack_value)), !dbg !3897
  tail call void @llvm.dbg.value(metadata ptr poison, metadata !3886, metadata !DIExpression()), !dbg !3899
  tail call void @llvm.dbg.value(metadata i64 16, metadata !3900, metadata !DIExpression()), !dbg !3913
  tail call void @llvm.dbg.value(metadata ptr poison, metadata !3922, metadata !DIExpression()), !dbg !3944
  tail call void @llvm.dbg.value(metadata ptr poison, metadata !3945, metadata !DIExpression()), !dbg !3971
  tail call void @llvm.dbg.value(metadata ptr poison, metadata !3912, metadata !DIExpression()), !dbg !3913
  tail call void @llvm.dbg.value(metadata ptr poison, metadata !3923, metadata !DIExpression()), !dbg !3944
  tail call void @llvm.dbg.value(metadata i64 poison, metadata !3924, metadata !DIExpression(DW_OP_plus_uconst, 1, DW_OP_stack_value)), !dbg !3944
  tail call void @llvm.dbg.value(metadata !DIArgList(ptr poison, i64 poison), metadata !3939, metadata !DIExpression(DW_OP_LLVM_arg, 0, DW_OP_LLVM_arg, 1, DW_OP_constu, 1, DW_OP_mul, DW_OP_plus, DW_OP_plus_uconst, 1, DW_OP_stack_value)), !dbg !3973
  tail call void @llvm.dbg.value(metadata ptr poison, metadata !3974, metadata !DIExpression()), !dbg !3982
  tail call void @llvm.dbg.value(metadata <2 x i64> poison, metadata !3984, metadata !DIExpression()), !dbg !3991
  tail call void @llvm.dbg.value(metadata ptr undef, metadata !4000, metadata !DIExpression()), !dbg !4002
  tail call void @llvm.dbg.value(metadata <2 x i64> poison, metadata !4003, metadata !DIExpression()), !dbg !4032
  tail call void @llvm.dbg.value(metadata <16 x i8> zeroinitializer, metadata !4008, metadata !DIExpression()), !dbg !4034
  tail call void @llvm.dbg.value(metadata <16 x i8> poison, metadata !4030, metadata !DIExpression()), !dbg !4035
  tail call void @llvm.dbg.value(metadata !DIArgList(<16 x i8> poison, <16 x i8> poison), metadata !4036, metadata !DIExpression(DW_OP_LLVM_arg, 0, DW_OP_LLVM_arg, 1, DW_OP_lt, DW_OP_stack_value)), !dbg !4044
  tail call void @llvm.dbg.value(metadata !DIArgList(<16 x i8> poison, <16 x i8> poison), metadata !3940, metadata !DIExpression(DW_OP_LLVM_arg, 0, DW_OP_LLVM_arg, 1, DW_OP_lt, DW_OP_constu, 18446744073709551615, DW_OP_xor, DW_OP_stack_value)), !dbg !4046
  %0 = getelementptr inbounds i8, ptr %self, i64 48, !dbg !4047
  %_9.i = load i64, ptr %0, align 8, !dbg !4047, !alias.scope !3853, !noalias !4048, !noundef !12
  tail call void @llvm.dbg.value(metadata ptr poison, metadata !3785, metadata !DIExpression(DW_OP_LLVM_fragment, 0, 64)), !dbg !4050
  tail call void @llvm.dbg.value(metadata ptr poison, metadata !3785, metadata !DIExpression(DW_OP_plus_uconst, 16, DW_OP_stack_value, DW_OP_LLVM_fragment, 64, 64)), !dbg !4050
  tail call void @llvm.dbg.value(metadata !DIArgList(ptr poison, i64 poison), metadata !3785, metadata !DIExpression(DW_OP_LLVM_arg, 0, DW_OP_LLVM_arg, 1, DW_OP_constu, 1, DW_OP_mul, DW_OP_plus, DW_OP_plus_uconst, 1, DW_OP_stack_value, DW_OP_LLVM_fragment, 128, 64)), !dbg !4050
  tail call void @llvm.dbg.value(metadata !DIArgList(<16 x i8> poison, <16 x i8> poison), metadata !3785, metadata !DIExpression(DW_OP_LLVM_arg, 0, DW_OP_LLVM_arg, 1, DW_OP_lt, DW_OP_constu, 18446744073709551615, DW_OP_xor, DW_OP_stack_value, DW_OP_LLVM_fragment, 192, 16)), !dbg !4050
  tail call void @llvm.dbg.value(metadata i64 %_9.i, metadata !3785, metadata !DIExpression(DW_OP_LLVM_fragment, 256, 64)), !dbg !4050
  tail call void @llvm.dbg.value(metadata ptr undef, metadata !4051, metadata !DIExpression()), !dbg !4072
  tail call void @llvm.dbg.value(metadata ptr undef, metadata !4074, metadata !DIExpression()), !dbg !4093
  call void @llvm.dbg.value(metadata ptr undef, metadata !4095, metadata !DIExpression()), !dbg !4107
  call void @llvm.dbg.value(metadata ptr undef, metadata !4109, metadata !DIExpression()), !dbg !4131
  %1 = icmp eq i64 %_9.i, 0, !dbg !4133
  br i1 %1, label %bb6, label %bb2.i.i.preheader, !dbg !4133

bb2.i.i.preheader:                                ; preds = %start
  %_12 = getelementptr inbounds i8, ptr %self, i64 24, !dbg !3856
  tail call void @llvm.dbg.value(metadata ptr %_12, metadata !3857, metadata !DIExpression()), !dbg !3865
  tail call void @llvm.dbg.value(metadata ptr %_12, metadata !3867, metadata !DIExpression()), !dbg !3876
  tail call void @llvm.dbg.value(metadata ptr %_12, metadata !3878, metadata !DIExpression()), !dbg !3888
  tail call void @llvm.dbg.value(metadata ptr %_12, metadata !3890, metadata !DIExpression()), !dbg !3897
  %self3.i = load ptr, ptr %_12, align 8, !dbg !4134, !alias.scope !3853, !noalias !4048, !nonnull !12, !noundef !12
  tail call void @llvm.dbg.value(metadata ptr %self3.i, metadata !3886, metadata !DIExpression()), !dbg !3899
  tail call void @llvm.dbg.value(metadata ptr %self3.i, metadata !3922, metadata !DIExpression()), !dbg !3944
  tail call void @llvm.dbg.value(metadata ptr %self3.i, metadata !3945, metadata !DIExpression()), !dbg !3971
  tail call void @llvm.dbg.value(metadata ptr %self3.i, metadata !3912, metadata !DIExpression()), !dbg !3913
  tail call void @llvm.dbg.value(metadata ptr %self3.i, metadata !3923, metadata !DIExpression()), !dbg !3944
  tail call void @llvm.dbg.value(metadata ptr %self3.i, metadata !3974, metadata !DIExpression()), !dbg !3982
  tail call void @llvm.dbg.value(metadata ptr %self3.i, metadata !3785, metadata !DIExpression(DW_OP_LLVM_fragment, 0, 64)), !dbg !4050
  tail call void @llvm.dbg.value(metadata ptr %self3.i, metadata !3785, metadata !DIExpression(DW_OP_plus_uconst, 16, DW_OP_stack_value, DW_OP_LLVM_fragment, 64, 64)), !dbg !4050
  %next_ctrl.i.i = getelementptr inbounds i8, ptr %self3.i, i64 16, !dbg !4135, !unsafe_inst !4136
  tail call void @llvm.dbg.value(metadata ptr %next_ctrl.i.i, metadata !3785, metadata !DIExpression(DW_OP_LLVM_fragment, 64, 64)), !dbg !4050
  %2 = load <16 x i8>, ptr %self3.i, align 16, !dbg !4137, !noalias !4138
  tail call void @llvm.dbg.value(metadata !DIArgList(<16 x i8> %2, <16 x i8> zeroinitializer), metadata !4036, metadata !DIExpression(DW_OP_LLVM_arg, 0, DW_OP_LLVM_arg, 1, DW_OP_lt, DW_OP_stack_value)), !dbg !4044
  tail call void @llvm.dbg.value(metadata !DIArgList(<16 x i8> %2, <16 x i8> zeroinitializer), metadata !3940, metadata !DIExpression(DW_OP_LLVM_arg, 0, DW_OP_LLVM_arg, 1, DW_OP_lt, DW_OP_constu, 18446744073709551615, DW_OP_xor, DW_OP_stack_value)), !dbg !4046
  tail call void @llvm.dbg.value(metadata !DIArgList(<16 x i8> %2, <16 x i8> zeroinitializer), metadata !3785, metadata !DIExpression(DW_OP_LLVM_arg, 0, DW_OP_LLVM_arg, 1, DW_OP_lt, DW_OP_constu, 18446744073709551615, DW_OP_xor, DW_OP_stack_value, DW_OP_LLVM_fragment, 192, 16)), !dbg !4050
  %3 = icmp slt <16 x i8> %2, zeroinitializer, !dbg !4143
  tail call void @llvm.dbg.value(metadata <16 x i1> %3, metadata !4036, metadata !DIExpression()), !dbg !4044
  tail call void @llvm.dbg.value(metadata <16 x i1> %3, metadata !3940, metadata !DIExpression(DW_OP_constu, 18446744073709551615, DW_OP_xor, DW_OP_stack_value)), !dbg !4046
  tail call void @llvm.dbg.value(metadata <16 x i1> %3, metadata !3785, metadata !DIExpression(DW_OP_constu, 18446744073709551615, DW_OP_xor, DW_OP_stack_value, DW_OP_LLVM_fragment, 192, 16)), !dbg !4050
  %4 = bitcast <16 x i1> %3 to i16, !dbg !4144
  tail call void @llvm.dbg.value(metadata i16 %4, metadata !4036, metadata !DIExpression()), !dbg !4044
  tail call void @llvm.dbg.value(metadata i16 %4, metadata !3940, metadata !DIExpression(DW_OP_constu, 18446744073709551615, DW_OP_xor, DW_OP_stack_value)), !dbg !4046
  tail call void @llvm.dbg.value(metadata i16 %4, metadata !3785, metadata !DIExpression(DW_OP_constu, 18446744073709551615, DW_OP_xor, DW_OP_stack_value, DW_OP_LLVM_fragment, 192, 16)), !dbg !4050
  %current_group.i.i = xor i16 %4, -1, !dbg !4145, !unsafe_inst !4136
  tail call void @llvm.dbg.value(metadata i16 %current_group.i.i, metadata !3940, metadata !DIExpression()), !dbg !4046
  tail call void @llvm.dbg.value(metadata i16 %current_group.i.i, metadata !3785, metadata !DIExpression(DW_OP_LLVM_fragment, 192, 16)), !dbg !4050
  br label %bb2.i.i, !dbg !4146

bb2.i.i:                                          ; preds = %bb2.i.i.preheader, %bb7
  %iter.sroa.0.022 = phi ptr [ %iter.sroa.0.1, %bb7 ], [ %self3.i, %bb2.i.i.preheader ]
  %iter.sroa.6.021 = phi ptr [ %iter.sroa.6.1, %bb7 ], [ %next_ctrl.i.i, %bb2.i.i.preheader ]
  %iter.sroa.1010.020 = phi i64 [ %13, %bb7 ], [ %_9.i, %bb2.i.i.preheader ]
  %iter.sroa.89.019 = phi i16 [ %_18.i.i.i.i, %bb7 ], [ %current_group.i.i, %bb2.i.i.preheader ]
  tail call void @llvm.dbg.value(metadata ptr %iter.sroa.0.022, metadata !3785, metadata !DIExpression(DW_OP_LLVM_fragment, 0, 64)), !dbg !4050
  tail call void @llvm.dbg.value(metadata ptr %iter.sroa.6.021, metadata !3785, metadata !DIExpression(DW_OP_LLVM_fragment, 64, 64)), !dbg !4050
  tail call void @llvm.dbg.value(metadata i64 %iter.sroa.1010.020, metadata !3785, metadata !DIExpression(DW_OP_LLVM_fragment, 256, 64)), !dbg !4050
  tail call void @llvm.dbg.value(metadata i16 %iter.sroa.89.019, metadata !3785, metadata !DIExpression(DW_OP_LLVM_fragment, 192, 16)), !dbg !4050
  call void @llvm.dbg.value(metadata i64 16, metadata !4191, metadata !DIExpression()), !dbg !4196
  call void @llvm.dbg.value(metadata ptr undef, metadata !4188, metadata !DIExpression()), !dbg !4198
  call void @llvm.dbg.value(metadata ptr undef, metadata !4173, metadata !DIExpression()), !dbg !4199
  call void @llvm.dbg.value(metadata i16 %iter.sroa.89.019, metadata !4154, metadata !DIExpression()), !dbg !4200
  %5 = icmp eq i16 %iter.sroa.89.019, 0, !dbg !4146
  br i1 %5, label %bb5.i.i.i, label %bb7, !dbg !4146

bb1.bb3_crit_edge.i.i.i:                          ; preds = %bb5.i.i.i
  %self6.i.i.i = xor i16 %8, -1, !dbg !4201, !unsafe_inst !4136
  call void @llvm.dbg.value(metadata i16 %self6.i.i.i, metadata !4154, metadata !DIExpression()), !dbg !4200
  tail call void @llvm.dbg.value(metadata ptr %_17.i.i.i, metadata !3785, metadata !DIExpression(DW_OP_LLVM_fragment, 64, 64)), !dbg !4050
  tail call void @llvm.dbg.value(metadata ptr %9, metadata !3785, metadata !DIExpression(DW_OP_LLVM_fragment, 0, 64)), !dbg !4050
  br label %bb7, !dbg !4146

bb5.i.i.i:                                        ; preds = %bb2.i.i, %bb5.i.i.i
  %_1721.i.i.i = phi ptr [ %_17.i.i.i, %bb5.i.i.i ], [ %iter.sroa.6.021, %bb2.i.i ], !dbg !4212
  %self.val1819.i.i.i = phi ptr [ %9, %bb5.i.i.i ], [ %iter.sroa.0.022, %bb2.i.i ]
  call void @llvm.dbg.value(metadata ptr %_1721.i.i.i, metadata !4213, metadata !DIExpression()), !dbg !4224
  call void @llvm.dbg.value(metadata ptr %_1721.i.i.i, metadata !3974, metadata !DIExpression()), !dbg !4226
  %6 = load <16 x i8>, ptr %_1721.i.i.i, align 16, !dbg !4228, !noalias !4229
  call void @llvm.dbg.value(metadata <2 x i64> poison, metadata !4238, metadata !DIExpression()), !dbg !4242
  call void @llvm.dbg.value(metadata ptr undef, metadata !4210, metadata !DIExpression()), !dbg !4244
  call void @llvm.dbg.value(metadata <2 x i64> poison, metadata !4003, metadata !DIExpression()), !dbg !4245
  call void @llvm.dbg.value(metadata <16 x i8> zeroinitializer, metadata !4008, metadata !DIExpression()), !dbg !4247
  %7 = icmp slt <16 x i8> %6, zeroinitializer, !dbg !4248
  call void @llvm.dbg.value(metadata <16 x i8> poison, metadata !4030, metadata !DIExpression()), !dbg !4249
  %8 = bitcast <16 x i1> %7 to i16, !dbg !4250
  call void @llvm.dbg.value(metadata i16 %8, metadata !4205, metadata !DIExpression()), !dbg !4251
  call void @llvm.dbg.value(metadata ptr undef, metadata !4252, metadata !DIExpression()), !dbg !4263
  call void @llvm.dbg.value(metadata i64 16, metadata !4259, metadata !DIExpression()), !dbg !4263
  call void @llvm.dbg.value(metadata i64 16, metadata !4265, metadata !DIExpression()), !dbg !4272
  call void @llvm.dbg.value(metadata ptr %self.val1819.i.i.i, metadata !4271, metadata !DIExpression()), !dbg !4272
  call void @llvm.dbg.value(metadata ptr %self.val1819.i.i.i, metadata !4274, metadata !DIExpression()), !dbg !4281
  call void @llvm.dbg.value(metadata i64 16, metadata !4283, metadata !DIExpression()), !dbg !4291
  call void @llvm.dbg.value(metadata i64 -16, metadata !4280, metadata !DIExpression()), !dbg !4281
  %9 = getelementptr inbounds { i32, [3 x i32], %"signal_hook_registry::SigId" }, ptr %self.val1819.i.i.i, i64 -16, !dbg !4293, !unsafe_inst !4136
  call void @llvm.dbg.value(metadata ptr %_1721.i.i.i, metadata !4195, metadata !DIExpression()), !dbg !4196
  %_17.i.i.i = getelementptr inbounds i8, ptr %_1721.i.i.i, i64 16, !dbg !4294, !unsafe_inst !4136
  call void @llvm.dbg.value(metadata ptr undef, metadata !4173, metadata !DIExpression()), !dbg !4199
  call void @llvm.dbg.value(metadata i16 %8, metadata !4154, metadata !DIExpression(DW_OP_constu, 18446744073709551615, DW_OP_xor, DW_OP_stack_value)), !dbg !4200
  %10 = icmp eq i16 %8, -1, !dbg !4146
  br i1 %10, label %bb5.i.i.i, label %bb1.bb3_crit_edge.i.i.i, !dbg !4146

bb6:                                              ; preds = %bb7, %start
  ret void, !dbg !4295

bb7:                                              ; preds = %bb2.i.i, %bb1.bb3_crit_edge.i.i.i
  %iter.sroa.6.1 = phi ptr [ %_17.i.i.i, %bb1.bb3_crit_edge.i.i.i ], [ %iter.sroa.6.021, %bb2.i.i ], !dbg !4296
  %iter.sroa.0.1 = phi ptr [ %9, %bb1.bb3_crit_edge.i.i.i ], [ %iter.sroa.0.022, %bb2.i.i ], !dbg !4296
  %self3.i.lcssa.i.i.i = phi i16 [ %self6.i.i.i, %bb1.bb3_crit_edge.i.i.i ], [ %iter.sroa.89.019, %bb2.i.i ], !dbg !4297
  call void @llvm.dbg.value(metadata i16 %self3.i.lcssa.i.i.i, metadata !4155, metadata !DIExpression()), !dbg !4298
  call void @llvm.dbg.value(metadata i16 %self3.i.lcssa.i.i.i, metadata !4299, metadata !DIExpression()), !dbg !4308
  call void @llvm.dbg.value(metadata i16 %self3.i.lcssa.i.i.i, metadata !4310, metadata !DIExpression()), !dbg !4318
  call void @llvm.dbg.value(metadata i16 poison, metadata !4174, metadata !DIExpression(DW_OP_LLVM_convert, 16, DW_ATE_unsigned, DW_OP_LLVM_convert, 64, DW_ATE_unsigned, DW_OP_stack_value)), !dbg !4320
  call void @llvm.dbg.value(metadata i16 %self3.i.lcssa.i.i.i, metadata !4321, metadata !DIExpression()), !dbg !4326
  call void @llvm.dbg.value(metadata i16 poison, metadata !4189, metadata !DIExpression(DW_OP_LLVM_convert, 16, DW_ATE_unsigned, DW_OP_LLVM_convert, 64, DW_ATE_unsigned, DW_OP_stack_value)), !dbg !4328
  call void @llvm.dbg.value(metadata ptr undef, metadata !4252, metadata !DIExpression()), !dbg !4329
  call void @llvm.dbg.value(metadata i16 poison, metadata !4259, metadata !DIExpression(DW_OP_LLVM_convert, 16, DW_ATE_unsigned, DW_OP_LLVM_convert, 64, DW_ATE_unsigned, DW_OP_stack_value)), !dbg !4329
  call void @llvm.dbg.value(metadata i16 poison, metadata !4265, metadata !DIExpression(DW_OP_LLVM_convert, 16, DW_ATE_unsigned, DW_OP_LLVM_convert, 64, DW_ATE_unsigned, DW_OP_stack_value)), !dbg !4331
  call void @llvm.dbg.value(metadata ptr %iter.sroa.0.1, metadata !4271, metadata !DIExpression()), !dbg !4331
  call void @llvm.dbg.value(metadata ptr %iter.sroa.0.1, metadata !4274, metadata !DIExpression()), !dbg !4333
  call void @llvm.dbg.value(metadata i16 poison, metadata !4283, metadata !DIExpression(DW_OP_LLVM_convert, 16, DW_ATE_unsigned, DW_OP_LLVM_convert, 64, DW_ATE_unsigned, DW_OP_stack_value)), !dbg !4335
  call void @llvm.dbg.value(metadata !DIArgList(i64 poison, i16 poison), metadata !4280, metadata !DIExpression(DW_OP_LLVM_arg, 0, DW_OP_LLVM_arg, 1, DW_OP_LLVM_convert, 16, DW_ATE_unsigned, DW_OP_LLVM_convert, 64, DW_ATE_unsigned, DW_OP_minus, DW_OP_stack_value)), !dbg !4333
  call void @llvm.dbg.value(metadata !DIArgList(ptr poison, i64 poison, i16 poison), metadata !4129, metadata !DIExpression(DW_OP_LLVM_arg, 0, DW_OP_LLVM_arg, 1, DW_OP_LLVM_arg, 2, DW_OP_LLVM_convert, 16, DW_ATE_unsigned, DW_OP_LLVM_convert, 64, DW_ATE_unsigned, DW_OP_minus, DW_OP_constu, 48, DW_OP_mul, DW_OP_plus, DW_OP_stack_value)), !dbg !4337
  tail call void @llvm.dbg.value(metadata ptr %iter.sroa.0.1, metadata !3785, metadata !DIExpression(DW_OP_LLVM_fragment, 0, 64)), !dbg !4050
  tail call void @llvm.dbg.value(metadata ptr %iter.sroa.6.1, metadata !3785, metadata !DIExpression(DW_OP_LLVM_fragment, 64, 64)), !dbg !4050
  tail call void @llvm.dbg.value(metadata i64 %iter.sroa.1010.020, metadata !3785, metadata !DIExpression(DW_OP_constu, 1, DW_OP_minus, DW_OP_stack_value, DW_OP_LLVM_fragment, 256, 64)), !dbg !4050
  tail call void @llvm.dbg.value(metadata !DIArgList(i16 %self3.i.lcssa.i.i.i, i16 %self3.i.lcssa.i.i.i), metadata !3785, metadata !DIExpression(DW_OP_LLVM_arg, 0, DW_OP_constu, 1, DW_OP_minus, DW_OP_LLVM_arg, 1, DW_OP_and, DW_OP_stack_value, DW_OP_LLVM_fragment, 192, 16)), !dbg !4050
  %11 = tail call i16 @llvm.cttz.i16(i16 %self3.i.lcssa.i.i.i, i1 true), !dbg !4338, !range !4339
  call void @llvm.dbg.value(metadata i16 %11, metadata !4174, metadata !DIExpression(DW_OP_LLVM_convert, 16, DW_ATE_unsigned, DW_OP_LLVM_convert, 64, DW_ATE_unsigned, DW_OP_stack_value)), !dbg !4320
  call void @llvm.dbg.value(metadata i16 %11, metadata !4189, metadata !DIExpression(DW_OP_LLVM_convert, 16, DW_ATE_unsigned, DW_OP_LLVM_convert, 64, DW_ATE_unsigned, DW_OP_stack_value)), !dbg !4328
  call void @llvm.dbg.value(metadata i16 %11, metadata !4259, metadata !DIExpression(DW_OP_LLVM_convert, 16, DW_ATE_unsigned, DW_OP_LLVM_convert, 64, DW_ATE_unsigned, DW_OP_stack_value)), !dbg !4329
  call void @llvm.dbg.value(metadata i16 %11, metadata !4265, metadata !DIExpression(DW_OP_LLVM_convert, 16, DW_ATE_unsigned, DW_OP_LLVM_convert, 64, DW_ATE_unsigned, DW_OP_stack_value)), !dbg !4331
  call void @llvm.dbg.value(metadata i16 %11, metadata !4283, metadata !DIExpression(DW_OP_LLVM_convert, 16, DW_ATE_unsigned, DW_OP_LLVM_convert, 64, DW_ATE_unsigned, DW_OP_stack_value)), !dbg !4335
  call void @llvm.dbg.value(metadata !DIArgList(i64 0, i16 %11), metadata !4280, metadata !DIExpression(DW_OP_LLVM_arg, 0, DW_OP_LLVM_arg, 1, DW_OP_LLVM_convert, 16, DW_ATE_unsigned, DW_OP_LLVM_convert, 64, DW_ATE_unsigned, DW_OP_minus, DW_OP_stack_value)), !dbg !4333
  call void @llvm.dbg.value(metadata !DIArgList(ptr %iter.sroa.0.1, i64 0, i16 %11), metadata !4129, metadata !DIExpression(DW_OP_LLVM_arg, 0, DW_OP_LLVM_arg, 1, DW_OP_LLVM_arg, 2, DW_OP_LLVM_convert, 16, DW_ATE_unsigned, DW_OP_LLVM_convert, 64, DW_ATE_unsigned, DW_OP_minus, DW_OP_constu, 48, DW_OP_mul, DW_OP_plus, DW_OP_stack_value)), !dbg !4337
  %_9.i.i.i.i = zext nneg i16 %11 to i64, !dbg !4340
  call void @llvm.dbg.value(metadata i64 %_9.i.i.i.i, metadata !4174, metadata !DIExpression()), !dbg !4320
  call void @llvm.dbg.value(metadata i64 %_9.i.i.i.i, metadata !4189, metadata !DIExpression()), !dbg !4328
  call void @llvm.dbg.value(metadata i64 %_9.i.i.i.i, metadata !4259, metadata !DIExpression()), !dbg !4329
  call void @llvm.dbg.value(metadata i64 %_9.i.i.i.i, metadata !4265, metadata !DIExpression()), !dbg !4331
  call void @llvm.dbg.value(metadata i64 %_9.i.i.i.i, metadata !4283, metadata !DIExpression()), !dbg !4335
  call void @llvm.dbg.value(metadata !DIArgList(i64 0, i64 %_9.i.i.i.i), metadata !4280, metadata !DIExpression(DW_OP_LLVM_arg, 0, DW_OP_LLVM_arg, 1, DW_OP_minus, DW_OP_stack_value)), !dbg !4333
  call void @llvm.dbg.value(metadata !DIArgList(ptr %iter.sroa.0.1, i64 0, i64 %_9.i.i.i.i), metadata !4129, metadata !DIExpression(DW_OP_LLVM_arg, 0, DW_OP_LLVM_arg, 1, DW_OP_LLVM_arg, 2, DW_OP_minus, DW_OP_constu, 48, DW_OP_mul, DW_OP_plus, DW_OP_stack_value)), !dbg !4337
  %count.i.i.i.i = sub nsw i64 0, %_9.i.i.i.i, !dbg !4341, !unsafe_inst !4136
  call void @llvm.dbg.value(metadata i64 %count.i.i.i.i, metadata !4280, metadata !DIExpression()), !dbg !4333
  call void @llvm.dbg.value(metadata !DIArgList(ptr %iter.sroa.0.1, i64 %count.i.i.i.i), metadata !4129, metadata !DIExpression(DW_OP_LLVM_arg, 0, DW_OP_LLVM_arg, 1, DW_OP_constu, 48, DW_OP_mul, DW_OP_plus, DW_OP_stack_value)), !dbg !4337
  %12 = getelementptr inbounds { i32, [3 x i32], %"signal_hook_registry::SigId" }, ptr %iter.sroa.0.1, i64 %count.i.i.i.i, !dbg !4342, !unsafe_inst !4136
  call void @llvm.dbg.value(metadata ptr %12, metadata !4129, metadata !DIExpression()), !dbg !4337
  %_10.i = getelementptr { i32, [3 x i32], %"signal_hook_registry::SigId" }, ptr %12, i64 -1, i32 2, !dbg !4343
  %13 = add i64 %iter.sroa.1010.020, -1, !dbg !4344
  tail call void @llvm.dbg.value(metadata i64 %13, metadata !3785, metadata !DIExpression(DW_OP_LLVM_fragment, 256, 64)), !dbg !4050
  %_19.i.i.i.i = add i16 %self3.i.lcssa.i.i.i, -1, !dbg !4345
  tail call void @llvm.dbg.value(metadata !DIArgList(i16 %_19.i.i.i.i, i16 %self3.i.lcssa.i.i.i), metadata !3785, metadata !DIExpression(DW_OP_LLVM_arg, 0, DW_OP_LLVM_arg, 1, DW_OP_and, DW_OP_stack_value, DW_OP_LLVM_fragment, 192, 16)), !dbg !4050
  %_18.i.i.i.i = and i16 %_19.i.i.i.i, %self3.i.lcssa.i.i.i, !dbg !4346
  tail call void @llvm.dbg.value(metadata i16 %_18.i.i.i.i, metadata !3785, metadata !DIExpression(DW_OP_LLVM_fragment, 192, 16)), !dbg !4050
  %14 = icmp ne ptr %_10.i, null
  tail call void @llvm.assume(i1 %14)
  tail call void @llvm.dbg.value(metadata ptr %_10.i, metadata !3831, metadata !DIExpression()), !dbg !4347
  %_9.0 = load i128, ptr %_10.i, align 16, !dbg !4348, !noundef !12
  %15 = getelementptr { i32, [3 x i32], %"signal_hook_registry::SigId" }, ptr %12, i64 -1, i32 2, i32 1, !dbg !4348
  %_9.1 = load i32, ptr %15, align 16, !dbg !4348, !noundef !12
; call signal_hook_registry::unregister
  %_8 = tail call noundef zeroext i1 @_ZN20signal_hook_registry10unregister17h27875dba25692e33E(i128 noundef %_9.0, i32 noundef %_9.1), !dbg !4349
  tail call void @llvm.dbg.value(metadata ptr %iter.sroa.0.1, metadata !3785, metadata !DIExpression(DW_OP_LLVM_fragment, 0, 64)), !dbg !4050
  tail call void @llvm.dbg.value(metadata ptr %iter.sroa.6.1, metadata !3785, metadata !DIExpression(DW_OP_LLVM_fragment, 64, 64)), !dbg !4050
  tail call void @llvm.dbg.value(metadata i64 %13, metadata !3785, metadata !DIExpression(DW_OP_LLVM_fragment, 256, 64)), !dbg !4050
  tail call void @llvm.dbg.value(metadata i16 %_18.i.i.i.i, metadata !3785, metadata !DIExpression(DW_OP_LLVM_fragment, 192, 16)), !dbg !4050
  tail call void @llvm.dbg.value(metadata ptr undef, metadata !4051, metadata !DIExpression()), !dbg !4072
  tail call void @llvm.dbg.value(metadata ptr undef, metadata !4074, metadata !DIExpression()), !dbg !4093
  call void @llvm.dbg.value(metadata ptr undef, metadata !4095, metadata !DIExpression()), !dbg !4107
  call void @llvm.dbg.value(metadata ptr undef, metadata !4109, metadata !DIExpression()), !dbg !4131
  %16 = icmp eq i64 %13, 0, !dbg !4133
  br i1 %16, label %bb6, label %bb2.i.i, !dbg !4133
}

; <async_signal::Signals as core::fmt::Debug>::fmt
; Function Attrs: nonlazybind uwtable
define noundef zeroext i1 @"_ZN58_$LT$async_signal..Signals$u20$as$u20$core..fmt..Debug$GT$3fmt17h7bb0950b4296a71bE"(ptr noalias noundef readonly align 8 dereferenceable(72) %self, ptr noalias noundef align 8 dereferenceable(64) %f) unnamed_addr #1 !dbg !4350 {
start:
  %_14 = alloca [8 x i8], align 8
  %_6 = alloca [16 x i8], align 8
  tail call void @llvm.dbg.value(metadata ptr %self, metadata !4355, metadata !DIExpression()), !dbg !4357
  tail call void @llvm.dbg.value(metadata ptr %f, metadata !4356, metadata !DIExpression()), !dbg !4357
  call void @llvm.lifetime.start.p0(i64 16, ptr nonnull %_6), !dbg !4358
; call core::fmt::Formatter::debug_struct
  call void @_ZN4core3fmt9Formatter12debug_struct17hfe55f8660bb7c366E(ptr noalias nocapture noundef nonnull sret([16 x i8]) align 8 dereferenceable(16) %_6, ptr noalias noundef nonnull align 8 dereferenceable(64) %f, ptr noalias noundef nonnull readonly align 1 @alloc_d0ba07bd560740c98258b85e04b0bc90, i64 noundef 7), !dbg !4358
; call core::fmt::builders::DebugStruct::field
  %_4 = call noundef align 8 dereferenceable(16) ptr @_ZN4core3fmt8builders11DebugStruct5field17ha9e91e16904b9623E(ptr noalias noundef nonnull align 8 dereferenceable(16) %_6, ptr noalias noundef nonnull readonly align 1 @alloc_cd601671f88ccc08a48d5dc725e43406, i64 noundef 8, ptr noundef nonnull align 1 %self, ptr noalias noundef nonnull readonly align 8 dereferenceable(32) @vtable.i), !dbg !4358
  call void @llvm.lifetime.start.p0(i64 8, ptr nonnull %_14), !dbg !4359
  %_15 = getelementptr inbounds i8, ptr %self, i64 24, !dbg !4360
  store ptr %_15, ptr %_14, align 8, !dbg !4359
; call core::fmt::builders::DebugStruct::field
  %_3 = call noundef align 8 dereferenceable(16) ptr @_ZN4core3fmt8builders11DebugStruct5field17ha9e91e16904b9623E(ptr noalias noundef nonnull align 8 dereferenceable(16) %_4, ptr noalias noundef nonnull readonly align 1 @alloc_1f5671f7711c3c941c416a946d72f6b1, i64 noundef 10, ptr noundef nonnull align 1 %_14, ptr noalias noundef nonnull readonly align 8 dereferenceable(32) @vtable.j), !dbg !4358
; call core::fmt::builders::DebugStruct::finish
  %_0 = call noundef zeroext i1 @_ZN4core3fmt8builders11DebugStruct6finish17hfe9f97b163d30fe5E(ptr noalias noundef nonnull align 8 dereferenceable(16) %_3), !dbg !4358
  call void @llvm.lifetime.end.p0(i64 8, ptr nonnull %_14), !dbg !4361
  call void @llvm.lifetime.end.p0(i64 16, ptr nonnull %_6), !dbg !4361
  ret i1 %_0, !dbg !4362
}

; <<async_signal::Signals as core::fmt::Debug>::fmt::RegisteredSignals as core::fmt::Debug>::fmt
; Function Attrs: nonlazybind uwtable
define noundef zeroext i1 @"_ZN118_$LT$$LT$async_signal..Signals$u20$as$u20$core..fmt..Debug$GT$..fmt..RegisteredSignals$u20$as$u20$core..fmt..Debug$GT$3fmt17h6d1bfb92659cc381E"(ptr noalias nocapture noundef readonly align 8 dereferenceable(8) %self, ptr noalias noundef align 8 dereferenceable(64) %f) unnamed_addr #1 personality ptr @rust_eh_personality !dbg !4363 {
start:
  %entry.i = alloca [8 x i8], align 8
  %_5 = alloca [16 x i8], align 8
  tail call void @llvm.dbg.value(metadata ptr %self, metadata !4369, metadata !DIExpression()), !dbg !4371
  tail call void @llvm.dbg.value(metadata ptr %f, metadata !4370, metadata !DIExpression()), !dbg !4371
  call void @llvm.lifetime.start.p0(i64 16, ptr nonnull %_5), !dbg !4372
; call core::fmt::Formatter::debug_set
  call void @_ZN4core3fmt9Formatter9debug_set17hd02dba5da7649839E(ptr noalias nocapture noundef nonnull sret([16 x i8]) align 8 dereferenceable(16) %_5, ptr noalias noundef nonnull align 8 dereferenceable(64) %f), !dbg !4372
  %self1 = load ptr, ptr %self, align 8, !dbg !4373, !nonnull !12, !align !869, !noundef !12
  tail call void @llvm.dbg.value(metadata ptr %self1, metadata !4374, metadata !DIExpression()), !dbg !4384
  tail call void @llvm.dbg.value(metadata ptr %self1, metadata !4386, metadata !DIExpression()), !dbg !4390
  tail call void @llvm.experimental.noalias.scope.decl(metadata !4392), !dbg !4395
  tail call void @llvm.dbg.value(metadata ptr %self1, metadata !3857, metadata !DIExpression()), !dbg !4396
  tail call void @llvm.dbg.value(metadata ptr %self1, metadata !3867, metadata !DIExpression()), !dbg !4398
  tail call void @llvm.dbg.value(metadata ptr %self1, metadata !3878, metadata !DIExpression()), !dbg !4400
  tail call void @llvm.dbg.value(metadata ptr %self1, metadata !3890, metadata !DIExpression()), !dbg !4402
  tail call void @llvm.dbg.value(metadata ptr poison, metadata !3886, metadata !DIExpression()), !dbg !4404
  tail call void @llvm.dbg.value(metadata i64 16, metadata !3900, metadata !DIExpression()), !dbg !4405
  tail call void @llvm.dbg.value(metadata ptr poison, metadata !3922, metadata !DIExpression()), !dbg !4408
  tail call void @llvm.dbg.value(metadata ptr poison, metadata !3945, metadata !DIExpression()), !dbg !4409
  tail call void @llvm.dbg.value(metadata ptr poison, metadata !3912, metadata !DIExpression()), !dbg !4405
  tail call void @llvm.dbg.value(metadata ptr poison, metadata !3923, metadata !DIExpression()), !dbg !4408
  tail call void @llvm.dbg.value(metadata i64 poison, metadata !3924, metadata !DIExpression(DW_OP_plus_uconst, 1, DW_OP_stack_value)), !dbg !4408
  tail call void @llvm.dbg.value(metadata !DIArgList(ptr poison, i64 poison), metadata !3939, metadata !DIExpression(DW_OP_LLVM_arg, 0, DW_OP_LLVM_arg, 1, DW_OP_constu, 1, DW_OP_mul, DW_OP_plus, DW_OP_plus_uconst, 1, DW_OP_stack_value)), !dbg !4411
  tail call void @llvm.dbg.value(metadata ptr poison, metadata !3974, metadata !DIExpression()), !dbg !4412
  tail call void @llvm.dbg.value(metadata <2 x i64> poison, metadata !3984, metadata !DIExpression()), !dbg !4414
  tail call void @llvm.dbg.value(metadata ptr undef, metadata !4000, metadata !DIExpression()), !dbg !4417
  tail call void @llvm.dbg.value(metadata <2 x i64> poison, metadata !4003, metadata !DIExpression()), !dbg !4418
  tail call void @llvm.dbg.value(metadata <16 x i8> zeroinitializer, metadata !4008, metadata !DIExpression()), !dbg !4420
  tail call void @llvm.dbg.value(metadata <16 x i8> poison, metadata !4030, metadata !DIExpression()), !dbg !4421
  tail call void @llvm.dbg.value(metadata !DIArgList(<16 x i8> poison, <16 x i8> poison), metadata !4036, metadata !DIExpression(DW_OP_LLVM_arg, 0, DW_OP_LLVM_arg, 1, DW_OP_lt, DW_OP_stack_value)), !dbg !4422
  tail call void @llvm.dbg.value(metadata !DIArgList(<16 x i8> poison, <16 x i8> poison), metadata !3940, metadata !DIExpression(DW_OP_LLVM_arg, 0, DW_OP_LLVM_arg, 1, DW_OP_lt, DW_OP_constu, 18446744073709551615, DW_OP_xor, DW_OP_stack_value)), !dbg !4424
  %0 = getelementptr inbounds i8, ptr %self1, i64 24, !dbg !4425
  %_9.i = load i64, ptr %0, align 8, !dbg !4425, !alias.scope !4392, !noalias !4426, !noundef !12
  tail call void @llvm.dbg.value(metadata ptr poison, metadata !4428, metadata !DIExpression(DW_OP_LLVM_fragment, 0, 64)), !dbg !4446
  tail call void @llvm.dbg.value(metadata ptr poison, metadata !4428, metadata !DIExpression(DW_OP_plus_uconst, 16, DW_OP_stack_value, DW_OP_LLVM_fragment, 64, 64)), !dbg !4446
  tail call void @llvm.dbg.value(metadata !DIArgList(ptr poison, i64 poison), metadata !4428, metadata !DIExpression(DW_OP_LLVM_arg, 0, DW_OP_LLVM_arg, 1, DW_OP_constu, 1, DW_OP_mul, DW_OP_plus, DW_OP_plus_uconst, 1, DW_OP_stack_value, DW_OP_LLVM_fragment, 128, 64)), !dbg !4446
  tail call void @llvm.dbg.value(metadata !DIArgList(<16 x i8> poison, <16 x i8> poison), metadata !4428, metadata !DIExpression(DW_OP_LLVM_arg, 0, DW_OP_LLVM_arg, 1, DW_OP_lt, DW_OP_constu, 18446744073709551615, DW_OP_xor, DW_OP_stack_value, DW_OP_LLVM_fragment, 192, 16)), !dbg !4446
  tail call void @llvm.dbg.value(metadata i64 %_9.i, metadata !4428, metadata !DIExpression(DW_OP_LLVM_fragment, 256, 64)), !dbg !4446
  call void @llvm.dbg.value(metadata ptr %_5, metadata !4441, metadata !DIExpression()), !dbg !4446
  call void @llvm.dbg.declare(metadata ptr %entry.i, metadata !4444, metadata !DIExpression()), !dbg !4448
  call void @llvm.dbg.value(metadata ptr poison, metadata !4442, metadata !DIExpression(DW_OP_LLVM_fragment, 0, 64)), !dbg !4449
  call void @llvm.dbg.value(metadata ptr poison, metadata !4442, metadata !DIExpression(DW_OP_plus_uconst, 16, DW_OP_stack_value, DW_OP_LLVM_fragment, 64, 64)), !dbg !4449
  call void @llvm.dbg.value(metadata i64 poison, metadata !4442, metadata !DIExpression(DW_OP_LLVM_fragment, 128, 64)), !dbg !4449
  call void @llvm.dbg.value(metadata !DIArgList(<16 x i8> poison, <16 x i8> poison), metadata !4442, metadata !DIExpression(DW_OP_LLVM_arg, 0, DW_OP_LLVM_arg, 1, DW_OP_lt, DW_OP_constu, 18446744073709551615, DW_OP_xor, DW_OP_stack_value, DW_OP_LLVM_fragment, 192, 16)), !dbg !4449
  call void @llvm.dbg.value(metadata i64 %_9.i, metadata !4442, metadata !DIExpression(DW_OP_LLVM_fragment, 256, 64)), !dbg !4449
  call void @llvm.dbg.value(metadata ptr undef, metadata !4450, metadata !DIExpression()), !dbg !4470
  call void @llvm.dbg.value(metadata ptr undef, metadata !4472, metadata !DIExpression()), !dbg !4476
  call void @llvm.dbg.value(metadata ptr undef, metadata !4095, metadata !DIExpression()), !dbg !4478
  call void @llvm.dbg.value(metadata ptr undef, metadata !4109, metadata !DIExpression()), !dbg !4480
  %1 = icmp eq i64 %_9.i, 0, !dbg !4482
  br i1 %1, label %_ZN4core3fmt8builders8DebugSet7entries17h2bca12af5ad2ec8fE.exit, label %bb2.i.i.i.i.preheader, !dbg !4482

bb2.i.i.i.i.preheader:                            ; preds = %start
  %self3.i = load ptr, ptr %self1, align 8, !dbg !4483, !alias.scope !4392, !noalias !4426, !nonnull !12, !noundef !12
  tail call void @llvm.dbg.value(metadata ptr %self3.i, metadata !3886, metadata !DIExpression()), !dbg !4404
  tail call void @llvm.dbg.value(metadata ptr %self3.i, metadata !3922, metadata !DIExpression()), !dbg !4408
  tail call void @llvm.dbg.value(metadata ptr %self3.i, metadata !3945, metadata !DIExpression()), !dbg !4409
  tail call void @llvm.dbg.value(metadata ptr %self3.i, metadata !3912, metadata !DIExpression()), !dbg !4405
  tail call void @llvm.dbg.value(metadata ptr %self3.i, metadata !3923, metadata !DIExpression()), !dbg !4408
  tail call void @llvm.dbg.value(metadata ptr %self3.i, metadata !3974, metadata !DIExpression()), !dbg !4412
  tail call void @llvm.dbg.value(metadata ptr %self3.i, metadata !4428, metadata !DIExpression(DW_OP_LLVM_fragment, 0, 64)), !dbg !4446
  tail call void @llvm.dbg.value(metadata ptr %self3.i, metadata !4428, metadata !DIExpression(DW_OP_plus_uconst, 16, DW_OP_stack_value, DW_OP_LLVM_fragment, 64, 64)), !dbg !4446
  call void @llvm.dbg.value(metadata ptr %self3.i, metadata !4442, metadata !DIExpression(DW_OP_LLVM_fragment, 0, 64)), !dbg !4449
  call void @llvm.dbg.value(metadata ptr %self3.i, metadata !4442, metadata !DIExpression(DW_OP_plus_uconst, 16, DW_OP_stack_value, DW_OP_LLVM_fragment, 64, 64)), !dbg !4449
  %next_ctrl.i.i = getelementptr inbounds i8, ptr %self3.i, i64 16, !dbg !4484, !unsafe_inst !4136
  tail call void @llvm.dbg.value(metadata ptr %next_ctrl.i.i, metadata !4428, metadata !DIExpression(DW_OP_LLVM_fragment, 64, 64)), !dbg !4446
  call void @llvm.dbg.value(metadata ptr %next_ctrl.i.i, metadata !4442, metadata !DIExpression(DW_OP_LLVM_fragment, 64, 64)), !dbg !4449
  %2 = load <16 x i8>, ptr %self3.i, align 16, !dbg !4485, !noalias !4486
  tail call void @llvm.dbg.value(metadata !DIArgList(<16 x i8> %2, <16 x i8> zeroinitializer), metadata !4036, metadata !DIExpression(DW_OP_LLVM_arg, 0, DW_OP_LLVM_arg, 1, DW_OP_lt, DW_OP_stack_value)), !dbg !4422
  tail call void @llvm.dbg.value(metadata !DIArgList(<16 x i8> %2, <16 x i8> zeroinitializer), metadata !3940, metadata !DIExpression(DW_OP_LLVM_arg, 0, DW_OP_LLVM_arg, 1, DW_OP_lt, DW_OP_constu, 18446744073709551615, DW_OP_xor, DW_OP_stack_value)), !dbg !4424
  tail call void @llvm.dbg.value(metadata !DIArgList(<16 x i8> %2, <16 x i8> zeroinitializer), metadata !4428, metadata !DIExpression(DW_OP_LLVM_arg, 0, DW_OP_LLVM_arg, 1, DW_OP_lt, DW_OP_constu, 18446744073709551615, DW_OP_xor, DW_OP_stack_value, DW_OP_LLVM_fragment, 192, 16)), !dbg !4446
  call void @llvm.dbg.value(metadata !DIArgList(<16 x i8> %2, <16 x i8> zeroinitializer), metadata !4442, metadata !DIExpression(DW_OP_LLVM_arg, 0, DW_OP_LLVM_arg, 1, DW_OP_lt, DW_OP_constu, 18446744073709551615, DW_OP_xor, DW_OP_stack_value, DW_OP_LLVM_fragment, 192, 16)), !dbg !4449
  %3 = icmp slt <16 x i8> %2, zeroinitializer, !dbg !4491
  tail call void @llvm.dbg.value(metadata <16 x i1> %3, metadata !4036, metadata !DIExpression()), !dbg !4422
  tail call void @llvm.dbg.value(metadata <16 x i1> %3, metadata !3940, metadata !DIExpression(DW_OP_constu, 18446744073709551615, DW_OP_xor, DW_OP_stack_value)), !dbg !4424
  tail call void @llvm.dbg.value(metadata <16 x i1> %3, metadata !4428, metadata !DIExpression(DW_OP_constu, 18446744073709551615, DW_OP_xor, DW_OP_stack_value, DW_OP_LLVM_fragment, 192, 16)), !dbg !4446
  call void @llvm.dbg.value(metadata <16 x i1> %3, metadata !4442, metadata !DIExpression(DW_OP_constu, 18446744073709551615, DW_OP_xor, DW_OP_stack_value, DW_OP_LLVM_fragment, 192, 16)), !dbg !4449
  %4 = bitcast <16 x i1> %3 to i16, !dbg !4492
  tail call void @llvm.dbg.value(metadata i16 %4, metadata !4036, metadata !DIExpression()), !dbg !4422
  tail call void @llvm.dbg.value(metadata i16 %4, metadata !3940, metadata !DIExpression(DW_OP_constu, 18446744073709551615, DW_OP_xor, DW_OP_stack_value)), !dbg !4424
  tail call void @llvm.dbg.value(metadata i16 %4, metadata !4428, metadata !DIExpression(DW_OP_constu, 18446744073709551615, DW_OP_xor, DW_OP_stack_value, DW_OP_LLVM_fragment, 192, 16)), !dbg !4446
  call void @llvm.dbg.value(metadata i16 %4, metadata !4442, metadata !DIExpression(DW_OP_constu, 18446744073709551615, DW_OP_xor, DW_OP_stack_value, DW_OP_LLVM_fragment, 192, 16)), !dbg !4449
  %current_group.i.i = xor i16 %4, -1, !dbg !4493, !unsafe_inst !4136
  tail call void @llvm.dbg.value(metadata i16 %current_group.i.i, metadata !3940, metadata !DIExpression()), !dbg !4424
  tail call void @llvm.dbg.value(metadata i16 %current_group.i.i, metadata !4428, metadata !DIExpression(DW_OP_LLVM_fragment, 192, 16)), !dbg !4446
  call void @llvm.dbg.value(metadata i16 %current_group.i.i, metadata !4442, metadata !DIExpression(DW_OP_LLVM_fragment, 192, 16)), !dbg !4449
  br label %bb2.i.i.i.i, !dbg !4494

bb2.i.i.i.i:                                      ; preds = %bb2.i.i.i.i.preheader, %bb5.i
  %iter.sroa.0.0.i10 = phi ptr [ %iter.sroa.0.1.i, %bb5.i ], [ %self3.i, %bb2.i.i.i.i.preheader ]
  %iter.sroa.6.0.i9 = phi ptr [ %iter.sroa.6.1.i, %bb5.i ], [ %next_ctrl.i.i, %bb2.i.i.i.i.preheader ]
  %iter.sroa.105.0.i8 = phi i64 [ %15, %bb5.i ], [ %_9.i, %bb2.i.i.i.i.preheader ]
  %iter.sroa.84.0.i7 = phi i16 [ %_18.i.i.i.i.i.i, %bb5.i ], [ %current_group.i.i, %bb2.i.i.i.i.preheader ]
  call void @llvm.dbg.value(metadata ptr %iter.sroa.0.0.i10, metadata !4442, metadata !DIExpression(DW_OP_LLVM_fragment, 0, 64)), !dbg !4449
  call void @llvm.dbg.value(metadata ptr %iter.sroa.6.0.i9, metadata !4442, metadata !DIExpression(DW_OP_LLVM_fragment, 64, 64)), !dbg !4449
  call void @llvm.dbg.value(metadata i64 %iter.sroa.105.0.i8, metadata !4442, metadata !DIExpression(DW_OP_LLVM_fragment, 256, 64)), !dbg !4449
  call void @llvm.dbg.value(metadata i16 %iter.sroa.84.0.i7, metadata !4442, metadata !DIExpression(DW_OP_LLVM_fragment, 192, 16)), !dbg !4449
  call void @llvm.dbg.value(metadata i64 16, metadata !4191, metadata !DIExpression()), !dbg !4498
  call void @llvm.dbg.value(metadata ptr undef, metadata !4188, metadata !DIExpression()), !dbg !4500
  call void @llvm.dbg.value(metadata ptr undef, metadata !4173, metadata !DIExpression()), !dbg !4501
  call void @llvm.dbg.value(metadata i16 %iter.sroa.84.0.i7, metadata !4154, metadata !DIExpression()), !dbg !4502
  %5 = icmp eq i16 %iter.sroa.84.0.i7, 0, !dbg !4494
  br i1 %5, label %bb5.i.i.i.i.i, label %"_ZN105_$LT$std..collections..hash..map..Keys$LT$K$C$V$GT$$u20$as$u20$core..iter..traits..iterator..Iterator$GT$4next17h4a0af1006b27b4f2E.exit.i", !dbg !4494

bb1.bb3_crit_edge.i.i.i.i.i:                      ; preds = %bb5.i.i.i.i.i
  %self6.i.i.i.i.i = xor i16 %8, -1, !dbg !4503, !unsafe_inst !4136
  call void @llvm.dbg.value(metadata i16 %self6.i.i.i.i.i, metadata !4154, metadata !DIExpression()), !dbg !4502
  call void @llvm.dbg.value(metadata ptr %_17.i.i.i.i.i, metadata !4442, metadata !DIExpression(DW_OP_LLVM_fragment, 64, 64)), !dbg !4449
  call void @llvm.dbg.value(metadata ptr %9, metadata !4442, metadata !DIExpression(DW_OP_LLVM_fragment, 0, 64)), !dbg !4449
  br label %"_ZN105_$LT$std..collections..hash..map..Keys$LT$K$C$V$GT$$u20$as$u20$core..iter..traits..iterator..Iterator$GT$4next17h4a0af1006b27b4f2E.exit.i", !dbg !4494

bb5.i.i.i.i.i:                                    ; preds = %bb2.i.i.i.i, %bb5.i.i.i.i.i
  %_1721.i.i.i.i.i = phi ptr [ %_17.i.i.i.i.i, %bb5.i.i.i.i.i ], [ %iter.sroa.6.0.i9, %bb2.i.i.i.i ], !dbg !4506
  %self.val1819.i.i.i.i.i = phi ptr [ %9, %bb5.i.i.i.i.i ], [ %iter.sroa.0.0.i10, %bb2.i.i.i.i ]
  call void @llvm.dbg.value(metadata ptr %_1721.i.i.i.i.i, metadata !4213, metadata !DIExpression()), !dbg !4507
  call void @llvm.dbg.value(metadata ptr %_1721.i.i.i.i.i, metadata !3974, metadata !DIExpression()), !dbg !4509
  %6 = load <16 x i8>, ptr %_1721.i.i.i.i.i, align 16, !dbg !4511, !noalias !4512
  call void @llvm.dbg.value(metadata <2 x i64> poison, metadata !4238, metadata !DIExpression()), !dbg !4525
  call void @llvm.dbg.value(metadata ptr undef, metadata !4210, metadata !DIExpression()), !dbg !4527
  call void @llvm.dbg.value(metadata <2 x i64> poison, metadata !4003, metadata !DIExpression()), !dbg !4528
  call void @llvm.dbg.value(metadata <16 x i8> zeroinitializer, metadata !4008, metadata !DIExpression()), !dbg !4530
  %7 = icmp slt <16 x i8> %6, zeroinitializer, !dbg !4531
  call void @llvm.dbg.value(metadata <16 x i8> poison, metadata !4030, metadata !DIExpression()), !dbg !4532
  %8 = bitcast <16 x i1> %7 to i16, !dbg !4533
  call void @llvm.dbg.value(metadata i16 %8, metadata !4205, metadata !DIExpression()), !dbg !4534
  call void @llvm.dbg.value(metadata ptr undef, metadata !4252, metadata !DIExpression()), !dbg !4535
  call void @llvm.dbg.value(metadata i64 16, metadata !4259, metadata !DIExpression()), !dbg !4535
  call void @llvm.dbg.value(metadata i64 16, metadata !4265, metadata !DIExpression()), !dbg !4537
  call void @llvm.dbg.value(metadata ptr %self.val1819.i.i.i.i.i, metadata !4271, metadata !DIExpression()), !dbg !4537
  call void @llvm.dbg.value(metadata ptr %self.val1819.i.i.i.i.i, metadata !4274, metadata !DIExpression()), !dbg !4539
  call void @llvm.dbg.value(metadata i64 16, metadata !4283, metadata !DIExpression()), !dbg !4541
  call void @llvm.dbg.value(metadata i64 -16, metadata !4280, metadata !DIExpression()), !dbg !4539
  %9 = getelementptr inbounds { i32, [3 x i32], %"signal_hook_registry::SigId" }, ptr %self.val1819.i.i.i.i.i, i64 -16, !dbg !4543, !unsafe_inst !4136
  call void @llvm.dbg.value(metadata ptr %_1721.i.i.i.i.i, metadata !4195, metadata !DIExpression()), !dbg !4498
  %_17.i.i.i.i.i = getelementptr inbounds i8, ptr %_1721.i.i.i.i.i, i64 16, !dbg !4544, !unsafe_inst !4136
  call void @llvm.dbg.value(metadata ptr undef, metadata !4173, metadata !DIExpression()), !dbg !4501
  call void @llvm.dbg.value(metadata i16 %8, metadata !4154, metadata !DIExpression(DW_OP_constu, 18446744073709551615, DW_OP_xor, DW_OP_stack_value)), !dbg !4502
  %10 = icmp eq i16 %8, -1, !dbg !4494
  br i1 %10, label %bb5.i.i.i.i.i, label %bb1.bb3_crit_edge.i.i.i.i.i, !dbg !4494

"_ZN105_$LT$std..collections..hash..map..Keys$LT$K$C$V$GT$$u20$as$u20$core..iter..traits..iterator..Iterator$GT$4next17h4a0af1006b27b4f2E.exit.i": ; preds = %bb1.bb3_crit_edge.i.i.i.i.i, %bb2.i.i.i.i
  %iter.sroa.6.1.i = phi ptr [ %_17.i.i.i.i.i, %bb1.bb3_crit_edge.i.i.i.i.i ], [ %iter.sroa.6.0.i9, %bb2.i.i.i.i ], !dbg !4545
  %iter.sroa.0.1.i = phi ptr [ %9, %bb1.bb3_crit_edge.i.i.i.i.i ], [ %iter.sroa.0.0.i10, %bb2.i.i.i.i ], !dbg !4545
  %self3.i.lcssa.i.i.i.i.i = phi i16 [ %self6.i.i.i.i.i, %bb1.bb3_crit_edge.i.i.i.i.i ], [ %iter.sroa.84.0.i7, %bb2.i.i.i.i ], !dbg !4546
  call void @llvm.dbg.value(metadata ptr %iter.sroa.0.1.i, metadata !4442, metadata !DIExpression(DW_OP_LLVM_fragment, 0, 64)), !dbg !4449
  call void @llvm.dbg.value(metadata ptr %iter.sroa.6.1.i, metadata !4442, metadata !DIExpression(DW_OP_LLVM_fragment, 64, 64)), !dbg !4449
  call void @llvm.dbg.value(metadata i16 %self3.i.lcssa.i.i.i.i.i, metadata !4155, metadata !DIExpression()), !dbg !4547
  call void @llvm.dbg.value(metadata i16 %self3.i.lcssa.i.i.i.i.i, metadata !4299, metadata !DIExpression()), !dbg !4548
  call void @llvm.dbg.value(metadata i16 %self3.i.lcssa.i.i.i.i.i, metadata !4310, metadata !DIExpression()), !dbg !4550
  %11 = call i16 @llvm.cttz.i16(i16 %self3.i.lcssa.i.i.i.i.i, i1 true), !dbg !4552, !range !4339
  %_9.i.i.i.i.i.i = zext nneg i16 %11 to i64, !dbg !4553
  call void @llvm.dbg.value(metadata i64 %_9.i.i.i.i.i.i, metadata !4174, metadata !DIExpression()), !dbg !4554
  call void @llvm.dbg.value(metadata i16 %self3.i.lcssa.i.i.i.i.i, metadata !4321, metadata !DIExpression()), !dbg !4555
  call void @llvm.dbg.value(metadata !DIArgList(i16 %self3.i.lcssa.i.i.i.i.i, i16 %self3.i.lcssa.i.i.i.i.i), metadata !4442, metadata !DIExpression(DW_OP_LLVM_arg, 0, DW_OP_constu, 1, DW_OP_minus, DW_OP_LLVM_arg, 1, DW_OP_and, DW_OP_stack_value, DW_OP_LLVM_fragment, 192, 16)), !dbg !4449
  call void @llvm.dbg.value(metadata i64 %_9.i.i.i.i.i.i, metadata !4189, metadata !DIExpression()), !dbg !4557
  call void @llvm.dbg.value(metadata ptr undef, metadata !4252, metadata !DIExpression()), !dbg !4558
  call void @llvm.dbg.value(metadata i64 %_9.i.i.i.i.i.i, metadata !4259, metadata !DIExpression()), !dbg !4558
  call void @llvm.dbg.value(metadata i64 %_9.i.i.i.i.i.i, metadata !4265, metadata !DIExpression()), !dbg !4560
  call void @llvm.dbg.value(metadata ptr %iter.sroa.0.1.i, metadata !4271, metadata !DIExpression()), !dbg !4560
  call void @llvm.dbg.value(metadata ptr %iter.sroa.0.1.i, metadata !4274, metadata !DIExpression()), !dbg !4562
  call void @llvm.dbg.value(metadata i64 %_9.i.i.i.i.i.i, metadata !4283, metadata !DIExpression()), !dbg !4564
  %count.i.i.i.i.i.i = sub nsw i64 0, %_9.i.i.i.i.i.i, !dbg !4566, !unsafe_inst !4136
  call void @llvm.dbg.value(metadata i64 %count.i.i.i.i.i.i, metadata !4280, metadata !DIExpression()), !dbg !4562
  %12 = getelementptr inbounds { i32, [3 x i32], %"signal_hook_registry::SigId" }, ptr %iter.sroa.0.1.i, i64 %count.i.i.i.i.i.i, !dbg !4567, !unsafe_inst !4136
  call void @llvm.dbg.value(metadata ptr %12, metadata !4129, metadata !DIExpression()), !dbg !4568
  call void @llvm.dbg.value(metadata ptr %iter.sroa.0.1.i, metadata !4442, metadata !DIExpression(DW_OP_LLVM_fragment, 0, 64)), !dbg !4449
  call void @llvm.dbg.value(metadata ptr %iter.sroa.6.1.i, metadata !4442, metadata !DIExpression(DW_OP_LLVM_fragment, 64, 64)), !dbg !4449
  call void @llvm.dbg.value(metadata i64 %iter.sroa.105.0.i8, metadata !4442, metadata !DIExpression(DW_OP_constu, 1, DW_OP_minus, DW_OP_stack_value, DW_OP_LLVM_fragment, 256, 64)), !dbg !4449
  call void @llvm.dbg.value(metadata !DIArgList(i16 %self3.i.lcssa.i.i.i.i.i, i16 %self3.i.lcssa.i.i.i.i.i), metadata !4442, metadata !DIExpression(DW_OP_LLVM_arg, 0, DW_OP_constu, 1, DW_OP_minus, DW_OP_LLVM_arg, 1, DW_OP_and, DW_OP_stack_value, DW_OP_LLVM_fragment, 192, 16)), !dbg !4449
  %13 = getelementptr { i32, [3 x i32], %"signal_hook_registry::SigId" }, ptr %12, i64 -1, !dbg !4569
  %14 = icmp eq ptr %13, null, !dbg !4570
  br i1 %14, label %_ZN4core3fmt8builders8DebugSet7entries17h2bca12af5ad2ec8fE.exit, label %bb5.i, !dbg !4570

bb5.i:                                            ; preds = %"_ZN105_$LT$std..collections..hash..map..Keys$LT$K$C$V$GT$$u20$as$u20$core..iter..traits..iterator..Iterator$GT$4next17h4a0af1006b27b4f2E.exit.i"
  %15 = add i64 %iter.sroa.105.0.i8, -1, !dbg !4571
  call void @llvm.dbg.value(metadata i64 %15, metadata !4442, metadata !DIExpression(DW_OP_LLVM_fragment, 256, 64)), !dbg !4449
  %_19.i.i.i.i.i.i = add i16 %self3.i.lcssa.i.i.i.i.i, -1, !dbg !4572
  call void @llvm.dbg.value(metadata !DIArgList(i16 %_19.i.i.i.i.i.i, i16 %self3.i.lcssa.i.i.i.i.i), metadata !4442, metadata !DIExpression(DW_OP_LLVM_arg, 0, DW_OP_LLVM_arg, 1, DW_OP_and, DW_OP_stack_value, DW_OP_LLVM_fragment, 192, 16)), !dbg !4449
  %_18.i.i.i.i.i.i = and i16 %_19.i.i.i.i.i.i, %self3.i.lcssa.i.i.i.i.i, !dbg !4573
  call void @llvm.dbg.value(metadata i16 %_18.i.i.i.i.i.i, metadata !4442, metadata !DIExpression(DW_OP_LLVM_fragment, 192, 16)), !dbg !4449
  call void @llvm.lifetime.start.p0(i64 8, ptr nonnull %entry.i), !dbg !4574, !noalias !4575
  store ptr %13, ptr %entry.i, align 8, !dbg !4574, !noalias !4575
; call core::fmt::builders::DebugSet::entry
  %_9.i3 = call noundef align 8 dereferenceable(16) ptr @_ZN4core3fmt8builders8DebugSet5entry17h064adfd73377ffe2E(ptr noalias noundef nonnull align 8 dereferenceable(16) %_5, ptr noundef nonnull align 1 %entry.i, ptr noalias noundef nonnull readonly align 8 dereferenceable(32) @vtable.2), !dbg !4577, !noalias !4578
  call void @llvm.lifetime.end.p0(i64 8, ptr nonnull %entry.i), !dbg !4579, !noalias !4575
  call void @llvm.dbg.value(metadata ptr %iter.sroa.0.1.i, metadata !4442, metadata !DIExpression(DW_OP_LLVM_fragment, 0, 64)), !dbg !4449
  call void @llvm.dbg.value(metadata ptr %iter.sroa.6.1.i, metadata !4442, metadata !DIExpression(DW_OP_LLVM_fragment, 64, 64)), !dbg !4449
  call void @llvm.dbg.value(metadata i64 %15, metadata !4442, metadata !DIExpression(DW_OP_LLVM_fragment, 256, 64)), !dbg !4449
  call void @llvm.dbg.value(metadata i16 %_18.i.i.i.i.i.i, metadata !4442, metadata !DIExpression(DW_OP_LLVM_fragment, 192, 16)), !dbg !4449
  call void @llvm.dbg.value(metadata ptr undef, metadata !4450, metadata !DIExpression()), !dbg !4470
  call void @llvm.dbg.value(metadata ptr undef, metadata !4472, metadata !DIExpression()), !dbg !4476
  call void @llvm.dbg.value(metadata ptr undef, metadata !4095, metadata !DIExpression()), !dbg !4478
  call void @llvm.dbg.value(metadata ptr undef, metadata !4109, metadata !DIExpression()), !dbg !4480
  %16 = icmp eq i64 %15, 0, !dbg !4482
  br i1 %16, label %_ZN4core3fmt8builders8DebugSet7entries17h2bca12af5ad2ec8fE.exit, label %bb2.i.i.i.i, !dbg !4482

_ZN4core3fmt8builders8DebugSet7entries17h2bca12af5ad2ec8fE.exit: ; preds = %"_ZN105_$LT$std..collections..hash..map..Keys$LT$K$C$V$GT$$u20$as$u20$core..iter..traits..iterator..Iterator$GT$4next17h4a0af1006b27b4f2E.exit.i", %bb5.i, %start
; call core::fmt::builders::DebugSet::finish
  %_0 = call noundef zeroext i1 @_ZN4core3fmt8builders8DebugSet6finish17hcad08122e5d983ebE(ptr noalias noundef nonnull align 8 dereferenceable(16) %_5), !dbg !4372
  call void @llvm.lifetime.end.p0(i64 16, ptr nonnull %_5), !dbg !4580
  ret i1 %_0, !dbg !4581
}

; <async_signal::Signals as std::os::fd::raw::AsRawFd>::as_raw_fd
; Function Attrs: nonlazybind uwtable
define noundef i32 @"_ZN67_$LT$async_signal..Signals$u20$as$u20$std..os..fd..raw..AsRawFd$GT$9as_raw_fd17hb3312b4be2768d55E"(ptr noalias nocapture noundef readonly align 8 dereferenceable(72) %self) unnamed_addr #1 !dbg !4582 {
start:
  tail call void @llvm.dbg.value(metadata ptr %self, metadata !4587, metadata !DIExpression()), !dbg !4588
  tail call void @llvm.experimental.noalias.scope.decl(metadata !4589), !dbg !4592
  call void @llvm.dbg.value(metadata ptr %self, metadata !4593, metadata !DIExpression()), !dbg !4601
  call void @llvm.dbg.value(metadata ptr %self, metadata !4603, metadata !DIExpression()), !dbg !4610
  call void @llvm.dbg.value(metadata ptr %self, metadata !4612, metadata !DIExpression()), !dbg !4618
  call void @llvm.dbg.value(metadata ptr %self, metadata !4620, metadata !DIExpression(DW_OP_plus_uconst, 8, DW_OP_stack_value)), !dbg !4642
  %0 = getelementptr inbounds i8, ptr %self, i64 8, !dbg !4644
  %1 = load i32, ptr %0, align 8, !dbg !4644, !alias.scope !4589, !noundef !12
  %2 = icmp eq i32 %1, -1, !dbg !4644
  br i1 %2, label %bb2.i.i, label %"_ZN74_$LT$async_signal..pipe..Notifier$u20$as$u20$std..os..fd..raw..AsRawFd$GT$9as_raw_fd17hbcab68c2b3abb18eE.exit", !dbg !4645

bb2.i.i:                                          ; preds = %start
  call void @llvm.dbg.value(metadata ptr null, metadata !4646, metadata !DIExpression()), !dbg !4655
; call core::option::unwrap_failed
  tail call void @_ZN4core6option13unwrap_failed17h7a3768beeda72485E(ptr noalias noundef nonnull readonly align 8 dereferenceable(24) @alloc_e79bef84619fba06046d63981eaa7026) #17, !dbg !4657, !noalias !4658
  unreachable, !dbg !4657

"_ZN74_$LT$async_signal..pipe..Notifier$u20$as$u20$std..os..fd..raw..AsRawFd$GT$9as_raw_fd17hbcab68c2b3abb18eE.exit": ; preds = %start
  call void @llvm.dbg.value(metadata ptr %0, metadata !4646, metadata !DIExpression()), !dbg !4655
  ret i32 %1, !dbg !4661
}

; <async_signal::Signals as std::os::fd::owned::AsFd>::as_fd
; Function Attrs: nonlazybind uwtable
define noundef i32 @"_ZN66_$LT$async_signal..Signals$u20$as$u20$std..os..fd..owned..AsFd$GT$5as_fd17h9e55312410bdf714E"(ptr noalias noundef readonly align 8 dereferenceable(72) %self) unnamed_addr #1 !dbg !4662 {
start:
  tail call void @llvm.dbg.value(metadata ptr %self, metadata !4675, metadata !DIExpression()), !dbg !4676
  tail call void @llvm.experimental.noalias.scope.decl(metadata !4677), !dbg !4680
  call void @llvm.dbg.value(metadata ptr %self, metadata !4681, metadata !DIExpression()), !dbg !4687
  call void @llvm.dbg.value(metadata ptr %self, metadata !4689, metadata !DIExpression()), !dbg !4696
  tail call void @llvm.experimental.noalias.scope.decl(metadata !4698), !dbg !4701
  call void @llvm.dbg.value(metadata ptr %self, metadata !4612, metadata !DIExpression()), !dbg !4702
  call void @llvm.dbg.value(metadata ptr %self, metadata !4620, metadata !DIExpression(DW_OP_plus_uconst, 8, DW_OP_stack_value)), !dbg !4704
  %0 = getelementptr inbounds i8, ptr %self, i64 8, !dbg !4706
  %1 = load i32, ptr %0, align 8, !dbg !4706, !alias.scope !4707, !noundef !12
  %2 = icmp eq i32 %1, -1, !dbg !4706
  br i1 %2, label %bb2.i.i, label %"_ZN73_$LT$async_signal..pipe..Notifier$u20$as$u20$std..os..fd..owned..AsFd$GT$5as_fd17h97d17c0e40f88247E.exit", !dbg !4708

bb2.i.i:                                          ; preds = %start
  call void @llvm.dbg.value(metadata ptr null, metadata !4646, metadata !DIExpression()), !dbg !4709
; call core::option::unwrap_failed
  tail call void @_ZN4core6option13unwrap_failed17h7a3768beeda72485E(ptr noalias noundef nonnull readonly align 8 dereferenceable(24) @alloc_e79bef84619fba06046d63981eaa7026) #17, !dbg !4711, !noalias !4707
  unreachable, !dbg !4711

"_ZN73_$LT$async_signal..pipe..Notifier$u20$as$u20$std..os..fd..owned..AsFd$GT$5as_fd17h97d17c0e40f88247E.exit": ; preds = %start
  call void @llvm.dbg.value(metadata ptr %0, metadata !4646, metadata !DIExpression()), !dbg !4709
  call void @llvm.dbg.value(metadata ptr %0, metadata !4712, metadata !DIExpression()), !dbg !4720
; call <std::sys::pal::unix::net::Socket as std::os::fd::owned::AsFd>::as_fd
  %_0.i = tail call noundef i32 @"_ZN77_$LT$std..sys..pal..unix..net..Socket$u20$as$u20$std..os..fd..owned..AsFd$GT$5as_fd17h594e1a5e18f94980E"(ptr noalias noundef nonnull readonly align 4 dereferenceable(4) %0), !dbg !4722, !range !4723
  ret i32 %_0.i, !dbg !4724
}

; <&async_signal::Signals as futures_core::stream::Stream>::poll_next
; Function Attrs: nonlazybind uwtable
define void @"_ZN74_$LT$$RF$async_signal..Signals$u20$as$u20$futures_core..stream..Stream$GT$9poll_next17h663716c5e8eec0ebE"(ptr dead_on_unwind noalias nocapture noundef writable writeonly sret([16 x i8]) align 8 dereferenceable(16) %_0, ptr noalias nocapture noundef readonly align 8 dereferenceable(8) %0, ptr noalias noundef align 8 dereferenceable(32) %cx) unnamed_addr #1 personality ptr @rust_eh_personality !dbg !4725 {
start:
  %_6.i.i = alloca [8 x i8], align 8
  %buffer.i = alloca [4 x i8], align 4
  tail call void @llvm.dbg.value(metadata ptr %0, metadata !4829, metadata !DIExpression()), !dbg !4854
  tail call void @llvm.dbg.value(metadata ptr %cx, metadata !4830, metadata !DIExpression()), !dbg !4854
  %_14 = load ptr, ptr %0, align 8, !dbg !4855, !nonnull !12, !align !869, !noundef !12
  tail call void @llvm.experimental.noalias.scope.decl(metadata !4856), !dbg !4855
  call void @llvm.dbg.value(metadata ptr %_14, metadata !4859, metadata !DIExpression()), !dbg !4921
  call void @llvm.dbg.value(metadata ptr %cx, metadata !4876, metadata !DIExpression()), !dbg !4921
  call void @llvm.dbg.declare(metadata ptr %buffer.i, metadata !4877, metadata !DIExpression()), !dbg !4923
  call void @llvm.lifetime.start.p0(i64 4, ptr nonnull %buffer.i), !dbg !4924, !noalias !4925
  store i32 0, ptr %buffer.i, align 4, !dbg !4928, !noalias !4925
  call void @llvm.dbg.value(metadata i64 0, metadata !4880, metadata !DIExpression()), !dbg !4929
  %1 = getelementptr inbounds i8, ptr %_14, i64 8
  %2 = load i32, ptr %1, align 8, !alias.scope !4930, !noalias !4933, !noundef !12
  %3 = icmp eq i32 %2, -1
  %self12.i.i = load ptr, ptr %_14, align 8, !alias.scope !4856, !noalias !4937, !nonnull !12
  %_33.i.i = getelementptr inbounds i8, ptr %self12.i.i, i64 16
  call void @llvm.dbg.value(metadata i64 0, metadata !4880, metadata !DIExpression()), !dbg !4929
  br i1 %3, label %bb1.i.us.i, label %bb3.i, !dbg !4938

bb1.i:                                            ; preds = %bb8.i
  %4 = ptrtoint ptr %8 to i64, !dbg !4987
  call void @llvm.dbg.value(metadata i64 %4, metadata !4892, metadata !DIExpression(DW_OP_LLVM_fragment, 64, 64)), !dbg !4988
  call void @llvm.dbg.value(metadata i64 %4, metadata !4911, metadata !DIExpression()), !dbg !4989
  call void @llvm.dbg.value(metadata !DIArgList(i64 %4, i64 %buffer_len.sroa.0.061.i), metadata !4880, metadata !DIExpression(DW_OP_LLVM_arg, 0, DW_OP_LLVM_arg, 1, DW_OP_plus, DW_OP_stack_value)), !dbg !4929
  %5 = add i64 %buffer_len.sroa.0.061.i, %4, !dbg !4990
  call void @llvm.dbg.value(metadata i64 %5, metadata !4880, metadata !DIExpression()), !dbg !4929
  call void @llvm.dbg.value(metadata i64 poison, metadata !4880, metadata !DIExpression()), !dbg !4929
  %_5.i = icmp ugt i64 %5, 3, !dbg !4991
  br i1 %_5.i, label %bb2.i, label %bb3.i, !dbg !4991

bb3.i:                                            ; preds = %start, %bb1.i
  %buffer_len.sroa.0.061.i = phi i64 [ %5, %bb1.i ], [ 0, %start ]
  call void @llvm.dbg.value(metadata i64 %buffer_len.sroa.0.061.i, metadata !4880, metadata !DIExpression()), !dbg !4929
  call void @llvm.dbg.value(metadata i64 %buffer_len.sroa.0.061.i, metadata !4882, metadata !DIExpression(DW_OP_LLVM_fragment, 0, 64)), !dbg !4992
  call void @llvm.dbg.value(metadata i64 %buffer_len.sroa.0.061.i, metadata !4993, metadata !DIExpression(DW_OP_LLVM_fragment, 0, 64)), !dbg !5004
  call void @llvm.dbg.value(metadata i64 %buffer_len.sroa.0.061.i, metadata !5006, metadata !DIExpression(DW_OP_LLVM_fragment, 0, 64)), !dbg !5016
  call void @llvm.dbg.value(metadata i64 4, metadata !4882, metadata !DIExpression(DW_OP_LLVM_fragment, 64, 64)), !dbg !4992
  call void @llvm.dbg.value(metadata i64 4, metadata !4993, metadata !DIExpression(DW_OP_LLVM_fragment, 64, 64)), !dbg !5004
  call void @llvm.dbg.value(metadata i64 4, metadata !5006, metadata !DIExpression(DW_OP_LLVM_fragment, 64, 64)), !dbg !5016
  call void @llvm.dbg.value(metadata ptr %buffer.i, metadata !5001, metadata !DIExpression()), !dbg !5004
  call void @llvm.dbg.value(metadata ptr %buffer.i, metadata !5015, metadata !DIExpression(DW_OP_LLVM_fragment, 0, 64)), !dbg !5016
  call void @llvm.dbg.value(metadata i64 4, metadata !5015, metadata !DIExpression(DW_OP_LLVM_fragment, 64, 64)), !dbg !5016
  call void @llvm.dbg.value(metadata i64 %buffer_len.sroa.0.061.i, metadata !5018, metadata !DIExpression(DW_OP_LLVM_fragment, 0, 64)), !dbg !5025
  call void @llvm.dbg.value(metadata i64 4, metadata !5018, metadata !DIExpression(DW_OP_LLVM_fragment, 64, 64)), !dbg !5025
  call void @llvm.dbg.value(metadata ptr %buffer.i, metadata !5024, metadata !DIExpression(DW_OP_LLVM_fragment, 0, 64)), !dbg !5025
  call void @llvm.dbg.value(metadata i64 4, metadata !5024, metadata !DIExpression(DW_OP_LLVM_fragment, 64, 64)), !dbg !5025
  call void @llvm.dbg.value(metadata i64 %buffer_len.sroa.0.061.i, metadata !5027, metadata !DIExpression(DW_OP_LLVM_fragment, 0, 64)), !dbg !5039
  call void @llvm.dbg.value(metadata i64 4, metadata !5027, metadata !DIExpression(DW_OP_LLVM_fragment, 64, 64)), !dbg !5039
  call void @llvm.dbg.value(metadata ptr %buffer.i, metadata !5036, metadata !DIExpression(DW_OP_LLVM_fragment, 0, 64)), !dbg !5039
  call void @llvm.dbg.value(metadata i64 4, metadata !5036, metadata !DIExpression(DW_OP_LLVM_fragment, 64, 64)), !dbg !5039
  call void @llvm.dbg.value(metadata i64 4, metadata !5041, metadata !DIExpression()), !dbg !5046
  call void @llvm.dbg.value(metadata i64 %buffer_len.sroa.0.061.i, metadata !5045, metadata !DIExpression()), !dbg !5046
  %new_len.i.i.i = sub nuw nsw i64 4, %buffer_len.sroa.0.061.i, !dbg !5048
  call void @llvm.dbg.value(metadata i64 %new_len.i.i.i, metadata !5037, metadata !DIExpression()), !dbg !5049
  call void @llvm.dbg.value(metadata ptr %buffer.i, metadata !5050, metadata !DIExpression()), !dbg !5055
  call void @llvm.dbg.value(metadata i64 %buffer_len.sroa.0.061.i, metadata !5054, metadata !DIExpression()), !dbg !5055
  %data.i.i.i = getelementptr inbounds i8, ptr %buffer.i, i64 %buffer_len.sroa.0.061.i, !dbg !5057
  call void @llvm.dbg.value(metadata ptr undef, metadata !4969, metadata !DIExpression()), !dbg !5058
  call void @llvm.dbg.value(metadata ptr %cx, metadata !4970, metadata !DIExpression()), !dbg !5058
  call void @llvm.dbg.value(metadata ptr %cx, metadata !5059, metadata !DIExpression()), !dbg !5078
  call void @llvm.dbg.value(metadata ptr %data.i.i.i, metadata !4971, metadata !DIExpression(DW_OP_LLVM_fragment, 0, 64)), !dbg !5058
  call void @llvm.dbg.value(metadata i64 %new_len.i.i.i, metadata !4971, metadata !DIExpression(DW_OP_LLVM_fragment, 64, 64)), !dbg !5058
  br label %bb1.i.i, !dbg !5080

bb1.i.us.i:                                       ; preds = %start
  call void @llvm.lifetime.start.p0(i64 8, ptr nonnull %_6.i.i), !dbg !5081, !noalias !5082
  tail call void @llvm.experimental.noalias.scope.decl(metadata !5083), !dbg !5081
  call void @llvm.dbg.value(metadata ptr %_14, metadata !4612, metadata !DIExpression()), !dbg !5084
  call void @llvm.dbg.value(metadata ptr %_14, metadata !4620, metadata !DIExpression(DW_OP_plus_uconst, 8, DW_OP_stack_value)), !dbg !5085
  call void @llvm.dbg.value(metadata ptr null, metadata !4646, metadata !DIExpression()), !dbg !5086
; call core::option::unwrap_failed
  tail call void @_ZN4core6option13unwrap_failed17h7a3768beeda72485E(ptr noalias noundef nonnull readonly align 8 dereferenceable(24) @alloc_e79bef84619fba06046d63981eaa7026) #17, !dbg !5088, !noalias !5089
  unreachable, !dbg !5088

bb1.i.i:                                          ; preds = %bb12.i.i, %bb3.i
  call void @llvm.lifetime.start.p0(i64 8, ptr nonnull %_6.i.i), !dbg !5081, !noalias !5082
  call void @llvm.experimental.noalias.scope.decl(metadata !5083), !dbg !5081
  call void @llvm.dbg.value(metadata ptr %_14, metadata !4612, metadata !DIExpression()), !dbg !5084
  call void @llvm.dbg.value(metadata ptr %_14, metadata !4620, metadata !DIExpression(DW_OP_plus_uconst, 8, DW_OP_stack_value)), !dbg !5085
  call void @llvm.dbg.value(metadata ptr %1, metadata !4646, metadata !DIExpression()), !dbg !5086
  store ptr %1, ptr %_6.i.i, align 8, !dbg !5081, !noalias !5082
; call <&std::os::unix::net::stream::UnixStream as std::io::Read>::read
  %6 = call { i64, ptr } @"_ZN76_$LT$$RF$std..os..unix..net..stream..UnixStream$u20$as$u20$std..io..Read$GT$4read17hdef66730c2ee082dE"(ptr noalias noundef nonnull align 8 dereferenceable(8) %_6.i.i, ptr noalias noundef nonnull align 1 %data.i.i.i, i64 noundef %new_len.i.i.i), !dbg !5081, !noalias !5090
  %7 = extractvalue { i64, ptr } %6, 0, !dbg !5081
  %8 = extractvalue { i64, ptr } %6, 1, !dbg !5081
  %switch.i.i = icmp eq i64 %7, 1, !dbg !5091
  br i1 %switch.i.i, label %bb5.i.i, label %"_ZN78_$LT$$RF$async_io..Async$LT$T$GT$$u20$as$u20$futures_io..if_std..AsyncRead$GT$9poll_read17h0f0f5311688b1ed3E.exit.i", !dbg !5091

bb5.i.i:                                          ; preds = %bb1.i.i
  %9 = icmp ne ptr %8, null
  call void @llvm.assume(i1 %9)
  call void @llvm.dbg.value(metadata ptr undef, metadata !5092, metadata !DIExpression()), !dbg !5108
  call void @llvm.dbg.value(metadata ptr undef, metadata !5110, metadata !DIExpression()), !dbg !5141
  call void @llvm.dbg.value(metadata i64 1, metadata !5143, metadata !DIExpression()), !dbg !5148
  call void @llvm.dbg.value(metadata i64 1, metadata !5172, metadata !DIExpression()), !dbg !5177
  call void @llvm.dbg.value(metadata i64 -1, metadata !5179, metadata !DIExpression()), !dbg !5184
  call void @llvm.dbg.value(metadata ptr %8, metadata !5158, metadata !DIExpression()), !dbg !5186
  call void @llvm.dbg.declare(metadata ptr undef, metadata !5159, metadata !DIExpression()), !dbg !5187
  call void @llvm.dbg.value(metadata ptr %8, metadata !5188, metadata !DIExpression()), !dbg !5192
  call void @llvm.dbg.value(metadata ptr %8, metadata !5147, metadata !DIExpression()), !dbg !5148
  %10 = ptrtoint ptr %8 to i64, !dbg !5194
  call void @llvm.dbg.value(metadata i64 %10, metadata !5160, metadata !DIExpression()), !dbg !5195
  %_5.i.i.i.i = and i64 %10, 3, !dbg !5196
  switch i64 %_5.i.i.i.i, label %default.unreachable [
    i64 2, label %bb3.i.i.i
    i64 3, label %bb3.i.i.i.i
    i64 0, label %bb2.i19.i.i
    i64 1, label %bb4.i.i.i
  ], !dbg !5197

default.unreachable:                              ; preds = %bb7.i.i, %bb5.i.i
  unreachable

bb3.i.i.i.i:                                      ; preds = %bb5.i.i
  %_10.i.i.i.i = lshr i64 %10, 32, !dbg !5198
  %kind_bits.i.i.i.i = trunc i64 %_10.i.i.i.i to i32, !dbg !5198
  call void @llvm.dbg.value(metadata i32 %kind_bits.i.i.i.i, metadata !5163, metadata !DIExpression()), !dbg !5199
  call void @llvm.dbg.value(metadata i32 %kind_bits.i.i.i.i, metadata !2456, metadata !DIExpression()), !dbg !5200
  switch i32 %kind_bits.i.i.i.i, label %bb82.i.i.i.i.i [
    i32 0, label %bb5.i.i.i
    i32 1, label %bb3.i.i.i.i.i
    i32 2, label %bb5.i.i.i.i.i
    i32 3, label %bb7.i.i.i.i.i
    i32 4, label %bb9.i.i.i.i.i
    i32 5, label %bb11.i.i.i.i.i
    i32 6, label %bb13.i.i.i.i.i
    i32 7, label %bb15.i.i.i.i.i
    i32 8, label %bb17.i.i.i.i.i
    i32 9, label %bb19.i.i.i.i.i
    i32 10, label %bb21.i.i.i.i.i
    i32 11, label %bb23.i.i.i.i.i
    i32 12, label %bb25.i.i.i.i.i
    i32 13, label %bb27.i.i.i.i.i
    i32 14, label %bb29.i.i.i.i.i
    i32 15, label %bb31.i.i.i.i.i
    i32 16, label %bb33.i.i.i.i.i
    i32 17, label %bb35.i.i.i.i.i
    i32 18, label %bb37.i.i.i.i.i
    i32 19, label %bb39.i.i.i.i.i
    i32 20, label %bb41.i.i.i.i.i
    i32 21, label %bb43.i.i.i.i.i
    i32 22, label %bb45.i.i.i.i.i
    i32 23, label %bb47.i.i.i.i.i
    i32 24, label %bb49.i.i.i.i.i
    i32 25, label %bb51.i.i.i.i.i
    i32 26, label %bb53.i.i.i.i.i
    i32 27, label %bb55.i.i.i.i.i
    i32 28, label %bb57.i.i.i.i.i
    i32 29, label %bb59.i.i.i.i.i
    i32 30, label %bb61.i.i.i.i.i
    i32 31, label %bb63.i.i.i.i.i
    i32 32, label %bb65.i.i.i.i.i
    i32 33, label %bb67.i.i.i.i.i
    i32 34, label %bb69.i.i.i.i.i
    i32 35, label %bb71.i.i.i.i.i
    i32 39, label %bb73.i.i.i.i.i
    i32 37, label %bb75.i.i.i.i.i
    i32 36, label %bb77.i.i.i.i.i
    i32 38, label %bb79.i.i.i.i.i
    i32 40, label %bb81.i.i.i.i.i
  ], !dbg !5202

bb3.i.i.i.i.i:                                    ; preds = %bb3.i.i.i.i
  br label %bb5.i.i.i, !dbg !5203

bb5.i.i.i.i.i:                                    ; preds = %bb3.i.i.i.i
  br label %bb5.i.i.i, !dbg !5203

bb7.i.i.i.i.i:                                    ; preds = %bb3.i.i.i.i
  br label %bb5.i.i.i, !dbg !5203

bb9.i.i.i.i.i:                                    ; preds = %bb3.i.i.i.i
  br label %bb5.i.i.i, !dbg !5203

bb11.i.i.i.i.i:                                   ; preds = %bb3.i.i.i.i
  br label %bb5.i.i.i, !dbg !5203

bb13.i.i.i.i.i:                                   ; preds = %bb3.i.i.i.i
  br label %bb5.i.i.i, !dbg !5203

bb15.i.i.i.i.i:                                   ; preds = %bb3.i.i.i.i
  br label %bb5.i.i.i, !dbg !5203

bb17.i.i.i.i.i:                                   ; preds = %bb3.i.i.i.i
  br label %bb5.i.i.i, !dbg !5203

bb19.i.i.i.i.i:                                   ; preds = %bb3.i.i.i.i
  br label %bb5.i.i.i, !dbg !5203

bb21.i.i.i.i.i:                                   ; preds = %bb3.i.i.i.i
  br label %bb5.i.i.i, !dbg !5203

bb23.i.i.i.i.i:                                   ; preds = %bb3.i.i.i.i
  br label %bb5.i.i.i, !dbg !5203

bb25.i.i.i.i.i:                                   ; preds = %bb3.i.i.i.i
  br label %bb5.i.i.i, !dbg !5203

bb27.i.i.i.i.i:                                   ; preds = %bb3.i.i.i.i
  br label %bb5.i.i.i, !dbg !5203

bb29.i.i.i.i.i:                                   ; preds = %bb3.i.i.i.i
  br label %bb5.i.i.i, !dbg !5203

bb31.i.i.i.i.i:                                   ; preds = %bb3.i.i.i.i
  br label %bb5.i.i.i, !dbg !5203

bb33.i.i.i.i.i:                                   ; preds = %bb3.i.i.i.i
  br label %bb5.i.i.i, !dbg !5203

bb35.i.i.i.i.i:                                   ; preds = %bb3.i.i.i.i
  br label %bb5.i.i.i, !dbg !5203

bb37.i.i.i.i.i:                                   ; preds = %bb3.i.i.i.i
  br label %bb5.i.i.i, !dbg !5203

bb39.i.i.i.i.i:                                   ; preds = %bb3.i.i.i.i
  br label %bb5.i.i.i, !dbg !5203

bb41.i.i.i.i.i:                                   ; preds = %bb3.i.i.i.i
  br label %bb5.i.i.i, !dbg !5203

bb43.i.i.i.i.i:                                   ; preds = %bb3.i.i.i.i
  br label %bb5.i.i.i, !dbg !5203

bb45.i.i.i.i.i:                                   ; preds = %bb3.i.i.i.i
  br label %bb5.i.i.i, !dbg !5203

bb47.i.i.i.i.i:                                   ; preds = %bb3.i.i.i.i
  br label %bb5.i.i.i, !dbg !5203

bb49.i.i.i.i.i:                                   ; preds = %bb3.i.i.i.i
  br label %bb5.i.i.i, !dbg !5203

bb51.i.i.i.i.i:                                   ; preds = %bb3.i.i.i.i
  br label %bb5.i.i.i, !dbg !5203

bb53.i.i.i.i.i:                                   ; preds = %bb3.i.i.i.i
  br label %bb5.i.i.i, !dbg !5203

bb55.i.i.i.i.i:                                   ; preds = %bb3.i.i.i.i
  br label %bb5.i.i.i, !dbg !5203

bb57.i.i.i.i.i:                                   ; preds = %bb3.i.i.i.i
  br label %bb5.i.i.i, !dbg !5203

bb59.i.i.i.i.i:                                   ; preds = %bb3.i.i.i.i
  br label %bb5.i.i.i, !dbg !5203

bb61.i.i.i.i.i:                                   ; preds = %bb3.i.i.i.i
  br label %bb5.i.i.i, !dbg !5203

bb63.i.i.i.i.i:                                   ; preds = %bb3.i.i.i.i
  br label %bb5.i.i.i, !dbg !5203

bb65.i.i.i.i.i:                                   ; preds = %bb3.i.i.i.i
  br label %bb5.i.i.i, !dbg !5203

bb67.i.i.i.i.i:                                   ; preds = %bb3.i.i.i.i
  br label %bb5.i.i.i, !dbg !5203

bb69.i.i.i.i.i:                                   ; preds = %bb3.i.i.i.i
  br label %bb5.i.i.i, !dbg !5203

bb71.i.i.i.i.i:                                   ; preds = %bb3.i.i.i.i
  br label %bb5.i.i.i, !dbg !5203

bb73.i.i.i.i.i:                                   ; preds = %bb3.i.i.i.i
  br label %bb5.i.i.i, !dbg !5203

bb75.i.i.i.i.i:                                   ; preds = %bb3.i.i.i.i
  br label %bb5.i.i.i, !dbg !5203

bb77.i.i.i.i.i:                                   ; preds = %bb3.i.i.i.i
  br label %bb5.i.i.i, !dbg !5203

bb79.i.i.i.i.i:                                   ; preds = %bb3.i.i.i.i
  br label %bb5.i.i.i, !dbg !5203

bb81.i.i.i.i.i:                                   ; preds = %bb3.i.i.i.i
  br label %bb5.i.i.i, !dbg !5203

bb82.i.i.i.i.i:                                   ; preds = %bb3.i.i.i.i
  br label %bb5.i.i.i, !dbg !5204

bb3.i.i.i:                                        ; preds = %bb5.i.i
  call void @llvm.dbg.value(metadata i64 %10, metadata !5099, metadata !DIExpression(DW_OP_constu, 32, DW_OP_shr, DW_OP_LLVM_convert, 64, DW_ATE_unsigned, DW_OP_LLVM_convert, 32, DW_ATE_unsigned, DW_OP_stack_value)), !dbg !5205
  call void @llvm.dbg.value(metadata i64 %10, metadata !5206, metadata !DIExpression(DW_OP_constu, 32, DW_OP_shr, DW_OP_LLVM_convert, 64, DW_ATE_unsigned, DW_OP_LLVM_convert, 32, DW_ATE_unsigned, DW_OP_stack_value)), !dbg !5216
  %_7.i.i.mask.i.i = and i64 %10, -4294967296, !dbg !5218
  %cond.i.i = icmp eq i64 %_7.i.i.mask.i.i, 47244640256, !dbg !5218
  br i1 %cond.i.i, label %"_ZN4core3ptr42drop_in_place$LT$std..io..error..Error$GT$17h9a97790ae083c45fE.exit.i", label %"_ZN78_$LT$$RF$async_io..Async$LT$T$GT$$u20$as$u20$futures_io..if_std..AsyncRead$GT$9poll_read17h0f0f5311688b1ed3E.exit.thread35.i", !dbg !5218

bb5.i.i.i:                                        ; preds = %bb82.i.i.i.i.i, %bb81.i.i.i.i.i, %bb79.i.i.i.i.i, %bb77.i.i.i.i.i, %bb75.i.i.i.i.i, %bb73.i.i.i.i.i, %bb71.i.i.i.i.i, %bb69.i.i.i.i.i, %bb67.i.i.i.i.i, %bb65.i.i.i.i.i, %bb63.i.i.i.i.i, %bb61.i.i.i.i.i, %bb59.i.i.i.i.i, %bb57.i.i.i.i.i, %bb55.i.i.i.i.i, %bb53.i.i.i.i.i, %bb51.i.i.i.i.i, %bb49.i.i.i.i.i, %bb47.i.i.i.i.i, %bb45.i.i.i.i.i, %bb43.i.i.i.i.i, %bb41.i.i.i.i.i, %bb39.i.i.i.i.i, %bb37.i.i.i.i.i, %bb35.i.i.i.i.i, %bb33.i.i.i.i.i, %bb31.i.i.i.i.i, %bb29.i.i.i.i.i, %bb27.i.i.i.i.i, %bb25.i.i.i.i.i, %bb23.i.i.i.i.i, %bb21.i.i.i.i.i, %bb19.i.i.i.i.i, %bb17.i.i.i.i.i, %bb15.i.i.i.i.i, %bb13.i.i.i.i.i, %bb11.i.i.i.i.i, %bb9.i.i.i.i.i, %bb7.i.i.i.i.i, %bb5.i.i.i.i.i, %bb3.i.i.i.i.i, %bb3.i.i.i.i
  %11 = phi i1 [ true, %bb3.i.i.i.i.i ], [ true, %bb5.i.i.i.i.i ], [ true, %bb7.i.i.i.i.i ], [ true, %bb9.i.i.i.i.i ], [ true, %bb11.i.i.i.i.i ], [ true, %bb13.i.i.i.i.i ], [ true, %bb15.i.i.i.i.i ], [ true, %bb17.i.i.i.i.i ], [ true, %bb19.i.i.i.i.i ], [ true, %bb21.i.i.i.i.i ], [ true, %bb23.i.i.i.i.i ], [ true, %bb25.i.i.i.i.i ], [ true, %bb27.i.i.i.i.i ], [ true, %bb29.i.i.i.i.i ], [ true, %bb31.i.i.i.i.i ], [ true, %bb33.i.i.i.i.i ], [ true, %bb35.i.i.i.i.i ], [ true, %bb37.i.i.i.i.i ], [ true, %bb39.i.i.i.i.i ], [ true, %bb41.i.i.i.i.i ], [ true, %bb43.i.i.i.i.i ], [ true, %bb45.i.i.i.i.i ], [ true, %bb47.i.i.i.i.i ], [ true, %bb49.i.i.i.i.i ], [ true, %bb51.i.i.i.i.i ], [ true, %bb53.i.i.i.i.i ], [ true, %bb55.i.i.i.i.i ], [ true, %bb57.i.i.i.i.i ], [ true, %bb59.i.i.i.i.i ], [ true, %bb61.i.i.i.i.i ], [ true, %bb63.i.i.i.i.i ], [ true, %bb65.i.i.i.i.i ], [ true, %bb67.i.i.i.i.i ], [ true, %bb69.i.i.i.i.i ], [ true, %bb71.i.i.i.i.i ], [ true, %bb73.i.i.i.i.i ], [ true, %bb75.i.i.i.i.i ], [ true, %bb77.i.i.i.i.i ], [ true, %bb79.i.i.i.i.i ], [ true, %bb81.i.i.i.i.i ], [ false, %bb82.i.i.i.i.i ], [ true, %bb3.i.i.i.i ], !dbg !5200
  %_0.sroa.0.0.i.i.i.i.i = phi i8 [ 1, %bb3.i.i.i.i.i ], [ 2, %bb5.i.i.i.i.i ], [ 3, %bb7.i.i.i.i.i ], [ 4, %bb9.i.i.i.i.i ], [ 5, %bb11.i.i.i.i.i ], [ 6, %bb13.i.i.i.i.i ], [ 7, %bb15.i.i.i.i.i ], [ 8, %bb17.i.i.i.i.i ], [ 9, %bb19.i.i.i.i.i ], [ 10, %bb21.i.i.i.i.i ], [ 11, %bb23.i.i.i.i.i ], [ 12, %bb25.i.i.i.i.i ], [ 13, %bb27.i.i.i.i.i ], [ 14, %bb29.i.i.i.i.i ], [ 15, %bb31.i.i.i.i.i ], [ 16, %bb33.i.i.i.i.i ], [ 17, %bb35.i.i.i.i.i ], [ 18, %bb37.i.i.i.i.i ], [ 19, %bb39.i.i.i.i.i ], [ 20, %bb41.i.i.i.i.i ], [ 21, %bb43.i.i.i.i.i ], [ 22, %bb45.i.i.i.i.i ], [ 23, %bb47.i.i.i.i.i ], [ 24, %bb49.i.i.i.i.i ], [ 25, %bb51.i.i.i.i.i ], [ 26, %bb53.i.i.i.i.i ], [ 27, %bb55.i.i.i.i.i ], [ 28, %bb57.i.i.i.i.i ], [ 29, %bb59.i.i.i.i.i ], [ 30, %bb61.i.i.i.i.i ], [ 31, %bb63.i.i.i.i.i ], [ 32, %bb65.i.i.i.i.i ], [ 33, %bb67.i.i.i.i.i ], [ 34, %bb69.i.i.i.i.i ], [ 35, %bb71.i.i.i.i.i ], [ 39, %bb73.i.i.i.i.i ], [ 37, %bb75.i.i.i.i.i ], [ 36, %bb77.i.i.i.i.i ], [ 38, %bb79.i.i.i.i.i ], [ 40, %bb81.i.i.i.i.i ], [ 41, %bb82.i.i.i.i.i ], [ 0, %bb3.i.i.i.i ], !dbg !5200
  call void @llvm.dbg.value(metadata i8 %_0.sroa.0.0.i.i.i.i.i, metadata !5219, metadata !DIExpression()), !dbg !5234
  call void @llvm.dbg.value(metadata ptr undef, metadata !5231, metadata !DIExpression()), !dbg !5234
  call void @llvm.assume(i1 %11), !dbg !5236
  br label %bb6.i.i, !dbg !5237

bb2.i19.i.i:                                      ; preds = %bb5.i.i
  call void @llvm.dbg.value(metadata ptr %8, metadata !5106, metadata !DIExpression()), !dbg !5238
  %12 = getelementptr inbounds i8, ptr %8, i64 16, !dbg !5239
  %13 = load i8, ptr %12, align 8, !dbg !5239, !range !5240, !noundef !12
  br label %bb6.i.i, !dbg !5241

bb4.i.i.i:                                        ; preds = %bb5.i.i
  call void @llvm.dbg.value(metadata ptr %8, metadata !5176, metadata !DIExpression()), !dbg !5177
