; ModuleID = 'autocfg.80cc51dc5dc66313-cgu.0'
source_filename = "autocfg.80cc51dc5dc66313-cgu.0"
target datalayout = "e-m:e-p270:32:32-p271:32:32-p272:64:64-i64:64-i128:128-f80:128-n8:16:32:64-S128"
target triple = "x86_64-unknown-linux-gnu"

%"std::sync::reentrant_lock::ReentrantLock<core::cell::RefCell<std::io::stdio::StderrRaw>>" = type { %"core::sync::atomic::AtomicUsize", %"std::sys::sync::mutex::futex::Mutex", i32, i64 }
%"core::sync::atomic::AtomicUsize" = type { i64 }
%"std::sys::sync::mutex::futex::Mutex" = type { %"core::sync::atomic::AtomicU32" }
%"core::sync::atomic::AtomicU32" = type { i32 }
%"alloc::boxed::Box<dyn core::ops::function::FnMut() -> core::result::Result<(), std::io::error::Error> + core::marker::Send + core::marker::Sync>" = type { %"core::ptr::unique::Unique<dyn core::ops::function::FnMut() -> core::result::Result<(), std::io::error::Error> + core::marker::Send + core::marker::Sync>", %"alloc::alloc::Global" }
%"core::ptr::unique::Unique<dyn core::ops::function::FnMut() -> core::result::Result<(), std::io::error::Error> + core::marker::Send + core::marker::Sync>" = type { %"core::ptr::non_null::NonNull<dyn core::ops::function::FnMut() -> core::result::Result<(), std::io::error::Error> + core::marker::Send + core::marker::Sync>", %"core::marker::PhantomData<dyn core::ops::function::FnMut() -> core::result::Result<(), std::io::error::Error> + core::marker::Send + core::marker::Sync>" }
%"core::ptr::non_null::NonNull<dyn core::ops::function::FnMut() -> core::result::Result<(), std::io::error::Error> + core::marker::Send + core::marker::Sync>" = type { { ptr, ptr } }
%"core::marker::PhantomData<dyn core::ops::function::FnMut() -> core::result::Result<(), std::io::error::Error> + core::marker::Send + core::marker::Sync>" = type {}
%"alloc::alloc::Global" = type {}
%"alloc::string::String" = type { %"alloc::vec::Vec<u8>" }
%"alloc::vec::Vec<u8>" = type { %"alloc::raw_vec::RawVec<u8>", i64 }
%"alloc::raw_vec::RawVec<u8>" = type { i64, ptr, %"alloc::alloc::Global" }
%"alloc::ffi::c_str::CString" = type { %"alloc::boxed::Box<[u8]>" }
%"alloc::boxed::Box<[u8]>" = type { %"core::ptr::unique::Unique<[u8]>", %"alloc::alloc::Global" }
%"core::ptr::unique::Unique<[u8]>" = type { %"core::ptr::non_null::NonNull<[u8]>", %"core::marker::PhantomData<[u8]>" }
%"core::ptr::non_null::NonNull<[u8]>" = type { { ptr, i64 } }
%"core::marker::PhantomData<[u8]>" = type {}
%"core::fmt::rt::Argument<'_>" = type { %"core::fmt::rt::ArgumentType<'_>" }
%"core::fmt::rt::ArgumentType<'_>" = type { [1 x i64], ptr }
%"core::mem::maybe_uninit::MaybeUninit<std::ffi::os_str::OsString>" = type { [3 x i64] }
%"core::mem::maybe_uninit::MaybeUninit<core::option::Option<std::ffi::os_str::OsString>>" = type { [3 x i64] }

@0 = private unnamed_addr constant <{ [8 x i8], [4 x i8], [4 x i8] }> <{ [8 x i8] undef, [4 x i8] c"\00\00\11\00", [4 x i8] undef }>, align 8
@1 = private unnamed_addr constant <{ [8 x i8], [8 x i8] }> <{ [8 x i8] zeroinitializer, [8 x i8] undef }>, align 8
@alloc_8d68fcbc011419193bd208f22e2789d1 = private unnamed_addr constant <{ [28 x i8] }> <{ [28 x i8] c"failed to write whole buffer" }>, align 1
@alloc_626cc8bfd6c94d404aa777557e31db63 = private unnamed_addr constant <{ ptr, [9 x i8], [7 x i8] }> <{ ptr @alloc_8d68fcbc011419193bd208f22e2789d1, [9 x i8] c"\1C\00\00\00\00\00\00\00\17", [7 x i8] undef }>, align 8
@alloc_2316e63258fe9d5bdff37bf003386e61 = private unnamed_addr constant <{ [78 x i8] }> <{ [78 x i8] c"/home/arsalan/Documents/Github/unsafe-rust-benchmark/library/std/src/io/mod.rs" }>, align 1
@alloc_d9fb3a4fb251add6517075192273824f = private unnamed_addr constant <{ ptr, [16 x i8] }> <{ ptr @alloc_2316e63258fe9d5bdff37bf003386e61, [16 x i8] c"N\00\00\00\00\00\00\00\A9\06\00\00$\00\00\00" }>, align 8
@alloc_a500d906b91607583596fa15e63c2ada = private unnamed_addr constant <{ [40 x i8] }> <{ [40 x i8] c"internal error: entered unreachable code" }>, align 1
@alloc_14183c395209850fc094550c6f312111 = private unnamed_addr constant <{ [95 x i8] }> <{ [95 x i8] c"/home/arsalan/Documents/Github/unsafe-rust-benchmark/library/std/src/io/error/repr_bitpacked.rs" }>, align 1
@alloc_0454db1a094b688b9e12d48e39c001e6 = private unnamed_addr constant <{ ptr, [16 x i8] }> <{ ptr @alloc_14183c395209850fc094550c6f312111, [16 x i8] c"_\00\00\00\00\00\00\00\1C\01\00\00\0D\00\00\00" }>, align 8
@_ZN3std2io5stdio6stderr8INSTANCE17h6af8b3c52a4e2021E = external global %"std::sync::reentrant_lock::ReentrantLock<core::cell::RefCell<std::io::stdio::StderrRaw>>"
@alloc_abe84c54c934497055a45d5bf9aea081 = private unnamed_addr constant <{ [82 x i8] }> <{ [82 x i8] c"/home/arsalan/Documents/Github/unsafe-rust-benchmark/library/std/src/ffi/os_str.rs" }>, align 1
@alloc_234fae6edaca0695beafe2eda65d3b82 = private unnamed_addr constant <{ ptr, [16 x i8] }> <{ ptr @alloc_abe84c54c934497055a45d5bf9aea081, [16 x i8] c"R\00\00\00\00\00\00\00K\02\00\00\0E\00\00\00" }>, align 8
@2 = private unnamed_addr constant <{ [4 x i8], [4 x i8] }> <{ [4 x i8] c"\02\00\00\00", [4 x i8] undef }>, align 4
@alloc_338301e5279a7b9f68d6fdf151cd4707 = private unnamed_addr constant <{ [79 x i8] }> <{ [79 x i8] c"/home/arsalan/Documents/Github/unsafe-rust-benchmark/library/std/src/process.rs" }>, align 1
@alloc_e22e0a343e1a1705e17ea7ed3681dab6 = private unnamed_addr constant <{ ptr, [16 x i8] }> <{ ptr @alloc_338301e5279a7b9f68d6fdf151cd4707, [16 x i8] c"O\00\00\00\00\00\00\00\BE\03\00\00\1E\00\00\00" }>, align 8
@alloc_ae6dc619079e3c3b08144a35532ecff7 = private unnamed_addr constant <{ [2 x i8] }> <{ [2 x i8] c"()" }>, align 1
@alloc_424341b75ece3fa20496f1c69b9fb0ac = private unnamed_addr constant <{ [111 x i8] }> <{ [111 x i8] c"unsafe precondition(s) violated: ptr::write_bytes requires that the destination pointer is aligned and non-null" }>, align 1
@alloc_fad0cd83b7d1858a846a172eb260e593 = private unnamed_addr constant <{ [42 x i8] }> <{ [42 x i8] c"is_aligned_to: align is not a power-of-two" }>, align 1
@alloc_041983ee8170efdaaf95ba67fd072d26 = private unnamed_addr constant <{ ptr, [8 x i8] }> <{ ptr @alloc_fad0cd83b7d1858a846a172eb260e593, [8 x i8] c"*\00\00\00\00\00\00\00" }>, align 8
@alloc_1cb116c55cd0edb3d6bef8847f58e222 = private unnamed_addr constant <{ [86 x i8] }> <{ [86 x i8] c"/home/arsalan/Documents/Github/unsafe-rust-benchmark/library/core/src/ptr/const_ptr.rs" }>, align 1
@alloc_03d266dccd993e13de22250e3dccd7d7 = private unnamed_addr constant <{ ptr, [16 x i8] }> <{ ptr @alloc_1cb116c55cd0edb3d6bef8847f58e222, [16 x i8] c"V\00\00\00\00\00\00\00\86\06\00\00\0D\00\00\00" }>, align 8
@alloc_d30a741e02fc5ea2d050c92e901091a3 = private unnamed_addr constant <{ [69 x i8] }> <{ [69 x i8] c"unsafe precondition(s) violated: usize::unchecked_sub cannot overflow" }>, align 1
@alloc_20b3d155afd5c58c42e598b7e6d186ef = private unnamed_addr constant <{ [93 x i8] }> <{ [93 x i8] c"unsafe precondition(s) violated: NonNull::new_unchecked requires that the pointer is non-null" }>, align 1
@alloc_ec595fc0e82ef92fc59bd74f68296eae = private unnamed_addr constant <{ [73 x i8] }> <{ [73 x i8] c"assertion failed: 0 < pointee_size && pointee_size <= isize::MAX as usize" }>, align 1
@alloc_cedbb71194daee93c1287f403fa88727 = private unnamed_addr constant <{ ptr, [16 x i8] }> <{ ptr @alloc_1cb116c55cd0edb3d6bef8847f58e222, [16 x i8] c"V\00\00\00\00\00\00\00p\03\00\00\09\00\00\00" }>, align 8
@3 = private unnamed_addr constant <{ [4 x i8], [4 x i8] }> <{ [4 x i8] zeroinitializer, [4 x i8] undef }>, align 4
@alloc_e09b762e23e7aab5d1c9567cce4bbe22 = private unnamed_addr constant <{ [84 x i8] }> <{ [84 x i8] c"/home/arsalan/Documents/Github/unsafe-rust-benchmark/library/core/src/str/pattern.rs" }>, align 1
@alloc_0453b75c606d890f49eaeb1e871fc4a0 = private unnamed_addr constant <{ ptr, [16 x i8] }> <{ ptr @alloc_e09b762e23e7aab5d1c9567cce4bbe22, [16 x i8] c"T\00\00\00\00\00\00\00\DF\06\00\00\17\00\00\00" }>, align 8
@alloc_6bfc19cc357790f8d752bfe72883159b = private unnamed_addr constant <{ ptr, [16 x i8] }> <{ ptr @alloc_e09b762e23e7aab5d1c9567cce4bbe22, [16 x i8] c"T\00\00\00\00\00\00\00\F9\06\00\00,\00\00\00" }>, align 8
@alloc_b909a04b5e0d31af8ff45541f6106dff = private unnamed_addr constant <{ ptr, [16 x i8] }> <{ ptr @alloc_e09b762e23e7aab5d1c9567cce4bbe22, [16 x i8] c"T\00\00\00\00\00\00\003\07\00\00\18\00\00\00" }>, align 8
@alloc_9a698867b0bf7c385ee30a72e4035d4d = private unnamed_addr constant <{ ptr, [16 x i8] }> <{ ptr @alloc_e09b762e23e7aab5d1c9567cce4bbe22, [16 x i8] c"T\00\00\00\00\00\00\000\07\00\00\0D\00\00\00" }>, align 8
@alloc_6581e7233c441557faa14a09e84c8b0e = private unnamed_addr constant <{ ptr, [16 x i8] }> <{ ptr @alloc_e09b762e23e7aab5d1c9567cce4bbe22, [16 x i8] c"T\00\00\00\00\00\00\00\FC\06\00\00!\00\00\00" }>, align 8
@alloc_d0b5540d38aa67683bd942cb6db4a43b = private unnamed_addr constant <{ [28 x i8] }> <{ [28 x i8] c"window size must be non-zero" }>, align 1
@alloc_6cf54154542de7742fe5e8314c4406a8 = private unnamed_addr constant <{ ptr, [16 x i8] }> <{ ptr @alloc_e09b762e23e7aab5d1c9567cce4bbe22, [16 x i8] c"T\00\00\00\00\00\00\00\F5\06\00\00\1E\00\00\00" }>, align 8
@alloc_8821998f047ca62cad40e6bc4e4d87c4 = private unnamed_addr constant <{ [1 x i8] }> <{ [1 x i8] c"\01" }>, align 1
@alloc_8cc17694d981e8ffc4bb82cceee5e7d7 = private unnamed_addr constant <{ ptr, [16 x i8] }> <{ ptr @alloc_e09b762e23e7aab5d1c9567cce4bbe22, [16 x i8] c"T\00\00\00\00\00\00\00\EA\06\00\00I\00\00\00" }>, align 8
@alloc_ff3d81b5c02c61ff6765870bae09bd90 = private unnamed_addr constant <{ ptr, [16 x i8] }> <{ ptr @alloc_e09b762e23e7aab5d1c9567cce4bbe22, [16 x i8] c"T\00\00\00\00\00\00\00\C3\05\00\00\14\00\00\00" }>, align 8
@alloc_a1f18b7736b2d62dfea50214c99bc585 = private unnamed_addr constant <{ ptr, [16 x i8] }> <{ ptr @alloc_e09b762e23e7aab5d1c9567cce4bbe22, [16 x i8] c"T\00\00\00\00\00\00\00\C3\05\00\00!\00\00\00" }>, align 8
@alloc_70e067e9caceffb0495a1ba70e5bde5b = private unnamed_addr constant <{ ptr, [16 x i8] }> <{ ptr @alloc_e09b762e23e7aab5d1c9567cce4bbe22, [16 x i8] c"T\00\00\00\00\00\00\00\B7\05\00\00\14\00\00\00" }>, align 8
@alloc_1be711072f2b745146df4e520c0dc296 = private unnamed_addr constant <{ ptr, [16 x i8] }> <{ ptr @alloc_e09b762e23e7aab5d1c9567cce4bbe22, [16 x i8] c"T\00\00\00\00\00\00\00\B7\05\00\00!\00\00\00" }>, align 8
@alloc_2e749ba99c833073cec5ec5cf7e2f49b = private unnamed_addr constant <{ [85 x i8] }> <{ [85 x i8] c"/home/arsalan/Documents/Github/unsafe-rust-benchmark/library/core/src/char/methods.rs" }>, align 1
@alloc_57859aeb3d01b34b21a99a66643e2791 = private unnamed_addr constant <{ ptr, [16 x i8] }> <{ ptr @alloc_2e749ba99c833073cec5ec5cf7e2f49b, [16 x i8] c"U\00\00\00\00\00\00\00\05\07\00\00\0D\00\00\00" }>, align 8
@alloc_6b031f9bca8204235732c7c365d04a1d = private unnamed_addr constant <{ [18 x i8] }> <{ [18 x i8] c"encode_utf8: need " }>, align 1
@alloc_28d13efb0f9a95ccb5d02ec33dd195cf = private unnamed_addr constant <{ [19 x i8] }> <{ [19 x i8] c" bytes to encode U+" }>, align 1
@alloc_0d928972d2befd736e581c7fcc5a2f9a = private unnamed_addr constant <{ [21 x i8] }> <{ [21 x i8] c", but the buffer has " }>, align 1
@alloc_d51214f097f67314513b76e97e13aa6b = private unnamed_addr constant <{ ptr, [8 x i8], ptr, [8 x i8], ptr, [8 x i8] }> <{ ptr @alloc_6b031f9bca8204235732c7c365d04a1d, [8 x i8] c"\12\00\00\00\00\00\00\00", ptr @alloc_28d13efb0f9a95ccb5d02ec33dd195cf, [8 x i8] c"\13\00\00\00\00\00\00\00", ptr @alloc_0d928972d2befd736e581c7fcc5a2f9a, [8 x i8] c"\15\00\00\00\00\00\00\00" }>, align 8
@alloc_054e99fbcf449d4476ca571e33a9e487 = private unnamed_addr constant <{ ptr, [16 x i8] }> <{ ptr @alloc_2e749ba99c833073cec5ec5cf7e2f49b, [16 x i8] c"U\00\00\00\00\00\00\00\FE\06\00\00\0E\00\00\00" }>, align 8
@alloc_1eb6f53a157dccb32488e066ad957e6d = private unnamed_addr constant <{ [82 x i8] }> <{ [82 x i8] c"unsafe precondition(s) violated: hint::unreachable_unchecked must never be reached" }>, align 1
@alloc_6ef15161d96b83184bb59cff4003839f = private unnamed_addr constant <{ [85 x i8] }> <{ [85 x i8] c"/home/arsalan/Documents/Github/unsafe-rust-benchmark/library/core/src/alloc/layout.rs" }>, align 1
@alloc_a9c36de80897ff407f24bba36ae610b4 = private unnamed_addr constant <{ ptr, [16 x i8] }> <{ ptr @alloc_6ef15161d96b83184bb59cff4003839f, [16 x i8] c"U\00\00\00\00\00\00\00\C3\01\00\00)\00\00\00" }>, align 8
@alloc_c47f388a2f284dde179cf1caf251ef44 = private unnamed_addr constant <{ [82 x i8] }> <{ [82 x i8] c"/home/arsalan/Documents/Github/unsafe-rust-benchmark/library/core/src/slice/mod.rs" }>, align 1
@alloc_c64833276dcb5250e04ff430ea42f372 = private unnamed_addr constant <{ ptr, [16 x i8] }> <{ ptr @alloc_c47f388a2f284dde179cf1caf251ef44, [16 x i8] c"R\00\00\00\00\00\00\00\00\0A\00\00+\00\00\00" }>, align 8
@alloc_a437e9123c6157e92b00ea14514a3949 = private unnamed_addr constant <{ ptr, [16 x i8] }> <{ ptr @alloc_c47f388a2f284dde179cf1caf251ef44, [16 x i8] c"R\00\00\00\00\00\00\00\1F\0A\00\00\22\00\00\00" }>, align 8
@alloc_161c855febe47b6eaaf12928eb8fdcfa = private unnamed_addr constant <{ [85 x i8] }> <{ [85 x i8] c"/home/arsalan/Documents/Github/unsafe-rust-benchmark/library/core/src/slice/memchr.rs" }>, align 1
@alloc_088f7798d70e5f6ed62563131ebc7f15 = private unnamed_addr constant <{ ptr, [16 x i8] }> <{ ptr @alloc_161c855febe47b6eaaf12928eb8fdcfa, [16 x i8] c"U\00\00\00\00\00\00\00+\00\00\00\0C\00\00\00" }>, align 8
@vtable.0 = private unnamed_addr constant <{ [24 x i8], ptr }> <{ [24 x i8] c"\00\00\00\00\00\00\00\00\00\00\00\00\00\00\00\00\01\00\00\00\00\00\00\00", ptr @"_ZN70_$LT$core..num..error..TryFromIntError$u20$as$u20$core..fmt..Debug$GT$3fmt17h0feec2782d3c18acE" }>, align 8
@alloc_00ae4b301f7fab8ac9617c03fcbd7274 = private unnamed_addr constant <{ [43 x i8] }> <{ [43 x i8] c"called `Result::unwrap()` on an `Err` value" }>, align 1
@vtable.1 = private unnamed_addr constant <{ ptr, [16 x i8], ptr }> <{ ptr @"_ZN4core3ptr42drop_in_place$LT$autocfg..error..Error$GT$17h535f591202b9939bE", [16 x i8] c"\18\00\00\00\00\00\00\00\08\00\00\00\00\00\00\00", ptr @"_ZN58_$LT$autocfg..error..Error$u20$as$u20$core..fmt..Debug$GT$3fmt17h3bfe6926e5e1c561E" }>, align 8
@_ZN4core7unicode12unicode_data11white_space14WHITESPACE_MAP17he63ff13526352a5cE = external global [256 x i8]
@alloc_b4fd16894743353fab2a9687364b046b = private unnamed_addr constant <{ [93 x i8] }> <{ [93 x i8] c"/home/arsalan/Documents/Github/unsafe-rust-benchmark/library/core/src/unicode/unicode_data.rs" }>, align 1
@alloc_9ad48ca586742b9ab121bf87fcbd1a9d = private unnamed_addr constant <{ ptr, [16 x i8] }> <{ ptr @alloc_b4fd16894743353fab2a9687364b046b, [16 x i8] c"]\00\00\00\00\00\00\00@\02\00\00\12\00\00\00" }>, align 8
@alloc_bf59a592960a1522cd4ff178e3b5b01a = private unnamed_addr constant <{ ptr, [16 x i8] }> <{ ptr @alloc_b4fd16894743353fab2a9687364b046b, [16 x i8] c"]\00\00\00\00\00\00\00B\02\00\00\13\00\00\00" }>, align 8
@4 = private unnamed_addr constant <{ [1 x i8], [1 x i8] }> <{ [1 x i8] c"\01", [1 x i8] undef }>, align 1
@alloc_611ea47e56fe111765d49cc77e8ab451 = private unnamed_addr constant <{ [32 x i8] }> <{ [32 x i8] c"char len should be less than 255" }>, align 1
@alloc_9255bf5d4789a2e4cea7e993364e5ae0 = private unnamed_addr constant <{ ptr, [16 x i8] }> <{ ptr @alloc_e09b762e23e7aab5d1c9567cce4bbe22, [16 x i8] c"T\00\00\00\00\00\00\00,\02\00\00\0E\00\00\00" }>, align 8
@alloc_b20c6211b16a2df3c39015542c0ebf00 = private unnamed_addr constant <{ ptr, [16 x i8] }> <{ ptr @alloc_e09b762e23e7aab5d1c9567cce4bbe22, [16 x i8] c"T\00\00\00\00\00\00\00\D0\03\00\00:\00\00\00" }>, align 8
@alloc_663191912e362154fd569a725b9c3026 = private unnamed_addr constant <{ [100 x i8] }> <{ [100 x i8] c"/home/arsalan/Documents/Github/unsafe-rust-benchmark/library/alloc/src/collections/btree/navigate.rs" }>, align 1
@alloc_039d7007b63baf925d2271c01a8bab24 = private unnamed_addr constant <{ ptr, [16 x i8] }> <{ ptr @alloc_663191912e362154fd569a725b9c3026, [16 x i8] c"d\00\00\00\00\00\00\00Y\02\00\000\00\00\00" }>, align 8
@alloc_c24246998cbea3ca9ebd4c6a9b03a914 = private unnamed_addr constant <{ ptr, [16 x i8] }> <{ ptr @alloc_663191912e362154fd569a725b9c3026, [16 x i8] c"d\00\00\00\00\00\00\00\C7\00\00\00'\00\00\00" }>, align 8
@__rust_no_alloc_shim_is_unstable = external global i8
@5 = private unnamed_addr constant <{ [8 x i8], [8 x i8] }> <{ [8 x i8] c"\01\00\00\00\00\00\00\80", [8 x i8] undef }>, align 8
@alloc_8e685ef482aec04a2d7a8ed5ef1228a3 = private unnamed_addr constant <{ [9 x i8] }> <{ [9 x i8] c"Utf8Error" }>, align 1
@alloc_f34017a1538f19bf68b6d6294eec0bb3 = private unnamed_addr constant <{ [11 x i8] }> <{ [11 x i8] c"valid_up_to" }>, align 1
@vtable.2 = private unnamed_addr constant <{ [24 x i8], ptr }> <{ [24 x i8] c"\00\00\00\00\00\00\00\00\08\00\00\00\00\00\00\00\08\00\00\00\00\00\00\00", ptr @"_ZN4core3fmt3num52_$LT$impl$u20$core..fmt..Debug$u20$for$u20$usize$GT$3fmt17h15a05d46d3b075c0E" }>, align 8
@alloc_91eca80c47235190e5fbed3d6d8be36c = private unnamed_addr constant <{ [9 x i8] }> <{ [9 x i8] c"error_len" }>, align 1
@vtable.3 = private unnamed_addr constant <{ [24 x i8], ptr }> <{ [24 x i8] c"\00\00\00\00\00\00\00\00\08\00\00\00\00\00\00\00\08\00\00\00\00\00\00\00", ptr @"_ZN42_$LT$$RF$T$u20$as$u20$core..fmt..Debug$GT$3fmt17h8c9eea2d464ddcf7E" }>, align 8
@alloc_37d2e53432a03a1f90b3e7253015eaf9 = private unnamed_addr constant <{ [4 x i8] }> <{ [4 x i8] c"None" }>, align 1
@alloc_9535bf4c204f3eb9b19ec2c83e446e52 = private unnamed_addr constant <{ [4 x i8] }> <{ [4 x i8] c"Some" }>, align 1
@vtable.4 = private unnamed_addr constant <{ [24 x i8], ptr }> <{ [24 x i8] c"\00\00\00\00\00\00\00\00\08\00\00\00\00\00\00\00\08\00\00\00\00\00\00\00", ptr @"_ZN42_$LT$$RF$T$u20$as$u20$core..fmt..Debug$GT$3fmt17ha002dc91cac14a47E" }>, align 8
@alloc_3c5fb57b8777a5cdcf0588965bc5be3a = private unnamed_addr constant <{ [31 x i8] }> <{ [31 x i8] c"invalid utf-8: corrupt contents" }>, align 1
@alloc_59ba7b9f7211443cd55a366616eef46a = private unnamed_addr constant <{ [5 x i8] }> <{ [5 x i8] c"Empty" }>, align 1
@alloc_00315c78e51d29fe6b3102a4c1ecf6ef = private unnamed_addr constant <{ [12 x i8] }> <{ [12 x i8] c"InvalidDigit" }>, align 1
@alloc_bd3a3f3879e0d5f64554753e977f58d4 = private unnamed_addr constant <{ [11 x i8] }> <{ [11 x i8] c"PosOverflow" }>, align 1
@alloc_0964bb2a4870637395c77a018495bd5c = private unnamed_addr constant <{ [11 x i8] }> <{ [11 x i8] c"NegOverflow" }>, align 1
@alloc_6566120a3a17f930e960a0863fcbd591 = private unnamed_addr constant <{ [4 x i8] }> <{ [4 x i8] c"Zero" }>, align 1
@alloc_f62df14955f7d78bca139b0a7668683d = private unnamed_addr constant <{ [13 x i8] }> <{ [13 x i8] c"ParseIntError" }>, align 1
@alloc_a5d866b1768ad3f826bccdb004a1a8ae = private unnamed_addr constant <{ [4 x i8] }> <{ [4 x i8] c"kind" }>, align 1
@vtable.5 = private unnamed_addr constant <{ [24 x i8], ptr }> <{ [24 x i8] c"\00\00\00\00\00\00\00\00\08\00\00\00\00\00\00\00\08\00\00\00\00\00\00\00", ptr @"_ZN42_$LT$$RF$T$u20$as$u20$core..fmt..Debug$GT$3fmt17h3e23c988abcd67e6E" }>, align 8
@alloc_846067d0882ee37794f95511f0c814f6 = private unnamed_addr constant <{ [38 x i8] }> <{ [38 x i8] c"cannot parse integer from empty string" }>, align 1
@alloc_5a21d8f340b8d98a7d0a3b8ac73c0cac = private unnamed_addr constant <{ [29 x i8] }> <{ [29 x i8] c"invalid digit found in string" }>, align 1
@alloc_6123d35c5f0d0e74905e1d895726fe07 = private unnamed_addr constant <{ [38 x i8] }> <{ [38 x i8] c"number too large to fit in target type" }>, align 1
@alloc_78096fa035826a35dc3bf26af6626542 = private unnamed_addr constant <{ [38 x i8] }> <{ [38 x i8] c"number too small to fit in target type" }>, align 1
@alloc_006be5479f8ca81c0a699de7247c03b1 = private unnamed_addr constant <{ [38 x i8] }> <{ [38 x i8] c"number would be zero for non-zero type" }>, align 1
@alloc_5cb263f26a5d50117adfcc5c7225745e = private unnamed_addr constant <{ [15 x i8] }> <{ [15 x i8] c"TryFromIntError" }>, align 1
@vtable.6 = private unnamed_addr constant <{ [24 x i8], ptr }> <{ [24 x i8] c"\00\00\00\00\00\00\00\00\08\00\00\00\00\00\00\00\08\00\00\00\00\00\00\00", ptr @"_ZN42_$LT$$RF$T$u20$as$u20$core..fmt..Debug$GT$3fmt17h049033334e03d42aE" }>, align 8
@alloc_e96fb6e25c55edb0aec8b24d111f5d7f = private unnamed_addr constant <{ [101 x i8] }> <{ [101 x i8] c"unsafe precondition(s) violated: slice::get_unchecked_mut requires that the index is within the slice" }>, align 1
@alloc_a918088129574efbf4eb4c3e02dd5937 = private unnamed_addr constant <{ ptr, [16 x i8] }> <{ ptr @alloc_e09b762e23e7aab5d1c9567cce4bbe22, [16 x i8] c"T\00\00\00\00\00\00\00G\04\00\00$\00\00\00" }>, align 8
@alloc_4606dfc766e23d9646c00ebc31b83b5c = private unnamed_addr constant <{ ptr, [16 x i8] }> <{ ptr @alloc_e09b762e23e7aab5d1c9567cce4bbe22, [16 x i8] c"T\00\00\00\00\00\00\00\BF\01\00\007\00\00\00" }>, align 8
@alloc_7b4ee386b87c5489a9f9d4e45cee5b43 = private unnamed_addr constant <{ [76 x i8] }> <{ [76 x i8] c"/home/arsalan/Documents/Github/unsafe-rust-benchmark/library/std/src/path.rs" }>, align 1
@alloc_976266fbe3191b41809a5d8eeb94d83e = private unnamed_addr constant <{ ptr, [16 x i8] }> <{ ptr @alloc_7b4ee386b87c5489a9f9d4e45cee5b43, [16 x i8] c"L\00\00\00\00\00\00\00\A8\07\00\00\14\00\00\00" }>, align 8
@alloc_5e12b16480b0bc81a9b2311086ce4caa = private unnamed_addr constant <{ [83 x i8] }> <{ [83 x i8] c"/home/arsalan/Documents/Github/unsafe-rust-benchmark/library/core/src/slice/iter.rs" }>, align 1
@alloc_48efd6df13d24dae36913b79f4a7823a = private unnamed_addr constant <{ ptr, [16 x i8] }> <{ ptr @alloc_5e12b16480b0bc81a9b2311086ce4caa, [16 x i8] c"S\00\00\00\00\00\00\00<\05\00\00#\00\00\00" }>, align 8
@alloc_f9a4645200b32ea306ea6249b4c6d735 = private unnamed_addr constant <{ ptr, [16 x i8] }> <{ ptr @alloc_5e12b16480b0bc81a9b2311086ce4caa, [16 x i8] c"S\00\00\00\00\00\00\00=\05\00\00\1D\00\00\00" }>, align 8
@alloc_160b441a52d49f9f0beaabc976eb72a9 = private unnamed_addr constant <{ [13 x i8] }> <{ [13 x i8] c"AutoCfg error" }>, align 1
@alloc_9d52b9638262c0a77b7610b0978191cb = private unnamed_addr constant <{ ptr, [16 x i8], ptr }> <{ ptr @"_ZN4core3ptr42drop_in_place$LT$std..io..error..Error$GT$17h28e16e4fdf1d986dE", [16 x i8] c"\08\00\00\00\00\00\00\00\08\00\00\00\00\00\00\00", ptr @"_ZN60_$LT$std..io..error..Error$u20$as$u20$core..fmt..Display$GT$3fmt17h3f2cf6e27249d648E" }>, align 8
@vtable.7 = private unnamed_addr constant <{ ptr, [16 x i8], ptr, ptr, ptr, ptr, ptr, ptr, ptr, ptr }> <{ ptr @"_ZN4core3ptr42drop_in_place$LT$std..io..error..Error$GT$17h28e16e4fdf1d986dE", [16 x i8] c"\08\00\00\00\00\00\00\00\08\00\00\00\00\00\00\00", ptr @"_ZN58_$LT$std..io..error..Error$u20$as$u20$core..fmt..Debug$GT$3fmt17h03ded37217b1d0b8E", ptr @"_ZN60_$LT$std..io..error..Error$u20$as$u20$core..fmt..Display$GT$3fmt17h3f2cf6e27249d648E", ptr @alloc_9d52b9638262c0a77b7610b0978191cb, ptr @"_ZN60_$LT$std..io..error..Error$u20$as$u20$core..error..Error$GT$6source17hda8814010b1bb1f4E", ptr @_ZN4core5error5Error7type_id17hdee7eed7a8a32157E, ptr @"_ZN60_$LT$std..io..error..Error$u20$as$u20$core..error..Error$GT$11description17h9f8fb744353d0cd4E", ptr @"_ZN60_$LT$std..io..error..Error$u20$as$u20$core..error..Error$GT$5cause17h6b6549d70815c363E", ptr @_ZN4core5error5Error7provide17h2bc62eb1abba74e8E }>, align 8
@alloc_eeca0436c0027d569cab6dbfc3289978 = private unnamed_addr constant <{ [24 x i8], ptr }> <{ [24 x i8] c"\00\00\00\00\00\00\00\00\01\00\00\00\00\00\00\00\01\00\00\00\00\00\00\00", ptr @"_ZN70_$LT$core..num..error..ParseIntError$u20$as$u20$core..fmt..Display$GT$3fmt17h354ad5cac8203a60E" }>, align 8
@vtable.8 = private unnamed_addr constant <{ [24 x i8], ptr, ptr, ptr, ptr, ptr, ptr, ptr, ptr }> <{ [24 x i8] c"\00\00\00\00\00\00\00\00\01\00\00\00\00\00\00\00\01\00\00\00\00\00\00\00", ptr @"_ZN68_$LT$core..num..error..ParseIntError$u20$as$u20$core..fmt..Debug$GT$3fmt17hca6706fd55745e88E", ptr @"_ZN70_$LT$core..num..error..ParseIntError$u20$as$u20$core..fmt..Display$GT$3fmt17h354ad5cac8203a60E", ptr @alloc_eeca0436c0027d569cab6dbfc3289978, ptr @_ZN4core5error5Error6source17hc1b59f5626504f48E, ptr @_ZN4core5error5Error7type_id17h5a6e8c1b95190627E, ptr @"_ZN70_$LT$core..num..error..ParseIntError$u20$as$u20$core..error..Error$GT$11description17h5a08471146943daaE", ptr @_ZN4core5error5Error5cause17h521a740a73897480E, ptr @_ZN4core5error5Error7provide17h4c880859a5c316b9E }>, align 8
@alloc_2a8255a4eca6c2d07a90d6dd8ea71f1c = private unnamed_addr constant <{ [24 x i8], ptr }> <{ [24 x i8] c"\00\00\00\00\00\00\00\00\10\00\00\00\00\00\00\00\08\00\00\00\00\00\00\00", ptr @"_ZN66_$LT$core..str..error..Utf8Error$u20$as$u20$core..fmt..Display$GT$3fmt17h47a978a09b37cbe8E" }>, align 8
@vtable.9 = private unnamed_addr constant <{ [24 x i8], ptr, ptr, ptr, ptr, ptr, ptr, ptr, ptr }> <{ [24 x i8] c"\00\00\00\00\00\00\00\00\10\00\00\00\00\00\00\00\08\00\00\00\00\00\00\00", ptr @"_ZN64_$LT$core..str..error..Utf8Error$u20$as$u20$core..fmt..Debug$GT$3fmt17ha344968c674884c1E", ptr @"_ZN66_$LT$core..str..error..Utf8Error$u20$as$u20$core..fmt..Display$GT$3fmt17h47a978a09b37cbe8E", ptr @alloc_2a8255a4eca6c2d07a90d6dd8ea71f1c, ptr @_ZN4core5error5Error6source17h337ce4fd8c3e90cfE, ptr @_ZN4core5error5Error7type_id17he683336f30340f31E, ptr @"_ZN66_$LT$core..str..error..Utf8Error$u20$as$u20$core..error..Error$GT$11description17ha65e08104bbec00fE", ptr @_ZN4core5error5Error5cause17h1fdf56bcc63349b0E, ptr @_ZN4core5error5Error7provide17he965770e76ba5ec5E }>, align 8
@alloc_a887f9858119cc7413062dc002c4d9ab = private unnamed_addr constant <{ [9 x i8] }> <{ [9 x i8] c"--version" }>, align 1
@alloc_443253d3104d22c8d62a9652be9fb548 = private unnamed_addr constant <{ [9 x i8] }> <{ [9 x i8] c"--verbose" }>, align 1
@alloc_37126f77c8c86effbaa5a95e58bf6ee9 = private unnamed_addr constant <{ ptr, [8 x i8], ptr, [8 x i8] }> <{ ptr @alloc_a887f9858119cc7413062dc002c4d9ab, [8 x i8] c"\09\00\00\00\00\00\00\00", ptr @alloc_443253d3104d22c8d62a9652be9fb548, [8 x i8] c"\09\00\00\00\00\00\00\00" }>, align 8
@alloc_9ebe308ee0c0ac470ad629d4dd914f1d = private unnamed_addr constant <{ [23 x i8] }> <{ [23 x i8] c"could not execute rustc" }>, align 1
@alloc_7e0d0bbea9af16260bc3ac5923c4a0be = private unnamed_addr constant <{ [28 x i8] }> <{ [28 x i8] c"could not find rustc release" }>, align 1
@alloc_b7185c5006b7edc9741130ed35f40cf6 = private unnamed_addr constant <{ [9 x i8] }> <{ [9 x i8] c"release: " }>, align 1
@alloc_26692ff3c4bee2aae63b38e4e08507ad = private unnamed_addr constant <{ [95 x i8] }> <{ [95 x i8] c"/home/arsalan/.cargo/registry/src/index.crates.io-1949cf8c6b5b557f/autocfg-1.1.0/src/version.rs" }>, align 1
@alloc_d1264a42f521c386d46771e3b9262de2 = private unnamed_addr constant <{ ptr, [16 x i8] }> <{ ptr @alloc_26692ff3c4bee2aae63b38e4e08507ad, [16 x i8] c"_\00\00\00\00\00\00\00&\00\00\00 \00\00\00" }>, align 8
@alloc_4b61415ad1eaee9bc8daddbf968c483f = private unnamed_addr constant <{ ptr, [16 x i8] }> <{ ptr @alloc_26692ff3c4bee2aae63b38e4e08507ad, [16 x i8] c"_\00\00\00\00\00\00\00,\00\00\00 \00\00\00" }>, align 8
@alloc_0a88d5157bb5029b2984564c0fbf601c = private unnamed_addr constant <{ [21 x i8] }> <{ [21 x i8] c"missing major version" }>, align 1
@alloc_917a364af1d62708906928c86a4b13ba = private unnamed_addr constant <{ [21 x i8] }> <{ [21 x i8] c"missing minor version" }>, align 1
@alloc_33b2f7dd1096c7e2704f73811b5be494 = private unnamed_addr constant <{ [21 x i8] }> <{ [21 x i8] c"missing patch version" }>, align 1
@alloc_6d37a15ac7cea7e8070c0a492e97fefb = private unnamed_addr constant <{ [16 x i8] }> <{ [16 x i8] c"cargo:rustc-cfg=" }>, align 1
@alloc_49a1e817e911805af64bbc7efb390101 = private unnamed_addr constant <{ [1 x i8] }> <{ [1 x i8] c"\0A" }>, align 1
@alloc_14d3fadd47c8d538d7a00d4e2acf6106 = private unnamed_addr constant <{ ptr, [8 x i8], ptr, [8 x i8] }> <{ ptr @alloc_6d37a15ac7cea7e8070c0a492e97fefb, [8 x i8] c"\10\00\00\00\00\00\00\00", ptr @alloc_49a1e817e911805af64bbc7efb390101, [8 x i8] c"\01\00\00\00\00\00\00\00" }>, align 8
@alloc_3317ebbd33bb0e63e1086f650cbe75b9 = private unnamed_addr constant <{ [23 x i8] }> <{ [23 x i8] c"cargo:rerun-if-changed=" }>, align 1
@alloc_0af122acac41ccb2c461ccecd16b2b98 = private unnamed_addr constant <{ ptr, [8 x i8], ptr, [8 x i8] }> <{ ptr @alloc_3317ebbd33bb0e63e1086f650cbe75b9, [8 x i8] c"\17\00\00\00\00\00\00\00", ptr @alloc_49a1e817e911805af64bbc7efb390101, [8 x i8] c"\01\00\00\00\00\00\00\00" }>, align 8
@alloc_3ed53a6122fa254259929d0020407937 = private unnamed_addr constant <{ [27 x i8] }> <{ [27 x i8] c"cargo:rerun-if-env-changed=" }>, align 1
@alloc_270cb6ab8512145ec480ae697d2c38dd = private unnamed_addr constant <{ ptr, [8 x i8], ptr, [8 x i8] }> <{ ptr @alloc_3ed53a6122fa254259929d0020407937, [8 x i8] c"\1B\00\00\00\00\00\00\00", ptr @alloc_49a1e817e911805af64bbc7efb390101, [8 x i8] c"\01\00\00\00\00\00\00\00" }>, align 8
@alloc_95ac081d575456b80934242ddde50642 = private unnamed_addr constant <{ [91 x i8] }> <{ [91 x i8] c"/home/arsalan/.cargo/registry/src/index.crates.io-1949cf8c6b5b557f/autocfg-1.1.0/src/lib.rs" }>, align 1
@alloc_95a1d41874bad1a96d582d1f05276779 = private unnamed_addr constant <{ ptr, [16 x i8] }> <{ ptr @alloc_95ac081d575456b80934242ddde50642, [16 x i8] c"[\00\00\00\00\00\00\00\80\00\00\00\14\00\00\00" }>, align 8
@alloc_ebcdb5f66b6f511cde89ece546cbdd6d = private unnamed_addr constant <{ [7 x i8] }> <{ [7 x i8] c"OUT_DIR" }>, align 1
@alloc_4c1204bbb43be32ab513dab2d485e94b = private unnamed_addr constant <{ [21 x i8] }> <{ [21 x i8] c"no OUT_DIR specified!" }>, align 1
@alloc_806c1ac911172019779ceab530bc1f0e = private unnamed_addr constant <{ [5 x i8] }> <{ [5 x i8] c"RUSTC" }>, align 1
@alloc_6794a1c673f9bc030636f5ee80204a3c = private unnamed_addr constant <{ ptr, [16 x i8] }> <{ ptr @alloc_95ac081d575456b80934242ddde50642, [16 x i8] c"[\00\00\00\00\00\00\00\9C\00\00\00*\00\00\00" }>, align 8
@alloc_a101ab11781c59b9398cbae632a743d0 = private unnamed_addr constant <{ ptr, [16 x i8] }> <{ ptr @alloc_95ac081d575456b80934242ddde50642, [16 x i8] c"[\00\00\00\00\00\00\00\9D\00\00\00$\00\00\00" }>, align 8
@alloc_dcbc225a8ec7dbfaaef714ff8a7176fb = private unnamed_addr constant <{ [6 x i8] }> <{ [6 x i8] c"TARGET" }>, align 1
@alloc_060180786b6ede22890b710d35d06bd4 = private unnamed_addr constant <{ ptr, [16 x i8] }> <{ ptr @alloc_95ac081d575456b80934242ddde50642, [16 x i8] c"[\00\00\00\00\00\00\00\A3\00\00\00\17\00\00\00" }>, align 8
@alloc_2c6c8d462cb8e0c41a0e7a7af4054ca3 = private unnamed_addr constant <{ [43 x i8] }> <{ [43 x i8] c"warning: autocfg could not probe for `std`\0A" }>, align 1
@alloc_1143540e7bb7f9da2368e216835dc0f2 = private unnamed_addr constant <{ [39 x i8] }> <{ [39 x i8] c"output path is not a writable directory" }>, align 1
@alloc_99e3d78e59e64a1f0a448975f485705f = private unnamed_addr constant <{ [5 x i8] }> <{ [5 x i8] c"rustc" }>, align 1
@alloc_79dd6101469015bc84f1794566ec88a4 = private unnamed_addr constant <{ ptr, [16 x i8] }> <{ ptr @alloc_95ac081d575456b80934242ddde50642, [16 x i8] c"[\00\00\00\00\00\00\00\9C\00\00\00D\00\00\00" }>, align 8
@alloc_b77aee8bbd1208cd8054a4f270db01ed = private unnamed_addr constant <{ [6 x i8] }> <{ [6 x i8] c"rustc_" }>, align 1
@alloc_27cca3636828088e60ce450d2eca2060 = private unnamed_addr constant <{ [1 x i8] }> <{ [1 x i8] c"_" }>, align 1
@alloc_de36ef20b594bb3bc64ac5f919580c65 = private unnamed_addr constant <{ ptr, [8 x i8], ptr, [8 x i8] }> <{ ptr @alloc_b77aee8bbd1208cd8054a4f270db01ed, [8 x i8] c"\06\00\00\00\00\00\00\00", ptr @alloc_27cca3636828088e60ce450d2eca2060, [8 x i8] c"\01\00\00\00\00\00\00\00" }>, align 8
@alloc_0bec441a7f28a569f59eff8ec173008c = private unnamed_addr constant <{ [12 x i8] }> <{ [12 x i8] c"--crate-name" }>, align 1
@alloc_6b9c4d547a268aa1e418a0468c721e03 = private unnamed_addr constant <{ [5 x i8] }> <{ [5 x i8] c"probe" }>, align 1
@alloc_67ef7f3b0f4d407642bf8cca0c515309 = private unnamed_addr constant <{ ptr, [8 x i8] }> <{ ptr @alloc_6b9c4d547a268aa1e418a0468c721e03, [8 x i8] c"\05\00\00\00\00\00\00\00" }>, align 8
@alloc_a6e356e753364954471dcbf409cc4c4e = private unnamed_addr constant <{ [16 x i8] }> <{ [16 x i8] c"--crate-type=lib" }>, align 1
@alloc_8bbf703e0ecc0326ac386a57604275da = private unnamed_addr constant <{ [9 x i8] }> <{ [9 x i8] c"--out-dir" }>, align 1
@alloc_246d83e981cc738d725ac034ac011bd6 = private unnamed_addr constant <{ [14 x i8] }> <{ [14 x i8] c"--emit=llvm-ir" }>, align 1
@alloc_c20974c698c079af35c03642327d3f4f = private unnamed_addr constant <{ [8 x i8] }> <{ [8 x i8] c"--target" }>, align 1
@alloc_3bb2650aa074fcfb8c10a9c40791bfbc = private unnamed_addr constant <{ [1 x i8] }> <{ [1 x i8] c"-" }>, align 1
@alloc_e17429f2b15aca8572318efceee0e7fb = private unnamed_addr constant <{ [11 x i8] }> <{ [11 x i8] c"rustc stdin" }>, align 1
@alloc_3fddaea1b0bfa3794bdf8fa3d129d498 = private unnamed_addr constant <{ ptr, [16 x i8] }> <{ ptr @alloc_95ac081d575456b80934242ddde50642, [16 x i8] c"[\00\00\00\00\00\00\00\E3\00\00\00,\00\00\00" }>, align 8
@alloc_760bab4fb3232bb4fda3545c7fdd4ba3 = private unnamed_addr constant <{ [11 x i8] }> <{ [11 x i8] c"#![no_std]\0A" }>, align 1
@_ZN7autocfg7AutoCfg5probe2ID17hb8a5d2099b634cd7E = global <{ [8 x i8] }> zeroinitializer, align 8
@alloc_1f49ce7a639e8514bbb125a9b84ff307 = private unnamed_addr constant <{ [13 x i8] }> <{ [13 x i8] c"extern crate " }>, align 1
@alloc_6f247e3c2d2085507c574273e05eb2d7 = private unnamed_addr constant <{ [10 x i8] }> <{ [10 x i8] c" as probe;" }>, align 1
@alloc_e62cd2cd10de24019be074cf1161a758 = private unnamed_addr constant <{ ptr, [8 x i8], ptr, [8 x i8] }> <{ ptr @alloc_1f49ce7a639e8514bbb125a9b84ff307, [8 x i8] c"\0D\00\00\00\00\00\00\00", ptr @alloc_6f247e3c2d2085507c574273e05eb2d7, [8 x i8] c"\0A\00\00\00\00\00\00\00" }>, align 8
@alloc_9b58662cbccf1d04185e68226560a87c = private unnamed_addr constant <{ [4 x i8] }> <{ [4 x i8] c"has_" }>, align 1
@alloc_d4d61693590434b807399159290b604a = private unnamed_addr constant <{ ptr, [8 x i8] }> <{ ptr @alloc_9b58662cbccf1d04185e68226560a87c, [8 x i8] c"\04\00\00\00\00\00\00\00" }>, align 8
@alloc_03990e2f6ce0ed33ec37b251290075f4 = private unnamed_addr constant <{ [8 x i8] }> <{ [8 x i8] c"pub use " }>, align 1
@alloc_67ff1e09660ce038a33d9b00e9fc869e = private unnamed_addr constant <{ [1 x i8] }> <{ [1 x i8] c";" }>, align 1
@alloc_5da5265b6c73355c04a8ae831f16ae96 = private unnamed_addr constant <{ ptr, [8 x i8], ptr, [8 x i8] }> <{ ptr @alloc_03990e2f6ce0ed33ec37b251290075f4, [8 x i8] c"\08\00\00\00\00\00\00\00", ptr @alloc_67ff1e09660ce038a33d9b00e9fc869e, [8 x i8] c"\01\00\00\00\00\00\00\00" }>, align 8
@alloc_0d0dfd69e11ef447d692feeb17f56787 = private unnamed_addr constant <{ [17 x i8] }> <{ [17 x i8] c"pub trait Probe: " }>, align 1
@alloc_3f5ec56314f47de1ecdc0e499f794fdb = private unnamed_addr constant <{ [11 x i8] }> <{ [11 x i8] c" + Sized {}" }>, align 1
@alloc_9ea1ea701b3b21d36035f0e366a35d3d = private unnamed_addr constant <{ ptr, [8 x i8], ptr, [8 x i8] }> <{ ptr @alloc_0d0dfd69e11ef447d692feeb17f56787, [8 x i8] c"\11\00\00\00\00\00\00\00", ptr @alloc_3f5ec56314f47de1ecdc0e499f794fdb, [8 x i8] c"\0B\00\00\00\00\00\00\00" }>, align 8
@alloc_18f53533d472209f206fa446ac65d9d7 = private unnamed_addr constant <{ [17 x i8] }> <{ [17 x i8] c"pub type Probe = " }>, align 1
@alloc_5f3e3dd355b623d43ad672b53ae2b8bf = private unnamed_addr constant <{ ptr, [8 x i8], ptr, [8 x i8] }> <{ ptr @alloc_18f53533d472209f206fa446ac65d9d7, [8 x i8] c"\11\00\00\00\00\00\00\00", ptr @alloc_67ff1e09660ce038a33d9b00e9fc869e, [8 x i8] c"\01\00\00\00\00\00\00\00" }>, align 8
@alloc_0d2a016201ab4006fd7af573344e8f5e = private unnamed_addr constant <{ [25 x i8] }> <{ [25 x i8] c"pub fn probe() { let _ = " }>, align 1
@alloc_1bb9f0b4b6b0c5637a8d526f6a7c8206 = private unnamed_addr constant <{ [3 x i8] }> <{ [3 x i8] c"; }" }>, align 1
@alloc_e1b9545991db9536af9bbcec7646a796 = private unnamed_addr constant <{ ptr, [8 x i8], ptr, [8 x i8] }> <{ ptr @alloc_0d2a016201ab4006fd7af573344e8f5e, [8 x i8] c"\19\00\00\00\00\00\00\00", ptr @alloc_1bb9f0b4b6b0c5637a8d526f6a7c8206, [8 x i8] c"\03\00\00\00\00\00\00\00" }>, align 8
@alloc_e44cf3d860444b6561f1fc77d3a60029 = private unnamed_addr constant <{ [27 x i8] }> <{ [27 x i8] c"pub const PROBE: () = ((), " }>, align 1
@alloc_536c88f1efe532a97a4191a9bdf5bce0 = private unnamed_addr constant <{ [4 x i8] }> <{ [4 x i8] c").0;" }>, align 1
@alloc_299ed1b9b695e5e84bcda8ad8a729012 = private unnamed_addr constant <{ ptr, [8 x i8], ptr, [8 x i8] }> <{ ptr @alloc_e44cf3d860444b6561f1fc77d3a60029, [8 x i8] c"\1B\00\00\00\00\00\00\00", ptr @alloc_536c88f1efe532a97a4191a9bdf5bce0, [8 x i8] c"\04\00\00\00\00\00\00\00" }>, align 8
@alloc_1b169b1d8f58bb24ddfa9d380dfd5a22 = private unnamed_addr constant <{ ptr, [16 x i8] }> <{ ptr @alloc_95ac081d575456b80934242ddde50642, [16 x i8] c"[\00\00\00\00\00\00\00\93\01\00\00\16\00\00\00" }>, align 8
@alloc_5de5b778237022f7dfbd4b14eca9b832 = private unnamed_addr constant <{ [6 x i8] }> <{ [6 x i8] c"target" }>, align 1
@alloc_07f3eec4949a8d39db630a4a477c65b3 = private unnamed_addr constant <{ [23 x i8] }> <{ [23 x i8] c"CARGO_ENCODED_RUSTFLAGS" }>, align 1
@alloc_365e0f4ac7a4ea86a3f1f77427fa7258 = private unnamed_addr constant <{ [4 x i8] }> <{ [4 x i8] c"HOST" }>, align 1
@alloc_1819a6c431bb3771eb3dba68985bf705 = private unnamed_addr constant <{ [16 x i8] }> <{ [16 x i8] c"CARGO_TARGET_DIR" }>, align 1
@alloc_6707a1fd64d3d54e86dbc8841e6d816a = private unnamed_addr constant <{ [9 x i8] }> <{ [9 x i8] c"RUSTFLAGS" }>, align 1
@alloc_99ac8a81a24cac863217ce4a5cbfabea = private unnamed_addr constant <{ [5 x i8] }> <{ [5 x i8] c"Error" }>, align 1
@vtable.a = private unnamed_addr constant <{ [24 x i8], ptr }> <{ [24 x i8] c"\00\00\00\00\00\00\00\00\08\00\00\00\00\00\00\00\08\00\00\00\00\00\00\00", ptr @"_ZN42_$LT$$RF$T$u20$as$u20$core..fmt..Debug$GT$3fmt17hc8334ce5dd272815E" }>, align 8
@alloc_24a9d1d9c182d85dcff0523bfa2532d4 = private unnamed_addr constant <{ [2 x i8] }> <{ [2 x i8] c"Io" }>, align 1
@vtable.b = private unnamed_addr constant <{ [24 x i8], ptr }> <{ [24 x i8] c"\00\00\00\00\00\00\00\00\08\00\00\00\00\00\00\00\08\00\00\00\00\00\00\00", ptr @"_ZN42_$LT$$RF$T$u20$as$u20$core..fmt..Debug$GT$3fmt17hc138d714b14b3751E" }>, align 8
@alloc_cd8bd3d0cc5cd08c5d601c797c5ed9fe = private unnamed_addr constant <{ [3 x i8] }> <{ [3 x i8] c"Num" }>, align 1
@vtable.c = private unnamed_addr constant <{ [24 x i8], ptr }> <{ [24 x i8] c"\00\00\00\00\00\00\00\00\08\00\00\00\00\00\00\00\08\00\00\00\00\00\00\00", ptr @"_ZN42_$LT$$RF$T$u20$as$u20$core..fmt..Debug$GT$3fmt17h01f7828cce73eea7E" }>, align 8
@alloc_8d1e452acca118c45c51f5f491dc3aac = private unnamed_addr constant <{ [4 x i8] }> <{ [4 x i8] c"Utf8" }>, align 1
@vtable.d = private unnamed_addr constant <{ [24 x i8], ptr }> <{ [24 x i8] c"\00\00\00\00\00\00\00\00\08\00\00\00\00\00\00\00\08\00\00\00\00\00\00\00", ptr @"_ZN42_$LT$$RF$T$u20$as$u20$core..fmt..Debug$GT$3fmt17h78ad5071fc78d701E" }>, align 8
@alloc_d1c8b6c8f4895ee2bd032ee9bb16ee0f = private unnamed_addr constant <{ [5 x i8] }> <{ [5 x i8] c"Other" }>, align 1
@vtable.e = private unnamed_addr constant <{ [24 x i8], ptr }> <{ [24 x i8] c"\00\00\00\00\00\00\00\00\08\00\00\00\00\00\00\00\08\00\00\00\00\00\00\00", ptr @"_ZN42_$LT$$RF$T$u20$as$u20$core..fmt..Debug$GT$3fmt17h01b1c589fb32c800E" }>, align 8

; <core::iter::adapters::map::Map<I,F> as core::iter::traits::iterator::Iterator>::fold
; Function Attrs: nonlazybind uwtable
define void @"_ZN102_$LT$core..iter..adapters..map..Map$LT$I$C$F$GT$$u20$as$u20$core..iter..traits..iterator..Iterator$GT$4fold17h2ee96383b3dc6ee5E"(ptr %self.0, ptr %self.1, ptr align 8 %g) unnamed_addr #0 {
start:
; call core::iter::traits::iterator::Iterator::fold
  call void @_ZN4core4iter6traits8iterator8Iterator4fold17hc838c715b70d84f7E(ptr %self.0, ptr %self.1, ptr align 8 %g)
  ret void
}

; <core::iter::adapters::map::Map<I,F> as core::iter::traits::iterator::Iterator>::next
; Function Attrs: inlinehint nonlazybind uwtable
define void @"_ZN102_$LT$core..iter..adapters..map..Map$LT$I$C$F$GT$$u20$as$u20$core..iter..traits..iterator..Iterator$GT$4next17h3008ad96413358dfE"(ptr sret([24 x i8]) align 8 %_0, ptr align 8 %self) unnamed_addr #1 {
start:
  %_7 = alloca [24 x i8], align 8
  %self1 = alloca [16 x i8], align 8
; call <core::iter::adapters::filter::Filter<I,P> as core::iter::traits::iterator::Iterator>::next
  %0 = call { ptr, i64 } @"_ZN108_$LT$core..iter..adapters..filter..Filter$LT$I$C$P$GT$$u20$as$u20$core..iter..traits..iterator..Iterator$GT$4next17h781e9e0008974ca4E"(ptr align 8 %self)
  %1 = extractvalue { ptr, i64 } %0, 0
  %2 = extractvalue { ptr, i64 } %0, 1
  store ptr %1, ptr %self1, align 8
  %3 = getelementptr inbounds i8, ptr %self1, i64 8
  store i64 %2, ptr %3, align 8
  %f = getelementptr inbounds i8, ptr %self, i64 72
  %4 = load ptr, ptr %self1, align 8
  %5 = ptrtoint ptr %4 to i64
  %6 = icmp eq i64 %5, 0
  %_5 = select i1 %6, i64 0, i64 1
  %7 = icmp eq i64 %_5, 0
  br i1 %7, label %bb4, label %bb5

bb4:                                              ; preds = %start
  store i64 -9223372036854775808, ptr %_0, align 8
  br label %bb2

bb5:                                              ; preds = %start
  %x.0 = load ptr, ptr %self1, align 8
  %8 = getelementptr inbounds i8, ptr %self1, i64 8
  %x.1 = load i64, ptr %8, align 8
; call core::ops::function::impls::<impl core::ops::function::FnOnce<A> for &mut F>::call_once
  call void @"_ZN4core3ops8function5impls80_$LT$impl$u20$core..ops..function..FnOnce$LT$A$GT$$u20$for$u20$$RF$mut$u20$F$GT$9call_once17hf721dc5aa45fd9e3E"(ptr sret([24 x i8]) align 8 %_7, ptr align 1 %f, ptr align 1 %x.0, i64 %x.1)
  call void @llvm.memcpy.p0.p0.i64(ptr align 8 %_0, ptr align 8 %_7, i64 24, i1 false)
  br label %bb2

bb2:                                              ; preds = %bb5, %bb4
  ret void

bb3:                                              ; No predecessors!
  unreachable
}

; <core::iter::adapters::map::Map<I,F> as core::iter::traits::iterator::Iterator>::next
; Function Attrs: inlinehint nonlazybind uwtable
define void @"_ZN102_$LT$core..iter..adapters..map..Map$LT$I$C$F$GT$$u20$as$u20$core..iter..traits..iterator..Iterator$GT$4next17hadf8572720dc8c5fE"(ptr sret([24 x i8]) align 8 %_0, ptr align 8 %self) unnamed_addr #1 {
start:
  %_7 = alloca [24 x i8], align 8
  %self1 = alloca [16 x i8], align 8
; call <core::str::iter::Split<P> as core::iter::traits::iterator::Iterator>::next
  %0 = call { ptr, i64 } @"_ZN90_$LT$core..str..iter..Split$LT$P$GT$$u20$as$u20$core..iter..traits..iterator..Iterator$GT$4next17h767342948e6afeeaE"(ptr align 8 %self)
  %1 = extractvalue { ptr, i64 } %0, 0
  %2 = extractvalue { ptr, i64 } %0, 1
  store ptr %1, ptr %self1, align 8
  %3 = getelementptr inbounds i8, ptr %self1, i64 8
  store i64 %2, ptr %3, align 8
  %f = getelementptr inbounds i8, ptr %self, i64 72
  %4 = load ptr, ptr %self1, align 8
  %5 = ptrtoint ptr %4 to i64
  %6 = icmp eq i64 %5, 0
  %_5 = select i1 %6, i64 0, i64 1
  %7 = icmp eq i64 %_5, 0
  br i1 %7, label %bb4, label %bb5

bb4:                                              ; preds = %start
  store i64 -9223372036854775808, ptr %_0, align 8
  br label %bb2

bb5:                                              ; preds = %start
  %x.0 = load ptr, ptr %self1, align 8
  %8 = getelementptr inbounds i8, ptr %self1, i64 8
  %x.1 = load i64, ptr %8, align 8
; call core::ops::function::impls::<impl core::ops::function::FnOnce<A> for &mut F>::call_once
  call void @"_ZN4core3ops8function5impls80_$LT$impl$u20$core..ops..function..FnOnce$LT$A$GT$$u20$for$u20$$RF$mut$u20$F$GT$9call_once17hf721dc5aa45fd9e3E"(ptr sret([24 x i8]) align 8 %_7, ptr align 1 %f, ptr align 1 %x.0, i64 %x.1)
  call void @llvm.memcpy.p0.p0.i64(ptr align 8 %_0, ptr align 8 %_7, i64 24, i1 false)
  br label %bb2

bb2:                                              ; preds = %bb5, %bb4
  ret void

bb3:                                              ; No predecessors!
  unreachable
}

; <core::iter::adapters::map::Map<I,F> as core::iter::traits::iterator::Iterator>::next
; Function Attrs: inlinehint nonlazybind uwtable
define { ptr, i64 } @"_ZN102_$LT$core..iter..adapters..map..Map$LT$I$C$F$GT$$u20$as$u20$core..iter..traits..iterator..Iterator$GT$4next17hd31d9daa85e1f802E"(ptr align 8 %self) unnamed_addr #1 {
start:
  %self1 = alloca [16 x i8], align 8
  %_0 = alloca [16 x i8], align 8
; call <core::str::iter::SplitInclusive<P> as core::iter::traits::iterator::Iterator>::next
  %0 = call { ptr, i64 } @"_ZN99_$LT$core..str..iter..SplitInclusive$LT$P$GT$$u20$as$u20$core..iter..traits..iterator..Iterator$GT$4next17h970ed3ed81d85498E"(ptr align 8 %self)
  %1 = extractvalue { ptr, i64 } %0, 0
  %2 = extractvalue { ptr, i64 } %0, 1
  store ptr %1, ptr %self1, align 8
  %3 = getelementptr inbounds i8, ptr %self1, i64 8
  store i64 %2, ptr %3, align 8
  %f = getelementptr inbounds i8, ptr %self, i64 72
  %4 = load ptr, ptr %self1, align 8
  %5 = ptrtoint ptr %4 to i64
  %6 = icmp eq i64 %5, 0
  %_5 = select i1 %6, i64 0, i64 1
  %7 = icmp eq i64 %_5, 0
  br i1 %7, label %bb4, label %bb5

bb4:                                              ; preds = %start
  store ptr null, ptr %_0, align 8
  br label %bb2

bb5:                                              ; preds = %start
  %x.0 = load ptr, ptr %self1, align 8
  %8 = getelementptr inbounds i8, ptr %self1, i64 8
  %x.1 = load i64, ptr %8, align 8
; call core::ops::function::impls::<impl core::ops::function::FnOnce<A> for &mut F>::call_once
  %9 = call { ptr, i64 } @"_ZN4core3ops8function5impls80_$LT$impl$u20$core..ops..function..FnOnce$LT$A$GT$$u20$for$u20$$RF$mut$u20$F$GT$9call_once17h837896eb7fd0862fE"(ptr align 1 %f, ptr align 1 %x.0, i64 %x.1)
  %_7.0 = extractvalue { ptr, i64 } %9, 0
  %_7.1 = extractvalue { ptr, i64 } %9, 1
  store ptr %_7.0, ptr %_0, align 8
  %10 = getelementptr inbounds i8, ptr %_0, i64 8
  store i64 %_7.1, ptr %10, align 8
  br label %bb2

bb2:                                              ; preds = %bb5, %bb4
  %11 = load ptr, ptr %_0, align 8
  %12 = getelementptr inbounds i8, ptr %_0, i64 8
  %13 = load i64, ptr %12, align 8
  %14 = insertvalue { ptr, i64 } poison, ptr %11, 0
  %15 = insertvalue { ptr, i64 } %14, i64 %13, 1
  ret { ptr, i64 } %15

bb3:                                              ; No predecessors!
  unreachable
}

; <core::iter::adapters::map::Map<I,F> as core::iter::traits::iterator::Iterator>::try_fold
; Function Attrs: nonlazybind uwtable
define { ptr, i64 } @"_ZN102_$LT$core..iter..adapters..map..Map$LT$I$C$F$GT$$u20$as$u20$core..iter..traits..iterator..Iterator$GT$8try_fold17h49c282353741bd8cE"(ptr align 8 %self, ptr align 1 %g) unnamed_addr #0 {
start:
  %f = getelementptr inbounds i8, ptr %self, i64 72
; call core::iter::traits::iterator::Iterator::try_fold
  %0 = call { ptr, i64 } @_ZN4core4iter6traits8iterator8Iterator8try_fold17hc4164ed9452a37b7E(ptr align 8 %self, ptr align 1 %g, ptr align 1 %f)
  %_0.0 = extractvalue { ptr, i64 } %0, 0
  %_0.1 = extractvalue { ptr, i64 } %0, 1
  %1 = insertvalue { ptr, i64 } poison, ptr %_0.0, 0
  %2 = insertvalue { ptr, i64 } %1, i64 %_0.1, 1
  ret { ptr, i64 } %2
}

; <core::iter::adapters::map::Map<I,F> as core::iter::traits::iterator::Iterator>::size_hint
; Function Attrs: inlinehint nonlazybind uwtable
define void @"_ZN102_$LT$core..iter..adapters..map..Map$LT$I$C$F$GT$$u20$as$u20$core..iter..traits..iterator..Iterator$GT$9size_hint17h2a41fca134b1319cE"(ptr sret([24 x i8]) align 8 %_0, ptr align 8 %self) unnamed_addr #1 {
start:
; call <core::iter::adapters::filter::Filter<I,P> as core::iter::traits::iterator::Iterator>::size_hint
  call void @"_ZN108_$LT$core..iter..adapters..filter..Filter$LT$I$C$P$GT$$u20$as$u20$core..iter..traits..iterator..Iterator$GT$9size_hint17hc00b85c099b0b49cE"(ptr sret([24 x i8]) align 8 %_0, ptr align 8 %self)
  ret void
}

; <core::iter::adapters::map::Map<I,F> as core::iter::traits::iterator::Iterator>::size_hint
; Function Attrs: inlinehint nonlazybind uwtable
define void @"_ZN102_$LT$core..iter..adapters..map..Map$LT$I$C$F$GT$$u20$as$u20$core..iter..traits..iterator..Iterator$GT$9size_hint17h7061b9d328b71e4eE"(ptr sret([24 x i8]) align 8 %_0, ptr align 8 %self) unnamed_addr #1 {
start:
; call core::iter::traits::iterator::Iterator::size_hint
  call void @_ZN4core4iter6traits8iterator8Iterator9size_hint17h20fdb9ef4fb4530cE(ptr sret([24 x i8]) align 8 %_0, ptr align 8 %self)
  ret void
}

; <core::iter::adapters::map::Map<I,F> as core::iter::traits::iterator::Iterator>::size_hint
; Function Attrs: inlinehint nonlazybind uwtable
define void @"_ZN102_$LT$core..iter..adapters..map..Map$LT$I$C$F$GT$$u20$as$u20$core..iter..traits..iterator..Iterator$GT$9size_hint17hd0fff16859736450E"(ptr sret([24 x i8]) align 8 %_0, ptr align 8 %self) unnamed_addr #1 {
start:
; call <core::str::iter::Chars as core::iter::traits::iterator::Iterator>::size_hint
  call void @"_ZN81_$LT$core..str..iter..Chars$u20$as$u20$core..iter..traits..iterator..Iterator$GT$9size_hint17h7e01f2638e7cd970E"(ptr sret([24 x i8]) align 8 %_0, ptr align 8 %self)
  ret void
}

; <core::iter::adapters::map::Map<I,F> as core::iter::traits::iterator::Iterator>::size_hint
; Function Attrs: inlinehint nonlazybind uwtable
define void @"_ZN102_$LT$core..iter..adapters..map..Map$LT$I$C$F$GT$$u20$as$u20$core..iter..traits..iterator..Iterator$GT$9size_hint17hdccf096f5ba38a7bE"(ptr sret([24 x i8]) align 8 %_0, ptr align 8 %self) unnamed_addr #1 {
start:
; call core::iter::traits::iterator::Iterator::size_hint
  call void @_ZN4core4iter6traits8iterator8Iterator9size_hint17h20fdb9ef4fb4530cE(ptr sret([24 x i8]) align 8 %_0, ptr align 8 %self)
  ret void
}

; <core::str::iter::CharIndices as core::iter::traits::double_ended::DoubleEndedIterator>::next_back
; Function Attrs: inlinehint nonlazybind uwtable
define internal { i64, i32 } @"_ZN102_$LT$core..str..iter..CharIndices$u20$as$u20$core..iter..traits..double_ended..DoubleEndedIterator$GT$9next_back17hd14856e10f5877b4E"(ptr align 8 %self) unnamed_addr #1 {
start:
  %self1 = alloca [4 x i8], align 4
  %_0 = alloca [16 x i8], align 8
; call <core::str::iter::Chars as core::iter::traits::double_ended::DoubleEndedIterator>::next_back
  %0 = call i32 @"_ZN96_$LT$core..str..iter..Chars$u20$as$u20$core..iter..traits..double_ended..DoubleEndedIterator$GT$9next_back17h1e4b63369521bf85E"(ptr align 8 %self)
  store i32 %0, ptr %self1, align 4
  %f = getelementptr inbounds i8, ptr %self, i64 16
  %1 = load i32, ptr %self1, align 4
  %2 = icmp eq i32 %1, 1114112
  %_6 = select i1 %2, i64 0, i64 1
  %3 = icmp eq i64 %_6, 0
  br i1 %3, label %bb4, label %bb5

bb4:                                              ; preds = %start
  %4 = load i64, ptr @0, align 8
  %5 = load i32, ptr getelementptr inbounds (i8, ptr @0, i64 8), align 8
  store i64 %4, ptr %_0, align 8
  %6 = getelementptr inbounds i8, ptr %_0, i64 8
  store i32 %5, ptr %6, align 8
  br label %bb2

bb5:                                              ; preds = %start
  %x = load i32, ptr %self1, align 4
  %_10 = load i64, ptr %f, align 8
  %self2 = getelementptr inbounds i8, ptr %self, i64 8
  %end = load ptr, ptr %self2, align 8
  %subtracted = load ptr, ptr %self, align 8
; call core::ptr::const_ptr::<impl *const T>::sub_ptr
  %_11 = call i64 @"_ZN4core3ptr9const_ptr33_$LT$impl$u20$$BP$const$u20$T$GT$7sub_ptr17h461f5615e6a30eadE"(ptr %end, ptr %subtracted)
  %index = add i64 %_10, %_11
  store i64 %index, ptr %_0, align 8
  %7 = getelementptr inbounds i8, ptr %_0, i64 8
  store i32 %x, ptr %7, align 8
  br label %bb2

bb2:                                              ; preds = %bb5, %bb4
  %8 = load i64, ptr %_0, align 8
  %9 = getelementptr inbounds i8, ptr %_0, i64 8
  %10 = load i32, ptr %9, align 8
  %11 = insertvalue { i64, i32 } poison, i64 %8, 0
  %12 = insertvalue { i64, i32 } %11, i32 %10, 1
  ret { i64, i32 } %12

bb3:                                              ; No predecessors!
  unreachable
}

; <core::ops::control_flow::ControlFlow<B,C> as core::ops::try_trait::FromResidual>::from_residual
; Function Attrs: inlinehint nonlazybind uwtable
define { i64, i64 } @"_ZN104_$LT$core..ops..control_flow..ControlFlow$LT$B$C$C$GT$$u20$as$u20$core..ops..try_trait..FromResidual$GT$13from_residual17h82a05b7bf27f489dE"(i64 %0) unnamed_addr #1 {
start:
  %_0 = alloca [16 x i8], align 8
  %residual = alloca [8 x i8], align 8
  store i64 %0, ptr %residual, align 8
  %b = load i64, ptr %residual, align 8
  %1 = getelementptr inbounds i8, ptr %_0, i64 8
  store i64 %b, ptr %1, align 8
  store i64 1, ptr %_0, align 8
  %2 = load i64, ptr %_0, align 8
  %3 = getelementptr inbounds i8, ptr %_0, i64 8
  %4 = load i64, ptr %3, align 8
  %5 = insertvalue { i64, i64 } poison, i64 %2, 0
  %6 = insertvalue { i64, i64 } %5, i64 %4, 1
  ret { i64, i64 } %6
}

; <core::ops::control_flow::ControlFlow<B,C> as core::ops::try_trait::FromResidual>::from_residual
; Function Attrs: inlinehint nonlazybind uwtable
define zeroext i1 @"_ZN104_$LT$core..ops..control_flow..ControlFlow$LT$B$C$C$GT$$u20$as$u20$core..ops..try_trait..FromResidual$GT$13from_residual17hbf07f007fbaf36d0E"() unnamed_addr #1 {
start:
  %_0 = alloca [1 x i8], align 1
  store i8 1, ptr %_0, align 1
  %0 = load i8, ptr %_0, align 1
  %1 = trunc i8 %0 to i1
  ret i1 %1
}

; <core::ops::control_flow::ControlFlow<B,C> as core::ops::try_trait::FromResidual>::from_residual
; Function Attrs: inlinehint nonlazybind uwtable
define { ptr, i64 } @"_ZN104_$LT$core..ops..control_flow..ControlFlow$LT$B$C$C$GT$$u20$as$u20$core..ops..try_trait..FromResidual$GT$13from_residual17hf8937d8d6d9821cbE"(ptr align 1 %0, i64 %1) unnamed_addr #1 {
start:
  %_0 = alloca [16 x i8], align 8
  %residual = alloca [16 x i8], align 8
  store ptr %0, ptr %residual, align 8
  %2 = getelementptr inbounds i8, ptr %residual, i64 8
  store i64 %1, ptr %2, align 8
  %b.0 = load ptr, ptr %residual, align 8
  %3 = getelementptr inbounds i8, ptr %residual, i64 8
  %b.1 = load i64, ptr %3, align 8
  store ptr %b.0, ptr %_0, align 8
  %4 = getelementptr inbounds i8, ptr %_0, i64 8
  store i64 %b.1, ptr %4, align 8
  %5 = load ptr, ptr %_0, align 8
  %6 = getelementptr inbounds i8, ptr %_0, i64 8
  %7 = load i64, ptr %6, align 8
  %8 = insertvalue { ptr, i64 } poison, ptr %5, 0
  %9 = insertvalue { ptr, i64 } %8, i64 %7, 1
  ret { ptr, i64 } %9
}

; <core::str::pattern::MultiCharEqSearcher<C> as core::str::pattern::ReverseSearcher>::next_back
; Function Attrs: inlinehint nonlazybind uwtable
define void @"_ZN104_$LT$core..str..pattern..MultiCharEqSearcher$LT$C$GT$$u20$as$u20$core..str..pattern..ReverseSearcher$GT$9next_back17h9d8b1ba748dc37c7E"(ptr sret([24 x i8]) align 8 %_0, ptr align 8 %self) unnamed_addr #1 {
start:
  %_5 = alloca [16 x i8], align 8
  %s = getelementptr inbounds i8, ptr %self, i64 16
  %self1 = getelementptr inbounds i8, ptr %self, i64 16
  %0 = getelementptr inbounds i8, ptr %self, i64 16
  %self2 = getelementptr inbounds i8, ptr %0, i64 8
  %end = load ptr, ptr %self2, align 8
  %1 = getelementptr inbounds i8, ptr %self, i64 16
  %subtracted = load ptr, ptr %1, align 8
; call core::ptr::const_ptr::<impl *const T>::sub_ptr
  %pre_len = call i64 @"_ZN4core3ptr9const_ptr33_$LT$impl$u20$$BP$const$u20$T$GT$7sub_ptr17h461f5615e6a30eadE"(ptr %end, ptr %subtracted)
  %_6 = getelementptr inbounds i8, ptr %self, i64 16
; call <core::str::iter::CharIndices as core::iter::traits::double_ended::DoubleEndedIterator>::next_back
  %2 = call { i64, i32 } @"_ZN102_$LT$core..str..iter..CharIndices$u20$as$u20$core..iter..traits..double_ended..DoubleEndedIterator$GT$9next_back17hd14856e10f5877b4E"(ptr align 8 %_6)
  %3 = extractvalue { i64, i32 } %2, 0
  %4 = extractvalue { i64, i32 } %2, 1
  store i64 %3, ptr %_5, align 8
  %5 = getelementptr inbounds i8, ptr %_5, i64 8
  store i32 %4, ptr %5, align 8
  %6 = getelementptr inbounds i8, ptr %_5, i64 8
  %7 = load i32, ptr %6, align 8
  %8 = icmp eq i32 %7, 1114112
  %_7 = select i1 %8, i64 0, i64 1
  %9 = icmp eq i64 %_7, 1
  br i1 %9, label %bb2, label %bb6

bb2:                                              ; preds = %start
  %i = load i64, ptr %_5, align 8
  %10 = getelementptr inbounds i8, ptr %_5, i64 8
  %c = load i32, ptr %10, align 8
  %self3 = getelementptr inbounds i8, ptr %self, i64 16
  %11 = getelementptr inbounds i8, ptr %self, i64 16
  %self4 = getelementptr inbounds i8, ptr %11, i64 8
  %end5 = load ptr, ptr %self4, align 8
  %12 = getelementptr inbounds i8, ptr %self, i64 16
  %subtracted6 = load ptr, ptr %12, align 8
; call core::ptr::const_ptr::<impl *const T>::sub_ptr
  %len = call i64 @"_ZN4core3ptr9const_ptr33_$LT$impl$u20$$BP$const$u20$T$GT$7sub_ptr17h461f5615e6a30eadE"(ptr %end5, ptr %subtracted6)
  %char_len = sub i64 %pre_len, %len
  %_14 = getelementptr inbounds i8, ptr %self, i64 40
; call <F as core::str::pattern::MultiCharEq>::matches
  %_13 = call zeroext i1 @"_ZN53_$LT$F$u20$as$u20$core..str..pattern..MultiCharEq$GT$7matches17h4eea3bad872ddb44E"(ptr align 1 %_14, i32 %c)
  br i1 %_13, label %bb4, label %bb5

bb6:                                              ; preds = %start
  store i64 2, ptr %_0, align 8
  br label %bb8

bb5:                                              ; preds = %bb2
  %_16 = add i64 %i, %char_len
  %13 = getelementptr inbounds i8, ptr %_0, i64 8
  store i64 %i, ptr %13, align 8
  %14 = getelementptr inbounds i8, ptr %_0, i64 16
  store i64 %_16, ptr %14, align 8
  store i64 1, ptr %_0, align 8
  br label %bb7

bb4:                                              ; preds = %bb2
  %_15 = add i64 %i, %char_len
  %15 = getelementptr inbounds i8, ptr %_0, i64 8
  store i64 %i, ptr %15, align 8
  %16 = getelementptr inbounds i8, ptr %_0, i64 16
  store i64 %_15, ptr %16, align 8
  store i64 0, ptr %_0, align 8
  br label %bb7

bb7:                                              ; preds = %bb4, %bb5
  br label %bb8

bb8:                                              ; preds = %bb6, %bb7
  ret void

bb11:                                             ; No predecessors!
  unreachable
}

; <std::ffi::os_str::OsString as core::ops::index::Index<core::ops::range::RangeFull>>::index
; Function Attrs: inlinehint nonlazybind uwtable
define internal { ptr, i64 } @"_ZN105_$LT$std..ffi..os_str..OsString$u20$as$u20$core..ops..index..Index$LT$core..ops..range..RangeFull$GT$$GT$5index17h7aa7bd72229d06c3E"(ptr align 8 %self, ptr align 8 %0) unnamed_addr #1 {
start:
  %1 = getelementptr inbounds i8, ptr %self, i64 8
  %self1 = load ptr, ptr %1, align 8
  %2 = getelementptr inbounds i8, ptr %self, i64 16
  %len = load i64, ptr %2, align 8
  br label %bb3

bb3:                                              ; preds = %start
  %3 = insertvalue { ptr, i64 } poison, ptr %self1, 0
  %4 = insertvalue { ptr, i64 } %3, i64 %len, 1
  ret { ptr, i64 } %4

bb1:                                              ; No predecessors!
  unreachable

bb2:                                              ; No predecessors!
  unreachable
}

; <core::ops::range::Range<usize> as core::slice::index::SliceIndex<[T]>>::get_unchecked
; Function Attrs: inlinehint nonlazybind uwtable
define { ptr, i64 } @"_ZN106_$LT$core..ops..range..Range$LT$usize$GT$$u20$as$u20$core..slice..index..SliceIndex$LT$$u5b$T$u5d$$GT$$GT$13get_unchecked17h46e8bcc0f02f233aE"(i64 %self.0, i64 %self.1, ptr %slice.0, i64 %slice.1) unnamed_addr #1 {
start:
  %rhs = alloca [8 x i8], align 8
  %self = alloca [8 x i8], align 8
  br label %bb3

bb3:                                              ; preds = %start
  store i64 %self.1, ptr %self, align 8
  store i64 %self.0, ptr %rhs, align 8
  br label %bb5

bb5:                                              ; preds = %bb4, %bb3
  %0 = load i64, ptr %self, align 8
  %1 = load i64, ptr %rhs, align 8
  %new_len = sub nuw i64 %0, %1
  %count = load i64, ptr %rhs, align 8
  %2 = load i64, ptr %rhs, align 8
  %data = getelementptr inbounds i8, ptr %slice.0, i64 %2
  %3 = insertvalue { ptr, i64 } poison, ptr %data, 0
  %4 = insertvalue { ptr, i64 } %3, i64 %new_len, 1
  ret { ptr, i64 } %4

bb1:                                              ; No predecessors!
  unreachable

bb2:                                              ; No predecessors!
  unreachable

bb4:                                              ; No predecessors!
  %5 = load i64, ptr %self, align 8
  %6 = load i64, ptr %rhs, align 8
; call core::num::<impl usize>::unchecked_sub::precondition_check
  call void @"_ZN4core3num23_$LT$impl$u20$usize$GT$13unchecked_sub18precondition_check17h7836aa87c5d3a5a3E"(i64 %5, i64 %6) #19
  br label %bb5
}

; <core::ops::range::Range<usize> as core::slice::index::SliceIndex<[T]>>::get_unchecked_mut
; Function Attrs: inlinehint nonlazybind uwtable
define { ptr, i64 } @"_ZN106_$LT$core..ops..range..Range$LT$usize$GT$$u20$as$u20$core..slice..index..SliceIndex$LT$$u5b$T$u5d$$GT$$GT$17get_unchecked_mut17he3bdb672f3d3d93bE"(i64 %self.0, i64 %self.1, ptr %slice.0, i64 %slice.1) unnamed_addr #1 {
start:
  %rhs = alloca [8 x i8], align 8
  %self = alloca [8 x i8], align 8
  br label %bb3

bb3:                                              ; preds = %start
  store i64 %self.1, ptr %self, align 8
  store i64 %self.0, ptr %rhs, align 8
  br label %bb5

bb5:                                              ; preds = %bb4, %bb3
  %0 = load i64, ptr %self, align 8
  %1 = load i64, ptr %rhs, align 8
  %new_len = sub nuw i64 %0, %1
  %count = load i64, ptr %rhs, align 8
  %2 = load i64, ptr %rhs, align 8
  %data = getelementptr inbounds i8, ptr %slice.0, i64 %2
  %3 = insertvalue { ptr, i64 } poison, ptr %data, 0
  %4 = insertvalue { ptr, i64 } %3, i64 %new_len, 1
  ret { ptr, i64 } %4

bb1:                                              ; No predecessors!
  unreachable

bb2:                                              ; No predecessors!
  unreachable

bb4:                                              ; No predecessors!
  %5 = load i64, ptr %self, align 8
  %6 = load i64, ptr %rhs, align 8
; call core::num::<impl usize>::unchecked_sub::precondition_check
  call void @"_ZN4core3num23_$LT$impl$u20$usize$GT$13unchecked_sub18precondition_check17h7836aa87c5d3a5a3E"(i64 %5, i64 %6) #19
  br label %bb5
}

; <core::ops::range::Range<usize> as core::slice::index::SliceIndex<[T]>>::get
; Function Attrs: inlinehint nonlazybind uwtable
define { ptr, i64 } @"_ZN106_$LT$core..ops..range..Range$LT$usize$GT$$u20$as$u20$core..slice..index..SliceIndex$LT$$u5b$T$u5d$$GT$$GT$3get17h93b4c459f501cac5E"(i64 %self.0, i64 %self.1, ptr align 1 %slice.0, i64 %slice.1) unnamed_addr #1 {
start:
  %_0 = alloca [16 x i8], align 8
  %_3 = icmp ugt i64 %self.0, %self.1
  br i1 %_3, label %bb1, label %bb2

bb2:                                              ; preds = %start
  %_6 = icmp ugt i64 %self.1, %slice.1
  br i1 %_6, label %bb3, label %bb5

bb1:                                              ; preds = %start
  br label %bb4

bb5:                                              ; preds = %bb2
; call <core::ops::range::Range<usize> as core::slice::index::SliceIndex<[T]>>::get_unchecked
  %0 = call { ptr, i64 } @"_ZN106_$LT$core..ops..range..Range$LT$usize$GT$$u20$as$u20$core..slice..index..SliceIndex$LT$$u5b$T$u5d$$GT$$GT$13get_unchecked17h46e8bcc0f02f233aE"(i64 %self.0, i64 %self.1, ptr %slice.0, i64 %slice.1)
  %_9.0 = extractvalue { ptr, i64 } %0, 0
  %_9.1 = extractvalue { ptr, i64 } %0, 1
  store ptr %_9.0, ptr %_0, align 8
  %1 = getelementptr inbounds i8, ptr %_0, i64 8
  store i64 %_9.1, ptr %1, align 8
  br label %bb7

bb3:                                              ; preds = %bb2
  br label %bb4

bb7:                                              ; preds = %bb4, %bb5
  %2 = load ptr, ptr %_0, align 8
  %3 = getelementptr inbounds i8, ptr %_0, i64 8
  %4 = load i64, ptr %3, align 8
  %5 = insertvalue { ptr, i64 } poison, ptr %2, 0
  %6 = insertvalue { ptr, i64 } %5, i64 %4, 1
  ret { ptr, i64 } %6

bb4:                                              ; preds = %bb1, %bb3
  %7 = load ptr, ptr @1, align 8
  %8 = load i64, ptr getelementptr inbounds (i8, ptr @1, i64 8), align 8
  store ptr %7, ptr %_0, align 8
  %9 = getelementptr inbounds i8, ptr %_0, i64 8
  store i64 %8, ptr %9, align 8
  br label %bb7
}

; <core::ops::range::Range<usize> as core::slice::index::SliceIndex<[T]>>::index_mut
; Function Attrs: inlinehint nonlazybind uwtable
define { ptr, i64 } @"_ZN106_$LT$core..ops..range..Range$LT$usize$GT$$u20$as$u20$core..slice..index..SliceIndex$LT$$u5b$T$u5d$$GT$$GT$9index_mut17h2733f67402e151a0E"(i64 %self.0, i64 %self.1, ptr align 1 %slice.0, i64 %slice.1, ptr align 8 %0) unnamed_addr #1 {
start:
  %_3 = icmp ugt i64 %self.0, %self.1
  br i1 %_3, label %bb1, label %bb2

bb2:                                              ; preds = %start
  %_7 = icmp ugt i64 %self.1, %slice.1
  br i1 %_7, label %bb3, label %bb4

bb1:                                              ; preds = %start
; call core::slice::index::slice_index_order_fail
  call void @_ZN4core5slice5index22slice_index_order_fail17h035de9af16d5a022E(i64 %self.0, i64 %self.1, ptr align 8 %0) #20
  unreachable

bb4:                                              ; preds = %bb2
; call <core::ops::range::Range<usize> as core::slice::index::SliceIndex<[T]>>::get_unchecked_mut
  %1 = call { ptr, i64 } @"_ZN106_$LT$core..ops..range..Range$LT$usize$GT$$u20$as$u20$core..slice..index..SliceIndex$LT$$u5b$T$u5d$$GT$$GT$17get_unchecked_mut17he3bdb672f3d3d93bE"(i64 %self.0, i64 %self.1, ptr %slice.0, i64 %slice.1)
  %_11.0 = extractvalue { ptr, i64 } %1, 0
  %_11.1 = extractvalue { ptr, i64 } %1, 1
  %2 = insertvalue { ptr, i64 } poison, ptr %_11.0, 0
  %3 = insertvalue { ptr, i64 } %2, i64 %_11.1, 1
  ret { ptr, i64 } %3

bb3:                                              ; preds = %bb2
; call core::slice::index::slice_end_index_len_fail
  call void @_ZN4core5slice5index24slice_end_index_len_fail17h0342d27fee357d65E(i64 %self.1, i64 %slice.1, ptr align 8 %0) #20
  unreachable
}

; <core::slice::iter::Iter<T> as core::iter::traits::double_ended::DoubleEndedIterator>::next_back
; Function Attrs: inlinehint nonlazybind uwtable
define align 1 ptr @"_ZN106_$LT$core..slice..iter..Iter$LT$T$GT$$u20$as$u20$core..iter..traits..double_ended..DoubleEndedIterator$GT$9next_back17h8cce27ee1fb8a939E"(ptr align 8 %self) unnamed_addr #1 {
start:
  %_10.i = alloca [8 x i8], align 8
  %_0.i = alloca [8 x i8], align 8
  %self1 = alloca [8 x i8], align 8
  %end = alloca [8 x i8], align 8
  %_2 = alloca [1 x i8], align 1
  %_0 = alloca [8 x i8], align 8
  br label %bb2

bb2:                                              ; preds = %start
  %self2 = getelementptr inbounds i8, ptr %self, i64 8
  %0 = load ptr, ptr %self2, align 8
  store ptr %0, ptr %end, align 8
  %self3 = load ptr, ptr %self, align 8
  %_17 = load ptr, ptr %end, align 8
  %1 = icmp eq ptr %self3, %_17
  %2 = zext i1 %1 to i8
  store i8 %2, ptr %_2, align 1
  br label %bb3

bb3:                                              ; preds = %bb2
  %3 = load i8, ptr %_2, align 1
  %4 = trunc i8 %3 to i1
  br i1 %4, label %bb4, label %bb5

bb1:                                              ; No predecessors!
  unreachable

bb5:                                              ; preds = %bb3
  %self1.i = getelementptr inbounds i8, ptr %self, i64 8
  %self2.i = load ptr, ptr %self1.i, align 8
  %_19.i = getelementptr inbounds i8, ptr %self2.i, i64 -1
  store ptr %_19.i, ptr %_10.i, align 8
  %5 = load ptr, ptr %_10.i, align 8
  store ptr %5, ptr %self1.i, align 8
  %6 = load ptr, ptr %self1.i, align 8
  store ptr %6, ptr %_0.i, align 8
  %7 = load ptr, ptr %_0.i, align 8
  store ptr %7, ptr %self1, align 8
  %_21 = load ptr, ptr %self1, align 8
  store ptr %_21, ptr %_0, align 8
  br label %bb6

bb4:                                              ; preds = %bb3
  store ptr null, ptr %_0, align 8
  br label %bb6

bb6:                                              ; preds = %bb4, %bb5
  %8 = load ptr, ptr %_0, align 8
  ret ptr %8
}

; <core::str::pattern::CharPredicateSearcher<F> as core::str::pattern::ReverseSearcher>::next_reject_back
; Function Attrs: inlinehint nonlazybind uwtable
define void @"_ZN106_$LT$core..str..pattern..CharPredicateSearcher$LT$F$GT$$u20$as$u20$core..str..pattern..ReverseSearcher$GT$16next_reject_back17had39e4f7b0446576E"(ptr sret([24 x i8]) align 8 %_0, ptr align 8 %self) unnamed_addr #1 {
start:
  %_3 = alloca [24 x i8], align 8
  br label %bb1

bb1:                                              ; preds = %bb5, %start
; call <core::str::pattern::MultiCharEqSearcher<C> as core::str::pattern::ReverseSearcher>::next_back
  call void @"_ZN104_$LT$core..str..pattern..MultiCharEqSearcher$LT$C$GT$$u20$as$u20$core..str..pattern..ReverseSearcher$GT$9next_back17h9d8b1ba748dc37c7E"(ptr sret([24 x i8]) align 8 %_3, ptr align 8 %self)
  %_4 = load i64, ptr %_3, align 8
  switch i64 %_4, label %bb7 [
    i64 1, label %bb3
    i64 2, label %bb4
    i64 0, label %bb5
  ]

bb7:                                              ; preds = %bb1
  unreachable

bb3:                                              ; preds = %bb1
  %0 = getelementptr inbounds i8, ptr %_3, i64 8
  %a = load i64, ptr %0, align 8
  %1 = getelementptr inbounds i8, ptr %_3, i64 16
  %b = load i64, ptr %1, align 8
  %2 = getelementptr inbounds i8, ptr %_0, i64 8
  store i64 %a, ptr %2, align 8
  %3 = getelementptr inbounds i8, ptr %2, i64 8
  store i64 %b, ptr %3, align 8
  store i64 1, ptr %_0, align 8
  br label %bb6

bb4:                                              ; preds = %bb1
  store i64 0, ptr %_0, align 8
  br label %bb6

bb5:                                              ; preds = %bb1
  br label %bb1

bb6:                                              ; preds = %bb4, %bb3
  ret void
}

; <core::iter::adapters::filter::Filter<I,P> as core::iter::traits::iterator::Iterator>::next
; Function Attrs: inlinehint nonlazybind uwtable
define { ptr, i64 } @"_ZN108_$LT$core..iter..adapters..filter..Filter$LT$I$C$P$GT$$u20$as$u20$core..iter..traits..iterator..Iterator$GT$4next17h781e9e0008974ca4E"(ptr align 8 %self) unnamed_addr #1 {
start:
  %_3 = getelementptr inbounds i8, ptr %self, i64 72
; call core::iter::traits::iterator::Iterator::find
  %0 = call { ptr, i64 } @_ZN4core4iter6traits8iterator8Iterator4find17hc25923a42a134cabE(ptr align 8 %self, ptr align 1 %_3)
  %_0.0 = extractvalue { ptr, i64 } %0, 0
  %_0.1 = extractvalue { ptr, i64 } %0, 1
  %1 = insertvalue { ptr, i64 } poison, ptr %_0.0, 0
  %2 = insertvalue { ptr, i64 } %1, i64 %_0.1, 1
  ret { ptr, i64 } %2
}

; <core::iter::adapters::filter::Filter<I,P> as core::iter::traits::iterator::Iterator>::size_hint
; Function Attrs: inlinehint nonlazybind uwtable
define void @"_ZN108_$LT$core..iter..adapters..filter..Filter$LT$I$C$P$GT$$u20$as$u20$core..iter..traits..iterator..Iterator$GT$9size_hint17hc00b85c099b0b49cE"(ptr sret([24 x i8]) align 8 %_0, ptr align 8 %self) unnamed_addr #1 {
start:
  %_3 = alloca [24 x i8], align 8
; call <core::iter::adapters::map::Map<I,F> as core::iter::traits::iterator::Iterator>::size_hint
  call void @"_ZN102_$LT$core..iter..adapters..map..Map$LT$I$C$F$GT$$u20$as$u20$core..iter..traits..iterator..Iterator$GT$9size_hint17h7061b9d328b71e4eE"(ptr sret([24 x i8]) align 8 %_3, ptr align 8 %self)
  %0 = getelementptr inbounds i8, ptr %_3, i64 8
  %upper.0 = load i64, ptr %0, align 8
  %1 = getelementptr inbounds i8, ptr %0, i64 8
  %upper.1 = load i64, ptr %1, align 8
  store i64 0, ptr %_0, align 8
  %2 = getelementptr inbounds i8, ptr %_0, i64 8
  store i64 %upper.0, ptr %2, align 8
  %3 = getelementptr inbounds i8, ptr %2, i64 8
  store i64 %upper.1, ptr %3, align 8
  ret void
}

; <alloc::vec::Vec<T> as alloc::vec::spec_from_iter_nested::SpecFromIterNested<T,I>>::from_iter
; Function Attrs: nonlazybind uwtable
define void @"_ZN111_$LT$alloc..vec..Vec$LT$T$GT$$u20$as$u20$alloc..vec..spec_from_iter_nested..SpecFromIterNested$LT$T$C$I$GT$$GT$9from_iter17h10e6ea87a49e7450E"(ptr sret([24 x i8]) align 8 %_0, ptr align 8 %iterator) unnamed_addr #0 personality ptr @rust_eh_personality {
start:
  %0 = alloca [8 x i8], align 8
  %1 = alloca [16 x i8], align 8
  %_24 = alloca [24 x i8], align 8
  %_20 = alloca [1 x i8], align 1
  %_19 = alloca [72 x i8], align 8
  %src = alloca [24 x i8], align 8
  %vector1 = alloca [24 x i8], align 8
  %_8 = alloca [24 x i8], align 8
  %element = alloca [24 x i8], align 8
  %_3 = alloca [24 x i8], align 8
  %vector = alloca [24 x i8], align 8
  store i8 1, ptr %_20, align 1
; invoke <core::iter::adapters::map::Map<I,F> as core::iter::traits::iterator::Iterator>::next
  invoke void @"_ZN102_$LT$core..iter..adapters..map..Map$LT$I$C$F$GT$$u20$as$u20$core..iter..traits..iterator..Iterator$GT$4next17h3008ad96413358dfE"(ptr sret([24 x i8]) align 8 %_3, ptr align 8 %iterator)
          to label %bb1 unwind label %cleanup

bb11:                                             ; preds = %bb9, %bb7, %cleanup
  %2 = load i8, ptr %_20, align 1
  %3 = trunc i8 %2 to i1
  br i1 %3, label %bb10, label %bb8

cleanup:                                          ; preds = %start
  %4 = landingpad { ptr, i32 }
          cleanup
  %5 = extractvalue { ptr, i32 } %4, 0
  %6 = extractvalue { ptr, i32 } %4, 1
  store ptr %5, ptr %1, align 8
  %7 = getelementptr inbounds i8, ptr %1, i64 8
  store i32 %6, ptr %7, align 8
  br label %bb11

bb1:                                              ; preds = %start
  %8 = load i64, ptr %_3, align 8
  %9 = icmp eq i64 %8, -9223372036854775808
  %_5 = select i1 %9, i64 0, i64 1
  %10 = icmp eq i64 %_5, 0
  br i1 %10, label %bb12, label %bb3

bb12:                                             ; preds = %bb1
  store i64 0, ptr %_0, align 8
  %11 = getelementptr inbounds i8, ptr %_0, i64 8
  store ptr inttoptr (i64 8 to ptr), ptr %11, align 8
  %12 = getelementptr inbounds i8, ptr %_0, i64 16
  store i64 0, ptr %12, align 8
  br label %bb6

bb3:                                              ; preds = %bb1
  call void @llvm.memcpy.p0.p0.i64(ptr align 8 %element, ptr align 8 %_3, i64 24, i1 false)
; invoke <core::iter::adapters::map::Map<I,F> as core::iter::traits::iterator::Iterator>::size_hint
  invoke void @"_ZN102_$LT$core..iter..adapters..map..Map$LT$I$C$F$GT$$u20$as$u20$core..iter..traits..iterator..Iterator$GT$9size_hint17h2a41fca134b1319cE"(ptr sret([24 x i8]) align 8 %_8, ptr align 8 %iterator)
          to label %bb4 unwind label %cleanup2

bb6:                                              ; preds = %bb5, %bb12
  ret void

bb9:                                              ; preds = %cleanup2
; invoke core::ptr::drop_in_place<alloc::string::String>
  invoke void @"_ZN4core3ptr42drop_in_place$LT$alloc..string..String$GT$17h007215f0c9e60290E"(ptr align 8 %element) #21
          to label %bb11 unwind label %terminate

cleanup2:                                         ; preds = %bb16, %bb14, %bb4, %bb3
  %13 = landingpad { ptr, i32 }
          cleanup
  %14 = extractvalue { ptr, i32 } %13, 0
  %15 = extractvalue { ptr, i32 } %13, 1
  store ptr %14, ptr %1, align 8
  %16 = getelementptr inbounds i8, ptr %1, i64 8
  store i32 %15, ptr %16, align 8
  br label %bb9

bb4:                                              ; preds = %bb3
  %lower = load i64, ptr %_8, align 8
  %17 = call i64 @llvm.uadd.sat.i64(i64 %lower, i64 1)
  store i64 %17, ptr %0, align 8
  %v2 = load i64, ptr %0, align 8
; invoke core::cmp::max_by
  %initial_capacity = invoke i64 @_ZN4core3cmp6max_by17hdb92cc0f92ae8c99E(i64 4, i64 %v2)
          to label %bb14 unwind label %cleanup2

bb14:                                             ; preds = %bb4
; invoke alloc::raw_vec::RawVec<T,A>::try_allocate_in
  invoke void @"_ZN5alloc7raw_vec19RawVec$LT$T$C$A$GT$15try_allocate_in17h3946e1ef0d49e930E"(ptr sret([24 x i8]) align 8 %_24, i64 %initial_capacity, i1 zeroext false)
          to label %bb15 unwind label %cleanup2

bb15:                                             ; preds = %bb14
  %_25 = load i64, ptr %_24, align 8
  %18 = icmp eq i64 %_25, 0
  br i1 %18, label %bb17, label %bb16

bb17:                                             ; preds = %bb15
  %19 = getelementptr inbounds i8, ptr %_24, i64 8
  %res.0 = load i64, ptr %19, align 8
  %20 = getelementptr inbounds i8, ptr %19, i64 8
  %res.1 = load ptr, ptr %20, align 8
  store i64 %res.0, ptr %vector1, align 8
  %21 = getelementptr inbounds i8, ptr %vector1, i64 8
  store ptr %res.1, ptr %21, align 8
  %22 = getelementptr inbounds i8, ptr %vector1, i64 16
  store i64 0, ptr %22, align 8
  %23 = getelementptr inbounds i8, ptr %vector1, i64 8
  %self = load ptr, ptr %23, align 8
  call void @llvm.memcpy.p0.p0.i64(ptr align 8 %src, ptr align 8 %element, i64 24, i1 false)
  call void @llvm.memcpy.p0.p0.i64(ptr align 8 %self, ptr align 8 %src, i64 24, i1 false)
  %24 = getelementptr inbounds i8, ptr %vector1, i64 16
  store i64 1, ptr %24, align 8
  call void @llvm.memcpy.p0.p0.i64(ptr align 8 %vector, ptr align 8 %vector1, i64 24, i1 false)
  store i8 0, ptr %_20, align 1
  call void @llvm.memcpy.p0.p0.i64(ptr align 8 %_19, ptr align 8 %iterator, i64 72, i1 false)
; invoke <alloc::vec::Vec<T,A> as alloc::vec::spec_extend::SpecExtend<T,I>>::spec_extend
  invoke void @"_ZN97_$LT$alloc..vec..Vec$LT$T$C$A$GT$$u20$as$u20$alloc..vec..spec_extend..SpecExtend$LT$T$C$I$GT$$GT$11spec_extend17hb8de9707e84bcdf3E"(ptr align 8 %vector, ptr align 8 %_19)
          to label %bb5 unwind label %cleanup3

bb16:                                             ; preds = %bb15
  %25 = getelementptr inbounds i8, ptr %_24, i64 8
  %err.0 = load i64, ptr %25, align 8
  %26 = getelementptr inbounds i8, ptr %25, i64 8
  %err.1 = load i64, ptr %26, align 8
; invoke alloc::raw_vec::handle_error
  invoke void @_ZN5alloc7raw_vec12handle_error17hbecd345b13023a3fE(i64 %err.0, i64 %err.1) #20
          to label %unreachable unwind label %cleanup2

bb7:                                              ; preds = %cleanup3
; invoke core::ptr::drop_in_place<alloc::vec::Vec<alloc::string::String>>
  invoke void @"_ZN4core3ptr65drop_in_place$LT$alloc..vec..Vec$LT$alloc..string..String$GT$$GT$17h05f3368029593713E"(ptr align 8 %vector) #21
          to label %bb11 unwind label %terminate

cleanup3:                                         ; preds = %bb17
  %27 = landingpad { ptr, i32 }
          cleanup
  %28 = extractvalue { ptr, i32 } %27, 0
  %29 = extractvalue { ptr, i32 } %27, 1
  store ptr %28, ptr %1, align 8
  %30 = getelementptr inbounds i8, ptr %1, i64 8
  store i32 %29, ptr %30, align 8
  br label %bb7

bb5:                                              ; preds = %bb17
  call void @llvm.memcpy.p0.p0.i64(ptr align 8 %_0, ptr align 8 %vector, i64 24, i1 false)
  br label %bb6

terminate:                                        ; preds = %bb9, %bb7
  %31 = landingpad { ptr, i32 }
          filter [0 x ptr] zeroinitializer
  %32 = extractvalue { ptr, i32 } %31, 0
  %33 = extractvalue { ptr, i32 } %31, 1
; call core::panicking::panic_in_cleanup
  call void @_ZN4core9panicking16panic_in_cleanup17h43442956f23e9cbeE() #22
  unreachable

unreachable:                                      ; preds = %bb16
  unreachable

bb2:                                              ; No predecessors!
  unreachable

bb8:                                              ; preds = %bb10, %bb11
  %34 = load ptr, ptr %1, align 8
  %35 = getelementptr inbounds i8, ptr %1, i64 8
  %36 = load i32, ptr %35, align 8
  %37 = insertvalue { ptr, i32 } poison, ptr %34, 0
  %38 = insertvalue { ptr, i32 } %37, i32 %36, 1
  resume { ptr, i32 } %38

bb10:                                             ; preds = %bb11
  br label %bb8
}

; <alloc::vec::Vec<T> as alloc::vec::spec_from_iter_nested::SpecFromIterNested<T,I>>::from_iter
; Function Attrs: nonlazybind uwtable
define void @"_ZN111_$LT$alloc..vec..Vec$LT$T$GT$$u20$as$u20$alloc..vec..spec_from_iter_nested..SpecFromIterNested$LT$T$C$I$GT$$GT$9from_iter17h3fd23e338eec4ba3E"(ptr sret([24 x i8]) align 8 %_0, ptr align 8 %iterator) unnamed_addr #0 personality ptr @rust_eh_personality {
start:
  %0 = alloca [8 x i8], align 8
  %1 = alloca [16 x i8], align 8
  %_24 = alloca [24 x i8], align 8
  %_20 = alloca [1 x i8], align 1
  %_19 = alloca [72 x i8], align 8
  %src = alloca [24 x i8], align 8
  %vector1 = alloca [24 x i8], align 8
  %_8 = alloca [24 x i8], align 8
  %element = alloca [24 x i8], align 8
  %_3 = alloca [24 x i8], align 8
  %vector = alloca [24 x i8], align 8
  store i8 1, ptr %_20, align 1
; invoke <core::iter::adapters::map::Map<I,F> as core::iter::traits::iterator::Iterator>::next
  invoke void @"_ZN102_$LT$core..iter..adapters..map..Map$LT$I$C$F$GT$$u20$as$u20$core..iter..traits..iterator..Iterator$GT$4next17hadf8572720dc8c5fE"(ptr sret([24 x i8]) align 8 %_3, ptr align 8 %iterator)
          to label %bb1 unwind label %cleanup

bb11:                                             ; preds = %bb9, %bb7, %cleanup
  %2 = load i8, ptr %_20, align 1
  %3 = trunc i8 %2 to i1
  br i1 %3, label %bb10, label %bb8

cleanup:                                          ; preds = %start
  %4 = landingpad { ptr, i32 }
          cleanup
  %5 = extractvalue { ptr, i32 } %4, 0
  %6 = extractvalue { ptr, i32 } %4, 1
  store ptr %5, ptr %1, align 8
  %7 = getelementptr inbounds i8, ptr %1, i64 8
  store i32 %6, ptr %7, align 8
  br label %bb11

bb1:                                              ; preds = %start
  %8 = load i64, ptr %_3, align 8
  %9 = icmp eq i64 %8, -9223372036854775808
  %_5 = select i1 %9, i64 0, i64 1
  %10 = icmp eq i64 %_5, 0
  br i1 %10, label %bb12, label %bb3

bb12:                                             ; preds = %bb1
  store i64 0, ptr %_0, align 8
  %11 = getelementptr inbounds i8, ptr %_0, i64 8
  store ptr inttoptr (i64 8 to ptr), ptr %11, align 8
  %12 = getelementptr inbounds i8, ptr %_0, i64 16
  store i64 0, ptr %12, align 8
  br label %bb6

bb3:                                              ; preds = %bb1
  call void @llvm.memcpy.p0.p0.i64(ptr align 8 %element, ptr align 8 %_3, i64 24, i1 false)
; invoke <core::iter::adapters::map::Map<I,F> as core::iter::traits::iterator::Iterator>::size_hint
  invoke void @"_ZN102_$LT$core..iter..adapters..map..Map$LT$I$C$F$GT$$u20$as$u20$core..iter..traits..iterator..Iterator$GT$9size_hint17hdccf096f5ba38a7bE"(ptr sret([24 x i8]) align 8 %_8, ptr align 8 %iterator)
          to label %bb4 unwind label %cleanup2

bb6:                                              ; preds = %bb5, %bb12
  ret void

bb9:                                              ; preds = %cleanup2
; invoke core::ptr::drop_in_place<alloc::string::String>
  invoke void @"_ZN4core3ptr42drop_in_place$LT$alloc..string..String$GT$17h007215f0c9e60290E"(ptr align 8 %element) #21
          to label %bb11 unwind label %terminate

cleanup2:                                         ; preds = %bb16, %bb14, %bb4, %bb3
  %13 = landingpad { ptr, i32 }
          cleanup
  %14 = extractvalue { ptr, i32 } %13, 0
  %15 = extractvalue { ptr, i32 } %13, 1
  store ptr %14, ptr %1, align 8
  %16 = getelementptr inbounds i8, ptr %1, i64 8
  store i32 %15, ptr %16, align 8
  br label %bb9

bb4:                                              ; preds = %bb3
  %lower = load i64, ptr %_8, align 8
  %17 = call i64 @llvm.uadd.sat.i64(i64 %lower, i64 1)
  store i64 %17, ptr %0, align 8
  %v2 = load i64, ptr %0, align 8
; invoke core::cmp::max_by
  %initial_capacity = invoke i64 @_ZN4core3cmp6max_by17hdb92cc0f92ae8c99E(i64 4, i64 %v2)
          to label %bb14 unwind label %cleanup2

bb14:                                             ; preds = %bb4
; invoke alloc::raw_vec::RawVec<T,A>::try_allocate_in
  invoke void @"_ZN5alloc7raw_vec19RawVec$LT$T$C$A$GT$15try_allocate_in17h3946e1ef0d49e930E"(ptr sret([24 x i8]) align 8 %_24, i64 %initial_capacity, i1 zeroext false)
          to label %bb15 unwind label %cleanup2

bb15:                                             ; preds = %bb14
  %_25 = load i64, ptr %_24, align 8
  %18 = icmp eq i64 %_25, 0
  br i1 %18, label %bb17, label %bb16

bb17:                                             ; preds = %bb15
  %19 = getelementptr inbounds i8, ptr %_24, i64 8
  %res.0 = load i64, ptr %19, align 8
  %20 = getelementptr inbounds i8, ptr %19, i64 8
  %res.1 = load ptr, ptr %20, align 8
  store i64 %res.0, ptr %vector1, align 8
  %21 = getelementptr inbounds i8, ptr %vector1, i64 8
  store ptr %res.1, ptr %21, align 8
  %22 = getelementptr inbounds i8, ptr %vector1, i64 16
  store i64 0, ptr %22, align 8
  %23 = getelementptr inbounds i8, ptr %vector1, i64 8
  %self = load ptr, ptr %23, align 8
  call void @llvm.memcpy.p0.p0.i64(ptr align 8 %src, ptr align 8 %element, i64 24, i1 false)
  call void @llvm.memcpy.p0.p0.i64(ptr align 8 %self, ptr align 8 %src, i64 24, i1 false)
  %24 = getelementptr inbounds i8, ptr %vector1, i64 16
  store i64 1, ptr %24, align 8
  call void @llvm.memcpy.p0.p0.i64(ptr align 8 %vector, ptr align 8 %vector1, i64 24, i1 false)
  store i8 0, ptr %_20, align 1
  call void @llvm.memcpy.p0.p0.i64(ptr align 8 %_19, ptr align 8 %iterator, i64 72, i1 false)
; invoke <alloc::vec::Vec<T,A> as alloc::vec::spec_extend::SpecExtend<T,I>>::spec_extend
  invoke void @"_ZN97_$LT$alloc..vec..Vec$LT$T$C$A$GT$$u20$as$u20$alloc..vec..spec_extend..SpecExtend$LT$T$C$I$GT$$GT$11spec_extend17h8f388a01f31748b5E"(ptr align 8 %vector, ptr align 8 %_19)
          to label %bb5 unwind label %cleanup3

bb16:                                             ; preds = %bb15
  %25 = getelementptr inbounds i8, ptr %_24, i64 8
  %err.0 = load i64, ptr %25, align 8
  %26 = getelementptr inbounds i8, ptr %25, i64 8
  %err.1 = load i64, ptr %26, align 8
; invoke alloc::raw_vec::handle_error
  invoke void @_ZN5alloc7raw_vec12handle_error17hbecd345b13023a3fE(i64 %err.0, i64 %err.1) #20
          to label %unreachable unwind label %cleanup2

bb7:                                              ; preds = %cleanup3
; invoke core::ptr::drop_in_place<alloc::vec::Vec<alloc::string::String>>
  invoke void @"_ZN4core3ptr65drop_in_place$LT$alloc..vec..Vec$LT$alloc..string..String$GT$$GT$17h05f3368029593713E"(ptr align 8 %vector) #21
          to label %bb11 unwind label %terminate

cleanup3:                                         ; preds = %bb17
  %27 = landingpad { ptr, i32 }
          cleanup
  %28 = extractvalue { ptr, i32 } %27, 0
  %29 = extractvalue { ptr, i32 } %27, 1
  store ptr %28, ptr %1, align 8
  %30 = getelementptr inbounds i8, ptr %1, i64 8
  store i32 %29, ptr %30, align 8
  br label %bb7

bb5:                                              ; preds = %bb17
  call void @llvm.memcpy.p0.p0.i64(ptr align 8 %_0, ptr align 8 %vector, i64 24, i1 false)
  br label %bb6

terminate:                                        ; preds = %bb9, %bb7
  %31 = landingpad { ptr, i32 }
          filter [0 x ptr] zeroinitializer
  %32 = extractvalue { ptr, i32 } %31, 0
  %33 = extractvalue { ptr, i32 } %31, 1
; call core::panicking::panic_in_cleanup
  call void @_ZN4core9panicking16panic_in_cleanup17h43442956f23e9cbeE() #22
  unreachable

unreachable:                                      ; preds = %bb16
  unreachable

bb2:                                              ; No predecessors!
  unreachable

bb8:                                              ; preds = %bb10, %bb11
  %34 = load ptr, ptr %1, align 8
  %35 = getelementptr inbounds i8, ptr %1, i64 8
  %36 = load i32, ptr %35, align 8
  %37 = insertvalue { ptr, i32 } poison, ptr %34, 0
  %38 = insertvalue { ptr, i32 } %37, i32 %36, 1
  resume { ptr, i32 } %38

bb10:                                             ; preds = %bb11
  br label %bb8
}

; <core::iter::adapters::zip::Zip<A,B> as core::iter::adapters::zip::ZipImpl<A,B>>::new
; Function Attrs: nonlazybind uwtable
define void @"_ZN111_$LT$core..iter..adapters..zip..Zip$LT$A$C$B$GT$$u20$as$u20$core..iter..adapters..zip..ZipImpl$LT$A$C$B$GT$$GT$3new17hfcb80ae4ed48fcc9E"(ptr sret([56 x i8]) align 8 %_0, ptr %0, ptr %1, ptr %2, ptr %3) unnamed_addr #0 personality ptr @rust_eh_personality {
start:
  %4 = alloca [16 x i8], align 8
  %b = alloca [16 x i8], align 8
  %a = alloca [16 x i8], align 8
  store ptr %0, ptr %a, align 8
  %5 = getelementptr inbounds i8, ptr %a, i64 8
  store ptr %1, ptr %5, align 8
  store ptr %2, ptr %b, align 8
  %6 = getelementptr inbounds i8, ptr %b, i64 8
  store ptr %3, ptr %6, align 8
; invoke core::iter::adapters::zip::TrustedRandomAccessNoCoerce::size
  %a_len = invoke i64 @_ZN4core4iter8adapters3zip27TrustedRandomAccessNoCoerce4size17he74625bbe08f4c30E(ptr align 8 %a)
          to label %bb1 unwind label %cleanup

bb3:                                              ; preds = %cleanup
  %7 = load ptr, ptr %4, align 8
  %8 = getelementptr inbounds i8, ptr %4, i64 8
  %9 = load i32, ptr %8, align 8
  %10 = insertvalue { ptr, i32 } poison, ptr %7, 0
  %11 = insertvalue { ptr, i32 } %10, i32 %9, 1
  resume { ptr, i32 } %11

cleanup:                                          ; preds = %bb2, %bb1, %start
  %12 = landingpad { ptr, i32 }
          cleanup
  %13 = extractvalue { ptr, i32 } %12, 0
  %14 = extractvalue { ptr, i32 } %12, 1
  store ptr %13, ptr %4, align 8
  %15 = getelementptr inbounds i8, ptr %4, i64 8
  store i32 %14, ptr %15, align 8
  br label %bb3

bb1:                                              ; preds = %start
; invoke core::iter::adapters::zip::TrustedRandomAccessNoCoerce::size
  %v2 = invoke i64 @_ZN4core4iter8adapters3zip27TrustedRandomAccessNoCoerce4size17he74625bbe08f4c30E(ptr align 8 %b)
          to label %bb2 unwind label %cleanup

bb2:                                              ; preds = %bb1
; invoke core::cmp::min_by
  %len = invoke i64 @_ZN4core3cmp6min_by17h58a5ea01ba81d73dE(i64 %a_len, i64 %v2)
          to label %bb6 unwind label %cleanup

bb6:                                              ; preds = %bb2
  %_8.0 = load ptr, ptr %a, align 8
  %16 = getelementptr inbounds i8, ptr %a, i64 8
  %_8.1 = load ptr, ptr %16, align 8
  %_9.0 = load ptr, ptr %b, align 8
  %17 = getelementptr inbounds i8, ptr %b, i64 8
  %_9.1 = load ptr, ptr %17, align 8
  store ptr %_8.0, ptr %_0, align 8
  %18 = getelementptr inbounds i8, ptr %_0, i64 8
  store ptr %_8.1, ptr %18, align 8
  %19 = getelementptr inbounds i8, ptr %_0, i64 16
  store ptr %_9.0, ptr %19, align 8
  %20 = getelementptr inbounds i8, ptr %19, i64 8
  store ptr %_9.1, ptr %20, align 8
  %21 = getelementptr inbounds i8, ptr %_0, i64 32
  store i64 0, ptr %21, align 8
  %22 = getelementptr inbounds i8, ptr %_0, i64 40
  store i64 %len, ptr %22, align 8
  %23 = getelementptr inbounds i8, ptr %_0, i64 48
  store i64 %a_len, ptr %23, align 8
  ret void
}

; <core::iter::adapters::zip::Zip<A,B> as core::iter::adapters::zip::ZipImpl<A,B>>::next
; Function Attrs: inlinehint nonlazybind uwtable
define { ptr, ptr } @"_ZN111_$LT$core..iter..adapters..zip..Zip$LT$A$C$B$GT$$u20$as$u20$core..iter..adapters..zip..ZipImpl$LT$A$C$B$GT$$GT$4next17hce65c361dd0e4433E"(ptr align 8 %self) unnamed_addr #1 personality ptr @rust_eh_personality {
start:
  %0 = alloca [16 x i8], align 8
  %_0 = alloca [16 x i8], align 8
  %1 = getelementptr inbounds i8, ptr %self, i64 32
  %_3 = load i64, ptr %1, align 8
  %2 = getelementptr inbounds i8, ptr %self, i64 40
  %_4 = load i64, ptr %2, align 8
  %_2 = icmp ult i64 %_3, %_4
  br i1 %_2, label %bb1, label %bb4

bb4:                                              ; preds = %start
  br label %bb10

bb1:                                              ; preds = %start
  %3 = getelementptr inbounds i8, ptr %self, i64 32
  %i = load i64, ptr %3, align 8
  %4 = getelementptr inbounds i8, ptr %self, i64 32
  %5 = getelementptr inbounds i8, ptr %self, i64 32
  %6 = load i64, ptr %5, align 8
  %7 = add i64 %6, 1
  store i64 %7, ptr %4, align 8
; call <core::slice::iter::Iter<T> as core::iter::traits::iterator::Iterator>::__iterator_get_unchecked
  %_7 = call align 1 ptr @"_ZN91_$LT$core..slice..iter..Iter$LT$T$GT$$u20$as$u20$core..iter..traits..iterator..Iterator$GT$24__iterator_get_unchecked17h81708aa9b55da97eE"(ptr align 8 %self, i64 %i)
  %_10 = getelementptr inbounds i8, ptr %self, i64 16
; invoke <core::slice::iter::Iter<T> as core::iter::traits::iterator::Iterator>::__iterator_get_unchecked
  %_9 = invoke align 1 ptr @"_ZN91_$LT$core..slice..iter..Iter$LT$T$GT$$u20$as$u20$core..iter..traits..iterator..Iterator$GT$24__iterator_get_unchecked17h81708aa9b55da97eE"(ptr align 8 %_10, i64 %i)
          to label %bb3 unwind label %cleanup

bb10:                                             ; preds = %bb4
  store ptr null, ptr %_0, align 8
  br label %bb11

bb5:                                              ; No predecessors!
  unreachable

bb9:                                              ; No predecessors!
  unreachable

bb11:                                             ; preds = %bb10
  br label %bb12

bb6:                                              ; No predecessors!
  unreachable

bb7:                                              ; No predecessors!
  unreachable

bb8:                                              ; No predecessors!
  unreachable

bb12:                                             ; preds = %bb3, %bb11
  %8 = load ptr, ptr %_0, align 8
  %9 = getelementptr inbounds i8, ptr %_0, i64 8
  %10 = load ptr, ptr %9, align 8
  %11 = insertvalue { ptr, ptr } poison, ptr %8, 0
  %12 = insertvalue { ptr, ptr } %11, ptr %10, 1
  ret { ptr, ptr } %12

bb13:                                             ; preds = %cleanup
  %13 = load ptr, ptr %0, align 8
  %14 = getelementptr inbounds i8, ptr %0, i64 8
  %15 = load i32, ptr %14, align 8
  %16 = insertvalue { ptr, i32 } poison, ptr %13, 0
  %17 = insertvalue { ptr, i32 } %16, i32 %15, 1
  resume { ptr, i32 } %17

cleanup:                                          ; preds = %bb1
  %18 = landingpad { ptr, i32 }
          cleanup
  %19 = extractvalue { ptr, i32 } %18, 0
  %20 = extractvalue { ptr, i32 } %18, 1
  store ptr %19, ptr %0, align 8
  %21 = getelementptr inbounds i8, ptr %0, i64 8
  store i32 %20, ptr %21, align 8
  br label %bb13

bb3:                                              ; preds = %bb1
  store ptr %_7, ptr %_0, align 8
  %22 = getelementptr inbounds i8, ptr %_0, i64 8
  store ptr %_9, ptr %22, align 8
  br label %bb12
}

; <alloc::collections::btree::map::BTreeMap<K,V,A> as core::iter::traits::collect::IntoIterator>::into_iter
; Function Attrs: nonlazybind uwtable
define void @"_ZN119_$LT$alloc..collections..btree..map..BTreeMap$LT$K$C$V$C$A$GT$$u20$as$u20$core..iter..traits..collect..IntoIterator$GT$9into_iter17h9be73a6b06513249E"(ptr sret([72 x i8]) align 8 %_0, ptr align 8 %self) unnamed_addr #0 {
start:
  %_26 = alloca [32 x i8], align 8
  %_24 = alloca [24 x i8], align 8
  %_23 = alloca [32 x i8], align 8
  %_22 = alloca [24 x i8], align 8
  %_21 = alloca [32 x i8], align 8
  %_14 = alloca [64 x i8], align 8
  %self1 = alloca [16 x i8], align 8
  %full_range = alloca [64 x i8], align 8
  %result = alloca [16 x i8], align 8
  %me = alloca [24 x i8], align 8
  call void @llvm.memcpy.p0.p0.i64(ptr align 8 %me, ptr align 8 %self, i64 24, i1 false)
  %0 = load ptr, ptr %me, align 8
  %1 = getelementptr inbounds i8, ptr %me, i64 8
  %2 = load i64, ptr %1, align 8
  store ptr %0, ptr %result, align 8
  %3 = getelementptr inbounds i8, ptr %result, i64 8
  store i64 %2, ptr %3, align 8
  %4 = load ptr, ptr @1, align 8
  %5 = load i64, ptr getelementptr inbounds (i8, ptr @1, i64 8), align 8
  store ptr %4, ptr %me, align 8
  %6 = getelementptr inbounds i8, ptr %me, i64 8
  store i64 %5, ptr %6, align 8
  %7 = load ptr, ptr %result, align 8
  %8 = ptrtoint ptr %7 to i64
  %9 = icmp eq i64 %8, 0
  %_6 = select i1 %9, i64 0, i64 1
  %10 = icmp eq i64 %_6, 1
  br i1 %10, label %bb1, label %bb2

bb1:                                              ; preds = %start
  %11 = getelementptr inbounds i8, ptr %result, i64 8
  %root = load i64, ptr %11, align 8
  %root2 = load ptr, ptr %result, align 8
  %12 = getelementptr inbounds i8, ptr %self1, i64 8
  store i64 %root, ptr %12, align 8
  store ptr %root2, ptr %self1, align 8
  %self2.0 = load ptr, ptr %self1, align 8
  %13 = getelementptr inbounds i8, ptr %self1, i64 8
  %self2.1 = load i64, ptr %13, align 8
  %root1.0 = load ptr, ptr %self1, align 8
  %14 = getelementptr inbounds i8, ptr %self1, i64 8
  %root1.1 = load i64, ptr %14, align 8
  %15 = getelementptr inbounds i8, ptr %_22, i64 8
  store ptr %root1.0, ptr %15, align 8
  %16 = getelementptr inbounds i8, ptr %15, i64 8
  store i64 %root1.1, ptr %16, align 8
  store ptr null, ptr %_22, align 8
  %17 = getelementptr inbounds i8, ptr %_21, i64 8
  call void @llvm.memcpy.p0.p0.i64(ptr align 8 %17, ptr align 8 %_22, i64 24, i1 false)
  store i64 1, ptr %_21, align 8
  %18 = getelementptr inbounds i8, ptr %_24, i64 8
  store ptr %self2.0, ptr %18, align 8
  %19 = getelementptr inbounds i8, ptr %18, i64 8
  store i64 %self2.1, ptr %19, align 8
  store ptr null, ptr %_24, align 8
  %20 = getelementptr inbounds i8, ptr %_23, i64 8
  call void @llvm.memcpy.p0.p0.i64(ptr align 8 %20, ptr align 8 %_24, i64 24, i1 false)
  store i64 1, ptr %_23, align 8
  call void @llvm.memcpy.p0.p0.i64(ptr align 8 %full_range, ptr align 8 %_21, i64 32, i1 false)
  %21 = getelementptr inbounds i8, ptr %full_range, i64 32
  call void @llvm.memcpy.p0.p0.i64(ptr align 8 %21, ptr align 8 %_23, i64 32, i1 false)
  %22 = getelementptr inbounds i8, ptr %me, i64 16
  %_9 = load i64, ptr %22, align 8
  %slot = getelementptr inbounds i8, ptr %me, i64 24
  %src = getelementptr inbounds i8, ptr %me, i64 24
  call void @llvm.memcpy.p0.p0.i64(ptr align 8 %_0, ptr align 8 %full_range, i64 64, i1 false)
  %23 = getelementptr inbounds i8, ptr %_0, i64 64
  store i64 %_9, ptr %23, align 8
  br label %bb3

bb2:                                              ; preds = %start
  store i64 0, ptr %_26, align 8
  call void @llvm.memcpy.p0.p0.i64(ptr align 8 %_14, ptr align 8 %_26, i64 32, i1 false)
  %24 = getelementptr inbounds i8, ptr %_14, i64 32
  call void @llvm.memcpy.p0.p0.i64(ptr align 8 %24, ptr align 8 %_26, i64 32, i1 false)
  %slot3 = getelementptr inbounds i8, ptr %me, i64 24
  %src4 = getelementptr inbounds i8, ptr %me, i64 24
  call void @llvm.memcpy.p0.p0.i64(ptr align 8 %_0, ptr align 8 %_14, i64 64, i1 false)
  %25 = getelementptr inbounds i8, ptr %_0, i64 64
  store i64 0, ptr %25, align 8
  br label %bb3

bb3:                                              ; preds = %bb2, %bb1
  ret void

bb4:                                              ; No predecessors!
  unreachable
}

; <alloc::vec::Vec<T,A> as alloc::vec::spec_extend::SpecExtend<&T,core::slice::iter::Iter<T>>>::spec_extend
; Function Attrs: nonlazybind uwtable
define void @"_ZN132_$LT$alloc..vec..Vec$LT$T$C$A$GT$$u20$as$u20$alloc..vec..spec_extend..SpecExtend$LT$$RF$T$C$core..slice..iter..Iter$LT$T$GT$$GT$$GT$11spec_extend17h1e3b91a2b9dd8caeE"(ptr align 8 %self, ptr %0, ptr %1) unnamed_addr #0 {
start:
  %len.i = alloca [8 x i8], align 8
  %iterator = alloca [16 x i8], align 8
  store ptr %0, ptr %iterator, align 8
  %2 = getelementptr inbounds i8, ptr %iterator, i64 8
  store ptr %1, ptr %2, align 8
  %self1.i = load ptr, ptr %iterator, align 8
  %self2.i = getelementptr inbounds i8, ptr %iterator, i64 8
  %end.i = load ptr, ptr %self2.i, align 8
; call core::ptr::const_ptr::<impl *const T>::sub_ptr
  %3 = call i64 @"_ZN4core3ptr9const_ptr33_$LT$impl$u20$$BP$const$u20$T$GT$7sub_ptr17h461f5615e6a30eadE"(ptr %end.i, ptr %self1.i)
  store i64 %3, ptr %len.i, align 8
  %_18.1.i = load i64, ptr %len.i, align 8
  %4 = insertvalue { ptr, i64 } poison, ptr %self1.i, 0
  %5 = insertvalue { ptr, i64 } %4, i64 %_18.1.i, 1
  %slice.0 = extractvalue { ptr, i64 } %5, 0
  %slice.1 = extractvalue { ptr, i64 } %5, 1
; call alloc::vec::Vec<T,A>::append_elements
  call void @"_ZN5alloc3vec16Vec$LT$T$C$A$GT$15append_elements17h34327633ab87627aE"(ptr align 8 %self, ptr %slice.0, i64 %slice.1)
  ret void
}

; <<alloc::collections::btree::map::IntoIter<K,V,A> as core::ops::drop::Drop>::drop::DropGuard<K,V,A> as core::ops::drop::Drop>::drop
; Function Attrs: nonlazybind uwtable
define void @"_ZN174_$LT$$LT$alloc..collections..btree..map..IntoIter$LT$K$C$V$C$A$GT$$u20$as$u20$core..ops..drop..Drop$GT$..drop..DropGuard$LT$K$C$V$C$A$GT$$u20$as$u20$core..ops..drop..Drop$GT$4drop17h317ab1f36621500fE"(ptr align 8 %self) unnamed_addr #0 {
start:
  %kv = alloca [24 x i8], align 8
  %_2 = alloca [24 x i8], align 8
  br label %bb1

bb1:                                              ; preds = %bb3, %start
  %_6 = load ptr, ptr %self, align 8
; call alloc::collections::btree::map::IntoIter<K,V,A>::dying_next
  call void @"_ZN5alloc11collections5btree3map25IntoIter$LT$K$C$V$C$A$GT$10dying_next17h14e5ed72805b82c3E"(ptr sret([24 x i8]) align 8 %_2, ptr align 8 %_6)
  %0 = load ptr, ptr %_2, align 8
  %1 = ptrtoint ptr %0 to i64
  %2 = icmp eq i64 %1, 0
  %_3 = select i1 %2, i64 0, i64 1
  %3 = icmp eq i64 %_3, 1
  br i1 %3, label %bb3, label %bb5

bb3:                                              ; preds = %bb1
  call void @llvm.memcpy.p0.p0.i64(ptr align 8 %kv, ptr align 8 %_2, i64 24, i1 false)
; call alloc::collections::btree::node::Handle<alloc::collections::btree::node::NodeRef<alloc::collections::btree::node::marker::Dying,K,V,NodeType>,alloc::collections::btree::node::marker::KV>::drop_key_val
  call void @"_ZN5alloc11collections5btree4node173Handle$LT$alloc..collections..btree..node..NodeRef$LT$alloc..collections..btree..node..marker..Dying$C$K$C$V$C$NodeType$GT$$C$alloc..collections..btree..node..marker..KV$GT$12drop_key_val17h8afaed4fcaa02e1aE"(ptr align 8 %kv)
  br label %bb1

bb5:                                              ; preds = %bb1
  ret void

bb6:                                              ; No predecessors!
  unreachable
}

; std::fs::Permissions::readonly
; Function Attrs: nonlazybind uwtable
define internal zeroext i1 @_ZN3std2fs11Permissions8readonly17h1337e0717ef9eed1E(ptr align 4 %self) unnamed_addr #0 {
start:
  %_4 = load i32, ptr %self, align 4
  %_3 = and i32 %_4, 146
  %_0 = icmp eq i32 %_3, 0
  ret i1 %_0
}

; std::fs::Metadata::permissions
; Function Attrs: nonlazybind uwtable
define internal i32 @_ZN3std2fs8Metadata11permissions17hda67ffb6ef1e365cE(ptr align 8 %self) unnamed_addr #0 {
start:
  %0 = getelementptr inbounds i8, ptr %self, i64 32
  %1 = getelementptr inbounds i8, ptr %0, i64 24
  %_4 = load i32, ptr %1, align 8
  ret i32 %_4
}

; std::fs::Metadata
; Function Attrs: inlinehint nonlazybind uwtable
define internal void @_ZN3std2fs8Metadata17h8545f5b0cd3c8044E(ptr sret([176 x i8]) align 8 %_0, ptr align 8 %_1) unnamed_addr #1 {
start:
  call void @llvm.memcpy.p0.p0.i64(ptr align 8 %_0, ptr align 8 %_1, i64 176, i1 false)
  ret void
}

; std::fs::Metadata::is_dir
; Function Attrs: nonlazybind uwtable
define internal zeroext i1 @_ZN3std2fs8Metadata6is_dir17h2699caf41edd4df7E(ptr align 8 %self) unnamed_addr #0 {
start:
  %_3 = alloca [4 x i8], align 4
  %0 = getelementptr inbounds i8, ptr %self, i64 32
  %1 = getelementptr inbounds i8, ptr %0, i64 24
  %_6 = load i32, ptr %1, align 8
  store i32 %_6, ptr %_3, align 4
  %_8 = and i32 %_6, 61440
  %_0 = icmp eq i32 %_8, 16384
  ret i1 %_0
}

; std::fs::metadata
; Function Attrs: nonlazybind uwtable
define void @_ZN3std2fs8metadata17hd699555f8a4bb2f9E(ptr sret([176 x i8]) align 8 %_0, ptr align 8 %0) unnamed_addr #0 personality ptr @rust_eh_personality {
start:
  %1 = alloca [16 x i8], align 8
  %_8 = alloca [176 x i8], align 8
  %_7 = alloca [176 x i8], align 8
  %t = alloca [176 x i8], align 8
  %self = alloca [176 x i8], align 8
  %path = alloca [8 x i8], align 8
  store ptr %0, ptr %path, align 8
; invoke <&T as core::convert::AsRef<U>>::as_ref
  %2 = invoke { ptr, i64 } @"_ZN55_$LT$$RF$T$u20$as$u20$core..convert..AsRef$LT$U$GT$$GT$6as_ref17h55607f608b8c3867E"(ptr align 8 %path)
          to label %bb1 unwind label %cleanup

bb4:                                              ; preds = %cleanup
  %3 = load ptr, ptr %1, align 8
  %4 = getelementptr inbounds i8, ptr %1, i64 8
  %5 = load i32, ptr %4, align 8
  %6 = insertvalue { ptr, i32 } poison, ptr %3, 0
  %7 = insertvalue { ptr, i32 } %6, i32 %5, 1
  resume { ptr, i32 } %7

cleanup:                                          ; preds = %bb9, %bb1, %start
  %8 = landingpad { ptr, i32 }
          cleanup
  %9 = extractvalue { ptr, i32 } %8, 0
  %10 = extractvalue { ptr, i32 } %8, 1
  store ptr %9, ptr %1, align 8
  %11 = getelementptr inbounds i8, ptr %1, i64 8
  store i32 %10, ptr %11, align 8
  br label %bb4

bb1:                                              ; preds = %start
  %_3.0 = extractvalue { ptr, i64 } %2, 0
  %_3.1 = extractvalue { ptr, i64 } %2, 1
; invoke std::sys::pal::unix::fs::stat
  invoke void @_ZN3std3sys3pal4unix2fs4stat17h77ea943734141dbbE(ptr sret([176 x i8]) align 8 %self, ptr align 1 %_3.0, i64 %_3.1)
          to label %bb2 unwind label %cleanup

bb2:                                              ; preds = %bb1
  %12 = load i64, ptr %self, align 8
  %13 = icmp eq i64 %12, 2
  %_5 = select i1 %13, i64 1, i64 0
  %14 = icmp eq i64 %_5, 0
  br i1 %14, label %bb9, label %bb8

bb9:                                              ; preds = %bb2
  call void @llvm.memcpy.p0.p0.i64(ptr align 8 %t, ptr align 8 %self, i64 176, i1 false)
  call void @llvm.memcpy.p0.p0.i64(ptr align 8 %_8, ptr align 8 %t, i64 176, i1 false)
; invoke core::ops::function::FnOnce::call_once
  invoke void @_ZN4core3ops8function6FnOnce9call_once17h209b33ba756a8976E(ptr sret([176 x i8]) align 8 %_7, ptr align 8 %_8)
          to label %bb10 unwind label %cleanup

bb8:                                              ; preds = %bb2
  %15 = getelementptr inbounds i8, ptr %self, i64 8
  %e = load ptr, ptr %15, align 8
  %16 = getelementptr inbounds i8, ptr %_0, i64 8
  store ptr %e, ptr %16, align 8
  store i64 2, ptr %_0, align 8
  br label %bb6

bb10:                                             ; preds = %bb9
  call void @llvm.memcpy.p0.p0.i64(ptr align 8 %_0, ptr align 8 %_7, i64 176, i1 false)
  br label %bb6

bb6:                                              ; preds = %bb8, %bb10
  ret void

bb7:                                              ; No predecessors!
  unreachable
}

; std::io::Write::write_all
; Function Attrs: nonlazybind uwtable
define ptr @_ZN3std2io5Write9write_all17h2a1b95ddc1962abfE(ptr align 4 %self, ptr align 1 %0, i64 %1) unnamed_addr #0 personality ptr @rust_eh_personality {
start:
  %2 = alloca [16 x i8], align 8
  %e = alloca [8 x i8], align 8
  %_4 = alloca [16 x i8], align 8
  %_0 = alloca [8 x i8], align 8
  %buf = alloca [16 x i8], align 8
  store ptr %0, ptr %buf, align 8
  %3 = getelementptr inbounds i8, ptr %buf, i64 8
  store i64 %1, ptr %3, align 8
  br label %bb1

bb1:                                              ; preds = %bb16, %start
  %self.0 = load ptr, ptr %buf, align 8
  %4 = getelementptr inbounds i8, ptr %buf, i64 8
  %self.1 = load i64, ptr %4, align 8
  %5 = icmp eq i64 %self.1, 0
  br i1 %5, label %bb2, label %bb3

bb2:                                              ; preds = %bb1
  store ptr null, ptr %_0, align 8
  br label %bb14

bb3:                                              ; preds = %bb1
  %_5.0 = load ptr, ptr %buf, align 8
  %6 = getelementptr inbounds i8, ptr %buf, i64 8
  %_5.1 = load i64, ptr %6, align 8
; call <std::process::ChildStdin as std::io::Write>::write
  %7 = call { i64, ptr } @"_ZN59_$LT$std..process..ChildStdin$u20$as$u20$std..io..Write$GT$5write17he841c325ff77e64fE"(ptr align 4 %self, ptr align 1 %_5.0, i64 %_5.1)
  %8 = extractvalue { i64, ptr } %7, 0
  %9 = extractvalue { i64, ptr } %7, 1
  store i64 %8, ptr %_4, align 8
  %10 = getelementptr inbounds i8, ptr %_4, i64 8
  store ptr %9, ptr %10, align 8
  %_6 = load i64, ptr %_4, align 8
  %11 = icmp eq i64 %_6, 0
  br i1 %11, label %bb6, label %bb9

bb14:                                             ; preds = %bb13, %bb2
  %12 = load ptr, ptr %_0, align 8
  ret ptr %12

bb6:                                              ; preds = %bb3
  %13 = getelementptr inbounds i8, ptr %_4, i64 8
  %14 = load i64, ptr %13, align 8
  %15 = icmp eq i64 %14, 0
  br i1 %15, label %bb7, label %bb8

bb9:                                              ; preds = %bb3
  %16 = getelementptr inbounds i8, ptr %_4, i64 8
  store ptr %16, ptr %e, align 8
  %_13 = getelementptr inbounds i8, ptr %_4, i64 8
; invoke std::io::error::Error::is_interrupted
  %_12 = invoke zeroext i1 @_ZN3std2io5error5Error14is_interrupted17he8005c01ccfa7ad2E(ptr align 8 %_13)
          to label %bb10 unwind label %cleanup

bb7:                                              ; preds = %bb6
  store ptr @alloc_626cc8bfd6c94d404aa777557e31db63, ptr %_0, align 8
  br label %bb13

bb8:                                              ; preds = %bb6
  %17 = getelementptr inbounds i8, ptr %_4, i64 8
  %n = load i64, ptr %17, align 8
  %self.01 = load ptr, ptr %buf, align 8
  %18 = getelementptr inbounds i8, ptr %buf, i64 8
  %self.12 = load i64, ptr %18, align 8
  %_18 = icmp ugt i64 %n, %self.12
  br i1 %_18, label %bb21, label %bb22

bb13:                                             ; preds = %bb12, %bb7
  br label %bb14

bb22:                                             ; preds = %bb8
; invoke <core::ops::range::Range<usize> as core::slice::index::SliceIndex<[T]>>::get_unchecked
  %19 = invoke { ptr, i64 } @"_ZN106_$LT$core..ops..range..Range$LT$usize$GT$$u20$as$u20$core..slice..index..SliceIndex$LT$$u5b$T$u5d$$GT$$GT$13get_unchecked17h46e8bcc0f02f233aE"(i64 %n, i64 %self.12, ptr %self.01, i64 %self.12)
          to label %bb23 unwind label %cleanup

bb21:                                             ; preds = %bb8
; invoke core::slice::index::slice_start_index_len_fail
  invoke void @_ZN4core5slice5index26slice_start_index_len_fail17hb1af95f5e8ac2a4fE(i64 %n, i64 %self.12, ptr align 8 @alloc_d9fb3a4fb251add6517075192273824f) #20
          to label %unreachable unwind label %cleanup

bb20:                                             ; preds = %cleanup
  %_16 = load i64, ptr %_4, align 8
  %20 = icmp eq i64 %_16, 1
  br i1 %20, label %bb19, label %bb15

cleanup:                                          ; preds = %bb9, %bb21, %bb22
  %21 = landingpad { ptr, i32 }
          cleanup
  %22 = extractvalue { ptr, i32 } %21, 0
  %23 = extractvalue { ptr, i32 } %21, 1
  store ptr %22, ptr %2, align 8
  %24 = getelementptr inbounds i8, ptr %2, i64 8
  store i32 %23, ptr %24, align 8
  br label %bb20

bb23:                                             ; preds = %bb22
  %_21.0 = extractvalue { ptr, i64 } %19, 0
  %_21.1 = extractvalue { ptr, i64 } %19, 1
  store ptr %_21.0, ptr %buf, align 8
  %25 = getelementptr inbounds i8, ptr %buf, i64 8
  store i64 %_21.1, ptr %25, align 8
  br label %bb18

bb18:                                             ; preds = %bb11, %bb23
  %_15 = load i64, ptr %_4, align 8
  %26 = icmp eq i64 %_15, 1
  br i1 %26, label %bb17, label %bb16

unreachable:                                      ; preds = %bb21
  unreachable

bb10:                                             ; preds = %bb9
  br i1 %_12, label %bb11, label %bb12

bb12:                                             ; preds = %bb10
  %27 = getelementptr inbounds i8, ptr %_4, i64 8
  %e3 = load ptr, ptr %27, align 8
  store ptr %e3, ptr %_0, align 8
  br label %bb13

bb11:                                             ; preds = %bb10
  br label %bb18

bb17:                                             ; preds = %bb18
  %28 = getelementptr inbounds i8, ptr %_4, i64 8
; call core::ptr::drop_in_place<std::io::error::Error>
  call void @"_ZN4core3ptr42drop_in_place$LT$std..io..error..Error$GT$17h28e16e4fdf1d986dE"(ptr align 8 %28)
  br label %bb16

bb16:                                             ; preds = %bb17, %bb18
  br label %bb1

bb19:                                             ; preds = %bb20
  %29 = getelementptr inbounds i8, ptr %_4, i64 8
; invoke core::ptr::drop_in_place<std::io::error::Error>
  invoke void @"_ZN4core3ptr42drop_in_place$LT$std..io..error..Error$GT$17h28e16e4fdf1d986dE"(ptr align 8 %29) #21
          to label %bb15 unwind label %terminate

bb15:                                             ; preds = %bb19, %bb20
  %30 = load ptr, ptr %2, align 8
  %31 = getelementptr inbounds i8, ptr %2, i64 8
  %32 = load i32, ptr %31, align 8
  %33 = insertvalue { ptr, i32 } poison, ptr %30, 0
  %34 = insertvalue { ptr, i32 } %33, i32 %32, 1
  resume { ptr, i32 } %34

terminate:                                        ; preds = %bb19
  %35 = landingpad { ptr, i32 }
          filter [0 x ptr] zeroinitializer
  %36 = extractvalue { ptr, i32 } %35, 0
  %37 = extractvalue { ptr, i32 } %35, 1
; call core::panicking::panic_in_cleanup
  call void @_ZN4core9panicking16panic_in_cleanup17h43442956f23e9cbeE() #22
  unreachable

bb5:                                              ; No predecessors!
  unreachable
}

; std::io::error::repr_bitpacked::decode_repr
; Function Attrs: inlinehint nonlazybind uwtable
define void @_ZN3std2io5error14repr_bitpacked11decode_repr17h322b16da73479d91E(ptr sret([16 x i8]) align 8 %_0, ptr %ptr) unnamed_addr #1 personality ptr @rust_eh_personality {
start:
  %0 = alloca [8 x i8], align 8
  %1 = alloca [16 x i8], align 8
  %_21 = alloca [1 x i8], align 1
  %self = alloca [1 x i8], align 1
  %bits = alloca [8 x i8], align 8
  store i8 1, ptr %_21, align 1
  %2 = ptrtoint ptr %ptr to i64
  store i64 %2, ptr %bits, align 8
  %3 = load i64, ptr %bits, align 8
  %_5 = and i64 %3, 3
  switch i64 %_5, label %bb1 [
    i64 2, label %bb2
    i64 3, label %bb3
    i64 0, label %bb5
    i64 1, label %bb6
  ]

bb1:                                              ; preds = %start
; invoke core::panicking::panic
  invoke void @_ZN4core9panicking5panic17hdc606204151d5569E(ptr align 1 @alloc_a500d906b91607583596fa15e63c2ada, i64 40, ptr align 8 @alloc_0454db1a094b688b9e12d48e39c001e6) #20
          to label %unreachable unwind label %cleanup

bb2:                                              ; preds = %start
  %_8 = load i64, ptr %bits, align 8
  %_7 = ashr i64 %_8, 32
  %code = trunc i64 %_7 to i32
  %4 = getelementptr inbounds i8, ptr %_0, i64 4
  store i32 %code, ptr %4, align 4
  store i8 0, ptr %_0, align 8
  br label %bb10

bb3:                                              ; preds = %start
  %5 = load i64, ptr %bits, align 8
  %_10 = lshr i64 %5, 32
  %kind_bits = trunc i64 %_10 to i32
; invoke std::io::error::repr_bitpacked::kind_from_prim
  %6 = invoke i8 @_ZN3std2io5error14repr_bitpacked14kind_from_prim17hd8858fed24812107E(i32 %kind_bits)
          to label %bb4 unwind label %cleanup

bb5:                                              ; preds = %start
  %7 = getelementptr inbounds i8, ptr %_0, i64 8
  store ptr %ptr, ptr %7, align 8
  store i8 2, ptr %_0, align 8
  br label %bb10

bb6:                                              ; preds = %start
  %8 = getelementptr i8, ptr %ptr, i64 -1
  store ptr %8, ptr %0, align 8
  %_35 = load ptr, ptr %0, align 8
  store i8 0, ptr %_21, align 1
; invoke <std::io::error::repr_bitpacked::Repr as core::ops::drop::Drop>::drop::{{closure}}
  %_17 = invoke align 8 ptr @"_ZN78_$LT$std..io..error..repr_bitpacked..Repr$u20$as$u20$core..ops..drop..Drop$GT$4drop28_$u7b$$u7b$closure$u7d$$u7d$17hcb44cd55b1ee9b2cE"(ptr %_35)
          to label %bb7 unwind label %cleanup

bb10:                                             ; preds = %bb5, %bb15, %bb2
  br label %bb8

bb12:                                             ; preds = %cleanup
  %9 = load i8, ptr %_21, align 1
  %10 = trunc i8 %9 to i1
  br i1 %10, label %bb11, label %bb9

cleanup:                                          ; preds = %bb1, %bb6, %bb3
  %11 = landingpad { ptr, i32 }
          cleanup
  %12 = extractvalue { ptr, i32 } %11, 0
  %13 = extractvalue { ptr, i32 } %11, 1
  store ptr %12, ptr %1, align 8
  %14 = getelementptr inbounds i8, ptr %1, i64 8
  store i32 %13, ptr %14, align 8
  br label %bb12

bb4:                                              ; preds = %bb3
  store i8 %6, ptr %self, align 1
  %15 = load i8, ptr %self, align 1
  %16 = icmp eq i8 %15, 41
  %_23 = select i1 %16, i64 0, i64 1
  %17 = icmp eq i64 %_23, 0
  br i1 %17, label %bb14, label %bb15

bb14:                                             ; preds = %bb4
; call core::hint::unreachable_unchecked::precondition_check
  call void @_ZN4core4hint21unreachable_unchecked18precondition_check17he78a2a34dc13de8bE() #19
  br label %bb13

bb15:                                             ; preds = %bb4
  %kind = load i8, ptr %self, align 1
  %18 = getelementptr inbounds i8, ptr %_0, i64 1
  store i8 %kind, ptr %18, align 1
  store i8 1, ptr %_0, align 8
  br label %bb10

bb13:                                             ; preds = %bb14
  unreachable

bb8:                                              ; preds = %bb7, %bb10
  ret void

bb7:                                              ; preds = %bb6
  %19 = getelementptr inbounds i8, ptr %_0, i64 8
  store ptr %_17, ptr %19, align 8
  store i8 3, ptr %_0, align 8
  br label %bb8

unreachable:                                      ; preds = %bb1
  unreachable

bb9:                                              ; preds = %bb11, %bb12
  %20 = load ptr, ptr %1, align 8
  %21 = getelementptr inbounds i8, ptr %1, i64 8
  %22 = load i32, ptr %21, align 8
  %23 = insertvalue { ptr, i32 } poison, ptr %20, 0
  %24 = insertvalue { ptr, i32 } %23, i32 %22, 1
  resume { ptr, i32 } %24

bb11:                                             ; preds = %bb12
  br label %bb9
}

; std::io::error::repr_bitpacked::decode_repr
; Function Attrs: inlinehint nonlazybind uwtable
define void @_ZN3std2io5error14repr_bitpacked11decode_repr17h9ab478534ff8c50eE(ptr sret([16 x i8]) align 8 %_0, ptr %ptr) unnamed_addr #1 personality ptr @rust_eh_personality {
start:
  %0 = alloca [8 x i8], align 8
  %1 = alloca [16 x i8], align 8
  %_21 = alloca [1 x i8], align 1
  %self = alloca [1 x i8], align 1
  %bits = alloca [8 x i8], align 8
  store i8 1, ptr %_21, align 1
  %2 = ptrtoint ptr %ptr to i64
  store i64 %2, ptr %bits, align 8
  %3 = load i64, ptr %bits, align 8
  %_5 = and i64 %3, 3
  switch i64 %_5, label %bb1 [
    i64 2, label %bb2
    i64 3, label %bb3
    i64 0, label %bb5
    i64 1, label %bb6
  ]

bb1:                                              ; preds = %start
; invoke core::panicking::panic
  invoke void @_ZN4core9panicking5panic17hdc606204151d5569E(ptr align 1 @alloc_a500d906b91607583596fa15e63c2ada, i64 40, ptr align 8 @alloc_0454db1a094b688b9e12d48e39c001e6) #20
          to label %unreachable unwind label %cleanup

bb2:                                              ; preds = %start
  %_8 = load i64, ptr %bits, align 8
  %_7 = ashr i64 %_8, 32
  %code = trunc i64 %_7 to i32
  %4 = getelementptr inbounds i8, ptr %_0, i64 4
  store i32 %code, ptr %4, align 4
  store i8 0, ptr %_0, align 8
  br label %bb10

bb3:                                              ; preds = %start
  %5 = load i64, ptr %bits, align 8
  %_10 = lshr i64 %5, 32
  %kind_bits = trunc i64 %_10 to i32
; invoke std::io::error::repr_bitpacked::kind_from_prim
  %6 = invoke i8 @_ZN3std2io5error14repr_bitpacked14kind_from_prim17hd8858fed24812107E(i32 %kind_bits)
          to label %bb4 unwind label %cleanup

bb5:                                              ; preds = %start
  %7 = getelementptr inbounds i8, ptr %_0, i64 8
  store ptr %ptr, ptr %7, align 8
  store i8 2, ptr %_0, align 8
  br label %bb10

bb6:                                              ; preds = %start
  %8 = getelementptr i8, ptr %ptr, i64 -1
  store ptr %8, ptr %0, align 8
  %_35 = load ptr, ptr %0, align 8
  store i8 0, ptr %_21, align 1
; invoke std::io::error::repr_bitpacked::Repr::data::{{closure}}
  %_17 = invoke align 8 ptr @"_ZN3std2io5error14repr_bitpacked4Repr4data28_$u7b$$u7b$closure$u7d$$u7d$17heafbd30b84122b54E"(ptr %_35)
          to label %bb7 unwind label %cleanup

bb10:                                             ; preds = %bb5, %bb15, %bb2
  br label %bb8

bb12:                                             ; preds = %cleanup
  %9 = load i8, ptr %_21, align 1
  %10 = trunc i8 %9 to i1
  br i1 %10, label %bb11, label %bb9

cleanup:                                          ; preds = %bb1, %bb6, %bb3
  %11 = landingpad { ptr, i32 }
          cleanup
  %12 = extractvalue { ptr, i32 } %11, 0
  %13 = extractvalue { ptr, i32 } %11, 1
  store ptr %12, ptr %1, align 8
  %14 = getelementptr inbounds i8, ptr %1, i64 8
  store i32 %13, ptr %14, align 8
  br label %bb12

bb4:                                              ; preds = %bb3
  store i8 %6, ptr %self, align 1
  %15 = load i8, ptr %self, align 1
  %16 = icmp eq i8 %15, 41
  %_23 = select i1 %16, i64 0, i64 1
  %17 = icmp eq i64 %_23, 0
  br i1 %17, label %bb14, label %bb15

bb14:                                             ; preds = %bb4
; call core::hint::unreachable_unchecked::precondition_check
  call void @_ZN4core4hint21unreachable_unchecked18precondition_check17he78a2a34dc13de8bE() #19
  br label %bb13

bb15:                                             ; preds = %bb4
  %kind = load i8, ptr %self, align 1
  %18 = getelementptr inbounds i8, ptr %_0, i64 1
  store i8 %kind, ptr %18, align 1
  store i8 1, ptr %_0, align 8
  br label %bb10

bb13:                                             ; preds = %bb14
  unreachable

bb8:                                              ; preds = %bb7, %bb10
  ret void

bb7:                                              ; preds = %bb6
  %19 = getelementptr inbounds i8, ptr %_0, i64 8
  store ptr %_17, ptr %19, align 8
  store i8 3, ptr %_0, align 8
  br label %bb8

unreachable:                                      ; preds = %bb1
  unreachable

bb9:                                              ; preds = %bb11, %bb12
  %20 = load ptr, ptr %1, align 8
  %21 = getelementptr inbounds i8, ptr %1, i64 8
  %22 = load i32, ptr %21, align 8
  %23 = insertvalue { ptr, i32 } poison, ptr %20, 0
  %24 = insertvalue { ptr, i32 } %23, i32 %22, 1
  resume { ptr, i32 } %24

bb11:                                             ; preds = %bb12
  br label %bb9
}

; std::io::error::repr_bitpacked::kind_from_prim
; Function Attrs: inlinehint nonlazybind uwtable
define internal i8 @_ZN3std2io5error14repr_bitpacked14kind_from_prim17hd8858fed24812107E(i32 %0) unnamed_addr #1 {
start:
  %_0 = alloca [1 x i8], align 1
  %ek = alloca [4 x i8], align 4
  store i32 %0, ptr %ek, align 4
  %1 = load i32, ptr %ek, align 4
  %2 = icmp eq i32 %1, 0
  br i1 %2, label %bb1, label %bb2

bb1:                                              ; preds = %start
  store i8 0, ptr %_0, align 1
  br label %bb83

bb2:                                              ; preds = %start
  %3 = load i32, ptr %ek, align 4
  %4 = icmp eq i32 %3, 1
  br i1 %4, label %bb3, label %bb4

bb83:                                             ; preds = %bb82, %bb81, %bb79, %bb77, %bb75, %bb73, %bb71, %bb69, %bb67, %bb65, %bb63, %bb61, %bb59, %bb57, %bb55, %bb53, %bb51, %bb49, %bb47, %bb45, %bb43, %bb41, %bb39, %bb37, %bb35, %bb33, %bb31, %bb29, %bb27, %bb25, %bb23, %bb21, %bb19, %bb17, %bb15, %bb13, %bb11, %bb9, %bb7, %bb5, %bb3, %bb1
  %5 = load i8, ptr %_0, align 1
  ret i8 %5

bb3:                                              ; preds = %bb2
  store i8 1, ptr %_0, align 1
  br label %bb83

bb4:                                              ; preds = %bb2
  %6 = load i32, ptr %ek, align 4
  %7 = icmp eq i32 %6, 2
  br i1 %7, label %bb5, label %bb6

bb5:                                              ; preds = %bb4
  store i8 2, ptr %_0, align 1
  br label %bb83

bb6:                                              ; preds = %bb4
  %8 = load i32, ptr %ek, align 4
  %9 = icmp eq i32 %8, 3
  br i1 %9, label %bb7, label %bb8

bb7:                                              ; preds = %bb6
  store i8 3, ptr %_0, align 1
  br label %bb83

bb8:                                              ; preds = %bb6
  %10 = load i32, ptr %ek, align 4
  %11 = icmp eq i32 %10, 4
  br i1 %11, label %bb9, label %bb10

bb9:                                              ; preds = %bb8
  store i8 4, ptr %_0, align 1
  br label %bb83

bb10:                                             ; preds = %bb8
  %12 = load i32, ptr %ek, align 4
  %13 = icmp eq i32 %12, 5
  br i1 %13, label %bb11, label %bb12

bb11:                                             ; preds = %bb10
  store i8 5, ptr %_0, align 1
  br label %bb83

bb12:                                             ; preds = %bb10
  %14 = load i32, ptr %ek, align 4
  %15 = icmp eq i32 %14, 6
  br i1 %15, label %bb13, label %bb14

bb13:                                             ; preds = %bb12
  store i8 6, ptr %_0, align 1
  br label %bb83

bb14:                                             ; preds = %bb12
  %16 = load i32, ptr %ek, align 4
  %17 = icmp eq i32 %16, 7
  br i1 %17, label %bb15, label %bb16

bb15:                                             ; preds = %bb14
  store i8 7, ptr %_0, align 1
  br label %bb83

bb16:                                             ; preds = %bb14
  %18 = load i32, ptr %ek, align 4
  %19 = icmp eq i32 %18, 8
  br i1 %19, label %bb17, label %bb18

bb17:                                             ; preds = %bb16
  store i8 8, ptr %_0, align 1
  br label %bb83

bb18:                                             ; preds = %bb16
  %20 = load i32, ptr %ek, align 4
  %21 = icmp eq i32 %20, 9
  br i1 %21, label %bb19, label %bb20

bb19:                                             ; preds = %bb18
  store i8 9, ptr %_0, align 1
  br label %bb83

bb20:                                             ; preds = %bb18
  %22 = load i32, ptr %ek, align 4
  %23 = icmp eq i32 %22, 10
  br i1 %23, label %bb21, label %bb22

bb21:                                             ; preds = %bb20
  store i8 10, ptr %_0, align 1
  br label %bb83

bb22:                                             ; preds = %bb20
  %24 = load i32, ptr %ek, align 4
  %25 = icmp eq i32 %24, 11
  br i1 %25, label %bb23, label %bb24

bb23:                                             ; preds = %bb22
  store i8 11, ptr %_0, align 1
  br label %bb83

bb24:                                             ; preds = %bb22
  %26 = load i32, ptr %ek, align 4
  %27 = icmp eq i32 %26, 12
  br i1 %27, label %bb25, label %bb26

bb25:                                             ; preds = %bb24
  store i8 12, ptr %_0, align 1
  br label %bb83

bb26:                                             ; preds = %bb24
  %28 = load i32, ptr %ek, align 4
  %29 = icmp eq i32 %28, 13
  br i1 %29, label %bb27, label %bb28

bb27:                                             ; preds = %bb26
  store i8 13, ptr %_0, align 1
  br label %bb83

bb28:                                             ; preds = %bb26
  %30 = load i32, ptr %ek, align 4
  %31 = icmp eq i32 %30, 14
  br i1 %31, label %bb29, label %bb30

bb29:                                             ; preds = %bb28
  store i8 14, ptr %_0, align 1
  br label %bb83

bb30:                                             ; preds = %bb28
  %32 = load i32, ptr %ek, align 4
  %33 = icmp eq i32 %32, 15
  br i1 %33, label %bb31, label %bb32

bb31:                                             ; preds = %bb30
  store i8 15, ptr %_0, align 1
  br label %bb83

bb32:                                             ; preds = %bb30
  %34 = load i32, ptr %ek, align 4
  %35 = icmp eq i32 %34, 16
  br i1 %35, label %bb33, label %bb34

bb33:                                             ; preds = %bb32
  store i8 16, ptr %_0, align 1
  br label %bb83

bb34:                                             ; preds = %bb32
  %36 = load i32, ptr %ek, align 4
  %37 = icmp eq i32 %36, 17
  br i1 %37, label %bb35, label %bb36

bb35:                                             ; preds = %bb34
  store i8 17, ptr %_0, align 1
  br label %bb83

bb36:                                             ; preds = %bb34
  %38 = load i32, ptr %ek, align 4
  %39 = icmp eq i32 %38, 18
  br i1 %39, label %bb37, label %bb38

bb37:                                             ; preds = %bb36
  store i8 18, ptr %_0, align 1
  br label %bb83

bb38:                                             ; preds = %bb36
  %40 = load i32, ptr %ek, align 4
  %41 = icmp eq i32 %40, 19
  br i1 %41, label %bb39, label %bb40

bb39:                                             ; preds = %bb38
  store i8 19, ptr %_0, align 1
  br label %bb83

bb40:                                             ; preds = %bb38
  %42 = load i32, ptr %ek, align 4
  %43 = icmp eq i32 %42, 20
  br i1 %43, label %bb41, label %bb42

bb41:                                             ; preds = %bb40
  store i8 20, ptr %_0, align 1
  br label %bb83

bb42:                                             ; preds = %bb40
  %44 = load i32, ptr %ek, align 4
  %45 = icmp eq i32 %44, 21
  br i1 %45, label %bb43, label %bb44

bb43:                                             ; preds = %bb42
  store i8 21, ptr %_0, align 1
  br label %bb83

bb44:                                             ; preds = %bb42
  %46 = load i32, ptr %ek, align 4
  %47 = icmp eq i32 %46, 22
  br i1 %47, label %bb45, label %bb46

bb45:                                             ; preds = %bb44
  store i8 22, ptr %_0, align 1
  br label %bb83

bb46:                                             ; preds = %bb44
  %48 = load i32, ptr %ek, align 4
  %49 = icmp eq i32 %48, 23
  br i1 %49, label %bb47, label %bb48

bb47:                                             ; preds = %bb46
  store i8 23, ptr %_0, align 1
  br label %bb83

bb48:                                             ; preds = %bb46
  %50 = load i32, ptr %ek, align 4
  %51 = icmp eq i32 %50, 24
  br i1 %51, label %bb49, label %bb50

bb49:                                             ; preds = %bb48
  store i8 24, ptr %_0, align 1
  br label %bb83

bb50:                                             ; preds = %bb48
  %52 = load i32, ptr %ek, align 4
  %53 = icmp eq i32 %52, 25
  br i1 %53, label %bb51, label %bb52

bb51:                                             ; preds = %bb50
  store i8 25, ptr %_0, align 1
  br label %bb83

bb52:                                             ; preds = %bb50
  %54 = load i32, ptr %ek, align 4
  %55 = icmp eq i32 %54, 26
  br i1 %55, label %bb53, label %bb54

bb53:                                             ; preds = %bb52
  store i8 26, ptr %_0, align 1
  br label %bb83

bb54:                                             ; preds = %bb52
  %56 = load i32, ptr %ek, align 4
  %57 = icmp eq i32 %56, 27
  br i1 %57, label %bb55, label %bb56

bb55:                                             ; preds = %bb54
  store i8 27, ptr %_0, align 1
  br label %bb83

bb56:                                             ; preds = %bb54
  %58 = load i32, ptr %ek, align 4
  %59 = icmp eq i32 %58, 28
  br i1 %59, label %bb57, label %bb58

bb57:                                             ; preds = %bb56
  store i8 28, ptr %_0, align 1
  br label %bb83

bb58:                                             ; preds = %bb56
  %60 = load i32, ptr %ek, align 4
  %61 = icmp eq i32 %60, 29
  br i1 %61, label %bb59, label %bb60

bb59:                                             ; preds = %bb58
  store i8 29, ptr %_0, align 1
  br label %bb83

bb60:                                             ; preds = %bb58
  %62 = load i32, ptr %ek, align 4
  %63 = icmp eq i32 %62, 30
  br i1 %63, label %bb61, label %bb62

bb61:                                             ; preds = %bb60
  store i8 30, ptr %_0, align 1
  br label %bb83

bb62:                                             ; preds = %bb60
  %64 = load i32, ptr %ek, align 4
  %65 = icmp eq i32 %64, 31
  br i1 %65, label %bb63, label %bb64

bb63:                                             ; preds = %bb62
  store i8 31, ptr %_0, align 1
  br label %bb83

bb64:                                             ; preds = %bb62
  %66 = load i32, ptr %ek, align 4
  %67 = icmp eq i32 %66, 32
  br i1 %67, label %bb65, label %bb66

bb65:                                             ; preds = %bb64
  store i8 32, ptr %_0, align 1
  br label %bb83

bb66:                                             ; preds = %bb64
  %68 = load i32, ptr %ek, align 4
  %69 = icmp eq i32 %68, 33
  br i1 %69, label %bb67, label %bb68

bb67:                                             ; preds = %bb66
  store i8 33, ptr %_0, align 1
  br label %bb83

bb68:                                             ; preds = %bb66
  %70 = load i32, ptr %ek, align 4
  %71 = icmp eq i32 %70, 34
  br i1 %71, label %bb69, label %bb70

bb69:                                             ; preds = %bb68
  store i8 34, ptr %_0, align 1
  br label %bb83

bb70:                                             ; preds = %bb68
  %72 = load i32, ptr %ek, align 4
  %73 = icmp eq i32 %72, 35
  br i1 %73, label %bb71, label %bb72

bb71:                                             ; preds = %bb70
  store i8 35, ptr %_0, align 1
  br label %bb83

bb72:                                             ; preds = %bb70
  %74 = load i32, ptr %ek, align 4
  %75 = icmp eq i32 %74, 39
  br i1 %75, label %bb73, label %bb74

bb73:                                             ; preds = %bb72
  store i8 39, ptr %_0, align 1
  br label %bb83

bb74:                                             ; preds = %bb72
  %76 = load i32, ptr %ek, align 4
  %77 = icmp eq i32 %76, 37
  br i1 %77, label %bb75, label %bb76

bb75:                                             ; preds = %bb74
  store i8 37, ptr %_0, align 1
  br label %bb83

bb76:                                             ; preds = %bb74
  %78 = load i32, ptr %ek, align 4
  %79 = icmp eq i32 %78, 36
  br i1 %79, label %bb77, label %bb78

bb77:                                             ; preds = %bb76
  store i8 36, ptr %_0, align 1
  br label %bb83

bb78:                                             ; preds = %bb76
  %80 = load i32, ptr %ek, align 4
  %81 = icmp eq i32 %80, 38
  br i1 %81, label %bb79, label %bb80

bb79:                                             ; preds = %bb78
  store i8 38, ptr %_0, align 1
  br label %bb83

bb80:                                             ; preds = %bb78
  %82 = load i32, ptr %ek, align 4
  %83 = icmp eq i32 %82, 40
  br i1 %83, label %bb81, label %bb82

bb81:                                             ; preds = %bb80
  store i8 40, ptr %_0, align 1
  br label %bb83

bb82:                                             ; preds = %bb80
  store i8 41, ptr %_0, align 1
  br label %bb83
}

; std::io::error::repr_bitpacked::Repr::data::{{closure}}
; Function Attrs: inlinehint nonlazybind uwtable
define align 8 ptr @"_ZN3std2io5error14repr_bitpacked4Repr4data28_$u7b$$u7b$closure$u7d$$u7d$17heafbd30b84122b54E"(ptr %c) unnamed_addr #1 {
start:
  ret ptr %c
}

; std::io::error::Error::is_interrupted
; Function Attrs: inlinehint nonlazybind uwtable
define internal zeroext i1 @_ZN3std2io5error5Error14is_interrupted17he8005c01ccfa7ad2E(ptr align 8 %self) unnamed_addr #1 {
start:
  %kind = alloca [1 x i8], align 1
  %_2 = alloca [16 x i8], align 8
  %_0 = alloca [1 x i8], align 1
  %_12 = load ptr, ptr %self, align 8
; call std::io::error::repr_bitpacked::decode_repr
  call void @_ZN3std2io5error14repr_bitpacked11decode_repr17h9ab478534ff8c50eE(ptr sret([16 x i8]) align 8 %_2, ptr %_12)
  %0 = load i8, ptr %_2, align 8
  %_4 = zext i8 %0 to i64
  switch i64 %_4, label %bb1 [
    i64 0, label %bb3
    i64 1, label %bb5
    i64 2, label %bb2
    i64 3, label %bb4
  ]

bb1:                                              ; preds = %start
  unreachable

bb3:                                              ; preds = %start
  %1 = getelementptr inbounds i8, ptr %_2, i64 4
  %code = load i32, ptr %1, align 4
  %2 = icmp eq i32 %code, 4
  %3 = zext i1 %2 to i8
  store i8 %3, ptr %_0, align 1
  br label %bb6

bb5:                                              ; preds = %start
  %4 = getelementptr inbounds i8, ptr %_2, i64 1
  %5 = load i8, ptr %4, align 1
  store i8 %5, ptr %kind, align 1
  %6 = load i8, ptr %kind, align 1
  %__self_discr = zext i8 %6 to i64
  %7 = icmp eq i64 %__self_discr, 35
  %8 = zext i1 %7 to i8
  store i8 %8, ptr %_0, align 1
  br label %bb6

bb2:                                              ; preds = %start
  %9 = getelementptr inbounds i8, ptr %_2, i64 8
  %m = load ptr, ptr %9, align 8
  %self1 = getelementptr inbounds i8, ptr %m, i64 16
  %10 = getelementptr inbounds i8, ptr %m, i64 16
  %11 = load i8, ptr %10, align 8
  %__self_discr2 = zext i8 %11 to i64
  %12 = icmp eq i64 %__self_discr2, 35
  %13 = zext i1 %12 to i8
  store i8 %13, ptr %_0, align 1
  br label %bb6

bb4:                                              ; preds = %start
  %14 = getelementptr inbounds i8, ptr %_2, i64 8
  %c = load ptr, ptr %14, align 8
  %self3 = getelementptr inbounds i8, ptr %c, i64 16
  %15 = getelementptr inbounds i8, ptr %c, i64 16
  %16 = load i8, ptr %15, align 8
  %__self_discr4 = zext i8 %16 to i64
  %17 = icmp eq i64 %__self_discr4, 35
  %18 = zext i1 %17 to i8
  store i8 %18, ptr %_0, align 1
  br label %bb6

bb6:                                              ; preds = %bb4, %bb2, %bb5, %bb3
  %19 = load i8, ptr %_0, align 1
  %20 = trunc i8 %19 to i1
  ret i1 %20
}

; std::io::stdio::stderr
; Function Attrs: nonlazybind uwtable
define internal align 8 ptr @_ZN3std2io5stdio6stderr17h043c1fc7381416efE() unnamed_addr #0 {
start:
  ret ptr @_ZN3std2io5stdio6stderr8INSTANCE17h6af8b3c52a4e2021E
}

; std::env::var
; Function Attrs: nonlazybind uwtable
define void @_ZN3std3env3var17hbe886c6edf38acadE(ptr sret([32 x i8]) align 8 %_0, ptr align 1 %0, i64 %1) unnamed_addr #0 personality ptr @rust_eh_personality {
start:
  %2 = alloca [16 x i8], align 8
  %key = alloca [16 x i8], align 8
  store ptr %0, ptr %key, align 8
  %3 = getelementptr inbounds i8, ptr %key, i64 8
  store i64 %1, ptr %3, align 8
; invoke <&T as core::convert::AsRef<U>>::as_ref
  %4 = invoke { ptr, i64 } @"_ZN55_$LT$$RF$T$u20$as$u20$core..convert..AsRef$LT$U$GT$$GT$6as_ref17h52f2e13458fd804eE"(ptr align 8 %key)
          to label %bb1 unwind label %cleanup

bb4:                                              ; preds = %cleanup
  %5 = load ptr, ptr %2, align 8
  %6 = getelementptr inbounds i8, ptr %2, i64 8
  %7 = load i32, ptr %6, align 8
  %8 = insertvalue { ptr, i32 } poison, ptr %5, 0
  %9 = insertvalue { ptr, i32 } %8, i32 %7, 1
  resume { ptr, i32 } %9

cleanup:                                          ; preds = %bb1, %start
  %10 = landingpad { ptr, i32 }
          cleanup
  %11 = extractvalue { ptr, i32 } %10, 0
  %12 = extractvalue { ptr, i32 } %10, 1
  store ptr %11, ptr %2, align 8
  %13 = getelementptr inbounds i8, ptr %2, i64 8
  store i32 %12, ptr %13, align 8
  br label %bb4

bb1:                                              ; preds = %start
  %_2.0 = extractvalue { ptr, i64 } %4, 0
  %_2.1 = extractvalue { ptr, i64 } %4, 1
; invoke std::env::_var
  invoke void @_ZN3std3env4_var17he0ae9997c6c03d5aE(ptr sret([32 x i8]) align 8 %_0, ptr align 1 %_2.0, i64 %_2.1)
          to label %bb2 unwind label %cleanup

bb2:                                              ; preds = %bb1
  ret void
}

; std::env::var_os
; Function Attrs: nonlazybind uwtable
define void @_ZN3std3env6var_os17hc1ca00b2e7b450beE(ptr sret([24 x i8]) align 8 %_0, ptr align 1 %0, i64 %1) unnamed_addr #0 personality ptr @rust_eh_personality {
start:
  %2 = alloca [16 x i8], align 8
  %key = alloca [16 x i8], align 8
  store ptr %0, ptr %key, align 8
  %3 = getelementptr inbounds i8, ptr %key, i64 8
  store i64 %1, ptr %3, align 8
; invoke <&T as core::convert::AsRef<U>>::as_ref
  %4 = invoke { ptr, i64 } @"_ZN55_$LT$$RF$T$u20$as$u20$core..convert..AsRef$LT$U$GT$$GT$6as_ref17h52f2e13458fd804eE"(ptr align 8 %key)
          to label %bb1 unwind label %cleanup

bb4:                                              ; preds = %cleanup
  %5 = load ptr, ptr %2, align 8
  %6 = getelementptr inbounds i8, ptr %2, i64 8
  %7 = load i32, ptr %6, align 8
  %8 = insertvalue { ptr, i32 } poison, ptr %5, 0
  %9 = insertvalue { ptr, i32 } %8, i32 %7, 1
  resume { ptr, i32 } %9

cleanup:                                          ; preds = %bb1, %start
  %10 = landingpad { ptr, i32 }
          cleanup
  %11 = extractvalue { ptr, i32 } %10, 0
  %12 = extractvalue { ptr, i32 } %10, 1
  store ptr %11, ptr %2, align 8
  %13 = getelementptr inbounds i8, ptr %2, i64 8
  store i32 %12, ptr %13, align 8
  br label %bb4

bb1:                                              ; preds = %start
  %_2.0 = extractvalue { ptr, i64 } %4, 0
  %_2.1 = extractvalue { ptr, i64 } %4, 1
; invoke std::env::_var_os
  invoke void @_ZN3std3env7_var_os17h9aecae4c54784e54E(ptr sret([24 x i8]) align 8 %_0, ptr align 1 %_2.0, i64 %_2.1)
          to label %bb2 unwind label %cleanup

bb2:                                              ; preds = %bb1
  ret void
}

; std::ffi::os_str::<impl core::convert::AsRef<std::ffi::os_str::OsStr> for alloc::string::String>::as_ref
; Function Attrs: inlinehint nonlazybind uwtable
define internal { ptr, i64 } @"_ZN3std3ffi6os_str103_$LT$impl$u20$core..convert..AsRef$LT$std..ffi..os_str..OsStr$GT$$u20$for$u20$alloc..string..String$GT$6as_ref17h5972356e9b0f4ae8E"(ptr align 8 %self) unnamed_addr #1 {
start:
  %0 = getelementptr inbounds i8, ptr %self, i64 8
  %self1 = load ptr, ptr %0, align 8
  %1 = getelementptr inbounds i8, ptr %self, i64 16
  %len = load i64, ptr %1, align 8
  br label %bb3

bb3:                                              ; preds = %start
  %2 = insertvalue { ptr, i64 } poison, ptr %self1, 0
  %3 = insertvalue { ptr, i64 } %2, i64 %len, 1
  ret { ptr, i64 } %3

bb1:                                              ; No predecessors!
  unreachable

bb2:                                              ; No predecessors!
  unreachable
}

; std::ffi::os_str::<impl core::convert::AsRef<std::ffi::os_str::OsStr> for str>::as_ref
; Function Attrs: inlinehint nonlazybind uwtable
define internal { ptr, i64 } @"_ZN3std3ffi6os_str85_$LT$impl$u20$core..convert..AsRef$LT$std..ffi..os_str..OsStr$GT$$u20$for$u20$str$GT$6as_ref17h0183f586136aa3c0E"(ptr align 1 %self.0, i64 %self.1) unnamed_addr #1 {
start:
  %0 = insertvalue { ptr, i64 } poison, ptr %self.0, 0
  %1 = insertvalue { ptr, i64 } %0, i64 %self.1, 1
  ret { ptr, i64 } %1
}

; std::sys::pal::unix::fs::debug_assert_fd_is_open
; Function Attrs: inlinehint nonlazybind uwtable
define internal void @_ZN3std3sys3pal4unix2fs23debug_assert_fd_is_open17ha4d3b385d2b78515E(i32 %fd) unnamed_addr #1 {
start:
  %_11 = alloca [0 x i8], align 8
  %_9 = alloca [48 x i8], align 8
  %_7 = alloca [8 x i8], align 8
  %_6 = alloca [0 x i8], align 1
  br label %bb11

bb11:                                             ; preds = %start
  ret void

bb1:                                              ; No predecessors!
  unreachable

bb2:                                              ; No predecessors!
  unreachable

bb3:                                              ; No predecessors!
  unreachable

bb4:                                              ; No predecessors!
  unreachable

bb8:                                              ; No predecessors!
  unreachable

bb5:                                              ; No predecessors!
  unreachable

bb6:                                              ; No predecessors!
  unreachable

bb7:                                              ; No predecessors!
  unreachable

bb9:                                              ; No predecessors!
  unreachable

bb10:                                             ; No predecessors!
  unreachable
}

; std::path::<impl core::convert::AsRef<std::path::Path> for std::ffi::os_str::OsString>::as_ref
; Function Attrs: inlinehint nonlazybind uwtable
define internal { ptr, i64 } @"_ZN3std4path100_$LT$impl$u20$core..convert..AsRef$LT$std..path..Path$GT$$u20$for$u20$std..ffi..os_str..OsString$GT$6as_ref17h5925389fbb699e4cE"(ptr align 8 %self) unnamed_addr #1 {
start:
; call <std::ffi::os_str::OsString as core::ops::index::Index<core::ops::range::RangeFull>>::index
  %0 = call { ptr, i64 } @"_ZN105_$LT$std..ffi..os_str..OsString$u20$as$u20$core..ops..index..Index$LT$core..ops..range..RangeFull$GT$$GT$5index17h7aa7bd72229d06c3E"(ptr align 8 %self, ptr align 8 @alloc_234fae6edaca0695beafe2eda65d3b82)
  %_4.0 = extractvalue { ptr, i64 } %0, 0
  %_4.1 = extractvalue { ptr, i64 } %0, 1
  %1 = insertvalue { ptr, i64 } poison, ptr %_4.0, 0
  %2 = insertvalue { ptr, i64 } %1, i64 %_4.1, 1
  ret { ptr, i64 } %2
}

; std::path::Path::to_str
; Function Attrs: inlinehint nonlazybind uwtable
define internal { ptr, i64 } @_ZN3std4path4Path6to_str17he16524ccfcabaa78E(ptr align 1 %self.0, i64 %self.1) unnamed_addr #1 {
start:
  %self = alloca [24 x i8], align 8
  %_0 = alloca [16 x i8], align 8
; call std::sys::os_str::bytes::Slice::to_str
  call void @_ZN3std3sys6os_str5bytes5Slice6to_str17h4217f2f41feea2acE(ptr sret([24 x i8]) align 8 %self, ptr align 1 %self.0, i64 %self.1)
  %_5 = load i64, ptr %self, align 8
  %0 = icmp eq i64 %_5, 0
  br i1 %0, label %bb4, label %bb3

bb4:                                              ; preds = %start
  %1 = getelementptr inbounds i8, ptr %self, i64 8
  %x.0 = load ptr, ptr %1, align 8
  %2 = getelementptr inbounds i8, ptr %1, i64 8
  %x.1 = load i64, ptr %2, align 8
  store ptr %x.0, ptr %_0, align 8
  %3 = getelementptr inbounds i8, ptr %_0, i64 8
  store i64 %x.1, ptr %3, align 8
  br label %bb5

bb3:                                              ; preds = %start
  %4 = load ptr, ptr @1, align 8
  %5 = load i64, ptr getelementptr inbounds (i8, ptr @1, i64 8), align 8
  store ptr %4, ptr %_0, align 8
  %6 = getelementptr inbounds i8, ptr %_0, i64 8
  store i64 %5, ptr %6, align 8
  br label %bb5

bb5:                                              ; preds = %bb3, %bb4
  %7 = load ptr, ptr %_0, align 8
  %8 = getelementptr inbounds i8, ptr %_0, i64 8
  %9 = load i64, ptr %8, align 8
  %10 = insertvalue { ptr, i64 } poison, ptr %7, 0
  %11 = insertvalue { ptr, i64 } %10, i64 %9, 1
  ret { ptr, i64 } %11

bb2:                                              ; No predecessors!
  unreachable
}

; std::path::PathBuf::push
; Function Attrs: nonlazybind uwtable
define void @_ZN3std4path7PathBuf4push17h90f298414011fc3cE(ptr align 8 %self, ptr align 8 %0) unnamed_addr #0 personality ptr @rust_eh_personality {
start:
  %1 = alloca [16 x i8], align 8
  %path = alloca [8 x i8], align 8
  store ptr %0, ptr %path, align 8
; invoke <&T as core::convert::AsRef<U>>::as_ref
  %2 = invoke { ptr, i64 } @"_ZN55_$LT$$RF$T$u20$as$u20$core..convert..AsRef$LT$U$GT$$GT$6as_ref17h93f1f5a0058f2c13E"(ptr align 8 %path)
          to label %bb1 unwind label %cleanup

bb4:                                              ; preds = %cleanup
  %3 = load ptr, ptr %1, align 8
  %4 = getelementptr inbounds i8, ptr %1, i64 8
  %5 = load i32, ptr %4, align 8
  %6 = insertvalue { ptr, i32 } poison, ptr %3, 0
  %7 = insertvalue { ptr, i32 } %6, i32 %5, 1
  resume { ptr, i32 } %7

cleanup:                                          ; preds = %bb1, %start
  %8 = landingpad { ptr, i32 }
          cleanup
  %9 = extractvalue { ptr, i32 } %8, 0
  %10 = extractvalue { ptr, i32 } %8, 1
  store ptr %9, ptr %1, align 8
  %11 = getelementptr inbounds i8, ptr %1, i64 8
  store i32 %10, ptr %11, align 8
  br label %bb4

bb1:                                              ; preds = %start
  %_3.0 = extractvalue { ptr, i64 } %2, 0
  %_3.1 = extractvalue { ptr, i64 } %2, 1
; invoke std::path::PathBuf::_push
  invoke void @_ZN3std4path7PathBuf5_push17hff4f63575bf11fa4E(ptr align 8 %self, ptr align 1 %_3.0, i64 %_3.1)
          to label %bb2 unwind label %cleanup

bb2:                                              ; preds = %bb1
  ret void
}

; std::process::ExitStatus::success
; Function Attrs: nonlazybind uwtable
define internal zeroext i1 @_ZN3std7process10ExitStatus7success17hca48bd14a83a4d91E(ptr align 4 %self) unnamed_addr #0 {
start:
  %self1 = alloca [4 x i8], align 4
  %_3 = alloca [4 x i8], align 4
  %_0 = alloca [1 x i8], align 1
  %value = load i32, ptr %self, align 4
  store i32 %value, ptr %self1, align 4
  %0 = load i32, ptr %self1, align 4
  %1 = icmp eq i32 %0, 0
  %_8 = select i1 %1, i64 0, i64 1
  %2 = icmp eq i64 %_8, 0
  br i1 %2, label %bb3, label %bb4

bb3:                                              ; preds = %start
  store i32 0, ptr %_3, align 4
  br label %bb2

bb4:                                              ; preds = %start
  %failure = load i32, ptr %self1, align 4
  store i32 %failure, ptr %_3, align 4
  br label %bb2

bb2:                                              ; preds = %bb4, %bb3
  %3 = load i32, ptr %_3, align 4
  %4 = icmp eq i32 %3, 0
  %_10 = select i1 %4, i64 0, i64 1
  %5 = icmp eq i64 %_10, 0
  br i1 %5, label %bb7, label %bb6

bb7:                                              ; preds = %bb2
  store i8 1, ptr %_0, align 1
  br label %bb5

bb6:                                              ; preds = %bb2
  store i8 0, ptr %_0, align 1
  br label %bb5

bb5:                                              ; preds = %bb6, %bb7
  %6 = load i8, ptr %_0, align 1
  %7 = trunc i8 %6 to i1
  ret i1 %7

bb1:                                              ; No predecessors!
  unreachable
}

; std::process::Stdio::piped
; Function Attrs: nonlazybind uwtable
define internal { i32, i32 } @_ZN3std7process5Stdio5piped17h71be365c78fb809eE() unnamed_addr #0 {
start:
  %_0.0 = load i32, ptr @2, align 4
  %_0.1 = load i32, ptr getelementptr inbounds (i8, ptr @2, i64 4), align 4
  %0 = insertvalue { i32, i32 } poison, i32 %_0.0, 0
  %1 = insertvalue { i32, i32 } %0, i32 %_0.1, 1
  ret { i32, i32 } %1
}

; std::process::Command::arg
; Function Attrs: nonlazybind uwtable
define align 8 ptr @_ZN3std7process7Command3arg17h02ac029368fe57b5E(ptr align 8 %self, ptr align 8 %0) unnamed_addr #0 personality ptr @rust_eh_personality {
start:
  %1 = alloca [16 x i8], align 8
  %arg = alloca [8 x i8], align 8
  store ptr %0, ptr %arg, align 8
; invoke <&T as core::convert::AsRef<U>>::as_ref
  %2 = invoke { ptr, i64 } @"_ZN55_$LT$$RF$T$u20$as$u20$core..convert..AsRef$LT$U$GT$$GT$6as_ref17h4f67ad21d9f234a1E"(ptr align 8 %arg)
          to label %bb1 unwind label %cleanup

bb4:                                              ; preds = %cleanup
  %3 = load ptr, ptr %1, align 8
  %4 = getelementptr inbounds i8, ptr %1, i64 8
  %5 = load i32, ptr %4, align 8
  %6 = insertvalue { ptr, i32 } poison, ptr %3, 0
  %7 = insertvalue { ptr, i32 } %6, i32 %5, 1
  resume { ptr, i32 } %7

cleanup:                                          ; preds = %bb1, %start
  %8 = landingpad { ptr, i32 }
          cleanup
  %9 = extractvalue { ptr, i32 } %8, 0
  %10 = extractvalue { ptr, i32 } %8, 1
  store ptr %9, ptr %1, align 8
  %11 = getelementptr inbounds i8, ptr %1, i64 8
  store i32 %10, ptr %11, align 8
  br label %bb4

bb1:                                              ; preds = %start
  %_5.0 = extractvalue { ptr, i64 } %2, 0
  %_5.1 = extractvalue { ptr, i64 } %2, 1
; invoke std::sys::pal::unix::process::process_common::Command::arg
  invoke void @_ZN3std3sys3pal4unix7process14process_common7Command3arg17ha8476da1a2226c3fE(ptr align 8 %self, ptr align 1 %_5.0, i64 %_5.1)
          to label %bb2 unwind label %cleanup

bb2:                                              ; preds = %bb1
  ret ptr %self
}

; std::process::Command::arg
; Function Attrs: nonlazybind uwtable
define align 8 ptr @_ZN3std7process7Command3arg17h0dbc9e0ee8237accE(ptr align 8 %self, ptr align 1 %0, i64 %1) unnamed_addr #0 personality ptr @rust_eh_personality {
start:
  %2 = alloca [16 x i8], align 8
  %arg = alloca [16 x i8], align 8
  store ptr %0, ptr %arg, align 8
  %3 = getelementptr inbounds i8, ptr %arg, i64 8
  store i64 %1, ptr %3, align 8
; invoke <&T as core::convert::AsRef<U>>::as_ref
  %4 = invoke { ptr, i64 } @"_ZN55_$LT$$RF$T$u20$as$u20$core..convert..AsRef$LT$U$GT$$GT$6as_ref17h52f2e13458fd804eE"(ptr align 8 %arg)
          to label %bb1 unwind label %cleanup

bb4:                                              ; preds = %cleanup
  %5 = load ptr, ptr %2, align 8
  %6 = getelementptr inbounds i8, ptr %2, i64 8
  %7 = load i32, ptr %6, align 8
  %8 = insertvalue { ptr, i32 } poison, ptr %5, 0
  %9 = insertvalue { ptr, i32 } %8, i32 %7, 1
  resume { ptr, i32 } %9

cleanup:                                          ; preds = %bb1, %start
  %10 = landingpad { ptr, i32 }
          cleanup
  %11 = extractvalue { ptr, i32 } %10, 0
  %12 = extractvalue { ptr, i32 } %10, 1
  store ptr %11, ptr %2, align 8
  %13 = getelementptr inbounds i8, ptr %2, i64 8
  store i32 %12, ptr %13, align 8
  br label %bb4

bb1:                                              ; preds = %start
  %_5.0 = extractvalue { ptr, i64 } %4, 0
  %_5.1 = extractvalue { ptr, i64 } %4, 1
; invoke std::sys::pal::unix::process::process_common::Command::arg
  invoke void @_ZN3std3sys3pal4unix7process14process_common7Command3arg17ha8476da1a2226c3fE(ptr align 8 %self, ptr align 1 %_5.0, i64 %_5.1)
          to label %bb2 unwind label %cleanup

bb2:                                              ; preds = %bb1
  ret ptr %self
}

; std::process::Command::arg
; Function Attrs: nonlazybind uwtable
define align 8 ptr @_ZN3std7process7Command3arg17h530343a86bfdbb8aE(ptr align 8 %self, ptr align 8 %0) unnamed_addr #0 personality ptr @rust_eh_personality {
start:
  %1 = alloca [16 x i8], align 8
  %arg = alloca [8 x i8], align 8
  store ptr %0, ptr %arg, align 8
; invoke <&T as core::convert::AsRef<U>>::as_ref
  %2 = invoke { ptr, i64 } @"_ZN55_$LT$$RF$T$u20$as$u20$core..convert..AsRef$LT$U$GT$$GT$6as_ref17h93a53dd533022c2aE"(ptr align 8 %arg)
          to label %bb1 unwind label %cleanup

bb4:                                              ; preds = %cleanup
  %3 = load ptr, ptr %1, align 8
  %4 = getelementptr inbounds i8, ptr %1, i64 8
  %5 = load i32, ptr %4, align 8
  %6 = insertvalue { ptr, i32 } poison, ptr %3, 0
  %7 = insertvalue { ptr, i32 } %6, i32 %5, 1
  resume { ptr, i32 } %7

cleanup:                                          ; preds = %bb1, %start
  %8 = landingpad { ptr, i32 }
          cleanup
  %9 = extractvalue { ptr, i32 } %8, 0
  %10 = extractvalue { ptr, i32 } %8, 1
  store ptr %9, ptr %1, align 8
  %11 = getelementptr inbounds i8, ptr %1, i64 8
  store i32 %10, ptr %11, align 8
  br label %bb4

bb1:                                              ; preds = %start
  %_5.0 = extractvalue { ptr, i64 } %2, 0
  %_5.1 = extractvalue { ptr, i64 } %2, 1
; invoke std::sys::pal::unix::process::process_common::Command::arg
  invoke void @_ZN3std3sys3pal4unix7process14process_common7Command3arg17ha8476da1a2226c3fE(ptr align 8 %self, ptr align 1 %_5.0, i64 %_5.1)
          to label %bb2 unwind label %cleanup

bb2:                                              ; preds = %bb1
  ret ptr %self
}

; std::process::Command::arg
; Function Attrs: nonlazybind uwtable
define align 8 ptr @_ZN3std7process7Command3arg17h907bb48928384aa8E(ptr align 8 %self, ptr align 8 %arg) unnamed_addr #0 personality ptr @rust_eh_personality {
start:
  %0 = alloca [16 x i8], align 8
; invoke std::ffi::os_str::<impl core::convert::AsRef<std::ffi::os_str::OsStr> for alloc::string::String>::as_ref
  %1 = invoke { ptr, i64 } @"_ZN3std3ffi6os_str103_$LT$impl$u20$core..convert..AsRef$LT$std..ffi..os_str..OsStr$GT$$u20$for$u20$alloc..string..String$GT$6as_ref17h5972356e9b0f4ae8E"(ptr align 8 %arg)
          to label %bb1 unwind label %cleanup

bb4:                                              ; preds = %cleanup
; invoke core::ptr::drop_in_place<alloc::string::String>
  invoke void @"_ZN4core3ptr42drop_in_place$LT$alloc..string..String$GT$17h007215f0c9e60290E"(ptr align 8 %arg) #21
          to label %bb5 unwind label %terminate

cleanup:                                          ; preds = %bb1, %start
  %2 = landingpad { ptr, i32 }
          cleanup
  %3 = extractvalue { ptr, i32 } %2, 0
  %4 = extractvalue { ptr, i32 } %2, 1
  store ptr %3, ptr %0, align 8
  %5 = getelementptr inbounds i8, ptr %0, i64 8
  store i32 %4, ptr %5, align 8
  br label %bb4

bb1:                                              ; preds = %start
  %_5.0 = extractvalue { ptr, i64 } %1, 0
  %_5.1 = extractvalue { ptr, i64 } %1, 1
; invoke std::sys::pal::unix::process::process_common::Command::arg
  invoke void @_ZN3std3sys3pal4unix7process14process_common7Command3arg17ha8476da1a2226c3fE(ptr align 8 %self, ptr align 1 %_5.0, i64 %_5.1)
          to label %bb2 unwind label %cleanup

bb2:                                              ; preds = %bb1
; call core::ptr::drop_in_place<alloc::string::String>
  call void @"_ZN4core3ptr42drop_in_place$LT$alloc..string..String$GT$17h007215f0c9e60290E"(ptr align 8 %arg)
  ret ptr %self

terminate:                                        ; preds = %bb4
  %6 = landingpad { ptr, i32 }
          filter [0 x ptr] zeroinitializer
  %7 = extractvalue { ptr, i32 } %6, 0
  %8 = extractvalue { ptr, i32 } %6, 1
; call core::panicking::panic_in_cleanup
  call void @_ZN4core9panicking16panic_in_cleanup17h43442956f23e9cbeE() #22
  unreachable

bb5:                                              ; preds = %bb4
  %9 = load ptr, ptr %0, align 8
  %10 = getelementptr inbounds i8, ptr %0, i64 8
  %11 = load i32, ptr %10, align 8
  %12 = insertvalue { ptr, i32 } poison, ptr %9, 0
  %13 = insertvalue { ptr, i32 } %12, i32 %11, 1
  resume { ptr, i32 } %13
}

; std::process::Command::arg
; Function Attrs: nonlazybind uwtable
define align 8 ptr @_ZN3std7process7Command3arg17h996ac57a17c6f2d2E(ptr align 8 %self, ptr align 1 %0, i64 %1) unnamed_addr #0 personality ptr @rust_eh_personality {
start:
  %2 = alloca [16 x i8], align 8
  %arg = alloca [16 x i8], align 8
  store ptr %0, ptr %arg, align 8
  %3 = getelementptr inbounds i8, ptr %arg, i64 8
  store i64 %1, ptr %3, align 8
; invoke <&T as core::convert::AsRef<U>>::as_ref
  %4 = invoke { ptr, i64 } @"_ZN55_$LT$$RF$T$u20$as$u20$core..convert..AsRef$LT$U$GT$$GT$6as_ref17h5fac4f63fa384b1aE"(ptr align 8 %arg)
          to label %bb1 unwind label %cleanup

bb4:                                              ; preds = %cleanup
  %5 = load ptr, ptr %2, align 8
  %6 = getelementptr inbounds i8, ptr %2, i64 8
  %7 = load i32, ptr %6, align 8
  %8 = insertvalue { ptr, i32 } poison, ptr %5, 0
  %9 = insertvalue { ptr, i32 } %8, i32 %7, 1
  resume { ptr, i32 } %9

cleanup:                                          ; preds = %bb1, %start
  %10 = landingpad { ptr, i32 }
          cleanup
  %11 = extractvalue { ptr, i32 } %10, 0
  %12 = extractvalue { ptr, i32 } %10, 1
  store ptr %11, ptr %2, align 8
  %13 = getelementptr inbounds i8, ptr %2, i64 8
  store i32 %12, ptr %13, align 8
  br label %bb4

bb1:                                              ; preds = %start
  %_5.0 = extractvalue { ptr, i64 } %4, 0
  %_5.1 = extractvalue { ptr, i64 } %4, 1
; invoke std::sys::pal::unix::process::process_common::Command::arg
  invoke void @_ZN3std3sys3pal4unix7process14process_common7Command3arg17ha8476da1a2226c3fE(ptr align 8 %self, ptr align 1 %_5.0, i64 %_5.1)
          to label %bb2 unwind label %cleanup

bb2:                                              ; preds = %bb1
  ret ptr %self
}

; std::process::Command::new
; Function Attrs: nonlazybind uwtable
define void @_ZN3std7process7Command3new17hbc7972191c999243E(ptr sret([208 x i8]) align 8 %_0, ptr align 1 %0, i64 %1) unnamed_addr #0 personality ptr @rust_eh_personality {
start:
  %2 = alloca [16 x i8], align 8
  %_2 = alloca [208 x i8], align 8
  %program = alloca [16 x i8], align 8
  store ptr %0, ptr %program, align 8
  %3 = getelementptr inbounds i8, ptr %program, i64 8
  store i64 %1, ptr %3, align 8
; invoke <&T as core::convert::AsRef<U>>::as_ref
  %4 = invoke { ptr, i64 } @"_ZN55_$LT$$RF$T$u20$as$u20$core..convert..AsRef$LT$U$GT$$GT$6as_ref17h161f9c650818f6e6E"(ptr align 8 %program)
          to label %bb1 unwind label %cleanup

bb4:                                              ; preds = %cleanup
  %5 = load ptr, ptr %2, align 8
  %6 = getelementptr inbounds i8, ptr %2, i64 8
  %7 = load i32, ptr %6, align 8
  %8 = insertvalue { ptr, i32 } poison, ptr %5, 0
  %9 = insertvalue { ptr, i32 } %8, i32 %7, 1
  resume { ptr, i32 } %9

cleanup:                                          ; preds = %bb1, %start
  %10 = landingpad { ptr, i32 }
          cleanup
  %11 = extractvalue { ptr, i32 } %10, 0
  %12 = extractvalue { ptr, i32 } %10, 1
  store ptr %11, ptr %2, align 8
  %13 = getelementptr inbounds i8, ptr %2, i64 8
  store i32 %12, ptr %13, align 8
  br label %bb4

bb1:                                              ; preds = %start
  %_3.0 = extractvalue { ptr, i64 } %4, 0
  %_3.1 = extractvalue { ptr, i64 } %4, 1
; invoke std::sys::pal::unix::process::process_common::Command::new
  invoke void @_ZN3std3sys3pal4unix7process14process_common7Command3new17hfa5eb68deccbe5b2E(ptr sret([208 x i8]) align 8 %_2, ptr align 1 %_3.0, i64 %_3.1)
          to label %bb2 unwind label %cleanup

bb2:                                              ; preds = %bb1
  call void @llvm.memcpy.p0.p0.i64(ptr align 8 %_0, ptr align 8 %_2, i64 208, i1 false)
  ret void
}

; std::process::Command::new
; Function Attrs: nonlazybind uwtable
define void @_ZN3std7process7Command3new17hf9789d43d0aee7f7E(ptr sret([208 x i8]) align 8 %_0, ptr align 8 %0) unnamed_addr #0 personality ptr @rust_eh_personality {
start:
  %1 = alloca [16 x i8], align 8
  %_2 = alloca [208 x i8], align 8
  %program = alloca [8 x i8], align 8
  store ptr %0, ptr %program, align 8
; invoke <&T as core::convert::AsRef<U>>::as_ref
  %2 = invoke { ptr, i64 } @"_ZN55_$LT$$RF$T$u20$as$u20$core..convert..AsRef$LT$U$GT$$GT$6as_ref17h4f67ad21d9f234a1E"(ptr align 8 %program)
          to label %bb1 unwind label %cleanup

bb4:                                              ; preds = %cleanup
  %3 = load ptr, ptr %1, align 8
  %4 = getelementptr inbounds i8, ptr %1, i64 8
  %5 = load i32, ptr %4, align 8
  %6 = insertvalue { ptr, i32 } poison, ptr %3, 0
  %7 = insertvalue { ptr, i32 } %6, i32 %5, 1
  resume { ptr, i32 } %7

cleanup:                                          ; preds = %bb1, %start
  %8 = landingpad { ptr, i32 }
          cleanup
  %9 = extractvalue { ptr, i32 } %8, 0
  %10 = extractvalue { ptr, i32 } %8, 1
  store ptr %9, ptr %1, align 8
  %11 = getelementptr inbounds i8, ptr %1, i64 8
  store i32 %10, ptr %11, align 8
  br label %bb4

bb1:                                              ; preds = %start
  %_3.0 = extractvalue { ptr, i64 } %2, 0
  %_3.1 = extractvalue { ptr, i64 } %2, 1
; invoke std::sys::pal::unix::process::process_common::Command::new
  invoke void @_ZN3std3sys3pal4unix7process14process_common7Command3new17hfa5eb68deccbe5b2E(ptr sret([208 x i8]) align 8 %_2, ptr align 1 %_3.0, i64 %_3.1)
          to label %bb2 unwind label %cleanup

bb2:                                              ; preds = %bb1
  call void @llvm.memcpy.p0.p0.i64(ptr align 8 %_0, ptr align 8 %_2, i64 208, i1 false)
  ret void
}

; std::process::Command::args
; Function Attrs: nonlazybind uwtable
define align 8 ptr @_ZN3std7process7Command4args17h91c97206b22c39a9E(ptr align 8 %self, ptr align 8 %args) unnamed_addr #0 personality ptr @rust_eh_personality {
start:
  %0 = alloca [16 x i8], align 8
  %arg = alloca [8 x i8], align 8
  %_5 = alloca [8 x i8], align 8
  %iter = alloca [16 x i8], align 8
; call <&alloc::vec::Vec<T,A> as core::iter::traits::collect::IntoIterator>::into_iter
  %1 = call { ptr, ptr } @"_ZN94_$LT$$RF$alloc..vec..Vec$LT$T$C$A$GT$$u20$as$u20$core..iter..traits..collect..IntoIterator$GT$9into_iter17ha1ced89e1c879405E"(ptr align 8 %args)
  %_3.0 = extractvalue { ptr, ptr } %1, 0
  %_3.1 = extractvalue { ptr, ptr } %1, 1
  store ptr %_3.0, ptr %iter, align 8
  %2 = getelementptr inbounds i8, ptr %iter, i64 8
  store ptr %_3.1, ptr %2, align 8
  br label %bb2

bb2:                                              ; preds = %bb9, %start
; invoke <core::slice::iter::Iter<T> as core::iter::traits::iterator::Iterator>::next
  %3 = invoke align 8 ptr @"_ZN91_$LT$core..slice..iter..Iter$LT$T$GT$$u20$as$u20$core..iter..traits..iterator..Iterator$GT$4next17hf11f163135588431E"(ptr align 8 %iter)
          to label %bb3 unwind label %cleanup

bb12:                                             ; preds = %bb11, %cleanup
  %4 = load ptr, ptr %0, align 8
  %5 = getelementptr inbounds i8, ptr %0, i64 8
  %6 = load i32, ptr %5, align 8
  %7 = insertvalue { ptr, i32 } poison, ptr %4, 0
  %8 = insertvalue { ptr, i32 } %7, i32 %6, 1
  resume { ptr, i32 } %8

cleanup:                                          ; preds = %bb2
  %9 = landingpad { ptr, i32 }
          cleanup
  %10 = extractvalue { ptr, i32 } %9, 0
  %11 = extractvalue { ptr, i32 } %9, 1
  store ptr %10, ptr %0, align 8
  %12 = getelementptr inbounds i8, ptr %0, i64 8
  store i32 %11, ptr %12, align 8
  br label %bb12

bb3:                                              ; preds = %bb2
  store ptr %3, ptr %_5, align 8
  %13 = load ptr, ptr %_5, align 8
  %14 = ptrtoint ptr %13 to i64
  %15 = icmp eq i64 %14, 0
  %_7 = select i1 %15, i64 0, i64 1
  %16 = icmp eq i64 %_7, 0
  br i1 %16, label %bb6, label %bb5

bb6:                                              ; preds = %bb3
  ret ptr %self

bb5:                                              ; preds = %bb3
  %17 = load ptr, ptr %_5, align 8
  store ptr %17, ptr %arg, align 8
; invoke <&T as core::convert::AsRef<U>>::as_ref
  %18 = invoke { ptr, i64 } @"_ZN55_$LT$$RF$T$u20$as$u20$core..convert..AsRef$LT$U$GT$$GT$6as_ref17he321b432d185534fE"(ptr align 8 %arg)
          to label %bb7 unwind label %cleanup1

bb11:                                             ; preds = %cleanup1
  br label %bb12

cleanup1:                                         ; preds = %bb7, %bb5
  %19 = landingpad { ptr, i32 }
          cleanup
  %20 = extractvalue { ptr, i32 } %19, 0
  %21 = extractvalue { ptr, i32 } %19, 1
  store ptr %20, ptr %0, align 8
  %22 = getelementptr inbounds i8, ptr %0, i64 8
  store i32 %21, ptr %22, align 8
  br label %bb11

bb7:                                              ; preds = %bb5
  %_10.0 = extractvalue { ptr, i64 } %18, 0
  %_10.1 = extractvalue { ptr, i64 } %18, 1
; invoke std::process::Command::arg
  %_9 = invoke align 8 ptr @_ZN3std7process7Command3arg17h996ac57a17c6f2d2E(ptr align 8 %self, ptr align 1 %_10.0, i64 %_10.1)
          to label %bb8 unwind label %cleanup1

bb8:                                              ; preds = %bb7
  br label %bb9

bb9:                                              ; preds = %bb8
  br label %bb2

bb4:                                              ; No predecessors!
  unreachable
}

; std::process::Command::args
; Function Attrs: nonlazybind uwtable
define align 8 ptr @_ZN3std7process7Command4args17hf3bd3f1d6f28a5ceE(ptr align 8 %self, ptr align 8 %args) unnamed_addr #0 personality ptr @rust_eh_personality {
start:
  %0 = alloca [16 x i8], align 8
  %arg = alloca [8 x i8], align 8
  %_5 = alloca [8 x i8], align 8
  %iter = alloca [16 x i8], align 8
; call core::array::<impl core::iter::traits::collect::IntoIterator for &[T; N]>::into_iter
  %1 = call { ptr, ptr } @"_ZN4core5array98_$LT$impl$u20$core..iter..traits..collect..IntoIterator$u20$for$u20$$RF$$u5b$T$u3b$$u20$N$u5d$$GT$9into_iter17h59b3131ed5abf3b9E"(ptr align 8 %args)
  %_3.0 = extractvalue { ptr, ptr } %1, 0
  %_3.1 = extractvalue { ptr, ptr } %1, 1
  store ptr %_3.0, ptr %iter, align 8
  %2 = getelementptr inbounds i8, ptr %iter, i64 8
  store ptr %_3.1, ptr %2, align 8
  br label %bb2

bb2:                                              ; preds = %bb9, %start
; invoke <core::slice::iter::Iter<T> as core::iter::traits::iterator::Iterator>::next
  %3 = invoke align 8 ptr @"_ZN91_$LT$core..slice..iter..Iter$LT$T$GT$$u20$as$u20$core..iter..traits..iterator..Iterator$GT$4next17h5ed4b381f67a0975E"(ptr align 8 %iter)
          to label %bb3 unwind label %cleanup

bb12:                                             ; preds = %bb11, %cleanup
  %4 = load ptr, ptr %0, align 8
  %5 = getelementptr inbounds i8, ptr %0, i64 8
  %6 = load i32, ptr %5, align 8
  %7 = insertvalue { ptr, i32 } poison, ptr %4, 0
  %8 = insertvalue { ptr, i32 } %7, i32 %6, 1
  resume { ptr, i32 } %8

cleanup:                                          ; preds = %bb2
  %9 = landingpad { ptr, i32 }
          cleanup
  %10 = extractvalue { ptr, i32 } %9, 0
  %11 = extractvalue { ptr, i32 } %9, 1
  store ptr %10, ptr %0, align 8
  %12 = getelementptr inbounds i8, ptr %0, i64 8
  store i32 %11, ptr %12, align 8
  br label %bb12

bb3:                                              ; preds = %bb2
  store ptr %3, ptr %_5, align 8
  %13 = load ptr, ptr %_5, align 8
  %14 = ptrtoint ptr %13 to i64
  %15 = icmp eq i64 %14, 0
  %_7 = select i1 %15, i64 0, i64 1
  %16 = icmp eq i64 %_7, 0
  br i1 %16, label %bb6, label %bb5

bb6:                                              ; preds = %bb3
  ret ptr %self

bb5:                                              ; preds = %bb3
  %17 = load ptr, ptr %_5, align 8
  store ptr %17, ptr %arg, align 8
; invoke <&T as core::convert::AsRef<U>>::as_ref
  %18 = invoke { ptr, i64 } @"_ZN55_$LT$$RF$T$u20$as$u20$core..convert..AsRef$LT$U$GT$$GT$6as_ref17h1519c8339a6291feE"(ptr align 8 %arg)
          to label %bb7 unwind label %cleanup1

bb11:                                             ; preds = %cleanup1
  br label %bb12

cleanup1:                                         ; preds = %bb7, %bb5
  %19 = landingpad { ptr, i32 }
          cleanup
  %20 = extractvalue { ptr, i32 } %19, 0
  %21 = extractvalue { ptr, i32 } %19, 1
  store ptr %20, ptr %0, align 8
  %22 = getelementptr inbounds i8, ptr %0, i64 8
  store i32 %21, ptr %22, align 8
  br label %bb11

bb7:                                              ; preds = %bb5
  %_10.0 = extractvalue { ptr, i64 } %18, 0
  %_10.1 = extractvalue { ptr, i64 } %18, 1
; invoke std::process::Command::arg
  %_9 = invoke align 8 ptr @_ZN3std7process7Command3arg17h996ac57a17c6f2d2E(ptr align 8 %self, ptr align 1 %_10.0, i64 %_10.1)
          to label %bb8 unwind label %cleanup1

bb8:                                              ; preds = %bb7
  br label %bb9

bb9:                                              ; preds = %bb8
  br label %bb2

bb4:                                              ; No predecessors!
  unreachable
}

; std::process::Command::stdin
; Function Attrs: nonlazybind uwtable
define align 8 ptr @_ZN3std7process7Command5stdin17h97527a6d7072d1e3E(ptr align 8 %self, i32 %cfg.0, i32 %cfg.1) unnamed_addr #0 {
start:
; call <T as core::convert::Into<U>>::into
  %0 = call { i32, i32 } @"_ZN50_$LT$T$u20$as$u20$core..convert..Into$LT$U$GT$$GT$4into17h13eb4e360ef9dd50E"(i32 %cfg.0, i32 %cfg.1, ptr align 8 @alloc_e22e0a343e1a1705e17ea7ed3681dab6)
  %_6.0 = extractvalue { i32, i32 } %0, 0
  %_6.1 = extractvalue { i32, i32 } %0, 1
; call std::sys::pal::unix::process::process_common::Command::stdin
  call void @_ZN3std3sys3pal4unix7process14process_common7Command5stdin17h94548a0e0fc39a77E(ptr align 8 %self, i32 %_6.0, i32 %_6.1)
  ret ptr %self
}

; <&T as core::fmt::Debug>::fmt
; Function Attrs: nonlazybind uwtable
define zeroext i1 @"_ZN42_$LT$$RF$T$u20$as$u20$core..fmt..Debug$GT$3fmt17h01b1c589fb32c800E"(ptr align 8 %self, ptr align 8 %f) unnamed_addr #0 {
start:
  %_3 = load ptr, ptr %self, align 8
; call <&T as core::fmt::Debug>::fmt
  %_0 = call zeroext i1 @"_ZN42_$LT$$RF$T$u20$as$u20$core..fmt..Debug$GT$3fmt17hc97d295cda93ea94E"(ptr align 8 %_3, ptr align 8 %f)
  ret i1 %_0
}

; <&T as core::fmt::Debug>::fmt
; Function Attrs: nonlazybind uwtable
define zeroext i1 @"_ZN42_$LT$$RF$T$u20$as$u20$core..fmt..Debug$GT$3fmt17h01f7828cce73eea7E"(ptr align 8 %self, ptr align 8 %f) unnamed_addr #0 {
start:
  %_3 = load ptr, ptr %self, align 8
; call <core::num::error::ParseIntError as core::fmt::Debug>::fmt
  %_0 = call zeroext i1 @"_ZN68_$LT$core..num..error..ParseIntError$u20$as$u20$core..fmt..Debug$GT$3fmt17hca6706fd55745e88E"(ptr align 1 %_3, ptr align 8 %f)
  ret i1 %_0
}

; <&T as core::fmt::Debug>::fmt
; Function Attrs: nonlazybind uwtable
define zeroext i1 @"_ZN42_$LT$$RF$T$u20$as$u20$core..fmt..Debug$GT$3fmt17h049033334e03d42aE"(ptr align 8 %self, ptr align 8 %f) unnamed_addr #0 {
start:
  %_3 = load ptr, ptr %self, align 8
; call <() as core::fmt::Debug>::fmt
  %_0 = call zeroext i1 @"_ZN45_$LT$$LP$$RP$$u20$as$u20$core..fmt..Debug$GT$3fmt17h4f53cc1855917915E"(ptr align 1 %_3, ptr align 8 %f)
  ret i1 %_0
}

; <&T as core::fmt::Debug>::fmt
; Function Attrs: nonlazybind uwtable
define zeroext i1 @"_ZN42_$LT$$RF$T$u20$as$u20$core..fmt..Debug$GT$3fmt17h3e23c988abcd67e6E"(ptr align 8 %self, ptr align 8 %f) unnamed_addr #0 {
start:
  %_3 = load ptr, ptr %self, align 8
; call <core::num::error::IntErrorKind as core::fmt::Debug>::fmt
  %_0 = call zeroext i1 @"_ZN67_$LT$core..num..error..IntErrorKind$u20$as$u20$core..fmt..Debug$GT$3fmt17h0eb6bcb9d8f0f917E"(ptr align 1 %_3, ptr align 8 %f)
  ret i1 %_0
}

; <&T as core::fmt::Debug>::fmt
; Function Attrs: nonlazybind uwtable
define zeroext i1 @"_ZN42_$LT$$RF$T$u20$as$u20$core..fmt..Debug$GT$3fmt17h78ad5071fc78d701E"(ptr align 8 %self, ptr align 8 %f) unnamed_addr #0 {
start:
  %_3 = load ptr, ptr %self, align 8
; call <core::str::error::Utf8Error as core::fmt::Debug>::fmt
  %_0 = call zeroext i1 @"_ZN64_$LT$core..str..error..Utf8Error$u20$as$u20$core..fmt..Debug$GT$3fmt17ha344968c674884c1E"(ptr align 8 %_3, ptr align 8 %f)
  ret i1 %_0
}

; <&T as core::fmt::Debug>::fmt
; Function Attrs: nonlazybind uwtable
define zeroext i1 @"_ZN42_$LT$$RF$T$u20$as$u20$core..fmt..Debug$GT$3fmt17h8c9eea2d464ddcf7E"(ptr align 8 %self, ptr align 8 %f) unnamed_addr #0 {
start:
  %_3 = load ptr, ptr %self, align 8
; call <core::option::Option<T> as core::fmt::Debug>::fmt
  %_0 = call zeroext i1 @"_ZN66_$LT$core..option..Option$LT$T$GT$$u20$as$u20$core..fmt..Debug$GT$3fmt17h7769aa56494c10edE"(ptr align 1 %_3, ptr align 8 %f)
  ret i1 %_0
}

; <&T as core::fmt::Debug>::fmt
; Function Attrs: nonlazybind uwtable
define zeroext i1 @"_ZN42_$LT$$RF$T$u20$as$u20$core..fmt..Debug$GT$3fmt17ha002dc91cac14a47E"(ptr align 8 %self, ptr align 8 %f) unnamed_addr #0 {
start:
  %_3 = load ptr, ptr %self, align 8
; call core::fmt::num::<impl core::fmt::Debug for u8>::fmt
  %_0 = call zeroext i1 @"_ZN4core3fmt3num49_$LT$impl$u20$core..fmt..Debug$u20$for$u20$u8$GT$3fmt17he5f9ca5ca6238bd7E"(ptr align 1 %_3, ptr align 8 %f)
  ret i1 %_0
}

; <&T as core::fmt::Debug>::fmt
; Function Attrs: nonlazybind uwtable
define zeroext i1 @"_ZN42_$LT$$RF$T$u20$as$u20$core..fmt..Debug$GT$3fmt17hc138d714b14b3751E"(ptr align 8 %self, ptr align 8 %f) unnamed_addr #0 {
start:
  %_3 = load ptr, ptr %self, align 8
; call <std::io::error::Error as core::fmt::Debug>::fmt
  %_0 = call zeroext i1 @"_ZN58_$LT$std..io..error..Error$u20$as$u20$core..fmt..Debug$GT$3fmt17h03ded37217b1d0b8E"(ptr align 8 %_3, ptr align 8 %f)
  ret i1 %_0
}

; <&T as core::fmt::Debug>::fmt
; Function Attrs: nonlazybind uwtable
define zeroext i1 @"_ZN42_$LT$$RF$T$u20$as$u20$core..fmt..Debug$GT$3fmt17hc8334ce5dd272815E"(ptr align 8 %self, ptr align 8 %f) unnamed_addr #0 {
start:
  %_3 = load ptr, ptr %self, align 8
; call <autocfg::error::ErrorKind as core::fmt::Debug>::fmt
  %_0 = call zeroext i1 @"_ZN62_$LT$autocfg..error..ErrorKind$u20$as$u20$core..fmt..Debug$GT$3fmt17h561dc7993153138fE"(ptr align 8 %_3, ptr align 8 %f)
  ret i1 %_0
}

; <&T as core::fmt::Debug>::fmt
; Function Attrs: nonlazybind uwtable
define zeroext i1 @"_ZN42_$LT$$RF$T$u20$as$u20$core..fmt..Debug$GT$3fmt17hc97d295cda93ea94E"(ptr align 8 %self, ptr align 8 %f) unnamed_addr #0 {
start:
  %_3.0 = load ptr, ptr %self, align 8
  %0 = getelementptr inbounds i8, ptr %self, i64 8
  %_3.1 = load i64, ptr %0, align 8
; call <str as core::fmt::Debug>::fmt
  %_0 = call zeroext i1 @"_ZN40_$LT$str$u20$as$u20$core..fmt..Debug$GT$3fmt17h8addf800304f3e1bE"(ptr align 1 %_3.0, i64 %_3.1, ptr align 8 %f)
  ret i1 %_0
}

; <&T as core::fmt::Display>::fmt
; Function Attrs: nonlazybind uwtable
define zeroext i1 @"_ZN44_$LT$$RF$T$u20$as$u20$core..fmt..Display$GT$3fmt17h88cb12eeff9612b7E"(ptr align 8 %self, ptr align 8 %f) unnamed_addr #0 {
start:
  %_3.0 = load ptr, ptr %self, align 8
  %0 = getelementptr inbounds i8, ptr %self, i64 8
  %_3.1 = load i64, ptr %0, align 8
; call <str as core::fmt::Display>::fmt
  %_0 = call zeroext i1 @"_ZN42_$LT$str$u20$as$u20$core..fmt..Display$GT$3fmt17h49e1caa39cb6eebbE"(ptr align 1 %_3.0, i64 %_3.1, ptr align 8 %f)
  ret i1 %_0
}

; <() as core::fmt::Debug>::fmt
; Function Attrs: inlinehint nonlazybind uwtable
define internal zeroext i1 @"_ZN45_$LT$$LP$$RP$$u20$as$u20$core..fmt..Debug$GT$3fmt17h4f53cc1855917915E"(ptr align 1 %self, ptr align 8 %f) unnamed_addr #1 {
start:
; call core::fmt::Formatter::pad
  %_0 = call zeroext i1 @_ZN4core3fmt9Formatter3pad17h7a36b2c624c9ffbaE(ptr align 8 %f, ptr align 1 @alloc_ae6dc619079e3c3b08144a35532ecff7, i64 2)
  ret i1 %_0
}

; <str as alloc::string::ToString>::to_string
; Function Attrs: inlinehint nonlazybind uwtable
define internal void @"_ZN47_$LT$str$u20$as$u20$alloc..string..ToString$GT$9to_string17h05fedfaa719460caE"(ptr sret([24 x i8]) align 8 %_0, ptr align 1 %self.0, i64 %self.1) unnamed_addr #1 {
start:
  %bytes = alloca [24 x i8], align 8
; call <T as alloc::slice::hack::ConvertVec>::to_vec
  call void @"_ZN52_$LT$T$u20$as$u20$alloc..slice..hack..ConvertVec$GT$6to_vec17h72f3697724b40d0aE"(ptr sret([24 x i8]) align 8 %bytes, ptr align 1 %self.0, i64 %self.1)
  call void @llvm.memcpy.p0.p0.i64(ptr align 8 %_0, ptr align 8 %bytes, i64 24, i1 false)
  ret void
}

; <F as core::str::pattern::Pattern>::into_searcher
; Function Attrs: inlinehint nonlazybind uwtable
define void @"_ZN49_$LT$F$u20$as$u20$core..str..pattern..Pattern$GT$13into_searcher17hcbb148f180460a52E"(ptr sret([40 x i8]) align 8 %_0, ptr align 1 %haystack.0, i64 %haystack.1) unnamed_addr #1 {
start:
  %_5 = alloca [24 x i8], align 8
  %_3 = alloca [40 x i8], align 8
  %_13 = getelementptr inbounds i8, ptr %haystack.0, i64 %haystack.1
  %0 = getelementptr inbounds i8, ptr %_5, i64 16
  store i64 0, ptr %0, align 8
  store ptr %haystack.0, ptr %_5, align 8
  %1 = getelementptr inbounds i8, ptr %_5, i64 8
  store ptr %_13, ptr %1, align 8
  store ptr %haystack.0, ptr %_3, align 8
  %2 = getelementptr inbounds i8, ptr %_3, i64 8
  store i64 %haystack.1, ptr %2, align 8
  %3 = getelementptr inbounds i8, ptr %_3, i64 16
  call void @llvm.memcpy.p0.p0.i64(ptr align 8 %3, ptr align 8 %_5, i64 24, i1 false)
  call void @llvm.memcpy.p0.p0.i64(ptr align 8 %_0, ptr align 8 %_3, i64 40, i1 false)
  ret void
}

; <usize as core::iter::range::Step>::forward_unchecked
; Function Attrs: inlinehint nonlazybind uwtable
define internal i64 @"_ZN49_$LT$usize$u20$as$u20$core..iter..range..Step$GT$17forward_unchecked17h68906456f9f5c5ebE"(i64 %start1, i64 %n) unnamed_addr #1 {
start:
  br label %bb2

bb2:                                              ; preds = %start
  %_0 = add nuw i64 %start1, %n
  ret i64 %_0

bb1:                                              ; No predecessors!
  unreachable
}

; <usize as core::iter::range::Step>::backward_unchecked
; Function Attrs: inlinehint nonlazybind uwtable
define internal i64 @"_ZN49_$LT$usize$u20$as$u20$core..iter..range..Step$GT$18backward_unchecked17h7dada8a32a3ade5cE"(i64 %start1, i64 %n) unnamed_addr #1 {
start:
  br label %bb2

bb2:                                              ; preds = %start
  %_0 = sub nuw i64 %start1, %n
  ret i64 %_0

bb1:                                              ; No predecessors!
  unreachable
}

; core::intrinsics::write_bytes::precondition_check
; Function Attrs: inlinehint nounwind nonlazybind uwtable
define internal void @_ZN4core10intrinsics11write_bytes18precondition_check17h97d24b3d3eb9c45cE(ptr %addr, i64 %align) unnamed_addr #2 personality ptr @rust_eh_personality {
start:
  %0 = alloca [4 x i8], align 4
  %_8 = alloca [48 x i8], align 8
  %_6 = ptrtoint ptr %addr to i64
  %1 = icmp eq i64 %_6, 0
  br i1 %1, label %bb3, label %bb4

bb3:                                              ; preds = %start
  br label %bb2

bb4:                                              ; preds = %start
  %2 = call i64 @llvm.ctpop.i64(i64 %align)
  %3 = trunc i64 %2 to i32
  store i32 %3, ptr %0, align 4
  %_9 = load i32, ptr %0, align 4
  %4 = icmp eq i32 %_9, 1
  br i1 %4, label %bb5, label %bb6

bb2:                                              ; preds = %bb5, %bb3
; call core::panicking::panic_nounwind
  call void @_ZN4core9panicking14panic_nounwind17hfb4a192166a1619dE(ptr align 1 @alloc_424341b75ece3fa20496f1c69b9fb0ac, i64 111) #23
  unreachable

bb5:                                              ; preds = %bb4
  %_13 = sub i64 %align, 1
  %_12 = and i64 %_6, %_13
  %_3 = icmp eq i64 %_12, 0
  br i1 %_3, label %bb1, label %bb2

bb6:                                              ; preds = %bb4
  store ptr @alloc_041983ee8170efdaaf95ba67fd072d26, ptr %_8, align 8
  %5 = getelementptr inbounds i8, ptr %_8, i64 8
  store i64 1, ptr %5, align 8
  %6 = load ptr, ptr @1, align 8
  %7 = load i64, ptr getelementptr inbounds (i8, ptr @1, i64 8), align 8
  %8 = getelementptr inbounds i8, ptr %_8, i64 32
  store ptr %6, ptr %8, align 8
  %9 = getelementptr inbounds i8, ptr %8, i64 8
  store i64 %7, ptr %9, align 8
  %10 = getelementptr inbounds i8, ptr %_8, i64 16
  store ptr inttoptr (i64 8 to ptr), ptr %10, align 8
  %11 = getelementptr inbounds i8, ptr %10, i64 8
  store i64 0, ptr %11, align 8
; invoke core::panicking::panic_fmt
  invoke void @_ZN4core9panicking9panic_fmt17h3111a7beccfa68f5E(ptr align 8 %_8, ptr align 8 @alloc_03d266dccd993e13de22250e3dccd7d7) #20
          to label %unreachable unwind label %terminate

bb1:                                              ; preds = %bb5
  ret void

terminate:                                        ; preds = %bb6
  %12 = landingpad { ptr, i32 }
          filter [0 x ptr] zeroinitializer
  %13 = extractvalue { ptr, i32 } %12, 0
  %14 = extractvalue { ptr, i32 } %12, 1
; call core::panicking::panic_cannot_unwind
  call void @_ZN4core9panicking19panic_cannot_unwind17h3f96c9c07954d1a5E() #22
  unreachable

unreachable:                                      ; preds = %bb6
  unreachable
}

; core::intrinsics::unlikely
; Function Attrs: nounwind nonlazybind uwtable
define internal zeroext i1 @_ZN4core10intrinsics8unlikely17h312ba75d9617525bE(i1 zeroext %b) unnamed_addr #3 {
start:
  ret i1 %b
}

; core::cmp::PartialOrd::ge
; Function Attrs: inlinehint nonlazybind uwtable
define zeroext i1 @_ZN4core3cmp10PartialOrd2ge17h721105d357f58263E(ptr align 8 %self, ptr align 8 %other) unnamed_addr #1 {
start:
  %_3 = alloca [1 x i8], align 1
  %_0 = alloca [1 x i8], align 1
; call <autocfg::version::Version as core::cmp::PartialOrd>::partial_cmp
  %0 = call i8 @"_ZN67_$LT$autocfg..version..Version$u20$as$u20$core..cmp..PartialOrd$GT$11partial_cmp17hac618bc4fbbcfc61E"(ptr align 8 %self, ptr align 8 %other)
  store i8 %0, ptr %_3, align 1
  %1 = load i8, ptr %_3, align 1
  %2 = icmp eq i8 %1, 2
  %_5 = select i1 %2, i64 0, i64 1
  %3 = icmp eq i64 %_5, 1
  br i1 %3, label %bb3, label %bb2

bb3:                                              ; preds = %start
  %_4 = load i8, ptr %_3, align 1
  switch i8 %_4, label %bb6 [
    i8 0, label %bb4
    i8 1, label %bb4
    i8 -1, label %bb2
  ]

bb2:                                              ; preds = %bb3, %start
  store i8 0, ptr %_0, align 1
  br label %bb5

bb6:                                              ; preds = %bb3
  unreachable

bb4:                                              ; preds = %bb3, %bb3
  store i8 1, ptr %_0, align 1
  br label %bb5

bb5:                                              ; preds = %bb2, %bb4
  %4 = load i8, ptr %_0, align 1
  %5 = trunc i8 %4 to i1
  ret i1 %5
}

; core::cmp::impls::<impl core::cmp::Ord for usize>::cmp
; Function Attrs: inlinehint nonlazybind uwtable
define internal i8 @"_ZN4core3cmp5impls50_$LT$impl$u20$core..cmp..Ord$u20$for$u20$usize$GT$3cmp17ha6df8e81c9d46b8fE"(ptr align 8 %self, ptr align 8 %other) unnamed_addr #1 {
start:
  %_3 = load i64, ptr %self, align 8
  %_4 = load i64, ptr %other, align 8
  %0 = icmp ugt i64 %_3, %_4
  %1 = zext i1 %0 to i8
  %2 = icmp ult i64 %_3, %_4
  %3 = zext i1 %2 to i8
  %_0 = sub nsw i8 %1, %3
  ret i8 %_0
}

; core::cmp::impls::<impl core::cmp::PartialOrd for usize>::partial_cmp
; Function Attrs: inlinehint nonlazybind uwtable
define internal i8 @"_ZN4core3cmp5impls57_$LT$impl$u20$core..cmp..PartialOrd$u20$for$u20$usize$GT$11partial_cmp17ha2bf4bfe2da55b64E"(ptr align 8 %self, ptr align 8 %other) unnamed_addr #1 {
start:
  %_0 = alloca [1 x i8], align 1
  %_4 = load i64, ptr %self, align 8
  %_5 = load i64, ptr %other, align 8
  %0 = icmp ugt i64 %_4, %_5
  %1 = zext i1 %0 to i8
  %2 = icmp ult i64 %_4, %_5
  %3 = zext i1 %2 to i8
  %_3 = sub nsw i8 %1, %3
  store i8 %_3, ptr %_0, align 1
  %4 = load i8, ptr %_0, align 1
  ret i8 %4
}

; core::cmp::impls::<impl core::cmp::PartialEq for ()>::eq
; Function Attrs: inlinehint nonlazybind uwtable
define internal zeroext i1 @"_ZN4core3cmp5impls59_$LT$impl$u20$core..cmp..PartialEq$u20$for$u20$$LP$$RP$$GT$2eq17he3b8f0115462e4a0E"(ptr align 1 %self, ptr align 1 %_other) unnamed_addr #1 {
start:
  ret i1 true
}

; core::cmp::max_by
; Function Attrs: inlinehint nonlazybind uwtable
define i64 @_ZN4core3cmp6max_by17hdb92cc0f92ae8c99E(i64 %0, i64 %1) unnamed_addr #1 personality ptr @rust_eh_personality {
start:
  %2 = alloca [16 x i8], align 8
  %_9 = alloca [1 x i8], align 1
  %_4 = alloca [1 x i8], align 1
  %_0 = alloca [8 x i8], align 8
  %v2 = alloca [8 x i8], align 8
  %v1 = alloca [8 x i8], align 8
  store i64 %0, ptr %v1, align 8
  store i64 %1, ptr %v2, align 8
  store i8 1, ptr %_9, align 1
; invoke core::ops::function::FnOnce::call_once
  %3 = invoke i8 @_ZN4core3ops8function6FnOnce9call_once17h8f1fc3ecf538b6acE(ptr align 8 %v1, ptr align 8 %v2)
          to label %bb1 unwind label %cleanup

bb6:                                              ; preds = %cleanup
  br label %bb10

cleanup:                                          ; preds = %start
  %4 = landingpad { ptr, i32 }
          cleanup
  %5 = extractvalue { ptr, i32 } %4, 0
  %6 = extractvalue { ptr, i32 } %4, 1
  store ptr %5, ptr %2, align 8
  %7 = getelementptr inbounds i8, ptr %2, i64 8
  store i32 %6, ptr %7, align 8
  br label %bb6

bb1:                                              ; preds = %start
  store i8 %3, ptr %_4, align 1
  %_8 = load i8, ptr %_4, align 1
  switch i8 %_8, label %bb2 [
    i8 -1, label %bb4
    i8 0, label %bb4
    i8 1, label %bb3
  ]

bb2:                                              ; preds = %bb1
  unreachable

bb4:                                              ; preds = %bb1, %bb1
  %8 = load i64, ptr %v2, align 8
  store i64 %8, ptr %_0, align 8
  %9 = load i8, ptr %_9, align 1
  %10 = trunc i8 %9 to i1
  br i1 %10, label %bb8, label %bb5

bb3:                                              ; preds = %bb1
  store i8 0, ptr %_9, align 1
  %11 = load i64, ptr %v1, align 8
  store i64 %11, ptr %_0, align 8
  br label %bb5

bb5:                                              ; preds = %bb3, %bb8, %bb4
  %12 = load i64, ptr %_0, align 8
  ret i64 %12

bb8:                                              ; preds = %bb4
  br label %bb5

bb10:                                             ; preds = %bb6
  %13 = load i8, ptr %_9, align 1
  %14 = trunc i8 %13 to i1
  br i1 %14, label %bb9, label %bb7

bb7:                                              ; preds = %bb9, %bb10
  %15 = load ptr, ptr %2, align 8
  %16 = getelementptr inbounds i8, ptr %2, i64 8
  %17 = load i32, ptr %16, align 8
  %18 = insertvalue { ptr, i32 } poison, ptr %15, 0
  %19 = insertvalue { ptr, i32 } %18, i32 %17, 1
  resume { ptr, i32 } %19

bb9:                                              ; preds = %bb10
  br label %bb7
}

; core::cmp::min_by
; Function Attrs: inlinehint nonlazybind uwtable
define i64 @_ZN4core3cmp6min_by17h58a5ea01ba81d73dE(i64 %0, i64 %1) unnamed_addr #1 personality ptr @rust_eh_personality {
start:
  %2 = alloca [16 x i8], align 8
  %_10 = alloca [1 x i8], align 1
  %_4 = alloca [1 x i8], align 1
  %_0 = alloca [8 x i8], align 8
  %v2 = alloca [8 x i8], align 8
  %v1 = alloca [8 x i8], align 8
  store i64 %0, ptr %v1, align 8
  store i64 %1, ptr %v2, align 8
  store i8 1, ptr %_10, align 1
; invoke core::ops::function::FnOnce::call_once
  %3 = invoke i8 @_ZN4core3ops8function6FnOnce9call_once17h8f1fc3ecf538b6acE(ptr align 8 %v1, ptr align 8 %v2)
          to label %bb1 unwind label %cleanup

bb7:                                              ; preds = %cleanup
  br label %bb12

cleanup:                                          ; preds = %start
  %4 = landingpad { ptr, i32 }
          cleanup
  %5 = extractvalue { ptr, i32 } %4, 0
  %6 = extractvalue { ptr, i32 } %4, 1
  store ptr %5, ptr %2, align 8
  %7 = getelementptr inbounds i8, ptr %2, i64 8
  store i32 %6, ptr %7, align 8
  br label %bb7

bb1:                                              ; preds = %start
  store i8 %3, ptr %_4, align 1
  %_8 = load i8, ptr %_4, align 1
  switch i8 %_8, label %bb2 [
    i8 -1, label %bb4
    i8 0, label %bb4
    i8 1, label %bb3
  ]

bb2:                                              ; preds = %bb1
  unreachable

bb4:                                              ; preds = %bb1, %bb1
  store i8 0, ptr %_10, align 1
  %8 = load i64, ptr %v1, align 8
  store i64 %8, ptr %_0, align 8
  br label %bb9

bb3:                                              ; preds = %bb1
  %9 = load i64, ptr %v2, align 8
  store i64 %9, ptr %_0, align 8
  br label %bb5

bb9:                                              ; preds = %bb4
  br label %bb6

bb6:                                              ; preds = %bb10, %bb5, %bb9
  %10 = load i64, ptr %_0, align 8
  ret i64 %10

bb5:                                              ; preds = %bb3
  %11 = load i8, ptr %_10, align 1
  %12 = trunc i8 %11 to i1
  br i1 %12, label %bb10, label %bb6

bb10:                                             ; preds = %bb5
  br label %bb6

bb12:                                             ; preds = %bb7
  %13 = load i8, ptr %_10, align 1
  %14 = trunc i8 %13 to i1
  br i1 %14, label %bb11, label %bb8

bb8:                                              ; preds = %bb11, %bb12
  %15 = load ptr, ptr %2, align 8
  %16 = getelementptr inbounds i8, ptr %2, i64 8
  %17 = load i32, ptr %16, align 8
  %18 = insertvalue { ptr, i32 } poison, ptr %15, 0
  %19 = insertvalue { ptr, i32 } %18, i32 %17, 1
  resume { ptr, i32 } %19

bb11:                                             ; preds = %bb12
  br label %bb8
}

; core::cmp::PartialEq::ne
; Function Attrs: inlinehint nonlazybind uwtable
define zeroext i1 @_ZN4core3cmp9PartialEq2ne17h7d5f338ff58af211E(ptr align 8 %self, ptr align 8 %other) unnamed_addr #1 {
start:
; call <core::option::Option<T> as core::cmp::PartialEq>::eq
  %_3 = call zeroext i1 @"_ZN70_$LT$core..option..Option$LT$T$GT$$u20$as$u20$core..cmp..PartialEq$GT$2eq17h65dc70b82d157677E"(ptr align 8 %self, ptr align 8 %other)
  %_0 = xor i1 %_3, true
  ret i1 %_0
}

; core::fmt::num::<impl core::fmt::Debug for u8>::fmt
; Function Attrs: inlinehint nonlazybind uwtable
define internal zeroext i1 @"_ZN4core3fmt3num49_$LT$impl$u20$core..fmt..Debug$u20$for$u20$u8$GT$3fmt17he5f9ca5ca6238bd7E"(ptr align 1 %self, ptr align 8 %f) unnamed_addr #1 {
start:
  %_0 = alloca [1 x i8], align 1
  %0 = getelementptr inbounds i8, ptr %f, i64 52
  %_4 = load i32, ptr %0, align 4
  %_3 = and i32 %_4, 16
  %1 = icmp eq i32 %_3, 0
  br i1 %1, label %bb2, label %bb1

bb2:                                              ; preds = %start
  %2 = getelementptr inbounds i8, ptr %f, i64 52
  %_6 = load i32, ptr %2, align 4
  %_5 = and i32 %_6, 32
  %3 = icmp eq i32 %_5, 0
  br i1 %3, label %bb4, label %bb3

bb1:                                              ; preds = %start
; call core::fmt::num::<impl core::fmt::LowerHex for u8>::fmt
  %4 = call zeroext i1 @"_ZN4core3fmt3num52_$LT$impl$u20$core..fmt..LowerHex$u20$for$u20$u8$GT$3fmt17h9e0a968dd9829f5eE"(ptr align 1 %self, ptr align 8 %f)
  %5 = zext i1 %4 to i8
  store i8 %5, ptr %_0, align 1
  br label %bb6

bb4:                                              ; preds = %bb2
; call core::fmt::num::imp::<impl core::fmt::Display for u8>::fmt
  %6 = call zeroext i1 @"_ZN4core3fmt3num3imp51_$LT$impl$u20$core..fmt..Display$u20$for$u20$u8$GT$3fmt17hab6f45d48513b293E"(ptr align 1 %self, ptr align 8 %f)
  %7 = zext i1 %6 to i8
  store i8 %7, ptr %_0, align 1
  br label %bb5

bb3:                                              ; preds = %bb2
; call core::fmt::num::<impl core::fmt::UpperHex for u8>::fmt
  %8 = call zeroext i1 @"_ZN4core3fmt3num52_$LT$impl$u20$core..fmt..UpperHex$u20$for$u20$u8$GT$3fmt17hfdb7ce0f2d679b26E"(ptr align 1 %self, ptr align 8 %f)
  %9 = zext i1 %8 to i8
  store i8 %9, ptr %_0, align 1
  br label %bb5

bb5:                                              ; preds = %bb3, %bb4
  br label %bb6

bb6:                                              ; preds = %bb1, %bb5
  %10 = load i8, ptr %_0, align 1
  %11 = trunc i8 %10 to i1
  ret i1 %11
}

; core::fmt::num::<impl core::fmt::Debug for usize>::fmt
; Function Attrs: inlinehint nonlazybind uwtable
define internal zeroext i1 @"_ZN4core3fmt3num52_$LT$impl$u20$core..fmt..Debug$u20$for$u20$usize$GT$3fmt17h15a05d46d3b075c0E"(ptr align 8 %self, ptr align 8 %f) unnamed_addr #1 {
start:
  %_0 = alloca [1 x i8], align 1
  %0 = getelementptr inbounds i8, ptr %f, i64 52
  %_4 = load i32, ptr %0, align 4
  %_3 = and i32 %_4, 16
  %1 = icmp eq i32 %_3, 0
  br i1 %1, label %bb2, label %bb1

bb2:                                              ; preds = %start
  %2 = getelementptr inbounds i8, ptr %f, i64 52
  %_6 = load i32, ptr %2, align 4
  %_5 = and i32 %_6, 32
  %3 = icmp eq i32 %_5, 0
  br i1 %3, label %bb4, label %bb3

bb1:                                              ; preds = %start
; call core::fmt::num::<impl core::fmt::LowerHex for usize>::fmt
  %4 = call zeroext i1 @"_ZN4core3fmt3num55_$LT$impl$u20$core..fmt..LowerHex$u20$for$u20$usize$GT$3fmt17hb89b543945fdac37E"(ptr align 8 %self, ptr align 8 %f)
  %5 = zext i1 %4 to i8
  store i8 %5, ptr %_0, align 1
  br label %bb6

bb4:                                              ; preds = %bb2
; call core::fmt::num::imp::<impl core::fmt::Display for usize>::fmt
  %6 = call zeroext i1 @"_ZN4core3fmt3num3imp54_$LT$impl$u20$core..fmt..Display$u20$for$u20$usize$GT$3fmt17hdabfc7932e5a3df0E"(ptr align 8 %self, ptr align 8 %f)
  %7 = zext i1 %6 to i8
  store i8 %7, ptr %_0, align 1
  br label %bb5

bb3:                                              ; preds = %bb2
; call core::fmt::num::<impl core::fmt::UpperHex for usize>::fmt
  %8 = call zeroext i1 @"_ZN4core3fmt3num55_$LT$impl$u20$core..fmt..UpperHex$u20$for$u20$usize$GT$3fmt17hb258a21f77c3d954E"(ptr align 8 %self, ptr align 8 %f)
  %9 = zext i1 %8 to i8
  store i8 %9, ptr %_0, align 1
  br label %bb5

bb5:                                              ; preds = %bb3, %bb4
  br label %bb6

bb6:                                              ; preds = %bb1, %bb5
  %10 = load i8, ptr %_0, align 1
  %11 = trunc i8 %10 to i1
  ret i1 %11
}

; core::fmt::Arguments::new_v1
; Function Attrs: inlinehint nonlazybind uwtable
define void @_ZN4core3fmt9Arguments6new_v117h5ba478f167bf49cbE(ptr sret([48 x i8]) align 8 %_0, ptr align 8 %pieces, ptr align 8 %args) unnamed_addr #1 {
start:
  store ptr %pieces, ptr %_0, align 8
  %0 = getelementptr inbounds i8, ptr %_0, i64 8
  store i64 2, ptr %0, align 8
  %1 = load ptr, ptr @1, align 8
  %2 = load i64, ptr getelementptr inbounds (i8, ptr @1, i64 8), align 8
  %3 = getelementptr inbounds i8, ptr %_0, i64 32
  store ptr %1, ptr %3, align 8
  %4 = getelementptr inbounds i8, ptr %3, i64 8
  store i64 %2, ptr %4, align 8
  %5 = getelementptr inbounds i8, ptr %_0, i64 16
  store ptr %args, ptr %5, align 8
  %6 = getelementptr inbounds i8, ptr %5, i64 8
  store i64 2, ptr %6, align 8
  ret void
}

; core::fmt::Arguments::new_v1
; Function Attrs: inlinehint nonlazybind uwtable
define void @_ZN4core3fmt9Arguments6new_v117h88c54ca0123a3518E(ptr sret([48 x i8]) align 8 %_0, ptr align 8 %pieces, ptr align 8 %args) unnamed_addr #1 {
start:
  store ptr %pieces, ptr %_0, align 8
  %0 = getelementptr inbounds i8, ptr %_0, i64 8
  store i64 2, ptr %0, align 8
  %1 = load ptr, ptr @1, align 8
  %2 = load i64, ptr getelementptr inbounds (i8, ptr @1, i64 8), align 8
  %3 = getelementptr inbounds i8, ptr %_0, i64 32
  store ptr %1, ptr %3, align 8
  %4 = getelementptr inbounds i8, ptr %3, i64 8
  store i64 %2, ptr %4, align 8
  %5 = getelementptr inbounds i8, ptr %_0, i64 16
  store ptr %args, ptr %5, align 8
  %6 = getelementptr inbounds i8, ptr %5, i64 8
  store i64 1, ptr %6, align 8
  ret void
}

; core::fmt::Arguments::new_v1
; Function Attrs: inlinehint nonlazybind uwtable
define void @_ZN4core3fmt9Arguments6new_v117h9283a1feb2ac2551E(ptr sret([48 x i8]) align 8 %_0, ptr align 8 %pieces, ptr align 8 %args) unnamed_addr #1 {
start:
  store ptr %pieces, ptr %_0, align 8
  %0 = getelementptr inbounds i8, ptr %_0, i64 8
  store i64 1, ptr %0, align 8
  %1 = load ptr, ptr @1, align 8
  %2 = load i64, ptr getelementptr inbounds (i8, ptr @1, i64 8), align 8
  %3 = getelementptr inbounds i8, ptr %_0, i64 32
  store ptr %1, ptr %3, align 8
  %4 = getelementptr inbounds i8, ptr %3, i64 8
  store i64 %2, ptr %4, align 8
  %5 = getelementptr inbounds i8, ptr %_0, i64 16
  store ptr %args, ptr %5, align 8
  %6 = getelementptr inbounds i8, ptr %5, i64 8
  store i64 1, ptr %6, align 8
  ret void
}

; core::mem::drop
; Function Attrs: inlinehint nonlazybind uwtable
define void @_ZN4core3mem4drop17hacec630ce0ad4f16E(i32 %0) unnamed_addr #1 {
start:
  %_x = alloca [4 x i8], align 4
  store i32 %0, ptr %_x, align 4
; call core::ptr::drop_in_place<std::process::ChildStdin>
  call void @"_ZN4core3ptr45drop_in_place$LT$std..process..ChildStdin$GT$17h66b1aeeb00e3c63bE"(ptr align 4 %_x)
  ret void
}

; core::num::<impl usize>::unchecked_sub::precondition_check
; Function Attrs: inlinehint nounwind nonlazybind uwtable
define internal void @"_ZN4core3num23_$LT$impl$u20$usize$GT$13unchecked_sub18precondition_check17h7836aa87c5d3a5a3E"(i64 %lhs, i64 %rhs) unnamed_addr #2 {
start:
  %_6.0 = sub i64 %lhs, %rhs
  %_6.1 = icmp ult i64 %lhs, %rhs
  br i1 %_6.1, label %bb1, label %bb2

bb2:                                              ; preds = %start
  ret void

bb1:                                              ; preds = %start
; call core::panicking::panic_nounwind
  call void @_ZN4core9panicking14panic_nounwind17hfb4a192166a1619dE(ptr align 1 @alloc_d30a741e02fc5ea2d050c92e901091a3, i64 69) #23
  unreachable
}

; core::ops::function::FnMut::call_mut
; Function Attrs: inlinehint nonlazybind uwtable
define internal { ptr, i64 } @_ZN4core3ops8function5FnMut8call_mut17h08221b26efab62edE(ptr align 1 %_1, ptr align 1 %0, i64 %1) unnamed_addr #1 {
start:
  %_2 = alloca [16 x i8], align 8
  store ptr %0, ptr %_2, align 8
  %2 = getelementptr inbounds i8, ptr %_2, i64 8
  store i64 %1, ptr %2, align 8
  %3 = load ptr, ptr %_2, align 8
  %4 = getelementptr inbounds i8, ptr %_2, i64 8
  %5 = load i64, ptr %4, align 8
; call core::str::<impl str>::trim
  %6 = call { ptr, i64 } @"_ZN4core3str21_$LT$impl$u20$str$GT$4trim17h97004e876b1968c7E"(ptr align 1 %3, i64 %5)
  %_0.0 = extractvalue { ptr, i64 } %6, 0
  %_0.1 = extractvalue { ptr, i64 } %6, 1
  %7 = insertvalue { ptr, i64 } poison, ptr %_0.0, 0
  %8 = insertvalue { ptr, i64 } %7, i64 %_0.1, 1
  ret { ptr, i64 } %8
}

; core::ops::function::FnMut::call_mut
; Function Attrs: inlinehint nonlazybind uwtable
define internal void @_ZN4core3ops8function5FnMut8call_mut17h27687f1d90fc1adeE(ptr sret([24 x i8]) align 8 %_0, ptr align 1 %_1, ptr align 1 %0, i64 %1) unnamed_addr #1 {
start:
  %_2 = alloca [16 x i8], align 8
  store ptr %0, ptr %_2, align 8
  %2 = getelementptr inbounds i8, ptr %_2, i64 8
  store i64 %1, ptr %2, align 8
  %3 = load ptr, ptr %_2, align 8
  %4 = getelementptr inbounds i8, ptr %_2, i64 8
  %5 = load i64, ptr %4, align 8
; call <str as alloc::string::ToString>::to_string
  call void @"_ZN47_$LT$str$u20$as$u20$alloc..string..ToString$GT$9to_string17h05fedfaa719460caE"(ptr sret([24 x i8]) align 8 %_0, ptr align 1 %3, i64 %5)
  ret void
}

; core::ops::function::impls::<impl core::ops::function::FnMut<A> for &mut F>::call_mut
; Function Attrs: nonlazybind uwtable
define zeroext i1 @"_ZN4core3ops8function5impls79_$LT$impl$u20$core..ops..function..FnMut$LT$A$GT$$u20$for$u20$$RF$mut$u20$F$GT$8call_mut17h856255ae97582cffE"(ptr align 8 %self, ptr align 8 %0) unnamed_addr #0 {
start:
  %args = alloca [8 x i8], align 8
  store ptr %0, ptr %args, align 8
  %_3 = load ptr, ptr %self, align 8
  %1 = load ptr, ptr %args, align 8
; call autocfg::rustflags::{{closure}}
  %_0 = call zeroext i1 @"_ZN7autocfg9rustflags28_$u7b$$u7b$closure$u7d$$u7d$17h118abe4b237c3de4E"(ptr align 1 %_3, ptr align 8 %1)
  ret i1 %_0
}

; core::ops::function::impls::<impl core::ops::function::FnOnce<A> for &mut F>::call_once
; Function Attrs: nonlazybind uwtable
define { ptr, i64 } @"_ZN4core3ops8function5impls80_$LT$impl$u20$core..ops..function..FnOnce$LT$A$GT$$u20$for$u20$$RF$mut$u20$F$GT$9call_once17h837896eb7fd0862fE"(ptr align 1 %self, ptr align 1 %0, i64 %1) unnamed_addr #0 {
start:
  %args = alloca [16 x i8], align 8
  store ptr %0, ptr %args, align 8
  %2 = getelementptr inbounds i8, ptr %args, i64 8
  store i64 %1, ptr %2, align 8
  %3 = load ptr, ptr %args, align 8
  %4 = getelementptr inbounds i8, ptr %args, i64 8
  %5 = load i64, ptr %4, align 8
; call core::str::<impl str>::lines::{{closure}}
  %6 = call { ptr, i64 } @"_ZN4core3str21_$LT$impl$u20$str$GT$5lines28_$u7b$$u7b$closure$u7d$$u7d$17h252d5a06746bffceE"(ptr align 1 %self, ptr align 1 %3, i64 %5)
  %_0.0 = extractvalue { ptr, i64 } %6, 0
  %_0.1 = extractvalue { ptr, i64 } %6, 1
  %7 = insertvalue { ptr, i64 } poison, ptr %_0.0, 0
  %8 = insertvalue { ptr, i64 } %7, i64 %_0.1, 1
  ret { ptr, i64 } %8
}

; core::ops::function::impls::<impl core::ops::function::FnOnce<A> for &mut F>::call_once
; Function Attrs: nonlazybind uwtable
define void @"_ZN4core3ops8function5impls80_$LT$impl$u20$core..ops..function..FnOnce$LT$A$GT$$u20$for$u20$$RF$mut$u20$F$GT$9call_once17hf721dc5aa45fd9e3E"(ptr sret([24 x i8]) align 8 %_0, ptr align 1 %self, ptr align 1 %0, i64 %1) unnamed_addr #0 {
start:
  %args = alloca [16 x i8], align 8
  store ptr %0, ptr %args, align 8
  %2 = getelementptr inbounds i8, ptr %args, i64 8
  store i64 %1, ptr %2, align 8
  %3 = load ptr, ptr %args, align 8
  %4 = getelementptr inbounds i8, ptr %args, i64 8
  %5 = load i64, ptr %4, align 8
; call core::ops::function::FnMut::call_mut
  call void @_ZN4core3ops8function5FnMut8call_mut17h27687f1d90fc1adeE(ptr sret([24 x i8]) align 8 %_0, ptr align 1 %self, ptr align 1 %3, i64 %5)
  ret void
}

; core::ops::function::FnOnce::call_once
; Function Attrs: inlinehint nonlazybind uwtable
define internal void @_ZN4core3ops8function6FnOnce9call_once17h209b33ba756a8976E(ptr sret([176 x i8]) align 8 %_0, ptr align 8 %0) unnamed_addr #1 {
start:
  %_2 = alloca [176 x i8], align 8
  call void @llvm.memcpy.p0.p0.i64(ptr align 8 %_2, ptr align 8 %0, i64 176, i1 false)
; call std::fs::Metadata
  call void @_ZN3std2fs8Metadata17h8545f5b0cd3c8044E(ptr sret([176 x i8]) align 8 %_0, ptr align 8 %_2)
  ret void
}

; core::ops::function::FnOnce::call_once
; Function Attrs: inlinehint nonlazybind uwtable
define internal void @_ZN4core3ops8function6FnOnce9call_once17h4cc89c65948d87bbE(ptr sret([24 x i8]) align 8 %_0, ptr align 1 %0, i64 %1) unnamed_addr #1 {
start:
  %_2 = alloca [16 x i8], align 8
  store ptr %0, ptr %_2, align 8
  %2 = getelementptr inbounds i8, ptr %_2, i64 8
  store i64 %1, ptr %2, align 8
  %3 = load ptr, ptr %_2, align 8
  %4 = getelementptr inbounds i8, ptr %_2, i64 8
  %5 = load i64, ptr %4, align 8
; call alloc::str::<impl alloc::borrow::ToOwned for str>::to_owned
  call void @"_ZN5alloc3str56_$LT$impl$u20$alloc..borrow..ToOwned$u20$for$u20$str$GT$8to_owned17ha362a10ce406940cE"(ptr sret([24 x i8]) align 8 %_0, ptr align 1 %3, i64 %5)
  ret void
}

; core::ops::function::FnOnce::call_once
; Function Attrs: inlinehint nonlazybind uwtable
define internal void @_ZN4core3ops8function6FnOnce9call_once17h734b98ee417cc7a4E(ptr sret([24 x i8]) align 8 %_0, ptr align 8 %0) unnamed_addr #1 {
start:
  %_2 = alloca [24 x i8], align 8
  call void @llvm.memcpy.p0.p0.i64(ptr align 8 %_2, ptr align 8 %0, i64 24, i1 false)
; call <std::path::PathBuf as core::convert::From<std::ffi::os_str::OsString>>::from
  call void @"_ZN92_$LT$std..path..PathBuf$u20$as$u20$core..convert..From$LT$std..ffi..os_str..OsString$GT$$GT$4from17h4e9d9be112f6c980E"(ptr sret([24 x i8]) align 8 %_0, ptr align 8 %_2)
  ret void
}

; core::ops::function::FnOnce::call_once
; Function Attrs: inlinehint nonlazybind uwtable
define internal void @_ZN4core3ops8function6FnOnce9call_once17h8ce380e4f6007bd0E(ptr sret([24 x i8]) align 8 %_0, i8 %0) unnamed_addr #1 {
start:
  %_2 = alloca [1 x i8], align 1
  store i8 %0, ptr %_2, align 1
  %1 = load i8, ptr %_2, align 1
; call autocfg::error::from_num
  call void @_ZN7autocfg5error8from_num17h97f8053dd369a550E(ptr sret([24 x i8]) align 8 %_0, i8 %1)
  ret void
}

; core::ops::function::FnOnce::call_once
; Function Attrs: inlinehint nonlazybind uwtable
define internal void @_ZN4core3ops8function6FnOnce9call_once17h8d32bebde9f4cb84E(ptr sret([24 x i8]) align 8 %_0, ptr align 8 %0) unnamed_addr #1 {
start:
  %_2 = alloca [16 x i8], align 8
  call void @llvm.memcpy.p0.p0.i64(ptr align 8 %_2, ptr align 8 %0, i64 16, i1 false)
; call autocfg::error::from_utf8
  call void @_ZN7autocfg5error9from_utf817h1a6cb3f3c7235f34E(ptr sret([24 x i8]) align 8 %_0, ptr align 8 %_2)
  ret void
}

; core::ops::function::FnOnce::call_once
; Function Attrs: inlinehint nonlazybind uwtable
define internal i8 @_ZN4core3ops8function6FnOnce9call_once17h8f1fc3ecf538b6acE(ptr align 8 %0, ptr align 8 %1) unnamed_addr #1 {
start:
  %_2 = alloca [16 x i8], align 8
  store ptr %0, ptr %_2, align 8
  %2 = getelementptr inbounds i8, ptr %_2, i64 8
  store ptr %1, ptr %2, align 8
  %3 = load ptr, ptr %_2, align 8
  %4 = getelementptr inbounds i8, ptr %_2, i64 8
  %5 = load ptr, ptr %4, align 8
; call core::cmp::impls::<impl core::cmp::Ord for usize>::cmp
  %_0 = call i8 @"_ZN4core3cmp5impls50_$LT$impl$u20$core..cmp..Ord$u20$for$u20$usize$GT$3cmp17ha6df8e81c9d46b8fE"(ptr align 8 %3, ptr align 8 %5)
  ret i8 %_0
}

; core::ops::function::FnOnce::call_once
; Function Attrs: inlinehint nonlazybind uwtable
define internal void @_ZN4core3ops8function6FnOnce9call_once17hd8ab9a3e87101dc2E(ptr sret([24 x i8]) align 8 %_0, ptr %0) unnamed_addr #1 {
start:
  %_2 = alloca [8 x i8], align 8
  store ptr %0, ptr %_2, align 8
  %1 = load ptr, ptr %_2, align 8
; call autocfg::error::from_io
  call void @_ZN7autocfg5error7from_io17h50a470a6e58be157E(ptr sret([24 x i8]) align 8 %_0, ptr %1)
  ret void
}

; core::ptr::drop_in_place<core::option::Option<std::sys::pal::unix::process::process_common::Stdio>>
; Function Attrs: nonlazybind uwtable
define void @"_ZN4core3ptr100drop_in_place$LT$core..option..Option$LT$std..sys..pal..unix..process..process_common..Stdio$GT$$GT$17h207d0ade6e19b05bE"(ptr align 4 %_1) unnamed_addr #0 {
start:
  %0 = load i32, ptr %_1, align 4
  %1 = icmp eq i32 %0, 5
  %_2 = select i1 %1, i64 0, i64 1
  %2 = icmp eq i64 %_2, 0
  br i1 %2, label %bb1, label %bb2

bb1:                                              ; preds = %bb2, %start
  ret void

bb2:                                              ; preds = %start
; call core::ptr::drop_in_place<std::sys::pal::unix::process::process_common::Stdio>
  call void @"_ZN4core3ptr72drop_in_place$LT$std..sys..pal..unix..process..process_common..Stdio$GT$17h7486723220452e77E"(ptr align 4 %_1)
  br label %bb1
}

; core::ptr::drop_in_place<std::io::error::ErrorData<alloc::boxed::Box<std::io::error::Custom>>>
; Function Attrs: nonlazybind uwtable
define void @"_ZN4core3ptr101drop_in_place$LT$std..io..error..ErrorData$LT$alloc..boxed..Box$LT$std..io..error..Custom$GT$$GT$$GT$17h94cc3a3645e9f105E"(ptr align 8 %_1) unnamed_addr #0 {
start:
  %0 = load i8, ptr %_1, align 8
  %_2 = zext i8 %0 to i64
  switch i64 %_2, label %bb2 [
    i64 0, label %bb1
    i64 1, label %bb1
    i64 2, label %bb1
  ]

bb2:                                              ; preds = %start
  %1 = getelementptr inbounds i8, ptr %_1, i64 8
; call core::ptr::drop_in_place<alloc::boxed::Box<std::io::error::Custom>>
  call void @"_ZN4core3ptr68drop_in_place$LT$alloc..boxed..Box$LT$std..io..error..Custom$GT$$GT$17h41ab6e7c713e6393E"(ptr align 8 %1)
  br label %bb1

bb1:                                              ; preds = %bb2, %start, %start, %start
  ret void
}

; core::ptr::drop_in_place<autocfg::dir_contains_target::{{closure}}::{{closure}}>
; Function Attrs: nonlazybind uwtable
define void @"_ZN4core3ptr107drop_in_place$LT$autocfg..dir_contains_target..$u7b$$u7b$closure$u7d$$u7d$..$u7b$$u7b$closure$u7d$$u7d$$GT$17h2606fa476f4ab0c7E"(ptr align 8 %_1) unnamed_addr #0 {
start:
; call core::ptr::drop_in_place<core::option::Option<std::ffi::os_str::OsString>>
  call void @"_ZN4core3ptr75drop_in_place$LT$core..option..Option$LT$std..ffi..os_str..OsString$GT$$GT$17h0e694dd1cb4cfc99E"(ptr align 8 %_1)
  ret void
}

; core::ptr::drop_in_place<alloc::boxed::Box<dyn core::error::Error+core::marker::Send+core::marker::Sync>>
; Function Attrs: nonlazybind uwtable
define void @"_ZN4core3ptr118drop_in_place$LT$alloc..boxed..Box$LT$dyn$u20$core..error..Error$u2b$core..marker..Send$u2b$core..marker..Sync$GT$$GT$17h36058f9a7d2c3719E"(ptr align 8 %_1) unnamed_addr #0 personality ptr @rust_eh_personality {
start:
  %0 = alloca [16 x i8], align 8
  %_6.0 = load ptr, ptr %_1, align 8
  %1 = getelementptr inbounds i8, ptr %_1, i64 8
  %_6.1 = load ptr, ptr %1, align 8
  %2 = getelementptr inbounds i8, ptr %_6.1, i64 0
  %3 = load ptr, ptr %2, align 8, !invariant.load !3
  %4 = icmp ne ptr %3, null
  br i1 %4, label %is_not_null, label %bb3

is_not_null:                                      ; preds = %start
  invoke void %3(ptr align 1 %_6.0)
          to label %bb3 unwind label %cleanup

bb3:                                              ; preds = %is_not_null, %start
; call <alloc::boxed::Box<T,A> as core::ops::drop::Drop>::drop
  call void @"_ZN72_$LT$alloc..boxed..Box$LT$T$C$A$GT$$u20$as$u20$core..ops..drop..Drop$GT$4drop17h01aeef02ff59e835E"(ptr align 8 %_1)
  ret void

bb4:                                              ; preds = %cleanup
; invoke <alloc::boxed::Box<T,A> as core::ops::drop::Drop>::drop
  invoke void @"_ZN72_$LT$alloc..boxed..Box$LT$T$C$A$GT$$u20$as$u20$core..ops..drop..Drop$GT$4drop17h01aeef02ff59e835E"(ptr align 8 %_1) #21
          to label %bb1 unwind label %terminate

cleanup:                                          ; preds = %is_not_null
  %5 = landingpad { ptr, i32 }
          cleanup
  %6 = extractvalue { ptr, i32 } %5, 0
  %7 = extractvalue { ptr, i32 } %5, 1
  store ptr %6, ptr %0, align 8
  %8 = getelementptr inbounds i8, ptr %0, i64 8
  store i32 %7, ptr %8, align 8
  br label %bb4

terminate:                                        ; preds = %bb4
  %9 = landingpad { ptr, i32 }
          filter [0 x ptr] zeroinitializer
  %10 = extractvalue { ptr, i32 } %9, 0
  %11 = extractvalue { ptr, i32 } %9, 1
; call core::panicking::panic_in_cleanup
  call void @_ZN4core9panicking16panic_in_cleanup17h43442956f23e9cbeE() #22
  unreachable

bb1:                                              ; preds = %bb4
  %12 = load ptr, ptr %0, align 8
  %13 = getelementptr inbounds i8, ptr %0, i64 8
  %14 = load i32, ptr %13, align 8
  %15 = insertvalue { ptr, i32 } poison, ptr %12, 0
  %16 = insertvalue { ptr, i32 } %15, i32 %14, 1
  resume { ptr, i32 } %16
}

; core::ptr::read_unaligned
; Function Attrs: inlinehint nonlazybind uwtable
define i32 @_ZN4core3ptr14read_unaligned17h455d38bdcaf7789fE(ptr %src) unnamed_addr #1 {
start:
  %tmp = alloca [4 x i8], align 4
  br label %bb3

bb3:                                              ; preds = %start
  call void @llvm.memcpy.p0.p0.i64(ptr align 1 %tmp, ptr align 1 %src, i64 4, i1 false)
  %self = load i32, ptr %tmp, align 4
  ret i32 %self

bb1:                                              ; No predecessors!
  unreachable

bb2:                                              ; No predecessors!
  unreachable
}

; core::ptr::read_unaligned
; Function Attrs: inlinehint nonlazybind uwtable
define void @_ZN4core3ptr14read_unaligned17h49db65e5fe6bb31bE(ptr sret([16 x i8]) align 16 %_0, ptr %src) unnamed_addr #1 {
start:
  %tmp = alloca [16 x i8], align 16
  br label %bb3

bb3:                                              ; preds = %start
  call void @llvm.memcpy.p0.p0.i64(ptr align 1 %tmp, ptr align 1 %src, i64 16, i1 false)
  %self = load <16 x i8>, ptr %tmp, align 16
  store <16 x i8> %self, ptr %_0, align 16
  ret void

bb1:                                              ; No predecessors!
  unreachable

bb2:                                              ; No predecessors!
  unreachable
}

; core::ptr::drop_in_place<alloc::collections::btree::map::BTreeMap<std::ffi::os_str::OsString,core::option::Option<std::ffi::os_str::OsString>>>
; Function Attrs: nonlazybind uwtable
define void @"_ZN4core3ptr152drop_in_place$LT$alloc..collections..btree..map..BTreeMap$LT$std..ffi..os_str..OsString$C$core..option..Option$LT$std..ffi..os_str..OsString$GT$$GT$$GT$17h12e267bb8de17119E"(ptr align 8 %_1) unnamed_addr #0 {
start:
; call <alloc::collections::btree::map::BTreeMap<K,V,A> as core::ops::drop::Drop>::drop
  call void @"_ZN99_$LT$alloc..collections..btree..map..BTreeMap$LT$K$C$V$C$A$GT$$u20$as$u20$core..ops..drop..Drop$GT$4drop17hbcfc498969dcca87E"(ptr align 8 %_1)
  ret void
}

; core::ptr::drop_in_place<alloc::collections::btree::map::IntoIter<std::ffi::os_str::OsString,core::option::Option<std::ffi::os_str::OsString>>>
; Function Attrs: nonlazybind uwtable
define void @"_ZN4core3ptr152drop_in_place$LT$alloc..collections..btree..map..IntoIter$LT$std..ffi..os_str..OsString$C$core..option..Option$LT$std..ffi..os_str..OsString$GT$$GT$$GT$17hf07c5f11d8693d83E"(ptr align 8 %_1) unnamed_addr #0 {
start:
; call <alloc::collections::btree::map::IntoIter<K,V,A> as core::ops::drop::Drop>::drop
  call void @"_ZN99_$LT$alloc..collections..btree..map..IntoIter$LT$K$C$V$C$A$GT$$u20$as$u20$core..ops..drop..Drop$GT$4drop17h733ef0fba8409634E"(ptr align 8 %_1)
  ret void
}

; core::ptr::drop_in_place<dyn core::ops::function::FnMut<()>+Output = core::result::Result<(),std::io::error::Error>+core::marker::Send+core::marker::Sync>
; Function Attrs: nonlazybind uwtable
define void @"_ZN4core3ptr203drop_in_place$LT$dyn$u20$core..ops..function..FnMut$LT$$LP$$RP$$GT$$u2b$Output$u20$$u3d$$u20$core..result..Result$LT$$LP$$RP$$C$std..io..error..Error$GT$$u2b$core..marker..Send$u2b$core..marker..Sync$GT$17hc071d3ef2b0bbf17E"(ptr align 1 %_1.0, ptr align 8 %_1.1) unnamed_addr #0 {
start:
  %0 = getelementptr inbounds i8, ptr %_1.1, i64 0
  %1 = load ptr, ptr %0, align 8, !invariant.load !3
  %2 = icmp ne ptr %1, null
  br i1 %2, label %is_not_null, label %bb1

is_not_null:                                      ; preds = %start
  call void %1(ptr align 1 %_1.0)
  br label %bb1

bb1:                                              ; preds = %is_not_null, %start
  ret void
}

; core::ptr::drop_in_place<alloc::boxed::Box<dyn core::ops::function::FnMut<()>+Output = core::result::Result<(),std::io::error::Error>+core::marker::Send+core::marker::Sync>>
; Function Attrs: nonlazybind uwtable
define void @"_ZN4core3ptr228drop_in_place$LT$alloc..boxed..Box$LT$dyn$u20$core..ops..function..FnMut$LT$$LP$$RP$$GT$$u2b$Output$u20$$u3d$$u20$core..result..Result$LT$$LP$$RP$$C$std..io..error..Error$GT$$u2b$core..marker..Send$u2b$core..marker..Sync$GT$$GT$17hf58fdc69797ca786E"(ptr align 8 %_1) unnamed_addr #0 personality ptr @rust_eh_personality {
start:
  %0 = alloca [16 x i8], align 8
  %_6.0 = load ptr, ptr %_1, align 8
  %1 = getelementptr inbounds i8, ptr %_1, i64 8
  %_6.1 = load ptr, ptr %1, align 8
  %2 = getelementptr inbounds i8, ptr %_6.1, i64 0
  %3 = load ptr, ptr %2, align 8, !invariant.load !3
  %4 = icmp ne ptr %3, null
  br i1 %4, label %is_not_null, label %bb3

is_not_null:                                      ; preds = %start
  invoke void %3(ptr align 1 %_6.0)
          to label %bb3 unwind label %cleanup

bb3:                                              ; preds = %is_not_null, %start
; call <alloc::boxed::Box<T,A> as core::ops::drop::Drop>::drop
  call void @"_ZN72_$LT$alloc..boxed..Box$LT$T$C$A$GT$$u20$as$u20$core..ops..drop..Drop$GT$4drop17hc6b127ccc773cefbE"(ptr align 8 %_1)
  ret void

bb4:                                              ; preds = %cleanup
; invoke <alloc::boxed::Box<T,A> as core::ops::drop::Drop>::drop
  invoke void @"_ZN72_$LT$alloc..boxed..Box$LT$T$C$A$GT$$u20$as$u20$core..ops..drop..Drop$GT$4drop17hc6b127ccc773cefbE"(ptr align 8 %_1) #21
          to label %bb1 unwind label %terminate

cleanup:                                          ; preds = %is_not_null
  %5 = landingpad { ptr, i32 }
          cleanup
  %6 = extractvalue { ptr, i32 } %5, 0
  %7 = extractvalue { ptr, i32 } %5, 1
  store ptr %6, ptr %0, align 8
  %8 = getelementptr inbounds i8, ptr %0, i64 8
  store i32 %7, ptr %8, align 8
  br label %bb4

terminate:                                        ; preds = %bb4
  %9 = landingpad { ptr, i32 }
          filter [0 x ptr] zeroinitializer
  %10 = extractvalue { ptr, i32 } %9, 0
  %11 = extractvalue { ptr, i32 } %9, 1
; call core::panicking::panic_in_cleanup
  call void @_ZN4core9panicking16panic_in_cleanup17h43442956f23e9cbeE() #22
  unreachable

bb1:                                              ; preds = %bb4
  %12 = load ptr, ptr %0, align 8
  %13 = getelementptr inbounds i8, ptr %0, i64 8
  %14 = load i32, ptr %13, align 8
  %15 = insertvalue { ptr, i32 } poison, ptr %12, 0
  %16 = insertvalue { ptr, i32 } %15, i32 %14, 1
  resume { ptr, i32 } %16
}

; core::ptr::drop_in_place<[alloc::boxed::Box<dyn core::ops::function::FnMut<()>+Output = core::result::Result<(),std::io::error::Error>+core::marker::Send+core::marker::Sync>]>
; Function Attrs: nonlazybind uwtable
define void @"_ZN4core3ptr238drop_in_place$LT$$u5b$alloc..boxed..Box$LT$dyn$u20$core..ops..function..FnMut$LT$$LP$$RP$$GT$$u2b$Output$u20$$u3d$$u20$core..result..Result$LT$$LP$$RP$$C$std..io..error..Error$GT$$u2b$core..marker..Send$u2b$core..marker..Sync$GT$$u5d$$GT$17h14f6762a8e8d5373E"(ptr align 8 %_1.0, i64 %_1.1) unnamed_addr #0 personality ptr @rust_eh_personality {
start:
  %0 = alloca [16 x i8], align 8
  %_3 = alloca [8 x i8], align 8
  store i64 0, ptr %_3, align 8
  br label %bb6

bb6:                                              ; preds = %bb5, %start
  %1 = load i64, ptr %_3, align 8
  %_7 = icmp eq i64 %1, %_1.1
  br i1 %_7, label %bb1, label %bb5

bb5:                                              ; preds = %bb6
  %2 = load i64, ptr %_3, align 8
  %_6 = getelementptr inbounds [0 x %"alloc::boxed::Box<dyn core::ops::function::FnMut() -> core::result::Result<(), std::io::error::Error> + core::marker::Send + core::marker::Sync>"], ptr %_1.0, i64 0, i64 %2
  %3 = load i64, ptr %_3, align 8
  %4 = add i64 %3, 1
  store i64 %4, ptr %_3, align 8
; invoke core::ptr::drop_in_place<alloc::boxed::Box<dyn core::ops::function::FnMut<()>+Output = core::result::Result<(),std::io::error::Error>+core::marker::Send+core::marker::Sync>>
  invoke void @"_ZN4core3ptr228drop_in_place$LT$alloc..boxed..Box$LT$dyn$u20$core..ops..function..FnMut$LT$$LP$$RP$$GT$$u2b$Output$u20$$u3d$$u20$core..result..Result$LT$$LP$$RP$$C$std..io..error..Error$GT$$u2b$core..marker..Send$u2b$core..marker..Sync$GT$$GT$17hf58fdc69797ca786E"(ptr align 8 %_6)
          to label %bb6 unwind label %cleanup

bb1:                                              ; preds = %bb6
  ret void

bb4:                                              ; preds = %bb3, %cleanup
  %5 = load i64, ptr %_3, align 8
  %_5 = icmp eq i64 %5, %_1.1
  br i1 %_5, label %bb2, label %bb3

cleanup:                                          ; preds = %bb5
  %6 = landingpad { ptr, i32 }
          cleanup
  %7 = extractvalue { ptr, i32 } %6, 0
  %8 = extractvalue { ptr, i32 } %6, 1
  store ptr %7, ptr %0, align 8
  %9 = getelementptr inbounds i8, ptr %0, i64 8
  store i32 %8, ptr %9, align 8
  br label %bb4

bb3:                                              ; preds = %bb4
  %10 = load i64, ptr %_3, align 8
  %_4 = getelementptr inbounds [0 x %"alloc::boxed::Box<dyn core::ops::function::FnMut() -> core::result::Result<(), std::io::error::Error> + core::marker::Send + core::marker::Sync>"], ptr %_1.0, i64 0, i64 %10
  %11 = load i64, ptr %_3, align 8
  %12 = add i64 %11, 1
  store i64 %12, ptr %_3, align 8
; invoke core::ptr::drop_in_place<alloc::boxed::Box<dyn core::ops::function::FnMut<()>+Output = core::result::Result<(),std::io::error::Error>+core::marker::Send+core::marker::Sync>>
  invoke void @"_ZN4core3ptr228drop_in_place$LT$alloc..boxed..Box$LT$dyn$u20$core..ops..function..FnMut$LT$$LP$$RP$$GT$$u2b$Output$u20$$u3d$$u20$core..result..Result$LT$$LP$$RP$$C$std..io..error..Error$GT$$u2b$core..marker..Send$u2b$core..marker..Sync$GT$$GT$17hf58fdc69797ca786E"(ptr align 8 %_4) #21
          to label %bb4 unwind label %terminate

bb2:                                              ; preds = %bb4
  %13 = load ptr, ptr %0, align 8
  %14 = getelementptr inbounds i8, ptr %0, i64 8
  %15 = load i32, ptr %14, align 8
  %16 = insertvalue { ptr, i32 } poison, ptr %13, 0
  %17 = insertvalue { ptr, i32 } %16, i32 %15, 1
  resume { ptr, i32 } %17

terminate:                                        ; preds = %bb3
  %18 = landingpad { ptr, i32 }
          filter [0 x ptr] zeroinitializer
  %19 = extractvalue { ptr, i32 } %18, 0
  %20 = extractvalue { ptr, i32 } %18, 1
; call core::panicking::panic_in_cleanup
  call void @_ZN4core9panicking16panic_in_cleanup17h43442956f23e9cbeE() #22
  unreachable
}

; core::ptr::drop_in_place<<alloc::collections::btree::map::IntoIter<K,V,A> as core::ops::drop::Drop>::drop::DropGuard<std::ffi::os_str::OsString,core::option::Option<std::ffi::os_str::OsString>,alloc::alloc::Global>>
; Function Attrs: nonlazybind uwtable
define void @"_ZN4core3ptr250drop_in_place$LT$$LT$alloc..collections..btree..map..IntoIter$LT$K$C$V$C$A$GT$$u20$as$u20$core..ops..drop..Drop$GT$..drop..DropGuard$LT$std..ffi..os_str..OsString$C$core..option..Option$LT$std..ffi..os_str..OsString$GT$$C$alloc..alloc..Global$GT$$GT$17hf27ee85684a8953fE"(ptr align 8 %_1) unnamed_addr #0 {
start:
; call <<alloc::collections::btree::map::IntoIter<K,V,A> as core::ops::drop::Drop>::drop::DropGuard<K,V,A> as core::ops::drop::Drop>::drop
  call void @"_ZN174_$LT$$LT$alloc..collections..btree..map..IntoIter$LT$K$C$V$C$A$GT$$u20$as$u20$core..ops..drop..Drop$GT$..drop..DropGuard$LT$K$C$V$C$A$GT$$u20$as$u20$core..ops..drop..Drop$GT$4drop17h317ab1f36621500fE"(ptr align 8 %_1)
  ret void
}

; core::ptr::drop_in_place<alloc::vec::Vec<alloc::boxed::Box<dyn core::ops::function::FnMut<()>+Output = core::result::Result<(),std::io::error::Error>+core::marker::Send+core::marker::Sync>>>
; Function Attrs: nonlazybind uwtable
define void @"_ZN4core3ptr251drop_in_place$LT$alloc..vec..Vec$LT$alloc..boxed..Box$LT$dyn$u20$core..ops..function..FnMut$LT$$LP$$RP$$GT$$u2b$Output$u20$$u3d$$u20$core..result..Result$LT$$LP$$RP$$C$std..io..error..Error$GT$$u2b$core..marker..Send$u2b$core..marker..Sync$GT$$GT$$GT$17h50a5552aa2821768E"(ptr align 8 %_1) unnamed_addr #0 personality ptr @rust_eh_personality {
start:
  %0 = alloca [16 x i8], align 8
; invoke <alloc::vec::Vec<T,A> as core::ops::drop::Drop>::drop
  invoke void @"_ZN70_$LT$alloc..vec..Vec$LT$T$C$A$GT$$u20$as$u20$core..ops..drop..Drop$GT$4drop17hd044405a1dd54bccE"(ptr align 8 %_1)
          to label %bb4 unwind label %cleanup

bb3:                                              ; preds = %cleanup
; invoke core::ptr::drop_in_place<alloc::raw_vec::RawVec<alloc::boxed::Box<dyn core::ops::function::FnMut<()>+Output = core::result::Result<(),std::io::error::Error>+core::marker::Send+core::marker::Sync>>>
  invoke void @"_ZN4core3ptr258drop_in_place$LT$alloc..raw_vec..RawVec$LT$alloc..boxed..Box$LT$dyn$u20$core..ops..function..FnMut$LT$$LP$$RP$$GT$$u2b$Output$u20$$u3d$$u20$core..result..Result$LT$$LP$$RP$$C$std..io..error..Error$GT$$u2b$core..marker..Send$u2b$core..marker..Sync$GT$$GT$$GT$17hec38f38daaf8757cE"(ptr align 8 %_1) #21
          to label %bb1 unwind label %terminate

cleanup:                                          ; preds = %start
  %1 = landingpad { ptr, i32 }
          cleanup
  %2 = extractvalue { ptr, i32 } %1, 0
  %3 = extractvalue { ptr, i32 } %1, 1
  store ptr %2, ptr %0, align 8
  %4 = getelementptr inbounds i8, ptr %0, i64 8
  store i32 %3, ptr %4, align 8
  br label %bb3

bb4:                                              ; preds = %start
; call core::ptr::drop_in_place<alloc::raw_vec::RawVec<alloc::boxed::Box<dyn core::ops::function::FnMut<()>+Output = core::result::Result<(),std::io::error::Error>+core::marker::Send+core::marker::Sync>>>
  call void @"_ZN4core3ptr258drop_in_place$LT$alloc..raw_vec..RawVec$LT$alloc..boxed..Box$LT$dyn$u20$core..ops..function..FnMut$LT$$LP$$RP$$GT$$u2b$Output$u20$$u3d$$u20$core..result..Result$LT$$LP$$RP$$C$std..io..error..Error$GT$$u2b$core..marker..Send$u2b$core..marker..Sync$GT$$GT$$GT$17hec38f38daaf8757cE"(ptr align 8 %_1)
  ret void

terminate:                                        ; preds = %bb3
  %5 = landingpad { ptr, i32 }
          filter [0 x ptr] zeroinitializer
  %6 = extractvalue { ptr, i32 } %5, 0
  %7 = extractvalue { ptr, i32 } %5, 1
; call core::panicking::panic_in_cleanup
  call void @_ZN4core9panicking16panic_in_cleanup17h43442956f23e9cbeE() #22
  unreachable

bb1:                                              ; preds = %bb3
  %8 = load ptr, ptr %0, align 8
  %9 = getelementptr inbounds i8, ptr %0, i64 8
  %10 = load i32, ptr %9, align 8
  %11 = insertvalue { ptr, i32 } poison, ptr %8, 0
  %12 = insertvalue { ptr, i32 } %11, i32 %10, 1
  resume { ptr, i32 } %12
}

; core::ptr::drop_in_place<alloc::raw_vec::RawVec<alloc::boxed::Box<dyn core::ops::function::FnMut<()>+Output = core::result::Result<(),std::io::error::Error>+core::marker::Send+core::marker::Sync>>>
; Function Attrs: nonlazybind uwtable
define void @"_ZN4core3ptr258drop_in_place$LT$alloc..raw_vec..RawVec$LT$alloc..boxed..Box$LT$dyn$u20$core..ops..function..FnMut$LT$$LP$$RP$$GT$$u2b$Output$u20$$u3d$$u20$core..result..Result$LT$$LP$$RP$$C$std..io..error..Error$GT$$u2b$core..marker..Send$u2b$core..marker..Sync$GT$$GT$$GT$17hec38f38daaf8757cE"(ptr align 8 %_1) unnamed_addr #0 {
start:
; call <alloc::raw_vec::RawVec<T,A> as core::ops::drop::Drop>::drop
  call void @"_ZN77_$LT$alloc..raw_vec..RawVec$LT$T$C$A$GT$$u20$as$u20$core..ops..drop..Drop$GT$4drop17hbfed65b254a56255E"(ptr align 8 %_1)
  ret void
}

; core::ptr::drop_in_place<usize>
; Function Attrs: inlinehint nonlazybind uwtable
define internal void @"_ZN4core3ptr26drop_in_place$LT$usize$GT$17h86921eb293e20413E"(ptr align 8 %_1) unnamed_addr #1 {
start:
  ret void
}

; core::ptr::drop_in_place<&u8>
; Function Attrs: inlinehint nonlazybind uwtable
define internal void @"_ZN4core3ptr27drop_in_place$LT$$RF$u8$GT$17h940b1059034be797E"(ptr align 8 %_1) unnamed_addr #1 {
start:
  ret void
}

; core::ptr::drop_in_place<&&str>
; Function Attrs: inlinehint nonlazybind uwtable
define internal void @"_ZN4core3ptr32drop_in_place$LT$$RF$$RF$str$GT$17haa065d6c4337b7c2E"(ptr align 8 %_1) unnamed_addr #1 {
start:
  ret void
}

; core::ptr::drop_in_place<&()>
; Function Attrs: inlinehint nonlazybind uwtable
define internal void @"_ZN4core3ptr33drop_in_place$LT$$RF$$LP$$RP$$GT$17h18286b695c6701c7E"(ptr align 8 %_1) unnamed_addr #1 {
start:
  ret void
}

; core::ptr::drop_in_place<autocfg::AutoCfg>
; Function Attrs: nonlazybind uwtable
define void @"_ZN4core3ptr37drop_in_place$LT$autocfg..AutoCfg$GT$17h88e4be92d6b259a6E"(ptr align 8 %_1) unnamed_addr #0 personality ptr @rust_eh_personality {
start:
  %0 = alloca [16 x i8], align 8
; invoke core::ptr::drop_in_place<std::path::PathBuf>
  invoke void @"_ZN4core3ptr39drop_in_place$LT$std..path..PathBuf$GT$17h56fda12ece371b78E"(ptr align 8 %_1)
          to label %bb8 unwind label %cleanup

bb5:                                              ; preds = %cleanup
  %1 = getelementptr inbounds i8, ptr %_1, i64 24
; invoke core::ptr::drop_in_place<std::path::PathBuf>
  invoke void @"_ZN4core3ptr39drop_in_place$LT$std..path..PathBuf$GT$17h56fda12ece371b78E"(ptr align 8 %1) #21
          to label %bb4 unwind label %terminate

cleanup:                                          ; preds = %start
  %2 = landingpad { ptr, i32 }
          cleanup
  %3 = extractvalue { ptr, i32 } %2, 0
  %4 = extractvalue { ptr, i32 } %2, 1
  store ptr %3, ptr %0, align 8
  %5 = getelementptr inbounds i8, ptr %0, i64 8
  store i32 %4, ptr %5, align 8
  br label %bb5

bb8:                                              ; preds = %start
  %6 = getelementptr inbounds i8, ptr %_1, i64 24
; invoke core::ptr::drop_in_place<std::path::PathBuf>
  invoke void @"_ZN4core3ptr39drop_in_place$LT$std..path..PathBuf$GT$17h56fda12ece371b78E"(ptr align 8 %6)
          to label %bb7 unwind label %cleanup1

bb4:                                              ; preds = %bb5, %cleanup1
  %7 = getelementptr inbounds i8, ptr %_1, i64 72
; invoke core::ptr::drop_in_place<core::option::Option<std::ffi::os_str::OsString>>
  invoke void @"_ZN4core3ptr75drop_in_place$LT$core..option..Option$LT$std..ffi..os_str..OsString$GT$$GT$17h0e694dd1cb4cfc99E"(ptr align 8 %7) #21
          to label %bb3 unwind label %terminate

cleanup1:                                         ; preds = %bb8
  %8 = landingpad { ptr, i32 }
          cleanup
  %9 = extractvalue { ptr, i32 } %8, 0
  %10 = extractvalue { ptr, i32 } %8, 1
  store ptr %9, ptr %0, align 8
  %11 = getelementptr inbounds i8, ptr %0, i64 8
  store i32 %10, ptr %11, align 8
  br label %bb4

bb7:                                              ; preds = %bb8
  %12 = getelementptr inbounds i8, ptr %_1, i64 72
; invoke core::ptr::drop_in_place<core::option::Option<std::ffi::os_str::OsString>>
  invoke void @"_ZN4core3ptr75drop_in_place$LT$core..option..Option$LT$std..ffi..os_str..OsString$GT$$GT$17h0e694dd1cb4cfc99E"(ptr align 8 %12)
          to label %bb6 unwind label %cleanup2

bb3:                                              ; preds = %bb4, %cleanup2
  %13 = getelementptr inbounds i8, ptr %_1, i64 48
; invoke core::ptr::drop_in_place<alloc::vec::Vec<alloc::string::String>>
  invoke void @"_ZN4core3ptr65drop_in_place$LT$alloc..vec..Vec$LT$alloc..string..String$GT$$GT$17h05f3368029593713E"(ptr align 8 %13) #21
          to label %bb1 unwind label %terminate

cleanup2:                                         ; preds = %bb7
  %14 = landingpad { ptr, i32 }
          cleanup
  %15 = extractvalue { ptr, i32 } %14, 0
  %16 = extractvalue { ptr, i32 } %14, 1
  store ptr %15, ptr %0, align 8
  %17 = getelementptr inbounds i8, ptr %0, i64 8
  store i32 %16, ptr %17, align 8
  br label %bb3

bb6:                                              ; preds = %bb7
  %18 = getelementptr inbounds i8, ptr %_1, i64 48
; call core::ptr::drop_in_place<alloc::vec::Vec<alloc::string::String>>
  call void @"_ZN4core3ptr65drop_in_place$LT$alloc..vec..Vec$LT$alloc..string..String$GT$$GT$17h05f3368029593713E"(ptr align 8 %18)
  ret void

terminate:                                        ; preds = %bb3, %bb4, %bb5
  %19 = landingpad { ptr, i32 }
          filter [0 x ptr] zeroinitializer
  %20 = extractvalue { ptr, i32 } %19, 0
  %21 = extractvalue { ptr, i32 } %19, 1
; call core::panicking::panic_in_cleanup
  call void @_ZN4core9panicking16panic_in_cleanup17h43442956f23e9cbeE() #22
  unreachable

bb1:                                              ; preds = %bb3
  %22 = load ptr, ptr %0, align 8
  %23 = getelementptr inbounds i8, ptr %0, i64 8
  %24 = load i32, ptr %23, align 8
  %25 = insertvalue { ptr, i32 } poison, ptr %22, 0
  %26 = insertvalue { ptr, i32 } %25, i32 %24, 1
  resume { ptr, i32 } %26
}

; core::ptr::drop_in_place<std::env::VarError>
; Function Attrs: nonlazybind uwtable
define void @"_ZN4core3ptr39drop_in_place$LT$std..env..VarError$GT$17hadae4efb8667a88dE"(ptr align 8 %_1) unnamed_addr #0 {
start:
  %0 = load i64, ptr %_1, align 8
  %1 = icmp eq i64 %0, -9223372036854775808
  %_2 = select i1 %1, i64 0, i64 1
  %2 = icmp eq i64 %_2, 0
  br i1 %2, label %bb1, label %bb2

bb1:                                              ; preds = %bb2, %start
  ret void

bb2:                                              ; preds = %start
; call core::ptr::drop_in_place<std::ffi::os_str::OsString>
  call void @"_ZN4core3ptr47drop_in_place$LT$std..ffi..os_str..OsString$GT$17h7e4fc012fa584ef1E"(ptr align 8 %_1)
  br label %bb1
}

; core::ptr::drop_in_place<std::path::PathBuf>
; Function Attrs: nonlazybind uwtable
define void @"_ZN4core3ptr39drop_in_place$LT$std..path..PathBuf$GT$17h56fda12ece371b78E"(ptr align 8 %_1) unnamed_addr #0 {
start:
; call core::ptr::drop_in_place<std::ffi::os_str::OsString>
  call void @"_ZN4core3ptr47drop_in_place$LT$std..ffi..os_str..OsString$GT$17h7e4fc012fa584ef1E"(ptr align 8 %_1)
  ret void
}

; core::ptr::drop_in_place<std::process::Child>
; Function Attrs: nonlazybind uwtable
define void @"_ZN4core3ptr40drop_in_place$LT$std..process..Child$GT$17h8ddf8fa577e66ef0E"(ptr align 4 %_1) unnamed_addr #0 personality ptr @rust_eh_personality {
start:
  %0 = alloca [16 x i8], align 8
; invoke core::ptr::drop_in_place<std::sys::pal::unix::process::process_inner::Process>
  invoke void @"_ZN4core3ptr73drop_in_place$LT$std..sys..pal..unix..process..process_inner..Process$GT$17h1e88dced90dcd706E"(ptr align 4 %_1)
          to label %bb8 unwind label %cleanup

bb5:                                              ; preds = %cleanup
  %1 = getelementptr inbounds i8, ptr %_1, i64 16
; invoke core::ptr::drop_in_place<core::option::Option<std::process::ChildStdin>>
  invoke void @"_ZN4core3ptr73drop_in_place$LT$core..option..Option$LT$std..process..ChildStdin$GT$$GT$17ha2ad116b640f9900E"(ptr align 4 %1) #21
          to label %bb4 unwind label %terminate

cleanup:                                          ; preds = %start
  %2 = landingpad { ptr, i32 }
          cleanup
  %3 = extractvalue { ptr, i32 } %2, 0
  %4 = extractvalue { ptr, i32 } %2, 1
  store ptr %3, ptr %0, align 8
  %5 = getelementptr inbounds i8, ptr %0, i64 8
  store i32 %4, ptr %5, align 8
  br label %bb5

bb8:                                              ; preds = %start
  %6 = getelementptr inbounds i8, ptr %_1, i64 16
; invoke core::ptr::drop_in_place<core::option::Option<std::process::ChildStdin>>
  invoke void @"_ZN4core3ptr73drop_in_place$LT$core..option..Option$LT$std..process..ChildStdin$GT$$GT$17ha2ad116b640f9900E"(ptr align 4 %6)
          to label %bb7 unwind label %cleanup1

bb4:                                              ; preds = %bb5, %cleanup1
  %7 = getelementptr inbounds i8, ptr %_1, i64 20
; invoke core::ptr::drop_in_place<core::option::Option<std::process::ChildStdout>>
  invoke void @"_ZN4core3ptr74drop_in_place$LT$core..option..Option$LT$std..process..ChildStdout$GT$$GT$17h51af46be61efd845E"(ptr align 4 %7) #21
          to label %bb3 unwind label %terminate

cleanup1:                                         ; preds = %bb8
  %8 = landingpad { ptr, i32 }
          cleanup
  %9 = extractvalue { ptr, i32 } %8, 0
  %10 = extractvalue { ptr, i32 } %8, 1
  store ptr %9, ptr %0, align 8
  %11 = getelementptr inbounds i8, ptr %0, i64 8
  store i32 %10, ptr %11, align 8
  br label %bb4

bb7:                                              ; preds = %bb8
  %12 = getelementptr inbounds i8, ptr %_1, i64 20
; invoke core::ptr::drop_in_place<core::option::Option<std::process::ChildStdout>>
  invoke void @"_ZN4core3ptr74drop_in_place$LT$core..option..Option$LT$std..process..ChildStdout$GT$$GT$17h51af46be61efd845E"(ptr align 4 %12)
          to label %bb6 unwind label %cleanup2

bb3:                                              ; preds = %bb4, %cleanup2
  %13 = getelementptr inbounds i8, ptr %_1, i64 24
; invoke core::ptr::drop_in_place<core::option::Option<std::process::ChildStderr>>
  invoke void @"_ZN4core3ptr74drop_in_place$LT$core..option..Option$LT$std..process..ChildStderr$GT$$GT$17h22f7fde4e1ea057dE"(ptr align 4 %13) #21
          to label %bb1 unwind label %terminate

cleanup2:                                         ; preds = %bb7
  %14 = landingpad { ptr, i32 }
          cleanup
  %15 = extractvalue { ptr, i32 } %14, 0
  %16 = extractvalue { ptr, i32 } %14, 1
  store ptr %15, ptr %0, align 8
  %17 = getelementptr inbounds i8, ptr %0, i64 8
  store i32 %16, ptr %17, align 8
  br label %bb3

bb6:                                              ; preds = %bb7
  %18 = getelementptr inbounds i8, ptr %_1, i64 24
; call core::ptr::drop_in_place<core::option::Option<std::process::ChildStderr>>
  call void @"_ZN4core3ptr74drop_in_place$LT$core..option..Option$LT$std..process..ChildStderr$GT$$GT$17h22f7fde4e1ea057dE"(ptr align 4 %18)
  ret void

terminate:                                        ; preds = %bb3, %bb4, %bb5
  %19 = landingpad { ptr, i32 }
          filter [0 x ptr] zeroinitializer
  %20 = extractvalue { ptr, i32 } %19, 0
  %21 = extractvalue { ptr, i32 } %19, 1
; call core::panicking::panic_in_cleanup
  call void @_ZN4core9panicking16panic_in_cleanup17h43442956f23e9cbeE() #22
  unreachable

bb1:                                              ; preds = %bb3
  %22 = load ptr, ptr %0, align 8
  %23 = getelementptr inbounds i8, ptr %0, i64 8
  %24 = load i32, ptr %23, align 8
  %25 = insertvalue { ptr, i32 } poison, ptr %22, 0
  %26 = insertvalue { ptr, i32 } %25, i32 %24, 1
  resume { ptr, i32 } %26
}

; core::ptr::drop_in_place<std::process::Output>
; Function Attrs: nonlazybind uwtable
define void @"_ZN4core3ptr41drop_in_place$LT$std..process..Output$GT$17hd9d93c304f5c3f44E"(ptr align 8 %_1) unnamed_addr #0 personality ptr @rust_eh_personality {
start:
  %0 = alloca [16 x i8], align 8
; invoke core::ptr::drop_in_place<alloc::vec::Vec<u8>>
  invoke void @"_ZN4core3ptr46drop_in_place$LT$alloc..vec..Vec$LT$u8$GT$$GT$17h69f9ad46bacc7068E"(ptr align 8 %_1)
          to label %bb4 unwind label %cleanup

bb3:                                              ; preds = %cleanup
  %1 = getelementptr inbounds i8, ptr %_1, i64 24
; invoke core::ptr::drop_in_place<alloc::vec::Vec<u8>>
  invoke void @"_ZN4core3ptr46drop_in_place$LT$alloc..vec..Vec$LT$u8$GT$$GT$17h69f9ad46bacc7068E"(ptr align 8 %1) #21
          to label %bb1 unwind label %terminate

cleanup:                                          ; preds = %start
  %2 = landingpad { ptr, i32 }
          cleanup
  %3 = extractvalue { ptr, i32 } %2, 0
  %4 = extractvalue { ptr, i32 } %2, 1
  store ptr %3, ptr %0, align 8
  %5 = getelementptr inbounds i8, ptr %0, i64 8
  store i32 %4, ptr %5, align 8
  br label %bb3

bb4:                                              ; preds = %start
  %6 = getelementptr inbounds i8, ptr %_1, i64 24
; call core::ptr::drop_in_place<alloc::vec::Vec<u8>>
  call void @"_ZN4core3ptr46drop_in_place$LT$alloc..vec..Vec$LT$u8$GT$$GT$17h69f9ad46bacc7068E"(ptr align 8 %6)
  ret void

terminate:                                        ; preds = %bb3
  %7 = landingpad { ptr, i32 }
          filter [0 x ptr] zeroinitializer
  %8 = extractvalue { ptr, i32 } %7, 0
  %9 = extractvalue { ptr, i32 } %7, 1
; call core::panicking::panic_in_cleanup
  call void @_ZN4core9panicking16panic_in_cleanup17h43442956f23e9cbeE() #22
  unreachable

bb1:                                              ; preds = %bb3
  %10 = load ptr, ptr %0, align 8
  %11 = getelementptr inbounds i8, ptr %0, i64 8
  %12 = load i32, ptr %11, align 8
  %13 = insertvalue { ptr, i32 } poison, ptr %10, 0
  %14 = insertvalue { ptr, i32 } %13, i32 %12, 1
  resume { ptr, i32 } %14
}

; core::ptr::drop_in_place<alloc::string::String>
; Function Attrs: nonlazybind uwtable
define void @"_ZN4core3ptr42drop_in_place$LT$alloc..string..String$GT$17h007215f0c9e60290E"(ptr align 8 %_1) unnamed_addr #0 {
start:
; call core::ptr::drop_in_place<alloc::vec::Vec<u8>>
  call void @"_ZN4core3ptr46drop_in_place$LT$alloc..vec..Vec$LT$u8$GT$$GT$17h69f9ad46bacc7068E"(ptr align 8 %_1)
  ret void
}

; core::ptr::drop_in_place<autocfg::error::Error>
; Function Attrs: nonlazybind uwtable
define void @"_ZN4core3ptr42drop_in_place$LT$autocfg..error..Error$GT$17h535f591202b9939bE"(ptr align 8 %_1) unnamed_addr #0 {
start:
; call core::ptr::drop_in_place<autocfg::error::ErrorKind>
  call void @"_ZN4core3ptr46drop_in_place$LT$autocfg..error..ErrorKind$GT$17ha9ddc3961003e0f6E"(ptr align 8 %_1)
  ret void
}

; core::ptr::drop_in_place<std::io::error::Error>
; Function Attrs: nonlazybind uwtable
define void @"_ZN4core3ptr42drop_in_place$LT$std..io..error..Error$GT$17h28e16e4fdf1d986dE"(ptr align 8 %_1) unnamed_addr #0 {
start:
; call core::ptr::drop_in_place<std::io::error::repr_bitpacked::Repr>
  call void @"_ZN4core3ptr57drop_in_place$LT$std..io..error..repr_bitpacked..Repr$GT$17hf01b918d3611b223E"(ptr align 8 %_1)
  ret void
}

; core::ptr::drop_in_place<std::process::Command>
; Function Attrs: nonlazybind uwtable
define void @"_ZN4core3ptr42drop_in_place$LT$std..process..Command$GT$17habe57a27c32ff802E"(ptr align 8 %_1) unnamed_addr #0 {
start:
; call core::ptr::drop_in_place<std::sys::pal::unix::process::process_common::Command>
  call void @"_ZN4core3ptr74drop_in_place$LT$std..sys..pal..unix..process..process_common..Command$GT$17h6df0a0ddcdd6325cE"(ptr align 8 %_1)
  ret void
}

; core::ptr::drop_in_place<std::io::error::Custom>
; Function Attrs: nonlazybind uwtable
define void @"_ZN4core3ptr43drop_in_place$LT$std..io..error..Custom$GT$17h95dd72219116a751E"(ptr align 8 %_1) unnamed_addr #0 {
start:
; call core::ptr::drop_in_place<alloc::boxed::Box<dyn core::error::Error+core::marker::Send+core::marker::Sync>>
  call void @"_ZN4core3ptr118drop_in_place$LT$alloc..boxed..Box$LT$dyn$u20$core..error..Error$u2b$core..marker..Send$u2b$core..marker..Sync$GT$$GT$17h36058f9a7d2c3719E"(ptr align 8 %_1)
  ret void
}

; core::ptr::drop_in_place<std::process::ChildStdin>
; Function Attrs: nonlazybind uwtable
define void @"_ZN4core3ptr45drop_in_place$LT$std..process..ChildStdin$GT$17h66b1aeeb00e3c63bE"(ptr align 4 %_1) unnamed_addr #0 {
start:
; call core::ptr::drop_in_place<std::sys::pal::unix::pipe::AnonPipe>
  call void @"_ZN4core3ptr56drop_in_place$LT$std..sys..pal..unix..pipe..AnonPipe$GT$17heb8437df942100f6E"(ptr align 4 %_1)
  ret void
}

; core::ptr::drop_in_place<&std::io::error::Error>
; Function Attrs: inlinehint nonlazybind uwtable
define internal void @"_ZN4core3ptr46drop_in_place$LT$$RF$std..io..error..Error$GT$17haa0ebe1b1a681f13E"(ptr align 8 %_1) unnamed_addr #1 {
start:
  ret void
}

; core::ptr::drop_in_place<alloc::vec::Vec<u8>>
; Function Attrs: nonlazybind uwtable
define void @"_ZN4core3ptr46drop_in_place$LT$alloc..vec..Vec$LT$u8$GT$$GT$17h69f9ad46bacc7068E"(ptr align 8 %_1) unnamed_addr #0 personality ptr @rust_eh_personality {
start:
  %0 = alloca [16 x i8], align 8
; invoke <alloc::vec::Vec<T,A> as core::ops::drop::Drop>::drop
  invoke void @"_ZN70_$LT$alloc..vec..Vec$LT$T$C$A$GT$$u20$as$u20$core..ops..drop..Drop$GT$4drop17h73a4b98951deb749E"(ptr align 8 %_1)
          to label %bb4 unwind label %cleanup

bb3:                                              ; preds = %cleanup
; invoke core::ptr::drop_in_place<alloc::raw_vec::RawVec<u8>>
  invoke void @"_ZN4core3ptr53drop_in_place$LT$alloc..raw_vec..RawVec$LT$u8$GT$$GT$17hfe21ac7567bc7b54E"(ptr align 8 %_1) #21
          to label %bb1 unwind label %terminate

cleanup:                                          ; preds = %start
  %1 = landingpad { ptr, i32 }
          cleanup
  %2 = extractvalue { ptr, i32 } %1, 0
  %3 = extractvalue { ptr, i32 } %1, 1
  store ptr %2, ptr %0, align 8
  %4 = getelementptr inbounds i8, ptr %0, i64 8
  store i32 %3, ptr %4, align 8
  br label %bb3

bb4:                                              ; preds = %start
; call core::ptr::drop_in_place<alloc::raw_vec::RawVec<u8>>
  call void @"_ZN4core3ptr53drop_in_place$LT$alloc..raw_vec..RawVec$LT$u8$GT$$GT$17hfe21ac7567bc7b54E"(ptr align 8 %_1)
  ret void

terminate:                                        ; preds = %bb3
  %5 = landingpad { ptr, i32 }
          filter [0 x ptr] zeroinitializer
  %6 = extractvalue { ptr, i32 } %5, 0
  %7 = extractvalue { ptr, i32 } %5, 1
; call core::panicking::panic_in_cleanup
  call void @_ZN4core9panicking16panic_in_cleanup17h43442956f23e9cbeE() #22
  unreachable

bb1:                                              ; preds = %bb3
  %8 = load ptr, ptr %0, align 8
  %9 = getelementptr inbounds i8, ptr %0, i64 8
  %10 = load i32, ptr %9, align 8
  %11 = insertvalue { ptr, i32 } poison, ptr %8, 0
  %12 = insertvalue { ptr, i32 } %11, i32 %10, 1
  resume { ptr, i32 } %12
}

; core::ptr::drop_in_place<autocfg::error::ErrorKind>
; Function Attrs: nonlazybind uwtable
define void @"_ZN4core3ptr46drop_in_place$LT$autocfg..error..ErrorKind$GT$17ha9ddc3961003e0f6E"(ptr align 8 %_1) unnamed_addr #0 {
start:
  %0 = load i8, ptr %_1, align 8
  %_2 = zext i8 %0 to i64
  switch i64 %_2, label %bb1 [
    i64 0, label %bb2
    i64 1, label %bb1
    i64 2, label %bb1
  ]

bb1:                                              ; preds = %bb2, %start, %start, %start
  ret void

bb2:                                              ; preds = %start
  %1 = getelementptr inbounds i8, ptr %_1, i64 8
; call core::ptr::drop_in_place<std::io::error::Error>
  call void @"_ZN4core3ptr42drop_in_place$LT$std..io..error..Error$GT$17h28e16e4fdf1d986dE"(ptr align 8 %1)
  br label %bb1
}

; core::ptr::drop_in_place<std::process::ChildStderr>
; Function Attrs: nonlazybind uwtable
define void @"_ZN4core3ptr46drop_in_place$LT$std..process..ChildStderr$GT$17hcced98a3a92f5324E"(ptr align 4 %_1) unnamed_addr #0 {
start:
; call core::ptr::drop_in_place<std::sys::pal::unix::pipe::AnonPipe>
  call void @"_ZN4core3ptr56drop_in_place$LT$std..sys..pal..unix..pipe..AnonPipe$GT$17heb8437df942100f6E"(ptr align 4 %_1)
  ret void
}

; core::ptr::drop_in_place<std::process::ChildStdout>
; Function Attrs: nonlazybind uwtable
define void @"_ZN4core3ptr46drop_in_place$LT$std..process..ChildStdout$GT$17h3bd6580910c20ca9E"(ptr align 4 %_1) unnamed_addr #0 {
start:
; call core::ptr::drop_in_place<std::sys::pal::unix::pipe::AnonPipe>
  call void @"_ZN4core3ptr56drop_in_place$LT$std..sys..pal..unix..pipe..AnonPipe$GT$17heb8437df942100f6E"(ptr align 4 %_1)
  ret void
}

; core::ptr::drop_in_place<alloc::ffi::c_str::CString>
; Function Attrs: nonlazybind uwtable
define void @"_ZN4core3ptr47drop_in_place$LT$alloc..ffi..c_str..CString$GT$17h9b770319c3ea5917E"(ptr align 8 %_1) unnamed_addr #0 personality ptr @rust_eh_personality {
start:
  %0 = alloca [16 x i8], align 8
; invoke <alloc::ffi::c_str::CString as core::ops::drop::Drop>::drop
  invoke void @"_ZN68_$LT$alloc..ffi..c_str..CString$u20$as$u20$core..ops..drop..Drop$GT$4drop17h8680b3810e4274e1E"(ptr align 8 %_1)
          to label %bb4 unwind label %cleanup

bb3:                                              ; preds = %cleanup
; invoke core::ptr::drop_in_place<alloc::boxed::Box<[u8]>>
  invoke void @"_ZN4core3ptr58drop_in_place$LT$alloc..boxed..Box$LT$$u5b$u8$u5d$$GT$$GT$17h58c2e822274c8a3cE"(ptr align 8 %_1) #21
          to label %bb1 unwind label %terminate

cleanup:                                          ; preds = %start
  %1 = landingpad { ptr, i32 }
          cleanup
  %2 = extractvalue { ptr, i32 } %1, 0
  %3 = extractvalue { ptr, i32 } %1, 1
  store ptr %2, ptr %0, align 8
  %4 = getelementptr inbounds i8, ptr %0, i64 8
  store i32 %3, ptr %4, align 8
  br label %bb3

bb4:                                              ; preds = %start
; call core::ptr::drop_in_place<alloc::boxed::Box<[u8]>>
  call void @"_ZN4core3ptr58drop_in_place$LT$alloc..boxed..Box$LT$$u5b$u8$u5d$$GT$$GT$17h58c2e822274c8a3cE"(ptr align 8 %_1)
  ret void

terminate:                                        ; preds = %bb3
  %5 = landingpad { ptr, i32 }
          filter [0 x ptr] zeroinitializer
  %6 = extractvalue { ptr, i32 } %5, 0
  %7 = extractvalue { ptr, i32 } %5, 1
; call core::panicking::panic_in_cleanup
  call void @_ZN4core9panicking16panic_in_cleanup17h43442956f23e9cbeE() #22
  unreachable

bb1:                                              ; preds = %bb3
  %8 = load ptr, ptr %0, align 8
  %9 = getelementptr inbounds i8, ptr %0, i64 8
  %10 = load i32, ptr %9, align 8
  %11 = insertvalue { ptr, i32 } poison, ptr %8, 0
  %12 = insertvalue { ptr, i32 } %11, i32 %10, 1
  resume { ptr, i32 } %12
}

; core::ptr::drop_in_place<std::ffi::os_str::OsString>
; Function Attrs: nonlazybind uwtable
define void @"_ZN4core3ptr47drop_in_place$LT$std..ffi..os_str..OsString$GT$17h7e4fc012fa584ef1E"(ptr align 8 %_1) unnamed_addr #0 {
start:
; call core::ptr::drop_in_place<std::sys::os_str::bytes::Buf>
  call void @"_ZN4core3ptr49drop_in_place$LT$std..sys..os_str..bytes..Buf$GT$17h30096dec37661e7bE"(ptr align 8 %_1)
  ret void
}

; core::ptr::drop_in_place<core::str::error::Utf8Error>
; Function Attrs: inlinehint nonlazybind uwtable
define internal void @"_ZN4core3ptr48drop_in_place$LT$core..str..error..Utf8Error$GT$17haf61d2310ceecc00E"(ptr align 8 %_1) unnamed_addr #1 {
start:
  ret void
}

; core::ptr::drop_in_place<std::os::fd::owned::OwnedFd>
; Function Attrs: nonlazybind uwtable
define void @"_ZN4core3ptr48drop_in_place$LT$std..os..fd..owned..OwnedFd$GT$17h672aca6014b99a80E"(ptr align 4 %_1) unnamed_addr #0 {
start:
; call <std::os::fd::owned::OwnedFd as core::ops::drop::Drop>::drop
  call void @"_ZN69_$LT$std..os..fd..owned..OwnedFd$u20$as$u20$core..ops..drop..Drop$GT$4drop17h742bfbcf20ec6feeE"(ptr align 4 %_1)
  ret void
}

