; ModuleID = 'bitflags.babd9a036f169dde-cgu.0'
source_filename = "bitflags.babd9a036f169dde-cgu.0"
target datalayout = "e-m:e-p270:32:32-p271:32:32-p272:64:64-i64:64-i128:128-f80:128-n8:16:32:64-S128"
target triple = "x86_64-unknown-linux-gnu"

@vtable.0 = private constant <{ ptr, [16 x i8], ptr, ptr, ptr }> <{ ptr @"_ZN4core3ptr42drop_in_place$LT$alloc..string..String$GT$17h4c3f3e46a6f19881E", [16 x i8] c"\18\00\00\00\00\00\00\00\08\00\00\00\00\00\00\00", ptr @"_ZN58_$LT$alloc..string..String$u20$as$u20$core..fmt..Write$GT$9write_str17h070f8e7aede7d7eaE", ptr @"_ZN58_$LT$alloc..string..String$u20$as$u20$core..fmt..Write$GT$10write_char17h276c098ff87afb71E", ptr @_ZN4core3fmt5Write9write_fmt17h401db26326a28e21E }>, align 8, !dbg !0
@alloc_cc656815297f75969399c3f4b1ad3de4 = private unnamed_addr constant <{ [55 x i8] }> <{ [55 x i8] c"a Display implementation returned an error unexpectedly" }>, align 1
@alloc_56ddd9f8a83a5b1254ce7cdf41b13c3e = private unnamed_addr constant <{ [80 x i8] }> <{ [80 x i8] c"/home/arsalan/Documents/Github/unsafe-rust-benchmark/library/alloc/src/string.rs" }>, align 1
@alloc_f886f96e9a07c60a12107d674cf0d185 = private unnamed_addr constant <{ ptr, [16 x i8] }> <{ ptr @alloc_56ddd9f8a83a5b1254ce7cdf41b13c3e, [16 x i8] c"P\00\00\00\00\00\00\00\03\0A\00\00\0E\00\00\00" }>, align 8
@vtable.1 = private constant <{ [24 x i8], ptr }> <{ [24 x i8] c"\00\00\00\00\00\00\00\00\00\00\00\00\00\00\00\00\01\00\00\00\00\00\00\00", ptr @"_ZN53_$LT$core..fmt..Error$u20$as$u20$core..fmt..Debug$GT$3fmt17h4aab9fe19ffc1801E" }>, align 8, !dbg !55
@alloc_99ac8a81a24cac863217ce4a5cbfabea = private unnamed_addr constant <{ [5 x i8] }> <{ [5 x i8] c"Error" }>, align 1
@__rust_no_alloc_shim_is_unstable = external global i8
@alloc_9b634b61904a18c81fae77779bad0385 = private unnamed_addr constant <{ [22 x i8] }> <{ [22 x i8] c"encountered empty flag" }>, align 1
@alloc_7dbc868a2d8a49e7d8d5d63149e10ddc = private unnamed_addr constant <{ [23 x i8] }> <{ [23 x i8] c"unrecognized named flag" }>, align 1
@alloc_d37ff8fb7a9d2a66d832476f263605f5 = private unnamed_addr constant <{ [2 x i8] }> <{ [2 x i8] c" `" }>, align 1
@alloc_7622ca0e93da89aea742c62846d74c88 = private unnamed_addr constant <{ [1 x i8] }> <{ [1 x i8] c"`" }>, align 1
@alloc_04d3e8757cff7cd37ad55571aa4e0d51 = private unnamed_addr constant <{ ptr, [8 x i8], ptr, [8 x i8] }> <{ ptr @alloc_d37ff8fb7a9d2a66d832476f263605f5, [8 x i8] c"\02\00\00\00\00\00\00\00", ptr @alloc_7622ca0e93da89aea742c62846d74c88, [8 x i8] c"\01\00\00\00\00\00\00\00" }>, align 8
@alloc_4a33c36f3fbaa44a31d3077f4b37cab6 = private unnamed_addr constant <{ [16 x i8] }> <{ [16 x i8] c"invalid hex flag" }>, align 1

; <&T as core::fmt::Display>::fmt
; Function Attrs: nonlazybind uwtable
define internal noundef zeroext i1 @"_ZN44_$LT$$RF$T$u20$as$u20$core..fmt..Display$GT$3fmt17haa720126bb5a1c58E"(ptr noalias nocapture noundef readonly align 8 dereferenceable(8) %self, ptr noalias noundef align 8 dereferenceable(64) %f) unnamed_addr #0 !dbg !171 {
start:
  tail call void @llvm.dbg.value(metadata ptr %self, metadata !231, metadata !DIExpression()), !dbg !235
  tail call void @llvm.dbg.value(metadata ptr %f, metadata !232, metadata !DIExpression()), !dbg !235
  %_3 = load ptr, ptr %self, align 8, !dbg !236, !nonnull !44, !align !237, !noundef !44
  %0 = getelementptr i8, ptr %_3, i64 8, !dbg !238
  %_3.val = load ptr, ptr %0, align 8, !dbg !238, !nonnull !44, !noundef !44
  %1 = getelementptr i8, ptr %_3, i64 16, !dbg !238
  %_3.val1 = load i64, ptr %1, align 8, !dbg !238, !noundef !44
  call void @llvm.dbg.value(metadata ptr undef, metadata !239, metadata !DIExpression()), !dbg !247
  call void @llvm.dbg.value(metadata ptr %f, metadata !246, metadata !DIExpression()), !dbg !247
; call <str as core::fmt::Display>::fmt
  %_0.i = tail call noundef zeroext i1 @"_ZN42_$LT$str$u20$as$u20$core..fmt..Display$GT$3fmt17h49e1caa39cb6eebbE"(ptr noalias noundef nonnull readonly align 1 %_3.val, i64 noundef %_3.val1, ptr noalias noundef nonnull align 8 dereferenceable(64) %f), !dbg !249
  ret i1 %_0.i, !dbg !250
}

; core::fmt::Write::write_fmt
; Function Attrs: nonlazybind uwtable
define internal noundef zeroext i1 @_ZN4core3fmt5Write9write_fmt17h401db26326a28e21E(ptr noalias noundef align 8 dereferenceable(24) %self, ptr noalias nocapture noundef readonly align 8 dereferenceable(48) %args) unnamed_addr #0 !dbg !251 {
start:
  tail call void @llvm.dbg.value(metadata ptr %self, metadata !341, metadata !DIExpression()), !dbg !345
  call void @llvm.dbg.declare(metadata ptr %args, metadata !342, metadata !DIExpression()), !dbg !346
  call void @llvm.dbg.value(metadata ptr %self, metadata !347, metadata !DIExpression()), !dbg !357
  call void @llvm.dbg.declare(metadata ptr %args, metadata !352, metadata !DIExpression()), !dbg !359
  call void @llvm.dbg.value(metadata ptr %args, metadata !360, metadata !DIExpression()), !dbg !382
  call void @llvm.dbg.value(metadata ptr %args, metadata !384, metadata !DIExpression()), !dbg !392
  call void @llvm.dbg.value(metadata ptr poison, metadata !380, metadata !DIExpression(DW_OP_LLVM_fragment, 0, 64)), !dbg !394
  call void @llvm.dbg.value(metadata i64 poison, metadata !380, metadata !DIExpression(DW_OP_LLVM_fragment, 64, 64)), !dbg !394
  call void @llvm.dbg.value(metadata ptr undef, metadata !395, metadata !DIExpression()), !dbg !405
; call core::fmt::write
  %0 = tail call noundef zeroext i1 @_ZN4core3fmt5write17h2b71bd12250911d0E(ptr noundef nonnull align 1 %self, ptr noalias noundef nonnull readonly align 8 dereferenceable(48) @vtable.0, ptr noalias nocapture noundef nonnull readonly align 8 dereferenceable(48) %args), !dbg !407
  ret i1 %0, !dbg !408
}

; core::ptr::drop_in_place<alloc::string::String>
; Function Attrs: nounwind nonlazybind uwtable
define internal void @"_ZN4core3ptr42drop_in_place$LT$alloc..string..String$GT$17h4c3f3e46a6f19881E"(ptr noalias nocapture noundef readonly align 8 dereferenceable(24) %_1) unnamed_addr #1 personality ptr @rust_eh_personality !dbg !409 {
start:
  tail call void @llvm.dbg.value(metadata ptr %_1, metadata !415, metadata !DIExpression()), !dbg !416
  %_1.val = load i64, ptr %_1, align 8, !dbg !417
  call void @llvm.dbg.value(metadata ptr undef, metadata !418, metadata !DIExpression()), !dbg !426
  call void @llvm.dbg.value(metadata ptr undef, metadata !428, metadata !DIExpression()), !dbg !436
  call void @llvm.dbg.value(metadata ptr undef, metadata !438, metadata !DIExpression()), !dbg !458
  call void @llvm.dbg.value(metadata ptr undef, metadata !460, metadata !DIExpression()), !dbg !490
  %0 = icmp eq i64 %_1.val, 0, !dbg !492
  br i1 %0, label %"_ZN4core3ptr46drop_in_place$LT$alloc..vec..Vec$LT$u8$GT$$GT$17hb6a3c1926fa7a306E.exit", label %"_ZN63_$LT$alloc..alloc..Global$u20$as$u20$core..alloc..Allocator$GT$10deallocate17h0f2d39528d187dc6E.exit.i.i4.i", !dbg !492

"_ZN63_$LT$alloc..alloc..Global$u20$as$u20$core..alloc..Allocator$GT$10deallocate17h0f2d39528d187dc6E.exit.i.i4.i": ; preds = %start
  %1 = getelementptr inbounds i8, ptr %_1, i64 8, !dbg !417
  %_1.val1 = load ptr, ptr %1, align 8, !dbg !417, !nonnull !44, !noundef !44
  call void @llvm.dbg.value(metadata ptr %_1.val1, metadata !446, metadata !DIExpression()), !dbg !493
  call void @llvm.dbg.value(metadata i64 1, metadata !448, metadata !DIExpression(DW_OP_LLVM_fragment, 0, 64)), !dbg !493
  call void @llvm.dbg.value(metadata i64 %_1.val, metadata !448, metadata !DIExpression(DW_OP_LLVM_fragment, 64, 64)), !dbg !493
  call void @llvm.dbg.value(metadata i64 1, metadata !494, metadata !DIExpression(DW_OP_LLVM_fragment, 0, 64)), !dbg !504
  call void @llvm.dbg.value(metadata i64 %_1.val, metadata !494, metadata !DIExpression(DW_OP_LLVM_fragment, 64, 64)), !dbg !504
  call void @llvm.dbg.value(metadata ptr undef, metadata !502, metadata !DIExpression()), !dbg !504
  call void @llvm.dbg.value(metadata ptr %_1.val1, metadata !503, metadata !DIExpression()), !dbg !504
  call void @llvm.dbg.value(metadata ptr %_1.val1, metadata !506, metadata !DIExpression()), !dbg !514
  call void @llvm.dbg.value(metadata i64 1, metadata !513, metadata !DIExpression(DW_OP_LLVM_fragment, 0, 64)), !dbg !514
  call void @llvm.dbg.value(metadata i64 %_1.val, metadata !513, metadata !DIExpression(DW_OP_LLVM_fragment, 64, 64)), !dbg !514
  tail call void @__rust_dealloc(ptr noundef nonnull %_1.val1, i64 noundef %_1.val, i64 noundef 1) #17, !dbg !516
  br label %"_ZN4core3ptr46drop_in_place$LT$alloc..vec..Vec$LT$u8$GT$$GT$17hb6a3c1926fa7a306E.exit", !dbg !517

"_ZN4core3ptr46drop_in_place$LT$alloc..vec..Vec$LT$u8$GT$$GT$17hb6a3c1926fa7a306E.exit": ; preds = %start, %"_ZN63_$LT$alloc..alloc..Global$u20$as$u20$core..alloc..Allocator$GT$10deallocate17h0f2d39528d187dc6E.exit.i.i4.i"
  ret void, !dbg !417
}

; <core::fmt::Error as core::fmt::Debug>::fmt
; Function Attrs: inlinehint nonlazybind uwtable
define internal noundef zeroext i1 @"_ZN53_$LT$core..fmt..Error$u20$as$u20$core..fmt..Debug$GT$3fmt17h4aab9fe19ffc1801E"(ptr noalias nocapture nonnull readonly align 1 %self, ptr noalias noundef align 8 dereferenceable(64) %f) unnamed_addr #2 !dbg !518 {
start:
  tail call void @llvm.dbg.value(metadata ptr poison, metadata !524, metadata !DIExpression()), !dbg !526
  tail call void @llvm.dbg.value(metadata ptr %f, metadata !525, metadata !DIExpression()), !dbg !526
; call core::fmt::Formatter::write_str
  %_0 = tail call noundef zeroext i1 @_ZN4core3fmt9Formatter9write_str17h35be9e09c65db375E(ptr noalias noundef nonnull align 8 dereferenceable(64) %f, ptr noalias noundef nonnull readonly align 1 @alloc_99ac8a81a24cac863217ce4a5cbfabea, i64 noundef 5), !dbg !527
  ret i1 %_0, !dbg !528
}

; <alloc::string::String as core::fmt::Write>::write_char
; Function Attrs: inlinehint nonlazybind uwtable
define internal noundef zeroext i1 @"_ZN58_$LT$alloc..string..String$u20$as$u20$core..fmt..Write$GT$10write_char17h276c098ff87afb71E"(ptr noalias nocapture noundef align 8 dereferenceable(24) %self, i32 noundef %c) unnamed_addr #2 personality ptr @rust_eh_personality !dbg !529 {
start:
  %_10.sroa.0.i = alloca i32, align 4
  tail call void @llvm.dbg.value(metadata ptr %self, metadata !534, metadata !DIExpression()), !dbg !536
  tail call void @llvm.dbg.value(metadata i32 %c, metadata !535, metadata !DIExpression()), !dbg !536
  tail call void @llvm.experimental.noalias.scope.decl(metadata !537), !dbg !540
  call void @llvm.dbg.value(metadata ptr %self, metadata !541, metadata !DIExpression()), !dbg !548
  call void @llvm.dbg.value(metadata i32 %c, metadata !547, metadata !DIExpression()), !dbg !548
  call void @llvm.dbg.value(metadata i32 %c, metadata !550, metadata !DIExpression()), !dbg !560
  call void @llvm.dbg.value(metadata i32 %c, metadata !562, metadata !DIExpression()), !dbg !577
  call void @llvm.dbg.value(metadata i32 %c, metadata !579, metadata !DIExpression()), !dbg !585
  %_12.i = icmp ult i32 %c, 128, !dbg !587
  br i1 %_12.i, label %bb4.i, label %bb12.i.i, !dbg !587

bb12.i.i:                                         ; preds = %start
  call void @llvm.lifetime.start.p0(i64 4, ptr nonnull %_10.sroa.0.i), !dbg !588
  store i32 0, ptr %_10.sroa.0.i, align 4, !dbg !588, !noalias !537
  call void @llvm.dbg.value(metadata ptr undef, metadata !576, metadata !DIExpression(DW_OP_LLVM_fragment, 0, 64)), !dbg !577
  call void @llvm.dbg.value(metadata i64 4, metadata !576, metadata !DIExpression(DW_OP_LLVM_fragment, 64, 64)), !dbg !577
  call void @llvm.dbg.value(metadata i32 %c, metadata !589, metadata !DIExpression()), !dbg !593
  call void @llvm.dbg.value(metadata i32 %c, metadata !599, metadata !DIExpression()), !dbg !619
  call void @llvm.dbg.value(metadata ptr undef, metadata !600, metadata !DIExpression(DW_OP_LLVM_fragment, 0, 64)), !dbg !619
  call void @llvm.dbg.value(metadata i64 4, metadata !600, metadata !DIExpression(DW_OP_LLVM_fragment, 64, 64)), !dbg !619
  %_60.i.i = icmp ult i32 %c, 2048, !dbg !620
  br i1 %_60.i.i, label %bb7.i.i, label %bb14.i.i, !dbg !620

bb14.i.i:                                         ; preds = %bb12.i.i
  %_61.i.i = icmp ult i32 %c, 65536, !dbg !621
  br i1 %_61.i.i, label %bb8.i.i, label %bb9.i.i, !dbg !621

bb7.i.i:                                          ; preds = %bb12.i.i
  call void @llvm.dbg.value(metadata i64 2, metadata !601, metadata !DIExpression()), !dbg !622
  call void @llvm.dbg.value(metadata ptr undef, metadata !606, metadata !DIExpression()), !dbg !623
  call void @llvm.dbg.value(metadata ptr undef, metadata !608, metadata !DIExpression(DW_OP_plus_uconst, 1, DW_OP_stack_value)), !dbg !623
  %_18.i.i = lshr i32 %c, 6, !dbg !624
  %0 = trunc i32 %_18.i.i to i8, !dbg !625
  %1 = or disjoint i8 %0, -64, !dbg !626
  store i8 %1, ptr %_10.sroa.0.i, align 4, !dbg !626, !alias.scope !627, !noalias !537
  %2 = trunc i32 %c to i8, !dbg !630
  %_19.i.i = and i8 %2, 63, !dbg !630
  %3 = or disjoint i8 %_19.i.i, -128, !dbg !631
  %_10.sroa.0.i.1.sroa_idx11 = getelementptr inbounds i8, ptr %_10.sroa.0.i, i64 1, !dbg !631
  store i8 %3, ptr %_10.sroa.0.i.1.sroa_idx11, align 1, !dbg !631, !alias.scope !627, !noalias !537
  br label %_ZN4core4char7methods15encode_utf8_raw17h5f137a0ef0f8a40dE.exit.i, !dbg !632

bb8.i.i:                                          ; preds = %bb14.i.i
  call void @llvm.dbg.value(metadata i64 3, metadata !601, metadata !DIExpression()), !dbg !622
  call void @llvm.dbg.value(metadata ptr undef, metadata !609, metadata !DIExpression()), !dbg !633
  call void @llvm.dbg.value(metadata ptr undef, metadata !611, metadata !DIExpression(DW_OP_plus_uconst, 1, DW_OP_stack_value)), !dbg !633
  call void @llvm.dbg.value(metadata ptr undef, metadata !612, metadata !DIExpression(DW_OP_plus_uconst, 2, DW_OP_stack_value)), !dbg !633
  %_26.i.i = lshr i32 %c, 12, !dbg !634
  %4 = trunc i32 %_26.i.i to i8, !dbg !635
  %5 = or disjoint i8 %4, -32, !dbg !636
  store i8 %5, ptr %_10.sroa.0.i, align 4, !dbg !636, !alias.scope !627, !noalias !537
  %_29.i.i = lshr i32 %c, 6, !dbg !637
  %6 = trunc i32 %_29.i.i to i8, !dbg !638
  %_27.i.i = and i8 %6, 63, !dbg !638
  %7 = or disjoint i8 %_27.i.i, -128, !dbg !639
  %_10.sroa.0.i.1.sroa_idx10 = getelementptr inbounds i8, ptr %_10.sroa.0.i, i64 1, !dbg !639
  store i8 %7, ptr %_10.sroa.0.i.1.sroa_idx10, align 1, !dbg !639, !alias.scope !627, !noalias !537
  %8 = trunc i32 %c to i8, !dbg !640
  %_30.i.i = and i8 %8, 63, !dbg !640
  %9 = or disjoint i8 %_30.i.i, -128, !dbg !641
  %_10.sroa.0.i.2.sroa_idx12 = getelementptr inbounds i8, ptr %_10.sroa.0.i, i64 2, !dbg !641
  store i8 %9, ptr %_10.sroa.0.i.2.sroa_idx12, align 2, !dbg !641, !alias.scope !627, !noalias !537
  br label %_ZN4core4char7methods15encode_utf8_raw17h5f137a0ef0f8a40dE.exit.i, !dbg !642

bb9.i.i:                                          ; preds = %bb14.i.i
  call void @llvm.dbg.value(metadata i64 4, metadata !601, metadata !DIExpression()), !dbg !622
  call void @llvm.dbg.value(metadata ptr undef, metadata !613, metadata !DIExpression()), !dbg !643
  call void @llvm.dbg.value(metadata ptr undef, metadata !615, metadata !DIExpression(DW_OP_plus_uconst, 1, DW_OP_stack_value)), !dbg !643
  call void @llvm.dbg.value(metadata ptr undef, metadata !616, metadata !DIExpression(DW_OP_plus_uconst, 2, DW_OP_stack_value)), !dbg !643
  call void @llvm.dbg.value(metadata ptr undef, metadata !617, metadata !DIExpression(DW_OP_plus_uconst, 3, DW_OP_stack_value)), !dbg !643
  %_38.i.i = lshr i32 %c, 18, !dbg !644
  %10 = trunc i32 %_38.i.i to i8, !dbg !645
  %_36.i.i = and i8 %10, 7, !dbg !645
  %11 = or disjoint i8 %_36.i.i, -16, !dbg !646
  store i8 %11, ptr %_10.sroa.0.i, align 4, !dbg !646, !alias.scope !627, !noalias !537
  %_41.i.i = lshr i32 %c, 12, !dbg !647
  %12 = trunc i32 %_41.i.i to i8, !dbg !648
  %_39.i.i = and i8 %12, 63, !dbg !648
  %13 = or disjoint i8 %_39.i.i, -128, !dbg !649
  %_10.sroa.0.i.1.sroa_idx = getelementptr inbounds i8, ptr %_10.sroa.0.i, i64 1, !dbg !649
  store i8 %13, ptr %_10.sroa.0.i.1.sroa_idx, align 1, !dbg !649, !alias.scope !627, !noalias !537
  %_44.i.i = lshr i32 %c, 6, !dbg !650
  %14 = trunc i32 %_44.i.i to i8, !dbg !651
  %_42.i.i = and i8 %14, 63, !dbg !651
  %15 = or disjoint i8 %_42.i.i, -128, !dbg !652
  %_10.sroa.0.i.2.sroa_idx = getelementptr inbounds i8, ptr %_10.sroa.0.i, i64 2, !dbg !652
  store i8 %15, ptr %_10.sroa.0.i.2.sroa_idx, align 2, !dbg !652, !alias.scope !627, !noalias !537
  %16 = trunc i32 %c to i8, !dbg !653
  %_45.i.i = and i8 %16, 63, !dbg !653
  %17 = or disjoint i8 %_45.i.i, -128, !dbg !654
  %_10.sroa.0.i.3.sroa_idx = getelementptr inbounds i8, ptr %_10.sroa.0.i, i64 3, !dbg !654
  store i8 %17, ptr %_10.sroa.0.i.3.sroa_idx, align 1, !dbg !654, !alias.scope !627, !noalias !537
  br label %_ZN4core4char7methods15encode_utf8_raw17h5f137a0ef0f8a40dE.exit.i, !dbg !655

_ZN4core4char7methods15encode_utf8_raw17h5f137a0ef0f8a40dE.exit.i: ; preds = %bb9.i.i, %bb8.i.i, %bb7.i.i
  %_419.i.i = phi i64 [ 4, %bb9.i.i ], [ 3, %bb8.i.i ], [ 2, %bb7.i.i ]
  tail call void @llvm.experimental.noalias.scope.decl(metadata !656), !dbg !659
  call void @llvm.dbg.value(metadata ptr %self, metadata !660, metadata !DIExpression()), !dbg !673
  call void @llvm.dbg.value(metadata ptr undef, metadata !672, metadata !DIExpression(DW_OP_LLVM_fragment, 0, 64)), !dbg !673
  call void @llvm.dbg.value(metadata i64 %_419.i.i, metadata !672, metadata !DIExpression(DW_OP_LLVM_fragment, 64, 64)), !dbg !673
  tail call void @llvm.experimental.noalias.scope.decl(metadata !675), !dbg !678
  call void @llvm.dbg.value(metadata ptr undef, metadata !679, metadata !DIExpression(DW_OP_LLVM_fragment, 0, 64)), !dbg !701
  call void @llvm.dbg.value(metadata !DIArgList(ptr undef, i64 %_419.i.i), metadata !679, metadata !DIExpression(DW_OP_LLVM_arg, 0, DW_OP_LLVM_arg, 1, DW_OP_constu, 1, DW_OP_mul, DW_OP_plus, DW_OP_stack_value, DW_OP_LLVM_fragment, 64, 64)), !dbg !701
  call void @llvm.dbg.value(metadata ptr %self, metadata !698, metadata !DIExpression()), !dbg !701
  call void @llvm.dbg.value(metadata ptr undef, metadata !699, metadata !DIExpression(DW_OP_LLVM_fragment, 0, 64)), !dbg !703
  call void @llvm.dbg.value(metadata i64 %_419.i.i, metadata !699, metadata !DIExpression(DW_OP_LLVM_fragment, 64, 64)), !dbg !703
  tail call void @llvm.experimental.noalias.scope.decl(metadata !704), !dbg !707
  call void @llvm.dbg.value(metadata ptr %self, metadata !708, metadata !DIExpression()), !dbg !723
  call void @llvm.dbg.value(metadata ptr %self, metadata !725, metadata !DIExpression()), !dbg !733
  call void @llvm.dbg.value(metadata ptr %self, metadata !735, metadata !DIExpression()), !dbg !742
  call void @llvm.dbg.value(metadata ptr undef, metadata !718, metadata !DIExpression(DW_OP_LLVM_fragment, 0, 64)), !dbg !723
  call void @llvm.dbg.value(metadata i64 %_419.i.i, metadata !718, metadata !DIExpression(DW_OP_LLVM_fragment, 64, 64)), !dbg !723
  call void @llvm.dbg.value(metadata i64 %_419.i.i, metadata !719, metadata !DIExpression()), !dbg !744
  call void @llvm.dbg.value(metadata i64 %_419.i.i, metadata !745, metadata !DIExpression()), !dbg !755
  call void @llvm.dbg.value(metadata ptr %self, metadata !757, metadata !DIExpression()), !dbg !764
  call void @llvm.dbg.value(metadata i64 %_419.i.i, metadata !763, metadata !DIExpression()), !dbg !764
  call void @llvm.dbg.value(metadata i64 %_419.i.i, metadata !766, metadata !DIExpression()), !dbg !775
  call void @llvm.dbg.value(metadata i64 %_419.i.i, metadata !777, metadata !DIExpression()), !dbg !786
  call void @llvm.dbg.value(metadata ptr %self, metadata !773, metadata !DIExpression()), !dbg !775
  call void @llvm.dbg.value(metadata ptr %self, metadata !784, metadata !DIExpression()), !dbg !786
  call void @llvm.dbg.value(metadata ptr %self, metadata !788, metadata !DIExpression()), !dbg !795
  %18 = getelementptr inbounds i8, ptr %self, i64 16, !dbg !797
  %len.i.i.i.i.i = load i64, ptr %18, align 8, !dbg !797, !alias.scope !798, !noalias !799, !noundef !44
  call void @llvm.dbg.value(metadata i64 %len.i.i.i.i.i, metadata !774, metadata !DIExpression()), !dbg !775
  call void @llvm.dbg.value(metadata i64 %len.i.i.i.i.i, metadata !785, metadata !DIExpression()), !dbg !786
  call void @llvm.dbg.value(metadata i64 %len.i.i.i.i.i, metadata !801, metadata !DIExpression()), !dbg !810
  %19 = load i64, ptr %self, align 8, !dbg !812, !alias.scope !813, !noalias !799, !noundef !44
  call void @llvm.dbg.value(metadata i64 %19, metadata !809, metadata !DIExpression()), !dbg !810
  %_7.i.i.i.i.i = sub i64 %19, %len.i.i.i.i.i, !dbg !816
  %_5.i.i.i.i.i = icmp ult i64 %_7.i.i.i.i.i, %_419.i.i, !dbg !817
  br i1 %_5.i.i.i.i.i, label %bb1.i.i.i.i.i, label %"_ZN5alloc3vec16Vec$LT$T$C$A$GT$17extend_from_slice17hcf3d98ad167cc8cfE.exit.i", !dbg !818

bb1.i.i.i.i.i:                                    ; preds = %_ZN4core4char7methods15encode_utf8_raw17h5f137a0ef0f8a40dE.exit.i
; call alloc::raw_vec::RawVec<T,A>::reserve::do_reserve_and_handle
  tail call fastcc void @"_ZN5alloc7raw_vec19RawVec$LT$T$C$A$GT$7reserve21do_reserve_and_handle17hc4bf9d6c521b3d95E"(ptr noalias noundef nonnull align 8 dereferenceable(16) %self, i64 noundef %len.i.i.i.i.i, i64 noundef %_419.i.i), !dbg !819, !noalias !799
  %len.pre.i.i.i.i = load i64, ptr %18, align 8, !dbg !820, !alias.scope !798, !noalias !799
  br label %"_ZN5alloc3vec16Vec$LT$T$C$A$GT$17extend_from_slice17hcf3d98ad167cc8cfE.exit.i", !dbg !819

"_ZN5alloc3vec16Vec$LT$T$C$A$GT$17extend_from_slice17hcf3d98ad167cc8cfE.exit.i": ; preds = %bb1.i.i.i.i.i, %_ZN4core4char7methods15encode_utf8_raw17h5f137a0ef0f8a40dE.exit.i
  %len.i.i.i.i = phi i64 [ %len.i.i.i.i.i, %_ZN4core4char7methods15encode_utf8_raw17h5f137a0ef0f8a40dE.exit.i ], [ %len.pre.i.i.i.i, %bb1.i.i.i.i.i ], !dbg !820
  call void @llvm.dbg.value(metadata i64 %len.i.i.i.i, metadata !721, metadata !DIExpression()), !dbg !821
  call void @llvm.dbg.value(metadata i64 %len.i.i.i.i, metadata !822, metadata !DIExpression()), !dbg !832
  call void @llvm.dbg.value(metadata ptr undef, metadata !753, metadata !DIExpression()), !dbg !755
  call void @llvm.dbg.value(metadata ptr %self, metadata !834, metadata !DIExpression()), !dbg !841
  %20 = getelementptr inbounds i8, ptr %self, i64 8, !dbg !843
  %self2.i.i.i.i = load ptr, ptr %20, align 8, !dbg !843, !alias.scope !798, !noalias !799, !nonnull !44, !noundef !44
  call void @llvm.dbg.value(metadata ptr %self2.i.i.i.i, metadata !831, metadata !DIExpression()), !dbg !832
  %dst.i.i.i.i = getelementptr inbounds i8, ptr %self2.i.i.i.i, i64 %len.i.i.i.i, !dbg !844
  call void @llvm.dbg.value(metadata ptr %dst.i.i.i.i, metadata !754, metadata !DIExpression()), !dbg !755
  call void @llvm.memcpy.p0.p0.i64(ptr noundef nonnull align 1 dereferenceable(1) %dst.i.i.i.i, ptr noundef nonnull align 4 dereferenceable(1) %_10.sroa.0.i, i64 %_419.i.i, i1 false), !dbg !845, !noalias !798
  %21 = add i64 %len.i.i.i.i, %_419.i.i, !dbg !846
  store i64 %21, ptr %18, align 8, !dbg !846, !alias.scope !798, !noalias !799
  call void @llvm.lifetime.end.p0(i64 4, ptr nonnull %_10.sroa.0.i), !dbg !847
  br label %_ZN5alloc6string6String4push17hd32510e966eb3adaE.exit, !dbg !847

bb4.i:                                            ; preds = %start
  %_4.i = trunc i32 %c to i8, !dbg !848
  tail call void @llvm.experimental.noalias.scope.decl(metadata !849), !dbg !852
  call void @llvm.dbg.value(metadata ptr %self, metadata !853, metadata !DIExpression()), !dbg !864
  call void @llvm.dbg.value(metadata ptr %self, metadata !866, metadata !DIExpression()), !dbg !870
  call void @llvm.dbg.value(metadata i8 %_4.i, metadata !859, metadata !DIExpression()), !dbg !864
  %22 = getelementptr inbounds i8, ptr %self, i64 16, !dbg !872
  %len.i.i = load i64, ptr %22, align 8, !dbg !872, !alias.scope !873, !noundef !44
  call void @llvm.dbg.value(metadata i64 %len.i.i, metadata !860, metadata !DIExpression()), !dbg !874
  call void @llvm.dbg.value(metadata i64 %len.i.i, metadata !875, metadata !DIExpression()), !dbg !880
  call void @llvm.dbg.value(metadata ptr %self, metadata !882, metadata !DIExpression()), !dbg !886
  %23 = load i64, ptr %self, align 8, !dbg !888, !alias.scope !873, !noundef !44
  %_4.i.i = icmp eq i64 %len.i.i, %23, !dbg !889
  br i1 %_4.i.i, label %bb1.i.i, label %"_ZN5alloc3vec16Vec$LT$T$C$A$GT$4push17h4df0f66ef5e822f2E.exit.i", !dbg !889

bb1.i.i:                                          ; preds = %bb4.i
; call alloc::raw_vec::RawVec<T,A>::grow_one
  tail call fastcc void @"_ZN5alloc7raw_vec19RawVec$LT$T$C$A$GT$8grow_one17h028c29f46546bde6E"(ptr noalias noundef nonnull align 8 dereferenceable(16) %self), !dbg !890
  br label %"_ZN5alloc3vec16Vec$LT$T$C$A$GT$4push17h4df0f66ef5e822f2E.exit.i"

"_ZN5alloc3vec16Vec$LT$T$C$A$GT$4push17h4df0f66ef5e822f2E.exit.i": ; preds = %bb1.i.i, %bb4.i
  call void @llvm.dbg.value(metadata ptr %self, metadata !891, metadata !DIExpression()), !dbg !895
  %24 = getelementptr inbounds i8, ptr %self, i64 8, !dbg !897
  %self3.i.i = load ptr, ptr %24, align 8, !dbg !897, !alias.scope !873, !nonnull !44, !noundef !44
  call void @llvm.dbg.value(metadata ptr %self3.i.i, metadata !879, metadata !DIExpression()), !dbg !880
  %end.i.i = getelementptr inbounds i8, ptr %self3.i.i, i64 %len.i.i, !dbg !898
  call void @llvm.dbg.value(metadata ptr %end.i.i, metadata !862, metadata !DIExpression()), !dbg !899
  call void @llvm.dbg.value(metadata ptr %end.i.i, metadata !900, metadata !DIExpression()), !dbg !907
  call void @llvm.dbg.value(metadata i8 %_4.i, metadata !906, metadata !DIExpression()), !dbg !907
  store i8 %_4.i, ptr %end.i.i, align 1, !dbg !909, !noalias !873
  %25 = add i64 %len.i.i, 1, !dbg !910
  store i64 %25, ptr %22, align 8, !dbg !910, !alias.scope !873
  br label %_ZN5alloc6string6String4push17hd32510e966eb3adaE.exit, !dbg !911

_ZN5alloc6string6String4push17hd32510e966eb3adaE.exit: ; preds = %"_ZN5alloc3vec16Vec$LT$T$C$A$GT$17extend_from_slice17hcf3d98ad167cc8cfE.exit.i", %"_ZN5alloc3vec16Vec$LT$T$C$A$GT$4push17h4df0f66ef5e822f2E.exit.i"
  ret i1 false, !dbg !912
}

; <alloc::string::String as core::fmt::Write>::write_str
; Function Attrs: inlinehint nonlazybind uwtable
define internal noundef zeroext i1 @"_ZN58_$LT$alloc..string..String$u20$as$u20$core..fmt..Write$GT$9write_str17h070f8e7aede7d7eaE"(ptr noalias nocapture noundef align 8 dereferenceable(24) %self, ptr noalias nocapture noundef nonnull readonly align 1 %s.0, i64 noundef %s.1) unnamed_addr #2 !dbg !913 {
start:
  tail call void @llvm.dbg.value(metadata ptr %self, metadata !917, metadata !DIExpression()), !dbg !919
  tail call void @llvm.dbg.value(metadata ptr %self, metadata !920, metadata !DIExpression()), !dbg !928
  tail call void @llvm.dbg.value(metadata ptr %s.0, metadata !918, metadata !DIExpression(DW_OP_LLVM_fragment, 0, 64)), !dbg !919
  tail call void @llvm.dbg.value(metadata ptr %s.0, metadata !927, metadata !DIExpression(DW_OP_LLVM_fragment, 0, 64)), !dbg !928
  tail call void @llvm.dbg.value(metadata i64 %s.1, metadata !918, metadata !DIExpression(DW_OP_LLVM_fragment, 64, 64)), !dbg !919
  tail call void @llvm.dbg.value(metadata i64 %s.1, metadata !927, metadata !DIExpression(DW_OP_LLVM_fragment, 64, 64)), !dbg !928
  tail call void @llvm.experimental.noalias.scope.decl(metadata !930), !dbg !933
  call void @llvm.dbg.value(metadata ptr %self, metadata !660, metadata !DIExpression()), !dbg !934
  call void @llvm.dbg.value(metadata ptr %s.0, metadata !672, metadata !DIExpression(DW_OP_LLVM_fragment, 0, 64)), !dbg !934
  call void @llvm.dbg.value(metadata i64 %s.1, metadata !672, metadata !DIExpression(DW_OP_LLVM_fragment, 64, 64)), !dbg !934
  tail call void @llvm.experimental.noalias.scope.decl(metadata !936), !dbg !939
  call void @llvm.dbg.value(metadata ptr %s.0, metadata !679, metadata !DIExpression(DW_OP_LLVM_fragment, 0, 64)), !dbg !940
  call void @llvm.dbg.value(metadata !DIArgList(ptr %s.0, i64 %s.1), metadata !679, metadata !DIExpression(DW_OP_LLVM_arg, 0, DW_OP_LLVM_arg, 1, DW_OP_constu, 1, DW_OP_mul, DW_OP_plus, DW_OP_stack_value, DW_OP_LLVM_fragment, 64, 64)), !dbg !940
  call void @llvm.dbg.value(metadata ptr %self, metadata !698, metadata !DIExpression()), !dbg !940
  call void @llvm.dbg.value(metadata ptr %s.0, metadata !699, metadata !DIExpression(DW_OP_LLVM_fragment, 0, 64)), !dbg !942
  call void @llvm.dbg.value(metadata i64 %s.1, metadata !699, metadata !DIExpression(DW_OP_LLVM_fragment, 64, 64)), !dbg !942
  tail call void @llvm.experimental.noalias.scope.decl(metadata !943), !dbg !946
  call void @llvm.dbg.value(metadata ptr %self, metadata !708, metadata !DIExpression()), !dbg !947
  call void @llvm.dbg.value(metadata ptr %self, metadata !725, metadata !DIExpression()), !dbg !949
  call void @llvm.dbg.value(metadata ptr %self, metadata !735, metadata !DIExpression()), !dbg !951
  call void @llvm.dbg.value(metadata ptr %s.0, metadata !718, metadata !DIExpression(DW_OP_LLVM_fragment, 0, 64)), !dbg !947
  call void @llvm.dbg.value(metadata i64 %s.1, metadata !718, metadata !DIExpression(DW_OP_LLVM_fragment, 64, 64)), !dbg !947
  call void @llvm.dbg.value(metadata i64 %s.1, metadata !719, metadata !DIExpression()), !dbg !953
  call void @llvm.dbg.value(metadata i64 %s.1, metadata !745, metadata !DIExpression()), !dbg !954
  call void @llvm.dbg.value(metadata ptr %self, metadata !757, metadata !DIExpression()), !dbg !956
  call void @llvm.dbg.value(metadata i64 %s.1, metadata !763, metadata !DIExpression()), !dbg !956
  call void @llvm.dbg.value(metadata i64 %s.1, metadata !766, metadata !DIExpression()), !dbg !958
  call void @llvm.dbg.value(metadata i64 %s.1, metadata !777, metadata !DIExpression()), !dbg !960
  call void @llvm.dbg.value(metadata ptr %self, metadata !773, metadata !DIExpression()), !dbg !958
  call void @llvm.dbg.value(metadata ptr %self, metadata !784, metadata !DIExpression()), !dbg !960
  call void @llvm.dbg.value(metadata ptr %self, metadata !788, metadata !DIExpression()), !dbg !962
  %0 = getelementptr inbounds i8, ptr %self, i64 16, !dbg !964
  %len.i.i.i.i = load i64, ptr %0, align 8, !dbg !964, !alias.scope !965, !noalias !966, !noundef !44
  call void @llvm.dbg.value(metadata i64 %len.i.i.i.i, metadata !774, metadata !DIExpression()), !dbg !958
  call void @llvm.dbg.value(metadata i64 %len.i.i.i.i, metadata !785, metadata !DIExpression()), !dbg !960
  call void @llvm.dbg.value(metadata i64 %len.i.i.i.i, metadata !801, metadata !DIExpression()), !dbg !968
  %1 = load i64, ptr %self, align 8, !dbg !970, !alias.scope !971, !noalias !966, !noundef !44
  call void @llvm.dbg.value(metadata i64 %1, metadata !809, metadata !DIExpression()), !dbg !968
  %_7.i.i.i.i = sub i64 %1, %len.i.i.i.i, !dbg !974
  %_5.i.i.i.i = icmp ult i64 %_7.i.i.i.i, %s.1, !dbg !975
  br i1 %_5.i.i.i.i, label %bb1.i.i.i.i, label %"_ZN5alloc3vec16Vec$LT$T$C$A$GT$17extend_from_slice17hcf3d98ad167cc8cfE.exit", !dbg !976

bb1.i.i.i.i:                                      ; preds = %start
; call alloc::raw_vec::RawVec<T,A>::reserve::do_reserve_and_handle
  tail call fastcc void @"_ZN5alloc7raw_vec19RawVec$LT$T$C$A$GT$7reserve21do_reserve_and_handle17hc4bf9d6c521b3d95E"(ptr noalias noundef nonnull align 8 dereferenceable(16) %self, i64 noundef %len.i.i.i.i, i64 noundef %s.1), !dbg !977, !noalias !966
  %len.pre.i.i.i = load i64, ptr %0, align 8, !dbg !978, !alias.scope !965, !noalias !966
  br label %"_ZN5alloc3vec16Vec$LT$T$C$A$GT$17extend_from_slice17hcf3d98ad167cc8cfE.exit", !dbg !977

"_ZN5alloc3vec16Vec$LT$T$C$A$GT$17extend_from_slice17hcf3d98ad167cc8cfE.exit": ; preds = %start, %bb1.i.i.i.i
  %len.i.i.i = phi i64 [ %len.i.i.i.i, %start ], [ %len.pre.i.i.i, %bb1.i.i.i.i ], !dbg !978
  call void @llvm.dbg.value(metadata i64 %len.i.i.i, metadata !721, metadata !DIExpression()), !dbg !979
  call void @llvm.dbg.value(metadata i64 %len.i.i.i, metadata !822, metadata !DIExpression()), !dbg !980
  call void @llvm.dbg.value(metadata ptr %s.0, metadata !753, metadata !DIExpression()), !dbg !954
  call void @llvm.dbg.value(metadata ptr %self, metadata !834, metadata !DIExpression()), !dbg !982
  %2 = getelementptr inbounds i8, ptr %self, i64 8, !dbg !984
  %self2.i.i.i = load ptr, ptr %2, align 8, !dbg !984, !alias.scope !965, !noalias !966, !nonnull !44, !noundef !44
  call void @llvm.dbg.value(metadata ptr %self2.i.i.i, metadata !831, metadata !DIExpression()), !dbg !980
  %dst.i.i.i = getelementptr inbounds i8, ptr %self2.i.i.i, i64 %len.i.i.i, !dbg !985
  call void @llvm.dbg.value(metadata ptr %dst.i.i.i, metadata !754, metadata !DIExpression()), !dbg !954
  tail call void @llvm.memcpy.p0.p0.i64(ptr nonnull align 1 %dst.i.i.i, ptr nonnull align 1 %s.0, i64 %s.1, i1 false), !dbg !986, !noalias !965
  %3 = add i64 %len.i.i.i, %s.1, !dbg !987
  store i64 %3, ptr %0, align 8, !dbg !987, !alias.scope !965, !noalias !966
  ret i1 false, !dbg !988
}

; alloc::raw_vec::finish_grow
; Function Attrs: noinline nounwind nonlazybind uwtable
define internal fastcc void @_ZN5alloc7raw_vec11finish_grow17hcbec5c263c811de8E(ptr dead_on_unwind noalias nocapture noundef writable writeonly align 8 dereferenceable(24) %_0, i64 noundef %0, i64 %1, ptr noalias nocapture noundef readonly align 8 dereferenceable(24) %current_memory) unnamed_addr #3 !dbg !989 {
start:
  call void @llvm.dbg.declare(metadata ptr undef, metadata !1122, metadata !DIExpression()), !dbg !1154
  call void @llvm.dbg.declare(metadata ptr undef, metadata !1156, metadata !DIExpression()), !dbg !1175
  tail call void @llvm.dbg.value(metadata i64 %0, metadata !1046, metadata !DIExpression(DW_OP_LLVM_fragment, 0, 64)), !dbg !1177
  tail call void @llvm.dbg.value(metadata i64 %0, metadata !1149, metadata !DIExpression(DW_OP_LLVM_fragment, 0, 64)), !dbg !1178
  tail call void @llvm.dbg.value(metadata i64 %1, metadata !1046, metadata !DIExpression(DW_OP_LLVM_fragment, 64, 64)), !dbg !1177
  tail call void @llvm.dbg.value(metadata i64 %1, metadata !1149, metadata !DIExpression(DW_OP_LLVM_fragment, 64, 64)), !dbg !1178
  call void @llvm.dbg.declare(metadata ptr %current_memory, metadata !1047, metadata !DIExpression()), !dbg !1179
  tail call void @llvm.dbg.value(metadata ptr undef, metadata !1048, metadata !DIExpression()), !dbg !1177
  %2 = icmp eq i64 %0, 0, !dbg !1180
  br i1 %2, label %bb8, label %bb9, !dbg !1181

bb9:                                              ; preds = %start
  tail call void @llvm.dbg.value(metadata i64 %0, metadata !1049, metadata !DIExpression(DW_OP_LLVM_fragment, 0, 64)), !dbg !1182
  tail call void @llvm.dbg.value(metadata i64 %1, metadata !1049, metadata !DIExpression(DW_OP_LLVM_fragment, 64, 64)), !dbg !1182
  %3 = getelementptr inbounds i8, ptr %current_memory, i64 8, !dbg !1183
  %4 = load i64, ptr %3, align 8, !dbg !1183, !range !1184, !noundef !44
  %5 = icmp eq i64 %4, 0, !dbg !1183
  br i1 %5, label %bb2, label %bb3, !dbg !1183

bb8:                                              ; preds = %start
  tail call void @llvm.dbg.value(metadata i64 0, metadata !1051, metadata !DIExpression(DW_OP_LLVM_fragment, 0, 64)), !dbg !1185
  tail call void @llvm.dbg.value(metadata i64 0, metadata !1186, metadata !DIExpression(DW_OP_LLVM_fragment, 0, 64)), !dbg !1204
  tail call void @llvm.dbg.value(metadata i64 undef, metadata !1051, metadata !DIExpression(DW_OP_LLVM_fragment, 64, 64)), !dbg !1185
  tail call void @llvm.dbg.value(metadata i64 undef, metadata !1186, metadata !DIExpression(DW_OP_LLVM_fragment, 64, 64)), !dbg !1204
  tail call void @llvm.dbg.value(metadata i64 0, metadata !1201, metadata !DIExpression(DW_OP_LLVM_fragment, 0, 64)), !dbg !1206
  tail call void @llvm.dbg.value(metadata i64 undef, metadata !1201, metadata !DIExpression(DW_OP_LLVM_fragment, 64, 64)), !dbg !1206
  %6 = getelementptr inbounds i8, ptr %_0, i64 8, !dbg !1207
  store i64 0, ptr %6, align 8, !dbg !1207
  br label %bb7, !dbg !1208

bb3:                                              ; preds = %bb9
  %ptr = load ptr, ptr %current_memory, align 8, !dbg !1209, !nonnull !44, !noundef !44
  tail call void @llvm.dbg.value(metadata ptr %ptr, metadata !1109, metadata !DIExpression()), !dbg !1210
  %7 = getelementptr inbounds i8, ptr %current_memory, i64 16, !dbg !1211
  %8 = load i64, ptr %7, align 8, !dbg !1211, !noundef !44
  tail call void @llvm.dbg.value(metadata i64 %4, metadata !1111, metadata !DIExpression(DW_OP_LLVM_fragment, 0, 64)), !dbg !1210
  tail call void @llvm.dbg.value(metadata i64 %8, metadata !1111, metadata !DIExpression(DW_OP_LLVM_fragment, 64, 64)), !dbg !1210
  %cond = icmp eq i64 %4, %0, !dbg !1212
  tail call void @llvm.dbg.value(metadata i1 %cond, metadata !1213, metadata !DIExpression(DW_OP_LLVM_convert, 1, DW_ATE_unsigned, DW_OP_LLVM_convert, 8, DW_ATE_unsigned, DW_OP_stack_value)), !dbg !1221
  tail call void @llvm.assume(i1 %cond), !dbg !1223
  call void @llvm.dbg.value(metadata ptr undef, metadata !1224, metadata !DIExpression()), !dbg !1232
  call void @llvm.dbg.value(metadata ptr %ptr, metadata !1229, metadata !DIExpression()), !dbg !1232
  call void @llvm.dbg.value(metadata i64 %4, metadata !1230, metadata !DIExpression(DW_OP_LLVM_fragment, 0, 64)), !dbg !1232
  call void @llvm.dbg.value(metadata i64 %8, metadata !1230, metadata !DIExpression(DW_OP_LLVM_fragment, 64, 64)), !dbg !1232
  call void @llvm.dbg.value(metadata i64 %0, metadata !1231, metadata !DIExpression(DW_OP_LLVM_fragment, 0, 64)), !dbg !1232
  call void @llvm.dbg.value(metadata i64 %1, metadata !1231, metadata !DIExpression(DW_OP_LLVM_fragment, 64, 64)), !dbg !1232
  call void @llvm.dbg.value(metadata i64 %4, metadata !1234, metadata !DIExpression(DW_OP_LLVM_fragment, 0, 64)), !dbg !1278
  call void @llvm.dbg.value(metadata i64 %8, metadata !1234, metadata !DIExpression(DW_OP_LLVM_fragment, 64, 64)), !dbg !1278
  call void @llvm.dbg.value(metadata i64 %0, metadata !1242, metadata !DIExpression(DW_OP_LLVM_fragment, 0, 64)), !dbg !1278
  call void @llvm.dbg.value(metadata i64 %1, metadata !1242, metadata !DIExpression(DW_OP_LLVM_fragment, 64, 64)), !dbg !1278
  call void @llvm.dbg.value(metadata ptr undef, metadata !1240, metadata !DIExpression()), !dbg !1278
  call void @llvm.dbg.value(metadata ptr %ptr, metadata !1241, metadata !DIExpression()), !dbg !1278
  call void @llvm.dbg.value(metadata i1 false, metadata !1243, metadata !DIExpression(DW_OP_LLVM_convert, 1, DW_ATE_unsigned, DW_OP_LLVM_convert, 8, DW_ATE_unsigned, DW_OP_stack_value)), !dbg !1278
  call void @llvm.dbg.value(metadata i64 %8, metadata !1244, metadata !DIExpression()), !dbg !1280
  %9 = icmp eq i64 %8, 0, !dbg !1281
  br i1 %9, label %bb1.i.i, label %bb3.i.i, !dbg !1281

bb1.i.i:                                          ; preds = %bb3
  call void @llvm.dbg.value(metadata i64 %0, metadata !1282, metadata !DIExpression(DW_OP_LLVM_fragment, 0, 64)), !dbg !1300
  call void @llvm.dbg.value(metadata i64 %1, metadata !1282, metadata !DIExpression(DW_OP_LLVM_fragment, 64, 64)), !dbg !1300
  call void @llvm.dbg.value(metadata ptr undef, metadata !1288, metadata !DIExpression()), !dbg !1300
  call void @llvm.dbg.value(metadata i1 false, metadata !1289, metadata !DIExpression(DW_OP_LLVM_convert, 1, DW_ATE_unsigned, DW_OP_LLVM_convert, 8, DW_ATE_unsigned, DW_OP_stack_value)), !dbg !1300
  call void @llvm.dbg.value(metadata i64 %1, metadata !1290, metadata !DIExpression()), !dbg !1302
  %10 = icmp eq i64 %1, 0, !dbg !1303
  br i1 %10, label %bb2.i.i.i, label %bb5.i.i.i, !dbg !1303

bb2.i.i.i:                                        ; preds = %bb1.i.i
  call void @llvm.dbg.value(metadata ptr undef, metadata !1304, metadata !DIExpression()), !dbg !1311
  call void @llvm.dbg.value(metadata i64 %0, metadata !1313, metadata !DIExpression()), !dbg !1319
  %ptr.i.i.i.i = getelementptr i8, ptr null, i64 %0, !dbg !1321
  br label %bb6, !dbg !1322

bb5.i.i.i:                                        ; preds = %bb1.i.i
  call void @llvm.dbg.value(metadata ptr @__rust_no_alloc_shim_is_unstable, metadata !1323, metadata !DIExpression()), !dbg !1329
  call void @llvm.dbg.value(metadata i64 %0, metadata !1335, metadata !DIExpression(DW_OP_LLVM_fragment, 0, 64)), !dbg !1337
  call void @llvm.dbg.value(metadata i64 %1, metadata !1335, metadata !DIExpression(DW_OP_LLVM_fragment, 64, 64)), !dbg !1337
  %11 = load volatile i8, ptr @__rust_no_alloc_shim_is_unstable, align 1, !dbg !1338
  %_0.i.i.i.i = tail call noalias noundef ptr @__rust_alloc(i64 noundef %1, i64 noundef %0) #17, !dbg !1339
  call void @llvm.dbg.value(metadata ptr %_0.i.i.i.i, metadata !1292, metadata !DIExpression()), !dbg !1340
  call void @llvm.dbg.value(metadata ptr %_0.i.i.i.i, metadata !1292, metadata !DIExpression()), !dbg !1340
  call void @llvm.dbg.value(metadata ptr %_0.i.i.i.i, metadata !1341, metadata !DIExpression()), !dbg !1362
  br label %bb6, !dbg !1364

bb3.i.i:                                          ; preds = %bb3
  call void @llvm.dbg.value(metadata ptr undef, metadata !1246, metadata !DIExpression()), !dbg !1280
  call void @llvm.dbg.value(metadata i64 %1, metadata !1247, metadata !DIExpression()), !dbg !1365
  %cond.i.i = icmp ule i64 %8, %1, !dbg !1366
  call void @llvm.dbg.value(metadata i1 %cond.i.i, metadata !1367, metadata !DIExpression(DW_OP_LLVM_convert, 1, DW_ATE_unsigned, DW_OP_LLVM_convert, 8, DW_ATE_unsigned, DW_OP_stack_value)), !dbg !1371
  tail call void @llvm.assume(i1 %cond.i.i), !dbg !1373
  call void @llvm.dbg.value(metadata ptr %ptr, metadata !1374, metadata !DIExpression()), !dbg !1382
  call void @llvm.dbg.value(metadata i64 %4, metadata !1380, metadata !DIExpression(DW_OP_LLVM_fragment, 0, 64)), !dbg !1382
  call void @llvm.dbg.value(metadata i64 %8, metadata !1380, metadata !DIExpression(DW_OP_LLVM_fragment, 64, 64)), !dbg !1382
  call void @llvm.dbg.value(metadata i64 %1, metadata !1381, metadata !DIExpression()), !dbg !1382
  %12 = tail call noundef ptr @__rust_realloc(ptr noundef nonnull %ptr, i64 noundef %8, i64 noundef %0, i64 noundef %1) #17, !dbg !1384
  call void @llvm.dbg.value(metadata ptr %12, metadata !1249, metadata !DIExpression()), !dbg !1385
  call void @llvm.dbg.value(metadata ptr %12, metadata !1386, metadata !DIExpression()), !dbg !1390
  br label %bb6, !dbg !1392

bb2:                                              ; preds = %bb9
  call void @llvm.dbg.value(metadata ptr undef, metadata !1393, metadata !DIExpression()), !dbg !1399
  call void @llvm.dbg.value(metadata i64 %0, metadata !1398, metadata !DIExpression(DW_OP_LLVM_fragment, 0, 64)), !dbg !1399
  call void @llvm.dbg.value(metadata i64 %1, metadata !1398, metadata !DIExpression(DW_OP_LLVM_fragment, 64, 64)), !dbg !1399
  call void @llvm.dbg.value(metadata i64 %0, metadata !1282, metadata !DIExpression(DW_OP_LLVM_fragment, 0, 64)), !dbg !1401
  call void @llvm.dbg.value(metadata i64 %1, metadata !1282, metadata !DIExpression(DW_OP_LLVM_fragment, 64, 64)), !dbg !1401
  call void @llvm.dbg.value(metadata ptr undef, metadata !1288, metadata !DIExpression()), !dbg !1401
  call void @llvm.dbg.value(metadata i1 false, metadata !1289, metadata !DIExpression(DW_OP_LLVM_convert, 1, DW_ATE_unsigned, DW_OP_LLVM_convert, 8, DW_ATE_unsigned, DW_OP_stack_value)), !dbg !1401
  call void @llvm.dbg.value(metadata i64 %1, metadata !1290, metadata !DIExpression()), !dbg !1403
  %13 = icmp eq i64 %1, 0, !dbg !1404
  br i1 %13, label %bb2.i.i34, label %bb5.i.i, !dbg !1404

bb2.i.i34:                                        ; preds = %bb2
  call void @llvm.dbg.value(metadata ptr undef, metadata !1304, metadata !DIExpression()), !dbg !1405
  call void @llvm.dbg.value(metadata i64 %0, metadata !1313, metadata !DIExpression()), !dbg !1407
  %ptr.i.i.i = getelementptr i8, ptr null, i64 %0, !dbg !1409
  br label %bb6, !dbg !1410

bb5.i.i:                                          ; preds = %bb2
  call void @llvm.dbg.value(metadata ptr @__rust_no_alloc_shim_is_unstable, metadata !1323, metadata !DIExpression()), !dbg !1411
  call void @llvm.dbg.value(metadata i64 %0, metadata !1335, metadata !DIExpression(DW_OP_LLVM_fragment, 0, 64)), !dbg !1414
  call void @llvm.dbg.value(metadata i64 %1, metadata !1335, metadata !DIExpression(DW_OP_LLVM_fragment, 64, 64)), !dbg !1414
  %14 = load volatile i8, ptr @__rust_no_alloc_shim_is_unstable, align 1, !dbg !1415
  %_0.i.i.i = tail call noalias noundef ptr @__rust_alloc(i64 noundef %1, i64 noundef %0) #17, !dbg !1416
  call void @llvm.dbg.value(metadata ptr %_0.i.i.i, metadata !1292, metadata !DIExpression()), !dbg !1417
  call void @llvm.dbg.value(metadata ptr %_0.i.i.i, metadata !1341, metadata !DIExpression()), !dbg !1418
  br label %bb6, !dbg !1420

bb6:                                              ; preds = %bb5.i.i, %bb2.i.i34, %bb3.i.i, %bb5.i.i.i, %bb2.i.i.i
  %_0.sroa.0.0.i.i33.pn = phi ptr [ %12, %bb3.i.i ], [ %ptr.i.i.i.i, %bb2.i.i.i ], [ %_0.i.i.i.i, %bb5.i.i.i ], [ %ptr.i.i.i, %bb2.i.i34 ], [ %_0.i.i.i, %bb5.i.i ]
  tail call void @llvm.dbg.value(metadata i64 poison, metadata !1091, metadata !DIExpression(DW_OP_LLVM_fragment, 64, 64)), !dbg !1421
  tail call void @llvm.dbg.value(metadata ptr %_0.sroa.0.0.i.i33.pn, metadata !1091, metadata !DIExpression(DW_OP_LLVM_fragment, 0, 64)), !dbg !1421
  tail call void @llvm.dbg.value(metadata ptr %_0.sroa.0.0.i.i33.pn, metadata !1171, metadata !DIExpression(DW_OP_LLVM_fragment, 0, 64)), !dbg !1422
  tail call void @llvm.dbg.value(metadata i64 poison, metadata !1171, metadata !DIExpression(DW_OP_LLVM_fragment, 64, 64)), !dbg !1422
  tail call void @llvm.dbg.value(metadata ptr undef, metadata !1172, metadata !DIExpression()), !dbg !1422
  %15 = icmp eq ptr %_0.sroa.0.0.i.i33.pn, null, !dbg !1423
  %16 = getelementptr inbounds i8, ptr %_0, i64 8, !dbg !1422
  %17 = getelementptr inbounds i8, ptr %_0, i64 16, !dbg !1422
  br i1 %15, label %bb13, label %bb14, !dbg !1424

bb14:                                             ; preds = %bb6
  tail call void @llvm.dbg.value(metadata i64 %1, metadata !1091, metadata !DIExpression(DW_OP_LLVM_fragment, 64, 64)), !dbg !1421
  tail call void @llvm.dbg.value(metadata i64 %1, metadata !1171, metadata !DIExpression(DW_OP_LLVM_fragment, 64, 64)), !dbg !1422
  tail call void @llvm.dbg.value(metadata ptr %_0.sroa.0.0.i.i33.pn, metadata !1173, metadata !DIExpression(DW_OP_LLVM_fragment, 0, 64)), !dbg !1425
  tail call void @llvm.dbg.value(metadata i64 %1, metadata !1173, metadata !DIExpression(DW_OP_LLVM_fragment, 64, 64)), !dbg !1425
  store ptr %_0.sroa.0.0.i.i33.pn, ptr %16, align 8, !dbg !1426
  store i64 %1, ptr %17, align 8, !dbg !1426
  br label %bb7, !dbg !1427

bb13:                                             ; preds = %bb6
  store i64 %0, ptr %16, align 8, !dbg !1428
  store i64 %1, ptr %17, align 8, !dbg !1428
  br label %bb7, !dbg !1429

bb7:                                              ; preds = %bb14, %bb13, %bb8
  %storemerge32 = phi i64 [ 1, %bb8 ], [ 0, %bb14 ], [ 1, %bb13 ], !dbg !1177
  store i64 %storemerge32, ptr %_0, align 8, !dbg !1177
  ret void, !dbg !1208
}

; alloc::raw_vec::RawVec<T,A>::reserve::do_reserve_and_handle
; Function Attrs: cold nonlazybind uwtable
define internal fastcc void @"_ZN5alloc7raw_vec19RawVec$LT$T$C$A$GT$7reserve21do_reserve_and_handle17hc4bf9d6c521b3d95E"(ptr noalias nocapture noundef align 8 dereferenceable(16) %slf, i64 noundef %len, i64 noundef %additional) unnamed_addr #4 personality ptr @rust_eh_personality !dbg !1430 {
start:
  %_17.i = alloca [24 x i8], align 8
  %self5.i = alloca [24 x i8], align 8
  tail call void @llvm.dbg.value(metadata ptr %slf, metadata !1434, metadata !DIExpression()), !dbg !1439
  tail call void @llvm.dbg.value(metadata i64 %len, metadata !1435, metadata !DIExpression()), !dbg !1439
  tail call void @llvm.dbg.value(metadata i64 %additional, metadata !1436, metadata !DIExpression()), !dbg !1439
  tail call void @llvm.experimental.noalias.scope.decl(metadata !1440), !dbg !1443
  call void @llvm.dbg.value(metadata i64 8, metadata !1444, metadata !DIExpression()), !dbg !1453
  call void @llvm.dbg.value(metadata i64 8, metadata !1496, metadata !DIExpression()), !dbg !1507
  call void @llvm.dbg.value(metadata ptr %slf, metadata !1476, metadata !DIExpression()), !dbg !1509
  call void @llvm.dbg.value(metadata ptr %slf, metadata !1510, metadata !DIExpression()), !dbg !1519
  call void @llvm.dbg.value(metadata i64 %len, metadata !1477, metadata !DIExpression()), !dbg !1509
  call void @llvm.dbg.value(metadata i64 %len, metadata !1521, metadata !DIExpression()), !dbg !1531
  call void @llvm.dbg.value(metadata i64 %len, metadata !1533, metadata !DIExpression()), !dbg !1547
  call void @llvm.dbg.value(metadata i64 %additional, metadata !1478, metadata !DIExpression()), !dbg !1509
  call void @llvm.dbg.value(metadata i64 %additional, metadata !1527, metadata !DIExpression()), !dbg !1531
  call void @llvm.dbg.value(metadata i64 %additional, metadata !1543, metadata !DIExpression()), !dbg !1547
  call void @llvm.dbg.declare(metadata ptr %self5.i, metadata !1549, metadata !DIExpression()), !dbg !1578
  %0 = tail call { i64, i1 } @llvm.uadd.with.overflow.i64(i64 %len, i64 %additional), !dbg !1580
  %_25.1.i = extractvalue { i64, i1 } %0, 1, !dbg !1580
  call void @llvm.dbg.value(metadata i1 %_25.1.i, metadata !1530, metadata !DIExpression(DW_OP_LLVM_convert, 1, DW_ATE_unsigned, DW_OP_LLVM_convert, 8, DW_ATE_unsigned, DW_OP_stack_value)), !dbg !1581
  call void @llvm.dbg.value(metadata i64 poison, metadata !1528, metadata !DIExpression()), !dbg !1581
  br i1 %_25.1.i, label %bb2, label %bb10.i, !dbg !1582

bb10.i:                                           ; preds = %start
  %_25.0.i = extractvalue { i64, i1 } %0, 0, !dbg !1580
  call void @llvm.dbg.value(metadata i64 %_25.0.i, metadata !1528, metadata !DIExpression()), !dbg !1581
  call void @llvm.dbg.value(metadata i64 %_25.0.i, metadata !1479, metadata !DIExpression()), !dbg !1585
  call void @llvm.dbg.value(metadata i64 %_25.0.i, metadata !1451, metadata !DIExpression()), !dbg !1586
  call void @llvm.dbg.value(metadata i64 %_25.0.i, metadata !1503, metadata !DIExpression()), !dbg !1588
  %_12.i = load i64, ptr %slf, align 8, !dbg !1590, !alias.scope !1440, !noundef !44
  %v1.i = shl i64 %_12.i, 1, !dbg !1590
  call void @llvm.dbg.value(metadata i64 %v1.i, metadata !1449, metadata !DIExpression()), !dbg !1586
  call void @llvm.dbg.value(metadata i64 %v1.i, metadata !1501, metadata !DIExpression()), !dbg !1588
  call void @llvm.dbg.value(metadata i64 %v1.i, metadata !1591, metadata !DIExpression()), !dbg !1603
  call void @llvm.dbg.value(metadata i64 %_25.0.i, metadata !1599, metadata !DIExpression()), !dbg !1603
  call void @llvm.dbg.declare(metadata ptr undef, metadata !1600, metadata !DIExpression()), !dbg !1605
  %_0.sroa.0.0.sroa.speculated.i.i = tail call noundef i64 @llvm.umax.i64(i64 %v1.i, i64 %_25.0.i), !dbg !1603
  call void @llvm.dbg.value(metadata i64 %_0.sroa.0.0.sroa.speculated.i.i, metadata !1484, metadata !DIExpression()), !dbg !1606
  call void @llvm.dbg.value(metadata i64 %_0.sroa.0.0.sroa.speculated.i.i, metadata !1452, metadata !DIExpression()), !dbg !1453
  call void @llvm.dbg.value(metadata i64 %_0.sroa.0.0.sroa.speculated.i.i, metadata !1504, metadata !DIExpression()), !dbg !1507
  call void @llvm.dbg.value(metadata i64 8, metadata !1591, metadata !DIExpression()), !dbg !1607
  call void @llvm.dbg.value(metadata i64 %_0.sroa.0.0.sroa.speculated.i.i, metadata !1599, metadata !DIExpression()), !dbg !1607
  call void @llvm.dbg.declare(metadata ptr undef, metadata !1600, metadata !DIExpression()), !dbg !1609
  %_0.sroa.0.0.sroa.speculated.i27.i = tail call noundef i64 @llvm.umax.i64(i64 %_0.sroa.0.0.sroa.speculated.i.i, i64 8), !dbg !1607
  call void @llvm.dbg.value(metadata i64 %_0.sroa.0.0.sroa.speculated.i27.i, metadata !1485, metadata !DIExpression()), !dbg !1610
  call void @llvm.dbg.value(metadata i64 %_0.sroa.0.0.sroa.speculated.i27.i, metadata !1611, metadata !DIExpression()), !dbg !1618
  call void @llvm.dbg.value(metadata i64 %_0.sroa.0.0.sroa.speculated.i27.i, metadata !1518, metadata !DIExpression()), !dbg !1519
  call void @llvm.dbg.value(metadata i64 1, metadata !1620, metadata !DIExpression()), !dbg !1631
  call void @llvm.dbg.value(metadata i64 1, metadata !1627, metadata !DIExpression()), !dbg !1631
  call void @llvm.dbg.value(metadata i64 %_0.sroa.0.0.sroa.speculated.i27.i, metadata !1628, metadata !DIExpression()), !dbg !1631
  %_4.i.i = icmp sgt i64 %_0.sroa.0.0.sroa.speculated.i27.i, -1, !dbg !1633
  %_0.sroa.0.0.i.i = zext i1 %_4.i.i to i64, !dbg !1633
  call void @llvm.dbg.value(metadata i64 %_0.sroa.0.0.i.i, metadata !1487, metadata !DIExpression(DW_OP_LLVM_fragment, 0, 64)), !dbg !1634
  call void @llvm.dbg.value(metadata i64 %_0.sroa.0.0.sroa.speculated.i27.i, metadata !1487, metadata !DIExpression(DW_OP_LLVM_fragment, 64, 64)), !dbg !1634
  call void @llvm.lifetime.start.p0(i64 24, ptr nonnull %self5.i), !dbg !1635, !noalias !1440
  call void @llvm.lifetime.start.p0(i64 24, ptr nonnull %_17.i), !dbg !1636, !noalias !1440
  %1 = getelementptr inbounds i8, ptr %slf, i64 8, !dbg !1636
  call void @llvm.dbg.value(metadata ptr undef, metadata !460, metadata !DIExpression()), !dbg !1637
  %2 = icmp eq i64 %_12.i, 0, !dbg !1639
  br i1 %2, label %"_ZN5alloc7raw_vec19RawVec$LT$T$C$A$GT$14current_memory17ha1d9e1da71a4007aE.exit.i", label %bb4.i.i, !dbg !1639

bb4.i.i:                                          ; preds = %bb10.i
  %self.val26.i = load ptr, ptr %1, align 8, !dbg !1636, !alias.scope !1440, !nonnull !44, !noundef !44
  call void @llvm.dbg.value(metadata i64 1, metadata !484, metadata !DIExpression()), !dbg !1640
  call void @llvm.dbg.value(metadata i64 %_12.i, metadata !486, metadata !DIExpression()), !dbg !1641
  call void @llvm.dbg.value(metadata i64 1, metadata !488, metadata !DIExpression(DW_OP_LLVM_fragment, 0, 64)), !dbg !1642
  call void @llvm.dbg.value(metadata i64 %_12.i, metadata !488, metadata !DIExpression(DW_OP_LLVM_fragment, 64, 64)), !dbg !1642
  store ptr %self.val26.i, ptr %_17.i, align 8, !dbg !1643, !alias.scope !1644, !noalias !1440
  %_9.sroa.5.0._0.sroa_idx.i.i = getelementptr inbounds i8, ptr %_17.i, i64 16, !dbg !1643
  store i64 %_12.i, ptr %_9.sroa.5.0._0.sroa_idx.i.i, align 8, !dbg !1643, !alias.scope !1644, !noalias !1440
  br label %"_ZN5alloc7raw_vec19RawVec$LT$T$C$A$GT$14current_memory17ha1d9e1da71a4007aE.exit.i", !dbg !1647

"_ZN5alloc7raw_vec19RawVec$LT$T$C$A$GT$14current_memory17ha1d9e1da71a4007aE.exit.i": ; preds = %bb4.i.i, %bb10.i
  %.sink.i.i = phi i64 [ 1, %bb4.i.i ], [ 0, %bb10.i ], !dbg !1637
  %3 = getelementptr inbounds i8, ptr %_17.i, i64 8, !dbg !1637
  store i64 %.sink.i.i, ptr %3, align 8, !dbg !1637, !alias.scope !1644, !noalias !1440
; call alloc::raw_vec::finish_grow
  call fastcc void @_ZN5alloc7raw_vec11finish_grow17hcbec5c263c811de8E(ptr noalias nocapture noundef nonnull align 8 dereferenceable(24) %self5.i, i64 noundef %_0.sroa.0.0.i.i, i64 %_0.sroa.0.0.sroa.speculated.i27.i, ptr noalias nocapture noundef nonnull readonly align 8 dereferenceable(24) %_17.i), !dbg !1635, !noalias !1440
  call void @llvm.lifetime.end.p0(i64 24, ptr nonnull %_17.i), !dbg !1648, !noalias !1440
  %_39.i = load i64, ptr %self5.i, align 8, !dbg !1649, !range !1650, !noalias !1440, !noundef !44
  %trunc.not.i = icmp eq i64 %_39.i, 0, !dbg !1651
  %4 = getelementptr inbounds i8, ptr %self5.i, i64 8, !dbg !1652
  br i1 %trunc.not.i, label %bb3, label %bb14.i, !dbg !1651

bb14.i:                                           ; preds = %"_ZN5alloc7raw_vec19RawVec$LT$T$C$A$GT$14current_memory17ha1d9e1da71a4007aE.exit.i"
  %e.0.i = load i64, ptr %4, align 8, !dbg !1653, !range !1184, !noalias !1440, !noundef !44
  %5 = getelementptr inbounds i8, ptr %self5.i, i64 16, !dbg !1653
  %e.1.i = load i64, ptr %5, align 8, !dbg !1653, !noalias !1440
  call void @llvm.lifetime.end.p0(i64 24, ptr nonnull %self5.i), !dbg !1654, !noalias !1440
  br label %bb2, !dbg !1655

bb2:                                              ; preds = %bb14.i, %start
  %_0.sroa.4.0.i.ph = phi i64 [ undef, %start ], [ %e.1.i, %bb14.i ]
  %_0.sroa.0.0.i.ph = phi i64 [ 0, %start ], [ %e.0.i, %bb14.i ]
  tail call void @llvm.dbg.value(metadata i64 %_0.sroa.0.0.i.ph, metadata !1437, metadata !DIExpression(DW_OP_LLVM_fragment, 0, 64)), !dbg !1658
  tail call void @llvm.dbg.value(metadata i64 %_0.sroa.4.0.i.ph, metadata !1437, metadata !DIExpression(DW_OP_LLVM_fragment, 64, 64)), !dbg !1658
; call alloc::raw_vec::handle_error
  tail call void @_ZN5alloc7raw_vec12handle_error17hbecd345b13023a3fE(i64 noundef %_0.sroa.0.0.i.ph, i64 %_0.sroa.4.0.i.ph) #18, !dbg !1659
  unreachable, !dbg !1659

bb3:                                              ; preds = %"_ZN5alloc7raw_vec19RawVec$LT$T$C$A$GT$14current_memory17ha1d9e1da71a4007aE.exit.i"
  %v.0.i = load ptr, ptr %4, align 8, !dbg !1660, !noalias !1440, !nonnull !44, !noundef !44
  call void @llvm.lifetime.end.p0(i64 24, ptr nonnull %self5.i), !dbg !1654, !noalias !1440
  call void @llvm.dbg.value(metadata ptr %v.0.i, metadata !1489, metadata !DIExpression(DW_OP_LLVM_fragment, 0, 64)), !dbg !1661
  call void @llvm.dbg.value(metadata ptr %v.0.i, metadata !1517, metadata !DIExpression(DW_OP_LLVM_fragment, 0, 64)), !dbg !1519
  call void @llvm.dbg.value(metadata i64 poison, metadata !1489, metadata !DIExpression(DW_OP_LLVM_fragment, 64, 64)), !dbg !1661
  call void @llvm.dbg.value(metadata i64 poison, metadata !1517, metadata !DIExpression(DW_OP_LLVM_fragment, 64, 64)), !dbg !1519
  store ptr %v.0.i, ptr %1, align 8, !dbg !1662, !alias.scope !1440
  store i64 %_0.sroa.0.0.sroa.speculated.i27.i, ptr %slf, align 8, !dbg !1663, !alias.scope !1440
  ret void, !dbg !1664
}

; alloc::raw_vec::RawVec<T,A>::grow_one
; Function Attrs: noinline nonlazybind uwtable
define internal fastcc void @"_ZN5alloc7raw_vec19RawVec$LT$T$C$A$GT$8grow_one17h028c29f46546bde6E"(ptr noalias nocapture noundef align 8 dereferenceable(16) %self) unnamed_addr #5 personality ptr @rust_eh_personality !dbg !1665 {
start:
  %_17.i = alloca [24 x i8], align 8
  %self5.i = alloca [24 x i8], align 8
  tail call void @llvm.dbg.value(metadata ptr %self, metadata !1668, metadata !DIExpression()), !dbg !1671
  %_3 = load i64, ptr %self, align 8, !dbg !1672, !noundef !44
  tail call void @llvm.experimental.noalias.scope.decl(metadata !1673), !dbg !1676
  call void @llvm.dbg.value(metadata i64 8, metadata !1444, metadata !DIExpression()), !dbg !1677
  call void @llvm.dbg.value(metadata i64 8, metadata !1496, metadata !DIExpression()), !dbg !1680
  call void @llvm.dbg.value(metadata ptr %self, metadata !1476, metadata !DIExpression()), !dbg !1682
  call void @llvm.dbg.value(metadata ptr %self, metadata !1510, metadata !DIExpression()), !dbg !1683
  call void @llvm.dbg.value(metadata i64 %_3, metadata !1477, metadata !DIExpression()), !dbg !1682
  call void @llvm.dbg.value(metadata i64 %_3, metadata !1521, metadata !DIExpression()), !dbg !1685
  call void @llvm.dbg.value(metadata i64 %_3, metadata !1533, metadata !DIExpression()), !dbg !1687
  call void @llvm.dbg.value(metadata i64 1, metadata !1478, metadata !DIExpression()), !dbg !1682
  call void @llvm.dbg.value(metadata i64 1, metadata !1527, metadata !DIExpression()), !dbg !1685
  call void @llvm.dbg.value(metadata i64 1, metadata !1543, metadata !DIExpression()), !dbg !1687
  call void @llvm.dbg.declare(metadata ptr %self5.i, metadata !1549, metadata !DIExpression()), !dbg !1689
  %0 = tail call { i64, i1 } @llvm.uadd.with.overflow.i64(i64 %_3, i64 1), !dbg !1691
  %_25.1.i = extractvalue { i64, i1 } %0, 1, !dbg !1691
  call void @llvm.dbg.value(metadata i1 %_25.1.i, metadata !1530, metadata !DIExpression(DW_OP_LLVM_convert, 1, DW_ATE_unsigned, DW_OP_LLVM_convert, 8, DW_ATE_unsigned, DW_OP_stack_value)), !dbg !1692
  call void @llvm.dbg.value(metadata i64 poison, metadata !1528, metadata !DIExpression()), !dbg !1692
  br i1 %_25.1.i, label %bb2, label %bb10.i, !dbg !1693

bb10.i:                                           ; preds = %start
  %_25.0.i = extractvalue { i64, i1 } %0, 0, !dbg !1691
  call void @llvm.dbg.value(metadata i64 %_25.0.i, metadata !1528, metadata !DIExpression()), !dbg !1692
  call void @llvm.dbg.value(metadata i64 %_25.0.i, metadata !1479, metadata !DIExpression()), !dbg !1694
  call void @llvm.dbg.value(metadata i64 %_25.0.i, metadata !1451, metadata !DIExpression()), !dbg !1695
  call void @llvm.dbg.value(metadata i64 %_25.0.i, metadata !1503, metadata !DIExpression()), !dbg !1697
  %v1.i = shl i64 %_3, 1, !dbg !1699
  call void @llvm.dbg.value(metadata i64 %v1.i, metadata !1449, metadata !DIExpression()), !dbg !1695
  call void @llvm.dbg.value(metadata i64 %v1.i, metadata !1501, metadata !DIExpression()), !dbg !1697
  call void @llvm.dbg.value(metadata i64 %v1.i, metadata !1591, metadata !DIExpression()), !dbg !1700
  call void @llvm.dbg.value(metadata i64 %_25.0.i, metadata !1599, metadata !DIExpression()), !dbg !1700
  call void @llvm.dbg.declare(metadata ptr undef, metadata !1600, metadata !DIExpression()), !dbg !1702
  %_0.sroa.0.0.sroa.speculated.i.i = tail call noundef i64 @llvm.umax.i64(i64 %v1.i, i64 %_25.0.i), !dbg !1700
  call void @llvm.dbg.value(metadata i64 %_0.sroa.0.0.sroa.speculated.i.i, metadata !1484, metadata !DIExpression()), !dbg !1703
  call void @llvm.dbg.value(metadata i64 %_0.sroa.0.0.sroa.speculated.i.i, metadata !1452, metadata !DIExpression()), !dbg !1677
  call void @llvm.dbg.value(metadata i64 %_0.sroa.0.0.sroa.speculated.i.i, metadata !1504, metadata !DIExpression()), !dbg !1680
  call void @llvm.dbg.value(metadata i64 8, metadata !1591, metadata !DIExpression()), !dbg !1704
  call void @llvm.dbg.value(metadata i64 %_0.sroa.0.0.sroa.speculated.i.i, metadata !1599, metadata !DIExpression()), !dbg !1704
  call void @llvm.dbg.declare(metadata ptr undef, metadata !1600, metadata !DIExpression()), !dbg !1706
  %_0.sroa.0.0.sroa.speculated.i27.i = tail call noundef i64 @llvm.umax.i64(i64 %_0.sroa.0.0.sroa.speculated.i.i, i64 8), !dbg !1704
  call void @llvm.dbg.value(metadata i64 %_0.sroa.0.0.sroa.speculated.i27.i, metadata !1485, metadata !DIExpression()), !dbg !1707
  call void @llvm.dbg.value(metadata i64 %_0.sroa.0.0.sroa.speculated.i27.i, metadata !1611, metadata !DIExpression()), !dbg !1708
  call void @llvm.dbg.value(metadata i64 %_0.sroa.0.0.sroa.speculated.i27.i, metadata !1518, metadata !DIExpression()), !dbg !1683
  call void @llvm.dbg.value(metadata i64 1, metadata !1620, metadata !DIExpression()), !dbg !1710
  call void @llvm.dbg.value(metadata i64 1, metadata !1627, metadata !DIExpression()), !dbg !1710
  call void @llvm.dbg.value(metadata i64 %_0.sroa.0.0.sroa.speculated.i27.i, metadata !1628, metadata !DIExpression()), !dbg !1710
  %_4.i.i = icmp sgt i64 %_0.sroa.0.0.sroa.speculated.i27.i, -1, !dbg !1712
  %_0.sroa.0.0.i.i = zext i1 %_4.i.i to i64, !dbg !1712
  call void @llvm.dbg.value(metadata i64 %_0.sroa.0.0.i.i, metadata !1487, metadata !DIExpression(DW_OP_LLVM_fragment, 0, 64)), !dbg !1713
  call void @llvm.dbg.value(metadata i64 %_0.sroa.0.0.sroa.speculated.i27.i, metadata !1487, metadata !DIExpression(DW_OP_LLVM_fragment, 64, 64)), !dbg !1713
  call void @llvm.lifetime.start.p0(i64 24, ptr nonnull %self5.i), !dbg !1714, !noalias !1673
  call void @llvm.lifetime.start.p0(i64 24, ptr nonnull %_17.i), !dbg !1715, !noalias !1673
  %1 = getelementptr inbounds i8, ptr %self, i64 8, !dbg !1715
  call void @llvm.dbg.value(metadata ptr undef, metadata !460, metadata !DIExpression()), !dbg !1716
  %2 = icmp eq i64 %_3, 0, !dbg !1718
  br i1 %2, label %"_ZN5alloc7raw_vec19RawVec$LT$T$C$A$GT$14current_memory17ha1d9e1da71a4007aE.exit.i", label %bb4.i.i, !dbg !1718

bb4.i.i:                                          ; preds = %bb10.i
  %self.val26.i = load ptr, ptr %1, align 8, !dbg !1715, !alias.scope !1673, !nonnull !44, !noundef !44
  call void @llvm.dbg.value(metadata i64 1, metadata !484, metadata !DIExpression()), !dbg !1719
  call void @llvm.dbg.value(metadata i64 %_3, metadata !486, metadata !DIExpression()), !dbg !1720
  call void @llvm.dbg.value(metadata i64 1, metadata !488, metadata !DIExpression(DW_OP_LLVM_fragment, 0, 64)), !dbg !1721
  call void @llvm.dbg.value(metadata i64 %_3, metadata !488, metadata !DIExpression(DW_OP_LLVM_fragment, 64, 64)), !dbg !1721
  store ptr %self.val26.i, ptr %_17.i, align 8, !dbg !1722, !alias.scope !1723, !noalias !1673
  %_9.sroa.5.0._0.sroa_idx.i.i = getelementptr inbounds i8, ptr %_17.i, i64 16, !dbg !1722
  store i64 %_3, ptr %_9.sroa.5.0._0.sroa_idx.i.i, align 8, !dbg !1722, !alias.scope !1723, !noalias !1673
  br label %"_ZN5alloc7raw_vec19RawVec$LT$T$C$A$GT$14current_memory17ha1d9e1da71a4007aE.exit.i", !dbg !1726

"_ZN5alloc7raw_vec19RawVec$LT$T$C$A$GT$14current_memory17ha1d9e1da71a4007aE.exit.i": ; preds = %bb4.i.i, %bb10.i
  %.sink.i.i = phi i64 [ 1, %bb4.i.i ], [ 0, %bb10.i ], !dbg !1716
  %3 = getelementptr inbounds i8, ptr %_17.i, i64 8, !dbg !1716
  store i64 %.sink.i.i, ptr %3, align 8, !dbg !1716, !alias.scope !1723, !noalias !1673
; call alloc::raw_vec::finish_grow
  call fastcc void @_ZN5alloc7raw_vec11finish_grow17hcbec5c263c811de8E(ptr noalias nocapture noundef nonnull align 8 dereferenceable(24) %self5.i, i64 noundef %_0.sroa.0.0.i.i, i64 %_0.sroa.0.0.sroa.speculated.i27.i, ptr noalias nocapture noundef nonnull readonly align 8 dereferenceable(24) %_17.i), !dbg !1714, !noalias !1673
  call void @llvm.lifetime.end.p0(i64 24, ptr nonnull %_17.i), !dbg !1727, !noalias !1673
  %_39.i = load i64, ptr %self5.i, align 8, !dbg !1728, !range !1650, !noalias !1673, !noundef !44
  %trunc.not.i = icmp eq i64 %_39.i, 0, !dbg !1729
  %4 = getelementptr inbounds i8, ptr %self5.i, i64 8, !dbg !1730
  br i1 %trunc.not.i, label %bb3, label %bb14.i, !dbg !1729

bb14.i:                                           ; preds = %"_ZN5alloc7raw_vec19RawVec$LT$T$C$A$GT$14current_memory17ha1d9e1da71a4007aE.exit.i"
  %e.0.i = load i64, ptr %4, align 8, !dbg !1731, !range !1184, !noalias !1673, !noundef !44
  %5 = getelementptr inbounds i8, ptr %self5.i, i64 16, !dbg !1731
  %e.1.i = load i64, ptr %5, align 8, !dbg !1731, !noalias !1673
  call void @llvm.lifetime.end.p0(i64 24, ptr nonnull %self5.i), !dbg !1732, !noalias !1673
  br label %bb2, !dbg !1733

bb2:                                              ; preds = %bb14.i, %start
  %_0.sroa.4.0.i.ph = phi i64 [ undef, %start ], [ %e.1.i, %bb14.i ]
  %_0.sroa.0.0.i.ph = phi i64 [ 0, %start ], [ %e.0.i, %bb14.i ]
  tail call void @llvm.dbg.value(metadata i64 %_0.sroa.0.0.i.ph, metadata !1669, metadata !DIExpression(DW_OP_LLVM_fragment, 0, 64)), !dbg !1734
  tail call void @llvm.dbg.value(metadata i64 %_0.sroa.4.0.i.ph, metadata !1669, metadata !DIExpression(DW_OP_LLVM_fragment, 64, 64)), !dbg !1734
; call alloc::raw_vec::handle_error
  tail call void @_ZN5alloc7raw_vec12handle_error17hbecd345b13023a3fE(i64 noundef %_0.sroa.0.0.i.ph, i64 %_0.sroa.4.0.i.ph) #18, !dbg !1735
  unreachable, !dbg !1735

bb3:                                              ; preds = %"_ZN5alloc7raw_vec19RawVec$LT$T$C$A$GT$14current_memory17ha1d9e1da71a4007aE.exit.i"
  %v.0.i = load ptr, ptr %4, align 8, !dbg !1736, !noalias !1673, !nonnull !44, !noundef !44
  call void @llvm.lifetime.end.p0(i64 24, ptr nonnull %self5.i), !dbg !1732, !noalias !1673
  call void @llvm.dbg.value(metadata ptr %v.0.i, metadata !1489, metadata !DIExpression(DW_OP_LLVM_fragment, 0, 64)), !dbg !1737
  call void @llvm.dbg.value(metadata ptr %v.0.i, metadata !1517, metadata !DIExpression(DW_OP_LLVM_fragment, 0, 64)), !dbg !1683
  call void @llvm.dbg.value(metadata i64 poison, metadata !1489, metadata !DIExpression(DW_OP_LLVM_fragment, 64, 64)), !dbg !1737
  call void @llvm.dbg.value(metadata i64 poison, metadata !1517, metadata !DIExpression(DW_OP_LLVM_fragment, 64, 64)), !dbg !1683
  store ptr %v.0.i, ptr %1, align 8, !dbg !1738, !alias.scope !1673
  store i64 %_0.sroa.0.0.sroa.speculated.i27.i, ptr %self, align 8, !dbg !1739, !alias.scope !1673
  ret void, !dbg !1740
}

; <bitflags::parser::ParseError as core::fmt::Display>::fmt
; Function Attrs: nonlazybind uwtable
define noundef zeroext i1 @"_ZN67_$LT$bitflags..parser..ParseError$u20$as$u20$core..fmt..Display$GT$3fmt17h5a1f28e7d93f1f5eE"(ptr noalias noundef readonly align 8 dereferenceable(32) %self, ptr noalias nocapture noundef readonly align 8 dereferenceable(64) %f) unnamed_addr #0 !dbg !1741 {
start:
  %_21 = alloca [16 x i8], align 8
  %_19 = alloca [48 x i8], align 8
  %_got37 = alloca [8 x i8], align 8
  %_11 = alloca [16 x i8], align 8
  %_9 = alloca [48 x i8], align 8
  %_got = alloca [8 x i8], align 8
  tail call void @llvm.dbg.value(metadata ptr @alloc_04d3e8757cff7cd37ad55571aa4e0d51, metadata !1811, metadata !DIExpression()), !dbg !1830
  tail call void @llvm.dbg.value(metadata ptr @alloc_04d3e8757cff7cd37ad55571aa4e0d51, metadata !1827, metadata !DIExpression()), !dbg !1833
  tail call void @llvm.dbg.value(metadata ptr %self, metadata !1768, metadata !DIExpression()), !dbg !1836
  tail call void @llvm.dbg.value(metadata ptr %f, metadata !1769, metadata !DIExpression()), !dbg !1836
  call void @llvm.dbg.declare(metadata ptr %_got, metadata !1772, metadata !DIExpression()), !dbg !1837
  call void @llvm.dbg.declare(metadata ptr %_got37, metadata !1797, metadata !DIExpression()), !dbg !1838
  %_3 = load i64, ptr %self, align 8, !dbg !1839, !range !1840, !noundef !44
  switch i64 %_3, label %default.unreachable128 [
    i64 0, label %_ZN4core3fmt9Arguments23as_statically_known_str17hb85f1f33b3585dafE.exit.i
    i64 1, label %_ZN4core3fmt9Arguments23as_statically_known_str17hb85f1f33b3585dafE.exit.i65
    i64 2, label %_ZN4core3fmt9Arguments23as_statically_known_str17hb85f1f33b3585dafE.exit.i82
  ], !dbg !1841

default.unreachable128:                           ; preds = %start
  unreachable

_ZN4core3fmt9Arguments23as_statically_known_str17hb85f1f33b3585dafE.exit.i: ; preds = %start
  tail call void @llvm.dbg.value(metadata ptr undef, metadata !1842, metadata !DIExpression()), !dbg !1851
  tail call void @llvm.dbg.value(metadata i64 undef, metadata !1842, metadata !DIExpression()), !dbg !1851
  tail call void @llvm.dbg.value(metadata ptr undef, metadata !1842, metadata !DIExpression()), !dbg !1851
  tail call void @llvm.dbg.value(metadata ptr undef, metadata !1842, metadata !DIExpression()), !dbg !1851
  tail call void @llvm.dbg.value(metadata i64 undef, metadata !1842, metadata !DIExpression()), !dbg !1851
  %0 = getelementptr inbounds i8, ptr %f, i64 32, !dbg !1853
  %f.val58 = load ptr, ptr %0, align 8, !dbg !1853, !nonnull !44, !noundef !44
  call void @llvm.dbg.value(metadata ptr undef, metadata !1848, metadata !DIExpression()), !dbg !1851
  %1 = getelementptr inbounds i8, ptr %f, i64 40, !dbg !1853
  %f.val59 = load ptr, ptr %1, align 8, !dbg !1853, !nonnull !44, !noundef !44
  call void @llvm.dbg.value(metadata ptr @alloc_9b634b61904a18c81fae77779bad0385, metadata !1849, metadata !DIExpression(DW_OP_LLVM_fragment, 0, 64)), !dbg !1854
  call void @llvm.dbg.value(metadata i64 22, metadata !1849, metadata !DIExpression(DW_OP_LLVM_fragment, 64, 64)), !dbg !1854
  %2 = getelementptr inbounds i8, ptr %f.val59, i64 24, !dbg !1855
  %3 = load ptr, ptr %2, align 8, !dbg !1855, !invariant.load !44, !noalias !1856, !nonnull !44
  %4 = tail call noundef zeroext i1 %3(ptr noundef nonnull align 1 %f.val58, ptr noalias noundef nonnull readonly align 1 @alloc_9b634b61904a18c81fae77779bad0385, i64 noundef 22), !dbg !1855, !noalias !1856
  tail call void @llvm.dbg.value(metadata i1 %4, metadata !1859, metadata !DIExpression(DW_OP_constu, 18446744073709551615, DW_OP_xor, DW_OP_LLVM_convert, 1, DW_ATE_unsigned, DW_OP_LLVM_convert, 8, DW_ATE_unsigned, DW_OP_stack_value)), !dbg !1909
  br i1 %4, label %bb13, label %bb10, !dbg !1910

_ZN4core3fmt9Arguments23as_statically_known_str17hb85f1f33b3585dafE.exit.i65: ; preds = %start
  %got = getelementptr inbounds i8, ptr %self, i64 8, !dbg !1911
  tail call void @llvm.dbg.value(metadata ptr %got, metadata !1770, metadata !DIExpression()), !dbg !1912
  call void @llvm.lifetime.start.p0(i64 8, ptr nonnull %_got), !dbg !1913
  store ptr %got, ptr %_got, align 8, !dbg !1914
  tail call void @llvm.dbg.value(metadata ptr undef, metadata !1842, metadata !DIExpression()), !dbg !1915
  tail call void @llvm.dbg.value(metadata i64 undef, metadata !1842, metadata !DIExpression()), !dbg !1915
  tail call void @llvm.dbg.value(metadata ptr undef, metadata !1842, metadata !DIExpression()), !dbg !1915
  tail call void @llvm.dbg.value(metadata ptr undef, metadata !1842, metadata !DIExpression()), !dbg !1915
  tail call void @llvm.dbg.value(metadata i64 undef, metadata !1842, metadata !DIExpression()), !dbg !1915
  %5 = getelementptr inbounds i8, ptr %f, i64 32, !dbg !1917
  %f.val56 = load ptr, ptr %5, align 8, !dbg !1917, !nonnull !44, !noundef !44
  %6 = getelementptr inbounds i8, ptr %f, i64 40, !dbg !1917
  %f.val57 = load ptr, ptr %6, align 8, !dbg !1917, !nonnull !44, !noundef !44
  call void @llvm.dbg.value(metadata ptr undef, metadata !1848, metadata !DIExpression()), !dbg !1915
  call void @llvm.dbg.value(metadata ptr @alloc_7dbc868a2d8a49e7d8d5d63149e10ddc, metadata !1849, metadata !DIExpression(DW_OP_LLVM_fragment, 0, 64)), !dbg !1918
  call void @llvm.dbg.value(metadata i64 23, metadata !1849, metadata !DIExpression(DW_OP_LLVM_fragment, 64, 64)), !dbg !1918
  %7 = getelementptr inbounds i8, ptr %f.val57, i64 24, !dbg !1919
  %8 = load ptr, ptr %7, align 8, !dbg !1919, !invariant.load !44, !noalias !1920, !nonnull !44
  %9 = tail call noundef zeroext i1 %8(ptr noundef nonnull align 1 %f.val56, ptr noalias noundef nonnull readonly align 1 @alloc_7dbc868a2d8a49e7d8d5d63149e10ddc, i64 noundef 23), !dbg !1919, !noalias !1920
  tail call void @llvm.dbg.value(metadata i1 %9, metadata !1881, metadata !DIExpression(DW_OP_constu, 18446744073709551615, DW_OP_xor, DW_OP_LLVM_convert, 1, DW_ATE_unsigned, DW_OP_LLVM_convert, 8, DW_ATE_unsigned, DW_OP_stack_value)), !dbg !1923
  br i1 %9, label %bb12, label %_ZN4core3fmt9Formatter9write_fmt17ha8e23c5027221141E.exit110, !dbg !1924

_ZN4core3fmt9Arguments23as_statically_known_str17hb85f1f33b3585dafE.exit.i82: ; preds = %start
  %got42 = getelementptr inbounds i8, ptr %self, i64 8, !dbg !1925
  tail call void @llvm.dbg.value(metadata ptr %got42, metadata !1795, metadata !DIExpression()), !dbg !1926
  call void @llvm.lifetime.start.p0(i64 8, ptr nonnull %_got37), !dbg !1927
  store ptr %got42, ptr %_got37, align 8, !dbg !1928
  tail call void @llvm.dbg.value(metadata ptr undef, metadata !1842, metadata !DIExpression()), !dbg !1929
  tail call void @llvm.dbg.value(metadata i64 undef, metadata !1842, metadata !DIExpression()), !dbg !1929
  tail call void @llvm.dbg.value(metadata ptr undef, metadata !1842, metadata !DIExpression()), !dbg !1929
  tail call void @llvm.dbg.value(metadata ptr undef, metadata !1842, metadata !DIExpression()), !dbg !1929
  tail call void @llvm.dbg.value(metadata i64 undef, metadata !1842, metadata !DIExpression()), !dbg !1929
  %10 = getelementptr inbounds i8, ptr %f, i64 32, !dbg !1931
  %f.val52 = load ptr, ptr %10, align 8, !dbg !1931, !nonnull !44, !noundef !44
  %11 = getelementptr inbounds i8, ptr %f, i64 40, !dbg !1931
  %f.val53 = load ptr, ptr %11, align 8, !dbg !1931, !nonnull !44, !noundef !44
  call void @llvm.dbg.value(metadata ptr undef, metadata !1848, metadata !DIExpression()), !dbg !1929
  call void @llvm.dbg.value(metadata ptr @alloc_4a33c36f3fbaa44a31d3077f4b37cab6, metadata !1849, metadata !DIExpression(DW_OP_LLVM_fragment, 0, 64)), !dbg !1932
  call void @llvm.dbg.value(metadata i64 16, metadata !1849, metadata !DIExpression(DW_OP_LLVM_fragment, 64, 64)), !dbg !1932
  %12 = getelementptr inbounds i8, ptr %f.val53, i64 24, !dbg !1933
  %13 = load ptr, ptr %12, align 8, !dbg !1933, !invariant.load !44, !noalias !1934, !nonnull !44
  %14 = tail call noundef zeroext i1 %13(ptr noundef nonnull align 1 %f.val52, ptr noalias noundef nonnull readonly align 1 @alloc_4a33c36f3fbaa44a31d3077f4b37cab6, i64 noundef 16), !dbg !1933, !noalias !1934
  tail call void @llvm.dbg.value(metadata i1 %14, metadata !1893, metadata !DIExpression(DW_OP_constu, 18446744073709551615, DW_OP_xor, DW_OP_LLVM_convert, 1, DW_ATE_unsigned, DW_OP_LLVM_convert, 8, DW_ATE_unsigned, DW_OP_stack_value)), !dbg !1937
  br i1 %14, label %bb11, label %_ZN4core3fmt9Formatter9write_fmt17ha8e23c5027221141E.exit127, !dbg !1938

bb10:                                             ; preds = %_ZN4core3fmt9Arguments23as_statically_known_str17hb85f1f33b3585dafE.exit.i, %bb21, %bb17
  br label %bb13, !dbg !1939

bb13:                                             ; preds = %_ZN4core3fmt9Arguments23as_statically_known_str17hb85f1f33b3585dafE.exit.i, %bb11, %bb10, %bb12
  %_0.sroa.0.0 = phi i1 [ true, %bb11 ], [ false, %bb10 ], [ true, %bb12 ], [ true, %_ZN4core3fmt9Arguments23as_statically_known_str17hb85f1f33b3585dafE.exit.i ], !dbg !1836
  ret i1 %_0.sroa.0.0, !dbg !1939

_ZN4core3fmt9Formatter9write_fmt17ha8e23c5027221141E.exit110: ; preds = %_ZN4core3fmt9Arguments23as_statically_known_str17hb85f1f33b3585dafE.exit.i65
  call void @llvm.lifetime.start.p0(i64 48, ptr nonnull %_9), !dbg !1940
  call void @llvm.lifetime.start.p0(i64 16, ptr nonnull %_11), !dbg !1940
  store ptr %_got, ptr %_11, align 8, !dbg !1940
  %_12.sroa.4.0..sroa_idx = getelementptr inbounds i8, ptr %_11, i64 8, !dbg !1940
  store ptr @"_ZN44_$LT$$RF$T$u20$as$u20$core..fmt..Display$GT$3fmt17haa720126bb5a1c58E", ptr %_12.sroa.4.0..sroa_idx, align 8, !dbg !1940
  tail call void @llvm.dbg.value(metadata ptr %_11, metadata !1826, metadata !DIExpression()), !dbg !1830
  store ptr @alloc_04d3e8757cff7cd37ad55571aa4e0d51, ptr %_9, align 8, !dbg !1941
  %15 = getelementptr inbounds i8, ptr %_9, i64 8, !dbg !1941
  store i64 2, ptr %15, align 8, !dbg !1941
  %16 = getelementptr inbounds i8, ptr %_9, i64 32, !dbg !1941
  store ptr null, ptr %16, align 8, !dbg !1941
  %17 = getelementptr inbounds i8, ptr %_9, i64 16, !dbg !1941
  store ptr %_11, ptr %17, align 8, !dbg !1941
  %18 = getelementptr inbounds i8, ptr %_9, i64 24, !dbg !1941
  store i64 1, ptr %18, align 8, !dbg !1941
  call void @llvm.dbg.value(metadata ptr undef, metadata !1848, metadata !DIExpression()), !dbg !1942
  call void @llvm.dbg.declare(metadata ptr %_9, metadata !1842, metadata !DIExpression()), !dbg !1944
; call core::fmt::write
  %19 = call noundef zeroext i1 @_ZN4core3fmt5write17h2b71bd12250911d0E(ptr noundef nonnull align 1 %f.val56, ptr noalias noundef nonnull readonly align 8 dereferenceable(48) %f.val57, ptr noalias nocapture noundef nonnull readonly align 8 dereferenceable(48) %_9), !dbg !1945
  tail call void @llvm.dbg.value(metadata i1 %19, metadata !1887, metadata !DIExpression(DW_OP_LLVM_convert, 1, DW_ATE_unsigned, DW_OP_LLVM_convert, 8, DW_ATE_unsigned, DW_OP_stack_value)), !dbg !1946
  call void @llvm.lifetime.end.p0(i64 48, ptr nonnull %_9), !dbg !1940
  call void @llvm.lifetime.end.p0(i64 16, ptr nonnull %_11), !dbg !1947
  br i1 %19, label %bb12, label %bb17, !dbg !1948

bb17:                                             ; preds = %_ZN4core3fmt9Formatter9write_fmt17ha8e23c5027221141E.exit110
  call void @llvm.lifetime.end.p0(i64 8, ptr nonnull %_got), !dbg !1949
  br label %bb10, !dbg !1950

bb12:                                             ; preds = %_ZN4core3fmt9Formatter9write_fmt17ha8e23c5027221141E.exit110, %_ZN4core3fmt9Arguments23as_statically_known_str17hb85f1f33b3585dafE.exit.i65
  call void @llvm.lifetime.end.p0(i64 8, ptr nonnull %_got), !dbg !1949
  br label %bb13, !dbg !1951

_ZN4core3fmt9Formatter9write_fmt17ha8e23c5027221141E.exit127: ; preds = %_ZN4core3fmt9Arguments23as_statically_known_str17hb85f1f33b3585dafE.exit.i82
  call void @llvm.lifetime.start.p0(i64 48, ptr nonnull %_19), !dbg !1953
  call void @llvm.lifetime.start.p0(i64 16, ptr nonnull %_21), !dbg !1953
  store ptr %_got37, ptr %_21, align 8, !dbg !1953
  %_22.sroa.4.0..sroa_idx = getelementptr inbounds i8, ptr %_21, i64 8, !dbg !1953
  store ptr @"_ZN44_$LT$$RF$T$u20$as$u20$core..fmt..Display$GT$3fmt17haa720126bb5a1c58E", ptr %_22.sroa.4.0..sroa_idx, align 8, !dbg !1953
  tail call void @llvm.dbg.value(metadata ptr %_21, metadata !1829, metadata !DIExpression()), !dbg !1833
  store ptr @alloc_04d3e8757cff7cd37ad55571aa4e0d51, ptr %_19, align 8, !dbg !1954
  %20 = getelementptr inbounds i8, ptr %_19, i64 8, !dbg !1954
  store i64 2, ptr %20, align 8, !dbg !1954
  %21 = getelementptr inbounds i8, ptr %_19, i64 32, !dbg !1954
  store ptr null, ptr %21, align 8, !dbg !1954
  %22 = getelementptr inbounds i8, ptr %_19, i64 16, !dbg !1954
  store ptr %_21, ptr %22, align 8, !dbg !1954
  %23 = getelementptr inbounds i8, ptr %_19, i64 24, !dbg !1954
  store i64 1, ptr %23, align 8, !dbg !1954
  call void @llvm.dbg.value(metadata ptr undef, metadata !1848, metadata !DIExpression()), !dbg !1955
  call void @llvm.dbg.declare(metadata ptr %_19, metadata !1842, metadata !DIExpression()), !dbg !1957
; call core::fmt::write
  %24 = call noundef zeroext i1 @_ZN4core3fmt5write17h2b71bd12250911d0E(ptr noundef nonnull align 1 %f.val52, ptr noalias noundef nonnull readonly align 8 dereferenceable(48) %f.val53, ptr noalias nocapture noundef nonnull readonly align 8 dereferenceable(48) %_19), !dbg !1958
  tail call void @llvm.dbg.value(metadata i1 %24, metadata !1899, metadata !DIExpression(DW_OP_LLVM_convert, 1, DW_ATE_unsigned, DW_OP_LLVM_convert, 8, DW_ATE_unsigned, DW_OP_stack_value)), !dbg !1959
  call void @llvm.lifetime.end.p0(i64 48, ptr nonnull %_19), !dbg !1953
  call void @llvm.lifetime.end.p0(i64 16, ptr nonnull %_21), !dbg !1960
  br i1 %24, label %bb11, label %bb21, !dbg !1961

bb21:                                             ; preds = %_ZN4core3fmt9Formatter9write_fmt17ha8e23c5027221141E.exit127
  call void @llvm.lifetime.end.p0(i64 8, ptr nonnull %_got37), !dbg !1962
  br label %bb10, !dbg !1963

bb11:                                             ; preds = %_ZN4core3fmt9Formatter9write_fmt17ha8e23c5027221141E.exit127, %_ZN4core3fmt9Arguments23as_statically_known_str17hb85f1f33b3585dafE.exit.i82
  call void @llvm.lifetime.end.p0(i64 8, ptr nonnull %_got37), !dbg !1962
  br label %bb13, !dbg !1951
}

; bitflags::traits::<impl bitflags::parser::ParseHex for u8>::parse_hex
; Function Attrs: nonlazybind uwtable
define void @"_ZN8bitflags6traits59_$LT$impl$u20$bitflags..parser..ParseHex$u20$for$u20$u8$GT$9parse_hex17h9d6c4e45b8d80e68E"(ptr dead_on_unwind noalias nocapture noundef writable writeonly sret([32 x i8]) align 8 dereferenceable(32) %_0, ptr noalias noundef nonnull readonly align 1 %0, i64 noundef %1) unnamed_addr #0 personality ptr @rust_eh_personality !dbg !1964 {
start:
  %e.i.i.i = alloca [0 x i8], align 1
  %formatter.i.i = alloca [64 x i8], align 8
  %buf.i.i = alloca [24 x i8], align 8
  tail call void @llvm.dbg.value(metadata ptr %0, metadata !1986, metadata !DIExpression(DW_OP_LLVM_fragment, 0, 64)), !dbg !1987
  tail call void @llvm.dbg.value(metadata i64 %1, metadata !1986, metadata !DIExpression(DW_OP_LLVM_fragment, 64, 64)), !dbg !1987
; call core::num::<impl u8>::from_str_radix
  %2 = tail call { i1, i8 } @"_ZN4core3num20_$LT$impl$u20$u8$GT$14from_str_radix17h41e9f9078a216956E"(ptr noalias noundef nonnull readonly align 1 %0, i64 noundef %1, i32 noundef 16), !dbg !1988
  %3 = extractvalue { i1, i8 } %2, 0, !dbg !1988
  tail call void @llvm.dbg.value(metadata i1 %3, metadata !1989, metadata !DIExpression(DW_OP_LLVM_convert, 1, DW_ATE_unsigned, DW_OP_LLVM_convert, 8, DW_ATE_unsigned, DW_OP_stack_value, DW_OP_LLVM_fragment, 0, 8)), !dbg !2026
  tail call void @llvm.dbg.value(metadata i8 poison, metadata !1989, metadata !DIExpression(DW_OP_LLVM_fragment, 8, 8)), !dbg !2026
  tail call void @llvm.dbg.value(metadata ptr undef, metadata !2021, metadata !DIExpression()), !dbg !2026
  tail call void @llvm.dbg.value(metadata ptr undef, metadata !2028, metadata !DIExpression(DW_OP_deref)), !dbg !2034
  br i1 %3, label %bb4, label %bb5, !dbg !2036

bb5:                                              ; preds = %start
  %4 = extractvalue { i1, i8 } %2, 1, !dbg !1988
  tail call void @llvm.dbg.value(metadata i8 %4, metadata !1989, metadata !DIExpression(DW_OP_LLVM_fragment, 8, 8)), !dbg !2026
  tail call void @llvm.dbg.value(metadata i8 %4, metadata !2022, metadata !DIExpression()), !dbg !2037
  %5 = getelementptr inbounds i8, ptr %_0, i64 8, !dbg !2038
  store i8 %4, ptr %5, align 8, !dbg !2038
  br label %bb2, !dbg !2039

bb4:                                              ; preds = %start
  tail call void @llvm.dbg.value(metadata i8 poison, metadata !2024, metadata !DIExpression()), !dbg !2040
  call void @llvm.dbg.value(metadata ptr %0, metadata !2041, metadata !DIExpression(DW_OP_LLVM_fragment, 0, 64)), !dbg !2053
  call void @llvm.dbg.value(metadata i64 %1, metadata !2041, metadata !DIExpression(DW_OP_LLVM_fragment, 64, 64)), !dbg !2053
  call void @llvm.dbg.value(metadata ptr %0, metadata !2049, metadata !DIExpression(DW_OP_LLVM_fragment, 0, 64)), !dbg !2055
  call void @llvm.dbg.value(metadata i64 %1, metadata !2049, metadata !DIExpression(DW_OP_LLVM_fragment, 64, 64)), !dbg !2055
  call void @llvm.dbg.value(metadata ptr undef, metadata !2056, metadata !DIExpression()), !dbg !2066
  call void @llvm.dbg.declare(metadata ptr %buf.i.i, metadata !2062, metadata !DIExpression()), !dbg !2068
  call void @llvm.dbg.declare(metadata ptr %formatter.i.i, metadata !2064, metadata !DIExpression()), !dbg !2069
  call void @llvm.lifetime.start.p0(i64 24, ptr nonnull %buf.i.i), !dbg !2070, !noalias !2071
  store i64 0, ptr %buf.i.i, align 8, !dbg !2077, !noalias !2071
  %_10.sroa.4.0.buf.sroa_idx.i.i = getelementptr inbounds i8, ptr %buf.i.i, i64 8, !dbg !2077
  store ptr inttoptr (i64 1 to ptr), ptr %_10.sroa.4.0.buf.sroa_idx.i.i, align 8, !dbg !2077, !noalias !2071
  %_10.sroa.5.0.buf.sroa_idx.i.i = getelementptr inbounds i8, ptr %buf.i.i, i64 16, !dbg !2077
  store i64 0, ptr %_10.sroa.5.0.buf.sroa_idx.i.i, align 8, !dbg !2077, !noalias !2071
  call void @llvm.lifetime.start.p0(i64 64, ptr nonnull %formatter.i.i), !dbg !2084, !noalias !2071
  call void @llvm.dbg.value(metadata ptr %buf.i.i, metadata !2085, metadata !DIExpression(DW_OP_LLVM_fragment, 0, 64)), !dbg !2092
  call void @llvm.dbg.value(metadata ptr @vtable.0, metadata !2085, metadata !DIExpression(DW_OP_LLVM_fragment, 64, 64)), !dbg !2092
  %6 = getelementptr inbounds i8, ptr %formatter.i.i, i64 52, !dbg !2094
  store i32 0, ptr %6, align 4, !dbg !2094, !noalias !2071
  %7 = getelementptr inbounds i8, ptr %formatter.i.i, i64 48, !dbg !2094
  store i32 32, ptr %7, align 8, !dbg !2094, !noalias !2071
  %8 = getelementptr inbounds i8, ptr %formatter.i.i, i64 56, !dbg !2094
  store i8 3, ptr %8, align 8, !dbg !2094, !noalias !2071
  store i64 0, ptr %formatter.i.i, align 8, !dbg !2094, !noalias !2071
  %9 = getelementptr inbounds i8, ptr %formatter.i.i, i64 16, !dbg !2094
  store i64 0, ptr %9, align 8, !dbg !2094, !noalias !2071
  %10 = getelementptr inbounds i8, ptr %formatter.i.i, i64 32, !dbg !2094
  store ptr %buf.i.i, ptr %10, align 8, !dbg !2094, !noalias !2071
  %11 = getelementptr inbounds i8, ptr %formatter.i.i, i64 40, !dbg !2094
  store ptr @vtable.0, ptr %11, align 8, !dbg !2094, !noalias !2071
  call void @llvm.dbg.value(metadata ptr undef, metadata !2095, metadata !DIExpression()), !dbg !2101
  call void @llvm.dbg.value(metadata ptr %formatter.i.i, metadata !2100, metadata !DIExpression()), !dbg !2101
; invoke <str as core::fmt::Display>::fmt
  %_0.i2.i.i = invoke noundef zeroext i1 @"_ZN42_$LT$str$u20$as$u20$core..fmt..Display$GT$3fmt17h49e1caa39cb6eebbE"(ptr noalias noundef nonnull readonly align 1 %0, i64 noundef %1, ptr noalias noundef nonnull align 8 dereferenceable(64) %formatter.i.i)
          to label %bb1.i.i unwind label %cleanup.i.i, !dbg !2103, !noalias !2104

cleanup.i.i:                                      ; preds = %bb2.i.i.i, %bb4
  %12 = landingpad { ptr, i32 }
          cleanup
  call void @llvm.experimental.noalias.scope.decl(metadata !2105), !dbg !2108
  call void @llvm.dbg.value(metadata ptr %buf.i.i, metadata !415, metadata !DIExpression()), !dbg !2109
  %_1.val.i.i.i = load i64, ptr %buf.i.i, align 8, !dbg !2111, !alias.scope !2105, !noalias !2071
  call void @llvm.dbg.value(metadata ptr undef, metadata !418, metadata !DIExpression()), !dbg !2112
  call void @llvm.dbg.value(metadata ptr undef, metadata !428, metadata !DIExpression()), !dbg !2114
  call void @llvm.dbg.value(metadata ptr undef, metadata !438, metadata !DIExpression()), !dbg !2116
  call void @llvm.dbg.value(metadata ptr undef, metadata !460, metadata !DIExpression()), !dbg !2118
  %13 = icmp eq i64 %_1.val.i.i.i, 0, !dbg !2120
  br i1 %13, label %bb4.i.i, label %"_ZN63_$LT$alloc..alloc..Global$u20$as$u20$core..alloc..Allocator$GT$10deallocate17h0f2d39528d187dc6E.exit.i.i4.i.i.i.i", !dbg !2120

"_ZN63_$LT$alloc..alloc..Global$u20$as$u20$core..alloc..Allocator$GT$10deallocate17h0f2d39528d187dc6E.exit.i.i4.i.i.i.i": ; preds = %cleanup.i.i
  %_1.val1.i.i.i = load ptr, ptr %_10.sroa.4.0.buf.sroa_idx.i.i, align 8, !dbg !2111, !alias.scope !2105, !noalias !2071, !nonnull !44, !noundef !44
  call void @llvm.dbg.value(metadata ptr %_1.val1.i.i.i, metadata !446, metadata !DIExpression()), !dbg !2121
  call void @llvm.dbg.value(metadata i64 1, metadata !448, metadata !DIExpression(DW_OP_LLVM_fragment, 0, 64)), !dbg !2121
  call void @llvm.dbg.value(metadata i64 %_1.val.i.i.i, metadata !448, metadata !DIExpression(DW_OP_LLVM_fragment, 64, 64)), !dbg !2121
  call void @llvm.dbg.value(metadata i64 1, metadata !494, metadata !DIExpression(DW_OP_LLVM_fragment, 0, 64)), !dbg !2122
  call void @llvm.dbg.value(metadata i64 %_1.val.i.i.i, metadata !494, metadata !DIExpression(DW_OP_LLVM_fragment, 64, 64)), !dbg !2122
  call void @llvm.dbg.value(metadata ptr undef, metadata !502, metadata !DIExpression()), !dbg !2122
  call void @llvm.dbg.value(metadata ptr %_1.val1.i.i.i, metadata !503, metadata !DIExpression()), !dbg !2122
  call void @llvm.dbg.value(metadata ptr %_1.val1.i.i.i, metadata !506, metadata !DIExpression()), !dbg !2124
  call void @llvm.dbg.value(metadata i64 1, metadata !513, metadata !DIExpression(DW_OP_LLVM_fragment, 0, 64)), !dbg !2124
  call void @llvm.dbg.value(metadata i64 %_1.val.i.i.i, metadata !513, metadata !DIExpression(DW_OP_LLVM_fragment, 64, 64)), !dbg !2124
  call void @__rust_dealloc(ptr noundef nonnull %_1.val1.i.i.i, i64 noundef %_1.val.i.i.i, i64 noundef 1) #17, !dbg !2126, !noalias !2127
  br label %bb4.i.i, !dbg !2128

bb1.i.i:                                          ; preds = %bb4
  call void @llvm.lifetime.start.p0(i64 0, ptr nonnull %e.i.i.i), !dbg !2129, !noalias !2071
  call void @llvm.dbg.value(metadata i1 %_0.i2.i.i, metadata !2135, metadata !DIExpression(DW_OP_LLVM_convert, 1, DW_ATE_unsigned, DW_OP_LLVM_convert, 8, DW_ATE_unsigned, DW_OP_stack_value)), !dbg !2142
  call void @llvm.dbg.value(metadata ptr @alloc_cc656815297f75969399c3f4b1ad3de4, metadata !2136, metadata !DIExpression(DW_OP_LLVM_fragment, 0, 64)), !dbg !2142
  call void @llvm.dbg.value(metadata i64 55, metadata !2136, metadata !DIExpression(DW_OP_LLVM_fragment, 64, 64)), !dbg !2142
  call void @llvm.dbg.declare(metadata ptr %e.i.i.i, metadata !2139, metadata !DIExpression()), !dbg !2143
  br i1 %_0.i2.i.i, label %bb2.i.i.i, label %_ZN8bitflags6parser10ParseError16invalid_hex_flag17h27170d13378b1cd7E.exit, !dbg !2129

bb2.i.i.i:                                        ; preds = %bb1.i.i
; invoke core::result::unwrap_failed
  invoke void @_ZN4core6result13unwrap_failed17hebd1efddce947a93E(ptr noalias noundef nonnull readonly align 1 @alloc_cc656815297f75969399c3f4b1ad3de4, i64 noundef 55, ptr noundef nonnull align 1 %e.i.i.i, ptr noalias noundef nonnull readonly align 8 dereferenceable(32) @vtable.1, ptr noalias noundef nonnull readonly align 8 dereferenceable(24) @alloc_f886f96e9a07c60a12107d674cf0d185) #18
          to label %.noexc.i.i unwind label %cleanup.i.i, !dbg !2144, !noalias !2104

.noexc.i.i:                                       ; preds = %bb2.i.i.i
  unreachable

bb4.i.i:                                          ; preds = %"_ZN63_$LT$alloc..alloc..Global$u20$as$u20$core..alloc..Allocator$GT$10deallocate17h0f2d39528d187dc6E.exit.i.i4.i.i.i.i", %cleanup.i.i
  resume { ptr, i32 } %12, !dbg !2145

_ZN8bitflags6parser10ParseError16invalid_hex_flag17h27170d13378b1cd7E.exit: ; preds = %bb1.i.i
  call void @llvm.lifetime.end.p0(i64 0, ptr nonnull %e.i.i.i), !dbg !2146, !noalias !2071
  %_7.sroa.4.0._0.sroa_idx = getelementptr inbounds i8, ptr %_0, i64 8, !dbg !2147
  call void @llvm.memcpy.p0.p0.i64(ptr noundef nonnull align 8 dereferenceable(24) %_7.sroa.4.0._0.sroa_idx, ptr noundef nonnull align 8 dereferenceable(24) %buf.i.i, i64 24, i1 false), !dbg !2148
  call void @llvm.lifetime.end.p0(i64 64, ptr nonnull %formatter.i.i), !dbg !2149, !noalias !2071
  call void @llvm.lifetime.end.p0(i64 24, ptr nonnull %buf.i.i), !dbg !2108, !noalias !2071
  br label %bb2, !dbg !2150

bb2:                                              ; preds = %_ZN8bitflags6parser10ParseError16invalid_hex_flag17h27170d13378b1cd7E.exit, %bb5
  %storemerge = phi i64 [ 3, %bb5 ], [ 2, %_ZN8bitflags6parser10ParseError16invalid_hex_flag17h27170d13378b1cd7E.exit ], !dbg !2026
  store i64 %storemerge, ptr %_0, align 8, !dbg !2026
  ret void, !dbg !2151
}

; bitflags::traits::<impl bitflags::parser::ParseHex for i8>::parse_hex
; Function Attrs: nonlazybind uwtable
define void @"_ZN8bitflags6traits59_$LT$impl$u20$bitflags..parser..ParseHex$u20$for$u20$i8$GT$9parse_hex17ha0b922009c990181E"(ptr dead_on_unwind noalias nocapture noundef writable writeonly sret([32 x i8]) align 8 dereferenceable(32) %_0, ptr noalias noundef nonnull readonly align 1 %0, i64 noundef %1) unnamed_addr #0 personality ptr @rust_eh_personality !dbg !2152 {
start:
  %e.i.i.i = alloca [0 x i8], align 1
  %formatter.i.i = alloca [64 x i8], align 8
  %buf.i.i = alloca [24 x i8], align 8
  tail call void @llvm.dbg.value(metadata ptr %0, metadata !2172, metadata !DIExpression(DW_OP_LLVM_fragment, 0, 64)), !dbg !2173
  tail call void @llvm.dbg.value(metadata i64 %1, metadata !2172, metadata !DIExpression(DW_OP_LLVM_fragment, 64, 64)), !dbg !2173
; call core::num::<impl i8>::from_str_radix
  %2 = tail call { i1, i8 } @"_ZN4core3num20_$LT$impl$u20$i8$GT$14from_str_radix17h20aacebedacf23a0E"(ptr noalias noundef nonnull readonly align 1 %0, i64 noundef %1, i32 noundef 16), !dbg !2174
  %3 = extractvalue { i1, i8 } %2, 0, !dbg !2174
  tail call void @llvm.dbg.value(metadata i1 %3, metadata !2175, metadata !DIExpression(DW_OP_LLVM_convert, 1, DW_ATE_unsigned, DW_OP_LLVM_convert, 8, DW_ATE_unsigned, DW_OP_stack_value, DW_OP_LLVM_fragment, 0, 8)), !dbg !2207
  tail call void @llvm.dbg.value(metadata i8 poison, metadata !2175, metadata !DIExpression(DW_OP_LLVM_fragment, 8, 8)), !dbg !2207
  tail call void @llvm.dbg.value(metadata ptr undef, metadata !2202, metadata !DIExpression()), !dbg !2207
  tail call void @llvm.dbg.value(metadata ptr undef, metadata !2209, metadata !DIExpression(DW_OP_deref)), !dbg !2215
  br i1 %3, label %bb4, label %bb5, !dbg !2217

bb5:                                              ; preds = %start
  %4 = extractvalue { i1, i8 } %2, 1, !dbg !2174
  tail call void @llvm.dbg.value(metadata i8 %4, metadata !2175, metadata !DIExpression(DW_OP_LLVM_fragment, 8, 8)), !dbg !2207
  tail call void @llvm.dbg.value(metadata i8 %4, metadata !2203, metadata !DIExpression()), !dbg !2218
  %5 = getelementptr inbounds i8, ptr %_0, i64 8, !dbg !2219
  store i8 %4, ptr %5, align 8, !dbg !2219
  br label %bb2, !dbg !2220

bb4:                                              ; preds = %start
  tail call void @llvm.dbg.value(metadata i8 poison, metadata !2205, metadata !DIExpression()), !dbg !2221
  call void @llvm.dbg.value(metadata ptr %0, metadata !2041, metadata !DIExpression(DW_OP_LLVM_fragment, 0, 64)), !dbg !2222
  call void @llvm.dbg.value(metadata i64 %1, metadata !2041, metadata !DIExpression(DW_OP_LLVM_fragment, 64, 64)), !dbg !2222
  call void @llvm.dbg.value(metadata ptr %0, metadata !2049, metadata !DIExpression(DW_OP_LLVM_fragment, 0, 64)), !dbg !2224
  call void @llvm.dbg.value(metadata i64 %1, metadata !2049, metadata !DIExpression(DW_OP_LLVM_fragment, 64, 64)), !dbg !2224
  call void @llvm.dbg.value(metadata ptr undef, metadata !2056, metadata !DIExpression()), !dbg !2225
  call void @llvm.dbg.declare(metadata ptr %buf.i.i, metadata !2062, metadata !DIExpression()), !dbg !2227
  call void @llvm.dbg.declare(metadata ptr %formatter.i.i, metadata !2064, metadata !DIExpression()), !dbg !2228
  call void @llvm.lifetime.start.p0(i64 24, ptr nonnull %buf.i.i), !dbg !2229, !noalias !2230
  store i64 0, ptr %buf.i.i, align 8, !dbg !2236, !noalias !2230
  %_10.sroa.4.0.buf.sroa_idx.i.i = getelementptr inbounds i8, ptr %buf.i.i, i64 8, !dbg !2236
  store ptr inttoptr (i64 1 to ptr), ptr %_10.sroa.4.0.buf.sroa_idx.i.i, align 8, !dbg !2236, !noalias !2230
  %_10.sroa.5.0.buf.sroa_idx.i.i = getelementptr inbounds i8, ptr %buf.i.i, i64 16, !dbg !2236
  store i64 0, ptr %_10.sroa.5.0.buf.sroa_idx.i.i, align 8, !dbg !2236, !noalias !2230
  call void @llvm.lifetime.start.p0(i64 64, ptr nonnull %formatter.i.i), !dbg !2238, !noalias !2230
  call void @llvm.dbg.value(metadata ptr %buf.i.i, metadata !2085, metadata !DIExpression(DW_OP_LLVM_fragment, 0, 64)), !dbg !2239
  call void @llvm.dbg.value(metadata ptr @vtable.0, metadata !2085, metadata !DIExpression(DW_OP_LLVM_fragment, 64, 64)), !dbg !2239
  %6 = getelementptr inbounds i8, ptr %formatter.i.i, i64 52, !dbg !2241
  store i32 0, ptr %6, align 4, !dbg !2241, !noalias !2230
  %7 = getelementptr inbounds i8, ptr %formatter.i.i, i64 48, !dbg !2241
  store i32 32, ptr %7, align 8, !dbg !2241, !noalias !2230
  %8 = getelementptr inbounds i8, ptr %formatter.i.i, i64 56, !dbg !2241
  store i8 3, ptr %8, align 8, !dbg !2241, !noalias !2230
  store i64 0, ptr %formatter.i.i, align 8, !dbg !2241, !noalias !2230
  %9 = getelementptr inbounds i8, ptr %formatter.i.i, i64 16, !dbg !2241
  store i64 0, ptr %9, align 8, !dbg !2241, !noalias !2230
  %10 = getelementptr inbounds i8, ptr %formatter.i.i, i64 32, !dbg !2241
  store ptr %buf.i.i, ptr %10, align 8, !dbg !2241, !noalias !2230
  %11 = getelementptr inbounds i8, ptr %formatter.i.i, i64 40, !dbg !2241
  store ptr @vtable.0, ptr %11, align 8, !dbg !2241, !noalias !2230
  call void @llvm.dbg.value(metadata ptr undef, metadata !2095, metadata !DIExpression()), !dbg !2242
  call void @llvm.dbg.value(metadata ptr %formatter.i.i, metadata !2100, metadata !DIExpression()), !dbg !2242
; invoke <str as core::fmt::Display>::fmt
  %_0.i2.i.i = invoke noundef zeroext i1 @"_ZN42_$LT$str$u20$as$u20$core..fmt..Display$GT$3fmt17h49e1caa39cb6eebbE"(ptr noalias noundef nonnull readonly align 1 %0, i64 noundef %1, ptr noalias noundef nonnull align 8 dereferenceable(64) %formatter.i.i)
          to label %bb1.i.i unwind label %cleanup.i.i, !dbg !2244, !noalias !2245

cleanup.i.i:                                      ; preds = %bb2.i.i.i, %bb4
  %12 = landingpad { ptr, i32 }
          cleanup
  call void @llvm.experimental.noalias.scope.decl(metadata !2246), !dbg !2249
  call void @llvm.dbg.value(metadata ptr %buf.i.i, metadata !415, metadata !DIExpression()), !dbg !2250
  %_1.val.i.i.i = load i64, ptr %buf.i.i, align 8, !dbg !2252, !alias.scope !2246, !noalias !2230
  call void @llvm.dbg.value(metadata ptr undef, metadata !418, metadata !DIExpression()), !dbg !2253
  call void @llvm.dbg.value(metadata ptr undef, metadata !428, metadata !DIExpression()), !dbg !2255
  call void @llvm.dbg.value(metadata ptr undef, metadata !438, metadata !DIExpression()), !dbg !2257
  call void @llvm.dbg.value(metadata ptr undef, metadata !460, metadata !DIExpression()), !dbg !2259
  %13 = icmp eq i64 %_1.val.i.i.i, 0, !dbg !2261
  br i1 %13, label %bb4.i.i, label %"_ZN63_$LT$alloc..alloc..Global$u20$as$u20$core..alloc..Allocator$GT$10deallocate17h0f2d39528d187dc6E.exit.i.i4.i.i.i.i", !dbg !2261

"_ZN63_$LT$alloc..alloc..Global$u20$as$u20$core..alloc..Allocator$GT$10deallocate17h0f2d39528d187dc6E.exit.i.i4.i.i.i.i": ; preds = %cleanup.i.i
  %_1.val1.i.i.i = load ptr, ptr %_10.sroa.4.0.buf.sroa_idx.i.i, align 8, !dbg !2252, !alias.scope !2246, !noalias !2230, !nonnull !44, !noundef !44
  call void @llvm.dbg.value(metadata ptr %_1.val1.i.i.i, metadata !446, metadata !DIExpression()), !dbg !2262
  call void @llvm.dbg.value(metadata i64 1, metadata !448, metadata !DIExpression(DW_OP_LLVM_fragment, 0, 64)), !dbg !2262
  call void @llvm.dbg.value(metadata i64 %_1.val.i.i.i, metadata !448, metadata !DIExpression(DW_OP_LLVM_fragment, 64, 64)), !dbg !2262
  call void @llvm.dbg.value(metadata i64 1, metadata !494, metadata !DIExpression(DW_OP_LLVM_fragment, 0, 64)), !dbg !2263
  call void @llvm.dbg.value(metadata i64 %_1.val.i.i.i, metadata !494, metadata !DIExpression(DW_OP_LLVM_fragment, 64, 64)), !dbg !2263
  call void @llvm.dbg.value(metadata ptr undef, metadata !502, metadata !DIExpression()), !dbg !2263
  call void @llvm.dbg.value(metadata ptr %_1.val1.i.i.i, metadata !503, metadata !DIExpression()), !dbg !2263
  call void @llvm.dbg.value(metadata ptr %_1.val1.i.i.i, metadata !506, metadata !DIExpression()), !dbg !2265
  call void @llvm.dbg.value(metadata i64 1, metadata !513, metadata !DIExpression(DW_OP_LLVM_fragment, 0, 64)), !dbg !2265
  call void @llvm.dbg.value(metadata i64 %_1.val.i.i.i, metadata !513, metadata !DIExpression(DW_OP_LLVM_fragment, 64, 64)), !dbg !2265
  call void @__rust_dealloc(ptr noundef nonnull %_1.val1.i.i.i, i64 noundef %_1.val.i.i.i, i64 noundef 1) #17, !dbg !2267, !noalias !2268
  br label %bb4.i.i, !dbg !2269

bb1.i.i:                                          ; preds = %bb4
  call void @llvm.lifetime.start.p0(i64 0, ptr nonnull %e.i.i.i), !dbg !2270, !noalias !2230
  call void @llvm.dbg.value(metadata i1 %_0.i2.i.i, metadata !2135, metadata !DIExpression(DW_OP_LLVM_convert, 1, DW_ATE_unsigned, DW_OP_LLVM_convert, 8, DW_ATE_unsigned, DW_OP_stack_value)), !dbg !2272
  call void @llvm.dbg.value(metadata ptr @alloc_cc656815297f75969399c3f4b1ad3de4, metadata !2136, metadata !DIExpression(DW_OP_LLVM_fragment, 0, 64)), !dbg !2272
  call void @llvm.dbg.value(metadata i64 55, metadata !2136, metadata !DIExpression(DW_OP_LLVM_fragment, 64, 64)), !dbg !2272
  call void @llvm.dbg.declare(metadata ptr %e.i.i.i, metadata !2139, metadata !DIExpression()), !dbg !2273
  br i1 %_0.i2.i.i, label %bb2.i.i.i, label %_ZN8bitflags6parser10ParseError16invalid_hex_flag17h27170d13378b1cd7E.exit, !dbg !2270

bb2.i.i.i:                                        ; preds = %bb1.i.i
; invoke core::result::unwrap_failed
  invoke void @_ZN4core6result13unwrap_failed17hebd1efddce947a93E(ptr noalias noundef nonnull readonly align 1 @alloc_cc656815297f75969399c3f4b1ad3de4, i64 noundef 55, ptr noundef nonnull align 1 %e.i.i.i, ptr noalias noundef nonnull readonly align 8 dereferenceable(32) @vtable.1, ptr noalias noundef nonnull readonly align 8 dereferenceable(24) @alloc_f886f96e9a07c60a12107d674cf0d185) #18
          to label %.noexc.i.i unwind label %cleanup.i.i, !dbg !2274, !noalias !2245

.noexc.i.i:                                       ; preds = %bb2.i.i.i
  unreachable

bb4.i.i:                                          ; preds = %"_ZN63_$LT$alloc..alloc..Global$u20$as$u20$core..alloc..Allocator$GT$10deallocate17h0f2d39528d187dc6E.exit.i.i4.i.i.i.i", %cleanup.i.i
  resume { ptr, i32 } %12, !dbg !2275

_ZN8bitflags6parser10ParseError16invalid_hex_flag17h27170d13378b1cd7E.exit: ; preds = %bb1.i.i
  call void @llvm.lifetime.end.p0(i64 0, ptr nonnull %e.i.i.i), !dbg !2276, !noalias !2230
  %_7.sroa.4.0._0.sroa_idx = getelementptr inbounds i8, ptr %_0, i64 8, !dbg !2277
  call void @llvm.memcpy.p0.p0.i64(ptr noundef nonnull align 8 dereferenceable(24) %_7.sroa.4.0._0.sroa_idx, ptr noundef nonnull align 8 dereferenceable(24) %buf.i.i, i64 24, i1 false), !dbg !2278
  call void @llvm.lifetime.end.p0(i64 64, ptr nonnull %formatter.i.i), !dbg !2279, !noalias !2230
  call void @llvm.lifetime.end.p0(i64 24, ptr nonnull %buf.i.i), !dbg !2249, !noalias !2230
  br label %bb2, !dbg !2280

bb2:                                              ; preds = %_ZN8bitflags6parser10ParseError16invalid_hex_flag17h27170d13378b1cd7E.exit, %bb5
  %storemerge = phi i64 [ 3, %bb5 ], [ 2, %_ZN8bitflags6parser10ParseError16invalid_hex_flag17h27170d13378b1cd7E.exit ], !dbg !2207
  store i64 %storemerge, ptr %_0, align 8, !dbg !2207
  ret void, !dbg !2281
}

; bitflags::traits::<impl bitflags::parser::ParseHex for u16>::parse_hex
; Function Attrs: nonlazybind uwtable
define void @"_ZN8bitflags6traits60_$LT$impl$u20$bitflags..parser..ParseHex$u20$for$u20$u16$GT$9parse_hex17h29a013d28567dde1E"(ptr dead_on_unwind noalias nocapture noundef writable writeonly sret([32 x i8]) align 8 dereferenceable(32) %_0, ptr noalias noundef nonnull readonly align 1 %0, i64 noundef %1) unnamed_addr #0 personality ptr @rust_eh_personality !dbg !2282 {
start:
  %e.i.i.i = alloca [0 x i8], align 1
  %formatter.i.i = alloca [64 x i8], align 8
  %buf.i.i = alloca [24 x i8], align 8
  tail call void @llvm.dbg.value(metadata ptr %0, metadata !2303, metadata !DIExpression(DW_OP_LLVM_fragment, 0, 64)), !dbg !2304
  tail call void @llvm.dbg.value(metadata i64 %1, metadata !2303, metadata !DIExpression(DW_OP_LLVM_fragment, 64, 64)), !dbg !2304
; call core::num::<impl u16>::from_str_radix
  %2 = tail call i32 @"_ZN4core3num21_$LT$impl$u20$u16$GT$14from_str_radix17hff815474f954dfe0E"(ptr noalias noundef nonnull readonly align 1 %0, i64 noundef %1, i32 noundef 16), !dbg !2305
  tail call void @llvm.dbg.value(metadata i32 %2, metadata !2306, metadata !DIExpression(DW_OP_constu, 8, DW_OP_shr, DW_OP_LLVM_convert, 32, DW_ATE_unsigned, DW_OP_LLVM_convert, 8, DW_ATE_unsigned, DW_OP_stack_value, DW_OP_LLVM_fragment, 8, 8)), !dbg !2338
  tail call void @llvm.dbg.value(metadata i32 %2, metadata !2306, metadata !DIExpression(DW_OP_constu, 16, DW_OP_shr, DW_OP_LLVM_convert, 32, DW_ATE_unsigned, DW_OP_LLVM_convert, 16, DW_ATE_unsigned, DW_OP_stack_value, DW_OP_LLVM_fragment, 16, 16)), !dbg !2338
  tail call void @llvm.dbg.value(metadata ptr undef, metadata !2333, metadata !DIExpression()), !dbg !2338
  tail call void @llvm.dbg.value(metadata ptr undef, metadata !2340, metadata !DIExpression(DW_OP_deref)), !dbg !2346
  tail call void @llvm.dbg.value(metadata i32 %2, metadata !2306, metadata !DIExpression(DW_OP_LLVM_convert, 32, DW_ATE_unsigned, DW_OP_LLVM_convert, 8, DW_ATE_unsigned, DW_OP_stack_value, DW_OP_LLVM_fragment, 0, 8)), !dbg !2338
  %3 = and i32 %2, 1, !dbg !2348
  %trunc.not = icmp eq i32 %3, 0, !dbg !2348
  br i1 %trunc.not, label %bb5, label %bb4, !dbg !2348

bb5:                                              ; preds = %start
  %.sroa.5.0.extract.shift = lshr i32 %2, 16, !dbg !2305
  tail call void @llvm.dbg.value(metadata i32 %.sroa.5.0.extract.shift, metadata !2306, metadata !DIExpression(DW_OP_LLVM_convert, 32, DW_ATE_unsigned, DW_OP_LLVM_convert, 16, DW_ATE_unsigned, DW_OP_stack_value, DW_OP_LLVM_fragment, 16, 16)), !dbg !2338
  %.sroa.5.0.extract.trunc = trunc i32 %.sroa.5.0.extract.shift to i16, !dbg !2305
  tail call void @llvm.dbg.value(metadata i16 %.sroa.5.0.extract.trunc, metadata !2306, metadata !DIExpression(DW_OP_LLVM_fragment, 16, 16)), !dbg !2338
  tail call void @llvm.dbg.value(metadata i16 %.sroa.5.0.extract.trunc, metadata !2334, metadata !DIExpression()), !dbg !2349
  %4 = getelementptr inbounds i8, ptr %_0, i64 8, !dbg !2350
  store i16 %.sroa.5.0.extract.trunc, ptr %4, align 8, !dbg !2350
  br label %bb2, !dbg !2351

bb4:                                              ; preds = %start
  tail call void @llvm.dbg.value(metadata i32 %2, metadata !2336, metadata !DIExpression(DW_OP_constu, 8, DW_OP_shr, DW_OP_LLVM_convert, 32, DW_ATE_unsigned, DW_OP_LLVM_convert, 8, DW_ATE_unsigned, DW_OP_stack_value)), !dbg !2352
  call void @llvm.dbg.value(metadata ptr %0, metadata !2041, metadata !DIExpression(DW_OP_LLVM_fragment, 0, 64)), !dbg !2353
  call void @llvm.dbg.value(metadata i64 %1, metadata !2041, metadata !DIExpression(DW_OP_LLVM_fragment, 64, 64)), !dbg !2353
  call void @llvm.dbg.value(metadata ptr %0, metadata !2049, metadata !DIExpression(DW_OP_LLVM_fragment, 0, 64)), !dbg !2355
  call void @llvm.dbg.value(metadata i64 %1, metadata !2049, metadata !DIExpression(DW_OP_LLVM_fragment, 64, 64)), !dbg !2355
  call void @llvm.dbg.value(metadata ptr undef, metadata !2056, metadata !DIExpression()), !dbg !2356
  call void @llvm.dbg.declare(metadata ptr %buf.i.i, metadata !2062, metadata !DIExpression()), !dbg !2358
  call void @llvm.dbg.declare(metadata ptr %formatter.i.i, metadata !2064, metadata !DIExpression()), !dbg !2359
  call void @llvm.lifetime.start.p0(i64 24, ptr nonnull %buf.i.i), !dbg !2360, !noalias !2361
  store i64 0, ptr %buf.i.i, align 8, !dbg !2367, !noalias !2361
  %_10.sroa.4.0.buf.sroa_idx.i.i = getelementptr inbounds i8, ptr %buf.i.i, i64 8, !dbg !2367
  store ptr inttoptr (i64 1 to ptr), ptr %_10.sroa.4.0.buf.sroa_idx.i.i, align 8, !dbg !2367, !noalias !2361
  %_10.sroa.5.0.buf.sroa_idx.i.i = getelementptr inbounds i8, ptr %buf.i.i, i64 16, !dbg !2367
  store i64 0, ptr %_10.sroa.5.0.buf.sroa_idx.i.i, align 8, !dbg !2367, !noalias !2361
  call void @llvm.lifetime.start.p0(i64 64, ptr nonnull %formatter.i.i), !dbg !2369, !noalias !2361
  call void @llvm.dbg.value(metadata ptr %buf.i.i, metadata !2085, metadata !DIExpression(DW_OP_LLVM_fragment, 0, 64)), !dbg !2370
  call void @llvm.dbg.value(metadata ptr @vtable.0, metadata !2085, metadata !DIExpression(DW_OP_LLVM_fragment, 64, 64)), !dbg !2370
  %5 = getelementptr inbounds i8, ptr %formatter.i.i, i64 52, !dbg !2372
  store i32 0, ptr %5, align 4, !dbg !2372, !noalias !2361
  %6 = getelementptr inbounds i8, ptr %formatter.i.i, i64 48, !dbg !2372
  store i32 32, ptr %6, align 8, !dbg !2372, !noalias !2361
  %7 = getelementptr inbounds i8, ptr %formatter.i.i, i64 56, !dbg !2372
  store i8 3, ptr %7, align 8, !dbg !2372, !noalias !2361
  store i64 0, ptr %formatter.i.i, align 8, !dbg !2372, !noalias !2361
  %8 = getelementptr inbounds i8, ptr %formatter.i.i, i64 16, !dbg !2372
  store i64 0, ptr %8, align 8, !dbg !2372, !noalias !2361
  %9 = getelementptr inbounds i8, ptr %formatter.i.i, i64 32, !dbg !2372
  store ptr %buf.i.i, ptr %9, align 8, !dbg !2372, !noalias !2361
  %10 = getelementptr inbounds i8, ptr %formatter.i.i, i64 40, !dbg !2372
  store ptr @vtable.0, ptr %10, align 8, !dbg !2372, !noalias !2361
  call void @llvm.dbg.value(metadata ptr undef, metadata !2095, metadata !DIExpression()), !dbg !2373
  call void @llvm.dbg.value(metadata ptr %formatter.i.i, metadata !2100, metadata !DIExpression()), !dbg !2373
; invoke <str as core::fmt::Display>::fmt
  %_0.i2.i.i = invoke noundef zeroext i1 @"_ZN42_$LT$str$u20$as$u20$core..fmt..Display$GT$3fmt17h49e1caa39cb6eebbE"(ptr noalias noundef nonnull readonly align 1 %0, i64 noundef %1, ptr noalias noundef nonnull align 8 dereferenceable(64) %formatter.i.i)
          to label %bb1.i.i unwind label %cleanup.i.i, !dbg !2375, !noalias !2376

cleanup.i.i:                                      ; preds = %bb2.i.i.i, %bb4
  %11 = landingpad { ptr, i32 }
          cleanup
  call void @llvm.experimental.noalias.scope.decl(metadata !2377), !dbg !2380
  call void @llvm.dbg.value(metadata ptr %buf.i.i, metadata !415, metadata !DIExpression()), !dbg !2381
  %_1.val.i.i.i = load i64, ptr %buf.i.i, align 8, !dbg !2383, !alias.scope !2377, !noalias !2361
  call void @llvm.dbg.value(metadata ptr undef, metadata !418, metadata !DIExpression()), !dbg !2384
  call void @llvm.dbg.value(metadata ptr undef, metadata !428, metadata !DIExpression()), !dbg !2386
  call void @llvm.dbg.value(metadata ptr undef, metadata !438, metadata !DIExpression()), !dbg !2388
  call void @llvm.dbg.value(metadata ptr undef, metadata !460, metadata !DIExpression()), !dbg !2390
  %12 = icmp eq i64 %_1.val.i.i.i, 0, !dbg !2392
  br i1 %12, label %bb4.i.i, label %"_ZN63_$LT$alloc..alloc..Global$u20$as$u20$core..alloc..Allocator$GT$10deallocate17h0f2d39528d187dc6E.exit.i.i4.i.i.i.i", !dbg !2392

"_ZN63_$LT$alloc..alloc..Global$u20$as$u20$core..alloc..Allocator$GT$10deallocate17h0f2d39528d187dc6E.exit.i.i4.i.i.i.i": ; preds = %cleanup.i.i
  %_1.val1.i.i.i = load ptr, ptr %_10.sroa.4.0.buf.sroa_idx.i.i, align 8, !dbg !2383, !alias.scope !2377, !noalias !2361, !nonnull !44, !noundef !44
  call void @llvm.dbg.value(metadata ptr %_1.val1.i.i.i, metadata !446, metadata !DIExpression()), !dbg !2393
  call void @llvm.dbg.value(metadata i64 1, metadata !448, metadata !DIExpression(DW_OP_LLVM_fragment, 0, 64)), !dbg !2393
  call void @llvm.dbg.value(metadata i64 %_1.val.i.i.i, metadata !448, metadata !DIExpression(DW_OP_LLVM_fragment, 64, 64)), !dbg !2393
  call void @llvm.dbg.value(metadata i64 1, metadata !494, metadata !DIExpression(DW_OP_LLVM_fragment, 0, 64)), !dbg !2394
  call void @llvm.dbg.value(metadata i64 %_1.val.i.i.i, metadata !494, metadata !DIExpression(DW_OP_LLVM_fragment, 64, 64)), !dbg !2394
  call void @llvm.dbg.value(metadata ptr undef, metadata !502, metadata !DIExpression()), !dbg !2394
  call void @llvm.dbg.value(metadata ptr %_1.val1.i.i.i, metadata !503, metadata !DIExpression()), !dbg !2394
  call void @llvm.dbg.value(metadata ptr %_1.val1.i.i.i, metadata !506, metadata !DIExpression()), !dbg !2396
  call void @llvm.dbg.value(metadata i64 1, metadata !513, metadata !DIExpression(DW_OP_LLVM_fragment, 0, 64)), !dbg !2396
  call void @llvm.dbg.value(metadata i64 %_1.val.i.i.i, metadata !513, metadata !DIExpression(DW_OP_LLVM_fragment, 64, 64)), !dbg !2396
  call void @__rust_dealloc(ptr noundef nonnull %_1.val1.i.i.i, i64 noundef %_1.val.i.i.i, i64 noundef 1) #17, !dbg !2398, !noalias !2399
  br label %bb4.i.i, !dbg !2400

bb1.i.i:                                          ; preds = %bb4
  call void @llvm.lifetime.start.p0(i64 0, ptr nonnull %e.i.i.i), !dbg !2401, !noalias !2361
  call void @llvm.dbg.value(metadata i1 %_0.i2.i.i, metadata !2135, metadata !DIExpression(DW_OP_LLVM_convert, 1, DW_ATE_unsigned, DW_OP_LLVM_convert, 8, DW_ATE_unsigned, DW_OP_stack_value)), !dbg !2403
  call void @llvm.dbg.value(metadata ptr @alloc_cc656815297f75969399c3f4b1ad3de4, metadata !2136, metadata !DIExpression(DW_OP_LLVM_fragment, 0, 64)), !dbg !2403
  call void @llvm.dbg.value(metadata i64 55, metadata !2136, metadata !DIExpression(DW_OP_LLVM_fragment, 64, 64)), !dbg !2403
  call void @llvm.dbg.declare(metadata ptr %e.i.i.i, metadata !2139, metadata !DIExpression()), !dbg !2404
  br i1 %_0.i2.i.i, label %bb2.i.i.i, label %_ZN8bitflags6parser10ParseError16invalid_hex_flag17h27170d13378b1cd7E.exit, !dbg !2401

bb2.i.i.i:                                        ; preds = %bb1.i.i
; invoke core::result::unwrap_failed
  invoke void @_ZN4core6result13unwrap_failed17hebd1efddce947a93E(ptr noalias noundef nonnull readonly align 1 @alloc_cc656815297f75969399c3f4b1ad3de4, i64 noundef 55, ptr noundef nonnull align 1 %e.i.i.i, ptr noalias noundef nonnull readonly align 8 dereferenceable(32) @vtable.1, ptr noalias noundef nonnull readonly align 8 dereferenceable(24) @alloc_f886f96e9a07c60a12107d674cf0d185) #18
          to label %.noexc.i.i unwind label %cleanup.i.i, !dbg !2405, !noalias !2376

.noexc.i.i:                                       ; preds = %bb2.i.i.i
  unreachable

bb4.i.i:                                          ; preds = %"_ZN63_$LT$alloc..alloc..Global$u20$as$u20$core..alloc..Allocator$GT$10deallocate17h0f2d39528d187dc6E.exit.i.i4.i.i.i.i", %cleanup.i.i
  resume { ptr, i32 } %11, !dbg !2406

_ZN8bitflags6parser10ParseError16invalid_hex_flag17h27170d13378b1cd7E.exit: ; preds = %bb1.i.i
  call void @llvm.lifetime.end.p0(i64 0, ptr nonnull %e.i.i.i), !dbg !2407, !noalias !2361
  %_7.sroa.4.0._0.sroa_idx = getelementptr inbounds i8, ptr %_0, i64 8, !dbg !2408
  call void @llvm.memcpy.p0.p0.i64(ptr noundef nonnull align 8 dereferenceable(24) %_7.sroa.4.0._0.sroa_idx, ptr noundef nonnull align 8 dereferenceable(24) %buf.i.i, i64 24, i1 false), !dbg !2409
  call void @llvm.lifetime.end.p0(i64 64, ptr nonnull %formatter.i.i), !dbg !2410, !noalias !2361
  call void @llvm.lifetime.end.p0(i64 24, ptr nonnull %buf.i.i), !dbg !2380, !noalias !2361
  br label %bb2, !dbg !2411

bb2:                                              ; preds = %_ZN8bitflags6parser10ParseError16invalid_hex_flag17h27170d13378b1cd7E.exit, %bb5
  %storemerge = phi i64 [ 2, %_ZN8bitflags6parser10ParseError16invalid_hex_flag17h27170d13378b1cd7E.exit ], [ 3, %bb5 ], !dbg !2338
  store i64 %storemerge, ptr %_0, align 8, !dbg !2338
  ret void, !dbg !2412
}

; bitflags::traits::<impl bitflags::parser::ParseHex for i16>::parse_hex
; Function Attrs: nonlazybind uwtable
define void @"_ZN8bitflags6traits60_$LT$impl$u20$bitflags..parser..ParseHex$u20$for$u20$i16$GT$9parse_hex17h701d432c768ddd7cE"(ptr dead_on_unwind noalias nocapture noundef writable writeonly sret([32 x i8]) align 8 dereferenceable(32) %_0, ptr noalias noundef nonnull readonly align 1 %0, i64 noundef %1) unnamed_addr #0 personality ptr @rust_eh_personality !dbg !2413 {
start:
  %e.i.i.i = alloca [0 x i8], align 1
  %formatter.i.i = alloca [64 x i8], align 8
  %buf.i.i = alloca [24 x i8], align 8
  tail call void @llvm.dbg.value(metadata ptr %0, metadata !2434, metadata !DIExpression(DW_OP_LLVM_fragment, 0, 64)), !dbg !2435
  tail call void @llvm.dbg.value(metadata i64 %1, metadata !2434, metadata !DIExpression(DW_OP_LLVM_fragment, 64, 64)), !dbg !2435
; call core::num::<impl i16>::from_str_radix
  %2 = tail call i32 @"_ZN4core3num21_$LT$impl$u20$i16$GT$14from_str_radix17h4ef6850c52336f05E"(ptr noalias noundef nonnull readonly align 1 %0, i64 noundef %1, i32 noundef 16), !dbg !2436
  tail call void @llvm.dbg.value(metadata i32 %2, metadata !2437, metadata !DIExpression(DW_OP_constu, 8, DW_OP_shr, DW_OP_LLVM_convert, 32, DW_ATE_unsigned, DW_OP_LLVM_convert, 8, DW_ATE_unsigned, DW_OP_stack_value, DW_OP_LLVM_fragment, 8, 8)), !dbg !2469
  tail call void @llvm.dbg.value(metadata i32 %2, metadata !2437, metadata !DIExpression(DW_OP_constu, 16, DW_OP_shr, DW_OP_LLVM_convert, 32, DW_ATE_unsigned, DW_OP_LLVM_convert, 16, DW_ATE_unsigned, DW_OP_stack_value, DW_OP_LLVM_fragment, 16, 16)), !dbg !2469
  tail call void @llvm.dbg.value(metadata ptr undef, metadata !2464, metadata !DIExpression()), !dbg !2469
  tail call void @llvm.dbg.value(metadata ptr undef, metadata !2471, metadata !DIExpression(DW_OP_deref)), !dbg !2477
  tail call void @llvm.dbg.value(metadata i32 %2, metadata !2437, metadata !DIExpression(DW_OP_LLVM_convert, 32, DW_ATE_unsigned, DW_OP_LLVM_convert, 8, DW_ATE_unsigned, DW_OP_stack_value, DW_OP_LLVM_fragment, 0, 8)), !dbg !2469
  %3 = and i32 %2, 1, !dbg !2479
  %trunc.not = icmp eq i32 %3, 0, !dbg !2479
  br i1 %trunc.not, label %bb5, label %bb4, !dbg !2479

bb5:                                              ; preds = %start
  %.sroa.5.0.extract.shift = lshr i32 %2, 16, !dbg !2436
  tail call void @llvm.dbg.value(metadata i32 %.sroa.5.0.extract.shift, metadata !2437, metadata !DIExpression(DW_OP_LLVM_convert, 32, DW_ATE_unsigned, DW_OP_LLVM_convert, 16, DW_ATE_unsigned, DW_OP_stack_value, DW_OP_LLVM_fragment, 16, 16)), !dbg !2469
  %.sroa.5.0.extract.trunc = trunc i32 %.sroa.5.0.extract.shift to i16, !dbg !2436
  tail call void @llvm.dbg.value(metadata i16 %.sroa.5.0.extract.trunc, metadata !2437, metadata !DIExpression(DW_OP_LLVM_fragment, 16, 16)), !dbg !2469
  tail call void @llvm.dbg.value(metadata i16 %.sroa.5.0.extract.trunc, metadata !2465, metadata !DIExpression()), !dbg !2480
  %4 = getelementptr inbounds i8, ptr %_0, i64 8, !dbg !2481
  store i16 %.sroa.5.0.extract.trunc, ptr %4, align 8, !dbg !2481
  br label %bb2, !dbg !2482

bb4:                                              ; preds = %start
  tail call void @llvm.dbg.value(metadata i32 %2, metadata !2467, metadata !DIExpression(DW_OP_constu, 8, DW_OP_shr, DW_OP_LLVM_convert, 32, DW_ATE_unsigned, DW_OP_LLVM_convert, 8, DW_ATE_unsigned, DW_OP_stack_value)), !dbg !2483
  call void @llvm.dbg.value(metadata ptr %0, metadata !2041, metadata !DIExpression(DW_OP_LLVM_fragment, 0, 64)), !dbg !2484
  call void @llvm.dbg.value(metadata i64 %1, metadata !2041, metadata !DIExpression(DW_OP_LLVM_fragment, 64, 64)), !dbg !2484
  call void @llvm.dbg.value(metadata ptr %0, metadata !2049, metadata !DIExpression(DW_OP_LLVM_fragment, 0, 64)), !dbg !2486
  call void @llvm.dbg.value(metadata i64 %1, metadata !2049, metadata !DIExpression(DW_OP_LLVM_fragment, 64, 64)), !dbg !2486
  call void @llvm.dbg.value(metadata ptr undef, metadata !2056, metadata !DIExpression()), !dbg !2487
  call void @llvm.dbg.declare(metadata ptr %buf.i.i, metadata !2062, metadata !DIExpression()), !dbg !2489
  call void @llvm.dbg.declare(metadata ptr %formatter.i.i, metadata !2064, metadata !DIExpression()), !dbg !2490
  call void @llvm.lifetime.start.p0(i64 24, ptr nonnull %buf.i.i), !dbg !2491, !noalias !2492
  store i64 0, ptr %buf.i.i, align 8, !dbg !2498, !noalias !2492
  %_10.sroa.4.0.buf.sroa_idx.i.i = getelementptr inbounds i8, ptr %buf.i.i, i64 8, !dbg !2498
  store ptr inttoptr (i64 1 to ptr), ptr %_10.sroa.4.0.buf.sroa_idx.i.i, align 8, !dbg !2498, !noalias !2492
  %_10.sroa.5.0.buf.sroa_idx.i.i = getelementptr inbounds i8, ptr %buf.i.i, i64 16, !dbg !2498
  store i64 0, ptr %_10.sroa.5.0.buf.sroa_idx.i.i, align 8, !dbg !2498, !noalias !2492
  call void @llvm.lifetime.start.p0(i64 64, ptr nonnull %formatter.i.i), !dbg !2500, !noalias !2492
  call void @llvm.dbg.value(metadata ptr %buf.i.i, metadata !2085, metadata !DIExpression(DW_OP_LLVM_fragment, 0, 64)), !dbg !2501
  call void @llvm.dbg.value(metadata ptr @vtable.0, metadata !2085, metadata !DIExpression(DW_OP_LLVM_fragment, 64, 64)), !dbg !2501
  %5 = getelementptr inbounds i8, ptr %formatter.i.i, i64 52, !dbg !2503
  store i32 0, ptr %5, align 4, !dbg !2503, !noalias !2492
  %6 = getelementptr inbounds i8, ptr %formatter.i.i, i64 48, !dbg !2503
  store i32 32, ptr %6, align 8, !dbg !2503, !noalias !2492
  %7 = getelementptr inbounds i8, ptr %formatter.i.i, i64 56, !dbg !2503
  store i8 3, ptr %7, align 8, !dbg !2503, !noalias !2492
  store i64 0, ptr %formatter.i.i, align 8, !dbg !2503, !noalias !2492
  %8 = getelementptr inbounds i8, ptr %formatter.i.i, i64 16, !dbg !2503
  store i64 0, ptr %8, align 8, !dbg !2503, !noalias !2492
  %9 = getelementptr inbounds i8, ptr %formatter.i.i, i64 32, !dbg !2503
  store ptr %buf.i.i, ptr %9, align 8, !dbg !2503, !noalias !2492
  %10 = getelementptr inbounds i8, ptr %formatter.i.i, i64 40, !dbg !2503
  store ptr @vtable.0, ptr %10, align 8, !dbg !2503, !noalias !2492
  call void @llvm.dbg.value(metadata ptr undef, metadata !2095, metadata !DIExpression()), !dbg !2504
  call void @llvm.dbg.value(metadata ptr %formatter.i.i, metadata !2100, metadata !DIExpression()), !dbg !2504
; invoke <str as core::fmt::Display>::fmt
  %_0.i2.i.i = invoke noundef zeroext i1 @"_ZN42_$LT$str$u20$as$u20$core..fmt..Display$GT$3fmt17h49e1caa39cb6eebbE"(ptr noalias noundef nonnull readonly align 1 %0, i64 noundef %1, ptr noalias noundef nonnull align 8 dereferenceable(64) %formatter.i.i)
          to label %bb1.i.i unwind label %cleanup.i.i, !dbg !2506, !noalias !2507

cleanup.i.i:                                      ; preds = %bb2.i.i.i, %bb4
  %11 = landingpad { ptr, i32 }
          cleanup
  call void @llvm.experimental.noalias.scope.decl(metadata !2508), !dbg !2511
  call void @llvm.dbg.value(metadata ptr %buf.i.i, metadata !415, metadata !DIExpression()), !dbg !2512
  %_1.val.i.i.i = load i64, ptr %buf.i.i, align 8, !dbg !2514, !alias.scope !2508, !noalias !2492
  call void @llvm.dbg.value(metadata ptr undef, metadata !418, metadata !DIExpression()), !dbg !2515
  call void @llvm.dbg.value(metadata ptr undef, metadata !428, metadata !DIExpression()), !dbg !2517
  call void @llvm.dbg.value(metadata ptr undef, metadata !438, metadata !DIExpression()), !dbg !2519
  call void @llvm.dbg.value(metadata ptr undef, metadata !460, metadata !DIExpression()), !dbg !2521
  %12 = icmp eq i64 %_1.val.i.i.i, 0, !dbg !2523
  br i1 %12, label %bb4.i.i, label %"_ZN63_$LT$alloc..alloc..Global$u20$as$u20$core..alloc..Allocator$GT$10deallocate17h0f2d39528d187dc6E.exit.i.i4.i.i.i.i", !dbg !2523

"_ZN63_$LT$alloc..alloc..Global$u20$as$u20$core..alloc..Allocator$GT$10deallocate17h0f2d39528d187dc6E.exit.i.i4.i.i.i.i": ; preds = %cleanup.i.i
  %_1.val1.i.i.i = load ptr, ptr %_10.sroa.4.0.buf.sroa_idx.i.i, align 8, !dbg !2514, !alias.scope !2508, !noalias !2492, !nonnull !44, !noundef !44
  call void @llvm.dbg.value(metadata ptr %_1.val1.i.i.i, metadata !446, metadata !DIExpression()), !dbg !2524
  call void @llvm.dbg.value(metadata i64 1, metadata !448, metadata !DIExpression(DW_OP_LLVM_fragment, 0, 64)), !dbg !2524
  call void @llvm.dbg.value(metadata i64 %_1.val.i.i.i, metadata !448, metadata !DIExpression(DW_OP_LLVM_fragment, 64, 64)), !dbg !2524
  call void @llvm.dbg.value(metadata i64 1, metadata !494, metadata !DIExpression(DW_OP_LLVM_fragment, 0, 64)), !dbg !2525
  call void @llvm.dbg.value(metadata i64 %_1.val.i.i.i, metadata !494, metadata !DIExpression(DW_OP_LLVM_fragment, 64, 64)), !dbg !2525
  call void @llvm.dbg.value(metadata ptr undef, metadata !502, metadata !DIExpression()), !dbg !2525
  call void @llvm.dbg.value(metadata ptr %_1.val1.i.i.i, metadata !503, metadata !DIExpression()), !dbg !2525
  call void @llvm.dbg.value(metadata ptr %_1.val1.i.i.i, metadata !506, metadata !DIExpression()), !dbg !2527
  call void @llvm.dbg.value(metadata i64 1, metadata !513, metadata !DIExpression(DW_OP_LLVM_fragment, 0, 64)), !dbg !2527
  call void @llvm.dbg.value(metadata i64 %_1.val.i.i.i, metadata !513, metadata !DIExpression(DW_OP_LLVM_fragment, 64, 64)), !dbg !2527
  call void @__rust_dealloc(ptr noundef nonnull %_1.val1.i.i.i, i64 noundef %_1.val.i.i.i, i64 noundef 1) #17, !dbg !2529, !noalias !2530
  br label %bb4.i.i, !dbg !2531

bb1.i.i:                                          ; preds = %bb4
  call void @llvm.lifetime.start.p0(i64 0, ptr nonnull %e.i.i.i), !dbg !2532, !noalias !2492
  call void @llvm.dbg.value(metadata i1 %_0.i2.i.i, metadata !2135, metadata !DIExpression(DW_OP_LLVM_convert, 1, DW_ATE_unsigned, DW_OP_LLVM_convert, 8, DW_ATE_unsigned, DW_OP_stack_value)), !dbg !2534
  call void @llvm.dbg.value(metadata ptr @alloc_cc656815297f75969399c3f4b1ad3de4, metadata !2136, metadata !DIExpression(DW_OP_LLVM_fragment, 0, 64)), !dbg !2534
  call void @llvm.dbg.value(metadata i64 55, metadata !2136, metadata !DIExpression(DW_OP_LLVM_fragment, 64, 64)), !dbg !2534
  call void @llvm.dbg.declare(metadata ptr %e.i.i.i, metadata !2139, metadata !DIExpression()), !dbg !2535
  br i1 %_0.i2.i.i, label %bb2.i.i.i, label %_ZN8bitflags6parser10ParseError16invalid_hex_flag17h27170d13378b1cd7E.exit, !dbg !2532

bb2.i.i.i:                                        ; preds = %bb1.i.i
; invoke core::result::unwrap_failed
  invoke void @_ZN4core6result13unwrap_failed17hebd1efddce947a93E(ptr noalias noundef nonnull readonly align 1 @alloc_cc656815297f75969399c3f4b1ad3de4, i64 noundef 55, ptr noundef nonnull align 1 %e.i.i.i, ptr noalias noundef nonnull readonly align 8 dereferenceable(32) @vtable.1, ptr noalias noundef nonnull readonly align 8 dereferenceable(24) @alloc_f886f96e9a07c60a12107d674cf0d185) #18
          to label %.noexc.i.i unwind label %cleanup.i.i, !dbg !2536, !noalias !2507

.noexc.i.i:                                       ; preds = %bb2.i.i.i
  unreachable

bb4.i.i:                                          ; preds = %"_ZN63_$LT$alloc..alloc..Global$u20$as$u20$core..alloc..Allocator$GT$10deallocate17h0f2d39528d187dc6E.exit.i.i4.i.i.i.i", %cleanup.i.i
  resume { ptr, i32 } %11, !dbg !2537

_ZN8bitflags6parser10ParseError16invalid_hex_flag17h27170d13378b1cd7E.exit: ; preds = %bb1.i.i
  call void @llvm.lifetime.end.p0(i64 0, ptr nonnull %e.i.i.i), !dbg !2538, !noalias !2492
  %_7.sroa.4.0._0.sroa_idx = getelementptr inbounds i8, ptr %_0, i64 8, !dbg !2539
  call void @llvm.memcpy.p0.p0.i64(ptr noundef nonnull align 8 dereferenceable(24) %_7.sroa.4.0._0.sroa_idx, ptr noundef nonnull align 8 dereferenceable(24) %buf.i.i, i64 24, i1 false), !dbg !2540
  call void @llvm.lifetime.end.p0(i64 64, ptr nonnull %formatter.i.i), !dbg !2541, !noalias !2492
  call void @llvm.lifetime.end.p0(i64 24, ptr nonnull %buf.i.i), !dbg !2511, !noalias !2492
  br label %bb2, !dbg !2542

bb2:                                              ; preds = %_ZN8bitflags6parser10ParseError16invalid_hex_flag17h27170d13378b1cd7E.exit, %bb5
  %storemerge = phi i64 [ 2, %_ZN8bitflags6parser10ParseError16invalid_hex_flag17h27170d13378b1cd7E.exit ], [ 3, %bb5 ], !dbg !2469
  store i64 %storemerge, ptr %_0, align 8, !dbg !2469
  ret void, !dbg !2543
}

; bitflags::traits::<impl bitflags::parser::ParseHex for u32>::parse_hex
; Function Attrs: nonlazybind uwtable
define void @"_ZN8bitflags6traits60_$LT$impl$u20$bitflags..parser..ParseHex$u20$for$u20$u32$GT$9parse_hex17h162920187d522debE"(ptr dead_on_unwind noalias nocapture noundef writable writeonly sret([32 x i8]) align 8 dereferenceable(32) %_0, ptr noalias noundef nonnull readonly align 1 %0, i64 noundef %1) unnamed_addr #0 personality ptr @rust_eh_personality !dbg !2544 {
start:
  %e.i.i.i = alloca [0 x i8], align 1
  %formatter.i.i = alloca [64 x i8], align 8
  %buf.i.i = alloca [24 x i8], align 8
  tail call void @llvm.dbg.value(metadata ptr %0, metadata !2564, metadata !DIExpression(DW_OP_LLVM_fragment, 0, 64)), !dbg !2565
  tail call void @llvm.dbg.value(metadata i64 %1, metadata !2564, metadata !DIExpression(DW_OP_LLVM_fragment, 64, 64)), !dbg !2565
; call core::num::<impl u32>::from_str_radix
  %2 = tail call i64 @"_ZN4core3num21_$LT$impl$u20$u32$GT$14from_str_radix17h4d70b5448c9c50e7E"(ptr noalias noundef nonnull readonly align 1 %0, i64 noundef %1, i32 noundef 16), !dbg !2566
  tail call void @llvm.dbg.value(metadata i64 %2, metadata !2567, metadata !DIExpression(DW_OP_constu, 8, DW_OP_shr, DW_OP_LLVM_convert, 64, DW_ATE_unsigned, DW_OP_LLVM_convert, 8, DW_ATE_unsigned, DW_OP_stack_value, DW_OP_LLVM_fragment, 8, 8)), !dbg !2599
  tail call void @llvm.dbg.value(metadata i64 %2, metadata !2567, metadata !DIExpression(DW_OP_constu, 16, DW_OP_shr, DW_OP_LLVM_convert, 64, DW_ATE_unsigned, DW_OP_LLVM_convert, 16, DW_ATE_unsigned, DW_OP_stack_value, DW_OP_LLVM_fragment, 16, 16)), !dbg !2599
  tail call void @llvm.dbg.value(metadata i64 %2, metadata !2567, metadata !DIExpression(DW_OP_constu, 32, DW_OP_shr, DW_OP_LLVM_convert, 64, DW_ATE_unsigned, DW_OP_LLVM_convert, 32, DW_ATE_unsigned, DW_OP_stack_value, DW_OP_LLVM_fragment, 32, 32)), !dbg !2599
  tail call void @llvm.dbg.value(metadata ptr undef, metadata !2594, metadata !DIExpression()), !dbg !2599
  tail call void @llvm.dbg.value(metadata ptr undef, metadata !2601, metadata !DIExpression(DW_OP_deref)), !dbg !2607
  tail call void @llvm.dbg.value(metadata i64 %2, metadata !2567, metadata !DIExpression(DW_OP_LLVM_convert, 64, DW_ATE_unsigned, DW_OP_LLVM_convert, 8, DW_ATE_unsigned, DW_OP_stack_value, DW_OP_LLVM_fragment, 0, 8)), !dbg !2599
  %3 = and i64 %2, 1, !dbg !2609
  %trunc.not = icmp eq i64 %3, 0, !dbg !2609
  br i1 %trunc.not, label %bb5, label %bb4, !dbg !2609

bb5:                                              ; preds = %start
  %.sroa.6.0.extract.shift = lshr i64 %2, 32, !dbg !2566
  tail call void @llvm.dbg.value(metadata i64 %.sroa.6.0.extract.shift, metadata !2567, metadata !DIExpression(DW_OP_LLVM_convert, 64, DW_ATE_unsigned, DW_OP_LLVM_convert, 32, DW_ATE_unsigned, DW_OP_stack_value, DW_OP_LLVM_fragment, 32, 32)), !dbg !2599
  %.sroa.6.0.extract.trunc = trunc i64 %.sroa.6.0.extract.shift to i32, !dbg !2566
  tail call void @llvm.dbg.value(metadata i32 %.sroa.6.0.extract.trunc, metadata !2567, metadata !DIExpression(DW_OP_LLVM_fragment, 32, 32)), !dbg !2599
  tail call void @llvm.dbg.value(metadata i32 %.sroa.6.0.extract.trunc, metadata !2595, metadata !DIExpression()), !dbg !2610
  %4 = getelementptr inbounds i8, ptr %_0, i64 8, !dbg !2611
  store i32 %.sroa.6.0.extract.trunc, ptr %4, align 8, !dbg !2611
  br label %bb2, !dbg !2612

bb4:                                              ; preds = %start
  tail call void @llvm.dbg.value(metadata i64 %2, metadata !2597, metadata !DIExpression(DW_OP_constu, 8, DW_OP_shr, DW_OP_LLVM_convert, 64, DW_ATE_unsigned, DW_OP_LLVM_convert, 8, DW_ATE_unsigned, DW_OP_stack_value)), !dbg !2613
  call void @llvm.dbg.value(metadata ptr %0, metadata !2041, metadata !DIExpression(DW_OP_LLVM_fragment, 0, 64)), !dbg !2614
  call void @llvm.dbg.value(metadata i64 %1, metadata !2041, metadata !DIExpression(DW_OP_LLVM_fragment, 64, 64)), !dbg !2614
  call void @llvm.dbg.value(metadata ptr %0, metadata !2049, metadata !DIExpression(DW_OP_LLVM_fragment, 0, 64)), !dbg !2616
  call void @llvm.dbg.value(metadata i64 %1, metadata !2049, metadata !DIExpression(DW_OP_LLVM_fragment, 64, 64)), !dbg !2616
  call void @llvm.dbg.value(metadata ptr undef, metadata !2056, metadata !DIExpression()), !dbg !2617
  call void @llvm.dbg.declare(metadata ptr %buf.i.i, metadata !2062, metadata !DIExpression()), !dbg !2619
  call void @llvm.dbg.declare(metadata ptr %formatter.i.i, metadata !2064, metadata !DIExpression()), !dbg !2620
  call void @llvm.lifetime.start.p0(i64 24, ptr nonnull %buf.i.i), !dbg !2621, !noalias !2622
  store i64 0, ptr %buf.i.i, align 8, !dbg !2628, !noalias !2622
  %_10.sroa.4.0.buf.sroa_idx.i.i = getelementptr inbounds i8, ptr %buf.i.i, i64 8, !dbg !2628
  store ptr inttoptr (i64 1 to ptr), ptr %_10.sroa.4.0.buf.sroa_idx.i.i, align 8, !dbg !2628, !noalias !2622
  %_10.sroa.5.0.buf.sroa_idx.i.i = getelementptr inbounds i8, ptr %buf.i.i, i64 16, !dbg !2628
  store i64 0, ptr %_10.sroa.5.0.buf.sroa_idx.i.i, align 8, !dbg !2628, !noalias !2622
  call void @llvm.lifetime.start.p0(i64 64, ptr nonnull %formatter.i.i), !dbg !2630, !noalias !2622
  call void @llvm.dbg.value(metadata ptr %buf.i.i, metadata !2085, metadata !DIExpression(DW_OP_LLVM_fragment, 0, 64)), !dbg !2631
  call void @llvm.dbg.value(metadata ptr @vtable.0, metadata !2085, metadata !DIExpression(DW_OP_LLVM_fragment, 64, 64)), !dbg !2631
  %5 = getelementptr inbounds i8, ptr %formatter.i.i, i64 52, !dbg !2633
  store i32 0, ptr %5, align 4, !dbg !2633, !noalias !2622
  %6 = getelementptr inbounds i8, ptr %formatter.i.i, i64 48, !dbg !2633
  store i32 32, ptr %6, align 8, !dbg !2633, !noalias !2622
  %7 = getelementptr inbounds i8, ptr %formatter.i.i, i64 56, !dbg !2633
  store i8 3, ptr %7, align 8, !dbg !2633, !noalias !2622
  store i64 0, ptr %formatter.i.i, align 8, !dbg !2633, !noalias !2622
  %8 = getelementptr inbounds i8, ptr %formatter.i.i, i64 16, !dbg !2633
  store i64 0, ptr %8, align 8, !dbg !2633, !noalias !2622
  %9 = getelementptr inbounds i8, ptr %formatter.i.i, i64 32, !dbg !2633
  store ptr %buf.i.i, ptr %9, align 8, !dbg !2633, !noalias !2622
  %10 = getelementptr inbounds i8, ptr %formatter.i.i, i64 40, !dbg !2633
  store ptr @vtable.0, ptr %10, align 8, !dbg !2633, !noalias !2622
  call void @llvm.dbg.value(metadata ptr undef, metadata !2095, metadata !DIExpression()), !dbg !2634
  call void @llvm.dbg.value(metadata ptr %formatter.i.i, metadata !2100, metadata !DIExpression()), !dbg !2634
; invoke <str as core::fmt::Display>::fmt
  %_0.i2.i.i = invoke noundef zeroext i1 @"_ZN42_$LT$str$u20$as$u20$core..fmt..Display$GT$3fmt17h49e1caa39cb6eebbE"(ptr noalias noundef nonnull readonly align 1 %0, i64 noundef %1, ptr noalias noundef nonnull align 8 dereferenceable(64) %formatter.i.i)
          to label %bb1.i.i unwind label %cleanup.i.i, !dbg !2636, !noalias !2637

cleanup.i.i:                                      ; preds = %bb2.i.i.i, %bb4
  %11 = landingpad { ptr, i32 }
          cleanup
  call void @llvm.experimental.noalias.scope.decl(metadata !2638), !dbg !2641
  call void @llvm.dbg.value(metadata ptr %buf.i.i, metadata !415, metadata !DIExpression()), !dbg !2642
  %_1.val.i.i.i = load i64, ptr %buf.i.i, align 8, !dbg !2644, !alias.scope !2638, !noalias !2622
  call void @llvm.dbg.value(metadata ptr undef, metadata !418, metadata !DIExpression()), !dbg !2645
  call void @llvm.dbg.value(metadata ptr undef, metadata !428, metadata !DIExpression()), !dbg !2647
  call void @llvm.dbg.value(metadata ptr undef, metadata !438, metadata !DIExpression()), !dbg !2649
  call void @llvm.dbg.value(metadata ptr undef, metadata !460, metadata !DIExpression()), !dbg !2651
  %12 = icmp eq i64 %_1.val.i.i.i, 0, !dbg !2653
  br i1 %12, label %bb4.i.i, label %"_ZN63_$LT$alloc..alloc..Global$u20$as$u20$core..alloc..Allocator$GT$10deallocate17h0f2d39528d187dc6E.exit.i.i4.i.i.i.i", !dbg !2653

"_ZN63_$LT$alloc..alloc..Global$u20$as$u20$core..alloc..Allocator$GT$10deallocate17h0f2d39528d187dc6E.exit.i.i4.i.i.i.i": ; preds = %cleanup.i.i
  %_1.val1.i.i.i = load ptr, ptr %_10.sroa.4.0.buf.sroa_idx.i.i, align 8, !dbg !2644, !alias.scope !2638, !noalias !2622, !nonnull !44, !noundef !44
  call void @llvm.dbg.value(metadata ptr %_1.val1.i.i.i, metadata !446, metadata !DIExpression()), !dbg !2654
  call void @llvm.dbg.value(metadata i64 1, metadata !448, metadata !DIExpression(DW_OP_LLVM_fragment, 0, 64)), !dbg !2654
  call void @llvm.dbg.value(metadata i64 %_1.val.i.i.i, metadata !448, metadata !DIExpression(DW_OP_LLVM_fragment, 64, 64)), !dbg !2654
  call void @llvm.dbg.value(metadata i64 1, metadata !494, metadata !DIExpression(DW_OP_LLVM_fragment, 0, 64)), !dbg !2655
  call void @llvm.dbg.value(metadata i64 %_1.val.i.i.i, metadata !494, metadata !DIExpression(DW_OP_LLVM_fragment, 64, 64)), !dbg !2655
  call void @llvm.dbg.value(metadata ptr undef, metadata !502, metadata !DIExpression()), !dbg !2655
  call void @llvm.dbg.value(metadata ptr %_1.val1.i.i.i, metadata !503, metadata !DIExpression()), !dbg !2655
  call void @llvm.dbg.value(metadata ptr %_1.val1.i.i.i, metadata !506, metadata !DIExpression()), !dbg !2657
  call void @llvm.dbg.value(metadata i64 1, metadata !513, metadata !DIExpression(DW_OP_LLVM_fragment, 0, 64)), !dbg !2657
  call void @llvm.dbg.value(metadata i64 %_1.val.i.i.i, metadata !513, metadata !DIExpression(DW_OP_LLVM_fragment, 64, 64)), !dbg !2657
  call void @__rust_dealloc(ptr noundef nonnull %_1.val1.i.i.i, i64 noundef %_1.val.i.i.i, i64 noundef 1) #17, !dbg !2659, !noalias !2660
  br label %bb4.i.i, !dbg !2661

bb1.i.i:                                          ; preds = %bb4
  call void @llvm.lifetime.start.p0(i64 0, ptr nonnull %e.i.i.i), !dbg !2662, !noalias !2622
  call void @llvm.dbg.value(metadata i1 %_0.i2.i.i, metadata !2135, metadata !DIExpression(DW_OP_LLVM_convert, 1, DW_ATE_unsigned, DW_OP_LLVM_convert, 8, DW_ATE_unsigned, DW_OP_stack_value)), !dbg !2664
  call void @llvm.dbg.value(metadata ptr @alloc_cc656815297f75969399c3f4b1ad3de4, metadata !2136, metadata !DIExpression(DW_OP_LLVM_fragment, 0, 64)), !dbg !2664
  call void @llvm.dbg.value(metadata i64 55, metadata !2136, metadata !DIExpression(DW_OP_LLVM_fragment, 64, 64)), !dbg !2664
  call void @llvm.dbg.declare(metadata ptr %e.i.i.i, metadata !2139, metadata !DIExpression()), !dbg !2665
  br i1 %_0.i2.i.i, label %bb2.i.i.i, label %_ZN8bitflags6parser10ParseError16invalid_hex_flag17h27170d13378b1cd7E.exit, !dbg !2662

bb2.i.i.i:                                        ; preds = %bb1.i.i
; invoke core::result::unwrap_failed
  invoke void @_ZN4core6result13unwrap_failed17hebd1efddce947a93E(ptr noalias noundef nonnull readonly align 1 @alloc_cc656815297f75969399c3f4b1ad3de4, i64 noundef 55, ptr noundef nonnull align 1 %e.i.i.i, ptr noalias noundef nonnull readonly align 8 dereferenceable(32) @vtable.1, ptr noalias noundef nonnull readonly align 8 dereferenceable(24) @alloc_f886f96e9a07c60a12107d674cf0d185) #18
          to label %.noexc.i.i unwind label %cleanup.i.i, !dbg !2666, !noalias !2637

.noexc.i.i:                                       ; preds = %bb2.i.i.i
  unreachable

bb4.i.i:                                          ; preds = %"_ZN63_$LT$alloc..alloc..Global$u20$as$u20$core..alloc..Allocator$GT$10deallocate17h0f2d39528d187dc6E.exit.i.i4.i.i.i.i", %cleanup.i.i
  resume { ptr, i32 } %11, !dbg !2667

_ZN8bitflags6parser10ParseError16invalid_hex_flag17h27170d13378b1cd7E.exit: ; preds = %bb1.i.i
  call void @llvm.lifetime.end.p0(i64 0, ptr nonnull %e.i.i.i), !dbg !2668, !noalias !2622
  %_7.sroa.4.0._0.sroa_idx = getelementptr inbounds i8, ptr %_0, i64 8, !dbg !2669
  call void @llvm.memcpy.p0.p0.i64(ptr noundef nonnull align 8 dereferenceable(24) %_7.sroa.4.0._0.sroa_idx, ptr noundef nonnull align 8 dereferenceable(24) %buf.i.i, i64 24, i1 false), !dbg !2670
  call void @llvm.lifetime.end.p0(i64 64, ptr nonnull %formatter.i.i), !dbg !2671, !noalias !2622
  call void @llvm.lifetime.end.p0(i64 24, ptr nonnull %buf.i.i), !dbg !2641, !noalias !2622
  br label %bb2, !dbg !2672

bb2:                                              ; preds = %_ZN8bitflags6parser10ParseError16invalid_hex_flag17h27170d13378b1cd7E.exit, %bb5
  %storemerge = phi i64 [ 2, %_ZN8bitflags6parser10ParseError16invalid_hex_flag17h27170d13378b1cd7E.exit ], [ 3, %bb5 ], !dbg !2599
  store i64 %storemerge, ptr %_0, align 8, !dbg !2599
  ret void, !dbg !2673
}

; bitflags::traits::<impl bitflags::parser::ParseHex for i32>::parse_hex
; Function Attrs: nonlazybind uwtable
define void @"_ZN8bitflags6traits60_$LT$impl$u20$bitflags..parser..ParseHex$u20$for$u20$i32$GT$9parse_hex17h6581b01abde1397dE"(ptr dead_on_unwind noalias nocapture noundef writable writeonly sret([32 x i8]) align 8 dereferenceable(32) %_0, ptr noalias noundef nonnull readonly align 1 %0, i64 noundef %1) unnamed_addr #0 personality ptr @rust_eh_personality !dbg !2674 {
start:
  %e.i.i.i = alloca [0 x i8], align 1
  %formatter.i.i = alloca [64 x i8], align 8
  %buf.i.i = alloca [24 x i8], align 8
  tail call void @llvm.dbg.value(metadata ptr %0, metadata !2695, metadata !DIExpression(DW_OP_LLVM_fragment, 0, 64)), !dbg !2696
  tail call void @llvm.dbg.value(metadata i64 %1, metadata !2695, metadata !DIExpression(DW_OP_LLVM_fragment, 64, 64)), !dbg !2696
; call core::num::<impl i32>::from_str_radix
  %2 = tail call i64 @"_ZN4core3num21_$LT$impl$u20$i32$GT$14from_str_radix17h67a4a3ae962b2ca5E"(ptr noalias noundef nonnull readonly align 1 %0, i64 noundef %1, i32 noundef 16), !dbg !2697
  tail call void @llvm.dbg.value(metadata i64 %2, metadata !2698, metadata !DIExpression(DW_OP_constu, 8, DW_OP_shr, DW_OP_LLVM_convert, 64, DW_ATE_unsigned, DW_OP_LLVM_convert, 8, DW_ATE_unsigned, DW_OP_stack_value, DW_OP_LLVM_fragment, 8, 8)), !dbg !2730
  tail call void @llvm.dbg.value(metadata i64 %2, metadata !2698, metadata !DIExpression(DW_OP_constu, 16, DW_OP_shr, DW_OP_LLVM_convert, 64, DW_ATE_unsigned, DW_OP_LLVM_convert, 16, DW_ATE_unsigned, DW_OP_stack_value, DW_OP_LLVM_fragment, 16, 16)), !dbg !2730
  tail call void @llvm.dbg.value(metadata i64 %2, metadata !2698, metadata !DIExpression(DW_OP_constu, 32, DW_OP_shr, DW_OP_LLVM_convert, 64, DW_ATE_unsigned, DW_OP_LLVM_convert, 32, DW_ATE_unsigned, DW_OP_stack_value, DW_OP_LLVM_fragment, 32, 32)), !dbg !2730
  tail call void @llvm.dbg.value(metadata ptr undef, metadata !2725, metadata !DIExpression()), !dbg !2730
  tail call void @llvm.dbg.value(metadata ptr undef, metadata !2732, metadata !DIExpression(DW_OP_deref)), !dbg !2738
  tail call void @llvm.dbg.value(metadata i64 %2, metadata !2698, metadata !DIExpression(DW_OP_LLVM_convert, 64, DW_ATE_unsigned, DW_OP_LLVM_convert, 8, DW_ATE_unsigned, DW_OP_stack_value, DW_OP_LLVM_fragment, 0, 8)), !dbg !2730
  %3 = and i64 %2, 1, !dbg !2740
  %trunc.not = icmp eq i64 %3, 0, !dbg !2740
  br i1 %trunc.not, label %bb5, label %bb4, !dbg !2740

bb5:                                              ; preds = %start
  %.sroa.6.0.extract.shift = lshr i64 %2, 32, !dbg !2697
  tail call void @llvm.dbg.value(metadata i64 %.sroa.6.0.extract.shift, metadata !2698, metadata !DIExpression(DW_OP_LLVM_convert, 64, DW_ATE_unsigned, DW_OP_LLVM_convert, 32, DW_ATE_unsigned, DW_OP_stack_value, DW_OP_LLVM_fragment, 32, 32)), !dbg !2730
  %.sroa.6.0.extract.trunc = trunc i64 %.sroa.6.0.extract.shift to i32, !dbg !2697
  tail call void @llvm.dbg.value(metadata i32 %.sroa.6.0.extract.trunc, metadata !2698, metadata !DIExpression(DW_OP_LLVM_fragment, 32, 32)), !dbg !2730
  tail call void @llvm.dbg.value(metadata i32 %.sroa.6.0.extract.trunc, metadata !2726, metadata !DIExpression()), !dbg !2741
  %4 = getelementptr inbounds i8, ptr %_0, i64 8, !dbg !2742
  store i32 %.sroa.6.0.extract.trunc, ptr %4, align 8, !dbg !2742
  br label %bb2, !dbg !2743

bb4:                                              ; preds = %start
  tail call void @llvm.dbg.value(metadata i64 %2, metadata !2728, metadata !DIExpression(DW_OP_constu, 8, DW_OP_shr, DW_OP_LLVM_convert, 64, DW_ATE_unsigned, DW_OP_LLVM_convert, 8, DW_ATE_unsigned, DW_OP_stack_value)), !dbg !2744
  call void @llvm.dbg.value(metadata ptr %0, metadata !2041, metadata !DIExpression(DW_OP_LLVM_fragment, 0, 64)), !dbg !2745
  call void @llvm.dbg.value(metadata i64 %1, metadata !2041, metadata !DIExpression(DW_OP_LLVM_fragment, 64, 64)), !dbg !2745
  call void @llvm.dbg.value(metadata ptr %0, metadata !2049, metadata !DIExpression(DW_OP_LLVM_fragment, 0, 64)), !dbg !2747
  call void @llvm.dbg.value(metadata i64 %1, metadata !2049, metadata !DIExpression(DW_OP_LLVM_fragment, 64, 64)), !dbg !2747
  call void @llvm.dbg.value(metadata ptr undef, metadata !2056, metadata !DIExpression()), !dbg !2748
  call void @llvm.dbg.declare(metadata ptr %buf.i.i, metadata !2062, metadata !DIExpression()), !dbg !2750
  call void @llvm.dbg.declare(metadata ptr %formatter.i.i, metadata !2064, metadata !DIExpression()), !dbg !2751
  call void @llvm.lifetime.start.p0(i64 24, ptr nonnull %buf.i.i), !dbg !2752, !noalias !2753
  store i64 0, ptr %buf.i.i, align 8, !dbg !2759, !noalias !2753
  %_10.sroa.4.0.buf.sroa_idx.i.i = getelementptr inbounds i8, ptr %buf.i.i, i64 8, !dbg !2759
  store ptr inttoptr (i64 1 to ptr), ptr %_10.sroa.4.0.buf.sroa_idx.i.i, align 8, !dbg !2759, !noalias !2753
  %_10.sroa.5.0.buf.sroa_idx.i.i = getelementptr inbounds i8, ptr %buf.i.i, i64 16, !dbg !2759
  store i64 0, ptr %_10.sroa.5.0.buf.sroa_idx.i.i, align 8, !dbg !2759, !noalias !2753
  call void @llvm.lifetime.start.p0(i64 64, ptr nonnull %formatter.i.i), !dbg !2761, !noalias !2753
  call void @llvm.dbg.value(metadata ptr %buf.i.i, metadata !2085, metadata !DIExpression(DW_OP_LLVM_fragment, 0, 64)), !dbg !2762
  call void @llvm.dbg.value(metadata ptr @vtable.0, metadata !2085, metadata !DIExpression(DW_OP_LLVM_fragment, 64, 64)), !dbg !2762
  %5 = getelementptr inbounds i8, ptr %formatter.i.i, i64 52, !dbg !2764
  store i32 0, ptr %5, align 4, !dbg !2764, !noalias !2753
  %6 = getelementptr inbounds i8, ptr %formatter.i.i, i64 48, !dbg !2764
  store i32 32, ptr %6, align 8, !dbg !2764, !noalias !2753
  %7 = getelementptr inbounds i8, ptr %formatter.i.i, i64 56, !dbg !2764
  store i8 3, ptr %7, align 8, !dbg !2764, !noalias !2753
  store i64 0, ptr %formatter.i.i, align 8, !dbg !2764, !noalias !2753
  %8 = getelementptr inbounds i8, ptr %formatter.i.i, i64 16, !dbg !2764
  store i64 0, ptr %8, align 8, !dbg !2764, !noalias !2753
  %9 = getelementptr inbounds i8, ptr %formatter.i.i, i64 32, !dbg !2764
  store ptr %buf.i.i, ptr %9, align 8, !dbg !2764, !noalias !2753
  %10 = getelementptr inbounds i8, ptr %formatter.i.i, i64 40, !dbg !2764
  store ptr @vtable.0, ptr %10, align 8, !dbg !2764, !noalias !2753
  call void @llvm.dbg.value(metadata ptr undef, metadata !2095, metadata !DIExpression()), !dbg !2765
  call void @llvm.dbg.value(metadata ptr %formatter.i.i, metadata !2100, metadata !DIExpression()), !dbg !2765
; invoke <str as core::fmt::Display>::fmt
  %_0.i2.i.i = invoke noundef zeroext i1 @"_ZN42_$LT$str$u20$as$u20$core..fmt..Display$GT$3fmt17h49e1caa39cb6eebbE"(ptr noalias noundef nonnull readonly align 1 %0, i64 noundef %1, ptr noalias noundef nonnull align 8 dereferenceable(64) %formatter.i.i)
          to label %bb1.i.i unwind label %cleanup.i.i, !dbg !2767, !noalias !2768

cleanup.i.i:                                      ; preds = %bb2.i.i.i, %bb4
  %11 = landingpad { ptr, i32 }
          cleanup
  call void @llvm.experimental.noalias.scope.decl(metadata !2769), !dbg !2772
  call void @llvm.dbg.value(metadata ptr %buf.i.i, metadata !415, metadata !DIExpression()), !dbg !2773
  %_1.val.i.i.i = load i64, ptr %buf.i.i, align 8, !dbg !2775, !alias.scope !2769, !noalias !2753
  call void @llvm.dbg.value(metadata ptr undef, metadata !418, metadata !DIExpression()), !dbg !2776
  call void @llvm.dbg.value(metadata ptr undef, metadata !428, metadata !DIExpression()), !dbg !2778
  call void @llvm.dbg.value(metadata ptr undef, metadata !438, metadata !DIExpression()), !dbg !2780
  call void @llvm.dbg.value(metadata ptr undef, metadata !460, metadata !DIExpression()), !dbg !2782
  %12 = icmp eq i64 %_1.val.i.i.i, 0, !dbg !2784
  br i1 %12, label %bb4.i.i, label %"_ZN63_$LT$alloc..alloc..Global$u20$as$u20$core..alloc..Allocator$GT$10deallocate17h0f2d39528d187dc6E.exit.i.i4.i.i.i.i", !dbg !2784

"_ZN63_$LT$alloc..alloc..Global$u20$as$u20$core..alloc..Allocator$GT$10deallocate17h0f2d39528d187dc6E.exit.i.i4.i.i.i.i": ; preds = %cleanup.i.i
  %_1.val1.i.i.i = load ptr, ptr %_10.sroa.4.0.buf.sroa_idx.i.i, align 8, !dbg !2775, !alias.scope !2769, !noalias !2753, !nonnull !44, !noundef !44
  call void @llvm.dbg.value(metadata ptr %_1.val1.i.i.i, metadata !446, metadata !DIExpression()), !dbg !2785
  call void @llvm.dbg.value(metadata i64 1, metadata !448, metadata !DIExpression(DW_OP_LLVM_fragment, 0, 64)), !dbg !2785
  call void @llvm.dbg.value(metadata i64 %_1.val.i.i.i, metadata !448, metadata !DIExpression(DW_OP_LLVM_fragment, 64, 64)), !dbg !2785
  call void @llvm.dbg.value(metadata i64 1, metadata !494, metadata !DIExpression(DW_OP_LLVM_fragment, 0, 64)), !dbg !2786
  call void @llvm.dbg.value(metadata i64 %_1.val.i.i.i, metadata !494, metadata !DIExpression(DW_OP_LLVM_fragment, 64, 64)), !dbg !2786
  call void @llvm.dbg.value(metadata ptr undef, metadata !502, metadata !DIExpression()), !dbg !2786
  call void @llvm.dbg.value(metadata ptr %_1.val1.i.i.i, metadata !503, metadata !DIExpression()), !dbg !2786
  call void @llvm.dbg.value(metadata ptr %_1.val1.i.i.i, metadata !506, metadata !DIExpression()), !dbg !2788
  call void @llvm.dbg.value(metadata i64 1, metadata !513, metadata !DIExpression(DW_OP_LLVM_fragment, 0, 64)), !dbg !2788
  call void @llvm.dbg.value(metadata i64 %_1.val.i.i.i, metadata !513, metadata !DIExpression(DW_OP_LLVM_fragment, 64, 64)), !dbg !2788
  call void @__rust_dealloc(ptr noundef nonnull %_1.val1.i.i.i, i64 noundef %_1.val.i.i.i, i64 noundef 1) #17, !dbg !2790, !noalias !2791
  br label %bb4.i.i, !dbg !2792

bb1.i.i:                                          ; preds = %bb4
  call void @llvm.lifetime.start.p0(i64 0, ptr nonnull %e.i.i.i), !dbg !2793, !noalias !2753
  call void @llvm.dbg.value(metadata i1 %_0.i2.i.i, metadata !2135, metadata !DIExpression(DW_OP_LLVM_convert, 1, DW_ATE_unsigned, DW_OP_LLVM_convert, 8, DW_ATE_unsigned, DW_OP_stack_value)), !dbg !2795
  call void @llvm.dbg.value(metadata ptr @alloc_cc656815297f75969399c3f4b1ad3de4, metadata !2136, metadata !DIExpression(DW_OP_LLVM_fragment, 0, 64)), !dbg !2795
  call void @llvm.dbg.value(metadata i64 55, metadata !2136, metadata !DIExpression(DW_OP_LLVM_fragment, 64, 64)), !dbg !2795
  call void @llvm.dbg.declare(metadata ptr %e.i.i.i, metadata !2139, metadata !DIExpression()), !dbg !2796
  br i1 %_0.i2.i.i, label %bb2.i.i.i, label %_ZN8bitflags6parser10ParseError16invalid_hex_flag17h27170d13378b1cd7E.exit, !dbg !2793

bb2.i.i.i:                                        ; preds = %bb1.i.i
; invoke core::result::unwrap_failed
  invoke void @_ZN4core6result13unwrap_failed17hebd1efddce947a93E(ptr noalias noundef nonnull readonly align 1 @alloc_cc656815297f75969399c3f4b1ad3de4, i64 noundef 55, ptr noundef nonnull align 1 %e.i.i.i, ptr noalias noundef nonnull readonly align 8 dereferenceable(32) @vtable.1, ptr noalias noundef nonnull readonly align 8 dereferenceable(24) @alloc_f886f96e9a07c60a12107d674cf0d185) #18
          to label %.noexc.i.i unwind label %cleanup.i.i, !dbg !2797, !noalias !2768

.noexc.i.i:                                       ; preds = %bb2.i.i.i
  unreachable

bb4.i.i:                                          ; preds = %"_ZN63_$LT$alloc..alloc..Global$u20$as$u20$core..alloc..Allocator$GT$10deallocate17h0f2d39528d187dc6E.exit.i.i4.i.i.i.i", %cleanup.i.i
  resume { ptr, i32 } %11, !dbg !2798

_ZN8bitflags6parser10ParseError16invalid_hex_flag17h27170d13378b1cd7E.exit: ; preds = %bb1.i.i
  call void @llvm.lifetime.end.p0(i64 0, ptr nonnull %e.i.i.i), !dbg !2799, !noalias !2753
  %_7.sroa.4.0._0.sroa_idx = getelementptr inbounds i8, ptr %_0, i64 8, !dbg !2800
  call void @llvm.memcpy.p0.p0.i64(ptr noundef nonnull align 8 dereferenceable(24) %_7.sroa.4.0._0.sroa_idx, ptr noundef nonnull align 8 dereferenceable(24) %buf.i.i, i64 24, i1 false), !dbg !2801
  call void @llvm.lifetime.end.p0(i64 64, ptr nonnull %formatter.i.i), !dbg !2802, !noalias !2753
  call void @llvm.lifetime.end.p0(i64 24, ptr nonnull %buf.i.i), !dbg !2772, !noalias !2753
  br label %bb2, !dbg !2803

bb2:                                              ; preds = %_ZN8bitflags6parser10ParseError16invalid_hex_flag17h27170d13378b1cd7E.exit, %bb5
  %storemerge = phi i64 [ 2, %_ZN8bitflags6parser10ParseError16invalid_hex_flag17h27170d13378b1cd7E.exit ], [ 3, %bb5 ], !dbg !2730
  store i64 %storemerge, ptr %_0, align 8, !dbg !2730
  ret void, !dbg !2804
}

; bitflags::traits::<impl bitflags::parser::ParseHex for u64>::parse_hex
; Function Attrs: nonlazybind uwtable
define void @"_ZN8bitflags6traits60_$LT$impl$u20$bitflags..parser..ParseHex$u20$for$u20$u64$GT$9parse_hex17ha4426d7820923c1cE"(ptr dead_on_unwind noalias nocapture noundef writable writeonly sret([32 x i8]) align 8 dereferenceable(32) %_0, ptr noalias noundef nonnull readonly align 1 %0, i64 noundef %1) unnamed_addr #0 personality ptr @rust_eh_personality !dbg !2805 {
start:
  %e.i.i.i = alloca [0 x i8], align 1
  %formatter.i.i = alloca [64 x i8], align 8
  %buf.i.i = alloca [24 x i8], align 8
  %self = alloca [16 x i8], align 8
  tail call void @llvm.dbg.value(metadata ptr %0, metadata !2825, metadata !DIExpression(DW_OP_LLVM_fragment, 0, 64)), !dbg !2826
  tail call void @llvm.dbg.value(metadata i64 %1, metadata !2825, metadata !DIExpression(DW_OP_LLVM_fragment, 64, 64)), !dbg !2826
  call void @llvm.dbg.declare(metadata ptr %self, metadata !2827, metadata !DIExpression()), !dbg !2859
  call void @llvm.lifetime.start.p0(i64 16, ptr nonnull %self), !dbg !2861
; call core::num::<impl u64>::from_str_radix
  call void @"_ZN4core3num21_$LT$impl$u20$u64$GT$14from_str_radix17hd211dd31cbc37b47E"(ptr noalias nocapture noundef nonnull sret([16 x i8]) align 8 dereferenceable(16) %self, ptr noalias noundef nonnull readonly align 1 %0, i64 noundef %1, i32 noundef 16), !dbg !2861
  tail call void @llvm.dbg.value(metadata ptr undef, metadata !2854, metadata !DIExpression()), !dbg !2862
  tail call void @llvm.dbg.value(metadata ptr undef, metadata !2863, metadata !DIExpression(DW_OP_deref)), !dbg !2869
  %2 = load i8, ptr %self, align 8, !dbg !2871, !range !2872, !noundef !44
  %trunc.not = icmp eq i8 %2, 0, !dbg !2873
  br i1 %trunc.not, label %bb5, label %bb4, !dbg !2873

bb5:                                              ; preds = %start
  %3 = getelementptr inbounds i8, ptr %self, i64 8, !dbg !2874
  %t = load i64, ptr %3, align 8, !dbg !2874, !noundef !44
  tail call void @llvm.dbg.value(metadata i64 %t, metadata !2855, metadata !DIExpression()), !dbg !2875
  %4 = getelementptr inbounds i8, ptr %_0, i64 8, !dbg !2876
  store i64 %t, ptr %4, align 8, !dbg !2876
  br label %bb2, !dbg !2877

bb4:                                              ; preds = %start
  tail call void @llvm.dbg.value(metadata i8 poison, metadata !2857, metadata !DIExpression()), !dbg !2878
  call void @llvm.dbg.value(metadata ptr %0, metadata !2041, metadata !DIExpression(DW_OP_LLVM_fragment, 0, 64)), !dbg !2879
  call void @llvm.dbg.value(metadata i64 %1, metadata !2041, metadata !DIExpression(DW_OP_LLVM_fragment, 64, 64)), !dbg !2879
  call void @llvm.dbg.value(metadata ptr %0, metadata !2049, metadata !DIExpression(DW_OP_LLVM_fragment, 0, 64)), !dbg !2881
  call void @llvm.dbg.value(metadata i64 %1, metadata !2049, metadata !DIExpression(DW_OP_LLVM_fragment, 64, 64)), !dbg !2881
  call void @llvm.dbg.value(metadata ptr undef, metadata !2056, metadata !DIExpression()), !dbg !2882
  call void @llvm.dbg.declare(metadata ptr %buf.i.i, metadata !2062, metadata !DIExpression()), !dbg !2884
  call void @llvm.dbg.declare(metadata ptr %formatter.i.i, metadata !2064, metadata !DIExpression()), !dbg !2885
  call void @llvm.lifetime.start.p0(i64 24, ptr nonnull %buf.i.i), !dbg !2886, !noalias !2887
  store i64 0, ptr %buf.i.i, align 8, !dbg !2893, !noalias !2887
  %_10.sroa.4.0.buf.sroa_idx.i.i = getelementptr inbounds i8, ptr %buf.i.i, i64 8, !dbg !2893
  store ptr inttoptr (i64 1 to ptr), ptr %_10.sroa.4.0.buf.sroa_idx.i.i, align 8, !dbg !2893, !noalias !2887
  %_10.sroa.5.0.buf.sroa_idx.i.i = getelementptr inbounds i8, ptr %buf.i.i, i64 16, !dbg !2893
  store i64 0, ptr %_10.sroa.5.0.buf.sroa_idx.i.i, align 8, !dbg !2893, !noalias !2887
  call void @llvm.lifetime.start.p0(i64 64, ptr nonnull %formatter.i.i), !dbg !2895, !noalias !2887
  call void @llvm.dbg.value(metadata ptr %buf.i.i, metadata !2085, metadata !DIExpression(DW_OP_LLVM_fragment, 0, 64)), !dbg !2896
  call void @llvm.dbg.value(metadata ptr @vtable.0, metadata !2085, metadata !DIExpression(DW_OP_LLVM_fragment, 64, 64)), !dbg !2896
  %5 = getelementptr inbounds i8, ptr %formatter.i.i, i64 52, !dbg !2898
  store i32 0, ptr %5, align 4, !dbg !2898, !noalias !2887
  %6 = getelementptr inbounds i8, ptr %formatter.i.i, i64 48, !dbg !2898
  store i32 32, ptr %6, align 8, !dbg !2898, !noalias !2887
  %7 = getelementptr inbounds i8, ptr %formatter.i.i, i64 56, !dbg !2898
  store i8 3, ptr %7, align 8, !dbg !2898, !noalias !2887
  store i64 0, ptr %formatter.i.i, align 8, !dbg !2898, !noalias !2887
  %8 = getelementptr inbounds i8, ptr %formatter.i.i, i64 16, !dbg !2898
  store i64 0, ptr %8, align 8, !dbg !2898, !noalias !2887
  %9 = getelementptr inbounds i8, ptr %formatter.i.i, i64 32, !dbg !2898
  store ptr %buf.i.i, ptr %9, align 8, !dbg !2898, !noalias !2887
  %10 = getelementptr inbounds i8, ptr %formatter.i.i, i64 40, !dbg !2898
  store ptr @vtable.0, ptr %10, align 8, !dbg !2898, !noalias !2887
  call void @llvm.dbg.value(metadata ptr undef, metadata !2095, metadata !DIExpression()), !dbg !2899
  call void @llvm.dbg.value(metadata ptr %formatter.i.i, metadata !2100, metadata !DIExpression()), !dbg !2899
; invoke <str as core::fmt::Display>::fmt
  %_0.i2.i.i = invoke noundef zeroext i1 @"_ZN42_$LT$str$u20$as$u20$core..fmt..Display$GT$3fmt17h49e1caa39cb6eebbE"(ptr noalias noundef nonnull readonly align 1 %0, i64 noundef %1, ptr noalias noundef nonnull align 8 dereferenceable(64) %formatter.i.i)
          to label %bb1.i.i unwind label %cleanup.i.i, !dbg !2901, !noalias !2902

cleanup.i.i:                                      ; preds = %bb2.i.i.i, %bb4
  %11 = landingpad { ptr, i32 }
          cleanup
  call void @llvm.experimental.noalias.scope.decl(metadata !2903), !dbg !2906
  call void @llvm.dbg.value(metadata ptr %buf.i.i, metadata !415, metadata !DIExpression()), !dbg !2907
  %_1.val.i.i.i = load i64, ptr %buf.i.i, align 8, !dbg !2909, !alias.scope !2903, !noalias !2887
  call void @llvm.dbg.value(metadata ptr undef, metadata !418, metadata !DIExpression()), !dbg !2910
  call void @llvm.dbg.value(metadata ptr undef, metadata !428, metadata !DIExpression()), !dbg !2912
  call void @llvm.dbg.value(metadata ptr undef, metadata !438, metadata !DIExpression()), !dbg !2914
  call void @llvm.dbg.value(metadata ptr undef, metadata !460, metadata !DIExpression()), !dbg !2916
  %12 = icmp eq i64 %_1.val.i.i.i, 0, !dbg !2918
  br i1 %12, label %bb4.i.i, label %"_ZN63_$LT$alloc..alloc..Global$u20$as$u20$core..alloc..Allocator$GT$10deallocate17h0f2d39528d187dc6E.exit.i.i4.i.i.i.i", !dbg !2918

"_ZN63_$LT$alloc..alloc..Global$u20$as$u20$core..alloc..Allocator$GT$10deallocate17h0f2d39528d187dc6E.exit.i.i4.i.i.i.i": ; preds = %cleanup.i.i
  %_1.val1.i.i.i = load ptr, ptr %_10.sroa.4.0.buf.sroa_idx.i.i, align 8, !dbg !2909, !alias.scope !2903, !noalias !2887, !nonnull !44, !noundef !44
  call void @llvm.dbg.value(metadata ptr %_1.val1.i.i.i, metadata !446, metadata !DIExpression()), !dbg !2919
  call void @llvm.dbg.value(metadata i64 1, metadata !448, metadata !DIExpression(DW_OP_LLVM_fragment, 0, 64)), !dbg !2919
  call void @llvm.dbg.value(metadata i64 %_1.val.i.i.i, metadata !448, metadata !DIExpression(DW_OP_LLVM_fragment, 64, 64)), !dbg !2919
  call void @llvm.dbg.value(metadata i64 1, metadata !494, metadata !DIExpression(DW_OP_LLVM_fragment, 0, 64)), !dbg !2920
  call void @llvm.dbg.value(metadata i64 %_1.val.i.i.i, metadata !494, metadata !DIExpression(DW_OP_LLVM_fragment, 64, 64)), !dbg !2920
  call void @llvm.dbg.value(metadata ptr undef, metadata !502, metadata !DIExpression()), !dbg !2920
  call void @llvm.dbg.value(metadata ptr %_1.val1.i.i.i, metadata !503, metadata !DIExpression()), !dbg !2920
  call void @llvm.dbg.value(metadata ptr %_1.val1.i.i.i, metadata !506, metadata !DIExpression()), !dbg !2922
  call void @llvm.dbg.value(metadata i64 1, metadata !513, metadata !DIExpression(DW_OP_LLVM_fragment, 0, 64)), !dbg !2922
  call void @llvm.dbg.value(metadata i64 %_1.val.i.i.i, metadata !513, metadata !DIExpression(DW_OP_LLVM_fragment, 64, 64)), !dbg !2922
  call void @__rust_dealloc(ptr noundef nonnull %_1.val1.i.i.i, i64 noundef %_1.val.i.i.i, i64 noundef 1) #17, !dbg !2924, !noalias !2925
  br label %bb4.i.i, !dbg !2926

bb1.i.i:                                          ; preds = %bb4
  call void @llvm.lifetime.start.p0(i64 0, ptr nonnull %e.i.i.i), !dbg !2927, !noalias !2887
  call void @llvm.dbg.value(metadata i1 %_0.i2.i.i, metadata !2135, metadata !DIExpression(DW_OP_LLVM_convert, 1, DW_ATE_unsigned, DW_OP_LLVM_convert, 8, DW_ATE_unsigned, DW_OP_stack_value)), !dbg !2929
  call void @llvm.dbg.value(metadata ptr @alloc_cc656815297f75969399c3f4b1ad3de4, metadata !2136, metadata !DIExpression(DW_OP_LLVM_fragment, 0, 64)), !dbg !2929
  call void @llvm.dbg.value(metadata i64 55, metadata !2136, metadata !DIExpression(DW_OP_LLVM_fragment, 64, 64)), !dbg !2929
  call void @llvm.dbg.declare(metadata ptr %e.i.i.i, metadata !2139, metadata !DIExpression()), !dbg !2930
  br i1 %_0.i2.i.i, label %bb2.i.i.i, label %_ZN8bitflags6parser10ParseError16invalid_hex_flag17h27170d13378b1cd7E.exit, !dbg !2927

bb2.i.i.i:                                        ; preds = %bb1.i.i
; invoke core::result::unwrap_failed
  invoke void @_ZN4core6result13unwrap_failed17hebd1efddce947a93E(ptr noalias noundef nonnull readonly align 1 @alloc_cc656815297f75969399c3f4b1ad3de4, i64 noundef 55, ptr noundef nonnull align 1 %e.i.i.i, ptr noalias noundef nonnull readonly align 8 dereferenceable(32) @vtable.1, ptr noalias noundef nonnull readonly align 8 dereferenceable(24) @alloc_f886f96e9a07c60a12107d674cf0d185) #18
          to label %.noexc.i.i unwind label %cleanup.i.i, !dbg !2931, !noalias !2902

.noexc.i.i:                                       ; preds = %bb2.i.i.i
  unreachable

bb4.i.i:                                          ; preds = %"_ZN63_$LT$alloc..alloc..Global$u20$as$u20$core..alloc..Allocator$GT$10deallocate17h0f2d39528d187dc6E.exit.i.i4.i.i.i.i", %cleanup.i.i
  resume { ptr, i32 } %11, !dbg !2932

_ZN8bitflags6parser10ParseError16invalid_hex_flag17h27170d13378b1cd7E.exit: ; preds = %bb1.i.i
  call void @llvm.lifetime.end.p0(i64 0, ptr nonnull %e.i.i.i), !dbg !2933, !noalias !2887
  %_7.sroa.4.0._0.sroa_idx = getelementptr inbounds i8, ptr %_0, i64 8, !dbg !2934
  call void @llvm.memcpy.p0.p0.i64(ptr noundef nonnull align 8 dereferenceable(24) %_7.sroa.4.0._0.sroa_idx, ptr noundef nonnull align 8 dereferenceable(24) %buf.i.i, i64 24, i1 false), !dbg !2935
  call void @llvm.lifetime.end.p0(i64 64, ptr nonnull %formatter.i.i), !dbg !2936, !noalias !2887
  call void @llvm.lifetime.end.p0(i64 24, ptr nonnull %buf.i.i), !dbg !2906, !noalias !2887
  br label %bb2, !dbg !2937

bb2:                                              ; preds = %_ZN8bitflags6parser10ParseError16invalid_hex_flag17h27170d13378b1cd7E.exit, %bb5
  %storemerge = phi i64 [ 2, %_ZN8bitflags6parser10ParseError16invalid_hex_flag17h27170d13378b1cd7E.exit ], [ 3, %bb5 ], !dbg !2862
  store i64 %storemerge, ptr %_0, align 8, !dbg !2862
  call void @llvm.lifetime.end.p0(i64 16, ptr nonnull %self), !dbg !2938
  ret void, !dbg !2939
}

; bitflags::traits::<impl bitflags::parser::ParseHex for i64>::parse_hex
; Function Attrs: nonlazybind uwtable
define void @"_ZN8bitflags6traits60_$LT$impl$u20$bitflags..parser..ParseHex$u20$for$u20$i64$GT$9parse_hex17h8a8782b1db451077E"(ptr dead_on_unwind noalias nocapture noundef writable writeonly sret([32 x i8]) align 8 dereferenceable(32) %_0, ptr noalias noundef nonnull readonly align 1 %0, i64 noundef %1) unnamed_addr #0 personality ptr @rust_eh_personality !dbg !2940 {
start:
  %e.i.i.i = alloca [0 x i8], align 1
  %formatter.i.i = alloca [64 x i8], align 8
  %buf.i.i = alloca [24 x i8], align 8
  %self = alloca [16 x i8], align 8
  tail call void @llvm.dbg.value(metadata ptr %0, metadata !2961, metadata !DIExpression(DW_OP_LLVM_fragment, 0, 64)), !dbg !2962
  tail call void @llvm.dbg.value(metadata i64 %1, metadata !2961, metadata !DIExpression(DW_OP_LLVM_fragment, 64, 64)), !dbg !2962
  call void @llvm.dbg.declare(metadata ptr %self, metadata !2963, metadata !DIExpression()), !dbg !2995
  call void @llvm.lifetime.start.p0(i64 16, ptr nonnull %self), !dbg !2997
; call core::num::<impl i64>::from_str_radix
  call void @"_ZN4core3num21_$LT$impl$u20$i64$GT$14from_str_radix17hcc78951207acf4caE"(ptr noalias nocapture noundef nonnull sret([16 x i8]) align 8 dereferenceable(16) %self, ptr noalias noundef nonnull readonly align 1 %0, i64 noundef %1, i32 noundef 16), !dbg !2997
  tail call void @llvm.dbg.value(metadata ptr undef, metadata !2990, metadata !DIExpression()), !dbg !2998
  tail call void @llvm.dbg.value(metadata ptr undef, metadata !2999, metadata !DIExpression(DW_OP_deref)), !dbg !3005
  %2 = load i8, ptr %self, align 8, !dbg !3007, !range !2872, !noundef !44
  %trunc.not = icmp eq i8 %2, 0, !dbg !3008
  br i1 %trunc.not, label %bb5, label %bb4, !dbg !3008

bb5:                                              ; preds = %start
  %3 = getelementptr inbounds i8, ptr %self, i64 8, !dbg !3009
  %t = load i64, ptr %3, align 8, !dbg !3009, !noundef !44
  tail call void @llvm.dbg.value(metadata i64 %t, metadata !2991, metadata !DIExpression()), !dbg !3010
  %4 = getelementptr inbounds i8, ptr %_0, i64 8, !dbg !3011
  store i64 %t, ptr %4, align 8, !dbg !3011
  br label %bb2, !dbg !3012

bb4:                                              ; preds = %start
  tail call void @llvm.dbg.value(metadata i8 poison, metadata !2993, metadata !DIExpression()), !dbg !3013
  call void @llvm.dbg.value(metadata ptr %0, metadata !2041, metadata !DIExpression(DW_OP_LLVM_fragment, 0, 64)), !dbg !3014
  call void @llvm.dbg.value(metadata i64 %1, metadata !2041, metadata !DIExpression(DW_OP_LLVM_fragment, 64, 64)), !dbg !3014
  call void @llvm.dbg.value(metadata ptr %0, metadata !2049, metadata !DIExpression(DW_OP_LLVM_fragment, 0, 64)), !dbg !3016
  call void @llvm.dbg.value(metadata i64 %1, metadata !2049, metadata !DIExpression(DW_OP_LLVM_fragment, 64, 64)), !dbg !3016
  call void @llvm.dbg.value(metadata ptr undef, metadata !2056, metadata !DIExpression()), !dbg !3017
  call void @llvm.dbg.declare(metadata ptr %buf.i.i, metadata !2062, metadata !DIExpression()), !dbg !3019
  call void @llvm.dbg.declare(metadata ptr %formatter.i.i, metadata !2064, metadata !DIExpression()), !dbg !3020
  call void @llvm.lifetime.start.p0(i64 24, ptr nonnull %buf.i.i), !dbg !3021, !noalias !3022
  store i64 0, ptr %buf.i.i, align 8, !dbg !3028, !noalias !3022
  %_10.sroa.4.0.buf.sroa_idx.i.i = getelementptr inbounds i8, ptr %buf.i.i, i64 8, !dbg !3028
  store ptr inttoptr (i64 1 to ptr), ptr %_10.sroa.4.0.buf.sroa_idx.i.i, align 8, !dbg !3028, !noalias !3022
  %_10.sroa.5.0.buf.sroa_idx.i.i = getelementptr inbounds i8, ptr %buf.i.i, i64 16, !dbg !3028
  store i64 0, ptr %_10.sroa.5.0.buf.sroa_idx.i.i, align 8, !dbg !3028, !noalias !3022
  call void @llvm.lifetime.start.p0(i64 64, ptr nonnull %formatter.i.i), !dbg !3030, !noalias !3022
  call void @llvm.dbg.value(metadata ptr %buf.i.i, metadata !2085, metadata !DIExpression(DW_OP_LLVM_fragment, 0, 64)), !dbg !3031
  call void @llvm.dbg.value(metadata ptr @vtable.0, metadata !2085, metadata !DIExpression(DW_OP_LLVM_fragment, 64, 64)), !dbg !3031
  %5 = getelementptr inbounds i8, ptr %formatter.i.i, i64 52, !dbg !3033
  store i32 0, ptr %5, align 4, !dbg !3033, !noalias !3022
  %6 = getelementptr inbounds i8, ptr %formatter.i.i, i64 48, !dbg !3033
  store i32 32, ptr %6, align 8, !dbg !3033, !noalias !3022
  %7 = getelementptr inbounds i8, ptr %formatter.i.i, i64 56, !dbg !3033
  store i8 3, ptr %7, align 8, !dbg !3033, !noalias !3022
  store i64 0, ptr %formatter.i.i, align 8, !dbg !3033, !noalias !3022
  %8 = getelementptr inbounds i8, ptr %formatter.i.i, i64 16, !dbg !3033
  store i64 0, ptr %8, align 8, !dbg !3033, !noalias !3022
  %9 = getelementptr inbounds i8, ptr %formatter.i.i, i64 32, !dbg !3033
  store ptr %buf.i.i, ptr %9, align 8, !dbg !3033, !noalias !3022
  %10 = getelementptr inbounds i8, ptr %formatter.i.i, i64 40, !dbg !3033
  store ptr @vtable.0, ptr %10, align 8, !dbg !3033, !noalias !3022
  call void @llvm.dbg.value(metadata ptr undef, metadata !2095, metadata !DIExpression()), !dbg !3034
  call void @llvm.dbg.value(metadata ptr %formatter.i.i, metadata !2100, metadata !DIExpression()), !dbg !3034
; invoke <str as core::fmt::Display>::fmt
  %_0.i2.i.i = invoke noundef zeroext i1 @"_ZN42_$LT$str$u20$as$u20$core..fmt..Display$GT$3fmt17h49e1caa39cb6eebbE"(ptr noalias noundef nonnull readonly align 1 %0, i64 noundef %1, ptr noalias noundef nonnull align 8 dereferenceable(64) %formatter.i.i)
          to label %bb1.i.i unwind label %cleanup.i.i, !dbg !3036, !noalias !3037

cleanup.i.i:                                      ; preds = %bb2.i.i.i, %bb4
  %11 = landingpad { ptr, i32 }
          cleanup
  call void @llvm.experimental.noalias.scope.decl(metadata !3038), !dbg !3041
  call void @llvm.dbg.value(metadata ptr %buf.i.i, metadata !415, metadata !DIExpression()), !dbg !3042
  %_1.val.i.i.i = load i64, ptr %buf.i.i, align 8, !dbg !3044, !alias.scope !3038, !noalias !3022
  call void @llvm.dbg.value(metadata ptr undef, metadata !418, metadata !DIExpression()), !dbg !3045
  call void @llvm.dbg.value(metadata ptr undef, metadata !428, metadata !DIExpression()), !dbg !3047
  call void @llvm.dbg.value(metadata ptr undef, metadata !438, metadata !DIExpression()), !dbg !3049
  call void @llvm.dbg.value(metadata ptr undef, metadata !460, metadata !DIExpression()), !dbg !3051
  %12 = icmp eq i64 %_1.val.i.i.i, 0, !dbg !3053
  br i1 %12, label %bb4.i.i, label %"_ZN63_$LT$alloc..alloc..Global$u20$as$u20$core..alloc..Allocator$GT$10deallocate17h0f2d39528d187dc6E.exit.i.i4.i.i.i.i", !dbg !3053

"_ZN63_$LT$alloc..alloc..Global$u20$as$u20$core..alloc..Allocator$GT$10deallocate17h0f2d39528d187dc6E.exit.i.i4.i.i.i.i": ; preds = %cleanup.i.i
  %_1.val1.i.i.i = load ptr, ptr %_10.sroa.4.0.buf.sroa_idx.i.i, align 8, !dbg !3044, !alias.scope !3038, !noalias !3022, !nonnull !44, !noundef !44
  call void @llvm.dbg.value(metadata ptr %_1.val1.i.i.i, metadata !446, metadata !DIExpression()), !dbg !3054
  call void @llvm.dbg.value(metadata i64 1, metadata !448, metadata !DIExpression(DW_OP_LLVM_fragment, 0, 64)), !dbg !3054
  call void @llvm.dbg.value(metadata i64 %_1.val.i.i.i, metadata !448, metadata !DIExpression(DW_OP_LLVM_fragment, 64, 64)), !dbg !3054
  call void @llvm.dbg.value(metadata i64 1, metadata !494, metadata !DIExpression(DW_OP_LLVM_fragment, 0, 64)), !dbg !3055
  call void @llvm.dbg.value(metadata i64 %_1.val.i.i.i, metadata !494, metadata !DIExpression(DW_OP_LLVM_fragment, 64, 64)), !dbg !3055
  call void @llvm.dbg.value(metadata ptr undef, metadata !502, metadata !DIExpression()), !dbg !3055
  call void @llvm.dbg.value(metadata ptr %_1.val1.i.i.i, metadata !503, metadata !DIExpression()), !dbg !3055
  call void @llvm.dbg.value(metadata ptr %_1.val1.i.i.i, metadata !506, metadata !DIExpression()), !dbg !3057
  call void @llvm.dbg.value(metadata i64 1, metadata !513, metadata !DIExpression(DW_OP_LLVM_fragment, 0, 64)), !dbg !3057
  call void @llvm.dbg.value(metadata i64 %_1.val.i.i.i, metadata !513, metadata !DIExpression(DW_OP_LLVM_fragment, 64, 64)), !dbg !3057
  call void @__rust_dealloc(ptr noundef nonnull %_1.val1.i.i.i, i64 noundef %_1.val.i.i.i, i64 noundef 1) #17, !dbg !3059, !noalias !3060
  br label %bb4.i.i, !dbg !3061

bb1.i.i:                                          ; preds = %bb4
  call void @llvm.lifetime.start.p0(i64 0, ptr nonnull %e.i.i.i), !dbg !3062, !noalias !3022
  call void @llvm.dbg.value(metadata i1 %_0.i2.i.i, metadata !2135, metadata !DIExpression(DW_OP_LLVM_convert, 1, DW_ATE_unsigned, DW_OP_LLVM_convert, 8, DW_ATE_unsigned, DW_OP_stack_value)), !dbg !3064
  call void @llvm.dbg.value(metadata ptr @alloc_cc656815297f75969399c3f4b1ad3de4, metadata !2136, metadata !DIExpression(DW_OP_LLVM_fragment, 0, 64)), !dbg !3064
  call void @llvm.dbg.value(metadata i64 55, metadata !2136, metadata !DIExpression(DW_OP_LLVM_fragment, 64, 64)), !dbg !3064
  call void @llvm.dbg.declare(metadata ptr %e.i.i.i, metadata !2139, metadata !DIExpression()), !dbg !3065
  br i1 %_0.i2.i.i, label %bb2.i.i.i, label %_ZN8bitflags6parser10ParseError16invalid_hex_flag17h27170d13378b1cd7E.exit, !dbg !3062

bb2.i.i.i:                                        ; preds = %bb1.i.i
; invoke core::result::unwrap_failed
  invoke void @_ZN4core6result13unwrap_failed17hebd1efddce947a93E(ptr noalias noundef nonnull readonly align 1 @alloc_cc656815297f75969399c3f4b1ad3de4, i64 noundef 55, ptr noundef nonnull align 1 %e.i.i.i, ptr noalias noundef nonnull readonly align 8 dereferenceable(32) @vtable.1, ptr noalias noundef nonnull readonly align 8 dereferenceable(24) @alloc_f886f96e9a07c60a12107d674cf0d185) #18
          to label %.noexc.i.i unwind label %cleanup.i.i, !dbg !3066, !noalias !3037

.noexc.i.i:                                       ; preds = %bb2.i.i.i
  unreachable

bb4.i.i:                                          ; preds = %"_ZN63_$LT$alloc..alloc..Global$u20$as$u20$core..alloc..Allocator$GT$10deallocate17h0f2d39528d187dc6E.exit.i.i4.i.i.i.i", %cleanup.i.i
  resume { ptr, i32 } %11, !dbg !3067

_ZN8bitflags6parser10ParseError16invalid_hex_flag17h27170d13378b1cd7E.exit: ; preds = %bb1.i.i
  call void @llvm.lifetime.end.p0(i64 0, ptr nonnull %e.i.i.i), !dbg !3068, !noalias !3022
  %_7.sroa.4.0._0.sroa_idx = getelementptr inbounds i8, ptr %_0, i64 8, !dbg !3069
  call void @llvm.memcpy.p0.p0.i64(ptr noundef nonnull align 8 dereferenceable(24) %_7.sroa.4.0._0.sroa_idx, ptr noundef nonnull align 8 dereferenceable(24) %buf.i.i, i64 24, i1 false), !dbg !3070
  call void @llvm.lifetime.end.p0(i64 64, ptr nonnull %formatter.i.i), !dbg !3071, !noalias !3022
  call void @llvm.lifetime.end.p0(i64 24, ptr nonnull %buf.i.i), !dbg !3041, !noalias !3022
  br label %bb2, !dbg !3072

bb2:                                              ; preds = %_ZN8bitflags6parser10ParseError16invalid_hex_flag17h27170d13378b1cd7E.exit, %bb5
  %storemerge = phi i64 [ 2, %_ZN8bitflags6parser10ParseError16invalid_hex_flag17h27170d13378b1cd7E.exit ], [ 3, %bb5 ], !dbg !2998
  store i64 %storemerge, ptr %_0, align 8, !dbg !2998
  call void @llvm.lifetime.end.p0(i64 16, ptr nonnull %self), !dbg !3073
  ret void, !dbg !3074
}

; bitflags::traits::<impl bitflags::parser::ParseHex for u128>::parse_hex
; Function Attrs: nonlazybind uwtable
define void @"_ZN8bitflags6traits61_$LT$impl$u20$bitflags..parser..ParseHex$u20$for$u20$u128$GT$9parse_hex17ha4628e4ed534b2cfE"(ptr dead_on_unwind noalias nocapture noundef writable writeonly sret([32 x i8]) align 16 dereferenceable(32) %_0, ptr noalias noundef nonnull readonly align 1 %0, i64 noundef %1) unnamed_addr #0 personality ptr @rust_eh_personality !dbg !3075 {
start:
  %e.i.i.i = alloca [0 x i8], align 1
  %formatter.i.i = alloca [64 x i8], align 8
  %buf.i.i = alloca [24 x i8], align 8
  %self = alloca [32 x i8], align 16
  tail call void @llvm.dbg.value(metadata ptr %0, metadata !3096, metadata !DIExpression(DW_OP_LLVM_fragment, 0, 64)), !dbg !3097
  tail call void @llvm.dbg.value(metadata i64 %1, metadata !3096, metadata !DIExpression(DW_OP_LLVM_fragment, 64, 64)), !dbg !3097
  call void @llvm.dbg.declare(metadata ptr %self, metadata !3098, metadata !DIExpression()), !dbg !3130
  call void @llvm.lifetime.start.p0(i64 32, ptr nonnull %self), !dbg !3132
; call core::num::<impl u128>::from_str_radix
  call void @"_ZN4core3num22_$LT$impl$u20$u128$GT$14from_str_radix17h27d959bc6c931902E"(ptr noalias nocapture noundef nonnull sret([32 x i8]) align 16 dereferenceable(32) %self, ptr noalias noundef nonnull readonly align 1 %0, i64 noundef %1, i32 noundef 16), !dbg !3132
  tail call void @llvm.dbg.value(metadata ptr undef, metadata !3125, metadata !DIExpression()), !dbg !3133
  tail call void @llvm.dbg.value(metadata ptr undef, metadata !3134, metadata !DIExpression(DW_OP_deref)), !dbg !3140
  %2 = load i8, ptr %self, align 16, !dbg !3142, !range !2872, !noundef !44
  %trunc.not = icmp eq i8 %2, 0, !dbg !3143
  br i1 %trunc.not, label %bb5, label %bb4, !dbg !3143

bb5:                                              ; preds = %start
  %3 = getelementptr inbounds i8, ptr %self, i64 16, !dbg !3144
  %t = load i128, ptr %3, align 16, !dbg !3144, !noundef !44
  tail call void @llvm.dbg.value(metadata i128 %t, metadata !3126, metadata !DIExpression()), !dbg !3145
  %4 = getelementptr inbounds i8, ptr %_0, i64 16, !dbg !3146
  store i128 %t, ptr %4, align 16, !dbg !3146
  br label %bb2, !dbg !3147

bb4:                                              ; preds = %start
  tail call void @llvm.dbg.value(metadata i8 poison, metadata !3128, metadata !DIExpression()), !dbg !3148
  call void @llvm.dbg.value(metadata ptr %0, metadata !2041, metadata !DIExpression(DW_OP_LLVM_fragment, 0, 64)), !dbg !3149
  call void @llvm.dbg.value(metadata i64 %1, metadata !2041, metadata !DIExpression(DW_OP_LLVM_fragment, 64, 64)), !dbg !3149
  call void @llvm.dbg.value(metadata ptr %0, metadata !2049, metadata !DIExpression(DW_OP_LLVM_fragment, 0, 64)), !dbg !3151
  call void @llvm.dbg.value(metadata i64 %1, metadata !2049, metadata !DIExpression(DW_OP_LLVM_fragment, 64, 64)), !dbg !3151
  call void @llvm.dbg.value(metadata ptr undef, metadata !2056, metadata !DIExpression()), !dbg !3152
  call void @llvm.dbg.declare(metadata ptr %buf.i.i, metadata !2062, metadata !DIExpression()), !dbg !3154
  call void @llvm.dbg.declare(metadata ptr %formatter.i.i, metadata !2064, metadata !DIExpression()), !dbg !3155
  call void @llvm.lifetime.start.p0(i64 24, ptr nonnull %buf.i.i), !dbg !3156, !noalias !3157
  store i64 0, ptr %buf.i.i, align 8, !dbg !3163, !noalias !3157
  %_10.sroa.4.0.buf.sroa_idx.i.i = getelementptr inbounds i8, ptr %buf.i.i, i64 8, !dbg !3163
  store ptr inttoptr (i64 1 to ptr), ptr %_10.sroa.4.0.buf.sroa_idx.i.i, align 8, !dbg !3163, !noalias !3157
  %_10.sroa.5.0.buf.sroa_idx.i.i = getelementptr inbounds i8, ptr %buf.i.i, i64 16, !dbg !3163
  store i64 0, ptr %_10.sroa.5.0.buf.sroa_idx.i.i, align 8, !dbg !3163, !noalias !3157
  call void @llvm.lifetime.start.p0(i64 64, ptr nonnull %formatter.i.i), !dbg !3165, !noalias !3157
  call void @llvm.dbg.value(metadata ptr %buf.i.i, metadata !2085, metadata !DIExpression(DW_OP_LLVM_fragment, 0, 64)), !dbg !3166
  call void @llvm.dbg.value(metadata ptr @vtable.0, metadata !2085, metadata !DIExpression(DW_OP_LLVM_fragment, 64, 64)), !dbg !3166
  %5 = getelementptr inbounds i8, ptr %formatter.i.i, i64 52, !dbg !3168
  store i32 0, ptr %5, align 4, !dbg !3168, !noalias !3157
  %6 = getelementptr inbounds i8, ptr %formatter.i.i, i64 48, !dbg !3168
  store i32 32, ptr %6, align 8, !dbg !3168, !noalias !3157
  %7 = getelementptr inbounds i8, ptr %formatter.i.i, i64 56, !dbg !3168
  store i8 3, ptr %7, align 8, !dbg !3168, !noalias !3157
  store i64 0, ptr %formatter.i.i, align 8, !dbg !3168, !noalias !3157
  %8 = getelementptr inbounds i8, ptr %formatter.i.i, i64 16, !dbg !3168
  store i64 0, ptr %8, align 8, !dbg !3168, !noalias !3157
  %9 = getelementptr inbounds i8, ptr %formatter.i.i, i64 32, !dbg !3168
  store ptr %buf.i.i, ptr %9, align 8, !dbg !3168, !noalias !3157
  %10 = getelementptr inbounds i8, ptr %formatter.i.i, i64 40, !dbg !3168
  store ptr @vtable.0, ptr %10, align 8, !dbg !3168, !noalias !3157
  call void @llvm.dbg.value(metadata ptr undef, metadata !2095, metadata !DIExpression()), !dbg !3169
  call void @llvm.dbg.value(metadata ptr %formatter.i.i, metadata !2100, metadata !DIExpression()), !dbg !3169
; invoke <str as core::fmt::Display>::fmt
  %_0.i2.i.i = invoke noundef zeroext i1 @"_ZN42_$LT$str$u20$as$u20$core..fmt..Display$GT$3fmt17h49e1caa39cb6eebbE"(ptr noalias noundef nonnull readonly align 1 %0, i64 noundef %1, ptr noalias noundef nonnull align 8 dereferenceable(64) %formatter.i.i)
          to label %bb1.i.i unwind label %cleanup.i.i, !dbg !3171, !noalias !3172

cleanup.i.i:                                      ; preds = %bb2.i.i.i, %bb4
  %11 = landingpad { ptr, i32 }
          cleanup
  call void @llvm.experimental.noalias.scope.decl(metadata !3173), !dbg !3176
  call void @llvm.dbg.value(metadata ptr %buf.i.i, metadata !415, metadata !DIExpression()), !dbg !3177
  %_1.val.i.i.i = load i64, ptr %buf.i.i, align 8, !dbg !3179, !alias.scope !3173, !noalias !3157
  call void @llvm.dbg.value(metadata ptr undef, metadata !418, metadata !DIExpression()), !dbg !3180
  call void @llvm.dbg.value(metadata ptr undef, metadata !428, metadata !DIExpression()), !dbg !3182
  call void @llvm.dbg.value(metadata ptr undef, metadata !438, metadata !DIExpression()), !dbg !3184
  call void @llvm.dbg.value(metadata ptr undef, metadata !460, metadata !DIExpression()), !dbg !3186
  %12 = icmp eq i64 %_1.val.i.i.i, 0, !dbg !3188
  br i1 %12, label %bb4.i.i, label %"_ZN63_$LT$alloc..alloc..Global$u20$as$u20$core..alloc..Allocator$GT$10deallocate17h0f2d39528d187dc6E.exit.i.i4.i.i.i.i", !dbg !3188

"_ZN63_$LT$alloc..alloc..Global$u20$as$u20$core..alloc..Allocator$GT$10deallocate17h0f2d39528d187dc6E.exit.i.i4.i.i.i.i": ; preds = %cleanup.i.i
  %_1.val1.i.i.i = load ptr, ptr %_10.sroa.4.0.buf.sroa_idx.i.i, align 8, !dbg !3179, !alias.scope !3173, !noalias !3157, !nonnull !44, !noundef !44
  call void @llvm.dbg.value(metadata ptr %_1.val1.i.i.i, metadata !446, metadata !DIExpression()), !dbg !3189
  call void @llvm.dbg.value(metadata i64 1, metadata !448, metadata !DIExpression(DW_OP_LLVM_fragment, 0, 64)), !dbg !3189
  call void @llvm.dbg.value(metadata i64 %_1.val.i.i.i, metadata !448, metadata !DIExpression(DW_OP_LLVM_fragment, 64, 64)), !dbg !3189
  call void @llvm.dbg.value(metadata i64 1, metadata !494, metadata !DIExpression(DW_OP_LLVM_fragment, 0, 64)), !dbg !3190
  call void @llvm.dbg.value(metadata i64 %_1.val.i.i.i, metadata !494, metadata !DIExpression(DW_OP_LLVM_fragment, 64, 64)), !dbg !3190
  call void @llvm.dbg.value(metadata ptr undef, metadata !502, metadata !DIExpression()), !dbg !3190
  call void @llvm.dbg.value(metadata ptr %_1.val1.i.i.i, metadata !503, metadata !DIExpression()), !dbg !3190
  call void @llvm.dbg.value(metadata ptr %_1.val1.i.i.i, metadata !506, metadata !DIExpression()), !dbg !3192
  call void @llvm.dbg.value(metadata i64 1, metadata !513, metadata !DIExpression(DW_OP_LLVM_fragment, 0, 64)), !dbg !3192
  call void @llvm.dbg.value(metadata i64 %_1.val.i.i.i, metadata !513, metadata !DIExpression(DW_OP_LLVM_fragment, 64, 64)), !dbg !3192
  call void @__rust_dealloc(ptr noundef nonnull %_1.val1.i.i.i, i64 noundef %_1.val.i.i.i, i64 noundef 1) #17, !dbg !3194, !noalias !3195
  br label %bb4.i.i, !dbg !3196

bb1.i.i:                                          ; preds = %bb4
  call void @llvm.lifetime.start.p0(i64 0, ptr nonnull %e.i.i.i), !dbg !3197, !noalias !3157
  call void @llvm.dbg.value(metadata i1 %_0.i2.i.i, metadata !2135, metadata !DIExpression(DW_OP_LLVM_convert, 1, DW_ATE_unsigned, DW_OP_LLVM_convert, 8, DW_ATE_unsigned, DW_OP_stack_value)), !dbg !3199
  call void @llvm.dbg.value(metadata ptr @alloc_cc656815297f75969399c3f4b1ad3de4, metadata !2136, metadata !DIExpression(DW_OP_LLVM_fragment, 0, 64)), !dbg !3199
  call void @llvm.dbg.value(metadata i64 55, metadata !2136, metadata !DIExpression(DW_OP_LLVM_fragment, 64, 64)), !dbg !3199
  call void @llvm.dbg.declare(metadata ptr %e.i.i.i, metadata !2139, metadata !DIExpression()), !dbg !3200
  br i1 %_0.i2.i.i, label %bb2.i.i.i, label %_ZN8bitflags6parser10ParseError16invalid_hex_flag17h27170d13378b1cd7E.exit, !dbg !3197

bb2.i.i.i:                                        ; preds = %bb1.i.i
; invoke core::result::unwrap_failed
  invoke void @_ZN4core6result13unwrap_failed17hebd1efddce947a93E(ptr noalias noundef nonnull readonly align 1 @alloc_cc656815297f75969399c3f4b1ad3de4, i64 noundef 55, ptr noundef nonnull align 1 %e.i.i.i, ptr noalias noundef nonnull readonly align 8 dereferenceable(32) @vtable.1, ptr noalias noundef nonnull readonly align 8 dereferenceable(24) @alloc_f886f96e9a07c60a12107d674cf0d185) #18
          to label %.noexc.i.i unwind label %cleanup.i.i, !dbg !3201, !noalias !3172

.noexc.i.i:                                       ; preds = %bb2.i.i.i
  unreachable

bb4.i.i:                                          ; preds = %"_ZN63_$LT$alloc..alloc..Global$u20$as$u20$core..alloc..Allocator$GT$10deallocate17h0f2d39528d187dc6E.exit.i.i4.i.i.i.i", %cleanup.i.i
  resume { ptr, i32 } %11, !dbg !3202

_ZN8bitflags6parser10ParseError16invalid_hex_flag17h27170d13378b1cd7E.exit: ; preds = %bb1.i.i
  call void @llvm.lifetime.end.p0(i64 0, ptr nonnull %e.i.i.i), !dbg !3203, !noalias !3157
  %_7.sroa.4.0._0.sroa_idx = getelementptr inbounds i8, ptr %_0, i64 8, !dbg !3204
  call void @llvm.memcpy.p0.p0.i64(ptr noundef nonnull align 8 dereferenceable(24) %_7.sroa.4.0._0.sroa_idx, ptr noundef nonnull align 8 dereferenceable(24) %buf.i.i, i64 24, i1 false), !dbg !3205
  call void @llvm.lifetime.end.p0(i64 64, ptr nonnull %formatter.i.i), !dbg !3206, !noalias !3157
  call void @llvm.lifetime.end.p0(i64 24, ptr nonnull %buf.i.i), !dbg !3176, !noalias !3157
  br label %bb2, !dbg !3207

bb2:                                              ; preds = %_ZN8bitflags6parser10ParseError16invalid_hex_flag17h27170d13378b1cd7E.exit, %bb5
  %storemerge = phi i64 [ 2, %_ZN8bitflags6parser10ParseError16invalid_hex_flag17h27170d13378b1cd7E.exit ], [ 3, %bb5 ], !dbg !3133
  store i64 %storemerge, ptr %_0, align 16, !dbg !3133
  call void @llvm.lifetime.end.p0(i64 32, ptr nonnull %self), !dbg !3208
  ret void, !dbg !3209
}

; bitflags::traits::<impl bitflags::parser::ParseHex for i128>::parse_hex
; Function Attrs: nonlazybind uwtable
define void @"_ZN8bitflags6traits61_$LT$impl$u20$bitflags..parser..ParseHex$u20$for$u20$i128$GT$9parse_hex17hd0941d0f3e1bcdafE"(ptr dead_on_unwind noalias nocapture noundef writable writeonly sret([32 x i8]) align 16 dereferenceable(32) %_0, ptr noalias noundef nonnull readonly align 1 %0, i64 noundef %1) unnamed_addr #0 personality ptr @rust_eh_personality !dbg !3210 {
start:
  %e.i.i.i = alloca [0 x i8], align 1
  %formatter.i.i = alloca [64 x i8], align 8
  %buf.i.i = alloca [24 x i8], align 8
  %self = alloca [32 x i8], align 16
  tail call void @llvm.dbg.value(metadata ptr %0, metadata !3231, metadata !DIExpression(DW_OP_LLVM_fragment, 0, 64)), !dbg !3232
  tail call void @llvm.dbg.value(metadata i64 %1, metadata !3231, metadata !DIExpression(DW_OP_LLVM_fragment, 64, 64)), !dbg !3232
  call void @llvm.dbg.declare(metadata ptr %self, metadata !3233, metadata !DIExpression()), !dbg !3265
  call void @llvm.lifetime.start.p0(i64 32, ptr nonnull %self), !dbg !3267
; call core::num::<impl i128>::from_str_radix
  call void @"_ZN4core3num22_$LT$impl$u20$i128$GT$14from_str_radix17hccce991a5cf2ea11E"(ptr noalias nocapture noundef nonnull sret([32 x i8]) align 16 dereferenceable(32) %self, ptr noalias noundef nonnull readonly align 1 %0, i64 noundef %1, i32 noundef 16), !dbg !3267
  tail call void @llvm.dbg.value(metadata ptr undef, metadata !3260, metadata !DIExpression()), !dbg !3268
  tail call void @llvm.dbg.value(metadata ptr undef, metadata !3269, metadata !DIExpression(DW_OP_deref)), !dbg !3275
  %2 = load i8, ptr %self, align 16, !dbg !3277, !range !2872, !noundef !44
  %trunc.not = icmp eq i8 %2, 0, !dbg !3278
  br i1 %trunc.not, label %bb5, label %bb4, !dbg !3278

bb5:                                              ; preds = %start
  %3 = getelementptr inbounds i8, ptr %self, i64 16, !dbg !3279
  %t = load i128, ptr %3, align 16, !dbg !3279, !noundef !44
  tail call void @llvm.dbg.value(metadata i128 %t, metadata !3261, metadata !DIExpression()), !dbg !3280
  %4 = getelementptr inbounds i8, ptr %_0, i64 16, !dbg !3281
  store i128 %t, ptr %4, align 16, !dbg !3281
  br label %bb2, !dbg !3282

bb4:                                              ; preds = %start
  tail call void @llvm.dbg.value(metadata i8 poison, metadata !3263, metadata !DIExpression()), !dbg !3283
  call void @llvm.dbg.value(metadata ptr %0, metadata !2041, metadata !DIExpression(DW_OP_LLVM_fragment, 0, 64)), !dbg !3284
  call void @llvm.dbg.value(metadata i64 %1, metadata !2041, metadata !DIExpression(DW_OP_LLVM_fragment, 64, 64)), !dbg !3284
  call void @llvm.dbg.value(metadata ptr %0, metadata !2049, metadata !DIExpression(DW_OP_LLVM_fragment, 0, 64)), !dbg !3286
  call void @llvm.dbg.value(metadata i64 %1, metadata !2049, metadata !DIExpression(DW_OP_LLVM_fragment, 64, 64)), !dbg !3286
  call void @llvm.dbg.value(metadata ptr undef, metadata !2056, metadata !DIExpression()), !dbg !3287
  call void @llvm.dbg.declare(metadata ptr %buf.i.i, metadata !2062, metadata !DIExpression()), !dbg !3289
  call void @llvm.dbg.declare(metadata ptr %formatter.i.i, metadata !2064, metadata !DIExpression()), !dbg !3290
  call void @llvm.lifetime.start.p0(i64 24, ptr nonnull %buf.i.i), !dbg !3291, !noalias !3292
  store i64 0, ptr %buf.i.i, align 8, !dbg !3298, !noalias !3292
  %_10.sroa.4.0.buf.sroa_idx.i.i = getelementptr inbounds i8, ptr %buf.i.i, i64 8, !dbg !3298
  store ptr inttoptr (i64 1 to ptr), ptr %_10.sroa.4.0.buf.sroa_idx.i.i, align 8, !dbg !3298, !noalias !3292
  %_10.sroa.5.0.buf.sroa_idx.i.i = getelementptr inbounds i8, ptr %buf.i.i, i64 16, !dbg !3298
  store i64 0, ptr %_10.sroa.5.0.buf.sroa_idx.i.i, align 8, !dbg !3298, !noalias !3292
  call void @llvm.lifetime.start.p0(i64 64, ptr nonnull %formatter.i.i), !dbg !3300, !noalias !3292
  call void @llvm.dbg.value(metadata ptr %buf.i.i, metadata !2085, metadata !DIExpression(DW_OP_LLVM_fragment, 0, 64)), !dbg !3301
  call void @llvm.dbg.value(metadata ptr @vtable.0, metadata !2085, metadata !DIExpression(DW_OP_LLVM_fragment, 64, 64)), !dbg !3301
  %5 = getelementptr inbounds i8, ptr %formatter.i.i, i64 52, !dbg !3303
  store i32 0, ptr %5, align 4, !dbg !3303, !noalias !3292
  %6 = getelementptr inbounds i8, ptr %formatter.i.i, i64 48, !dbg !3303
  store i32 32, ptr %6, align 8, !dbg !3303, !noalias !3292
  %7 = getelementptr inbounds i8, ptr %formatter.i.i, i64 56, !dbg !3303
  store i8 3, ptr %7, align 8, !dbg !3303, !noalias !3292
  store i64 0, ptr %formatter.i.i, align 8, !dbg !3303, !noalias !3292
  %8 = getelementptr inbounds i8, ptr %formatter.i.i, i64 16, !dbg !3303
  store i64 0, ptr %8, align 8, !dbg !3303, !noalias !3292
  %9 = getelementptr inbounds i8, ptr %formatter.i.i, i64 32, !dbg !3303
  store ptr %buf.i.i, ptr %9, align 8, !dbg !3303, !noalias !3292
  %10 = getelementptr inbounds i8, ptr %formatter.i.i, i64 40, !dbg !3303
  store ptr @vtable.0, ptr %10, align 8, !dbg !3303, !noalias !3292
  call void @llvm.dbg.value(metadata ptr undef, metadata !2095, metadata !DIExpression()), !dbg !3304
  call void @llvm.dbg.value(metadata ptr %formatter.i.i, metadata !2100, metadata !DIExpression()), !dbg !3304
; invoke <str as core::fmt::Display>::fmt
  %_0.i2.i.i = invoke noundef zeroext i1 @"_ZN42_$LT$str$u20$as$u20$core..fmt..Display$GT$3fmt17h49e1caa39cb6eebbE"(ptr noalias noundef nonnull readonly align 1 %0, i64 noundef %1, ptr noalias noundef nonnull align 8 dereferenceable(64) %formatter.i.i)
          to label %bb1.i.i unwind label %cleanup.i.i, !dbg !3306, !noalias !3307

cleanup.i.i:                                      ; preds = %bb2.i.i.i, %bb4
  %11 = landingpad { ptr, i32 }
          cleanup
  call void @llvm.experimental.noalias.scope.decl(metadata !3308), !dbg !3311
  call void @llvm.dbg.value(metadata ptr %buf.i.i, metadata !415, metadata !DIExpression()), !dbg !3312
  %_1.val.i.i.i = load i64, ptr %buf.i.i, align 8, !dbg !3314, !alias.scope !3308, !noalias !3292
  call void @llvm.dbg.value(metadata ptr undef, metadata !418, metadata !DIExpression()), !dbg !3315
  call void @llvm.dbg.value(metadata ptr undef, metadata !428, metadata !DIExpression()), !dbg !3317
  call void @llvm.dbg.value(metadata ptr undef, metadata !438, metadata !DIExpression()), !dbg !3319
  call void @llvm.dbg.value(metadata ptr undef, metadata !460, metadata !DIExpression()), !dbg !3321
  %12 = icmp eq i64 %_1.val.i.i.i, 0, !dbg !3323
  br i1 %12, label %bb4.i.i, label %"_ZN63_$LT$alloc..alloc..Global$u20$as$u20$core..alloc..Allocator$GT$10deallocate17h0f2d39528d187dc6E.exit.i.i4.i.i.i.i", !dbg !3323

"_ZN63_$LT$alloc..alloc..Global$u20$as$u20$core..alloc..Allocator$GT$10deallocate17h0f2d39528d187dc6E.exit.i.i4.i.i.i.i": ; preds = %cleanup.i.i
  %_1.val1.i.i.i = load ptr, ptr %_10.sroa.4.0.buf.sroa_idx.i.i, align 8, !dbg !3314, !alias.scope !3308, !noalias !3292, !nonnull !44, !noundef !44
  call void @llvm.dbg.value(metadata ptr %_1.val1.i.i.i, metadata !446, metadata !DIExpression()), !dbg !3324
  call void @llvm.dbg.value(metadata i64 1, metadata !448, metadata !DIExpression(DW_OP_LLVM_fragment, 0, 64)), !dbg !3324
  call void @llvm.dbg.value(metadata i64 %_1.val.i.i.i, metadata !448, metadata !DIExpression(DW_OP_LLVM_fragment, 64, 64)), !dbg !3324
  call void @llvm.dbg.value(metadata i64 1, metadata !494, metadata !DIExpression(DW_OP_LLVM_fragment, 0, 64)), !dbg !3325
  call void @llvm.dbg.value(metadata i64 %_1.val.i.i.i, metadata !494, metadata !DIExpression(DW_OP_LLVM_fragment, 64, 64)), !dbg !3325
  call void @llvm.dbg.value(metadata ptr undef, metadata !502, metadata !DIExpression()), !dbg !3325
  call void @llvm.dbg.value(metadata ptr %_1.val1.i.i.i, metadata !503, metadata !DIExpression()), !dbg !3325
  call void @llvm.dbg.value(metadata ptr %_1.val1.i.i.i, metadata !506, metadata !DIExpression()), !dbg !3327
  call void @llvm.dbg.value(metadata i64 1, metadata !513, metadata !DIExpression(DW_OP_LLVM_fragment, 0, 64)), !dbg !3327
  call void @llvm.dbg.value(metadata i64 %_1.val.i.i.i, metadata !513, metadata !DIExpression(DW_OP_LLVM_fragment, 64, 64)), !dbg !3327
  call void @__rust_dealloc(ptr noundef nonnull %_1.val1.i.i.i, i64 noundef %_1.val.i.i.i, i64 noundef 1) #17, !dbg !3329, !noalias !3330
  br label %bb4.i.i, !dbg !3331

bb1.i.i:                                          ; preds = %bb4
  call void @llvm.lifetime.start.p0(i64 0, ptr nonnull %e.i.i.i), !dbg !3332, !noalias !3292
  call void @llvm.dbg.value(metadata i1 %_0.i2.i.i, metadata !2135, metadata !DIExpression(DW_OP_LLVM_convert, 1, DW_ATE_unsigned, DW_OP_LLVM_convert, 8, DW_ATE_unsigned, DW_OP_stack_value)), !dbg !3334
  call void @llvm.dbg.value(metadata ptr @alloc_cc656815297f75969399c3f4b1ad3de4, metadata !2136, metadata !DIExpression(DW_OP_LLVM_fragment, 0, 64)), !dbg !3334
  call void @llvm.dbg.value(metadata i64 55, metadata !2136, metadata !DIExpression(DW_OP_LLVM_fragment, 64, 64)), !dbg !3334
  call void @llvm.dbg.declare(metadata ptr %e.i.i.i, metadata !2139, metadata !DIExpression()), !dbg !3335
  br i1 %_0.i2.i.i, label %bb2.i.i.i, label %_ZN8bitflags6parser10ParseError16invalid_hex_flag17h27170d13378b1cd7E.exit, !dbg !3332

bb2.i.i.i:                                        ; preds = %bb1.i.i
; invoke core::result::unwrap_failed
  invoke void @_ZN4core6result13unwrap_failed17hebd1efddce947a93E(ptr noalias noundef nonnull readonly align 1 @alloc_cc656815297f75969399c3f4b1ad3de4, i64 noundef 55, ptr noundef nonnull align 1 %e.i.i.i, ptr noalias noundef nonnull readonly align 8 dereferenceable(32) @vtable.1, ptr noalias noundef nonnull readonly align 8 dereferenceable(24) @alloc_f886f96e9a07c60a12107d674cf0d185) #18
          to label %.noexc.i.i unwind label %cleanup.i.i, !dbg !3336, !noalias !3307

.noexc.i.i:                                       ; preds = %bb2.i.i.i
  unreachable

bb4.i.i:                                          ; preds = %"_ZN63_$LT$alloc..alloc..Global$u20$as$u20$core..alloc..Allocator$GT$10deallocate17h0f2d39528d187dc6E.exit.i.i4.i.i.i.i", %cleanup.i.i
  resume { ptr, i32 } %11, !dbg !3337

_ZN8bitflags6parser10ParseError16invalid_hex_flag17h27170d13378b1cd7E.exit: ; preds = %bb1.i.i
  call void @llvm.lifetime.end.p0(i64 0, ptr nonnull %e.i.i.i), !dbg !3338, !noalias !3292
  %_7.sroa.4.0._0.sroa_idx = getelementptr inbounds i8, ptr %_0, i64 8, !dbg !3339
  call void @llvm.memcpy.p0.p0.i64(ptr noundef nonnull align 8 dereferenceable(24) %_7.sroa.4.0._0.sroa_idx, ptr noundef nonnull align 8 dereferenceable(24) %buf.i.i, i64 24, i1 false), !dbg !3340
  call void @llvm.lifetime.end.p0(i64 64, ptr nonnull %formatter.i.i), !dbg !3341, !noalias !3292
  call void @llvm.lifetime.end.p0(i64 24, ptr nonnull %buf.i.i), !dbg !3311, !noalias !3292
  br label %bb2, !dbg !3342

bb2:                                              ; preds = %_ZN8bitflags6parser10ParseError16invalid_hex_flag17h27170d13378b1cd7E.exit, %bb5
  %storemerge = phi i64 [ 2, %_ZN8bitflags6parser10ParseError16invalid_hex_flag17h27170d13378b1cd7E.exit ], [ 3, %bb5 ], !dbg !3268
  store i64 %storemerge, ptr %_0, align 16, !dbg !3268
  call void @llvm.lifetime.end.p0(i64 32, ptr nonnull %self), !dbg !3343
  ret void, !dbg !3344
}

; bitflags::traits::<impl bitflags::parser::ParseHex for usize>::parse_hex
; Function Attrs: nonlazybind uwtable
define void @"_ZN8bitflags6traits62_$LT$impl$u20$bitflags..parser..ParseHex$u20$for$u20$usize$GT$9parse_hex17hd2baeaad7bcf6889E"(ptr dead_on_unwind noalias nocapture noundef writable writeonly sret([32 x i8]) align 8 dereferenceable(32) %_0, ptr noalias noundef nonnull readonly align 1 %0, i64 noundef %1) unnamed_addr #0 personality ptr @rust_eh_personality !dbg !3345 {
start:
  %e.i.i.i = alloca [0 x i8], align 1
  %formatter.i.i = alloca [64 x i8], align 8
  %buf.i.i = alloca [24 x i8], align 8
  %self = alloca [16 x i8], align 8
  tail call void @llvm.dbg.value(metadata ptr %0, metadata !3364, metadata !DIExpression(DW_OP_LLVM_fragment, 0, 64)), !dbg !3365
  tail call void @llvm.dbg.value(metadata i64 %1, metadata !3364, metadata !DIExpression(DW_OP_LLVM_fragment, 64, 64)), !dbg !3365
  call void @llvm.dbg.declare(metadata ptr %self, metadata !3366, metadata !DIExpression()), !dbg !3398
  call void @llvm.lifetime.start.p0(i64 16, ptr nonnull %self), !dbg !3400
; call core::num::<impl usize>::from_str_radix
  call void @"_ZN4core3num23_$LT$impl$u20$usize$GT$14from_str_radix17h8abe90b47b4bf144E"(ptr noalias nocapture noundef nonnull sret([16 x i8]) align 8 dereferenceable(16) %self, ptr noalias noundef nonnull readonly align 1 %0, i64 noundef %1, i32 noundef 16), !dbg !3400
  tail call void @llvm.dbg.value(metadata ptr undef, metadata !3393, metadata !DIExpression()), !dbg !3401
  tail call void @llvm.dbg.value(metadata ptr undef, metadata !3402, metadata !DIExpression(DW_OP_deref)), !dbg !3408
  %2 = load i8, ptr %self, align 8, !dbg !3410, !range !2872, !noundef !44
  %trunc.not = icmp eq i8 %2, 0, !dbg !3411
  br i1 %trunc.not, label %bb5, label %bb4, !dbg !3411

bb5:                                              ; preds = %start
  %3 = getelementptr inbounds i8, ptr %self, i64 8, !dbg !3412
  %t = load i64, ptr %3, align 8, !dbg !3412, !noundef !44
  tail call void @llvm.dbg.value(metadata i64 %t, metadata !3394, metadata !DIExpression()), !dbg !3413
  %4 = getelementptr inbounds i8, ptr %_0, i64 8, !dbg !3414
  store i64 %t, ptr %4, align 8, !dbg !3414
  br label %bb2, !dbg !3415

bb4:                                              ; preds = %start
  tail call void @llvm.dbg.value(metadata i8 poison, metadata !3396, metadata !DIExpression()), !dbg !3416
  call void @llvm.dbg.value(metadata ptr %0, metadata !2041, metadata !DIExpression(DW_OP_LLVM_fragment, 0, 64)), !dbg !3417
  call void @llvm.dbg.value(metadata i64 %1, metadata !2041, metadata !DIExpression(DW_OP_LLVM_fragment, 64, 64)), !dbg !3417
  call void @llvm.dbg.value(metadata ptr %0, metadata !2049, metadata !DIExpression(DW_OP_LLVM_fragment, 0, 64)), !dbg !3419
  call void @llvm.dbg.value(metadata i64 %1, metadata !2049, metadata !DIExpression(DW_OP_LLVM_fragment, 64, 64)), !dbg !3419
  call void @llvm.dbg.value(metadata ptr undef, metadata !2056, metadata !DIExpression()), !dbg !3420
  call void @llvm.dbg.declare(metadata ptr %buf.i.i, metadata !2062, metadata !DIExpression()), !dbg !3422
  call void @llvm.dbg.declare(metadata ptr %formatter.i.i, metadata !2064, metadata !DIExpression()), !dbg !3423
  call void @llvm.lifetime.start.p0(i64 24, ptr nonnull %buf.i.i), !dbg !3424, !noalias !3425
  store i64 0, ptr %buf.i.i, align 8, !dbg !3431, !noalias !3425
  %_10.sroa.4.0.buf.sroa_idx.i.i = getelementptr inbounds i8, ptr %buf.i.i, i64 8, !dbg !3431
  store ptr inttoptr (i64 1 to ptr), ptr %_10.sroa.4.0.buf.sroa_idx.i.i, align 8, !dbg !3431, !noalias !3425
  %_10.sroa.5.0.buf.sroa_idx.i.i = getelementptr inbounds i8, ptr %buf.i.i, i64 16, !dbg !3431
  store i64 0, ptr %_10.sroa.5.0.buf.sroa_idx.i.i, align 8, !dbg !3431, !noalias !3425
  call void @llvm.lifetime.start.p0(i64 64, ptr nonnull %formatter.i.i), !dbg !3433, !noalias !3425
  call void @llvm.dbg.value(metadata ptr %buf.i.i, metadata !2085, metadata !DIExpression(DW_OP_LLVM_fragment, 0, 64)), !dbg !3434
  call void @llvm.dbg.value(metadata ptr @vtable.0, metadata !2085, metadata !DIExpression(DW_OP_LLVM_fragment, 64, 64)), !dbg !3434
  %5 = getelementptr inbounds i8, ptr %formatter.i.i, i64 52, !dbg !3436
  store i32 0, ptr %5, align 4, !dbg !3436, !noalias !3425
  %6 = getelementptr inbounds i8, ptr %formatter.i.i, i64 48, !dbg !3436
  store i32 32, ptr %6, align 8, !dbg !3436, !noalias !3425
  %7 = getelementptr inbounds i8, ptr %formatter.i.i, i64 56, !dbg !3436
  store i8 3, ptr %7, align 8, !dbg !3436, !noalias !3425
  store i64 0, ptr %formatter.i.i, align 8, !dbg !3436, !noalias !3425
  %8 = getelementptr inbounds i8, ptr %formatter.i.i, i64 16, !dbg !3436
  store i64 0, ptr %8, align 8, !dbg !3436, !noalias !3425
  %9 = getelementptr inbounds i8, ptr %formatter.i.i, i64 32, !dbg !3436
  store ptr %buf.i.i, ptr %9, align 8, !dbg !3436, !noalias !3425
  %10 = getelementptr inbounds i8, ptr %formatter.i.i, i64 40, !dbg !3436
  store ptr @vtable.0, ptr %10, align 8, !dbg !3436, !noalias !3425
  call void @llvm.dbg.value(metadata ptr undef, metadata !2095, metadata !DIExpression()), !dbg !3437
  call void @llvm.dbg.value(metadata ptr %formatter.i.i, metadata !2100, metadata !DIExpression()), !dbg !3437
; invoke <str as core::fmt::Display>::fmt
  %_0.i2.i.i = invoke noundef zeroext i1 @"_ZN42_$LT$str$u20$as$u20$core..fmt..Display$GT$3fmt17h49e1caa39cb6eebbE"(ptr noalias noundef nonnull readonly align 1 %0, i64 noundef %1, ptr noalias noundef nonnull align 8 dereferenceable(64) %formatter.i.i)
          to label %bb1.i.i unwind label %cleanup.i.i, !dbg !3439, !noalias !3440

cleanup.i.i:                                      ; preds = %bb2.i.i.i, %bb4
  %11 = landingpad { ptr, i32 }
          cleanup
  call void @llvm.experimental.noalias.scope.decl(metadata !3441), !dbg !3444
  call void @llvm.dbg.value(metadata ptr %buf.i.i, metadata !415, metadata !DIExpression()), !dbg !3445
  %_1.val.i.i.i = load i64, ptr %buf.i.i, align 8, !dbg !3447, !alias.scope !3441, !noalias !3425
  call void @llvm.dbg.value(metadata ptr undef, metadata !418, metadata !DIExpression()), !dbg !3448
  call void @llvm.dbg.value(metadata ptr undef, metadata !428, metadata !DIExpression()), !dbg !3450
  call void @llvm.dbg.value(metadata ptr undef, metadata !438, metadata !DIExpression()), !dbg !3452
  call void @llvm.dbg.value(metadata ptr undef, metadata !460, metadata !DIExpression()), !dbg !3454
  %12 = icmp eq i64 %_1.val.i.i.i, 0, !dbg !3456
  br i1 %12, label %bb4.i.i, label %"_ZN63_$LT$alloc..alloc..Global$u20$as$u20$core..alloc..Allocator$GT$10deallocate17h0f2d39528d187dc6E.exit.i.i4.i.i.i.i", !dbg !3456

"_ZN63_$LT$alloc..alloc..Global$u20$as$u20$core..alloc..Allocator$GT$10deallocate17h0f2d39528d187dc6E.exit.i.i4.i.i.i.i": ; preds = %cleanup.i.i
  %_1.val1.i.i.i = load ptr, ptr %_10.sroa.4.0.buf.sroa_idx.i.i, align 8, !dbg !3447, !alias.scope !3441, !noalias !3425, !nonnull !44, !noundef !44
  call void @llvm.dbg.value(metadata ptr %_1.val1.i.i.i, metadata !446, metadata !DIExpression()), !dbg !3457
  call void @llvm.dbg.value(metadata i64 1, metadata !448, metadata !DIExpression(DW_OP_LLVM_fragment, 0, 64)), !dbg !3457
  call void @llvm.dbg.value(metadata i64 %_1.val.i.i.i, metadata !448, metadata !DIExpression(DW_OP_LLVM_fragment, 64, 64)), !dbg !3457
  call void @llvm.dbg.value(metadata i64 1, metadata !494, metadata !DIExpression(DW_OP_LLVM_fragment, 0, 64)), !dbg !3458
  call void @llvm.dbg.value(metadata i64 %_1.val.i.i.i, metadata !494, metadata !DIExpression(DW_OP_LLVM_fragment, 64, 64)), !dbg !3458
  call void @llvm.dbg.value(metadata ptr undef, metadata !502, metadata !DIExpression()), !dbg !3458
  call void @llvm.dbg.value(metadata ptr %_1.val1.i.i.i, metadata !503, metadata !DIExpression()), !dbg !3458
  call void @llvm.dbg.value(metadata ptr %_1.val1.i.i.i, metadata !506, metadata !DIExpression()), !dbg !3460
  call void @llvm.dbg.value(metadata i64 1, metadata !513, metadata !DIExpression(DW_OP_LLVM_fragment, 0, 64)), !dbg !3460
  call void @llvm.dbg.value(metadata i64 %_1.val.i.i.i, metadata !513, metadata !DIExpression(DW_OP_LLVM_fragment, 64, 64)), !dbg !3460
  call void @__rust_dealloc(ptr noundef nonnull %_1.val1.i.i.i, i64 noundef %_1.val.i.i.i, i64 noundef 1) #17, !dbg !3462, !noalias !3463
  br label %bb4.i.i, !dbg !3464

bb1.i.i:                                          ; preds = %bb4
  call void @llvm.lifetime.start.p0(i64 0, ptr nonnull %e.i.i.i), !dbg !3465, !noalias !3425
  call void @llvm.dbg.value(metadata i1 %_0.i2.i.i, metadata !2135, metadata !DIExpression(DW_OP_LLVM_convert, 1, DW_ATE_unsigned, DW_OP_LLVM_convert, 8, DW_ATE_unsigned, DW_OP_stack_value)), !dbg !3467
  call void @llvm.dbg.value(metadata ptr @alloc_cc656815297f75969399c3f4b1ad3de4, metadata !2136, metadata !DIExpression(DW_OP_LLVM_fragment, 0, 64)), !dbg !3467
  call void @llvm.dbg.value(metadata i64 55, metadata !2136, metadata !DIExpression(DW_OP_LLVM_fragment, 64, 64)), !dbg !3467
  call void @llvm.dbg.declare(metadata ptr %e.i.i.i, metadata !2139, metadata !DIExpression()), !dbg !3468
  br i1 %_0.i2.i.i, label %bb2.i.i.i, label %_ZN8bitflags6parser10ParseError16invalid_hex_flag17h27170d13378b1cd7E.exit, !dbg !3465

bb2.i.i.i:                                        ; preds = %bb1.i.i
; invoke core::result::unwrap_failed
  invoke void @_ZN4core6result13unwrap_failed17hebd1efddce947a93E(ptr noalias noundef nonnull readonly align 1 @alloc_cc656815297f75969399c3f4b1ad3de4, i64 noundef 55, ptr noundef nonnull align 1 %e.i.i.i, ptr noalias noundef nonnull readonly align 8 dereferenceable(32) @vtable.1, ptr noalias noundef nonnull readonly align 8 dereferenceable(24) @alloc_f886f96e9a07c60a12107d674cf0d185) #18
          to label %.noexc.i.i unwind label %cleanup.i.i, !dbg !3469, !noalias !3440

.noexc.i.i:                                       ; preds = %bb2.i.i.i
  unreachable

bb4.i.i:                                          ; preds = %"_ZN63_$LT$alloc..alloc..Global$u20$as$u20$core..alloc..Allocator$GT$10deallocate17h0f2d39528d187dc6E.exit.i.i4.i.i.i.i", %cleanup.i.i
  resume { ptr, i32 } %11, !dbg !3470

_ZN8bitflags6parser10ParseError16invalid_hex_flag17h27170d13378b1cd7E.exit: ; preds = %bb1.i.i
  call void @llvm.lifetime.end.p0(i64 0, ptr nonnull %e.i.i.i), !dbg !3471, !noalias !3425
  %_7.sroa.4.0._0.sroa_idx = getelementptr inbounds i8, ptr %_0, i64 8, !dbg !3472
  call void @llvm.memcpy.p0.p0.i64(ptr noundef nonnull align 8 dereferenceable(24) %_7.sroa.4.0._0.sroa_idx, ptr noundef nonnull align 8 dereferenceable(24) %buf.i.i, i64 24, i1 false), !dbg !3473
  call void @llvm.lifetime.end.p0(i64 64, ptr nonnull %formatter.i.i), !dbg !3474, !noalias !3425
  call void @llvm.lifetime.end.p0(i64 24, ptr nonnull %buf.i.i), !dbg !3444, !noalias !3425
  br label %bb2, !dbg !3475

bb2:                                              ; preds = %_ZN8bitflags6parser10ParseError16invalid_hex_flag17h27170d13378b1cd7E.exit, %bb5
  %storemerge = phi i64 [ 2, %_ZN8bitflags6parser10ParseError16invalid_hex_flag17h27170d13378b1cd7E.exit ], [ 3, %bb5 ], !dbg !3401
  store i64 %storemerge, ptr %_0, align 8, !dbg !3401
  call void @llvm.lifetime.end.p0(i64 16, ptr nonnull %self), !dbg !3476
  ret void, !dbg !3477
}

; bitflags::traits::<impl bitflags::parser::ParseHex for isize>::parse_hex
; Function Attrs: nonlazybind uwtable
define void @"_ZN8bitflags6traits62_$LT$impl$u20$bitflags..parser..ParseHex$u20$for$u20$isize$GT$9parse_hex17h4405e6dc6eb71eb7E"(ptr dead_on_unwind noalias nocapture noundef writable writeonly sret([32 x i8]) align 8 dereferenceable(32) %_0, ptr noalias noundef nonnull readonly align 1 %0, i64 noundef %1) unnamed_addr #0 personality ptr @rust_eh_personality !dbg !3478 {
start:
  %e.i.i.i = alloca [0 x i8], align 1
  %formatter.i.i = alloca [64 x i8], align 8
  %buf.i.i = alloca [24 x i8], align 8
  %self = alloca [16 x i8], align 8
  tail call void @llvm.dbg.value(metadata ptr %0, metadata !3499, metadata !DIExpression(DW_OP_LLVM_fragment, 0, 64)), !dbg !3500
  tail call void @llvm.dbg.value(metadata i64 %1, metadata !3499, metadata !DIExpression(DW_OP_LLVM_fragment, 64, 64)), !dbg !3500
  call void @llvm.dbg.declare(metadata ptr %self, metadata !3501, metadata !DIExpression()), !dbg !3533
  call void @llvm.lifetime.start.p0(i64 16, ptr nonnull %self), !dbg !3535
; call core::num::<impl isize>::from_str_radix
  call void @"_ZN4core3num23_$LT$impl$u20$isize$GT$14from_str_radix17hbdcdc82308541c40E"(ptr noalias nocapture noundef nonnull sret([16 x i8]) align 8 dereferenceable(16) %self, ptr noalias noundef nonnull readonly align 1 %0, i64 noundef %1, i32 noundef 16), !dbg !3535
  tail call void @llvm.dbg.value(metadata ptr undef, metadata !3528, metadata !DIExpression()), !dbg !3536
  tail call void @llvm.dbg.value(metadata ptr undef, metadata !3537, metadata !DIExpression(DW_OP_deref)), !dbg !3543
  %2 = load i8, ptr %self, align 8, !dbg !3545, !range !2872, !noundef !44
  %trunc.not = icmp eq i8 %2, 0, !dbg !3546
  br i1 %trunc.not, label %bb5, label %bb4, !dbg !3546

bb5:                                              ; preds = %start
  %3 = getelementptr inbounds i8, ptr %self, i64 8, !dbg !3547
  %t = load i64, ptr %3, align 8, !dbg !3547, !noundef !44
  tail call void @llvm.dbg.value(metadata i64 %t, metadata !3529, metadata !DIExpression()), !dbg !3548
  %4 = getelementptr inbounds i8, ptr %_0, i64 8, !dbg !3549
  store i64 %t, ptr %4, align 8, !dbg !3549
  br label %bb2, !dbg !3550

bb4:                                              ; preds = %start
  tail call void @llvm.dbg.value(metadata i8 poison, metadata !3531, metadata !DIExpression()), !dbg !3551
  call void @llvm.dbg.value(metadata ptr %0, metadata !2041, metadata !DIExpression(DW_OP_LLVM_fragment, 0, 64)), !dbg !3552
  call void @llvm.dbg.value(metadata i64 %1, metadata !2041, metadata !DIExpression(DW_OP_LLVM_fragment, 64, 64)), !dbg !3552
  call void @llvm.dbg.value(metadata ptr %0, metadata !2049, metadata !DIExpression(DW_OP_LLVM_fragment, 0, 64)), !dbg !3554
  call void @llvm.dbg.value(metadata i64 %1, metadata !2049, metadata !DIExpression(DW_OP_LLVM_fragment, 64, 64)), !dbg !3554
  call void @llvm.dbg.value(metadata ptr undef, metadata !2056, metadata !DIExpression()), !dbg !3555
  call void @llvm.dbg.declare(metadata ptr %buf.i.i, metadata !2062, metadata !DIExpression()), !dbg !3557
  call void @llvm.dbg.declare(metadata ptr %formatter.i.i, metadata !2064, metadata !DIExpression()), !dbg !3558
  call void @llvm.lifetime.start.p0(i64 24, ptr nonnull %buf.i.i), !dbg !3559, !noalias !3560
  store i64 0, ptr %buf.i.i, align 8, !dbg !3566, !noalias !3560
  %_10.sroa.4.0.buf.sroa_idx.i.i = getelementptr inbounds i8, ptr %buf.i.i, i64 8, !dbg !3566
  store ptr inttoptr (i64 1 to ptr), ptr %_10.sroa.4.0.buf.sroa_idx.i.i, align 8, !dbg !3566, !noalias !3560
  %_10.sroa.5.0.buf.sroa_idx.i.i = getelementptr inbounds i8, ptr %buf.i.i, i64 16, !dbg !3566
  store i64 0, ptr %_10.sroa.5.0.buf.sroa_idx.i.i, align 8, !dbg !3566, !noalias !3560
  call void @llvm.lifetime.start.p0(i64 64, ptr nonnull %formatter.i.i), !dbg !3568, !noalias !3560
  call void @llvm.dbg.value(metadata ptr %buf.i.i, metadata !2085, metadata !DIExpression(DW_OP_LLVM_fragment, 0, 64)), !dbg !3569
  call void @llvm.dbg.value(metadata ptr @vtable.0, metadata !2085, metadata !DIExpression(DW_OP_LLVM_fragment, 64, 64)), !dbg !3569
  %5 = getelementptr inbounds i8, ptr %formatter.i.i, i64 52, !dbg !3571
  store i32 0, ptr %5, align 4, !dbg !3571, !noalias !3560
  %6 = getelementptr inbounds i8, ptr %formatter.i.i, i64 48, !dbg !3571
  store i32 32, ptr %6, align 8, !dbg !3571, !noalias !3560
  %7 = getelementptr inbounds i8, ptr %formatter.i.i, i64 56, !dbg !3571
  store i8 3, ptr %7, align 8, !dbg !3571, !noalias !3560
  store i64 0, ptr %formatter.i.i, align 8, !dbg !3571, !noalias !3560
  %8 = getelementptr inbounds i8, ptr %formatter.i.i, i64 16, !dbg !3571
  store i64 0, ptr %8, align 8, !dbg !3571, !noalias !3560
  %9 = getelementptr inbounds i8, ptr %formatter.i.i, i64 32, !dbg !3571
  store ptr %buf.i.i, ptr %9, align 8, !dbg !3571, !noalias !3560
  %10 = getelementptr inbounds i8, ptr %formatter.i.i, i64 40, !dbg !3571
  store ptr @vtable.0, ptr %10, align 8, !dbg !3571, !noalias !3560
  call void @llvm.dbg.value(metadata ptr undef, metadata !2095, metadata !DIExpression()), !dbg !3572
  call void @llvm.dbg.value(metadata ptr %formatter.i.i, metadata !2100, metadata !DIExpression()), !dbg !3572
; invoke <str as core::fmt::Display>::fmt
  %_0.i2.i.i = invoke noundef zeroext i1 @"_ZN42_$LT$str$u20$as$u20$core..fmt..Display$GT$3fmt17h49e1caa39cb6eebbE"(ptr noalias noundef nonnull readonly align 1 %0, i64 noundef %1, ptr noalias noundef nonnull align 8 dereferenceable(64) %formatter.i.i)
          to label %bb1.i.i unwind label %cleanup.i.i, !dbg !3574, !noalias !3575

cleanup.i.i:                                      ; preds = %bb2.i.i.i, %bb4
  %11 = landingpad { ptr, i32 }
          cleanup
  call void @llvm.experimental.noalias.scope.decl(metadata !3576), !dbg !3579
  call void @llvm.dbg.value(metadata ptr %buf.i.i, metadata !415, metadata !DIExpression()), !dbg !3580
  %_1.val.i.i.i = load i64, ptr %buf.i.i, align 8, !dbg !3582, !alias.scope !3576, !noalias !3560
  call void @llvm.dbg.value(metadata ptr undef, metadata !418, metadata !DIExpression()), !dbg !3583
  call void @llvm.dbg.value(metadata ptr undef, metadata !428, metadata !DIExpression()), !dbg !3585
  call void @llvm.dbg.value(metadata ptr undef, metadata !438, metadata !DIExpression()), !dbg !3587
  call void @llvm.dbg.value(metadata ptr undef, metadata !460, metadata !DIExpression()), !dbg !3589
  %12 = icmp eq i64 %_1.val.i.i.i, 0, !dbg !3591
  br i1 %12, label %bb4.i.i, label %"_ZN63_$LT$alloc..alloc..Global$u20$as$u20$core..alloc..Allocator$GT$10deallocate17h0f2d39528d187dc6E.exit.i.i4.i.i.i.i", !dbg !3591

"_ZN63_$LT$alloc..alloc..Global$u20$as$u20$core..alloc..Allocator$GT$10deallocate17h0f2d39528d187dc6E.exit.i.i4.i.i.i.i": ; preds = %cleanup.i.i
  %_1.val1.i.i.i = load ptr, ptr %_10.sroa.4.0.buf.sroa_idx.i.i, align 8, !dbg !3582, !alias.scope !3576, !noalias !3560, !nonnull !44, !noundef !44
  call void @llvm.dbg.value(metadata ptr %_1.val1.i.i.i, metadata !446, metadata !DIExpression()), !dbg !3592
  call void @llvm.dbg.value(metadata i64 1, metadata !448, metadata !DIExpression(DW_OP_LLVM_fragment, 0, 64)), !dbg !3592
  call void @llvm.dbg.value(metadata i64 %_1.val.i.i.i, metadata !448, metadata !DIExpression(DW_OP_LLVM_fragment, 64, 64)), !dbg !3592
  call void @llvm.dbg.value(metadata i64 1, metadata !494, metadata !DIExpression(DW_OP_LLVM_fragment, 0, 64)), !dbg !3593
  call void @llvm.dbg.value(metadata i64 %_1.val.i.i.i, metadata !494, metadata !DIExpression(DW_OP_LLVM_fragment, 64, 64)), !dbg !3593
  call void @llvm.dbg.value(metadata ptr undef, metadata !502, metadata !DIExpression()), !dbg !3593
  call void @llvm.dbg.value(metadata ptr %_1.val1.i.i.i, metadata !503, metadata !DIExpression()), !dbg !3593
  call void @llvm.dbg.value(metadata ptr %_1.val1.i.i.i, metadata !506, metadata !DIExpression()), !dbg !3595
  call void @llvm.dbg.value(metadata i64 1, metadata !513, metadata !DIExpression(DW_OP_LLVM_fragment, 0, 64)), !dbg !3595
  call void @llvm.dbg.value(metadata i64 %_1.val.i.i.i, metadata !513, metadata !DIExpression(DW_OP_LLVM_fragment, 64, 64)), !dbg !3595
  call void @__rust_dealloc(ptr noundef nonnull %_1.val1.i.i.i, i64 noundef %_1.val.i.i.i, i64 noundef 1) #17, !dbg !3597, !noalias !3598
  br label %bb4.i.i, !dbg !3599

bb1.i.i:                                          ; preds = %bb4
  call void @llvm.lifetime.start.p0(i64 0, ptr nonnull %e.i.i.i), !dbg !3600, !noalias !3560
  call void @llvm.dbg.value(metadata i1 %_0.i2.i.i, metadata !2135, metadata !DIExpression(DW_OP_LLVM_convert, 1, DW_ATE_unsigned, DW_OP_LLVM_convert, 8, DW_ATE_unsigned, DW_OP_stack_value)), !dbg !3602
  call void @llvm.dbg.value(metadata ptr @alloc_cc656815297f75969399c3f4b1ad3de4, metadata !2136, metadata !DIExpression(DW_OP_LLVM_fragment, 0, 64)), !dbg !3602
  call void @llvm.dbg.value(metadata i64 55, metadata !2136, metadata !DIExpression(DW_OP_LLVM_fragment, 64, 64)), !dbg !3602
  call void @llvm.dbg.declare(metadata ptr %e.i.i.i, metadata !2139, metadata !DIExpression()), !dbg !3603
  br i1 %_0.i2.i.i, label %bb2.i.i.i, label %_ZN8bitflags6parser10ParseError16invalid_hex_flag17h27170d13378b1cd7E.exit, !dbg !3600

bb2.i.i.i:                                        ; preds = %bb1.i.i
; invoke core::result::unwrap_failed
  invoke void @_ZN4core6result13unwrap_failed17hebd1efddce947a93E(ptr noalias noundef nonnull readonly align 1 @alloc_cc656815297f75969399c3f4b1ad3de4, i64 noundef 55, ptr noundef nonnull align 1 %e.i.i.i, ptr noalias noundef nonnull readonly align 8 dereferenceable(32) @vtable.1, ptr noalias noundef nonnull readonly align 8 dereferenceable(24) @alloc_f886f96e9a07c60a12107d674cf0d185) #18
          to label %.noexc.i.i unwind label %cleanup.i.i, !dbg !3604, !noalias !3575

.noexc.i.i:                                       ; preds = %bb2.i.i.i
  unreachable

bb4.i.i:                                          ; preds = %"_ZN63_$LT$alloc..alloc..Global$u20$as$u20$core..alloc..Allocator$GT$10deallocate17h0f2d39528d187dc6E.exit.i.i4.i.i.i.i", %cleanup.i.i
  resume { ptr, i32 } %11, !dbg !3605

_ZN8bitflags6parser10ParseError16invalid_hex_flag17h27170d13378b1cd7E.exit: ; preds = %bb1.i.i
  call void @llvm.lifetime.end.p0(i64 0, ptr nonnull %e.i.i.i), !dbg !3606, !noalias !3560
  %_7.sroa.4.0._0.sroa_idx = getelementptr inbounds i8, ptr %_0, i64 8, !dbg !3607
  call void @llvm.memcpy.p0.p0.i64(ptr noundef nonnull align 8 dereferenceable(24) %_7.sroa.4.0._0.sroa_idx, ptr noundef nonnull align 8 dereferenceable(24) %buf.i.i, i64 24, i1 false), !dbg !3608
  call void @llvm.lifetime.end.p0(i64 64, ptr nonnull %formatter.i.i), !dbg !3609, !noalias !3560
  call void @llvm.lifetime.end.p0(i64 24, ptr nonnull %buf.i.i), !dbg !3579, !noalias !3560
  br label %bb2, !dbg !3610

bb2:                                              ; preds = %_ZN8bitflags6parser10ParseError16invalid_hex_flag17h27170d13378b1cd7E.exit, %bb5
  %storemerge = phi i64 [ 2, %_ZN8bitflags6parser10ParseError16invalid_hex_flag17h27170d13378b1cd7E.exit ], [ 3, %bb5 ], !dbg !3536
  store i64 %storemerge, ptr %_0, align 8, !dbg !3536
  call void @llvm.lifetime.end.p0(i64 16, ptr nonnull %self), !dbg !3611
  ret void, !dbg !3612
}

; Function Attrs: mustprogress nocallback nofree nosync nounwind speculatable willreturn memory(none)
declare void @llvm.dbg.declare(metadata, metadata, metadata) #6

; <str as core::fmt::Display>::fmt
; Function Attrs: nonlazybind uwtable
declare noundef zeroext i1 @"_ZN42_$LT$str$u20$as$u20$core..fmt..Display$GT$3fmt17h49e1caa39cb6eebbE"(ptr noalias noundef nonnull readonly align 1, i64 noundef, ptr noalias noundef align 8 dereferenceable(64)) unnamed_addr #0

; Function Attrs: nonlazybind uwtable
declare noundef i32 @rust_eh_personality(i32 noundef, i32 noundef, i64 noundef, ptr noundef, ptr noundef) unnamed_addr #0

; Function Attrs: mustprogress nocallback nofree nounwind willreturn memory(argmem: readwrite)
declare void @llvm.memcpy.p0.p0.i64(ptr noalias nocapture writeonly, ptr noalias nocapture readonly, i64, i1 immarg) #7

; core::fmt::write
; Function Attrs: nonlazybind uwtable
declare noundef zeroext i1 @_ZN4core3fmt5write17h2b71bd12250911d0E(ptr noundef nonnull align 1, ptr noalias noundef readonly align 8 dereferenceable(48), ptr noalias nocapture noundef readonly align 8 dereferenceable(48)) unnamed_addr #0

; Function Attrs: mustprogress nocallback nofree nosync nounwind willreturn memory(inaccessiblemem: write)
declare void @llvm.assume(i1 noundef) #8

; core::result::unwrap_failed
; Function Attrs: cold noinline noreturn nonlazybind uwtable
declare void @_ZN4core6result13unwrap_failed17hebd1efddce947a93E(ptr noalias noundef nonnull readonly align 1, i64 noundef, ptr noundef nonnull align 1, ptr noalias noundef readonly align 8 dereferenceable(32), ptr noalias noundef readonly align 8 dereferenceable(24)) unnamed_addr #9

; core::fmt::Formatter::write_str
; Function Attrs: nonlazybind uwtable
declare noundef zeroext i1 @_ZN4core3fmt9Formatter9write_str17h35be9e09c65db375E(ptr noalias noundef align 8 dereferenceable(64), ptr noalias noundef nonnull readonly align 1, i64 noundef) unnamed_addr #0

; Function Attrs: nounwind nonlazybind allockind("alloc,uninitialized,aligned") allocsize(0) uwtable
declare noalias noundef ptr @__rust_alloc(i64 noundef, i64 allocalign noundef) unnamed_addr #10

; Function Attrs: nounwind nonlazybind allockind("realloc,aligned") allocsize(3) uwtable
declare noalias noundef ptr @__rust_realloc(ptr allocptr noundef, i64 noundef, i64 allocalign noundef, i64 noundef) unnamed_addr #11

; Function Attrs: mustprogress nocallback nofree nosync nounwind speculatable willreturn memory(none)
declare { i64, i1 } @llvm.uadd.with.overflow.i64(i64, i64) #6

; alloc::raw_vec::handle_error
; Function Attrs: cold noreturn nonlazybind uwtable
declare void @_ZN5alloc7raw_vec12handle_error17hbecd345b13023a3fE(i64 noundef, i64) unnamed_addr #12

; Function Attrs: nounwind nonlazybind allockind("free") uwtable
declare void @__rust_dealloc(ptr allocptr noundef, i64 noundef, i64 noundef) unnamed_addr #13

; core::num::<impl u8>::from_str_radix
; Function Attrs: nonlazybind uwtable
declare { i1, i8 } @"_ZN4core3num20_$LT$impl$u20$u8$GT$14from_str_radix17h41e9f9078a216956E"(ptr noalias noundef nonnull readonly align 1, i64 noundef, i32 noundef) unnamed_addr #0

; core::num::<impl i8>::from_str_radix
; Function Attrs: nonlazybind uwtable
declare { i1, i8 } @"_ZN4core3num20_$LT$impl$u20$i8$GT$14from_str_radix17h20aacebedacf23a0E"(ptr noalias noundef nonnull readonly align 1, i64 noundef, i32 noundef) unnamed_addr #0

; core::num::<impl u16>::from_str_radix
; Function Attrs: nonlazybind uwtable
declare i32 @"_ZN4core3num21_$LT$impl$u20$u16$GT$14from_str_radix17hff815474f954dfe0E"(ptr noalias noundef nonnull readonly align 1, i64 noundef, i32 noundef) unnamed_addr #0

; core::num::<impl i16>::from_str_radix
; Function Attrs: nonlazybind uwtable
declare i32 @"_ZN4core3num21_$LT$impl$u20$i16$GT$14from_str_radix17h4ef6850c52336f05E"(ptr noalias noundef nonnull readonly align 1, i64 noundef, i32 noundef) unnamed_addr #0

; core::num::<impl u32>::from_str_radix
; Function Attrs: nonlazybind uwtable
declare i64 @"_ZN4core3num21_$LT$impl$u20$u32$GT$14from_str_radix17h4d70b5448c9c50e7E"(ptr noalias noundef nonnull readonly align 1, i64 noundef, i32 noundef) unnamed_addr #0

; core::num::<impl i32>::from_str_radix
; Function Attrs: nonlazybind uwtable
declare i64 @"_ZN4core3num21_$LT$impl$u20$i32$GT$14from_str_radix17h67a4a3ae962b2ca5E"(ptr noalias noundef nonnull readonly align 1, i64 noundef, i32 noundef) unnamed_addr #0

; core::num::<impl u64>::from_str_radix
; Function Attrs: nonlazybind uwtable
declare void @"_ZN4core3num21_$LT$impl$u20$u64$GT$14from_str_radix17hd211dd31cbc37b47E"(ptr dead_on_unwind noalias nocapture noundef writable sret([16 x i8]) align 8 dereferenceable(16), ptr noalias noundef nonnull readonly align 1, i64 noundef, i32 noundef) unnamed_addr #0

; core::num::<impl i64>::from_str_radix
; Function Attrs: nonlazybind uwtable
declare void @"_ZN4core3num21_$LT$impl$u20$i64$GT$14from_str_radix17hcc78951207acf4caE"(ptr dead_on_unwind noalias nocapture noundef writable sret([16 x i8]) align 8 dereferenceable(16), ptr noalias noundef nonnull readonly align 1, i64 noundef, i32 noundef) unnamed_addr #0

; core::num::<impl u128>::from_str_radix
; Function Attrs: nonlazybind uwtable
declare void @"_ZN4core3num22_$LT$impl$u20$u128$GT$14from_str_radix17h27d959bc6c931902E"(ptr dead_on_unwind noalias nocapture noundef writable sret([32 x i8]) align 16 dereferenceable(32), ptr noalias noundef nonnull readonly align 1, i64 noundef, i32 noundef) unnamed_addr #0

; core::num::<impl i128>::from_str_radix
; Function Attrs: nonlazybind uwtable
declare void @"_ZN4core3num22_$LT$impl$u20$i128$GT$14from_str_radix17hccce991a5cf2ea11E"(ptr dead_on_unwind noalias nocapture noundef writable sret([32 x i8]) align 16 dereferenceable(32), ptr noalias noundef nonnull readonly align 1, i64 noundef, i32 noundef) unnamed_addr #0

; core::num::<impl usize>::from_str_radix
; Function Attrs: nonlazybind uwtable
declare void @"_ZN4core3num23_$LT$impl$u20$usize$GT$14from_str_radix17h8abe90b47b4bf144E"(ptr dead_on_unwind noalias nocapture noundef writable sret([16 x i8]) align 8 dereferenceable(16), ptr noalias noundef nonnull readonly align 1, i64 noundef, i32 noundef) unnamed_addr #0

; core::num::<impl isize>::from_str_radix
; Function Attrs: nonlazybind uwtable
declare void @"_ZN4core3num23_$LT$impl$u20$isize$GT$14from_str_radix17hbdcdc82308541c40E"(ptr dead_on_unwind noalias nocapture noundef writable sret([16 x i8]) align 8 dereferenceable(16), ptr noalias noundef nonnull readonly align 1, i64 noundef, i32 noundef) unnamed_addr #0

; Function Attrs: mustprogress nocallback nofree nosync nounwind willreturn memory(argmem: readwrite)
declare void @llvm.lifetime.start.p0(i64 immarg, ptr nocapture) #14

; Function Attrs: mustprogress nocallback nofree nosync nounwind willreturn memory(argmem: readwrite)
declare void @llvm.lifetime.end.p0(i64 immarg, ptr nocapture) #14

; Function Attrs: nocallback nofree nosync nounwind speculatable willreturn memory(none)
declare void @llvm.dbg.value(metadata, metadata, metadata) #15

; Function Attrs: nocallback nofree nosync nounwind willreturn memory(inaccessiblemem: readwrite)
declare void @llvm.experimental.noalias.scope.decl(metadata) #16

; Function Attrs: nocallback nofree nosync nounwind speculatable willreturn memory(none)
declare i64 @llvm.umax.i64(i64, i64) #15

attributes #0 = { nonlazybind uwtable "probe-stack"="inline-asm" "target-cpu"="x86-64" }
attributes #1 = { nounwind nonlazybind uwtable "probe-stack"="inline-asm" "target-cpu"="x86-64" }
attributes #2 = { inlinehint nonlazybind uwtable "probe-stack"="inline-asm" "target-cpu"="x86-64" }
attributes #3 = { noinline nounwind nonlazybind uwtable "probe-stack"="inline-asm" "target-cpu"="x86-64" }
attributes #4 = { cold nonlazybind uwtable "probe-stack"="inline-asm" "target-cpu"="x86-64" }
attributes #5 = { noinline nonlazybind uwtable "probe-stack"="inline-asm" "target-cpu"="x86-64" }
attributes #6 = { mustprogress nocallback nofree nosync nounwind speculatable willreturn memory(none) }
attributes #7 = { mustprogress nocallback nofree nounwind willreturn memory(argmem: readwrite) }
attributes #8 = { mustprogress nocallback nofree nosync nounwind willreturn memory(inaccessiblemem: write) }
attributes #9 = { cold noinline noreturn nonlazybind uwtable "probe-stack"="inline-asm" "target-cpu"="x86-64" }
attributes #10 = { nounwind nonlazybind allockind("alloc,uninitialized,aligned") allocsize(0) uwtable "alloc-family"="__rust_alloc" "probe-stack"="inline-asm" "target-cpu"="x86-64" }
attributes #11 = { nounwind nonlazybind allockind("realloc,aligned") allocsize(3) uwtable "alloc-family"="__rust_alloc" "probe-stack"="inline-asm" "target-cpu"="x86-64" }
attributes #12 = { cold noreturn nonlazybind uwtable "probe-stack"="inline-asm" "target-cpu"="x86-64" }
attributes #13 = { nounwind nonlazybind allockind("free") uwtable "alloc-family"="__rust_alloc" "probe-stack"="inline-asm" "target-cpu"="x86-64" }
attributes #14 = { mustprogress nocallback nofree nosync nounwind willreturn memory(argmem: readwrite) }
attributes #15 = { nocallback nofree nosync nounwind speculatable willreturn memory(none) }
attributes #16 = { nocallback nofree nosync nounwind willreturn memory(inaccessiblemem: readwrite) }
attributes #17 = { nounwind }
attributes #18 = { noreturn }

!llvm.module.flags = !{!65, !66, !67, !68}
!llvm.ident = !{!69}
!llvm.dbg.cu = !{!70}

!0 = !DIGlobalVariableExpression(var: !1, expr: !DIExpression())
!1 = distinct !DIGlobalVariable(name: "<alloc::string::String as core::fmt::Write>::{vtable}", scope: null, file: !2, type: !3, isLocal: true, isDefinition: true)
!2 = !DIFile(filename: "<unknown>", directory: "")
!3 = !DICompositeType(tag: DW_TAG_structure_type, name: "<alloc::string::String as core::fmt::Write>::{vtable_type}", file: !2, size: 384, align: 64, flags: DIFlagArtificial, elements: !4, vtableHolder: !14, templateParams: !44, identifier: "bf2e9e5f1f1004ccd265384a9eed047f")
!4 = !{!5, !8, !10, !11, !12, !13}
!5 = !DIDerivedType(tag: DW_TAG_member, name: "drop_in_place", scope: !3, file: !2, baseType: !6, size: 64, align: 64)
!6 = !DIDerivedType(tag: DW_TAG_pointer_type, name: "*const ()", baseType: !7, size: 64, align: 64, dwarfAddressSpace: 0)
!7 = !DIBasicType(name: "()", encoding: DW_ATE_unsigned)
!8 = !DIDerivedType(tag: DW_TAG_member, name: "size", scope: !3, file: !2, baseType: !9, size: 64, align: 64, offset: 64)
!9 = !DIBasicType(name: "usize", size: 64, encoding: DW_ATE_unsigned)
!10 = !DIDerivedType(tag: DW_TAG_member, name: "align", scope: !3, file: !2, baseType: !9, size: 64, align: 64, offset: 128)
!11 = !DIDerivedType(tag: DW_TAG_member, name: "__method3", scope: !3, file: !2, baseType: !6, size: 64, align: 64, offset: 192)
!12 = !DIDerivedType(tag: DW_TAG_member, name: "__method4", scope: !3, file: !2, baseType: !6, size: 64, align: 64, offset: 256)
!13 = !DIDerivedType(tag: DW_TAG_member, name: "__method5", scope: !3, file: !2, baseType: !6, size: 64, align: 64, offset: 320)
!14 = !DICompositeType(tag: DW_TAG_structure_type, name: "String", scope: !15, file: !2, size: 192, align: 64, flags: DIFlagPublic, elements: !17, templateParams: !44, identifier: "a391db5e1533dd9c97778a571c895338")
!15 = !DINamespace(name: "string", scope: !16)
!16 = !DINamespace(name: "alloc", scope: null)
!17 = !{!18}
!18 = !DIDerivedType(tag: DW_TAG_member, name: "vec", scope: !14, file: !2, baseType: !19, size: 192, align: 64, flags: DIFlagPrivate)
!19 = !DICompositeType(tag: DW_TAG_structure_type, name: "Vec<u8, alloc::alloc::Global>", scope: !20, file: !2, size: 192, align: 64, flags: DIFlagPublic, elements: !21, templateParams: !52, identifier: "5eeffe5c8759a91ecea2395996ca4803")
!20 = !DINamespace(name: "vec", scope: !16)
!21 = !{!22, !54}
!22 = !DIDerivedType(tag: DW_TAG_member, name: "buf", scope: !19, file: !2, baseType: !23, size: 128, align: 64, flags: DIFlagPrivate)
!23 = !DICompositeType(tag: DW_TAG_structure_type, name: "RawVec<u8, alloc::alloc::Global>", scope: !24, file: !2, size: 128, align: 64, flags: DIFlagProtected, elements: !25, templateParams: !52, identifier: "e3a1c33ec7c5ab794d7cc23cda5d1ffd")
!24 = !DINamespace(name: "raw_vec", scope: !16)
!25 = !{!26, !45, !49}
!26 = !DIDerivedType(tag: DW_TAG_member, name: "ptr", scope: !23, file: !2, baseType: !27, size: 64, align: 64, offset: 64, flags: DIFlagPrivate)
!27 = !DICompositeType(tag: DW_TAG_structure_type, name: "Unique<u8>", scope: !28, file: !2, size: 64, align: 64, flags: DIFlagPublic, elements: !31, templateParams: !39, identifier: "5576e714cda244bc7fd48da241c2cd71")
!28 = !DINamespace(name: "unique", scope: !29)
!29 = !DINamespace(name: "ptr", scope: !30)
!30 = !DINamespace(name: "core", scope: null)
!31 = !{!32, !41}
!32 = !DIDerivedType(tag: DW_TAG_member, name: "pointer", scope: !27, file: !2, baseType: !33, size: 64, align: 64, flags: DIFlagPrivate)
!33 = !DICompositeType(tag: DW_TAG_structure_type, name: "NonNull<u8>", scope: !34, file: !2, size: 64, align: 64, flags: DIFlagPublic, elements: !35, templateParams: !39, identifier: "a4acf166b74ef43af1db8d6335ca167e")
!34 = !DINamespace(name: "non_null", scope: !29)
!35 = !{!36}
!36 = !DIDerivedType(tag: DW_TAG_member, name: "pointer", scope: !33, file: !2, baseType: !37, size: 64, align: 64, flags: DIFlagPrivate)
!37 = !DIDerivedType(tag: DW_TAG_pointer_type, name: "*const u8", baseType: !38, size: 64, align: 64, dwarfAddressSpace: 0)
!38 = !DIBasicType(name: "u8", size: 8, encoding: DW_ATE_unsigned)
!39 = !{!40}
!40 = !DITemplateTypeParameter(name: "T", type: !38)
!41 = !DIDerivedType(tag: DW_TAG_member, name: "_marker", scope: !27, file: !2, baseType: !42, align: 8, offset: 64, flags: DIFlagPrivate)
!42 = !DICompositeType(tag: DW_TAG_structure_type, name: "PhantomData<u8>", scope: !43, file: !2, align: 8, flags: DIFlagPublic, elements: !44, templateParams: !39, identifier: "1bed48daca504789908cb96b32f89e65")
!43 = !DINamespace(name: "marker", scope: !30)
!44 = !{}
!45 = !DIDerivedType(tag: DW_TAG_member, name: "cap", scope: !23, file: !2, baseType: !46, size: 64, align: 64, flags: DIFlagPrivate)
!46 = !DICompositeType(tag: DW_TAG_structure_type, name: "Cap", scope: !24, file: !2, size: 64, align: 64, flags: DIFlagPrivate, elements: !47, templateParams: !44, identifier: "62de598dd28eaf1c7c0f61ca013e23b")
!47 = !{!48}
!48 = !DIDerivedType(tag: DW_TAG_member, name: "__0", scope: !46, file: !2, baseType: !9, size: 64, align: 64, flags: DIFlagPrivate)
!49 = !DIDerivedType(tag: DW_TAG_member, name: "alloc", scope: !23, file: !2, baseType: !50, align: 8, offset: 128, flags: DIFlagPrivate)
!50 = !DICompositeType(tag: DW_TAG_structure_type, name: "Global", scope: !51, file: !2, align: 8, flags: DIFlagPublic, elements: !44, identifier: "14de19725ec4b1fd38fae074afd4da08")
!51 = !DINamespace(name: "alloc", scope: !16)
!52 = !{!40, !53}
!53 = !DITemplateTypeParameter(name: "A", type: !50)
!54 = !DIDerivedType(tag: DW_TAG_member, name: "len", scope: !19, file: !2, baseType: !9, size: 64, align: 64, offset: 128, flags: DIFlagPrivate)
!55 = !DIGlobalVariableExpression(var: !56, expr: !DIExpression())
!56 = distinct !DIGlobalVariable(name: "<core::fmt::Error as core::fmt::Debug>::{vtable}", scope: null, file: !2, type: !57, isLocal: true, isDefinition: true)
!57 = !DICompositeType(tag: DW_TAG_structure_type, name: "<core::fmt::Error as core::fmt::Debug>::{vtable_type}", file: !2, size: 256, align: 64, flags: DIFlagArtificial, elements: !58, vtableHolder: !63, templateParams: !44, identifier: "bab89be3dd5773b8c0b3ff78254eebee")
!58 = !{!59, !60, !61, !62}
!59 = !DIDerivedType(tag: DW_TAG_member, name: "drop_in_place", scope: !57, file: !2, baseType: !6, size: 64, align: 64)
!60 = !DIDerivedType(tag: DW_TAG_member, name: "size", scope: !57, file: !2, baseType: !9, size: 64, align: 64, offset: 64)
!61 = !DIDerivedType(tag: DW_TAG_member, name: "align", scope: !57, file: !2, baseType: !9, size: 64, align: 64, offset: 128)
!62 = !DIDerivedType(tag: DW_TAG_member, name: "__method3", scope: !57, file: !2, baseType: !6, size: 64, align: 64, offset: 192)
!63 = !DICompositeType(tag: DW_TAG_structure_type, name: "Error", scope: !64, file: !2, align: 8, flags: DIFlagPublic, elements: !44, identifier: "d1bcdb152c867d841c7efe41d66d33d4")
!64 = !DINamespace(name: "fmt", scope: !30)
!65 = !{i32 8, !"PIC Level", i32 2}
!66 = !{i32 2, !"RtLibUseGOT", i32 1}
!67 = !{i32 2, !"Dwarf Version", i32 4}
!68 = !{i32 2, !"Debug Info Version", i32 3}
!69 = !{!"rustc version 1.80.0-dev"}
!70 = distinct !DICompileUnit(language: DW_LANG_Rust, file: !71, producer: "clang LLVM (rustc version 1.80.0-dev)", isOptimized: true, runtimeVersion: 0, emissionKind: FullDebug, enums: !72, globals: !170, splitDebugInlining: false, nameTableKind: None)
!71 = !DIFile(filename: "/home/arsalan/.cargo/registry/src/index.crates.io-1949cf8c6b5b557f/bitflags-2.4.1/src/lib.rs/@/bitflags.babd9a036f169dde-cgu.0", directory: "/home/arsalan/.cargo/registry/src/index.crates.io-1949cf8c6b5b557f/bitflags-2.4.1")
!72 = !{!73, !80, !87, !155, !161}
!73 = !DICompositeType(tag: DW_TAG_enumeration_type, name: "Alignment", scope: !74, file: !2, baseType: !38, size: 8, align: 8, flags: DIFlagEnumClass, elements: !75)
!74 = !DINamespace(name: "rt", scope: !64)
!75 = !{!76, !77, !78, !79}
!76 = !DIEnumerator(name: "Left", value: 0, isUnsigned: true)
!77 = !DIEnumerator(name: "Right", value: 1, isUnsigned: true)
!78 = !DIEnumerator(name: "Center", value: 2, isUnsigned: true)
!79 = !DIEnumerator(name: "Unknown", value: 3, isUnsigned: true)
!80 = !DICompositeType(tag: DW_TAG_enumeration_type, name: "Ordering", scope: !81, file: !2, baseType: !82, size: 8, align: 8, flags: DIFlagEnumClass, elements: !83)
!81 = !DINamespace(name: "cmp", scope: !30)
!82 = !DIBasicType(name: "i8", size: 8, encoding: DW_ATE_signed)
!83 = !{!84, !85, !86}
!84 = !DIEnumerator(name: "Less", value: -1)
!85 = !DIEnumerator(name: "Equal", value: 0)
!86 = !DIEnumerator(name: "Greater", value: 1)
!87 = !DICompositeType(tag: DW_TAG_enumeration_type, name: "AlignmentEnum", scope: !88, file: !2, baseType: !89, size: 64, align: 64, flags: DIFlagEnumClass, elements: !90)
!88 = !DINamespace(name: "alignment", scope: !29)
!89 = !DIBasicType(name: "u64", size: 64, encoding: DW_ATE_unsigned)
!90 = !{!91, !92, !93, !94, !95, !96, !97, !98, !99, !100, !101, !102, !103, !104, !105, !106, !107, !108, !109, !110, !111, !112, !113, !114, !115, !116, !117, !118, !119, !120, !121, !122, !123, !124, !125, !126, !127, !128, !129, !130, !131, !132, !133, !134, !135, !136, !137, !138, !139, !140, !141, !142, !143, !144, !145, !146, !147, !148, !149, !150, !151, !152, !153, !154}
!91 = !DIEnumerator(name: "_Align1Shl0", value: 1, isUnsigned: true)
!92 = !DIEnumerator(name: "_Align1Shl1", value: 2, isUnsigned: true)
!93 = !DIEnumerator(name: "_Align1Shl2", value: 4, isUnsigned: true)
!94 = !DIEnumerator(name: "_Align1Shl3", value: 8, isUnsigned: true)
!95 = !DIEnumerator(name: "_Align1Shl4", value: 16, isUnsigned: true)
!96 = !DIEnumerator(name: "_Align1Shl5", value: 32, isUnsigned: true)
!97 = !DIEnumerator(name: "_Align1Shl6", value: 64, isUnsigned: true)
!98 = !DIEnumerator(name: "_Align1Shl7", value: 128, isUnsigned: true)
!99 = !DIEnumerator(name: "_Align1Shl8", value: 256, isUnsigned: true)
!100 = !DIEnumerator(name: "_Align1Shl9", value: 512, isUnsigned: true)
!101 = !DIEnumerator(name: "_Align1Shl10", value: 1024, isUnsigned: true)
!102 = !DIEnumerator(name: "_Align1Shl11", value: 2048, isUnsigned: true)
!103 = !DIEnumerator(name: "_Align1Shl12", value: 4096, isUnsigned: true)
!104 = !DIEnumerator(name: "_Align1Shl13", value: 8192, isUnsigned: true)
!105 = !DIEnumerator(name: "_Align1Shl14", value: 16384, isUnsigned: true)
!106 = !DIEnumerator(name: "_Align1Shl15", value: 32768, isUnsigned: true)
!107 = !DIEnumerator(name: "_Align1Shl16", value: 65536, isUnsigned: true)
!108 = !DIEnumerator(name: "_Align1Shl17", value: 131072, isUnsigned: true)
!109 = !DIEnumerator(name: "_Align1Shl18", value: 262144, isUnsigned: true)
!110 = !DIEnumerator(name: "_Align1Shl19", value: 524288, isUnsigned: true)
!111 = !DIEnumerator(name: "_Align1Shl20", value: 1048576, isUnsigned: true)
!112 = !DIEnumerator(name: "_Align1Shl21", value: 2097152, isUnsigned: true)
!113 = !DIEnumerator(name: "_Align1Shl22", value: 4194304, isUnsigned: true)
!114 = !DIEnumerator(name: "_Align1Shl23", value: 8388608, isUnsigned: true)
!115 = !DIEnumerator(name: "_Align1Shl24", value: 16777216, isUnsigned: true)
!116 = !DIEnumerator(name: "_Align1Shl25", value: 33554432, isUnsigned: true)
!117 = !DIEnumerator(name: "_Align1Shl26", value: 67108864, isUnsigned: true)
!118 = !DIEnumerator(name: "_Align1Shl27", value: 134217728, isUnsigned: true)
!119 = !DIEnumerator(name: "_Align1Shl28", value: 268435456, isUnsigned: true)
!120 = !DIEnumerator(name: "_Align1Shl29", value: 536870912, isUnsigned: true)
!121 = !DIEnumerator(name: "_Align1Shl30", value: 1073741824, isUnsigned: true)
!122 = !DIEnumerator(name: "_Align1Shl31", value: 2147483648, isUnsigned: true)
!123 = !DIEnumerator(name: "_Align1Shl32", value: 4294967296, isUnsigned: true)
!124 = !DIEnumerator(name: "_Align1Shl33", value: 8589934592, isUnsigned: true)
!125 = !DIEnumerator(name: "_Align1Shl34", value: 17179869184, isUnsigned: true)
!126 = !DIEnumerator(name: "_Align1Shl35", value: 34359738368, isUnsigned: true)
!127 = !DIEnumerator(name: "_Align1Shl36", value: 68719476736, isUnsigned: true)
!128 = !DIEnumerator(name: "_Align1Shl37", value: 137438953472, isUnsigned: true)
!129 = !DIEnumerator(name: "_Align1Shl38", value: 274877906944, isUnsigned: true)
!130 = !DIEnumerator(name: "_Align1Shl39", value: 549755813888, isUnsigned: true)
!131 = !DIEnumerator(name: "_Align1Shl40", value: 1099511627776, isUnsigned: true)
!132 = !DIEnumerator(name: "_Align1Shl41", value: 2199023255552, isUnsigned: true)
!133 = !DIEnumerator(name: "_Align1Shl42", value: 4398046511104, isUnsigned: true)
!134 = !DIEnumerator(name: "_Align1Shl43", value: 8796093022208, isUnsigned: true)
!135 = !DIEnumerator(name: "_Align1Shl44", value: 17592186044416, isUnsigned: true)
!136 = !DIEnumerator(name: "_Align1Shl45", value: 35184372088832, isUnsigned: true)
!137 = !DIEnumerator(name: "_Align1Shl46", value: 70368744177664, isUnsigned: true)
!138 = !DIEnumerator(name: "_Align1Shl47", value: 140737488355328, isUnsigned: true)
!139 = !DIEnumerator(name: "_Align1Shl48", value: 281474976710656, isUnsigned: true)
!140 = !DIEnumerator(name: "_Align1Shl49", value: 562949953421312, isUnsigned: true)
!141 = !DIEnumerator(name: "_Align1Shl50", value: 1125899906842624, isUnsigned: true)
!142 = !DIEnumerator(name: "_Align1Shl51", value: 2251799813685248, isUnsigned: true)
!143 = !DIEnumerator(name: "_Align1Shl52", value: 4503599627370496, isUnsigned: true)
!144 = !DIEnumerator(name: "_Align1Shl53", value: 9007199254740992, isUnsigned: true)
!145 = !DIEnumerator(name: "_Align1Shl54", value: 18014398509481984, isUnsigned: true)
!146 = !DIEnumerator(name: "_Align1Shl55", value: 36028797018963968, isUnsigned: true)
!147 = !DIEnumerator(name: "_Align1Shl56", value: 72057594037927936, isUnsigned: true)
!148 = !DIEnumerator(name: "_Align1Shl57", value: 144115188075855872, isUnsigned: true)
!149 = !DIEnumerator(name: "_Align1Shl58", value: 288230376151711744, isUnsigned: true)
!150 = !DIEnumerator(name: "_Align1Shl59", value: 576460752303423488, isUnsigned: true)
!151 = !DIEnumerator(name: "_Align1Shl60", value: 1152921504606846976, isUnsigned: true)
!152 = !DIEnumerator(name: "_Align1Shl61", value: 2305843009213693952, isUnsigned: true)
!153 = !DIEnumerator(name: "_Align1Shl62", value: 4611686018427387904, isUnsigned: true)
!154 = !DIEnumerator(name: "_Align1Shl63", value: 9223372036854775808, isUnsigned: true)
!155 = !DICompositeType(tag: DW_TAG_enumeration_type, name: "AssertKind", scope: !156, file: !2, baseType: !38, size: 8, align: 8, flags: DIFlagEnumClass, elements: !157)
!156 = !DINamespace(name: "panicking", scope: !30)
!157 = !{!158, !159, !160}
!158 = !DIEnumerator(name: "Eq", value: 0, isUnsigned: true)
!159 = !DIEnumerator(name: "Ne", value: 1, isUnsigned: true)
!160 = !DIEnumerator(name: "Match", value: 2, isUnsigned: true)
!161 = !DICompositeType(tag: DW_TAG_enumeration_type, name: "IntErrorKind", scope: !162, file: !2, baseType: !38, size: 8, align: 8, flags: DIFlagEnumClass, elements: !164)
!162 = !DINamespace(name: "error", scope: !163)
!163 = !DINamespace(name: "num", scope: !30)
!164 = !{!165, !166, !167, !168, !169}
!165 = !DIEnumerator(name: "Empty", value: 0, isUnsigned: true)
!166 = !DIEnumerator(name: "InvalidDigit", value: 1, isUnsigned: true)
!167 = !DIEnumerator(name: "PosOverflow", value: 2, isUnsigned: true)
!168 = !DIEnumerator(name: "NegOverflow", value: 3, isUnsigned: true)
!169 = !DIEnumerator(name: "Zero", value: 4, isUnsigned: true)
!170 = !{!0, !55}
!171 = distinct !DISubprogram(name: "fmt<alloc::string::String>", linkageName: "_ZN44_$LT$$RF$T$u20$as$u20$core..fmt..Display$GT$3fmt17haa720126bb5a1c58E", scope: !173, file: !172, line: 2354, type: !174, scopeLine: 2354, flags: DIFlagPrototyped, spFlags: DISPFlagLocalToUnit | DISPFlagDefinition | DISPFlagOptimized, unit: !70, templateParams: !233, retainedNodes: !230)
!172 = !DIFile(filename: "/home/arsalan/Documents/Github/unsafe-rust-benchmark/library/core/src/fmt/mod.rs", directory: "", checksumkind: CSK_MD5, checksum: "d0edb1b569d2fa74945fd472d62c28dc")
!173 = !DINamespace(name: "{impl#53}", scope: !64)
!174 = !DISubroutineType(types: !175)
!175 = !{!176, !193, !195}
!176 = !DICompositeType(tag: DW_TAG_structure_type, name: "Result<(), core::fmt::Error>", scope: !177, file: !2, size: 8, align: 8, flags: DIFlagPublic, elements: !178, templateParams: !44, identifier: "d2df09569ea43718984b3f07c77d7786")
!177 = !DINamespace(name: "result", scope: !30)
!178 = !{!179}
!179 = !DICompositeType(tag: DW_TAG_variant_part, scope: !176, file: !2, size: 8, align: 8, elements: !180, templateParams: !44, identifier: "40958ab10d5ab8e62b4ee93eba9ef45c", discriminator: !192)
!180 = !{!181, !188}
!181 = !DIDerivedType(tag: DW_TAG_member, name: "Ok", scope: !179, file: !2, baseType: !182, size: 8, align: 8, extraData: i128 0)
!182 = !DICompositeType(tag: DW_TAG_structure_type, name: "Ok", scope: !176, file: !2, size: 8, align: 8, flags: DIFlagPublic, elements: !183, templateParams: !185, identifier: "4e4e31cf1f685b1037dee0567f64f8e3")
!183 = !{!184}
!184 = !DIDerivedType(tag: DW_TAG_member, name: "__0", scope: !182, file: !2, baseType: !7, align: 8, offset: 8, flags: DIFlagPublic)
!185 = !{!186, !187}
!186 = !DITemplateTypeParameter(name: "T", type: !7)
!187 = !DITemplateTypeParameter(name: "E", type: !63)
!188 = !DIDerivedType(tag: DW_TAG_member, name: "Err", scope: !179, file: !2, baseType: !189, size: 8, align: 8, extraData: i128 1)
!189 = !DICompositeType(tag: DW_TAG_structure_type, name: "Err", scope: !176, file: !2, size: 8, align: 8, flags: DIFlagPublic, elements: !190, templateParams: !185, identifier: "ce193e126833ab95abfa1a39e1f007d3")
!190 = !{!191}
!191 = !DIDerivedType(tag: DW_TAG_member, name: "__0", scope: !189, file: !2, baseType: !63, align: 8, offset: 8, flags: DIFlagPublic)
!192 = !DIDerivedType(tag: DW_TAG_member, scope: !176, file: !2, baseType: !38, size: 8, align: 8, flags: DIFlagArtificial)
!193 = !DIDerivedType(tag: DW_TAG_pointer_type, name: "&&alloc::string::String", baseType: !194, size: 64, align: 64, dwarfAddressSpace: 0)
!194 = !DIDerivedType(tag: DW_TAG_pointer_type, name: "&alloc::string::String", baseType: !14, size: 64, align: 64, dwarfAddressSpace: 0)
!195 = !DIDerivedType(tag: DW_TAG_pointer_type, name: "&mut core::fmt::Formatter", baseType: !196, size: 64, align: 64, dwarfAddressSpace: 0)
!196 = !DICompositeType(tag: DW_TAG_structure_type, name: "Formatter", scope: !64, file: !2, size: 512, align: 64, flags: DIFlagPublic, elements: !197, templateParams: !44, identifier: "9d9578b0f9368582a2201563ca126cd4")
!197 = !{!198, !200, !202, !203, !218, !219}
!198 = !DIDerivedType(tag: DW_TAG_member, name: "flags", scope: !196, file: !2, baseType: !199, size: 32, align: 32, offset: 416, flags: DIFlagPrivate)
!199 = !DIBasicType(name: "u32", size: 32, encoding: DW_ATE_unsigned)
!200 = !DIDerivedType(tag: DW_TAG_member, name: "fill", scope: !196, file: !2, baseType: !201, size: 32, align: 32, offset: 384, flags: DIFlagPrivate)
!201 = !DIBasicType(name: "char", size: 32, encoding: DW_ATE_UTF)
!202 = !DIDerivedType(tag: DW_TAG_member, name: "align", scope: !196, file: !2, baseType: !73, size: 8, align: 8, offset: 448, flags: DIFlagPrivate)
!203 = !DIDerivedType(tag: DW_TAG_member, name: "width", scope: !196, file: !2, baseType: !204, size: 128, align: 64, flags: DIFlagPrivate)
!204 = !DICompositeType(tag: DW_TAG_structure_type, name: "Option<usize>", scope: !205, file: !2, size: 128, align: 64, flags: DIFlagPublic, elements: !206, templateParams: !44, identifier: "3850c4a210aea148b16f79ec227c427")
!205 = !DINamespace(name: "option", scope: !30)
!206 = !{!207}
