; ModuleID = 'blocking.2db90af22f9c2020-cgu.0'
source_filename = "blocking.2db90af22f9c2020-cgu.0"
target datalayout = "e-m:e-p270:32:32-p271:32:32-p272:64:64-i64:64-i128:128-f80:128-n8:16:32:64-S128"
target triple = "x86_64-unknown-linux-gnu"

%"core::sync::atomic::AtomicUsize" = type { i64 }
%"core::option::Option<&dyn tracing_core::field::Value>" = type { ptr, [1 x i64] }

@_ZN12tracing_core8metadata9MAX_LEVEL17h2def28f3c9fb9790E = external local_unnamed_addr global %"core::sync::atomic::AtomicUsize"
@alloc_8d68fcbc011419193bd208f22e2789d1 = private unnamed_addr constant <{ [28 x i8] }> <{ [28 x i8] c"failed to write whole buffer" }>, align 1
@alloc_626cc8bfd6c94d404aa777557e31db63 = private unnamed_addr constant <{ ptr, [9 x i8], [7 x i8] }> <{ ptr @alloc_8d68fcbc011419193bd208f22e2789d1, [9 x i8] c"\1C\00\00\00\00\00\00\00\17", [7 x i8] undef }>, align 8
@alloc_2316e63258fe9d5bdff37bf003386e61 = private unnamed_addr constant <{ [78 x i8] }> <{ [78 x i8] c"/home/arsalan/Documents/Github/unsafe-rust-benchmark/library/std/src/io/mod.rs" }>, align 1
@alloc_d9fb3a4fb251add6517075192273824f = private unnamed_addr constant <{ ptr, [16 x i8] }> <{ ptr @alloc_2316e63258fe9d5bdff37bf003386e61, [16 x i8] c"N\00\00\00\00\00\00\00\A9\06\00\00$\00\00\00" }>, align 8
@alloc_a439077caaee6bab9af745f1531d72a4 = private unnamed_addr constant <{ [86 x i8] }> <{ [86 x i8] c"a formatting trait implementation returned an error when the underlying stream did not" }>, align 1
@alloc_b715a4cb67d5838cf1e1986f5e19fc38 = private unnamed_addr constant <{ ptr, [8 x i8] }> <{ ptr @alloc_a439077caaee6bab9af745f1531d72a4, [8 x i8] c"V\00\00\00\00\00\00\00" }>, align 8
@vtable.0 = private constant <{ ptr, [16 x i8], ptr, ptr, ptr }> <{ ptr @"_ZN4core3ptr97drop_in_place$LT$std..io..Write..write_fmt..Adapter$LT$std..sys..pal..unix..stdio..Stderr$GT$$GT$17h32b5edb73192b114E", [16 x i8] c"\10\00\00\00\00\00\00\00\08\00\00\00\00\00\00\00", ptr @"_ZN80_$LT$std..io..Write..write_fmt..Adapter$LT$T$GT$$u20$as$u20$core..fmt..Write$GT$9write_str17heee6ec0f5278702eE", ptr @_ZN4core3fmt5Write10write_char17ha79227a7b36ae29fE, ptr @_ZN4core3fmt5Write9write_fmt17hfe79b31b7c95ebefE }>, align 8, !dbg !0
@alloc_d06916582962d4b81ada4001356ac2bb = private unnamed_addr constant <{ ptr, [16 x i8] }> <{ ptr @alloc_2316e63258fe9d5bdff37bf003386e61, [16 x i8] c"N\00\00\00\00\00\00\004\07\00\00\15\00\00\00" }>, align 8
@_ZN3std9panicking11panic_count18GLOBAL_PANIC_COUNT17h00e7dcd913cdfbe0E = external local_unnamed_addr global %"core::sync::atomic::AtomicUsize"
@alloc_27a350529968e04bcc7d9b6f40cc7e95 = private unnamed_addr constant <{ [5 x i8] }> <{ [5 x i8] c"main\00" }>, align 1
@vtable.1 = private constant <{ ptr, [16 x i8], ptr }> <{ ptr @"_ZN4core3ptr165drop_in_place$LT$std..thread..Builder..spawn_unchecked_$LT$blocking..Executor..grow_pool..$u7b$$u7b$closure$u7d$$u7d$$C$$LP$$RP$$GT$..$u7b$$u7b$closure$u7d$$u7d$$GT$17h4741d03b02744832E", [16 x i8] c" \00\00\00\00\00\00\00\08\00\00\00\00\00\00\00", ptr @"_ZN4core3ops8function6FnOnce40call_once$u7b$$u7b$vtable.shim$u7d$$u7d$17ha1e38f92271d72a6E" }>, align 8, !dbg !164
@"_ZN3std6thread7Builder16spawn_unchecked_28_$u7b$$u7b$closure$u7d$$u7d$3MIN17ha736f415947994c6E" = external local_unnamed_addr global %"core::sync::atomic::AtomicUsize"
@alloc_7a0078e56453c84a4274ce689b2bb39a = private unnamed_addr constant <{ [14 x i8] }> <{ [14 x i8] c"RUST_MIN_STACK" }>, align 1
@alloc_498705839b3ae85466bce6e7ebfe4996 = private unnamed_addr constant <{ [47 x i8] }> <{ [47 x i8] c"thread name may not contain interior null bytes" }>, align 1
@alloc_ad6f323812b2dfeadef699d29022c4b7 = private unnamed_addr constant <{ [82 x i8] }> <{ [82 x i8] c"/home/arsalan/Documents/Github/unsafe-rust-benchmark/library/std/src/thread/mod.rs" }>, align 1
@alloc_b4318a4ddd17fc582659ef21cfba2430 = private unnamed_addr constant <{ ptr, [16 x i8] }> <{ ptr @alloc_ad6f323812b2dfeadef699d29022c4b7, [16 x i8] c"R\00\00\00\00\00\00\00\EC\01\00\00$\00\00\00" }>, align 8
@vtable.2 = private constant <{ [24 x i8], ptr }> <{ [24 x i8] c"\00\00\00\00\00\00\00\00\08\00\00\00\00\00\00\00\08\00\00\00\00\00\00\00", ptr @"_ZN42_$LT$$RF$T$u20$as$u20$core..fmt..Debug$GT$3fmt17h38f7eb9e87234846E" }>, align 8, !dbg !584
@vtable.3 = private constant <{ ptr, [16 x i8], ptr }> <{ ptr @"_ZN4core3ptr48drop_in_place$LT$alloc..ffi..c_str..NulError$GT$17hf079f3561e053445E", [16 x i8] c" \00\00\00\00\00\00\00\08\00\00\00\00\00\00\00", ptr @"_ZN64_$LT$alloc..ffi..c_str..NulError$u20$as$u20$core..fmt..Debug$GT$3fmt17hbbe311fda107fbd0E" }>, align 8, !dbg !593
@alloc_00ae4b301f7fab8ac9617c03fcbd7274 = private unnamed_addr constant <{ [43 x i8] }> <{ [43 x i8] c"called `Result::unwrap()` on an `Err` value" }>, align 1
@vtable.4 = private constant <{ ptr, [16 x i8], ptr }> <{ ptr @"_ZN4core3ptr110drop_in_place$LT$std..sync..poison..PoisonError$LT$std..sync..mutex..MutexGuard$LT$blocking..Inner$GT$$GT$$GT$17hd7a6e8db19a935feE", [16 x i8] c"\10\00\00\00\00\00\00\00\08\00\00\00\00\00\00\00", ptr @"_ZN76_$LT$std..sync..poison..PoisonError$LT$T$GT$$u20$as$u20$core..fmt..Debug$GT$3fmt17h5e4b9d1442928f56E" }>, align 8, !dbg !605
@vtable.5 = private constant <{ ptr, [16 x i8], ptr }> <{ ptr @"_ZN4core3ptr158drop_in_place$LT$std..sync..poison..PoisonError$LT$$LP$std..sync..mutex..MutexGuard$LT$blocking..Inner$GT$$C$std..sync..condvar..WaitTimeoutResult$RP$$GT$$GT$17he714b5c6a2ee4427E", [16 x i8] c"\18\00\00\00\00\00\00\00\08\00\00\00\00\00\00\00", ptr @"_ZN76_$LT$std..sync..poison..PoisonError$LT$T$GT$$u20$as$u20$core..fmt..Debug$GT$3fmt17h5e4b9d1442928f56E" }>, align 8, !dbg !627
@__rust_no_alloc_shim_is_unstable = external global i8
@alloc_49c0eff15ce41ce22a2d8c8b146a94ef = private unnamed_addr constant <{ [8 x i8] }> <{ [8 x i8] c"NulError" }>, align 1
@vtable.6 = private constant <{ [24 x i8], ptr }> <{ [24 x i8] c"\00\00\00\00\00\00\00\00\08\00\00\00\00\00\00\00\08\00\00\00\00\00\00\00", ptr @"_ZN4core3fmt3num52_$LT$impl$u20$core..fmt..Debug$u20$for$u20$usize$GT$3fmt17ha3731fb0f809905cE" }>, align 8, !dbg !647
@vtable.7 = private constant <{ [24 x i8], ptr }> <{ [24 x i8] c"\00\00\00\00\00\00\00\00\08\00\00\00\00\00\00\00\08\00\00\00\00\00\00\00", ptr @"_ZN42_$LT$$RF$T$u20$as$u20$core..fmt..Debug$GT$3fmt17hdeba1c782ea8cdaeE" }>, align 8, !dbg !655
@alloc_3b99cf3889855522042186bfbc89cd01 = private unnamed_addr constant <{ [52 x i8] }> <{ [52 x i8] c"fatal runtime error: thread result panicked on drop\0A" }>, align 1
@alloc_2ca7775364e940040d1ca01e1c1e4d62 = private unnamed_addr constant <{ ptr, [8 x i8] }> <{ ptr @alloc_3b99cf3889855522042186bfbc89cd01, [8 x i8] c"4\00\00\00\00\00\00\00" }>, align 8
@alloc_8e2410b80645266732854088d21653bc = private unnamed_addr constant <{ [11 x i8] }> <{ [11 x i8] c"PoisonError" }>, align 1
@vtable.8 = private constant <{ [24 x i8], ptr }> <{ [24 x i8] c"\00\00\00\00\00\00\00\00\08\00\00\00\00\00\00\00\08\00\00\00\00\00\00\00", ptr @"_ZN42_$LT$$RF$T$u20$as$u20$core..fmt..Debug$GT$3fmt17he48ed21895eae8e2E" }>, align 8, !dbg !664
@alloc_959f83b3ea76930171f3152b7960fe3b = private unnamed_addr constant <{ [20 x i8] }> <{ [20 x i8] c"BLOCKING_MAX_THREADS" }>, align 1
@_ZN8blocking8Executor3get8EXECUTOR17h4429df7ad190c265E = local_unnamed_addr global <{ [24 x i8], [72 x i8] }> <{ [24 x i8] zeroinitializer, [72 x i8] undef }>, align 8, !dbg !681
@alloc_f60ee9d3a28ecf6e14a79771b3c5296b = private unnamed_addr constant <{ [34 x i8] }> <{ [34 x i8] c"FieldSet corrupted (this is a bug)" }>, align 1
@alloc_77458d6927044b3c8df38994a31a0f55 = private unnamed_addr constant <{ [14 x i8] }> <{ [14 x i8] c"going to sleep" }>, align 1
@alloc_08ced538e15a654005906b4590317d72 = private unnamed_addr constant <{ ptr, [8 x i8] }> <{ ptr @alloc_77458d6927044b3c8df38994a31a0f55, [8 x i8] c"\0E\00\00\00\00\00\00\00" }>, align 8
@alloc_b1a971e8c80fe9da0afc003d98a943cd = private unnamed_addr constant <{ [8 x i8] }> <{ [8 x i8] c"notified" }>, align 1
@alloc_5da6155619dca8ff21384da5e59fb5e5 = private unnamed_addr constant <{ ptr, [8 x i8] }> <{ ptr @alloc_b1a971e8c80fe9da0afc003d98a943cd, [8 x i8] c"\08\00\00\00\00\00\00\00" }>, align 8
@alloc_35d97967ad68bf3fe8de9b6f424f37c7 = private unnamed_addr constant <{ [34 x i8] }> <{ [34 x i8] c"shutting down due to lack of tasks" }>, align 1
@alloc_1afe7b7ed143bd0a0a33c2d705f07348 = private unnamed_addr constant <{ ptr, [8 x i8] }> <{ ptr @alloc_35d97967ad68bf3fe8de9b6f424f37c7, [8 x i8] c"\22\00\00\00\00\00\00\00" }>, align 8
@alloc_b2e9d0d9cf9c679419c4d0b1a6ec326b = private unnamed_addr constant <{ [92 x i8] }> <{ [92 x i8] c"/home/arsalan/.cargo/registry/src/index.crates.io-1949cf8c6b5b557f/blocking-1.5.1/src/lib.rs" }>, align 1
@alloc_4117d1026d2c3979153b4ac50d8dae74 = private unnamed_addr constant <{ ptr, [16 x i8] }> <{ ptr @alloc_b2e9d0d9cf9c679419c4d0b1a6ec326b, [16 x i8] c"\\\00\00\00\00\00\00\00\D9\00\00\00+\00\00\00" }>, align 8
@alloc_c4965f29b803fb04e84566ba095f6d75 = private unnamed_addr constant <{ ptr, [16 x i8] }> <{ ptr @alloc_b2e9d0d9cf9c679419c4d0b1a6ec326b, [16 x i8] c"\\\00\00\00\00\00\00\00\E7\00\00\00+\00\00\00" }>, align 8
@alloc_ac26b2691926835de3450b8fb2db2dcf = private unnamed_addr constant <{ ptr, [16 x i8] }> <{ ptr @alloc_b2e9d0d9cf9c679419c4d0b1a6ec326b, [16 x i8] c"\\\00\00\00\00\00\00\00\EF\00\00\00\0D\00\00\00" }>, align 8
@vtable.9 = private constant <{ [24 x i8], ptr }> <{ [24 x i8] c"\00\00\00\00\00\00\00\000\00\00\00\00\00\00\00\08\00\00\00\00\00\00\00", ptr @"_ZN67_$LT$core..fmt..Arguments$u20$as$u20$tracing_core..field..Value$GT$6record17h8350c97cea358179E" }>, align 8, !dbg !877
@vtable.a = private constant <{ [24 x i8], ptr }> <{ [24 x i8] c"\00\00\00\00\00\00\00\00\08\00\00\00\00\00\00\00\08\00\00\00\00\00\00\00", ptr @"_ZN87_$LT$tracing_core..field..DebugValue$LT$T$GT$$u20$as$u20$tracing_core..field..Value$GT$6record17h226089af26262a47E" }>, align 8, !dbg !1019
@alloc_7c8980be080b7db56d4cb0c573929e0a = private unnamed_addr constant <{ ptr, [16 x i8] }> <{ ptr @alloc_b2e9d0d9cf9c679419c4d0b1a6ec326b, [16 x i8] c"\\\00\00\00\00\00\00\00\F0\00\00\00F\00\00\00" }>, align 8
@alloc_9e8f643ab7aa04908f49dd0aae9e31f6 = private unnamed_addr constant <{ ptr, [16 x i8] }> <{ ptr @alloc_b2e9d0d9cf9c679419c4d0b1a6ec326b, [16 x i8] c"\\\00\00\00\00\00\00\00\FD\00\00\00\09\00\00\00" }>, align 8
@alloc_d72864a8d4aee7d2e78b0651542cddc6 = private unnamed_addr constant <{ ptr, [16 x i8] }> <{ ptr @alloc_b2e9d0d9cf9c679419c4d0b1a6ec326b, [16 x i8] c"\\\00\00\00\00\00\00\00\FA\00\00\00\0D\00\00\00" }>, align 8
@alloc_b8d23b8e07a67b9cb13fa8ab85d029d0 = private unnamed_addr constant <{ ptr, [16 x i8] }> <{ ptr @alloc_b2e9d0d9cf9c679419c4d0b1a6ec326b, [16 x i8] c"\\\00\00\00\00\00\00\00\02\01\00\00+\00\00\00" }>, align 8
@alloc_14b4611bb8162b58db89c2d56e052436 = private unnamed_addr constant <{ [46 x i8] }> <{ [46 x i8] c"spawning a new thread to handle blocking tasks" }>, align 1
@alloc_8cb23389645b5b9fe08b03c83c87fbee = private unnamed_addr constant <{ ptr, [8 x i8] }> <{ ptr @alloc_14b4611bb8162b58db89c2d56e052436, [8 x i8] c".\00\00\00\00\00\00\00" }>, align 8
@alloc_e579fe3f4d87b0a727a369045a4be48d = private unnamed_addr constant <{ [9 x i8] }> <{ [9 x i8] c"blocking-" }>, align 1
@alloc_135a1ba574f3ded29468379d48f9f176 = private unnamed_addr constant <{ ptr, [8 x i8] }> <{ ptr @alloc_e579fe3f4d87b0a727a369045a4be48d, [8 x i8] c"\09\00\00\00\00\00\00\00" }>, align 8
@alloc_998d26d367ee6107a2bcc5485d1de354 = private unnamed_addr constant <{ [35 x i8] }> <{ [35 x i8] c"failed to spawn a blocking thread: " }>, align 1
@alloc_84c0ad1094ec91bff9190c35ca3e87a0 = private unnamed_addr constant <{ ptr, [8 x i8] }> <{ ptr @alloc_998d26d367ee6107a2bcc5485d1de354, [8 x i8] c"#\00\00\00\00\00\00\00" }>, align 8
@alloc_5c95dd2c03cad42b9903ba46f48429fd = private unnamed_addr constant <{ ptr, [16 x i8] }> <{ ptr @alloc_b2e9d0d9cf9c679419c4d0b1a6ec326b, [16 x i8] c"\\\00\00\00\00\00\00\00\0C\01\00\00\14\00\00\00" }>, align 8
@vtable.b = private constant <{ [24 x i8], ptr }> <{ [24 x i8] c"\00\00\00\00\00\00\00\00\08\00\00\00\00\00\00\00\08\00\00\00\00\00\00\00", ptr @"_ZN52_$LT$usize$u20$as$u20$tracing_core..field..Value$GT$6record17h8a6d01f389eceae0E" }>, align 8, !dbg !1034
@alloc_da60c1389a1a60db58563bdfc8dd03a4 = private unnamed_addr constant <{ ptr, [16 x i8] }> <{ ptr @alloc_b2e9d0d9cf9c679419c4d0b1a6ec326b, [16 x i8] c"\\\00\00\00\00\00\00\00\19\01\00\00\0D\00\00\00" }>, align 8
@alloc_8b60079c68987536bc8abc5a01a566c7 = private unnamed_addr constant <{ ptr, [16 x i8] }> <{ ptr @alloc_b2e9d0d9cf9c679419c4d0b1a6ec326b, [16 x i8] c"\\\00\00\00\00\00\00\00,\01\00\00\11\00\00\00" }>, align 8
@_ZN8blocking8Executor9grow_pool2ID17h94a6c2362206047dE = internal global <{ [8 x i8] }> <{ [8 x i8] c"\01\00\00\00\00\00\00\00" }>, align 8, !dbg !1042
@alloc_e1027dbee6ae725c291ff0a501ae13f4 = private unnamed_addr constant <{ [63 x i8] }> <{ [63 x i8] c"attempted to lower thread_limit to zero; setting to one instead" }>, align 1
@alloc_569e49a87cf52008f4b9f16fe3bd2f73 = private unnamed_addr constant <{ ptr, [8 x i8] }> <{ ptr @alloc_e1027dbee6ae725c291ff0a501ae13f4, [8 x i8] c"?\00\00\00\00\00\00\00" }>, align 8
@alloc_d39757cf86267d54c8b0dd4e6392679c = private unnamed_addr constant <{ ptr, [16 x i8] }> <{ ptr @alloc_b2e9d0d9cf9c679419c4d0b1a6ec326b, [16 x i8] c"\\\00\00\00\00\00\00\008\01\00\00\19\00\00\00" }>, align 8
@alloc_f3873c14f9c3672b451698c0fb622fad = private unnamed_addr constant <{ [8 x i8] }> <{ [8 x i8] c"<closed>" }>, align 1
@alloc_a0705ad8643816a553b755fa00786e8a = private unnamed_addr constant <{ [9 x i8] }> <{ [9 x i8] c"<blocked>" }>, align 1
@_ZN8blocking8Executor9main_loop10__CALLSITE17ha8e81e4e6a541c35E = internal global <{ ptr, [10 x i8], [6 x i8] }> <{ ptr @_ZN8blocking8Executor9main_loop10__CALLSITE4META17h400c58913ea9ff2cE, [10 x i8] c"\00\00\00\00\00\00\00\00\FF\00", [6 x i8] undef }>, align 8, !dbg !1044
@alloc_4f31d9da932bfaffaaef7b0bbc9a09d8 = private unnamed_addr constant <{ [19 x i8] }> <{ [19 x i8] c"blocking::main_loop" }>, align 1
@alloc_ac3f2d9c64a856ac80cb51ea54e1fbee = private unnamed_addr constant <{ [8 x i8] }> <{ [8 x i8] c"blocking" }>, align 1
@0 = private unnamed_addr constant <{ [24 x i8], ptr, ptr, ptr }> <{ [24 x i8] c"\00\00\00\00\00\00\00\00\18\00\00\00\00\00\00\00\08\00\00\00\00\00\00\00", ptr @"_ZN92_$LT$tracing_core..callsite..DefaultCallsite$u20$as$u20$tracing_core..callsite..Callsite$GT$12set_interest17h1c1c1012ea2e3978E", ptr @"_ZN92_$LT$tracing_core..callsite..DefaultCallsite$u20$as$u20$tracing_core..callsite..Callsite$GT$8metadata17hb799fd052c98709bE", ptr @_ZN12tracing_core8callsite8Callsite15private_type_id17h02fb2adc4c38d423E }>, align 8
@_ZN8blocking8Executor9main_loop10__CALLSITE4META17h400c58913ea9ff2cE = internal constant <{ [16 x i8], ptr, [8 x i8], ptr, [8 x i8], ptr, [8 x i8], ptr, ptr, ptr, [8 x i8], ptr, [9 x i8], [7 x i8] }> <{ [16 x i8] c"\00\00\00\00\00\00\00\00\01\00\00\00\D6\00\00\00", ptr @alloc_4f31d9da932bfaffaaef7b0bbc9a09d8, [8 x i8] c"\13\00\00\00\00\00\00\00", ptr @alloc_ac3f2d9c64a856ac80cb51ea54e1fbee, [8 x i8] c"\08\00\00\00\00\00\00\00", ptr inttoptr (i64 8 to ptr), [8 x i8] zeroinitializer, ptr @_ZN8blocking8Executor9main_loop10__CALLSITE17ha8e81e4e6a541c35E, ptr @0, ptr @alloc_ac3f2d9c64a856ac80cb51ea54e1fbee, [8 x i8] c"\08\00\00\00\00\00\00\00", ptr @alloc_b2e9d0d9cf9c679419c4d0b1a6ec326b, [9 x i8] c"\\\00\00\00\00\00\00\00\02", [7 x i8] undef }>, align 8, !dbg !1131
@_ZN8blocking8Executor9main_loop10__CALLSITE17haa22fe4c5f1ce7cdE = internal global <{ ptr, [10 x i8], [6 x i8] }> <{ ptr @_ZN8blocking8Executor9main_loop10__CALLSITE4META17h561723a2c89f1600E, [10 x i8] c"\00\00\00\00\00\00\00\00\FF\00", [6 x i8] undef }>, align 8, !dbg !1134
@alloc_8cad2b231c7fc9ed44d6f9a5e8b9b6b4 = private unnamed_addr constant <{ [102 x i8] }> <{ [102 x i8] c"event /home/arsalan/.cargo/registry/src/index.crates.io-1949cf8c6b5b557f/blocking-1.5.1/src/lib.rs:239" }>, align 1
@alloc_96af468510ea8f5f9cb1c5ccd138c101 = private unnamed_addr constant <{ [7 x i8] }> <{ [7 x i8] c"message" }>, align 1
@alloc_6414126aefaf2932c45c6caed9a60b88 = private unnamed_addr constant <{ [7 x i8] }> <{ [7 x i8] c"timeout" }>, align 1
@alloc_0a9d1f991c9e7379fc98a3a3583460af = private unnamed_addr constant <{ ptr, [8 x i8], ptr, [8 x i8] }> <{ ptr @alloc_96af468510ea8f5f9cb1c5ccd138c101, [8 x i8] c"\07\00\00\00\00\00\00\00", ptr @alloc_6414126aefaf2932c45c6caed9a60b88, [8 x i8] c"\07\00\00\00\00\00\00\00" }>, align 8
@_ZN8blocking8Executor9main_loop10__CALLSITE4META17h561723a2c89f1600E = internal constant <{ [16 x i8], ptr, [8 x i8], ptr, [8 x i8], ptr, [8 x i8], ptr, ptr, ptr, [8 x i8], ptr, [9 x i8], [7 x i8] }> <{ [16 x i8] c"\00\00\00\00\00\00\00\00\01\00\00\00\EF\00\00\00", ptr @alloc_8cad2b231c7fc9ed44d6f9a5e8b9b6b4, [8 x i8] c"f\00\00\00\00\00\00\00", ptr @alloc_ac3f2d9c64a856ac80cb51ea54e1fbee, [8 x i8] c"\08\00\00\00\00\00\00\00", ptr @alloc_0a9d1f991c9e7379fc98a3a3583460af, [8 x i8] c"\02\00\00\00\00\00\00\00", ptr @_ZN8blocking8Executor9main_loop10__CALLSITE17haa22fe4c5f1ce7cdE, ptr @0, ptr @alloc_ac3f2d9c64a856ac80cb51ea54e1fbee, [8 x i8] c"\08\00\00\00\00\00\00\00", ptr @alloc_b2e9d0d9cf9c679419c4d0b1a6ec326b, [9 x i8] c"\\\00\00\00\00\00\00\00\01", [7 x i8] undef }>, align 8, !dbg !1136
@_ZN8blocking8Executor9main_loop10__CALLSITE17hf49af01bae478d5fE = internal global <{ ptr, [10 x i8], [6 x i8] }> <{ ptr @_ZN8blocking8Executor9main_loop10__CALLSITE4META17hd3d07807cb63726eE, [10 x i8] c"\00\00\00\00\00\00\00\00\FF\00", [6 x i8] undef }>, align 8, !dbg !1138
@alloc_5417ed57fc17190910ab3dc59b84e884 = private unnamed_addr constant <{ [102 x i8] }> <{ [102 x i8] c"event /home/arsalan/.cargo/registry/src/index.crates.io-1949cf8c6b5b557f/blocking-1.5.1/src/lib.rs:250" }>, align 1
@alloc_6f945744a05743cf0c7513d605ac6eaa = private unnamed_addr constant <{ ptr, [8 x i8] }> <{ ptr @alloc_96af468510ea8f5f9cb1c5ccd138c101, [8 x i8] c"\07\00\00\00\00\00\00\00" }>, align 8
@_ZN8blocking8Executor9main_loop10__CALLSITE4META17hd3d07807cb63726eE = internal constant <{ [16 x i8], ptr, [8 x i8], ptr, [8 x i8], ptr, [8 x i8], ptr, ptr, ptr, [8 x i8], ptr, [9 x i8], [7 x i8] }> <{ [16 x i8] c"\00\00\00\00\00\00\00\00\01\00\00\00\FA\00\00\00", ptr @alloc_5417ed57fc17190910ab3dc59b84e884, [8 x i8] c"f\00\00\00\00\00\00\00", ptr @alloc_ac3f2d9c64a856ac80cb51ea54e1fbee, [8 x i8] c"\08\00\00\00\00\00\00\00", ptr @alloc_6f945744a05743cf0c7513d605ac6eaa, [8 x i8] c"\01\00\00\00\00\00\00\00", ptr @_ZN8blocking8Executor9main_loop10__CALLSITE17hf49af01bae478d5fE, ptr @0, ptr @alloc_ac3f2d9c64a856ac80cb51ea54e1fbee, [8 x i8] c"\08\00\00\00\00\00\00\00", ptr @alloc_b2e9d0d9cf9c679419c4d0b1a6ec326b, [9 x i8] c"\\\00\00\00\00\00\00\00\01", [7 x i8] undef }>, align 8, !dbg !1140
@_ZN8blocking8Executor9main_loop10__CALLSITE17hea6d37cf596028beE = internal global <{ ptr, [10 x i8], [6 x i8] }> <{ ptr @_ZN8blocking8Executor9main_loop10__CALLSITE4META17h8ace13601e3762c1E, [10 x i8] c"\00\00\00\00\00\00\00\00\FF\00", [6 x i8] undef }>, align 8, !dbg !1142
@alloc_e42afcdfb48f10c2ccdf9bb4148f8ded = private unnamed_addr constant <{ [102 x i8] }> <{ [102 x i8] c"event /home/arsalan/.cargo/registry/src/index.crates.io-1949cf8c6b5b557f/blocking-1.5.1/src/lib.rs:253" }>, align 1
@_ZN8blocking8Executor9main_loop10__CALLSITE4META17h8ace13601e3762c1E = internal constant <{ [16 x i8], ptr, [8 x i8], ptr, [8 x i8], ptr, [8 x i8], ptr, ptr, ptr, [8 x i8], ptr, [9 x i8], [7 x i8] }> <{ [16 x i8] c"\00\00\00\00\00\00\00\00\01\00\00\00\FD\00\00\00", ptr @alloc_e42afcdfb48f10c2ccdf9bb4148f8ded, [8 x i8] c"f\00\00\00\00\00\00\00", ptr @alloc_ac3f2d9c64a856ac80cb51ea54e1fbee, [8 x i8] c"\08\00\00\00\00\00\00\00", ptr @alloc_6f945744a05743cf0c7513d605ac6eaa, [8 x i8] c"\01\00\00\00\00\00\00\00", ptr @_ZN8blocking8Executor9main_loop10__CALLSITE17hea6d37cf596028beE, ptr @0, ptr @alloc_ac3f2d9c64a856ac80cb51ea54e1fbee, [8 x i8] c"\08\00\00\00\00\00\00\00", ptr @alloc_b2e9d0d9cf9c679419c4d0b1a6ec326b, [9 x i8] c"\\\00\00\00\00\00\00\00\01", [7 x i8] undef }>, align 8, !dbg !1144
@_ZN8blocking8Executor9grow_pool10__CALLSITE17h034d765f3042298eE = internal global <{ ptr, [10 x i8], [6 x i8] }> <{ ptr @_ZN8blocking8Executor9grow_pool10__CALLSITE4META17h5bcb17756ed96028E, [10 x i8] c"\00\00\00\00\00\00\00\00\FF\00", [6 x i8] undef }>, align 8, !dbg !1146
@alloc_ff73464b76fc9fc672622fe31112a8b5 = private unnamed_addr constant <{ [9 x i8] }> <{ [9 x i8] c"grow_pool" }>, align 1
@alloc_ab1ce9412d4b80f220defc95d6c98c9d = private unnamed_addr constant <{ [9 x i8] }> <{ [9 x i8] c"queue_len" }>, align 1
@alloc_031b2a65182aa956f834ce01ad2577ac = private unnamed_addr constant <{ [10 x i8] }> <{ [10 x i8] c"idle_count" }>, align 1
@alloc_2db02d2cd8f55eda49b34b6e7a8cab04 = private unnamed_addr constant <{ [12 x i8] }> <{ [12 x i8] c"thread_count" }>, align 1
@alloc_2f99c63744a16e707e45081281cdf09f = private unnamed_addr constant <{ ptr, [8 x i8], ptr, [8 x i8], ptr, [8 x i8] }> <{ ptr @alloc_ab1ce9412d4b80f220defc95d6c98c9d, [8 x i8] c"\09\00\00\00\00\00\00\00", ptr @alloc_031b2a65182aa956f834ce01ad2577ac, [8 x i8] c"\0A\00\00\00\00\00\00\00", ptr @alloc_2db02d2cd8f55eda49b34b6e7a8cab04, [8 x i8] c"\0C\00\00\00\00\00\00\00" }>, align 8
@_ZN8blocking8Executor9grow_pool10__CALLSITE4META17h5bcb17756ed96028E = internal constant <{ [16 x i8], ptr, [8 x i8], ptr, [8 x i8], ptr, [8 x i8], ptr, ptr, ptr, [8 x i8], ptr, [9 x i8], [7 x i8] }> <{ [16 x i8] c"\00\00\00\00\00\00\00\00\01\00\00\00\0C\01\00\00", ptr @alloc_ff73464b76fc9fc672622fe31112a8b5, [8 x i8] c"\09\00\00\00\00\00\00\00", ptr @alloc_ac3f2d9c64a856ac80cb51ea54e1fbee, [8 x i8] c"\08\00\00\00\00\00\00\00", ptr @alloc_2f99c63744a16e707e45081281cdf09f, [8 x i8] c"\03\00\00\00\00\00\00\00", ptr @_ZN8blocking8Executor9grow_pool10__CALLSITE17h034d765f3042298eE, ptr @0, ptr @alloc_ac3f2d9c64a856ac80cb51ea54e1fbee, [8 x i8] c"\08\00\00\00\00\00\00\00", ptr @alloc_b2e9d0d9cf9c679419c4d0b1a6ec326b, [9 x i8] c"\\\00\00\00\00\00\00\00\02", [7 x i8] undef }>, align 8, !dbg !1148
@_ZN8blocking8Executor9grow_pool10__CALLSITE17h06b95f8b60f01441E = internal global <{ ptr, [10 x i8], [6 x i8] }> <{ ptr @_ZN8blocking8Executor9grow_pool10__CALLSITE4META17h8a99bc28c0079e13E, [10 x i8] c"\00\00\00\00\00\00\00\00\FF\00", [6 x i8] undef }>, align 8, !dbg !1151
@alloc_5a4b17d85ef0c51666d4efc9ffe9d270 = private unnamed_addr constant <{ [102 x i8] }> <{ [102 x i8] c"event /home/arsalan/.cargo/registry/src/index.crates.io-1949cf8c6b5b557f/blocking-1.5.1/src/lib.rs:281" }>, align 1
@_ZN8blocking8Executor9grow_pool10__CALLSITE4META17h8a99bc28c0079e13E = internal constant <{ [16 x i8], ptr, [8 x i8], ptr, [8 x i8], ptr, [8 x i8], ptr, ptr, ptr, [8 x i8], ptr, [9 x i8], [7 x i8] }> <{ [16 x i8] c"\00\00\00\00\00\00\00\00\01\00\00\00\19\01\00\00", ptr @alloc_5a4b17d85ef0c51666d4efc9ffe9d270, [8 x i8] c"f\00\00\00\00\00\00\00", ptr @alloc_ac3f2d9c64a856ac80cb51ea54e1fbee, [8 x i8] c"\08\00\00\00\00\00\00\00", ptr @alloc_6f945744a05743cf0c7513d605ac6eaa, [8 x i8] c"\01\00\00\00\00\00\00\00", ptr @_ZN8blocking8Executor9grow_pool10__CALLSITE17h06b95f8b60f01441E, ptr @0, ptr @alloc_ac3f2d9c64a856ac80cb51ea54e1fbee, [8 x i8] c"\08\00\00\00\00\00\00\00", ptr @alloc_b2e9d0d9cf9c679419c4d0b1a6ec326b, [9 x i8] c"\\\00\00\00\00\00\00\00\01", [7 x i8] undef }>, align 8, !dbg !1153
@_ZN8blocking8Executor9grow_pool10__CALLSITE17h56d6cad01b494ad2E = internal global <{ ptr, [10 x i8], [6 x i8] }> <{ ptr @_ZN8blocking8Executor9grow_pool10__CALLSITE4META17h7004d9e815e5c486E, [10 x i8] c"\00\00\00\00\00\00\00\00\FF\00", [6 x i8] undef }>, align 8, !dbg !1155
@alloc_cf9652787fe503ba0995046ce6cb9de9 = private unnamed_addr constant <{ [102 x i8] }> <{ [102 x i8] c"event /home/arsalan/.cargo/registry/src/index.crates.io-1949cf8c6b5b557f/blocking-1.5.1/src/lib.rs:300" }>, align 1
@_ZN8blocking8Executor9grow_pool10__CALLSITE4META17h7004d9e815e5c486E = internal constant <{ [16 x i8], ptr, [8 x i8], ptr, [8 x i8], ptr, [8 x i8], ptr, ptr, ptr, [8 x i8], ptr, [9 x i8], [7 x i8] }> <{ [16 x i8] c"\04\00\00\00\00\00\00\00\01\00\00\00,\01\00\00", ptr @alloc_cf9652787fe503ba0995046ce6cb9de9, [8 x i8] c"f\00\00\00\00\00\00\00", ptr @alloc_ac3f2d9c64a856ac80cb51ea54e1fbee, [8 x i8] c"\08\00\00\00\00\00\00\00", ptr @alloc_6f945744a05743cf0c7513d605ac6eaa, [8 x i8] c"\01\00\00\00\00\00\00\00", ptr @_ZN8blocking8Executor9grow_pool10__CALLSITE17h56d6cad01b494ad2E, ptr @0, ptr @alloc_ac3f2d9c64a856ac80cb51ea54e1fbee, [8 x i8] c"\08\00\00\00\00\00\00\00", ptr @alloc_b2e9d0d9cf9c679419c4d0b1a6ec326b, [9 x i8] c"\\\00\00\00\00\00\00\00\01", [7 x i8] undef }>, align 8, !dbg !1157
@"_ZN8blocking8Executor9grow_pool28_$u7b$$u7b$closure$u7d$$u7d$10__CALLSITE17ha7674419a9f6d943E" = internal global <{ ptr, [10 x i8], [6 x i8] }> <{ ptr @"_ZN8blocking8Executor9grow_pool28_$u7b$$u7b$closure$u7d$$u7d$10__CALLSITE4META17h9acc509ccb9d3b64E", [10 x i8] c"\00\00\00\00\00\00\00\00\FF\00", [6 x i8] undef }>, align 8, !dbg !1159
@alloc_f08128fa7fe9a948a4b2d4735e2a42ac = private unnamed_addr constant <{ [102 x i8] }> <{ [102 x i8] c"event /home/arsalan/.cargo/registry/src/index.crates.io-1949cf8c6b5b557f/blocking-1.5.1/src/lib.rs:312" }>, align 1
@"_ZN8blocking8Executor9grow_pool28_$u7b$$u7b$closure$u7d$$u7d$10__CALLSITE4META17h9acc509ccb9d3b64E" = internal constant <{ [16 x i8], ptr, [8 x i8], ptr, [8 x i8], ptr, [8 x i8], ptr, ptr, ptr, [8 x i8], ptr, [9 x i8], [7 x i8] }> <{ [16 x i8] c"\03\00\00\00\00\00\00\00\01\00\00\008\01\00\00", ptr @alloc_f08128fa7fe9a948a4b2d4735e2a42ac, [8 x i8] c"f\00\00\00\00\00\00\00", ptr @alloc_ac3f2d9c64a856ac80cb51ea54e1fbee, [8 x i8] c"\08\00\00\00\00\00\00\00", ptr @alloc_6f945744a05743cf0c7513d605ac6eaa, [8 x i8] c"\01\00\00\00\00\00\00\00", ptr @"_ZN8blocking8Executor9grow_pool28_$u7b$$u7b$closure$u7d$$u7d$10__CALLSITE17ha7674419a9f6d943E", ptr @0, ptr @alloc_ac3f2d9c64a856ac80cb51ea54e1fbee, [8 x i8] c"\08\00\00\00\00\00\00\00", ptr @alloc_b2e9d0d9cf9c679419c4d0b1a6ec326b, [9 x i8] c"\\\00\00\00\00\00\00\00\01", [7 x i8] undef }>, align 8, !dbg !1162

; tracing_core::callsite::Callsite::private_type_id
; Function Attrs: inlinehint mustprogress nofree norecurse nosync nounwind nonlazybind willreturn memory(none) uwtable
define internal { i64, i64 } @_ZN12tracing_core8callsite8Callsite15private_type_id17h02fb2adc4c38d423E(ptr nocapture nonnull readnone align 8 %self) unnamed_addr #0 !dbg !1284 {
start:
  tail call void @llvm.dbg.value(metadata ptr poison, metadata !1308, metadata !DIExpression()), !dbg !1312
  call void @llvm.dbg.declare(metadata ptr undef, metadata !1309, metadata !DIExpression()), !dbg !1313
  ret { i64, i64 } { i64 -6046748299848140927, i64 -1328586242009975340 }, !dbg !1314
}

; std::sys_common::backtrace::__rust_begin_short_backtrace
; Function Attrs: noinline nonlazybind uwtable
define internal fastcc void @_ZN3std10sys_common9backtrace28__rust_begin_short_backtrace17h6384577e1009fa0dE(ptr noundef nonnull align 8 %f) unnamed_addr #1 personality ptr @rust_eh_personality !dbg !1315 {
start:
  %e.i137.i.i = alloca [24 x i8], align 8
  %e.i124.i.i = alloca [16 x i8], align 8
  %e.i.i.i = alloca [16 x i8], align 8
  %value_set39.i.i = alloca [24 x i8], align 8
  %value_set38.i.i = alloca [24 x i8], align 8
  %value_set.i.i = alloca [24 x i8], align 8
  %_150.i.i = alloca [48 x i8], align 8
  %val36.i.i = alloca [40 x i8], align 8
  %_140.i.i = alloca [24 x i8], align 8
  %_121.i.i = alloca [48 x i8], align 8
  %val31.i.i = alloca [40 x i8], align 8
  %_111.i.i = alloca [24 x i8], align 8
  %_84.sroa.9.i.i = alloca [7 x i8], align 1
  %_84.sroa.12.i.i = alloca [7 x i8], align 1
  %_79.i.i = alloca [8 x i8], align 8
  %val26.i.i = alloca [40 x i8], align 8
  %_69.i.i = alloca [48 x i8], align 8
  %val.i.i = alloca [40 x i8], align 8
  %_59.i.i = alloca [48 x i8], align 8
  %_40.i.i = alloca [16 x i8], align 8
  %runnable.i.i = alloca [8 x i8], align 8
  %_18.i.i = alloca [24 x i8], align 8
  %span.i.i = alloca [40 x i8], align 8
  call void @llvm.dbg.declare(metadata ptr undef, metadata !1327, metadata !DIExpression()), !dbg !1335
  call void @llvm.dbg.declare(metadata ptr undef, metadata !1323, metadata !DIExpression()), !dbg !1337
  tail call void @llvm.dbg.value(metadata ptr %f, metadata !1322, metadata !DIExpression()), !dbg !1338
  call void @llvm.dbg.value(metadata ptr %f, metadata !1339, metadata !DIExpression()), !dbg !1342
  call void @llvm.lifetime.start.p0(i64 16, ptr nonnull %_40.i.i), !dbg !1344
  call void @llvm.dbg.declare(metadata ptr %_84.sroa.9.i.i, metadata !1513, metadata !DIExpression(DW_OP_LLVM_fragment, 136, 56)), !dbg !1547
  call void @llvm.dbg.declare(metadata ptr %_84.sroa.12.i.i, metadata !1513, metadata !DIExpression(DW_OP_LLVM_fragment, 200, 56)), !dbg !1547
  call void @llvm.dbg.declare(metadata ptr undef, metadata !1549, metadata !DIExpression(DW_OP_LLVM_fragment, 136, 56)), !dbg !1574
  call void @llvm.dbg.declare(metadata ptr undef, metadata !1549, metadata !DIExpression(DW_OP_LLVM_fragment, 136, 56)), !dbg !1576
  call void @llvm.dbg.declare(metadata ptr undef, metadata !1464, metadata !DIExpression(DW_OP_LLVM_fragment, 72, 56)), !dbg !1578
  call void @llvm.dbg.declare(metadata ptr poison, metadata !1455, metadata !DIExpression(DW_OP_LLVM_fragment, 64, 192)), !dbg !1579
  call void @llvm.dbg.value(metadata i64 0, metadata !1468, metadata !DIExpression(DW_OP_LLVM_fragment, 0, 64)), !dbg !1580
  call void @llvm.dbg.value(metadata i32 500000000, metadata !1468, metadata !DIExpression(DW_OP_LLVM_fragment, 64, 32)), !dbg !1580
  call void @llvm.dbg.value(metadata ptr @_ZN8blocking8Executor9main_loop10__CALLSITE17ha8e81e4e6a541c35E, metadata !1581, metadata !DIExpression()), !dbg !1616
  call void @llvm.dbg.value(metadata ptr @_ZN8blocking8Executor9main_loop10__CALLSITE17ha8e81e4e6a541c35E, metadata !1588, metadata !DIExpression()), !dbg !1618
  call void @llvm.dbg.value(metadata ptr inttoptr (i64 8 to ptr), metadata !1620, metadata !DIExpression()), !dbg !1673
  call void @llvm.dbg.value(metadata i64 500, metadata !1675, metadata !DIExpression()), !dbg !1689
  call void @llvm.dbg.value(metadata i64 0, metadata !1683, metadata !DIExpression()), !dbg !1691
  call void @llvm.dbg.value(metadata i32 500, metadata !1685, metadata !DIExpression()), !dbg !1692
  call void @llvm.dbg.value(metadata i32 500000000, metadata !1687, metadata !DIExpression()), !dbg !1693
  call void @llvm.dbg.value(metadata ptr @_ZN8blocking8Executor9main_loop10__CALLSITE17haa22fe4c5f1ce7cdE, metadata !1592, metadata !DIExpression()), !dbg !1694
  call void @llvm.dbg.value(metadata ptr @_ZN8blocking8Executor9main_loop10__CALLSITE17haa22fe4c5f1ce7cdE, metadata !1594, metadata !DIExpression()), !dbg !1696
  call void @llvm.dbg.value(metadata ptr @alloc_f60ee9d3a28ecf6e14a79771b3c5296b, metadata !1698, metadata !DIExpression(DW_OP_LLVM_fragment, 0, 64)), !dbg !1737
  call void @llvm.dbg.value(metadata i64 34, metadata !1698, metadata !DIExpression(DW_OP_LLVM_fragment, 64, 64)), !dbg !1737
  call void @llvm.dbg.value(metadata ptr @alloc_08ced538e15a654005906b4590317d72, metadata !1739, metadata !DIExpression()), !dbg !1755
  call void @llvm.dbg.value(metadata ptr @alloc_f60ee9d3a28ecf6e14a79771b3c5296b, metadata !1724, metadata !DIExpression(DW_OP_LLVM_fragment, 0, 64)), !dbg !1757
  call void @llvm.dbg.value(metadata i64 34, metadata !1724, metadata !DIExpression(DW_OP_LLVM_fragment, 64, 64)), !dbg !1757
  call void @llvm.dbg.value(metadata ptr @_ZN8blocking8Executor9main_loop10__CALLSITE17hf49af01bae478d5fE, metadata !1600, metadata !DIExpression()), !dbg !1758
  call void @llvm.dbg.value(metadata ptr @_ZN8blocking8Executor9main_loop10__CALLSITE17hf49af01bae478d5fE, metadata !1602, metadata !DIExpression()), !dbg !1760
  call void @llvm.dbg.value(metadata ptr @alloc_f60ee9d3a28ecf6e14a79771b3c5296b, metadata !1729, metadata !DIExpression(DW_OP_LLVM_fragment, 0, 64)), !dbg !1762
  call void @llvm.dbg.value(metadata i64 34, metadata !1729, metadata !DIExpression(DW_OP_LLVM_fragment, 64, 64)), !dbg !1762
  call void @llvm.dbg.value(metadata ptr @alloc_5da6155619dca8ff21384da5e59fb5e5, metadata !1751, metadata !DIExpression()), !dbg !1764
  call void @llvm.dbg.value(metadata ptr @_ZN8blocking8Executor9main_loop10__CALLSITE17hea6d37cf596028beE, metadata !1608, metadata !DIExpression()), !dbg !1766
  call void @llvm.dbg.value(metadata ptr @_ZN8blocking8Executor9main_loop10__CALLSITE17hea6d37cf596028beE, metadata !1610, metadata !DIExpression()), !dbg !1768
  call void @llvm.dbg.value(metadata ptr @alloc_f60ee9d3a28ecf6e14a79771b3c5296b, metadata !1734, metadata !DIExpression(DW_OP_LLVM_fragment, 0, 64)), !dbg !1770
  call void @llvm.dbg.value(metadata i64 34, metadata !1734, metadata !DIExpression(DW_OP_LLVM_fragment, 64, 64)), !dbg !1770
  call void @llvm.dbg.value(metadata ptr @alloc_1afe7b7ed143bd0a0a33c2d705f07348, metadata !1753, metadata !DIExpression()), !dbg !1772
  call void @llvm.dbg.value(metadata ptr %f, metadata !1350, metadata !DIExpression()), !dbg !1774
  call void @llvm.dbg.declare(metadata ptr %span.i.i, metadata !1351, metadata !DIExpression()), !dbg !1775
  call void @llvm.dbg.declare(metadata ptr %runnable.i.i, metadata !1466, metadata !DIExpression()), !dbg !1776
  call void @llvm.lifetime.start.p0(i64 40, ptr nonnull %span.i.i), !dbg !1344
  call void @llvm.dbg.value(metadata i8 0, metadata !1446, metadata !DIExpression()), !dbg !1777
  call void @llvm.dbg.value(metadata !29, metadata !1778, metadata !DIExpression()), !dbg !1804
  call void @llvm.dbg.value(metadata !29, metadata !1803, metadata !DIExpression()), !dbg !1804
  call void @llvm.dbg.value(metadata ptr @_ZN12tracing_core8metadata9MAX_LEVEL17h2def28f3c9fb9790E, metadata !1806, metadata !DIExpression()), !dbg !1816
  call void @llvm.dbg.value(metadata i8 0, metadata !1815, metadata !DIExpression()), !dbg !1816
  call void @llvm.dbg.value(metadata i8 0, metadata !1823, metadata !DIExpression()), !dbg !1830
  call void @llvm.dbg.value(metadata ptr @_ZN12tracing_core8metadata9MAX_LEVEL17h2def28f3c9fb9790E, metadata !1829, metadata !DIExpression()), !dbg !1830
  %0 = load atomic i64, ptr @_ZN12tracing_core8metadata9MAX_LEVEL17h2def28f3c9fb9790E monotonic, align 8, !dbg !1832
  call void @llvm.dbg.value(metadata !29, metadata !1778, metadata !DIExpression()), !dbg !1833
  call void @llvm.dbg.value(metadata ptr undef, metadata !1803, metadata !DIExpression()), !dbg !1833
  %_0.i118.i.i = icmp eq i64 %0, 0, !dbg !1835
  br i1 %_0.i118.i.i, label %bb5.i.i, label %bb14.thread.i.i, !dbg !1836

bb14.thread.i.i:                                  ; preds = %bb7.i.i, %_ZN12tracing_core8callsite15DefaultCallsite8interest17h7e55a3acd5f3d2c8E.exit.i.i, %bb5.i.i, %start
  call void @llvm.dbg.value(metadata i64 2, metadata !1455, metadata !DIExpression(DW_OP_LLVM_fragment, 0, 64)), !dbg !1837
  call void @llvm.dbg.value(metadata ptr null, metadata !1455, metadata !DIExpression(DW_OP_LLVM_fragment, 256, 64)), !dbg !1837
  store i64 2, ptr %span.i.i, align 8, !dbg !1579
  %span22.sroa.4.0.span.sroa_idx.i.i = getelementptr inbounds i8, ptr %span.i.i, i64 32, !dbg !1579
  store ptr null, ptr %span22.sroa.4.0.span.sroa_idx.i.i, align 8, !dbg !1579
  call void @llvm.dbg.value(metadata ptr %span.i.i, metadata !1838, metadata !DIExpression()), !dbg !1846
  call void @llvm.dbg.value(metadata ptr %span.i.i, metadata !1848, metadata !DIExpression()), !dbg !1858
  call void @llvm.dbg.value(metadata ptr %span.i.i, metadata !1860, metadata !DIExpression()), !dbg !1883
  br label %bb87.i.i, !dbg !1885

bb5.i.i:                                          ; preds = %start
  call void @llvm.dbg.value(metadata i8 0, metadata !1886, metadata !DIExpression()), !dbg !1895
  call void @llvm.dbg.value(metadata ptr @_ZN8blocking8Executor9main_loop10__CALLSITE17ha8e81e4e6a541c35E, metadata !1902, metadata !DIExpression()), !dbg !1904
  call void @llvm.dbg.value(metadata ptr @_ZN8blocking8Executor9main_loop10__CALLSITE17ha8e81e4e6a541c35E, metadata !1894, metadata !DIExpression(DW_OP_plus_uconst, 16, DW_OP_stack_value)), !dbg !1895
  call void @llvm.dbg.value(metadata i8 0, metadata !1905, metadata !DIExpression()), !dbg !1911
  call void @llvm.dbg.value(metadata ptr getelementptr inbounds (<{ ptr, [10 x i8], [6 x i8] }>, ptr @_ZN8blocking8Executor9main_loop10__CALLSITE17ha8e81e4e6a541c35E, i64 0, i32 1, i64 8), metadata !1910, metadata !DIExpression()), !dbg !1911
  %1 = load atomic i8, ptr getelementptr inbounds (<{ ptr, [10 x i8], [6 x i8] }>, ptr @_ZN8blocking8Executor9main_loop10__CALLSITE17ha8e81e4e6a541c35E, i64 0, i32 1, i64 8) monotonic, align 8, !dbg !1913
  switch i8 %1, label %_ZN12tracing_core8callsite15DefaultCallsite8interest17h7e55a3acd5f3d2c8E.exit.i.i [
    i8 0, label %bb14.thread.i.i
    i8 1, label %bb7.i.i
    i8 2, label %bb6.i.i.i
  ], !dbg !1914

bb6.i.i.i:                                        ; preds = %bb5.i.i
  br label %bb7.i.i, !dbg !1915

_ZN12tracing_core8callsite15DefaultCallsite8interest17h7e55a3acd5f3d2c8E.exit.i.i: ; preds = %bb5.i.i
; call tracing_core::callsite::DefaultCallsite::register
  %2 = tail call noundef i8 @_ZN12tracing_core8callsite15DefaultCallsite8register17h1f01c6d2d83987b0E(ptr noundef nonnull align 8 @_ZN8blocking8Executor9main_loop10__CALLSITE17ha8e81e4e6a541c35E), !dbg !1918, !range !1919
  call void @llvm.dbg.value(metadata i8 %2, metadata !1446, metadata !DIExpression()), !dbg !1777
  call void @llvm.dbg.value(metadata ptr undef, metadata !1920, metadata !DIExpression()), !dbg !1934
  %_11.not.i.i = icmp eq i8 %2, 0, !dbg !1936
  br i1 %_11.not.i.i, label %bb14.thread.i.i, label %bb7.i.i, !dbg !1836

bb7.i.i:                                          ; preds = %_ZN12tracing_core8callsite15DefaultCallsite8interest17h7e55a3acd5f3d2c8E.exit.i.i, %bb6.i.i.i, %bb5.i.i
  %_0.sroa.0.0.i303.i.i = phi i8 [ %2, %_ZN12tracing_core8callsite15DefaultCallsite8interest17h7e55a3acd5f3d2c8E.exit.i.i ], [ 2, %bb6.i.i.i ], [ %1, %bb5.i.i ]
  %_14.i.i = load ptr, ptr @_ZN8blocking8Executor9main_loop10__CALLSITE17ha8e81e4e6a541c35E, align 8, !dbg !1937, !nonnull !29, !align !1938, !noundef !29
; call tracing::__macro_support::__is_enabled
  %_13.i.i = tail call noundef zeroext i1 @_ZN7tracing15__macro_support12__is_enabled17h74586a1e8af97b13E(ptr noalias noundef nonnull readonly align 8 dereferenceable(120) %_14.i.i, i8 noundef %_0.sroa.0.0.i303.i.i), !dbg !1836
  br i1 %_13.i.i, label %bb14.i.i, label %bb14.thread.i.i, !dbg !1836

bb14.i.i:                                         ; preds = %bb7.i.i
  %meta.i.i = load ptr, ptr @_ZN8blocking8Executor9main_loop10__CALLSITE17ha8e81e4e6a541c35E, align 8, !dbg !1939, !nonnull !29, !align !1938, !noundef !29
  call void @llvm.dbg.value(metadata ptr %meta.i.i, metadata !1452, metadata !DIExpression()), !dbg !1940
  call void @llvm.lifetime.start.p0(i64 24, ptr nonnull %_18.i.i), !dbg !1941
  %self41.i.i = getelementptr inbounds i8, ptr %meta.i.i, i64 48, !dbg !1941
  call void @llvm.dbg.value(metadata ptr %self41.i.i, metadata !1672, metadata !DIExpression()), !dbg !1673
  store ptr inttoptr (i64 8 to ptr), ptr %_18.i.i, align 8, !dbg !1942
  %3 = getelementptr inbounds i8, ptr %_18.i.i, i64 8, !dbg !1942
  store i64 0, ptr %3, align 8, !dbg !1942
  %4 = getelementptr inbounds i8, ptr %_18.i.i, i64 16, !dbg !1942
  store ptr %self41.i.i, ptr %4, align 8, !dbg !1942
; call tracing::span::Span::new
  call void @_ZN7tracing4span4Span3new17h3893bd47113681e7E(ptr noalias nocapture noundef nonnull sret([40 x i8]) align 8 dereferenceable(40) %span.i.i, ptr noalias noundef nonnull readonly align 8 dereferenceable(120) %meta.i.i, ptr noalias noundef nonnull readonly align 8 dereferenceable(24) %_18.i.i), !dbg !1941
  call void @llvm.lifetime.end.p0(i64 24, ptr nonnull %_18.i.i), !dbg !1836
  %.pre.i.i = load i64, ptr %span.i.i, align 8, !dbg !1943, !range !1944
  call void @llvm.dbg.value(metadata ptr %span.i.i, metadata !1838, metadata !DIExpression()), !dbg !1846
  call void @llvm.dbg.value(metadata ptr %span.i.i, metadata !1848, metadata !DIExpression()), !dbg !1858
  call void @llvm.dbg.value(metadata ptr %span.i.i, metadata !1860, metadata !DIExpression()), !dbg !1883
  %5 = icmp eq i64 %.pre.i.i, 2, !dbg !1943
  br i1 %5, label %bb87.i.i, label %bb90.i.i, !dbg !1885

bb90.i.i:                                         ; preds = %bb14.i.i
  call void @llvm.dbg.value(metadata ptr %span.i.i, metadata !1855, metadata !DIExpression()), !dbg !1945
  %_159.i.i = getelementptr inbounds i8, ptr %span.i.i, i64 24, !dbg !1946
; invoke tracing_core::dispatcher::Dispatch::enter
  invoke void @_ZN12tracing_core10dispatcher8Dispatch5enter17h17de00d445ba1a3fE(ptr noalias noundef nonnull readonly align 8 dereferenceable(24) %span.i.i, ptr noalias noundef nonnull readonly align 8 dereferenceable(8) %_159.i.i)
          to label %bb87.i.i unwind label %cleanup.i.i, !dbg !1947

bb87.i.i:                                         ; preds = %bb90.i.i, %bb14.i.i, %bb14.thread.i.i
  call void @llvm.dbg.value(metadata ptr %span.i.i, metadata !1458, metadata !DIExpression()), !dbg !1948
  call void @llvm.dbg.value(metadata i32 0, metadata !1949, metadata !DIExpression()), !dbg !1976
  call void @llvm.dbg.value(metadata i32 1, metadata !1973, metadata !DIExpression()), !dbg !1976
  call void @llvm.dbg.value(metadata i8 2, metadata !1974, metadata !DIExpression()), !dbg !1976
  call void @llvm.dbg.value(metadata i8 0, metadata !1975, metadata !DIExpression()), !dbg !1976
  call void @llvm.dbg.value(metadata ptr %f, metadata !1994, metadata !DIExpression()), !dbg !1996
  call void @llvm.dbg.value(metadata ptr %f, metadata !1986, metadata !DIExpression()), !dbg !1997
  call void @llvm.dbg.value(metadata ptr %f, metadata !1972, metadata !DIExpression()), !dbg !1976
  call void @llvm.dbg.value(metadata i8 2, metadata !1998, metadata !DIExpression()), !dbg !2011
  call void @llvm.dbg.value(metadata i8 0, metadata !2007, metadata !DIExpression()), !dbg !2011
  call void @llvm.dbg.value(metadata ptr %f, metadata !2004, metadata !DIExpression()), !dbg !2011
  call void @llvm.dbg.value(metadata i32 0, metadata !2005, metadata !DIExpression()), !dbg !2011
  call void @llvm.dbg.value(metadata i32 1, metadata !2006, metadata !DIExpression()), !dbg !2011
  %6 = cmpxchg ptr %f, i32 0, i32 1 acquire monotonic, align 4, !dbg !2013, !noalias !2014
  %7 = extractvalue { i32, i1 } %6, 1, !dbg !2013
  call void @llvm.dbg.value(metadata ptr undef, metadata !2017, metadata !DIExpression()), !dbg !2025
  call void @llvm.dbg.value(metadata ptr undef, metadata !2027, metadata !DIExpression()), !dbg !2032
  br i1 %7, label %bb2.i154.i.i, label %bb4.i.i.i, !dbg !2034

bb4.i.i.i:                                        ; preds = %bb87.i.i
; invoke std::sys::sync::mutex::futex::Mutex::lock_contended
  invoke void @_ZN3std3sys4sync5mutex5futex5Mutex14lock_contended17h8fd9cbd50b365b92E(ptr noundef nonnull align 4 %f)
          to label %bb2.i154.i.i unwind label %cleanup45.i.i, !dbg !2037

bb2.i154.i.i:                                     ; preds = %bb4.i.i.i, %bb87.i.i
  call void @llvm.dbg.value(metadata ptr %f, metadata !2038, metadata !DIExpression()), !dbg !2042
  call void @llvm.dbg.value(metadata ptr @_ZN3std9panicking11panic_count18GLOBAL_PANIC_COUNT17h00e7dcd913cdfbe0E, metadata !2044, metadata !DIExpression()), !dbg !2049
  call void @llvm.dbg.value(metadata i8 0, metadata !2048, metadata !DIExpression()), !dbg !2049
  call void @llvm.dbg.value(metadata i8 0, metadata !2097, metadata !DIExpression()), !dbg !2106
  call void @llvm.dbg.value(metadata ptr %f, metadata !2093, metadata !DIExpression(DW_OP_plus_uconst, 4, DW_OP_stack_value)), !dbg !2116
  call void @llvm.dbg.value(metadata ptr %f, metadata !2114, metadata !DIExpression(DW_OP_plus_uconst, 4, DW_OP_stack_value)), !dbg !2117
  call void @llvm.dbg.value(metadata i8 0, metadata !1823, metadata !DIExpression()), !dbg !2118
  call void @llvm.dbg.value(metadata ptr @_ZN3std9panicking11panic_count18GLOBAL_PANIC_COUNT17h00e7dcd913cdfbe0E, metadata !1829, metadata !DIExpression()), !dbg !2118
  %8 = load atomic i64, ptr @_ZN3std9panicking11panic_count18GLOBAL_PANIC_COUNT17h00e7dcd913cdfbe0E monotonic, align 8, !dbg !2120, !noalias !2121
  %_6.i.i.i.i.i = and i64 %8, 9223372036854775807, !dbg !2124
  %9 = icmp eq i64 %_6.i.i.i.i.i, 0, !dbg !2124
  br i1 %9, label %bb15.i.i, label %bb6.i.i.i.i.i, !dbg !2124

bb6.i.i.i.i.i:                                    ; preds = %bb2.i154.i.i
; invoke std::panicking::panic_count::is_zero_slow_path
  %10 = invoke noundef zeroext i1 @_ZN3std9panicking11panic_count17is_zero_slow_path17h24de30857bbd803cE()
          to label %.noexc155.i.i unwind label %cleanup45.i.i, !dbg !2125

.noexc155.i.i:                                    ; preds = %bb6.i.i.i.i.i
  %11 = xor i1 %10, true, !dbg !2126
  %12 = zext i1 %11 to i8, !dbg !2127
  br label %bb15.i.i, !dbg !2125

bb80.i.i:                                         ; preds = %bb5.i.i.i.i, %bb79.i.i, %cleanup.i.i
  %.pn114.i.i = phi { ptr, i32 } [ %13, %cleanup.i.i ], [ %.pn112.i.i, %bb5.i.i.i.i ], [ %.pn112.i.i, %bb79.i.i ]
; invoke core::ptr::drop_in_place<tracing::span::Span>
  invoke fastcc void @"_ZN4core3ptr40drop_in_place$LT$tracing..span..Span$GT$17h711f2487c6521df9E"(ptr noalias noundef nonnull align 8 dereferenceable(40) %span.i.i) #23
          to label %common.resume.i.i unwind label %terminate.i.i, !dbg !2128

cleanup.i.i:                                      ; preds = %bb5.i.i255.i.i, %bb90.i.i
  %13 = landingpad { ptr, i32 }
          cleanup
  br label %bb80.i.i

bb79.i.i:                                         ; preds = %bb84.i.i, %cleanup.i142.i.i, %cleanup.i194.i.i, %bb82.i.i, %cleanup.i.i.i, %"_ZN63_$LT$alloc..alloc..Global$u20$as$u20$core..alloc..Allocator$GT$10deallocate17h0f2d39528d187dc6E.exit.i4.i.i.i.i", %cleanup.i.i.i.i, %cleanup53.body.thread330.i.i, %cleanup.i129.i.i, %cleanup45.i.i
  %.pn112.i.i = phi { ptr, i32 } [ %lpad.phi.i.i, %bb84.i.i ], [ %16, %cleanup45.i.i ], [ %33, %cleanup.i129.i.i ], [ %80, %cleanup.i194.i.i ], [ %90, %cleanup.i142.i.i ], [ %lpad.thr_comm.split-lp.i.i, %bb82.i.i ], [ %lpad.thr_comm.i.i, %cleanup53.body.thread330.i.i ], [ %61, %"_ZN63_$LT$alloc..alloc..Global$u20$as$u20$core..alloc..Allocator$GT$10deallocate17h0f2d39528d187dc6E.exit.i4.i.i.i.i" ], [ %61, %cleanup.i.i.i.i ], [ %70, %cleanup.i.i.i ]
  call void @llvm.dbg.value(metadata ptr undef, metadata !2129, metadata !DIExpression()), !dbg !2138
  call void @llvm.dbg.value(metadata ptr undef, metadata !2140, metadata !DIExpression()), !dbg !2147
  call void @llvm.dbg.value(metadata ptr %span.i.i, metadata !2149, metadata !DIExpression()), !dbg !2156
  call void @llvm.dbg.value(metadata ptr %span.i.i, metadata !2158, metadata !DIExpression()), !dbg !2164
  %14 = load i64, ptr %span.i.i, align 8, !dbg !2166, !range !1944, !noalias !2167, !noundef !29
  %15 = icmp eq i64 %14, 2, !dbg !2166
  br i1 %15, label %bb80.i.i, label %bb5.i.i.i.i, !dbg !2170

bb5.i.i.i.i:                                      ; preds = %bb79.i.i
  call void @llvm.dbg.value(metadata ptr %span.i.i, metadata !2154, metadata !DIExpression()), !dbg !2171
  %_6.i.i.i.i = getelementptr inbounds i8, ptr %span.i.i, i64 24, !dbg !2172
; invoke tracing_core::dispatcher::Dispatch::exit
  invoke void @_ZN12tracing_core10dispatcher8Dispatch4exit17h6130e31af24291afE(ptr noalias noundef nonnull readonly align 8 dereferenceable(24) %span.i.i, ptr noalias noundef nonnull readonly align 8 dereferenceable(8) %_6.i.i.i.i)
          to label %bb80.i.i unwind label %terminate.i.i, !dbg !2173

cleanup45.i.i:                                    ; preds = %bb2.i.i.i.i, %bb6.i.i.i235.i.i, %bb6.i.i.i.i.i, %bb4.i.i.i
  %16 = landingpad { ptr, i32 }
          cleanup
  br label %bb79.i.i

bb15.i.i:                                         ; preds = %.noexc155.i.i, %bb2.i154.i.i
  %_5.sroa.0.0.i.i.i.i.i = phi i8 [ %12, %.noexc155.i.i ], [ 0, %bb2.i154.i.i ], !dbg !2174
  %_3.i.i.i.i = getelementptr inbounds i8, ptr %f, i64 4, !dbg !2175
  call void @llvm.dbg.value(metadata ptr %_3.i.i.i.i, metadata !2093, metadata !DIExpression()), !dbg !2116
  call void @llvm.dbg.value(metadata ptr %_3.i.i.i.i, metadata !2114, metadata !DIExpression()), !dbg !2117
  call void @llvm.dbg.value(metadata i8 %_5.sroa.0.0.i.i.i.i.i, metadata !2094, metadata !DIExpression(DW_OP_LLVM_convert, 1, DW_ATE_unsigned, DW_OP_LLVM_convert, 8, DW_ATE_unsigned, DW_OP_stack_value)), !dbg !2176
  call void @llvm.dbg.value(metadata ptr %_3.i.i.i.i, metadata !2105, metadata !DIExpression()), !dbg !2106
  call void @llvm.dbg.value(metadata i8 0, metadata !1905, metadata !DIExpression()), !dbg !2177
  call void @llvm.dbg.value(metadata ptr %_3.i.i.i.i, metadata !1910, metadata !DIExpression()), !dbg !2177
  %17 = load atomic i8, ptr %_3.i.i.i.i monotonic, align 4, !dbg !2179, !noalias !2121
  %.not.i.i = icmp eq i8 %17, 0, !dbg !2180
  call void @llvm.dbg.value(metadata ptr %f, metadata !1549, metadata !DIExpression(DW_OP_LLVM_fragment, 64, 64)), !dbg !2181
  call void @llvm.dbg.value(metadata i8 %_5.sroa.0.0.i.i.i.i.i, metadata !1549, metadata !DIExpression(DW_OP_LLVM_fragment, 128, 8)), !dbg !2181
  call void @llvm.dbg.value(metadata i1 %.not.i.i, metadata !1549, metadata !DIExpression(DW_OP_LLVM_convert, 1, DW_ATE_unsigned, DW_OP_LLVM_convert, 64, DW_ATE_unsigned, DW_OP_stack_value, DW_OP_LLVM_fragment, 0, 64)), !dbg !2181
  call void @llvm.dbg.declare(metadata ptr %e.i124.i.i, metadata !1572, metadata !DIExpression()), !dbg !2182
  br i1 %.not.i.i, label %bb17.preheader.i.i, label %bb2.i128.i.i, !dbg !2183

bb17.preheader.i.i:                               ; preds = %bb15.i.i
  %18 = getelementptr inbounds i8, ptr %f, i64 48
  %19 = getelementptr inbounds i8, ptr %f, i64 32
  %_170.i.i = getelementptr inbounds i8, ptr %f, i64 8
  %20 = getelementptr inbounds i8, ptr %f, i64 24
  %21 = getelementptr inbounds i8, ptr %f, i64 16
  %22 = getelementptr inbounds i8, ptr %_40.i.i, i64 8
  %self25.sroa.5.0.val.sroa_idx.i.i = getelementptr inbounds i8, ptr %val.i.i, i64 8
  %self25.sroa.6.0.val.sroa_idx.i.i = getelementptr inbounds i8, ptr %val.i.i, i64 16
  %self25.sroa.7.0.val.sroa_idx.i.i = getelementptr inbounds i8, ptr %val.i.i, i64 24
  %self25.sroa.8.0.val.sroa_idx.i.i = getelementptr inbounds i8, ptr %val.i.i, i64 32
  %23 = getelementptr inbounds i8, ptr %_69.i.i, i64 8
  %24 = getelementptr inbounds i8, ptr %_69.i.i, i64 32
  %25 = getelementptr inbounds i8, ptr %_69.i.i, i64 16
  %26 = getelementptr inbounds i8, ptr %_69.i.i, i64 24
  %self27.sroa.5.0.val26.sroa_idx.i.i = getelementptr inbounds i8, ptr %val26.i.i, i64 8
  %self27.sroa.6.0.val26.sroa_idx.i.i = getelementptr inbounds i8, ptr %val26.i.i, i64 16
  %self27.sroa.7.0.val26.sroa_idx.i.i = getelementptr inbounds i8, ptr %val26.i.i, i64 24
  %self27.sroa.8.0.val26.sroa_idx.i.i = getelementptr inbounds i8, ptr %val26.i.i, i64 32
  %_60.sroa.4.0..sroa_idx.i.i = getelementptr inbounds i8, ptr %_59.i.i, i64 8
  %_60.sroa.5.0..sroa_idx.i.i = getelementptr inbounds i8, ptr %_59.i.i, i64 16
  %27 = getelementptr inbounds [2 x { ptr, %"core::option::Option<&dyn tracing_core::field::Value>" }], ptr %_59.i.i, i64 0, i64 1
  %_70.sroa.4.0..sroa_idx.i.i = getelementptr inbounds [2 x { ptr, %"core::option::Option<&dyn tracing_core::field::Value>" }], ptr %_59.i.i, i64 0, i64 1, i32 1
  %_70.sroa.5.0..sroa_idx.i.i = getelementptr inbounds [2 x { ptr, %"core::option::Option<&dyn tracing_core::field::Value>" }], ptr %_59.i.i, i64 0, i64 1, i32 1, i32 1
  %_51.sroa.2.0.value_set.sroa_idx.i.i = getelementptr inbounds i8, ptr %value_set.i.i, i64 8
  %_51.sroa.3.0.value_set.sroa_idx.i.i = getelementptr inbounds i8, ptr %value_set.i.i, i64 16
  %_85.i.i = getelementptr inbounds i8, ptr %f, i64 64
  %self32.sroa.5.0.val31.sroa_idx.i.i = getelementptr inbounds i8, ptr %val31.i.i, i64 8
  %self32.sroa.6.0.val31.sroa_idx.i.i = getelementptr inbounds i8, ptr %val31.i.i, i64 16
  %self32.sroa.8.0.val31.sroa_idx.i.i = getelementptr inbounds i8, ptr %val31.i.i, i64 32
  %28 = getelementptr inbounds i8, ptr %_121.i.i, i64 8
  %29 = getelementptr inbounds i8, ptr %_121.i.i, i64 32
  %30 = getelementptr inbounds i8, ptr %_121.i.i, i64 16
  %31 = getelementptr inbounds i8, ptr %_121.i.i, i64 24
  %_112.sroa.4.0..sroa_idx.i.i = getelementptr inbounds i8, ptr %_111.i.i, i64 8
  %_112.sroa.5.0..sroa_idx.i.i = getelementptr inbounds i8, ptr %_111.i.i, i64 16
  %_103.sroa.2.0.value_set38.sroa_idx.i.i = getelementptr inbounds i8, ptr %value_set38.i.i, i64 8
  %_103.sroa.3.0.value_set38.sroa_idx.i.i = getelementptr inbounds i8, ptr %value_set38.i.i, i64 16
  br label %bb17.i.i, !dbg !2184

bb2.i128.i.i:                                     ; preds = %bb15.i.i
  call void @llvm.lifetime.start.p0(i64 16, ptr nonnull %e.i124.i.i), !dbg !2185, !noalias !2186
  store ptr %f, ptr %e.i124.i.i, align 8, !dbg !2185, !noalias !2186
  %32 = getelementptr inbounds i8, ptr %e.i124.i.i, i64 8, !dbg !2185
  store i8 %_5.sroa.0.0.i.i.i.i.i, ptr %32, align 8, !dbg !2185, !noalias !2186
; invoke core::result::unwrap_failed
  invoke void @_ZN4core6result13unwrap_failed17hebd1efddce947a93E(ptr noalias noundef nonnull readonly align 1 @alloc_00ae4b301f7fab8ac9617c03fcbd7274, i64 noundef 43, ptr noundef nonnull align 1 %e.i124.i.i, ptr noalias noundef nonnull readonly align 8 dereferenceable(32) @vtable.4, ptr noalias noundef nonnull readonly align 8 dereferenceable(24) @alloc_4117d1026d2c3979153b4ac50d8dae74) #24
          to label %unreachable.i132.i.i unwind label %cleanup.i129.i.i, !dbg !2190, !noalias !2191

cleanup.i129.i.i:                                 ; preds = %bb2.i128.i.i
  %33 = landingpad { ptr, i32 }
          cleanup
; invoke core::ptr::drop_in_place<std::sync::poison::PoisonError<std::sync::mutex::MutexGuard<blocking::Inner>>>
  invoke void @"_ZN4core3ptr110drop_in_place$LT$std..sync..poison..PoisonError$LT$std..sync..mutex..MutexGuard$LT$blocking..Inner$GT$$GT$$GT$17hd7a6e8db19a935feE"(ptr noalias noundef nonnull align 8 dereferenceable(16) %e.i124.i.i) #23
          to label %bb79.i.i unwind label %terminate.i130.i.i, !dbg !2192, !noalias !2191

unreachable.i132.i.i:                             ; preds = %bb2.i128.i.i
  unreachable

terminate.i130.i.i:                               ; preds = %cleanup.i129.i.i
  %34 = landingpad { ptr, i32 }
          filter [0 x ptr] zeroinitializer
; call core::panicking::panic_in_cleanup
  call void @_ZN4core9panicking16panic_in_cleanup17h43442956f23e9cbeE() #25, !dbg !2193, !noalias !2191
  unreachable, !dbg !2193

bb17.i.i:                                         ; preds = %bb17.i.i.backedge, %bb17.preheader.i.i
  %inner.sroa.14.0.i.i = phi i8 [ %_5.sroa.0.0.i.i.i.i.i, %bb17.preheader.i.i ], [ %79, %bb17.i.i.backedge ], !dbg !1948
  call void @llvm.dbg.value(metadata ptr %f, metadata !1464, metadata !DIExpression(DW_OP_LLVM_fragment, 0, 64)), !dbg !2194
  call void @llvm.dbg.value(metadata i8 %inner.sroa.14.0.i.i, metadata !1464, metadata !DIExpression(DW_OP_LLVM_fragment, 64, 8)), !dbg !2194
  call void @llvm.dbg.value(metadata i64 poison, metadata !1727, metadata !DIExpression(DW_OP_LLVM_fragment, 256, 64)), !dbg !1762
  call void @llvm.dbg.value(metadata ptr poison, metadata !1727, metadata !DIExpression(DW_OP_LLVM_fragment, 192, 64)), !dbg !1762
  call void @llvm.dbg.value(metadata ptr poison, metadata !1727, metadata !DIExpression(DW_OP_LLVM_fragment, 128, 64)), !dbg !1762
  call void @llvm.dbg.value(metadata ptr poison, metadata !2195, metadata !DIExpression(DW_OP_LLVM_fragment, 64, 64)), !dbg !2231
  call void @llvm.dbg.value(metadata i64 poison, metadata !1727, metadata !DIExpression(DW_OP_LLVM_fragment, 64, 64)), !dbg !1762
  call void @llvm.dbg.value(metadata i64 poison, metadata !1722, metadata !DIExpression(DW_OP_LLVM_fragment, 256, 64)), !dbg !1757
  call void @llvm.dbg.value(metadata ptr poison, metadata !1722, metadata !DIExpression(DW_OP_LLVM_fragment, 192, 64)), !dbg !1757
  call void @llvm.dbg.value(metadata ptr poison, metadata !1722, metadata !DIExpression(DW_OP_LLVM_fragment, 128, 64)), !dbg !1757
  call void @llvm.dbg.value(metadata i64 poison, metadata !1722, metadata !DIExpression(DW_OP_LLVM_fragment, 64, 64)), !dbg !1757
  call void @llvm.dbg.value(metadata i64 poison, metadata !1719, metadata !DIExpression(DW_OP_LLVM_fragment, 256, 64)), !dbg !1737
  call void @llvm.dbg.value(metadata ptr poison, metadata !1719, metadata !DIExpression(DW_OP_LLVM_fragment, 192, 64)), !dbg !1737
  call void @llvm.dbg.value(metadata ptr poison, metadata !1719, metadata !DIExpression(DW_OP_LLVM_fragment, 128, 64)), !dbg !1737
  call void @llvm.dbg.value(metadata i64 poison, metadata !1719, metadata !DIExpression(DW_OP_LLVM_fragment, 64, 64)), !dbg !1737
  %35 = load i64, ptr %18, align 8, !dbg !2233, !noundef !29
  %36 = add i64 %35, -1, !dbg !2233
  store i64 %36, ptr %18, align 8, !dbg !2233
  call void @llvm.dbg.value(metadata ptr %f, metadata !1464, metadata !DIExpression(DW_OP_LLVM_fragment, 0, 64)), !dbg !2194
  call void @llvm.dbg.value(metadata i8 %inner.sroa.14.0.i.i, metadata !1464, metadata !DIExpression(DW_OP_LLVM_fragment, 64, 8)), !dbg !2194
  call void @llvm.dbg.value(metadata ptr %f, metadata !2234, metadata !DIExpression(DW_OP_plus_uconst, 8, DW_OP_stack_value)), !dbg !2255
  call void @llvm.dbg.value(metadata ptr %f, metadata !2257, metadata !DIExpression(DW_OP_plus_uconst, 8, DW_OP_stack_value)), !dbg !2265
  call void @llvm.dbg.value(metadata ptr %f, metadata !2267, metadata !DIExpression(DW_OP_plus_uconst, 8, DW_OP_stack_value)), !dbg !2275
  call void @llvm.dbg.value(metadata ptr %f, metadata !2277, metadata !DIExpression(DW_OP_plus_uconst, 8, DW_OP_stack_value)), !dbg !2285
  %_9.i405.i.i = load i64, ptr %19, align 8, !dbg !2287, !alias.scope !2288, !noundef !29
  %37 = icmp eq i64 %_9.i405.i.i, 0, !dbg !2291
  br i1 %37, label %bb29.i.i, label %bb20.i.i, !dbg !2291

bb20.i.i:                                         ; preds = %bb17.i.i, %bb23.i.i
  %_9.i408.i.i = phi i64 [ %_9.i.i.i, %bb23.i.i ], [ %_9.i405.i.i, %bb17.i.i ]
  %inner.sroa.14.1407.i.i = phi i8 [ %_5.sroa.0.0.i.i.i174.i.i, %bb23.i.i ], [ %inner.sroa.14.0.i.i, %bb17.i.i ]
  call void @llvm.dbg.value(metadata i8 %inner.sroa.14.1407.i.i, metadata !1464, metadata !DIExpression(DW_OP_LLVM_fragment, 64, 8)), !dbg !2194
  call void @llvm.dbg.value(metadata ptr poison, metadata !2195, metadata !DIExpression(DW_OP_LLVM_fragment, 64, 64)), !dbg !2231
  call void @llvm.experimental.noalias.scope.decl(metadata !2292), !dbg !2294
  call void @llvm.dbg.value(metadata ptr %_170.i.i, metadata !2234, metadata !DIExpression()), !dbg !2255
  call void @llvm.dbg.value(metadata ptr %_170.i.i, metadata !2257, metadata !DIExpression()), !dbg !2265
  call void @llvm.dbg.value(metadata ptr %_170.i.i, metadata !2267, metadata !DIExpression()), !dbg !2275
  call void @llvm.dbg.value(metadata ptr %_170.i.i, metadata !2277, metadata !DIExpression()), !dbg !2285
  %old_head.i.i.i = load i64, ptr %20, align 8, !dbg !2295, !alias.scope !2292, !noundef !29
  call void @llvm.dbg.value(metadata i64 %old_head.i.i.i, metadata !2253, metadata !DIExpression()), !dbg !2296
  call void @llvm.dbg.value(metadata i64 %old_head.i.i.i, metadata !2274, metadata !DIExpression()), !dbg !2275
  call void @llvm.dbg.value(metadata i64 %old_head.i.i.i, metadata !2297, metadata !DIExpression()), !dbg !2307
  %self.val.i.i.i = load i64, ptr %_170.i.i, align 8, !dbg !2309, !alias.scope !2292, !noundef !29
  call void @llvm.dbg.value(metadata ptr undef, metadata !2310, metadata !DIExpression()), !dbg !2317
  call void @llvm.dbg.value(metadata ptr undef, metadata !2319, metadata !DIExpression()), !dbg !2328
  call void @llvm.dbg.value(metadata i64 1, metadata !2316, metadata !DIExpression()), !dbg !2317
  call void @llvm.dbg.value(metadata i64 1, metadata !2327, metadata !DIExpression()), !dbg !2328
  call void @llvm.dbg.value(metadata i64 1, metadata !2330, metadata !DIExpression()), !dbg !2339
  call void @llvm.dbg.value(metadata i64 %old_head.i.i.i, metadata !2326, metadata !DIExpression()), !dbg !2328
  call void @llvm.dbg.value(metadata i64 %old_head.i.i.i, metadata !2338, metadata !DIExpression()), !dbg !2339
  %logical_index.i.i.i.i = add i64 %old_head.i.i.i, 1, !dbg !2341
  call void @llvm.dbg.value(metadata i64 %logical_index.i.i.i.i, metadata !2342, metadata !DIExpression()), !dbg !2347
  call void @llvm.dbg.value(metadata i64 %self.val.i.i.i, metadata !2346, metadata !DIExpression()), !dbg !2347
  %_9.not.i.i.i.i = icmp ult i64 %logical_index.i.i.i.i, %self.val.i.i.i, !dbg !2349
  %38 = select i1 %_9.not.i.i.i.i, i64 0, i64 %self.val.i.i.i, !dbg !2349
  %_0.sroa.0.0.i.i.i.i = sub i64 %logical_index.i.i.i.i, %38, !dbg !2349
  store i64 %_0.sroa.0.0.i.i.i.i, ptr %20, align 8, !dbg !2350, !alias.scope !2292
  %39 = add i64 %_9.i408.i.i, -1, !dbg !2351
  store i64 %39, ptr %19, align 8, !dbg !2351, !alias.scope !2292
  %cond.i.i.i = icmp ult i64 %39, %self.val.i.i.i, !dbg !2352
  call void @llvm.dbg.value(metadata i1 %cond.i.i.i, metadata !2353, metadata !DIExpression(DW_OP_LLVM_convert, 1, DW_ATE_unsigned, DW_OP_LLVM_convert, 8, DW_ATE_unsigned, DW_OP_stack_value)), !dbg !2359
  call void @llvm.assume(i1 %cond.i.i.i), !dbg !2361
  call void @llvm.dbg.value(metadata ptr %_170.i.i, metadata !2362, metadata !DIExpression()), !dbg !2371
  %self3.i.i.i = load ptr, ptr %21, align 8, !dbg !2373, !alias.scope !2292, !nonnull !29, !noundef !29
  call void @llvm.dbg.value(metadata ptr %self3.i.i.i, metadata !2306, metadata !DIExpression()), !dbg !2307
  %_16.i.i.i = getelementptr inbounds ptr, ptr %self3.i.i.i, i64 %old_head.i.i.i, !dbg !2374
  call void @llvm.dbg.value(metadata ptr %_16.i.i.i, metadata !2375, metadata !DIExpression()), !dbg !2381
  %_8.i.i.i = load ptr, ptr %_16.i.i.i, align 8, !dbg !2383, !noalias !2292, !nonnull !29, !noundef !29
  call void @llvm.lifetime.start.p0(i64 8, ptr nonnull %runnable.i.i), !dbg !1776
  store ptr %_8.i.i.i, ptr %runnable.i.i, align 8, !dbg !1776
  %_33.1.i.i = icmp ne i8 %inner.sroa.14.1407.i.i, 0, !dbg !2384
; invoke blocking::Executor::grow_pool
  invoke fastcc void @_ZN8blocking8Executor9grow_pool17hd7f079884dce3a01E(ptr noundef nonnull align 8 %f, ptr noundef nonnull align 8 %f, i1 noundef zeroext %_33.1.i.i)
          to label %bb21.i.i unwind label %bb82.i.i, !dbg !2385

cleanup53.body.thread330.i.i:                     ; preds = %bb6.i.i.i173.i.i, %bb4.i170.i.i
  %lpad.thr_comm.i.i = landingpad { ptr, i32 }
          cleanup
  br label %bb79.i.i, !dbg !2386

bb21.i.i:                                         ; preds = %bb20.i.i
  call void @llvm.dbg.value(metadata ptr %_8.i.i.i, metadata !2387, metadata !DIExpression()), !dbg !2401
  call void @llvm.dbg.value(metadata ptr %_8.i.i.i, metadata !2403, metadata !DIExpression()), !dbg !2431
  call void @llvm.dbg.value(metadata ptr %_8.i.i.i, metadata !2406, metadata !DIExpression(DW_OP_LLVM_fragment, 0, 64)), !dbg !2433
  call void @llvm.dbg.value(metadata ptr undef, metadata !2427, metadata !DIExpression()), !dbg !2434
  call void @llvm.dbg.value(metadata ptr undef, metadata !2435, metadata !DIExpression()), !dbg !2447
  call void @llvm.dbg.value(metadata ptr undef, metadata !2440, metadata !DIExpression()), !dbg !2449
  call void @llvm.dbg.value(metadata ptr undef, metadata !2443, metadata !DIExpression()), !dbg !2450
  call void @llvm.dbg.value(metadata ptr %_8.i.i.i, metadata !2445, metadata !DIExpression()), !dbg !2451
  call void @llvm.dbg.value(metadata ptr %_8.i.i.i, metadata !2452, metadata !DIExpression()), !dbg !2457
  call void @llvm.dbg.value(metadata ptr %_8.i.i.i, metadata !2459, metadata !DIExpression()), !dbg !2539
  call void @llvm.dbg.value(metadata ptr %_8.i.i.i, metadata !2467, metadata !DIExpression()), !dbg !2541
  call void @llvm.dbg.value(metadata ptr %_8.i.i.i, metadata !2470, metadata !DIExpression()), !dbg !2542
  %_5.i.i.i.i.i = load ptr, ptr %_8.i.i.i, align 8, !dbg !2543, !noalias !2544, !nonnull !29, !align !1938, !noundef !29
  %40 = getelementptr inbounds i8, ptr %_5.i.i.i.i.i, i64 40, !dbg !2543
  %_4.i.i.i.i.i = load ptr, ptr %40, align 8, !dbg !2543, !noalias !2544, !nonnull !29, !noundef !29
  %_0.i.i2.i.i.i = invoke noundef zeroext i1 %_4.i.i.i.i.i(ptr noundef nonnull %_8.i.i.i)
          to label %bb93.i.i unwind label %catch.i.i.i.i, !dbg !2543, !noalias !2544

catch.i.i.i.i:                                    ; preds = %bb21.i.i
  %41 = landingpad { ptr, i32 }
          cleanup
          catch ptr null, !dbg !2547
  %42 = extractvalue { ptr, i32 } %41, 0, !dbg !2547
  call void @llvm.dbg.value(metadata ptr undef, metadata !2548, metadata !DIExpression()), !dbg !2560
  call void @llvm.dbg.value(metadata ptr %42, metadata !2553, metadata !DIExpression()), !dbg !2560
  call void @llvm.dbg.value(metadata ptr undef, metadata !2554, metadata !DIExpression()), !dbg !2562
  call void @llvm.dbg.value(metadata ptr undef, metadata !2556, metadata !DIExpression()), !dbg !2563
; invoke std::panicking::try::cleanup
  %43 = invoke { ptr, ptr } @_ZN3std9panicking3try7cleanup17hd6ade9b987c70092E(ptr noundef %42)
          to label %bb2.i180.i.i unwind label %terminate.i.i.i.i, !dbg !2564

terminate.i.i.i.i:                                ; preds = %catch.i.i.i.i
  %44 = landingpad { ptr, i32 }
          filter [0 x ptr] zeroinitializer
; call core::panicking::panic_cannot_unwind
  call void @_ZN4core9panicking19panic_cannot_unwind17h3f96c9c07954d1a5E() #25, !dbg !2565, !noalias !2544
  unreachable, !dbg !2565

bb93.i.i:                                         ; preds = %"_ZN63_$LT$alloc..alloc..Global$u20$as$u20$core..alloc..Allocator$GT$10deallocate17h0f2d39528d187dc6E.exit.i.i.i.i.i", %bb3.i.i.i.i, %bb21.i.i
  call void @llvm.dbg.value(metadata i32 0, metadata !1949, metadata !DIExpression()), !dbg !2566
  call void @llvm.dbg.value(metadata i32 1, metadata !1973, metadata !DIExpression()), !dbg !2566
  call void @llvm.dbg.value(metadata i8 2, metadata !1974, metadata !DIExpression()), !dbg !2566
  call void @llvm.dbg.value(metadata i8 0, metadata !1975, metadata !DIExpression()), !dbg !2566
  call void @llvm.dbg.value(metadata ptr %f, metadata !1994, metadata !DIExpression()), !dbg !2570
  call void @llvm.dbg.value(metadata ptr %f, metadata !1986, metadata !DIExpression()), !dbg !2571
  call void @llvm.dbg.value(metadata ptr %f, metadata !1972, metadata !DIExpression()), !dbg !2566
  call void @llvm.dbg.value(metadata i8 2, metadata !1998, metadata !DIExpression()), !dbg !2572
  call void @llvm.dbg.value(metadata i8 0, metadata !2007, metadata !DIExpression()), !dbg !2572
  call void @llvm.dbg.value(metadata ptr %f, metadata !2004, metadata !DIExpression()), !dbg !2572
  call void @llvm.dbg.value(metadata i32 0, metadata !2005, metadata !DIExpression()), !dbg !2572
  call void @llvm.dbg.value(metadata i32 1, metadata !2006, metadata !DIExpression()), !dbg !2572
  %45 = cmpxchg ptr %f, i32 0, i32 1 acquire monotonic, align 4, !dbg !2574, !noalias !2575
  %46 = extractvalue { i32, i1 } %45, 1, !dbg !2574
  call void @llvm.dbg.value(metadata ptr undef, metadata !2017, metadata !DIExpression()), !dbg !2578
  call void @llvm.dbg.value(metadata ptr undef, metadata !2027, metadata !DIExpression()), !dbg !2580
  br i1 %46, label %bb2.i171.i.i, label %bb4.i170.i.i, !dbg !2582

bb4.i170.i.i:                                     ; preds = %bb93.i.i
; invoke std::sys::sync::mutex::futex::Mutex::lock_contended
  invoke void @_ZN3std3sys4sync5mutex5futex5Mutex14lock_contended17h8fd9cbd50b365b92E(ptr noundef nonnull align 4 %f)
          to label %bb2.i171.i.i unwind label %cleanup53.body.thread330.i.i, !dbg !2583

bb2.i171.i.i:                                     ; preds = %bb4.i170.i.i, %bb93.i.i
  call void @llvm.dbg.value(metadata ptr %f, metadata !2038, metadata !DIExpression()), !dbg !2584
  call void @llvm.dbg.value(metadata ptr @_ZN3std9panicking11panic_count18GLOBAL_PANIC_COUNT17h00e7dcd913cdfbe0E, metadata !2044, metadata !DIExpression()), !dbg !2586
  call void @llvm.dbg.value(metadata i8 0, metadata !2048, metadata !DIExpression()), !dbg !2586
  call void @llvm.dbg.value(metadata i8 0, metadata !2097, metadata !DIExpression()), !dbg !2592
  call void @llvm.dbg.value(metadata ptr %f, metadata !2093, metadata !DIExpression(DW_OP_plus_uconst, 4, DW_OP_stack_value)), !dbg !2595
  call void @llvm.dbg.value(metadata ptr %f, metadata !2114, metadata !DIExpression(DW_OP_plus_uconst, 4, DW_OP_stack_value)), !dbg !2596
  call void @llvm.dbg.value(metadata i8 0, metadata !1823, metadata !DIExpression()), !dbg !2597
  call void @llvm.dbg.value(metadata ptr @_ZN3std9panicking11panic_count18GLOBAL_PANIC_COUNT17h00e7dcd913cdfbe0E, metadata !1829, metadata !DIExpression()), !dbg !2597
  %47 = load atomic i64, ptr @_ZN3std9panicking11panic_count18GLOBAL_PANIC_COUNT17h00e7dcd913cdfbe0E monotonic, align 8, !dbg !2599, !noalias !2600
  %_6.i.i.i172.i.i = and i64 %47, 9223372036854775807, !dbg !2603
  %48 = icmp eq i64 %_6.i.i.i172.i.i, 0, !dbg !2603
  br i1 %48, label %bb22.i.i, label %bb6.i.i.i173.i.i, !dbg !2603

bb6.i.i.i173.i.i:                                 ; preds = %bb2.i171.i.i
; invoke std::panicking::panic_count::is_zero_slow_path
  %49 = invoke noundef zeroext i1 @_ZN3std9panicking11panic_count17is_zero_slow_path17h24de30857bbd803cE()
          to label %.noexc178.i.i unwind label %cleanup53.body.thread330.i.i, !dbg !2604

.noexc178.i.i:                                    ; preds = %bb6.i.i.i173.i.i
  %50 = xor i1 %49, true, !dbg !2605
  %51 = zext i1 %50 to i8, !dbg !2606
  br label %bb22.i.i, !dbg !2604

bb2.i180.i.i:                                     ; preds = %catch.i.i.i.i
  %obj.0.i.i.i.i = extractvalue { ptr, ptr } %43, 0, !dbg !2564
  %obj.1.i.i.i.i = extractvalue { ptr, ptr } %43, 1, !dbg !2564
  call void @llvm.dbg.value(metadata ptr %obj.0.i.i.i.i, metadata !2406, metadata !DIExpression(DW_OP_LLVM_fragment, 0, 64)), !dbg !2433
  call void @llvm.dbg.value(metadata ptr %obj.1.i.i.i.i, metadata !2406, metadata !DIExpression(DW_OP_LLVM_fragment, 64, 64)), !dbg !2433
  %52 = icmp ne ptr %obj.0.i.i.i.i, null
  call void @llvm.assume(i1 %52)
  call void @llvm.dbg.value(metadata ptr %obj.0.i.i.i.i, metadata !2195, metadata !DIExpression(DW_OP_LLVM_fragment, 0, 64)), !dbg !2231
  call void @llvm.dbg.value(metadata ptr %obj.1.i.i.i.i, metadata !2195, metadata !DIExpression(DW_OP_LLVM_fragment, 64, 64)), !dbg !2231
  call void @llvm.dbg.value(metadata ptr undef, metadata !2607, metadata !DIExpression()), !dbg !2615
  %53 = icmp ne ptr %obj.1.i.i.i.i, null
  call void @llvm.assume(i1 %53)
  call void @llvm.dbg.value(metadata ptr undef, metadata !2617, metadata !DIExpression()), !dbg !2623
  %54 = load ptr, ptr %obj.1.i.i.i.i, align 8, !dbg !2625, !invariant.load !29
  %.not.i.i.i.i = icmp eq ptr %54, null, !dbg !2625
  br i1 %.not.i.i.i.i, label %bb3.i.i.i.i, label %is_not_null.i.i.i.i, !dbg !2625

is_not_null.i.i.i.i:                              ; preds = %bb2.i180.i.i
  invoke void %54(ptr noundef nonnull align 1 %obj.0.i.i.i.i)
          to label %bb3.i.i.i.i unwind label %cleanup.i.i.i.i, !dbg !2625

bb3.i.i.i.i:                                      ; preds = %is_not_null.i.i.i.i, %bb2.i180.i.i
  call void @llvm.dbg.value(metadata ptr undef, metadata !2626, metadata !DIExpression()), !dbg !2654
  call void @llvm.dbg.value(metadata ptr %obj.0.i.i.i.i, metadata !2635, metadata !DIExpression(DW_OP_LLVM_fragment, 0, 64)), !dbg !2656
  call void @llvm.dbg.value(metadata ptr %obj.1.i.i.i.i, metadata !2635, metadata !DIExpression(DW_OP_LLVM_fragment, 64, 64)), !dbg !2656
  call void @llvm.dbg.value(metadata ptr %obj.0.i.i.i.i, metadata !2657, metadata !DIExpression(DW_OP_LLVM_fragment, 0, 64)), !dbg !2668
  call void @llvm.dbg.value(metadata ptr %obj.0.i.i.i.i, metadata !2670, metadata !DIExpression(DW_OP_LLVM_fragment, 0, 64)), !dbg !2677
  call void @llvm.dbg.value(metadata ptr %obj.0.i.i.i.i, metadata !2679, metadata !DIExpression(DW_OP_LLVM_fragment, 0, 64)), !dbg !2683
  call void @llvm.dbg.value(metadata ptr %obj.1.i.i.i.i, metadata !2657, metadata !DIExpression(DW_OP_LLVM_fragment, 64, 64)), !dbg !2668
  call void @llvm.dbg.value(metadata ptr %obj.1.i.i.i.i, metadata !2670, metadata !DIExpression(DW_OP_LLVM_fragment, 64, 64)), !dbg !2677
  call void @llvm.dbg.value(metadata ptr %obj.1.i.i.i.i, metadata !2679, metadata !DIExpression(DW_OP_LLVM_fragment, 64, 64)), !dbg !2683
  %55 = getelementptr inbounds i8, ptr %obj.1.i.i.i.i, i64 8, !dbg !2685
  %56 = load i64, ptr %55, align 8, !dbg !2685, !range !2686, !invariant.load !29
  %57 = getelementptr inbounds i8, ptr %obj.1.i.i.i.i, i64 16, !dbg !2685
  call void @llvm.dbg.value(metadata i64 %56, metadata !2665, metadata !DIExpression()), !dbg !2687
  call void @llvm.dbg.value(metadata i64 %56, metadata !2688, metadata !DIExpression()), !dbg !2696
  %58 = load i64, ptr %57, align 8, !dbg !2698, !range !2699, !invariant.load !29
  call void @llvm.dbg.value(metadata i64 %58, metadata !2667, metadata !DIExpression()), !dbg !2687
  call void @llvm.dbg.value(metadata i64 %58, metadata !2695, metadata !DIExpression()), !dbg !2696
  call void @llvm.dbg.value(metadata i64 %58, metadata !2700, metadata !DIExpression()), !dbg !2708
  %59 = icmp ult i64 %58, -9223372036854775807, !dbg !2710
  call void @llvm.assume(i1 %59), !dbg !2710
  call void @llvm.dbg.value(metadata i64 %56, metadata !2651, metadata !DIExpression(DW_OP_LLVM_fragment, 64, 64)), !dbg !2711
  call void @llvm.dbg.value(metadata i64 %58, metadata !2651, metadata !DIExpression(DW_OP_LLVM_fragment, 0, 64)), !dbg !2711
  %60 = icmp eq i64 %56, 0, !dbg !2712
  br i1 %60, label %bb93.i.i, label %"_ZN63_$LT$alloc..alloc..Global$u20$as$u20$core..alloc..Allocator$GT$10deallocate17h0f2d39528d187dc6E.exit.i.i.i.i.i", !dbg !2712

"_ZN63_$LT$alloc..alloc..Global$u20$as$u20$core..alloc..Allocator$GT$10deallocate17h0f2d39528d187dc6E.exit.i.i.i.i.i": ; preds = %bb3.i.i.i.i
  call void @llvm.dbg.value(metadata i64 %58, metadata !2713, metadata !DIExpression(DW_OP_LLVM_fragment, 0, 64)), !dbg !2723
  call void @llvm.dbg.value(metadata i64 %56, metadata !2713, metadata !DIExpression(DW_OP_LLVM_fragment, 64, 64)), !dbg !2723
  call void @llvm.dbg.value(metadata ptr undef, metadata !2721, metadata !DIExpression()), !dbg !2723
  call void @llvm.dbg.value(metadata ptr %obj.0.i.i.i.i, metadata !2722, metadata !DIExpression()), !dbg !2723
  call void @llvm.dbg.value(metadata ptr %obj.0.i.i.i.i, metadata !2725, metadata !DIExpression()), !dbg !2732
  call void @llvm.dbg.value(metadata i64 %58, metadata !2731, metadata !DIExpression(DW_OP_LLVM_fragment, 0, 64)), !dbg !2732
  call void @llvm.dbg.value(metadata i64 %56, metadata !2731, metadata !DIExpression(DW_OP_LLVM_fragment, 64, 64)), !dbg !2732
  call void @__rust_dealloc(ptr noundef nonnull %obj.0.i.i.i.i, i64 noundef %56, i64 noundef %58) #26, !dbg !2734
  br label %bb93.i.i, !dbg !2735

cleanup.i.i.i.i:                                  ; preds = %is_not_null.i.i.i.i
  %61 = landingpad { ptr, i32 }
          cleanup
  call void @llvm.dbg.value(metadata ptr undef, metadata !2626, metadata !DIExpression()), !dbg !2736
  call void @llvm.dbg.value(metadata ptr %obj.0.i.i.i.i, metadata !2635, metadata !DIExpression(DW_OP_LLVM_fragment, 0, 64)), !dbg !2738
  call void @llvm.dbg.value(metadata ptr %obj.1.i.i.i.i, metadata !2635, metadata !DIExpression(DW_OP_LLVM_fragment, 64, 64)), !dbg !2738
  call void @llvm.dbg.value(metadata ptr %obj.0.i.i.i.i, metadata !2657, metadata !DIExpression(DW_OP_LLVM_fragment, 0, 64)), !dbg !2739
  call void @llvm.dbg.value(metadata ptr %obj.0.i.i.i.i, metadata !2670, metadata !DIExpression(DW_OP_LLVM_fragment, 0, 64)), !dbg !2741
  call void @llvm.dbg.value(metadata ptr %obj.0.i.i.i.i, metadata !2679, metadata !DIExpression(DW_OP_LLVM_fragment, 0, 64)), !dbg !2743
  call void @llvm.dbg.value(metadata ptr %obj.1.i.i.i.i, metadata !2657, metadata !DIExpression(DW_OP_LLVM_fragment, 64, 64)), !dbg !2739
  call void @llvm.dbg.value(metadata ptr %obj.1.i.i.i.i, metadata !2670, metadata !DIExpression(DW_OP_LLVM_fragment, 64, 64)), !dbg !2741
  call void @llvm.dbg.value(metadata ptr %obj.1.i.i.i.i, metadata !2679, metadata !DIExpression(DW_OP_LLVM_fragment, 64, 64)), !dbg !2743
  %62 = getelementptr inbounds i8, ptr %obj.1.i.i.i.i, i64 8, !dbg !2745
  %63 = load i64, ptr %62, align 8, !dbg !2745, !range !2686, !invariant.load !29
  %64 = getelementptr inbounds i8, ptr %obj.1.i.i.i.i, i64 16, !dbg !2745
  call void @llvm.dbg.value(metadata i64 %63, metadata !2665, metadata !DIExpression()), !dbg !2746
  call void @llvm.dbg.value(metadata i64 %63, metadata !2688, metadata !DIExpression()), !dbg !2747
  %65 = load i64, ptr %64, align 8, !dbg !2749, !range !2699, !invariant.load !29
  call void @llvm.dbg.value(metadata i64 %65, metadata !2667, metadata !DIExpression()), !dbg !2746
  call void @llvm.dbg.value(metadata i64 %65, metadata !2695, metadata !DIExpression()), !dbg !2747
  call void @llvm.dbg.value(metadata i64 %65, metadata !2700, metadata !DIExpression()), !dbg !2750
  %66 = icmp ult i64 %65, -9223372036854775807, !dbg !2752
  call void @llvm.assume(i1 %66), !dbg !2752
  call void @llvm.dbg.value(metadata i64 %63, metadata !2651, metadata !DIExpression(DW_OP_LLVM_fragment, 64, 64)), !dbg !2753
  call void @llvm.dbg.value(metadata i64 %65, metadata !2651, metadata !DIExpression(DW_OP_LLVM_fragment, 0, 64)), !dbg !2753
  %67 = icmp eq i64 %63, 0, !dbg !2754
  br i1 %67, label %bb79.i.i, label %"_ZN63_$LT$alloc..alloc..Global$u20$as$u20$core..alloc..Allocator$GT$10deallocate17h0f2d39528d187dc6E.exit.i4.i.i.i.i", !dbg !2754

"_ZN63_$LT$alloc..alloc..Global$u20$as$u20$core..alloc..Allocator$GT$10deallocate17h0f2d39528d187dc6E.exit.i4.i.i.i.i": ; preds = %cleanup.i.i.i.i
  call void @llvm.dbg.value(metadata i64 %65, metadata !2713, metadata !DIExpression(DW_OP_LLVM_fragment, 0, 64)), !dbg !2755
  call void @llvm.dbg.value(metadata i64 %63, metadata !2713, metadata !DIExpression(DW_OP_LLVM_fragment, 64, 64)), !dbg !2755
  call void @llvm.dbg.value(metadata ptr undef, metadata !2721, metadata !DIExpression()), !dbg !2755
  call void @llvm.dbg.value(metadata ptr %obj.0.i.i.i.i, metadata !2722, metadata !DIExpression()), !dbg !2755
  call void @llvm.dbg.value(metadata ptr %obj.0.i.i.i.i, metadata !2725, metadata !DIExpression()), !dbg !2757
  call void @llvm.dbg.value(metadata i64 %65, metadata !2731, metadata !DIExpression(DW_OP_LLVM_fragment, 0, 64)), !dbg !2757
  call void @llvm.dbg.value(metadata i64 %63, metadata !2731, metadata !DIExpression(DW_OP_LLVM_fragment, 64, 64)), !dbg !2757
  call void @__rust_dealloc(ptr noundef nonnull %obj.0.i.i.i.i, i64 noundef %63, i64 noundef %65) #26, !dbg !2759
  br label %bb79.i.i, !dbg !2760

bb22.i.i:                                         ; preds = %.noexc178.i.i, %bb2.i171.i.i
  %_5.sroa.0.0.i.i.i174.i.i = phi i8 [ %51, %.noexc178.i.i ], [ 0, %bb2.i171.i.i ], !dbg !2761
  call void @llvm.dbg.value(metadata ptr %_3.i.i.i.i, metadata !2093, metadata !DIExpression()), !dbg !2595
  call void @llvm.dbg.value(metadata ptr %_3.i.i.i.i, metadata !2114, metadata !DIExpression()), !dbg !2596
  call void @llvm.dbg.value(metadata i8 %_5.sroa.0.0.i.i.i174.i.i, metadata !2094, metadata !DIExpression(DW_OP_LLVM_convert, 1, DW_ATE_unsigned, DW_OP_LLVM_convert, 8, DW_ATE_unsigned, DW_OP_stack_value)), !dbg !2762
  call void @llvm.dbg.value(metadata ptr %_3.i.i.i.i, metadata !2105, metadata !DIExpression()), !dbg !2592
  call void @llvm.dbg.value(metadata i8 0, metadata !1905, metadata !DIExpression()), !dbg !2763
  call void @llvm.dbg.value(metadata ptr %_3.i.i.i.i, metadata !1910, metadata !DIExpression()), !dbg !2763
  %68 = load atomic i8, ptr %_3.i.i.i.i monotonic, align 4, !dbg !2765, !noalias !2600
  %.not370.i.i = icmp eq i8 %68, 0, !dbg !2766
  call void @llvm.dbg.value(metadata ptr %f, metadata !1549, metadata !DIExpression(DW_OP_LLVM_fragment, 64, 64)), !dbg !2767
  call void @llvm.dbg.value(metadata i8 %_5.sroa.0.0.i.i.i174.i.i, metadata !1549, metadata !DIExpression(DW_OP_LLVM_fragment, 128, 8)), !dbg !2767
  call void @llvm.dbg.value(metadata i1 %.not370.i.i, metadata !1549, metadata !DIExpression(DW_OP_LLVM_convert, 1, DW_ATE_unsigned, DW_OP_LLVM_convert, 64, DW_ATE_unsigned, DW_OP_stack_value, DW_OP_LLVM_fragment, 0, 64)), !dbg !2767
  call void @llvm.dbg.declare(metadata ptr %e.i.i.i, metadata !1572, metadata !DIExpression()), !dbg !2768
  br i1 %.not370.i.i, label %bb23.i.i, label %bb2.i.i.i, !dbg !2769

bb2.i.i.i:                                        ; preds = %bb22.i.i
  call void @llvm.lifetime.start.p0(i64 16, ptr nonnull %e.i.i.i), !dbg !2770, !noalias !2771
  store ptr %f, ptr %e.i.i.i, align 8, !dbg !2770, !noalias !2771
  %69 = getelementptr inbounds i8, ptr %e.i.i.i, i64 8, !dbg !2770
  store i8 %_5.sroa.0.0.i.i.i174.i.i, ptr %69, align 8, !dbg !2770, !noalias !2771
; invoke core::result::unwrap_failed
  invoke void @_ZN4core6result13unwrap_failed17hebd1efddce947a93E(ptr noalias noundef nonnull readonly align 1 @alloc_00ae4b301f7fab8ac9617c03fcbd7274, i64 noundef 43, ptr noundef nonnull align 1 %e.i.i.i, ptr noalias noundef nonnull readonly align 8 dereferenceable(32) @vtable.4, ptr noalias noundef nonnull readonly align 8 dereferenceable(24) @alloc_c4965f29b803fb04e84566ba095f6d75) #24
          to label %unreachable.i.i.i unwind label %cleanup.i.i.i, !dbg !2775, !noalias !2776

cleanup.i.i.i:                                    ; preds = %bb2.i.i.i
  %70 = landingpad { ptr, i32 }
          cleanup
; invoke core::ptr::drop_in_place<std::sync::poison::PoisonError<std::sync::mutex::MutexGuard<blocking::Inner>>>
  invoke void @"_ZN4core3ptr110drop_in_place$LT$std..sync..poison..PoisonError$LT$std..sync..mutex..MutexGuard$LT$blocking..Inner$GT$$GT$$GT$17hd7a6e8db19a935feE"(ptr noalias noundef nonnull align 8 dereferenceable(16) %e.i.i.i) #23
          to label %bb79.i.i unwind label %terminate.i.i.i, !dbg !2777, !noalias !2776

unreachable.i.i.i:                                ; preds = %bb2.i.i.i
  unreachable

terminate.i.i.i:                                  ; preds = %cleanup.i.i.i
  %71 = landingpad { ptr, i32 }
          filter [0 x ptr] zeroinitializer
; call core::panicking::panic_in_cleanup
  call void @_ZN4core9panicking16panic_in_cleanup17h43442956f23e9cbeE() #25, !dbg !2778, !noalias !2776
  unreachable, !dbg !2778

bb23.i.i:                                         ; preds = %bb22.i.i
  call void @llvm.dbg.value(metadata ptr %f, metadata !1464, metadata !DIExpression(DW_OP_LLVM_fragment, 0, 64)), !dbg !2194
  call void @llvm.dbg.value(metadata i8 %_5.sroa.0.0.i.i.i174.i.i, metadata !1464, metadata !DIExpression(DW_OP_LLVM_fragment, 64, 8)), !dbg !2194
  call void @llvm.lifetime.end.p0(i64 8, ptr nonnull %runnable.i.i), !dbg !2386
  call void @llvm.dbg.value(metadata ptr %f, metadata !1464, metadata !DIExpression(DW_OP_LLVM_fragment, 0, 64)), !dbg !2194
  call void @llvm.dbg.value(metadata i8 %_5.sroa.0.0.i.i.i174.i.i, metadata !1464, metadata !DIExpression(DW_OP_LLVM_fragment, 64, 8)), !dbg !2194
  call void @llvm.dbg.value(metadata ptr poison, metadata !2195, metadata !DIExpression(DW_OP_LLVM_fragment, 64, 64)), !dbg !2231
  call void @llvm.dbg.value(metadata ptr %f, metadata !2234, metadata !DIExpression(DW_OP_plus_uconst, 8, DW_OP_stack_value)), !dbg !2255
  call void @llvm.dbg.value(metadata ptr %f, metadata !2257, metadata !DIExpression(DW_OP_plus_uconst, 8, DW_OP_stack_value)), !dbg !2265
  call void @llvm.dbg.value(metadata ptr %f, metadata !2267, metadata !DIExpression(DW_OP_plus_uconst, 8, DW_OP_stack_value)), !dbg !2275
  call void @llvm.dbg.value(metadata ptr %f, metadata !2277, metadata !DIExpression(DW_OP_plus_uconst, 8, DW_OP_stack_value)), !dbg !2285
  %_9.i.i.i = load i64, ptr %19, align 8, !dbg !2287, !alias.scope !2779, !noundef !29
  %72 = icmp eq i64 %_9.i.i.i, 0, !dbg !2291
  br i1 %72, label %bb29.loopexit.i.i, label %bb20.i.i, !dbg !2291

bb82.i.i:                                         ; preds = %bb20.i.i
  %lpad.thr_comm.split-lp.i.i = landingpad { ptr, i32 }
          cleanup
; invoke core::ptr::drop_in_place<async_task::runnable::Runnable>
  invoke fastcc void @"_ZN4core3ptr51drop_in_place$LT$async_task..runnable..Runnable$GT$17h9e49eb2f21dfdf4fE"(ptr noalias noundef nonnull align 8 dereferenceable(8) %runnable.i.i) #23
          to label %bb79.i.i unwind label %terminate.i.i, !dbg !2386

terminate.i.i:                                    ; preds = %bb84.i.i, %bb82.i.i, %bb5.i.i.i.i, %bb80.i.i
  %73 = landingpad { ptr, i32 }
          filter [0 x ptr] zeroinitializer
; call core::panicking::panic_in_cleanup
  call void @_ZN4core9panicking16panic_in_cleanup17h43442956f23e9cbeE() #25, !dbg !2781
  unreachable, !dbg !2781

bb29.loopexit.i.i:                                ; preds = %bb23.i.i
  %.pre427.i.i = load i64, ptr %18, align 8, !dbg !2782
  br label %bb29.i.i, !dbg !2782

bb29.i.i:                                         ; preds = %bb29.loopexit.i.i, %bb17.i.i
  %74 = phi i64 [ %36, %bb17.i.i ], [ %.pre427.i.i, %bb29.loopexit.i.i ], !dbg !2782
  %inner.sroa.14.1.lcssa.i.i = phi i8 [ %inner.sroa.14.0.i.i, %bb17.i.i ], [ %_5.sroa.0.0.i.i.i174.i.i, %bb29.loopexit.i.i ], !dbg !1948
  %75 = add i64 %74, 1, !dbg !2782
  store i64 %75, ptr %18, align 8, !dbg !2782
  store i64 0, ptr %_40.i.i, align 8, !dbg !2783
  store i32 500000000, ptr %22, align 8, !dbg !2783
  call void @llvm.dbg.value(metadata !29, metadata !1778, metadata !DIExpression()), !dbg !2784
  call void @llvm.dbg.value(metadata !29, metadata !1803, metadata !DIExpression()), !dbg !2784
  call void @llvm.dbg.value(metadata ptr @_ZN12tracing_core8metadata9MAX_LEVEL17h2def28f3c9fb9790E, metadata !1806, metadata !DIExpression()), !dbg !2786
  call void @llvm.dbg.value(metadata i8 0, metadata !1815, metadata !DIExpression()), !dbg !2786
  call void @llvm.dbg.value(metadata i8 0, metadata !1823, metadata !DIExpression()), !dbg !2789
  call void @llvm.dbg.value(metadata ptr @_ZN12tracing_core8metadata9MAX_LEVEL17h2def28f3c9fb9790E, metadata !1829, metadata !DIExpression()), !dbg !2789
  %76 = load atomic i64, ptr @_ZN12tracing_core8metadata9MAX_LEVEL17h2def28f3c9fb9790E monotonic, align 8, !dbg !2791
  call void @llvm.dbg.value(metadata !29, metadata !1778, metadata !DIExpression()), !dbg !2792
  call void @llvm.dbg.value(metadata ptr undef, metadata !1803, metadata !DIExpression()), !dbg !2792
  %_0.i117.i.i = icmp eq i64 %76, 0, !dbg !2794
  br i1 %_0.i117.i.i, label %bb30.i.i, label %bb40.i.i, !dbg !2795

bb30.i.i:                                         ; preds = %bb29.i.i
  call void @llvm.dbg.value(metadata i8 0, metadata !1886, metadata !DIExpression()), !dbg !2796
  call void @llvm.dbg.value(metadata ptr @_ZN8blocking8Executor9main_loop10__CALLSITE17haa22fe4c5f1ce7cdE, metadata !1902, metadata !DIExpression()), !dbg !2799
  call void @llvm.dbg.value(metadata ptr @_ZN8blocking8Executor9main_loop10__CALLSITE17haa22fe4c5f1ce7cdE, metadata !1894, metadata !DIExpression(DW_OP_plus_uconst, 16, DW_OP_stack_value)), !dbg !2796
  call void @llvm.dbg.value(metadata i8 0, metadata !1905, metadata !DIExpression()), !dbg !2800
  call void @llvm.dbg.value(metadata ptr getelementptr inbounds (<{ ptr, [10 x i8], [6 x i8] }>, ptr @_ZN8blocking8Executor9main_loop10__CALLSITE17haa22fe4c5f1ce7cdE, i64 0, i32 1, i64 8), metadata !1910, metadata !DIExpression()), !dbg !2800
  %77 = load atomic i8, ptr getelementptr inbounds (<{ ptr, [10 x i8], [6 x i8] }>, ptr @_ZN8blocking8Executor9main_loop10__CALLSITE17haa22fe4c5f1ce7cdE, i64 0, i32 1, i64 8) monotonic, align 8, !dbg !2802
  switch i8 %77, label %bb1.i191.i.i [
    i8 0, label %bb40.i.i
    i8 1, label %bb35.i.i
    i8 2, label %bb6.i187.i.i
  ], !dbg !2803

bb1.i191.i.i:                                     ; preds = %bb30.i.i
; invoke tracing_core::callsite::DefaultCallsite::register
  %78 = invoke noundef i8 @_ZN12tracing_core8callsite15DefaultCallsite8register17h1f01c6d2d83987b0E(ptr noundef nonnull align 8 @_ZN8blocking8Executor9main_loop10__CALLSITE17haa22fe4c5f1ce7cdE)
          to label %bb33.i.i unwind label %bb84.loopexit.i.i, !dbg !2804

bb6.i187.i.i:                                     ; preds = %bb30.i.i
  br label %bb35.i.i, !dbg !2805

bb40.i.i:                                         ; preds = %bb100.i.i, %bb36.i.i, %bb33.i.i, %bb30.i.i, %bb29.i.i
  call void @llvm.dbg.value(metadata i64 poison, metadata !1722, metadata !DIExpression(DW_OP_LLVM_fragment, 256, 64)), !dbg !1757
  call void @llvm.dbg.value(metadata ptr poison, metadata !1722, metadata !DIExpression(DW_OP_LLVM_fragment, 192, 64)), !dbg !1757
  call void @llvm.dbg.value(metadata ptr poison, metadata !1722, metadata !DIExpression(DW_OP_LLVM_fragment, 128, 64)), !dbg !1757
  call void @llvm.dbg.value(metadata i64 poison, metadata !1722, metadata !DIExpression(DW_OP_LLVM_fragment, 64, 64)), !dbg !1757
  call void @llvm.dbg.value(metadata i64 poison, metadata !1719, metadata !DIExpression(DW_OP_LLVM_fragment, 256, 64)), !dbg !1737
  call void @llvm.dbg.value(metadata ptr poison, metadata !1719, metadata !DIExpression(DW_OP_LLVM_fragment, 192, 64)), !dbg !1737
  call void @llvm.dbg.value(metadata ptr poison, metadata !1719, metadata !DIExpression(DW_OP_LLVM_fragment, 128, 64)), !dbg !1737
  call void @llvm.dbg.value(metadata i64 poison, metadata !1719, metadata !DIExpression(DW_OP_LLVM_fragment, 64, 64)), !dbg !1737
  call void @llvm.lifetime.start.p0(i64 7, ptr nonnull %_84.sroa.9.i.i), !dbg !2806
  call void @llvm.lifetime.start.p0(i64 7, ptr nonnull %_84.sroa.12.i.i), !dbg !2806
  %_86.1.i.i = icmp ne i8 %inner.sroa.14.1.lcssa.i.i, 0, !dbg !2807
  call void @llvm.dbg.value(metadata i8 0, metadata !2808, metadata !DIExpression()), !dbg !2813
  call void @llvm.dbg.value(metadata ptr %f, metadata !2830, metadata !DIExpression(DW_OP_LLVM_fragment, 0, 64)), !dbg !2838
  %79 = zext i1 %_86.1.i.i to i8, !dbg !2839
  call void @llvm.dbg.value(metadata i8 %79, metadata !2830, metadata !DIExpression(DW_OP_LLVM_fragment, 64, 8)), !dbg !2838
  call void @llvm.dbg.value(metadata ptr %_85.i.i, metadata !2829, metadata !DIExpression()), !dbg !2838
  call void @llvm.dbg.value(metadata i64 0, metadata !2831, metadata !DIExpression(DW_OP_LLVM_fragment, 0, 64)), !dbg !2838
  call void @llvm.dbg.value(metadata i32 500000000, metadata !2831, metadata !DIExpression(DW_OP_LLVM_fragment, 64, 32)), !dbg !2838
  call void @llvm.dbg.value(metadata ptr %f, metadata !2835, metadata !DIExpression()), !dbg !2840
; invoke std::sys::sync::condvar::futex::Condvar::wait_timeout
  %success.i.i.i = invoke noundef zeroext i1 @_ZN3std3sys4sync7condvar5futex7Condvar12wait_timeout17h08425eff40489820E(ptr noundef nonnull align 4 %_85.i.i, ptr noundef nonnull align 4 %f, i64 noundef 0, i32 noundef 500000000)
          to label %bb7.i.i.i unwind label %cleanup.i194.i.i, !dbg !2841, !noalias !2842

cleanup.i194.i.i:                                 ; preds = %bb40.i.i
  %80 = landingpad { ptr, i32 }
          cleanup
; invoke core::ptr::drop_in_place<std::sync::mutex::MutexGuard<blocking::Inner>>
  invoke fastcc void @"_ZN4core3ptr72drop_in_place$LT$std..sync..mutex..MutexGuard$LT$blocking..Inner$GT$$GT$17h771f39b971f5c574E"(ptr nonnull %f, i8 %79) #23
          to label %bb79.i.i unwind label %terminate.i195.i.i, !dbg !2845, !noalias !2842

bb7.i.i.i:                                        ; preds = %bb40.i.i
  call void @llvm.dbg.value(metadata i1 %success.i.i.i, metadata !2836, metadata !DIExpression(DW_OP_LLVM_convert, 1, DW_ATE_unsigned, DW_OP_LLVM_convert, 8, DW_ATE_unsigned, DW_OP_stack_value)), !dbg !2846
  call void @llvm.dbg.value(metadata ptr %f, metadata !2818, metadata !DIExpression(DW_OP_plus_uconst, 4, DW_OP_stack_value)), !dbg !2847
  call void @llvm.dbg.value(metadata ptr %f, metadata !2812, metadata !DIExpression(DW_OP_plus_uconst, 4, DW_OP_stack_value)), !dbg !2813
  call void @llvm.dbg.value(metadata i8 0, metadata !1905, metadata !DIExpression()), !dbg !2848
  call void @llvm.dbg.value(metadata ptr %_3.i.i.i.i, metadata !1910, metadata !DIExpression()), !dbg !2848
  %81 = load atomic i8, ptr %_3.i.i.i.i monotonic, align 4, !dbg !2850, !noalias !2842
  call void @llvm.dbg.value(metadata i8 %81, metadata !2832, metadata !DIExpression(DW_OP_constu, 0, DW_OP_ne, DW_OP_LLVM_convert, 1, DW_ATE_unsigned, DW_OP_LLVM_convert, 8, DW_ATE_unsigned, DW_OP_stack_value)), !dbg !2851
  call void @llvm.dbg.value(metadata i1 %success.i.i.i, metadata !2834, metadata !DIExpression(DW_OP_constu, 18446744073709551615, DW_OP_xor, DW_OP_LLVM_convert, 1, DW_ATE_unsigned, DW_OP_LLVM_convert, 8, DW_ATE_unsigned, DW_OP_stack_value)), !dbg !2851
  %82 = icmp eq i8 %81, 0, !dbg !2852
  br i1 %82, label %bb42.i.i, label %bb2.i141.i.i, !dbg !2852

terminate.i195.i.i:                               ; preds = %cleanup.i194.i.i
  %83 = landingpad { ptr, i32 }
          filter [0 x ptr] zeroinitializer
; call core::panicking::panic_in_cleanup
  call void @_ZN4core9panicking16panic_in_cleanup17h43442956f23e9cbeE() #25, !dbg !2853, !noalias !2842
  unreachable, !dbg !2853

bb33.i.i:                                         ; preds = %bb1.i191.i.i
  call void @llvm.dbg.value(metadata i8 %78, metadata !1473, metadata !DIExpression()), !dbg !2854
  %84 = icmp eq i8 %78, 0, !dbg !2855
  br i1 %84, label %bb40.i.i, label %bb35.i.i, !dbg !2855

bb35.i.i:                                         ; preds = %bb33.i.i, %bb6.i187.i.i, %bb30.i.i
  %_0.sroa.0.0.i189337.i.i = phi i8 [ %78, %bb33.i.i ], [ 2, %bb6.i187.i.i ], [ %77, %bb30.i.i ]
  %_49.i.i = load ptr, ptr @_ZN8blocking8Executor9main_loop10__CALLSITE17haa22fe4c5f1ce7cdE, align 8, !dbg !2856, !nonnull !29, !align !1938, !noundef !29
; invoke tracing::__macro_support::__is_enabled
  %85 = invoke noundef zeroext i1 @_ZN7tracing15__macro_support12__is_enabled17h74586a1e8af97b13E(ptr noalias noundef nonnull readonly align 8 dereferenceable(120) %_49.i.i, i8 noundef %_0.sroa.0.0.i189337.i.i)
          to label %bb36.i.i unwind label %bb84.loopexit.i.i, !dbg !2855

bb36.i.i:                                         ; preds = %bb35.i.i
  call void @llvm.dbg.value(metadata i1 %85, metadata !1470, metadata !DIExpression(DW_OP_LLVM_convert, 1, DW_ATE_unsigned, DW_OP_LLVM_convert, 8, DW_ATE_unsigned, DW_OP_stack_value)), !dbg !2857
  br i1 %85, label %bb37.i.i, label %bb40.i.i, !dbg !2858

bb37.i.i:                                         ; preds = %bb36.i.i
  %self59.i.i = load ptr, ptr @_ZN8blocking8Executor9main_loop10__CALLSITE17haa22fe4c5f1ce7cdE, align 8, !dbg !2859, !nonnull !29, !align !1938, !noundef !29
  call void @llvm.dbg.value(metadata ptr %self59.i.i, metadata !2860, metadata !DIExpression(DW_OP_plus_uconst, 48, DW_OP_stack_value)), !dbg !2877
  call void @llvm.dbg.value(metadata ptr %self59.i.i, metadata !2879, metadata !DIExpression(DW_OP_plus_uconst, 48, DW_OP_stack_value)), !dbg !2890
  call void @llvm.dbg.value(metadata ptr %self59.i.i, metadata !2892, metadata !DIExpression(DW_OP_plus_uconst, 48, DW_OP_stack_value)), !dbg !2903
  %86 = getelementptr inbounds i8, ptr %self59.i.i, i64 48, !dbg !2905
  %_183.0.i.i = load ptr, ptr %86, align 8, !dbg !2905, !nonnull !29, !align !1938, !noundef !29
  %87 = getelementptr inbounds i8, ptr %self59.i.i, i64 56, !dbg !2905
  %_183.1.i.i = load i64, ptr %87, align 8, !dbg !2905, !noundef !29
  call void @llvm.dbg.value(metadata i64 0, metadata !2867, metadata !DIExpression(DW_OP_LLVM_fragment, 0, 64)), !dbg !2906
  call void @llvm.dbg.value(metadata i64 %_183.1.i.i, metadata !2867, metadata !DIExpression(DW_OP_LLVM_fragment, 64, 64)), !dbg !2906
  %88 = getelementptr inbounds i8, ptr %self59.i.i, i64 64, !dbg !2907
  %_184.0.i.i = load ptr, ptr %88, align 8, !dbg !2907, !nonnull !29, !align !2908, !noundef !29
  %89 = getelementptr inbounds i8, ptr %self59.i.i, i64 72, !dbg !2907
  %_184.1.i.i = load ptr, ptr %89, align 8, !dbg !2907, !nonnull !29, !align !1938, !noundef !29
  call void @llvm.dbg.value(metadata i64 0, metadata !1476, metadata !DIExpression(DW_OP_LLVM_fragment, 256, 64)), !dbg !2909
  call void @llvm.dbg.value(metadata i64 %_183.1.i.i, metadata !1476, metadata !DIExpression(DW_OP_LLVM_fragment, 320, 64)), !dbg !2909
  call void @llvm.dbg.value(metadata ptr %_183.0.i.i, metadata !1476, metadata !DIExpression(DW_OP_LLVM_fragment, 0, 64)), !dbg !2909
  call void @llvm.dbg.value(metadata i64 %_183.1.i.i, metadata !1476, metadata !DIExpression(DW_OP_LLVM_fragment, 64, 64)), !dbg !2909
  call void @llvm.dbg.value(metadata ptr %_184.0.i.i, metadata !1476, metadata !DIExpression(DW_OP_LLVM_fragment, 128, 64)), !dbg !2909
  call void @llvm.dbg.value(metadata ptr %_184.1.i.i, metadata !1476, metadata !DIExpression(DW_OP_LLVM_fragment, 192, 64)), !dbg !2909
  call void @llvm.lifetime.start.p0(i64 48, ptr nonnull %_59.i.i), !dbg !2910
  call void @llvm.lifetime.start.p0(i64 40, ptr nonnull %val.i.i), !dbg !2910
  call void @llvm.dbg.value(metadata ptr undef, metadata !2911, metadata !DIExpression()), !dbg !2940
  call void @llvm.dbg.value(metadata ptr undef, metadata !2942, metadata !DIExpression(DW_OP_plus_uconst, 32, DW_OP_stack_value)), !dbg !2955
  call void @llvm.dbg.value(metadata ptr undef, metadata !2957, metadata !DIExpression(DW_OP_plus_uconst, 32, DW_OP_stack_value)), !dbg !2964
  call void @llvm.dbg.value(metadata ptr undef, metadata !2966, metadata !DIExpression(DW_OP_plus_uconst, 32, DW_OP_stack_value)), !dbg !2977
  call void @llvm.dbg.value(metadata ptr undef, metadata !2976, metadata !DIExpression(DW_OP_plus_uconst, 8, DW_OP_stack_value)), !dbg !2977
  %_11.i.not.i.i = icmp eq i64 %_183.1.i.i, 0, !dbg !2979
  br i1 %_11.i.not.i.i, label %bb98.i.i.invoke, label %bb97.i.i, !dbg !2980

bb97.i.i:                                         ; preds = %bb37.i.i
  call void @llvm.dbg.value(metadata i64 0, metadata !1719, metadata !DIExpression(DW_OP_LLVM_fragment, 256, 64)), !dbg !1737
  call void @llvm.dbg.value(metadata ptr %_184.1.i.i, metadata !1719, metadata !DIExpression(DW_OP_LLVM_fragment, 192, 64)), !dbg !1737
  call void @llvm.dbg.value(metadata ptr %_184.0.i.i, metadata !1719, metadata !DIExpression(DW_OP_LLVM_fragment, 128, 64)), !dbg !1737
  call void @llvm.dbg.value(metadata i64 1, metadata !1476, metadata !DIExpression(DW_OP_LLVM_fragment, 256, 64)), !dbg !2909
  call void @llvm.dbg.value(metadata i64 %_183.1.i.i, metadata !1719, metadata !DIExpression(DW_OP_LLVM_fragment, 64, 64)), !dbg !1737
  call void @llvm.dbg.value(metadata ptr %_183.0.i.i, metadata !1719, metadata !DIExpression(DW_OP_LLVM_fragment, 0, 64)), !dbg !1737
  store ptr %_183.0.i.i, ptr %val.i.i, align 8, !dbg !2981
  store i64 %_183.1.i.i, ptr %self25.sroa.5.0.val.sroa_idx.i.i, align 8, !dbg !2981
  store ptr %_184.0.i.i, ptr %self25.sroa.6.0.val.sroa_idx.i.i, align 8, !dbg !2981
  store ptr %_184.1.i.i, ptr %self25.sroa.7.0.val.sroa_idx.i.i, align 8, !dbg !2981
  store i64 0, ptr %self25.sroa.8.0.val.sroa_idx.i.i, align 8, !dbg !2981
  call void @llvm.lifetime.start.p0(i64 48, ptr nonnull %_69.i.i), !dbg !2910
  store ptr @alloc_08ced538e15a654005906b4590317d72, ptr %_69.i.i, align 8, !dbg !2982
  store i64 1, ptr %23, align 8, !dbg !2982
  store ptr null, ptr %24, align 8, !dbg !2982
  store ptr inttoptr (i64 8 to ptr), ptr %25, align 8, !dbg !2982
  store i64 0, ptr %26, align 8, !dbg !2982
  call void @llvm.lifetime.start.p0(i64 40, ptr nonnull %val26.i.i), !dbg !2910
  call void @llvm.dbg.value(metadata ptr undef, metadata !2911, metadata !DIExpression()), !dbg !2983
  call void @llvm.dbg.value(metadata ptr undef, metadata !2942, metadata !DIExpression(DW_OP_plus_uconst, 32, DW_OP_stack_value)), !dbg !2985
  call void @llvm.dbg.value(metadata ptr undef, metadata !2957, metadata !DIExpression(DW_OP_plus_uconst, 32, DW_OP_stack_value)), !dbg !2987
  call void @llvm.dbg.value(metadata ptr undef, metadata !2966, metadata !DIExpression(DW_OP_plus_uconst, 32, DW_OP_stack_value)), !dbg !2989
  call void @llvm.dbg.value(metadata ptr undef, metadata !2976, metadata !DIExpression(DW_OP_plus_uconst, 8, DW_OP_stack_value)), !dbg !2989
  %_11.i209.not.i.i = icmp eq i64 %_183.1.i.i, 1, !dbg !2991
  br i1 %_11.i209.not.i.i, label %bb98.i.i.invoke, label %bb99.i.i, !dbg !2992

bb98.i.i.invoke:                                  ; preds = %bb97.i.i, %bb37.i.i
; invoke core::option::expect_failed
  invoke void @_ZN4core6option13expect_failed17h28cbd671da1a9710E(ptr noalias noundef nonnull readonly align 1 @alloc_f60ee9d3a28ecf6e14a79771b3c5296b, i64 noundef 34, ptr noalias noundef nonnull readonly align 8 dereferenceable(24) @alloc_ac26b2691926835de3450b8fb2db2dcf) #24
          to label %bb98.i.i.cont unwind label %bb84.loopexit.split-lp.i.i, !dbg !2993

bb98.i.i.cont:                                    ; preds = %bb98.i.i.invoke
  unreachable

bb99.i.i:                                         ; preds = %bb97.i.i
  call void @llvm.dbg.value(metadata i64 1, metadata !1476, metadata !DIExpression(DW_OP_plus_uconst, 1, DW_OP_stack_value, DW_OP_LLVM_fragment, 256, 64)), !dbg !2909
  call void @llvm.dbg.value(metadata i64 1, metadata !1722, metadata !DIExpression(DW_OP_LLVM_fragment, 256, 64)), !dbg !1757
  call void @llvm.dbg.value(metadata ptr %_184.1.i.i, metadata !1722, metadata !DIExpression(DW_OP_LLVM_fragment, 192, 64)), !dbg !1757
  call void @llvm.dbg.value(metadata ptr %_184.0.i.i, metadata !1722, metadata !DIExpression(DW_OP_LLVM_fragment, 128, 64)), !dbg !1757
  call void @llvm.dbg.value(metadata i64 %_183.1.i.i, metadata !1722, metadata !DIExpression(DW_OP_LLVM_fragment, 64, 64)), !dbg !1757
  call void @llvm.dbg.value(metadata ptr %_183.0.i.i, metadata !1722, metadata !DIExpression(DW_OP_LLVM_fragment, 0, 64)), !dbg !1757
  store ptr %_183.0.i.i, ptr %val26.i.i, align 8, !dbg !2994
  store i64 %_183.1.i.i, ptr %self27.sroa.5.0.val26.sroa_idx.i.i, align 8, !dbg !2994
  store ptr %_184.0.i.i, ptr %self27.sroa.6.0.val26.sroa_idx.i.i, align 8, !dbg !2994
  store ptr %_184.1.i.i, ptr %self27.sroa.7.0.val26.sroa_idx.i.i, align 8, !dbg !2994
  store i64 1, ptr %self27.sroa.8.0.val26.sroa_idx.i.i, align 8, !dbg !2994
  call void @llvm.lifetime.start.p0(i64 8, ptr nonnull %_79.i.i), !dbg !2910
  call void @llvm.dbg.value(metadata ptr %_40.i.i, metadata !2995, metadata !DIExpression()), !dbg !3001
  store ptr %_40.i.i, ptr %_79.i.i, align 8, !dbg !3003
  store ptr %val.i.i, ptr %_59.i.i, align 8, !dbg !2910
  store ptr %_69.i.i, ptr %_60.sroa.4.0..sroa_idx.i.i, align 8, !dbg !2910
  store ptr @vtable.9, ptr %_60.sroa.5.0..sroa_idx.i.i, align 8, !dbg !2910
  store ptr %val26.i.i, ptr %27, align 8, !dbg !2910
  store ptr %_79.i.i, ptr %_70.sroa.4.0..sroa_idx.i.i, align 8, !dbg !2910
  store ptr @vtable.a, ptr %_70.sroa.5.0..sroa_idx.i.i, align 8, !dbg !2910
  call void @llvm.lifetime.start.p0(i64 24, ptr nonnull %value_set.i.i), !dbg !2858
  store ptr %_59.i.i, ptr %value_set.i.i, align 8, !dbg !2858
  store i64 2, ptr %_51.sroa.2.0.value_set.sroa_idx.i.i, align 8, !dbg !2858
  store ptr %86, ptr %_51.sroa.3.0.value_set.sroa_idx.i.i, align 8, !dbg !2858
  call void @llvm.dbg.value(metadata ptr %self59.i.i, metadata !3004, metadata !DIExpression()), !dbg !3016
; invoke tracing_core::event::Event::dispatch
  invoke void @_ZN12tracing_core5event5Event8dispatch17h4b67a6f17dc31741E(ptr noalias noundef nonnull readonly align 8 dereferenceable(120) %self59.i.i, ptr noalias noundef nonnull readonly align 8 dereferenceable(24) %value_set.i.i)
          to label %bb100.i.i unwind label %bb84.loopexit.i.i, !dbg !3018

bb100.i.i:                                        ; preds = %bb99.i.i
  call void @llvm.lifetime.end.p0(i64 24, ptr nonnull %value_set.i.i), !dbg !2858
  call void @llvm.lifetime.end.p0(i64 8, ptr nonnull %_79.i.i), !dbg !2858
  call void @llvm.lifetime.end.p0(i64 40, ptr nonnull %val26.i.i), !dbg !2858
  call void @llvm.lifetime.end.p0(i64 48, ptr nonnull %_69.i.i), !dbg !2858
  call void @llvm.lifetime.end.p0(i64 40, ptr nonnull %val.i.i), !dbg !2858
  call void @llvm.lifetime.end.p0(i64 48, ptr nonnull %_59.i.i), !dbg !2858
  br label %bb40.i.i, !dbg !2858

bb2.i141.i.i:                                     ; preds = %bb7.i.i.i
  %_13.i.i.i = xor i1 %success.i.i.i, true, !dbg !3019
  call void @llvm.dbg.value(metadata i1 %_13.i.i.i, metadata !2834, metadata !DIExpression(DW_OP_LLVM_convert, 1, DW_ATE_unsigned, DW_OP_LLVM_convert, 8, DW_ATE_unsigned, DW_OP_stack_value)), !dbg !2851
  %.sink14.i.i.i = zext i1 %_13.i.i.i to i8, !dbg !3020
  call void @llvm.dbg.value(metadata ptr %f, metadata !1513, metadata !DIExpression(DW_OP_LLVM_fragment, 64, 64)), !dbg !3021
  call void @llvm.dbg.value(metadata i8 %79, metadata !1513, metadata !DIExpression(DW_OP_LLVM_fragment, 128, 8)), !dbg !3021
  call void @llvm.dbg.value(metadata i8 %.sink14.i.i.i, metadata !1513, metadata !DIExpression(DW_OP_LLVM_fragment, 192, 8)), !dbg !3021
  call void @llvm.dbg.value(metadata i64 1, metadata !1513, metadata !DIExpression(DW_OP_LLVM_fragment, 0, 64)), !dbg !3021
  call void @llvm.dbg.declare(metadata ptr %e.i137.i.i, metadata !1545, metadata !DIExpression()), !dbg !3022
  call void @llvm.lifetime.start.p0(i64 24, ptr nonnull %e.i137.i.i), !dbg !3023, !noalias !3024
  store ptr %f, ptr %e.i137.i.i, align 8, !dbg !3023, !noalias !3028
  %_84.sroa.7.8.e.i137.sroa_idx.i.i = getelementptr inbounds i8, ptr %e.i137.i.i, i64 8, !dbg !3023
  store i8 %79, ptr %_84.sroa.7.8.e.i137.sroa_idx.i.i, align 8, !dbg !3023, !noalias !3028
  %_84.sroa.9.8.e.i137.sroa_idx.i.i = getelementptr inbounds i8, ptr %e.i137.i.i, i64 9, !dbg !3023
  call void @llvm.memcpy.p0.p0.i64(ptr noundef nonnull align 1 dereferenceable(7) %_84.sroa.9.8.e.i137.sroa_idx.i.i, ptr noundef nonnull align 1 dereferenceable(7) %_84.sroa.9.i.i, i64 7, i1 false), !dbg !3023, !noalias !3028
  %_84.sroa.10.8.e.i137.sroa_idx.i.i = getelementptr inbounds i8, ptr %e.i137.i.i, i64 16, !dbg !3023
  store i8 %.sink14.i.i.i, ptr %_84.sroa.10.8.e.i137.sroa_idx.i.i, align 8, !dbg !3023, !noalias !3028
  %_84.sroa.12.8.e.i137.sroa_idx.i.i = getelementptr inbounds i8, ptr %e.i137.i.i, i64 17, !dbg !3023
  call void @llvm.memcpy.p0.p0.i64(ptr noundef nonnull align 1 dereferenceable(7) %_84.sroa.12.8.e.i137.sroa_idx.i.i, ptr noundef nonnull align 1 dereferenceable(7) %_84.sroa.12.i.i, i64 7, i1 false), !dbg !3023, !noalias !3028
; invoke core::result::unwrap_failed
  invoke void @_ZN4core6result13unwrap_failed17hebd1efddce947a93E(ptr noalias noundef nonnull readonly align 1 @alloc_00ae4b301f7fab8ac9617c03fcbd7274, i64 noundef 43, ptr noundef nonnull align 1 %e.i137.i.i, ptr noalias noundef nonnull readonly align 8 dereferenceable(32) @vtable.5, ptr noalias noundef nonnull readonly align 8 dereferenceable(24) @alloc_7c8980be080b7db56d4cb0c573929e0a) #24
          to label %unreachable.i145.i.i unwind label %cleanup.i142.i.i, !dbg !3029, !noalias !3024

cleanup.i142.i.i:                                 ; preds = %bb2.i141.i.i
  %90 = landingpad { ptr, i32 }
          cleanup
; invoke core::ptr::drop_in_place<std::sync::poison::PoisonError<(std::sync::mutex::MutexGuard<blocking::Inner>,std::sync::condvar::WaitTimeoutResult)>>
  invoke void @"_ZN4core3ptr158drop_in_place$LT$std..sync..poison..PoisonError$LT$$LP$std..sync..mutex..MutexGuard$LT$blocking..Inner$GT$$C$std..sync..condvar..WaitTimeoutResult$RP$$GT$$GT$17he714b5c6a2ee4427E"(ptr noalias noundef nonnull align 8 dereferenceable(24) %e.i137.i.i) #23
          to label %bb79.i.i unwind label %terminate.i143.i.i, !dbg !3030, !noalias !3024

unreachable.i145.i.i:                             ; preds = %bb2.i141.i.i
  unreachable

terminate.i143.i.i:                               ; preds = %cleanup.i142.i.i
  %91 = landingpad { ptr, i32 }
          filter [0 x ptr] zeroinitializer
; call core::panicking::panic_in_cleanup
  call void @_ZN4core9panicking16panic_in_cleanup17h43442956f23e9cbeE() #25, !dbg !3031, !noalias !3024
  unreachable, !dbg !3031

bb42.i.i:                                         ; preds = %bb7.i.i.i
  call void @llvm.dbg.value(metadata i1 %success.i.i.i, metadata !2834, metadata !DIExpression(DW_OP_constu, 18446744073709551615, DW_OP_xor, DW_OP_LLVM_convert, 1, DW_ATE_unsigned, DW_OP_LLVM_convert, 8, DW_ATE_unsigned, DW_OP_stack_value)), !dbg !2851
  call void @llvm.dbg.value(metadata ptr %f, metadata !1513, metadata !DIExpression(DW_OP_LLVM_fragment, 64, 64)), !dbg !3021
  call void @llvm.dbg.value(metadata i8 %79, metadata !1513, metadata !DIExpression(DW_OP_LLVM_fragment, 128, 8)), !dbg !3021
  call void @llvm.dbg.value(metadata i1 %success.i.i.i, metadata !1513, metadata !DIExpression(DW_OP_constu, 18446744073709551615, DW_OP_xor, DW_OP_LLVM_convert, 1, DW_ATE_unsigned, DW_OP_LLVM_convert, 8, DW_ATE_unsigned, DW_OP_stack_value, DW_OP_LLVM_fragment, 192, 8)), !dbg !3021
  call void @llvm.dbg.value(metadata i64 0, metadata !1513, metadata !DIExpression(DW_OP_LLVM_fragment, 0, 64)), !dbg !3021
  call void @llvm.dbg.declare(metadata ptr %e.i137.i.i, metadata !1545, metadata !DIExpression()), !dbg !3022
  call void @llvm.lifetime.end.p0(i64 7, ptr nonnull %_84.sroa.9.i.i), !dbg !3032
  call void @llvm.lifetime.end.p0(i64 7, ptr nonnull %_84.sroa.12.i.i), !dbg !3032
  call void @llvm.dbg.value(metadata ptr %f, metadata !1491, metadata !DIExpression(DW_OP_LLVM_fragment, 0, 64)), !dbg !3033
  call void @llvm.dbg.value(metadata i8 %79, metadata !1491, metadata !DIExpression(DW_OP_constu, 0, DW_OP_ne, DW_OP_LLVM_convert, 1, DW_ATE_unsigned, DW_OP_LLVM_convert, 8, DW_ATE_unsigned, DW_OP_stack_value, DW_OP_LLVM_fragment, 64, 8)), !dbg !3033
  call void @llvm.dbg.value(metadata i1 %success.i.i.i, metadata !1493, metadata !DIExpression(DW_OP_LLVM_convert, 1, DW_ATE_unsigned, DW_OP_LLVM_convert, 8, DW_ATE_unsigned, DW_OP_stack_value)), !dbg !3033
  call void @llvm.dbg.value(metadata ptr %f, metadata !1464, metadata !DIExpression(DW_OP_LLVM_fragment, 0, 64)), !dbg !2194
  call void @llvm.dbg.value(metadata i8 %79, metadata !1464, metadata !DIExpression(DW_OP_LLVM_fragment, 64, 8)), !dbg !2194
  br i1 %success.i.i.i, label %bb51.i.i, label %bb43.i.i, !dbg !3034

bb43.i.i:                                         ; preds = %bb42.i.i
  call void @llvm.dbg.value(metadata ptr %f, metadata !3035, metadata !DIExpression(DW_OP_plus_uconst, 8, DW_OP_stack_value)), !dbg !3039
  %_200.i.i = load i64, ptr %19, align 8, !dbg !3041, !noundef !29
  %92 = icmp eq i64 %_200.i.i, 0, !dbg !3042
  br i1 %92, label %bb65.i.i, label %bb51.i.i, !dbg !3042

bb65.i.i:                                         ; preds = %bb43.i.i
  call void @llvm.dbg.value(metadata ptr %f, metadata !3035, metadata !DIExpression(DW_OP_plus_uconst, 8, DW_OP_stack_value)), !dbg !3039
  %93 = load <2 x i64>, ptr %18, align 8, !dbg !3043
  %94 = add <2 x i64> %93, <i64 -1, i64 -1>, !dbg !3043
  store <2 x i64> %94, ptr %18, align 8, !dbg !3043
  call void @llvm.dbg.value(metadata !29, metadata !1778, metadata !DIExpression()), !dbg !3044
  call void @llvm.dbg.value(metadata !29, metadata !1803, metadata !DIExpression()), !dbg !3044
  call void @llvm.dbg.value(metadata ptr @_ZN12tracing_core8metadata9MAX_LEVEL17h2def28f3c9fb9790E, metadata !1806, metadata !DIExpression()), !dbg !3046
  call void @llvm.dbg.value(metadata i8 0, metadata !1815, metadata !DIExpression()), !dbg !3046
  call void @llvm.dbg.value(metadata i8 0, metadata !1823, metadata !DIExpression()), !dbg !3049
  call void @llvm.dbg.value(metadata ptr @_ZN12tracing_core8metadata9MAX_LEVEL17h2def28f3c9fb9790E, metadata !1829, metadata !DIExpression()), !dbg !3049
  %95 = load atomic i64, ptr @_ZN12tracing_core8metadata9MAX_LEVEL17h2def28f3c9fb9790E monotonic, align 8, !dbg !3051
  call void @llvm.dbg.value(metadata !29, metadata !1778, metadata !DIExpression()), !dbg !3052
  call void @llvm.dbg.value(metadata ptr undef, metadata !1803, metadata !DIExpression()), !dbg !3052
  %_0.i116.i.i = icmp eq i64 %95, 0, !dbg !3054
  br i1 %_0.i116.i.i, label %bb66.i.i, label %bb75.i.i, !dbg !3055

bb66.i.i:                                         ; preds = %bb65.i.i
  call void @llvm.dbg.value(metadata i8 0, metadata !1886, metadata !DIExpression()), !dbg !3056
  call void @llvm.dbg.value(metadata ptr @_ZN8blocking8Executor9main_loop10__CALLSITE17hea6d37cf596028beE, metadata !1902, metadata !DIExpression()), !dbg !3059
  call void @llvm.dbg.value(metadata ptr @_ZN8blocking8Executor9main_loop10__CALLSITE17hea6d37cf596028beE, metadata !1894, metadata !DIExpression(DW_OP_plus_uconst, 16, DW_OP_stack_value)), !dbg !3056
  call void @llvm.dbg.value(metadata i8 0, metadata !1905, metadata !DIExpression()), !dbg !3060
  call void @llvm.dbg.value(metadata ptr getelementptr inbounds (<{ ptr, [10 x i8], [6 x i8] }>, ptr @_ZN8blocking8Executor9main_loop10__CALLSITE17hea6d37cf596028beE, i64 0, i32 1, i64 8), metadata !1910, metadata !DIExpression()), !dbg !3060
  %96 = load atomic i8, ptr getelementptr inbounds (<{ ptr, [10 x i8], [6 x i8] }>, ptr @_ZN8blocking8Executor9main_loop10__CALLSITE17hea6d37cf596028beE, i64 0, i32 1, i64 8) monotonic, align 8, !dbg !3062
  switch i8 %96, label %bb1.i230.i.i [
    i8 0, label %bb75.i.i
    i8 1, label %bb71.i.i
    i8 2, label %bb6.i226.i.i
  ], !dbg !3063

bb1.i230.i.i:                                     ; preds = %bb66.i.i
; invoke tracing_core::callsite::DefaultCallsite::register
  %97 = invoke noundef i8 @_ZN12tracing_core8callsite15DefaultCallsite8register17h1f01c6d2d83987b0E(ptr noundef nonnull align 8 @_ZN8blocking8Executor9main_loop10__CALLSITE17hea6d37cf596028beE)
          to label %bb69.i.i unwind label %bb84.loopexit.split-lp.i.i, !dbg !3064

bb6.i226.i.i:                                     ; preds = %bb66.i.i
  br label %bb71.i.i, !dbg !3065

bb75.i.i:                                         ; preds = %bb106.i.i, %bb72.i.i, %bb69.i.i, %bb66.i.i, %bb65.i.i
  call void @llvm.dbg.value(metadata ptr undef, metadata !3066, metadata !DIExpression()), !dbg !3072
  call void @llvm.dbg.value(metadata i32 0, metadata !3074, metadata !DIExpression()), !dbg !3083
  call void @llvm.dbg.value(metadata i8 1, metadata !3082, metadata !DIExpression()), !dbg !3083
  call void @llvm.dbg.value(metadata i32 0, metadata !3099, metadata !DIExpression()), !dbg !3107
  call void @llvm.dbg.value(metadata i8 1, metadata !3106, metadata !DIExpression()), !dbg !3107
  call void @llvm.dbg.value(metadata ptr undef, metadata !3097, metadata !DIExpression()), !dbg !3109
  call void @llvm.dbg.value(metadata ptr @_ZN3std9panicking11panic_count18GLOBAL_PANIC_COUNT17h00e7dcd913cdfbe0E, metadata !3110, metadata !DIExpression()), !dbg !3115
  call void @llvm.dbg.value(metadata i8 0, metadata !3114, metadata !DIExpression()), !dbg !3115
  call void @llvm.dbg.value(metadata i8 1, metadata !3135, metadata !DIExpression()), !dbg !3144
  call void @llvm.dbg.value(metadata i8 0, metadata !3143, metadata !DIExpression()), !dbg !3144
  call void @llvm.dbg.value(metadata ptr %_3.i.i.i.i, metadata !3132, metadata !DIExpression()), !dbg !3146
  call void @llvm.dbg.value(metadata ptr undef, metadata !3133, metadata !DIExpression()), !dbg !3146
  br i1 %_86.1.i.i, label %_ZN3std4sync6poison4Flag4done17h6b62417d8d60c5ceE.exit.i.i.i.i, label %bb1.i.i.i234.i.i, !dbg !3147

bb1.i.i.i234.i.i:                                 ; preds = %bb75.i.i
  call void @llvm.dbg.value(metadata i8 0, metadata !1823, metadata !DIExpression()), !dbg !3148
  call void @llvm.dbg.value(metadata ptr @_ZN3std9panicking11panic_count18GLOBAL_PANIC_COUNT17h00e7dcd913cdfbe0E, metadata !1829, metadata !DIExpression()), !dbg !3148
  %98 = load atomic i64, ptr @_ZN3std9panicking11panic_count18GLOBAL_PANIC_COUNT17h00e7dcd913cdfbe0E monotonic, align 8, !dbg !3150, !noalias !3151
  %_7.i.i.i.i.i = and i64 %98, 9223372036854775807, !dbg !3154
  %99 = icmp eq i64 %_7.i.i.i.i.i, 0, !dbg !3154
  br i1 %99, label %_ZN3std4sync6poison4Flag4done17h6b62417d8d60c5ceE.exit.i.i.i.i, label %bb6.i.i.i235.i.i, !dbg !3154

bb6.i.i.i235.i.i:                                 ; preds = %bb1.i.i.i234.i.i
; invoke std::panicking::panic_count::is_zero_slow_path
  %_6.i.i.i236237.i.i = invoke noundef zeroext i1 @_ZN3std9panicking11panic_count17is_zero_slow_path17h24de30857bbd803cE()
          to label %_6.i.i.i236.noexc.i.i unwind label %cleanup45.i.i, !dbg !3155

_6.i.i.i236.noexc.i.i:                            ; preds = %bb6.i.i.i235.i.i
  br i1 %_6.i.i.i236237.i.i, label %_ZN3std4sync6poison4Flag4done17h6b62417d8d60c5ceE.exit.i.i.i.i, label %bb2.i.i.i.i.i, !dbg !3156

bb2.i.i.i.i.i:                                    ; preds = %_6.i.i.i236.noexc.i.i
  call void @llvm.dbg.value(metadata ptr %_3.i.i.i.i, metadata !3142, metadata !DIExpression()), !dbg !3144
  call void @llvm.dbg.value(metadata i8 0, metadata !3157, metadata !DIExpression()), !dbg !3164
  call void @llvm.dbg.value(metadata ptr %_3.i.i.i.i, metadata !3162, metadata !DIExpression()), !dbg !3164
  call void @llvm.dbg.value(metadata i8 1, metadata !3163, metadata !DIExpression()), !dbg !3164
  store atomic i8 1, ptr %_3.i.i.i.i monotonic, align 4, !dbg !3166, !noalias !3151
  br label %_ZN3std4sync6poison4Flag4done17h6b62417d8d60c5ceE.exit.i.i.i.i, !dbg !3167

_ZN3std4sync6poison4Flag4done17h6b62417d8d60c5ceE.exit.i.i.i.i: ; preds = %bb2.i.i.i.i.i, %_6.i.i.i236.noexc.i.i, %bb1.i.i.i234.i.i, %bb75.i.i
  call void @llvm.dbg.value(metadata ptr %f, metadata !3089, metadata !DIExpression()), !dbg !3168
  call void @llvm.dbg.value(metadata ptr %f, metadata !3081, metadata !DIExpression()), !dbg !3083
  call void @llvm.dbg.value(metadata ptr %f, metadata !3105, metadata !DIExpression()), !dbg !3107
  %100 = atomicrmw xchg ptr %f, i32 0 release, align 4, !dbg !3169, !noalias !3151
  %_8.i.i.i.i = icmp eq i32 %100, 2, !dbg !3170
  br i1 %_8.i.i.i.i, label %bb2.i.i.i.i, label %bb76.i.i, !dbg !3170

bb2.i.i.i.i:                                      ; preds = %_ZN3std4sync6poison4Flag4done17h6b62417d8d60c5ceE.exit.i.i.i.i
; invoke std::sys::sync::mutex::futex::Mutex::wake
  invoke void @_ZN3std3sys4sync5mutex5futex5Mutex4wake17hc487312157454c34E(ptr noundef nonnull align 4 %f)
          to label %bb76.i.i unwind label %cleanup45.i.i, !dbg !3171

bb69.i.i:                                         ; preds = %bb1.i230.i.i
  call void @llvm.dbg.value(metadata i8 %97, metadata !1506, metadata !DIExpression()), !dbg !3172
  %101 = icmp eq i8 %97, 0, !dbg !3173
  br i1 %101, label %bb75.i.i, label %bb71.i.i, !dbg !3173

bb71.i.i:                                         ; preds = %bb69.i.i, %bb6.i226.i.i, %bb66.i.i
  %_0.sroa.0.0.i228357.i.i = phi i8 [ %97, %bb69.i.i ], [ 2, %bb6.i226.i.i ], [ %96, %bb66.i.i ]
  %_130.i.i = load ptr, ptr @_ZN8blocking8Executor9main_loop10__CALLSITE17hea6d37cf596028beE, align 8, !dbg !3174, !nonnull !29, !align !1938, !noundef !29
; invoke tracing::__macro_support::__is_enabled
  %102 = invoke noundef zeroext i1 @_ZN7tracing15__macro_support12__is_enabled17h74586a1e8af97b13E(ptr noalias noundef nonnull readonly align 8 dereferenceable(120) %_130.i.i, i8 noundef %_0.sroa.0.0.i228357.i.i)
          to label %bb72.i.i unwind label %bb84.loopexit.split-lp.i.i, !dbg !3173

bb72.i.i:                                         ; preds = %bb71.i.i
  call void @llvm.dbg.value(metadata i1 %102, metadata !1503, metadata !DIExpression(DW_OP_LLVM_convert, 1, DW_ATE_unsigned, DW_OP_LLVM_convert, 8, DW_ATE_unsigned, DW_OP_stack_value)), !dbg !3175
  br i1 %102, label %bb73.i.i, label %bb75.i.i, !dbg !3176

bb73.i.i:                                         ; preds = %bb72.i.i
  %self82.i.i = load ptr, ptr @_ZN8blocking8Executor9main_loop10__CALLSITE17hea6d37cf596028beE, align 8, !dbg !3177, !nonnull !29, !align !1938, !noundef !29
  call void @llvm.dbg.value(metadata ptr %self82.i.i, metadata !2873, metadata !DIExpression(DW_OP_plus_uconst, 48, DW_OP_stack_value)), !dbg !3178
  call void @llvm.dbg.value(metadata ptr %self82.i.i, metadata !2888, metadata !DIExpression(DW_OP_plus_uconst, 48, DW_OP_stack_value)), !dbg !3180
  call void @llvm.dbg.value(metadata ptr %self82.i.i, metadata !2901, metadata !DIExpression(DW_OP_plus_uconst, 48, DW_OP_stack_value)), !dbg !3182
  %103 = getelementptr inbounds i8, ptr %self82.i.i, i64 48, !dbg !3184
  %_230.0.i.i = load ptr, ptr %103, align 8, !dbg !3184, !nonnull !29, !align !1938, !noundef !29
  %104 = getelementptr inbounds i8, ptr %self82.i.i, i64 56, !dbg !3184
  %_230.1.i.i = load i64, ptr %104, align 8, !dbg !3184, !noundef !29
  call void @llvm.dbg.value(metadata i64 0, metadata !2875, metadata !DIExpression(DW_OP_LLVM_fragment, 0, 64)), !dbg !3185
  call void @llvm.dbg.value(metadata i64 %_230.1.i.i, metadata !2875, metadata !DIExpression(DW_OP_LLVM_fragment, 64, 64)), !dbg !3185
  %105 = getelementptr inbounds i8, ptr %self82.i.i, i64 64, !dbg !3186
  %106 = load <2 x ptr>, ptr %105, align 8, !dbg !3186
  call void @llvm.dbg.value(metadata i64 0, metadata !1509, metadata !DIExpression(DW_OP_LLVM_fragment, 256, 64)), !dbg !3187
  call void @llvm.dbg.value(metadata i64 %_230.1.i.i, metadata !1509, metadata !DIExpression(DW_OP_LLVM_fragment, 320, 64)), !dbg !3187
  call void @llvm.dbg.value(metadata ptr %_230.0.i.i, metadata !1509, metadata !DIExpression(DW_OP_LLVM_fragment, 0, 64)), !dbg !3187
  call void @llvm.dbg.value(metadata i64 %_230.1.i.i, metadata !1509, metadata !DIExpression(DW_OP_LLVM_fragment, 64, 64)), !dbg !3187
  call void @llvm.dbg.value(metadata ptr undef, metadata !1509, metadata !DIExpression(DW_OP_LLVM_fragment, 128, 64)), !dbg !3187
  call void @llvm.dbg.value(metadata ptr undef, metadata !1509, metadata !DIExpression(DW_OP_LLVM_fragment, 192, 64)), !dbg !3187
  call void @llvm.lifetime.start.p0(i64 24, ptr nonnull %_140.i.i), !dbg !3188
  call void @llvm.lifetime.start.p0(i64 40, ptr nonnull %val36.i.i), !dbg !3188
  call void @llvm.dbg.value(metadata ptr undef, metadata !2911, metadata !DIExpression()), !dbg !3189
  call void @llvm.dbg.value(metadata ptr undef, metadata !2942, metadata !DIExpression(DW_OP_plus_uconst, 32, DW_OP_stack_value)), !dbg !3191
  call void @llvm.dbg.value(metadata ptr undef, metadata !2957, metadata !DIExpression(DW_OP_plus_uconst, 32, DW_OP_stack_value)), !dbg !3193
  call void @llvm.dbg.value(metadata ptr undef, metadata !2966, metadata !DIExpression(DW_OP_plus_uconst, 32, DW_OP_stack_value)), !dbg !3195
  call void @llvm.dbg.value(metadata ptr undef, metadata !2976, metadata !DIExpression(DW_OP_plus_uconst, 8, DW_OP_stack_value)), !dbg !3195
  %_11.i241.not.i.i = icmp eq i64 %_230.1.i.i, 0, !dbg !3197
  br i1 %_11.i241.not.i.i, label %bb101.i.i.invoke, label %bb105.i.i, !dbg !3198

bb105.i.i:                                        ; preds = %bb73.i.i
  call void @llvm.dbg.value(metadata i64 0, metadata !1509, metadata !DIExpression(DW_OP_plus_uconst, 1, DW_OP_stack_value, DW_OP_LLVM_fragment, 256, 64)), !dbg !3187
  call void @llvm.dbg.value(metadata i64 0, metadata !1732, metadata !DIExpression(DW_OP_LLVM_fragment, 256, 64)), !dbg !1770
  call void @llvm.dbg.value(metadata ptr undef, metadata !1732, metadata !DIExpression(DW_OP_LLVM_fragment, 192, 64)), !dbg !1770
  call void @llvm.dbg.value(metadata ptr undef, metadata !1732, metadata !DIExpression(DW_OP_LLVM_fragment, 128, 64)), !dbg !1770
  call void @llvm.dbg.value(metadata i64 %_230.1.i.i, metadata !1732, metadata !DIExpression(DW_OP_LLVM_fragment, 64, 64)), !dbg !1770
  call void @llvm.dbg.value(metadata ptr %_230.0.i.i, metadata !1732, metadata !DIExpression(DW_OP_LLVM_fragment, 0, 64)), !dbg !1770
  store ptr %_230.0.i.i, ptr %val36.i.i, align 8, !dbg !3199
  %self37.sroa.5.0.val36.sroa_idx.i.i = getelementptr inbounds i8, ptr %val36.i.i, i64 8, !dbg !3199
  store i64 %_230.1.i.i, ptr %self37.sroa.5.0.val36.sroa_idx.i.i, align 8, !dbg !3199
  %self37.sroa.6.0.val36.sroa_idx.i.i = getelementptr inbounds i8, ptr %val36.i.i, i64 16, !dbg !3199
  store <2 x ptr> %106, ptr %self37.sroa.6.0.val36.sroa_idx.i.i, align 8, !dbg !3199
  %self37.sroa.8.0.val36.sroa_idx.i.i = getelementptr inbounds i8, ptr %val36.i.i, i64 32, !dbg !3199
  store i64 0, ptr %self37.sroa.8.0.val36.sroa_idx.i.i, align 8, !dbg !3199
  call void @llvm.lifetime.start.p0(i64 48, ptr nonnull %_150.i.i), !dbg !3188
  store ptr @alloc_1afe7b7ed143bd0a0a33c2d705f07348, ptr %_150.i.i, align 8, !dbg !3200
  %107 = getelementptr inbounds i8, ptr %_150.i.i, i64 8, !dbg !3200
  store i64 1, ptr %107, align 8, !dbg !3200
  %108 = getelementptr inbounds i8, ptr %_150.i.i, i64 32, !dbg !3200
  store ptr null, ptr %108, align 8, !dbg !3200
  %109 = getelementptr inbounds i8, ptr %_150.i.i, i64 16, !dbg !3200
  store ptr inttoptr (i64 8 to ptr), ptr %109, align 8, !dbg !3200
  %110 = getelementptr inbounds i8, ptr %_150.i.i, i64 24, !dbg !3200
  store i64 0, ptr %110, align 8, !dbg !3200
  store ptr %val36.i.i, ptr %_140.i.i, align 8, !dbg !3188
  %_141.sroa.4.0..sroa_idx.i.i = getelementptr inbounds i8, ptr %_140.i.i, i64 8, !dbg !3188
  store ptr %_150.i.i, ptr %_141.sroa.4.0..sroa_idx.i.i, align 8, !dbg !3188
  %_141.sroa.5.0..sroa_idx.i.i = getelementptr inbounds i8, ptr %_140.i.i, i64 16, !dbg !3188
  store ptr @vtable.9, ptr %_141.sroa.5.0..sroa_idx.i.i, align 8, !dbg !3188
  call void @llvm.lifetime.start.p0(i64 24, ptr nonnull %value_set39.i.i), !dbg !3176
  store ptr %_140.i.i, ptr %value_set39.i.i, align 8, !dbg !3176
  %_132.sroa.2.0.value_set39.sroa_idx.i.i = getelementptr inbounds i8, ptr %value_set39.i.i, i64 8, !dbg !3176
  store i64 1, ptr %_132.sroa.2.0.value_set39.sroa_idx.i.i, align 8, !dbg !3176
  %_132.sroa.3.0.value_set39.sroa_idx.i.i = getelementptr inbounds i8, ptr %value_set39.i.i, i64 16, !dbg !3176
  store ptr %103, ptr %_132.sroa.3.0.value_set39.sroa_idx.i.i, align 8, !dbg !3176
  call void @llvm.dbg.value(metadata ptr %self82.i.i, metadata !3201, metadata !DIExpression()), !dbg !3213
; invoke tracing_core::event::Event::dispatch
  invoke void @_ZN12tracing_core5event5Event8dispatch17h4b67a6f17dc31741E(ptr noalias noundef nonnull readonly align 8 dereferenceable(120) %self82.i.i, ptr noalias noundef nonnull readonly align 8 dereferenceable(24) %value_set39.i.i)
          to label %bb106.i.i unwind label %bb84.loopexit.split-lp.i.i, !dbg !3215

bb106.i.i:                                        ; preds = %bb105.i.i
  call void @llvm.lifetime.end.p0(i64 24, ptr nonnull %value_set39.i.i), !dbg !3176
  call void @llvm.lifetime.end.p0(i64 48, ptr nonnull %_150.i.i), !dbg !3176
  call void @llvm.lifetime.end.p0(i64 40, ptr nonnull %val36.i.i), !dbg !3176
  call void @llvm.lifetime.end.p0(i64 24, ptr nonnull %_140.i.i), !dbg !3176
  br label %bb75.i.i, !dbg !3176

bb76.i.i:                                         ; preds = %bb2.i.i.i.i, %_ZN3std4sync6poison4Flag4done17h6b62417d8d60c5ceE.exit.i.i.i.i
  call void @llvm.dbg.value(metadata ptr undef, metadata !2129, metadata !DIExpression()), !dbg !3216
  call void @llvm.dbg.value(metadata ptr undef, metadata !2140, metadata !DIExpression()), !dbg !3218
  call void @llvm.dbg.value(metadata ptr %span.i.i, metadata !2149, metadata !DIExpression()), !dbg !3220
  call void @llvm.dbg.value(metadata ptr %span.i.i, metadata !2158, metadata !DIExpression()), !dbg !3222
  %111 = load i64, ptr %span.i.i, align 8, !dbg !3224, !range !1944, !noundef !29
  %112 = icmp eq i64 %111, 2, !dbg !3224
  br i1 %112, label %"_ZN8blocking8Executor9grow_pool28_$u7b$$u7b$closure$u7d$$u7d$17hc3cfb1d7af47d2c9E.exit", label %bb5.i.i255.i.i, !dbg !3225

bb5.i.i255.i.i:                                   ; preds = %bb76.i.i
  call void @llvm.dbg.value(metadata ptr %span.i.i, metadata !2154, metadata !DIExpression()), !dbg !3226
  %_6.i.i256.i.i = getelementptr inbounds i8, ptr %span.i.i, i64 24, !dbg !3227
; invoke tracing_core::dispatcher::Dispatch::exit
  invoke void @_ZN12tracing_core10dispatcher8Dispatch4exit17h6130e31af24291afE(ptr noalias noundef nonnull readonly align 8 dereferenceable(24) %span.i.i, ptr noalias noundef nonnull readonly align 8 dereferenceable(8) %_6.i.i256.i.i)
          to label %bb77.i.i unwind label %cleanup.i.i, !dbg !3228

bb77.i.i:                                         ; preds = %bb5.i.i255.i.i
  %.pr.i.i = load i64, ptr %span.i.i, align 8, !dbg !3229, !alias.scope !3252
  call void @llvm.dbg.value(metadata ptr %span.i.i, metadata !3248, metadata !DIExpression()), !dbg !3255
  call void @llvm.dbg.value(metadata ptr %span.i.i, metadata !3237, metadata !DIExpression()), !dbg !3256
  %113 = icmp eq i64 %.pr.i.i, 2, !dbg !3229
  br i1 %113, label %"_ZN8blocking8Executor9grow_pool28_$u7b$$u7b$closure$u7d$$u7d$17hc3cfb1d7af47d2c9E.exit", label %bb1.i.i259.i.i, !dbg !3229

bb1.i.i259.i.i:                                   ; preds = %bb77.i.i
  call void @llvm.dbg.value(metadata ptr %span.i.i, metadata !3238, metadata !DIExpression(DW_OP_plus_uconst, 24, DW_OP_stack_value)), !dbg !3257
  call void @llvm.dbg.value(metadata ptr %span.i.i, metadata !3240, metadata !DIExpression()), !dbg !3257
  call void @llvm.dbg.value(metadata ptr %span.i.i, metadata !3258, metadata !DIExpression(DW_OP_plus_uconst, 24, DW_OP_stack_value)), !dbg !3266
  call void @llvm.dbg.value(metadata ptr %span.i.i, metadata !3268, metadata !DIExpression(DW_OP_plus_uconst, 24, DW_OP_stack_value)), !dbg !3277
  %_11.i.i.i.i = load i64, ptr %_6.i.i256.i.i, align 8, !dbg !3279, !range !2699, !alias.scope !3280, !noundef !29
; invoke tracing_core::dispatcher::Dispatch::try_close
  %_5.i1.i.i.i = invoke noundef zeroext i1 @_ZN12tracing_core10dispatcher8Dispatch9try_close17h696bcd9c55eb65b8E(ptr noalias noundef nonnull readonly align 8 dereferenceable(24) %span.i.i, i64 noundef %_11.i.i.i.i)
          to label %bb2.i.i263.i.i unwind label %cleanup.i260.i.i, !dbg !3283

cleanup.i260.i.i:                                 ; preds = %bb1.i.i259.i.i
  %114 = landingpad { ptr, i32 }
          cleanup
; invoke core::ptr::drop_in_place<core::option::Option<tracing::span::Inner>>
  invoke fastcc void @"_ZN4core3ptr69drop_in_place$LT$core..option..Option$LT$tracing..span..Inner$GT$$GT$17hb3b2fccd8cdeaacfE"(ptr noalias noundef nonnull align 8 dereferenceable(32) %span.i.i) #23
          to label %common.resume.i.i unwind label %terminate.i261.i.i, !dbg !3284

bb2.i.i263.i.i:                                   ; preds = %bb1.i.i259.i.i
  call void @llvm.experimental.noalias.scope.decl(metadata !3285), !dbg !3284
  call void @llvm.dbg.value(metadata ptr %span.i.i, metadata !3288, metadata !DIExpression()), !dbg !3296
  call void @llvm.experimental.noalias.scope.decl(metadata !3298), !dbg !3301
  call void @llvm.dbg.value(metadata ptr %span.i.i, metadata !3302, metadata !DIExpression()), !dbg !3308
  call void @llvm.experimental.noalias.scope.decl(metadata !3310), !dbg !3313
  call void @llvm.dbg.value(metadata ptr %span.i.i, metadata !3314, metadata !DIExpression()), !dbg !3322
  call void @llvm.experimental.noalias.scope.decl(metadata !3324), !dbg !3327
  call void @llvm.dbg.value(metadata ptr %span.i.i, metadata !3328, metadata !DIExpression()), !dbg !3336
  %115 = icmp eq i64 %.pr.i.i, 0, !dbg !3338
  br i1 %115, label %"_ZN8blocking8Executor9grow_pool28_$u7b$$u7b$closure$u7d$$u7d$17hc3cfb1d7af47d2c9E.exit", label %bb2.i.i.i.i.i264.i.i, !dbg !3338

bb2.i.i.i.i.i264.i.i:                             ; preds = %bb2.i.i263.i.i
  %116 = getelementptr inbounds i8, ptr %span.i.i, i64 8, !dbg !3338
  call void @llvm.experimental.noalias.scope.decl(metadata !3339), !dbg !3338
  call void @llvm.dbg.value(metadata ptr %116, metadata !3342, metadata !DIExpression()), !dbg !3348
  call void @llvm.experimental.noalias.scope.decl(metadata !3350), !dbg !3353
  call void @llvm.dbg.value(metadata i64 1, metadata !3354, metadata !DIExpression()), !dbg !3363
  call void @llvm.dbg.value(metadata i8 1, metadata !3362, metadata !DIExpression()), !dbg !3363
  call void @llvm.dbg.value(metadata i64 1, metadata !3374, metadata !DIExpression()), !dbg !3383
  call void @llvm.dbg.value(metadata i8 1, metadata !3382, metadata !DIExpression()), !dbg !3383
  call void @llvm.dbg.value(metadata i8 2, metadata !3385, metadata !DIExpression()), !dbg !3391
  call void @llvm.dbg.value(metadata ptr %116, metadata !3372, metadata !DIExpression()), !dbg !3393
  call void @llvm.dbg.value(metadata ptr %116, metadata !3394, metadata !DIExpression()), !dbg !3406
  call void @llvm.dbg.value(metadata ptr %116, metadata !3408, metadata !DIExpression()), !dbg !3417
  %self.0.i.i.i.i.i.i.i.i.i = load ptr, ptr %116, align 8, !dbg !3419, !alias.scope !3420, !nonnull !29, !noundef !29
  call void @llvm.dbg.value(metadata ptr %self.0.i.i.i.i.i.i.i.i.i, metadata !3361, metadata !DIExpression()), !dbg !3363
  call void @llvm.dbg.value(metadata ptr %self.0.i.i.i.i.i.i.i.i.i, metadata !3381, metadata !DIExpression()), !dbg !3383
  %117 = atomicrmw sub ptr %self.0.i.i.i.i.i.i.i.i.i, i64 1 release, align 8, !dbg !3421, !noalias !3422
  %118 = icmp eq i64 %117, 1, !dbg !3423
  br i1 %118, label %bb2.i.i.i.i.i.i.i.i.i, label %"_ZN8blocking8Executor9grow_pool28_$u7b$$u7b$closure$u7d$$u7d$17hc3cfb1d7af47d2c9E.exit", !dbg !3423

bb2.i.i.i.i.i.i.i.i.i:                            ; preds = %bb2.i.i.i.i.i264.i.i
  fence acquire, !dbg !3424
; call alloc::sync::Arc<T,A>::drop_slow
  call fastcc void @"_ZN5alloc4sync16Arc$LT$T$C$A$GT$9drop_slow17hb2d9bf256dcbd59fE"(ptr noalias noundef nonnull align 8 dereferenceable(16) %116), !dbg !3425
  br label %"_ZN8blocking8Executor9grow_pool28_$u7b$$u7b$closure$u7d$$u7d$17hc3cfb1d7af47d2c9E.exit", !dbg !3425

terminate.i261.i.i:                               ; preds = %cleanup.i260.i.i
  %119 = landingpad { ptr, i32 }
          filter [0 x ptr] zeroinitializer
; call core::panicking::panic_in_cleanup
  call void @_ZN4core9panicking16panic_in_cleanup17h43442956f23e9cbeE() #25, !dbg !3284
  unreachable, !dbg !3284

common.resume.i.i:                                ; preds = %cleanup.i260.i.i, %bb80.i.i
  %common.resume.op.i.i = phi { ptr, i32 } [ %114, %cleanup.i260.i.i ], [ %.pn114.i.i, %bb80.i.i ]
  resume { ptr, i32 } %common.resume.op.i.i, !dbg !1774

bb51.i.i:                                         ; preds = %bb43.i.i, %bb42.i.i
  call void @llvm.dbg.value(metadata !29, metadata !1778, metadata !DIExpression()), !dbg !3426
  call void @llvm.dbg.value(metadata !29, metadata !1803, metadata !DIExpression()), !dbg !3426
  call void @llvm.dbg.value(metadata ptr @_ZN12tracing_core8metadata9MAX_LEVEL17h2def28f3c9fb9790E, metadata !1806, metadata !DIExpression()), !dbg !3428
  call void @llvm.dbg.value(metadata i8 0, metadata !1815, metadata !DIExpression()), !dbg !3428
  call void @llvm.dbg.value(metadata i8 0, metadata !1823, metadata !DIExpression()), !dbg !3431
  call void @llvm.dbg.value(metadata ptr @_ZN12tracing_core8metadata9MAX_LEVEL17h2def28f3c9fb9790E, metadata !1829, metadata !DIExpression()), !dbg !3431
  %120 = load atomic i64, ptr @_ZN12tracing_core8metadata9MAX_LEVEL17h2def28f3c9fb9790E monotonic, align 8, !dbg !3433
  call void @llvm.dbg.value(metadata !29, metadata !1778, metadata !DIExpression()), !dbg !3434
  call void @llvm.dbg.value(metadata ptr undef, metadata !1803, metadata !DIExpression()), !dbg !3434
  %_0.i.i.i = icmp eq i64 %120, 0, !dbg !3436
  br i1 %_0.i.i.i, label %bb52.i.i, label %bb17.i.i.backedge, !dbg !3437

bb52.i.i:                                         ; preds = %bb51.i.i
  call void @llvm.dbg.value(metadata i8 0, metadata !1886, metadata !DIExpression()), !dbg !3438
  call void @llvm.dbg.value(metadata ptr @_ZN8blocking8Executor9main_loop10__CALLSITE17hf49af01bae478d5fE, metadata !1902, metadata !DIExpression()), !dbg !3441
  call void @llvm.dbg.value(metadata ptr @_ZN8blocking8Executor9main_loop10__CALLSITE17hf49af01bae478d5fE, metadata !1894, metadata !DIExpression(DW_OP_plus_uconst, 16, DW_OP_stack_value)), !dbg !3438
  call void @llvm.dbg.value(metadata i8 0, metadata !1905, metadata !DIExpression()), !dbg !3442
  call void @llvm.dbg.value(metadata ptr getelementptr inbounds (<{ ptr, [10 x i8], [6 x i8] }>, ptr @_ZN8blocking8Executor9main_loop10__CALLSITE17hf49af01bae478d5fE, i64 0, i32 1, i64 8), metadata !1910, metadata !DIExpression()), !dbg !3442
  %121 = load atomic i8, ptr getelementptr inbounds (<{ ptr, [10 x i8], [6 x i8] }>, ptr @_ZN8blocking8Executor9main_loop10__CALLSITE17hf49af01bae478d5fE, i64 0, i32 1, i64 8) monotonic, align 8, !dbg !3444
  switch i8 %121, label %bb1.i272.i.i [
    i8 0, label %bb17.i.i.backedge
    i8 1, label %bb57.i.i
    i8 2, label %bb6.i268.i.i
  ], !dbg !3445

bb1.i272.i.i:                                     ; preds = %bb52.i.i
; invoke tracing_core::callsite::DefaultCallsite::register
  %122 = invoke noundef i8 @_ZN12tracing_core8callsite15DefaultCallsite8register17h1f01c6d2d83987b0E(ptr noundef nonnull align 8 @_ZN8blocking8Executor9main_loop10__CALLSITE17hf49af01bae478d5fE)
          to label %bb55.i.i unwind label %bb84.loopexit.i.i, !dbg !3446

bb6.i268.i.i:                                     ; preds = %bb52.i.i
  br label %bb57.i.i, !dbg !3447

bb55.i.i:                                         ; preds = %bb1.i272.i.i
  call void @llvm.dbg.value(metadata i8 %122, metadata !1497, metadata !DIExpression()), !dbg !3448
  %123 = icmp eq i8 %122, 0, !dbg !3449
  br i1 %123, label %bb17.i.i.backedge, label %bb57.i.i, !dbg !3449

bb57.i.i:                                         ; preds = %bb55.i.i, %bb6.i268.i.i, %bb52.i.i
  %_0.sroa.0.0.i270362.i.i = phi i8 [ %122, %bb55.i.i ], [ 2, %bb6.i268.i.i ], [ %121, %bb52.i.i ]
  %_101.i.i = load ptr, ptr @_ZN8blocking8Executor9main_loop10__CALLSITE17hf49af01bae478d5fE, align 8, !dbg !3450, !nonnull !29, !align !1938, !noundef !29
; invoke tracing::__macro_support::__is_enabled
  %124 = invoke noundef zeroext i1 @_ZN7tracing15__macro_support12__is_enabled17h74586a1e8af97b13E(ptr noalias noundef nonnull readonly align 8 dereferenceable(120) %_101.i.i, i8 noundef %_0.sroa.0.0.i270362.i.i)
          to label %bb58.i.i unwind label %bb84.loopexit.i.i, !dbg !3449

bb58.i.i:                                         ; preds = %bb57.i.i
  call void @llvm.dbg.value(metadata i1 %124, metadata !1494, metadata !DIExpression(DW_OP_LLVM_convert, 1, DW_ATE_unsigned, DW_OP_LLVM_convert, 8, DW_ATE_unsigned, DW_OP_stack_value)), !dbg !3451
  br i1 %124, label %bb59.i.i, label %bb17.i.i.backedge, !dbg !3452

bb59.i.i:                                         ; preds = %bb58.i.i
  %self95.i.i = load ptr, ptr @_ZN8blocking8Executor9main_loop10__CALLSITE17hf49af01bae478d5fE, align 8, !dbg !3453, !nonnull !29, !align !1938, !noundef !29
  call void @llvm.dbg.value(metadata ptr %self95.i.i, metadata !2869, metadata !DIExpression(DW_OP_plus_uconst, 48, DW_OP_stack_value)), !dbg !3454
  call void @llvm.dbg.value(metadata ptr %self95.i.i, metadata !2886, metadata !DIExpression(DW_OP_plus_uconst, 48, DW_OP_stack_value)), !dbg !3456
  call void @llvm.dbg.value(metadata ptr %self95.i.i, metadata !2899, metadata !DIExpression(DW_OP_plus_uconst, 48, DW_OP_stack_value)), !dbg !3458
  %125 = getelementptr inbounds i8, ptr %self95.i.i, i64 48, !dbg !3460
  %_214.0.i.i = load ptr, ptr %125, align 8, !dbg !3460, !nonnull !29, !align !1938, !noundef !29
  %126 = getelementptr inbounds i8, ptr %self95.i.i, i64 56, !dbg !3460
  %_214.1.i.i = load i64, ptr %126, align 8, !dbg !3460, !noundef !29
  call void @llvm.dbg.value(metadata i64 0, metadata !2871, metadata !DIExpression(DW_OP_LLVM_fragment, 0, 64)), !dbg !3461
  call void @llvm.dbg.value(metadata i64 %_214.1.i.i, metadata !2871, metadata !DIExpression(DW_OP_LLVM_fragment, 64, 64)), !dbg !3461
  %127 = getelementptr inbounds i8, ptr %self95.i.i, i64 64, !dbg !3462
  %128 = load <2 x ptr>, ptr %127, align 8, !dbg !3462
  call void @llvm.dbg.value(metadata i64 0, metadata !1500, metadata !DIExpression(DW_OP_LLVM_fragment, 256, 64)), !dbg !3463
  call void @llvm.dbg.value(metadata i64 %_214.1.i.i, metadata !1500, metadata !DIExpression(DW_OP_LLVM_fragment, 320, 64)), !dbg !3463
  call void @llvm.dbg.value(metadata ptr %_214.0.i.i, metadata !1500, metadata !DIExpression(DW_OP_LLVM_fragment, 0, 64)), !dbg !3463
  call void @llvm.dbg.value(metadata i64 %_214.1.i.i, metadata !1500, metadata !DIExpression(DW_OP_LLVM_fragment, 64, 64)), !dbg !3463
  call void @llvm.dbg.value(metadata ptr undef, metadata !1500, metadata !DIExpression(DW_OP_LLVM_fragment, 128, 64)), !dbg !3463
  call void @llvm.dbg.value(metadata ptr undef, metadata !1500, metadata !DIExpression(DW_OP_LLVM_fragment, 192, 64)), !dbg !3463
  call void @llvm.lifetime.start.p0(i64 24, ptr nonnull %_111.i.i), !dbg !3464
  call void @llvm.lifetime.start.p0(i64 40, ptr nonnull %val31.i.i), !dbg !3464
  call void @llvm.dbg.value(metadata ptr undef, metadata !2911, metadata !DIExpression()), !dbg !3465
  call void @llvm.dbg.value(metadata ptr undef, metadata !2942, metadata !DIExpression(DW_OP_plus_uconst, 32, DW_OP_stack_value)), !dbg !3467
  call void @llvm.dbg.value(metadata ptr undef, metadata !2957, metadata !DIExpression(DW_OP_plus_uconst, 32, DW_OP_stack_value)), !dbg !3469
  call void @llvm.dbg.value(metadata ptr undef, metadata !2966, metadata !DIExpression(DW_OP_plus_uconst, 32, DW_OP_stack_value)), !dbg !3471
  call void @llvm.dbg.value(metadata ptr undef, metadata !2976, metadata !DIExpression(DW_OP_plus_uconst, 8, DW_OP_stack_value)), !dbg !3471
  %_11.i277.not.i.i = icmp eq i64 %_214.1.i.i, 0, !dbg !3473
  br i1 %_11.i277.not.i.i, label %bb101.i.i.invoke, label %bb102.i.i, !dbg !3474

bb101.i.i.invoke:                                 ; preds = %bb59.i.i, %bb73.i.i
  %129 = phi ptr [ @alloc_9e8f643ab7aa04908f49dd0aae9e31f6, %bb73.i.i ], [ @alloc_d72864a8d4aee7d2e78b0651542cddc6, %bb59.i.i ]
; invoke core::option::expect_failed
  invoke void @_ZN4core6option13expect_failed17h28cbd671da1a9710E(ptr noalias noundef nonnull readonly align 1 @alloc_f60ee9d3a28ecf6e14a79771b3c5296b, i64 noundef 34, ptr noalias noundef nonnull readonly align 8 dereferenceable(24) %129) #24
          to label %bb101.i.i.cont unwind label %bb84.loopexit.split-lp.i.i, !dbg !3475

bb101.i.i.cont:                                   ; preds = %bb101.i.i.invoke
  unreachable

bb102.i.i:                                        ; preds = %bb59.i.i
  call void @llvm.dbg.value(metadata i64 0, metadata !1500, metadata !DIExpression(DW_OP_plus_uconst, 1, DW_OP_stack_value, DW_OP_LLVM_fragment, 256, 64)), !dbg !3463
  call void @llvm.dbg.value(metadata i64 0, metadata !1727, metadata !DIExpression(DW_OP_LLVM_fragment, 256, 64)), !dbg !1762
  call void @llvm.dbg.value(metadata ptr undef, metadata !1727, metadata !DIExpression(DW_OP_LLVM_fragment, 192, 64)), !dbg !1762
  call void @llvm.dbg.value(metadata ptr undef, metadata !1727, metadata !DIExpression(DW_OP_LLVM_fragment, 128, 64)), !dbg !1762
  call void @llvm.dbg.value(metadata i64 %_214.1.i.i, metadata !1727, metadata !DIExpression(DW_OP_LLVM_fragment, 64, 64)), !dbg !1762
  call void @llvm.dbg.value(metadata ptr %_214.0.i.i, metadata !1727, metadata !DIExpression(DW_OP_LLVM_fragment, 0, 64)), !dbg !1762
  store ptr %_214.0.i.i, ptr %val31.i.i, align 8, !dbg !3477
  store i64 %_214.1.i.i, ptr %self32.sroa.5.0.val31.sroa_idx.i.i, align 8, !dbg !3477
  store <2 x ptr> %128, ptr %self32.sroa.6.0.val31.sroa_idx.i.i, align 8, !dbg !3477
  store i64 0, ptr %self32.sroa.8.0.val31.sroa_idx.i.i, align 8, !dbg !3477
  call void @llvm.lifetime.start.p0(i64 48, ptr nonnull %_121.i.i), !dbg !3464
  store ptr @alloc_5da6155619dca8ff21384da5e59fb5e5, ptr %_121.i.i, align 8, !dbg !3478
  store i64 1, ptr %28, align 8, !dbg !3478
  store ptr null, ptr %29, align 8, !dbg !3478
  store ptr inttoptr (i64 8 to ptr), ptr %30, align 8, !dbg !3478
  store i64 0, ptr %31, align 8, !dbg !3478
  store ptr %val31.i.i, ptr %_111.i.i, align 8, !dbg !3464
  store ptr %_121.i.i, ptr %_112.sroa.4.0..sroa_idx.i.i, align 8, !dbg !3464
  store ptr @vtable.9, ptr %_112.sroa.5.0..sroa_idx.i.i, align 8, !dbg !3464
  call void @llvm.lifetime.start.p0(i64 24, ptr nonnull %value_set38.i.i), !dbg !3452
  store ptr %_111.i.i, ptr %value_set38.i.i, align 8, !dbg !3452
  store i64 1, ptr %_103.sroa.2.0.value_set38.sroa_idx.i.i, align 8, !dbg !3452
  store ptr %125, ptr %_103.sroa.3.0.value_set38.sroa_idx.i.i, align 8, !dbg !3452
  call void @llvm.dbg.value(metadata ptr %self95.i.i, metadata !3479, metadata !DIExpression()), !dbg !3491
; invoke tracing_core::event::Event::dispatch
  invoke void @_ZN12tracing_core5event5Event8dispatch17h4b67a6f17dc31741E(ptr noalias noundef nonnull readonly align 8 dereferenceable(120) %self95.i.i, ptr noalias noundef nonnull readonly align 8 dereferenceable(24) %value_set38.i.i)
          to label %bb103.i.i unwind label %bb84.loopexit.i.i, !dbg !3493

bb103.i.i:                                        ; preds = %bb102.i.i
  call void @llvm.lifetime.end.p0(i64 24, ptr nonnull %value_set38.i.i), !dbg !3452
  call void @llvm.lifetime.end.p0(i64 48, ptr nonnull %_121.i.i), !dbg !3452
  call void @llvm.lifetime.end.p0(i64 40, ptr nonnull %val31.i.i), !dbg !3452
  call void @llvm.lifetime.end.p0(i64 24, ptr nonnull %_111.i.i), !dbg !3452
  br label %bb17.i.i.backedge, !dbg !3452

bb17.i.i.backedge:                                ; preds = %bb103.i.i, %bb58.i.i, %bb55.i.i, %bb52.i.i, %bb51.i.i
  br label %bb17.i.i, !dbg !2194

bb84.loopexit.i.i:                                ; preds = %bb102.i.i, %bb57.i.i, %bb1.i272.i.i, %bb99.i.i, %bb35.i.i, %bb1.i191.i.i
  %inner.sroa.14.3.ph.i.i = phi i8 [ %inner.sroa.14.1.lcssa.i.i, %bb1.i191.i.i ], [ %inner.sroa.14.1.lcssa.i.i, %bb35.i.i ], [ %inner.sroa.14.1.lcssa.i.i, %bb99.i.i ], [ %79, %bb1.i272.i.i ], [ %79, %bb57.i.i ], [ %79, %bb102.i.i ]
  %lpad.loopexit.i.i = landingpad { ptr, i32 }
          cleanup
  br label %bb84.i.i

bb84.loopexit.split-lp.i.i:                       ; preds = %bb98.i.i.invoke, %bb101.i.i.invoke, %bb105.i.i, %bb71.i.i, %bb1.i230.i.i
  %inner.sroa.14.3.ph371.i.i = phi i8 [ %79, %bb1.i230.i.i ], [ %79, %bb71.i.i ], [ %79, %bb105.i.i ], [ %79, %bb101.i.i.invoke ], [ %inner.sroa.14.1.lcssa.i.i, %bb98.i.i.invoke ]
  %lpad.loopexit.split-lp.i.i = landingpad { ptr, i32 }
          cleanup
  br label %bb84.i.i

bb84.i.i:                                         ; preds = %bb84.loopexit.split-lp.i.i, %bb84.loopexit.i.i
  %inner.sroa.14.3.i.i = phi i8 [ %inner.sroa.14.3.ph.i.i, %bb84.loopexit.i.i ], [ %inner.sroa.14.3.ph371.i.i, %bb84.loopexit.split-lp.i.i ], !dbg !1948
  %lpad.phi.i.i = phi { ptr, i32 } [ %lpad.loopexit.i.i, %bb84.loopexit.i.i ], [ %lpad.loopexit.split-lp.i.i, %bb84.loopexit.split-lp.i.i ]
  call void @llvm.dbg.value(metadata ptr %f, metadata !1464, metadata !DIExpression(DW_OP_LLVM_fragment, 0, 64)), !dbg !2194
  call void @llvm.dbg.value(metadata i8 %inner.sroa.14.3.i.i, metadata !1464, metadata !DIExpression(DW_OP_LLVM_fragment, 64, 8)), !dbg !2194
; invoke core::ptr::drop_in_place<std::sync::mutex::MutexGuard<blocking::Inner>>
  invoke fastcc void @"_ZN4core3ptr72drop_in_place$LT$std..sync..mutex..MutexGuard$LT$blocking..Inner$GT$$GT$17h771f39b971f5c574E"(ptr nonnull %f, i8 %inner.sroa.14.3.i.i) #23
          to label %bb79.i.i unwind label %terminate.i.i, !dbg !3494

"_ZN8blocking8Executor9grow_pool28_$u7b$$u7b$closure$u7d$$u7d$17hc3cfb1d7af47d2c9E.exit": ; preds = %bb76.i.i, %bb77.i.i, %bb2.i.i263.i.i, %bb2.i.i.i.i.i264.i.i, %bb2.i.i.i.i.i.i.i.i.i
  call void @llvm.lifetime.end.p0(i64 40, ptr nonnull %span.i.i), !dbg !2128
  call void @llvm.lifetime.end.p0(i64 16, ptr nonnull %_40.i.i), !dbg !3495
  call void asm sideeffect "", "~{memory}"() #26, !dbg !3496, !srcloc !3497
  ret void, !dbg !3498
}

; std::io::Write::write_fmt
; Function Attrs: nonlazybind uwtable
define internal fastcc noundef ptr @_ZN3std2io5Write9write_fmt17h648b0fa12f6bc544E(ptr noalias noundef nonnull align 1 %self, ptr noalias nocapture noundef readonly align 8 dereferenceable(48) %fmt) unnamed_addr #2 personality ptr @rust_eh_personality !dbg !3499 {
start:
  %_10 = alloca [48 x i8], align 8
  %output = alloca [16 x i8], align 8
  tail call void @llvm.dbg.value(metadata ptr @alloc_b715a4cb67d5838cf1e1986f5e19fc38, metadata !3510, metadata !DIExpression()), !dbg !3514
  tail call void @llvm.dbg.value(metadata ptr %self, metadata !3504, metadata !DIExpression()), !dbg !3518
  call void @llvm.dbg.declare(metadata ptr %fmt, metadata !3505, metadata !DIExpression()), !dbg !3519
  call void @llvm.dbg.declare(metadata ptr %output, metadata !3506, metadata !DIExpression()), !dbg !3520
  call void @llvm.lifetime.start.p0(i64 16, ptr nonnull %output), !dbg !3521
  store ptr %self, ptr %output, align 8, !dbg !3522
  %0 = getelementptr inbounds i8, ptr %output, i64 8, !dbg !3522
  store ptr null, ptr %0, align 8, !dbg !3522
; invoke core::fmt::write
  %1 = invoke noundef zeroext i1 @_ZN4core3fmt5write17h2b71bd12250911d0E(ptr noundef nonnull align 1 %output, ptr noalias noundef nonnull readonly align 8 dereferenceable(48) @vtable.0, ptr noalias nocapture noundef nonnull readonly align 8 dereferenceable(48) %fmt)
          to label %bb1 unwind label %cleanup, !dbg !3523

cleanup:                                          ; preds = %bb9, %start
  %2 = landingpad { ptr, i32 }
          cleanup
  call void @llvm.dbg.value(metadata ptr %output, metadata !3524, metadata !DIExpression()), !dbg !3532
  %.val.i = load ptr, ptr %0, align 8, !dbg !3534, !alias.scope !3535, !noundef !29
  call void @llvm.dbg.value(metadata ptr undef, metadata !3538, metadata !DIExpression()), !dbg !3546
  %3 = icmp eq ptr %.val.i, null, !dbg !3548
  br i1 %3, label %bb6, label %bb2.i.i, !dbg !3548

bb2.i.i:                                          ; preds = %cleanup
; invoke core::ptr::drop_in_place<std::io::error::Error>
  invoke fastcc void @"_ZN4core3ptr42drop_in_place$LT$std..io..error..Error$GT$17hf4d916d94861514cE"(ptr nonnull %.val.i)
          to label %bb6 unwind label %terminate, !dbg !3548

bb1:                                              ; preds = %start
  %4 = load ptr, ptr %0, align 8, !dbg !3518, !noundef !29
  %5 = icmp eq ptr %4, null, !dbg !3518
  br i1 %1, label %bb3, label %bb4, !dbg !3549

bb4:                                              ; preds = %bb1
  call void @llvm.dbg.value(metadata ptr undef, metadata !3538, metadata !DIExpression()), !dbg !3550
  br i1 %5, label %bb7, label %bb2.i, !dbg !3552

bb2.i:                                            ; preds = %bb4
; call core::ptr::drop_in_place<std::io::error::Error>
  call fastcc void @"_ZN4core3ptr42drop_in_place$LT$std..io..error..Error$GT$17hf4d916d94861514cE"(ptr nonnull %4), !dbg !3552
  br label %bb7, !dbg !3552

bb3:                                              ; preds = %bb1
  tail call void @llvm.dbg.value(metadata ptr %output, metadata !3553, metadata !DIExpression(DW_OP_plus_uconst, 8, DW_OP_stack_value)), !dbg !3561
  tail call void @llvm.dbg.value(metadata ptr %output, metadata !3563, metadata !DIExpression(DW_OP_plus_uconst, 8, DW_OP_stack_value)), !dbg !3568
  br i1 %5, label %bb9, label %bb7, !dbg !3570

bb7:                                              ; preds = %bb2.i, %bb4, %bb3
  %_0.sroa.0.0 = phi ptr [ %4, %bb3 ], [ null, %bb4 ], [ null, %bb2.i ], !dbg !3572
  call void @llvm.lifetime.end.p0(i64 16, ptr nonnull %output), !dbg !3573
  ret ptr %_0.sroa.0.0, !dbg !3574

bb9:                                              ; preds = %bb3
  call void @llvm.lifetime.start.p0(i64 48, ptr nonnull %_10), !dbg !3575
  store ptr @alloc_b715a4cb67d5838cf1e1986f5e19fc38, ptr %_10, align 8, !dbg !3576
  %6 = getelementptr inbounds i8, ptr %_10, i64 8, !dbg !3576
  store i64 1, ptr %6, align 8, !dbg !3576
  %7 = getelementptr inbounds i8, ptr %_10, i64 32, !dbg !3576
  store ptr null, ptr %7, align 8, !dbg !3576
  %8 = getelementptr inbounds i8, ptr %_10, i64 16, !dbg !3576
  store ptr inttoptr (i64 8 to ptr), ptr %8, align 8, !dbg !3576
  %9 = getelementptr inbounds i8, ptr %_10, i64 24, !dbg !3576
  store i64 0, ptr %9, align 8, !dbg !3576
; invoke core::panicking::panic_fmt
  invoke void @_ZN4core9panicking9panic_fmt17h3111a7beccfa68f5E(ptr noalias nocapture noundef nonnull readonly align 8 dereferenceable(48) %_10, ptr noalias noundef nonnull readonly align 8 dereferenceable(24) @alloc_d06916582962d4b81ada4001356ac2bb) #24
          to label %unreachable unwind label %cleanup, !dbg !3575

unreachable:                                      ; preds = %bb9
  unreachable

terminate:                                        ; preds = %bb2.i.i
  %10 = landingpad { ptr, i32 }
          filter [0 x ptr] zeroinitializer
; call core::panicking::panic_in_cleanup
  call void @_ZN4core9panicking16panic_in_cleanup17h43442956f23e9cbeE() #25, !dbg !3577
  unreachable, !dbg !3577

bb6:                                              ; preds = %cleanup, %bb2.i.i
  resume { ptr, i32 } %2, !dbg !3577
}

; <&T as core::fmt::Debug>::fmt
; Function Attrs: nonlazybind uwtable
define internal noundef zeroext i1 @"_ZN42_$LT$$RF$T$u20$as$u20$core..fmt..Debug$GT$3fmt17h38f7eb9e87234846E"(ptr noalias nocapture noundef readonly align 8 dereferenceable(8) %self, ptr noalias noundef align 8 dereferenceable(64) %f) unnamed_addr #2 !dbg !3578 {
start:
  tail call void @llvm.dbg.value(metadata ptr %self, metadata !3584, metadata !DIExpression()), !dbg !3586
  tail call void @llvm.dbg.value(metadata ptr %f, metadata !3585, metadata !DIExpression()), !dbg !3586
  %_3 = load ptr, ptr %self, align 8, !dbg !3587, !nonnull !29, !align !2908, !noundef !29
  call void @llvm.dbg.value(metadata ptr %_3, metadata !3588, metadata !DIExpression()), !dbg !3597
  call void @llvm.dbg.value(metadata ptr %f, metadata !3596, metadata !DIExpression()), !dbg !3597
  call void @llvm.dbg.value(metadata ptr %f, metadata !3599, metadata !DIExpression()), !dbg !3607
  call void @llvm.dbg.value(metadata ptr %f, metadata !3609, metadata !DIExpression()), !dbg !3614
  %0 = getelementptr inbounds i8, ptr %f, i64 52, !dbg !3616
  %_4.i = load i32, ptr %0, align 4, !dbg !3616, !alias.scope !3617, !noalias !3620, !noundef !29
  %_3.i = and i32 %_4.i, 16, !dbg !3616
  %1 = icmp eq i32 %_3.i, 0, !dbg !3622
  br i1 %1, label %bb2.i, label %bb1.i, !dbg !3622

bb2.i:                                            ; preds = %start
  %_5.i = and i32 %_4.i, 32, !dbg !3623
  %2 = icmp eq i32 %_5.i, 0, !dbg !3624
  br i1 %2, label %bb4.i, label %bb3.i, !dbg !3624

bb1.i:                                            ; preds = %start
; call core::fmt::num::<impl core::fmt::LowerHex for u8>::fmt
  %3 = tail call noundef zeroext i1 @"_ZN4core3fmt3num52_$LT$impl$u20$core..fmt..LowerHex$u20$for$u20$u8$GT$3fmt17h9e0a968dd9829f5eE"(ptr noalias noundef nonnull readonly align 1 dereferenceable(1) %_3, ptr noalias noundef nonnull align 8 dereferenceable(64) %f), !dbg !3625
  br label %"_ZN4core3fmt3num49_$LT$impl$u20$core..fmt..Debug$u20$for$u20$u8$GT$3fmt17h04c2331cbf43a4a4E.exit", !dbg !3625

bb4.i:                                            ; preds = %bb2.i
; call core::fmt::num::imp::<impl core::fmt::Display for u8>::fmt
  %4 = tail call noundef zeroext i1 @"_ZN4core3fmt3num3imp51_$LT$impl$u20$core..fmt..Display$u20$for$u20$u8$GT$3fmt17hab6f45d48513b293E"(ptr noalias noundef nonnull readonly align 1 dereferenceable(1) %_3, ptr noalias noundef nonnull align 8 dereferenceable(64) %f), !dbg !3626
  br label %"_ZN4core3fmt3num49_$LT$impl$u20$core..fmt..Debug$u20$for$u20$u8$GT$3fmt17h04c2331cbf43a4a4E.exit", !dbg !3626

bb3.i:                                            ; preds = %bb2.i
; call core::fmt::num::<impl core::fmt::UpperHex for u8>::fmt
  %5 = tail call noundef zeroext i1 @"_ZN4core3fmt3num52_$LT$impl$u20$core..fmt..UpperHex$u20$for$u20$u8$GT$3fmt17hfdb7ce0f2d679b26E"(ptr noalias noundef nonnull readonly align 1 dereferenceable(1) %_3, ptr noalias noundef nonnull align 8 dereferenceable(64) %f), !dbg !3627
  br label %"_ZN4core3fmt3num49_$LT$impl$u20$core..fmt..Debug$u20$for$u20$u8$GT$3fmt17h04c2331cbf43a4a4E.exit", !dbg !3627

"_ZN4core3fmt3num49_$LT$impl$u20$core..fmt..Debug$u20$for$u20$u8$GT$3fmt17h04c2331cbf43a4a4E.exit": ; preds = %bb1.i, %bb4.i, %bb3.i
  %_0.sroa.0.0.in.i = phi i1 [ %4, %bb4.i ], [ %5, %bb3.i ], [ %3, %bb1.i ]
  ret i1 %_0.sroa.0.0.in.i, !dbg !3628
}

; <&T as core::fmt::Debug>::fmt
; Function Attrs: nonlazybind uwtable
define internal noundef zeroext i1 @"_ZN42_$LT$$RF$T$u20$as$u20$core..fmt..Debug$GT$3fmt17hdeba1c782ea8cdaeE"(ptr noalias nocapture noundef readonly align 8 dereferenceable(8) %self, ptr noalias noundef align 8 dereferenceable(64) %f) unnamed_addr #2 personality ptr @rust_eh_personality !dbg !3629 {
start:
  %entry.i.i.i = alloca [8 x i8], align 8
  %_5.i.i = alloca [16 x i8], align 8
  tail call void @llvm.dbg.value(metadata ptr %self, metadata !3634, metadata !DIExpression()), !dbg !3636
  tail call void @llvm.dbg.value(metadata ptr %f, metadata !3635, metadata !DIExpression()), !dbg !3636
  %_3 = load ptr, ptr %self, align 8, !dbg !3637, !nonnull !29, !align !1938, !noundef !29
  %0 = getelementptr i8, ptr %_3, i64 8, !dbg !3638
  %_3.val = load ptr, ptr %0, align 8, !dbg !3638, !nonnull !29, !noundef !29
  %1 = getelementptr i8, ptr %_3, i64 16, !dbg !3638
  %_3.val1 = load i64, ptr %1, align 8, !dbg !3638, !noundef !29
  call void @llvm.dbg.value(metadata ptr undef, metadata !3639, metadata !DIExpression()), !dbg !3647
  call void @llvm.dbg.value(metadata ptr %f, metadata !3646, metadata !DIExpression()), !dbg !3647
  call void @llvm.dbg.value(metadata ptr %_3.val, metadata !3649, metadata !DIExpression(DW_OP_LLVM_fragment, 0, 64)), !dbg !3660
  call void @llvm.dbg.value(metadata ptr %_3.val, metadata !3662, metadata !DIExpression(DW_OP_LLVM_fragment, 0, 64)), !dbg !3680
  call void @llvm.dbg.value(metadata ptr %_3.val, metadata !3682, metadata !DIExpression(DW_OP_LLVM_fragment, 0, 64)), !dbg !3694
  call void @llvm.dbg.value(metadata i64 %_3.val1, metadata !3649, metadata !DIExpression(DW_OP_LLVM_fragment, 64, 64)), !dbg !3660
  call void @llvm.dbg.value(metadata i64 %_3.val1, metadata !3662, metadata !DIExpression(DW_OP_LLVM_fragment, 64, 64)), !dbg !3680
  call void @llvm.dbg.value(metadata i64 %_3.val1, metadata !3682, metadata !DIExpression(DW_OP_LLVM_fragment, 64, 64)), !dbg !3694
  call void @llvm.dbg.value(metadata ptr %f, metadata !3659, metadata !DIExpression()), !dbg !3660
  call void @llvm.lifetime.start.p0(i64 16, ptr nonnull %_5.i.i), !dbg !3696, !noalias !3697
; call core::fmt::Formatter::debug_list
  call void @_ZN4core3fmt9Formatter10debug_list17hce1082af628ba6fcE(ptr noalias nocapture noundef nonnull sret([16 x i8]) align 8 dereferenceable(16) %_5.i.i, ptr noalias noundef nonnull align 8 dereferenceable(64) %f), !dbg !3696, !noalias !3703
  call void @llvm.dbg.value(metadata i64 %_3.val1, metadata !3688, metadata !DIExpression()), !dbg !3704
  call void @llvm.dbg.value(metadata i64 %_3.val1, metadata !3705, metadata !DIExpression()), !dbg !3712
  call void @llvm.dbg.value(metadata ptr %_3.val, metadata !3690, metadata !DIExpression()), !dbg !3714
  call void @llvm.dbg.value(metadata ptr %_3.val, metadata !3711, metadata !DIExpression()), !dbg !3712
  %_12.i.i = getelementptr inbounds i8, ptr %_3.val, i64 %_3.val1, !dbg !3715
  call void @llvm.dbg.value(metadata ptr %_5.i.i, metadata !3716, metadata !DIExpression()), !dbg !3741
  call void @llvm.dbg.value(metadata ptr %_3.val, metadata !3736, metadata !DIExpression(DW_OP_LLVM_fragment, 0, 64)), !dbg !3741
  call void @llvm.dbg.value(metadata ptr %_12.i.i, metadata !3736, metadata !DIExpression(DW_OP_LLVM_fragment, 64, 64)), !dbg !3741
  call void @llvm.dbg.declare(metadata ptr %entry.i.i.i, metadata !3739, metadata !DIExpression()), !dbg !3743
  call void @llvm.dbg.value(metadata ptr %_3.val, metadata !3737, metadata !DIExpression(DW_OP_LLVM_fragment, 0, 64)), !dbg !3744
  call void @llvm.dbg.value(metadata ptr %_12.i.i, metadata !3737, metadata !DIExpression(DW_OP_LLVM_fragment, 64, 64)), !dbg !3744
  call void @llvm.dbg.value(metadata ptr %_3.val, metadata !3737, metadata !DIExpression(DW_OP_LLVM_fragment, 0, 64)), !dbg !3744
  call void @llvm.dbg.value(metadata ptr undef, metadata !3745, metadata !DIExpression()), !dbg !3768
  call void @llvm.dbg.value(metadata ptr undef, metadata !3770, metadata !DIExpression()), !dbg !3777
  call void @llvm.dbg.value(metadata ptr %_12.i.i, metadata !3766, metadata !DIExpression()), !dbg !3779
  call void @llvm.dbg.value(metadata ptr undef, metadata !3780, metadata !DIExpression()), !dbg !3789
  call void @llvm.dbg.value(metadata ptr undef, metadata !3788, metadata !DIExpression()), !dbg !3789
  %2 = icmp eq i64 %_3.val1, 0, !dbg !3791
  br i1 %2, label %"_ZN65_$LT$alloc..vec..Vec$LT$T$C$A$GT$$u20$as$u20$core..fmt..Debug$GT$3fmt17h4fa549c54ab40c29E.exit", label %bb5.i.i.i, !dbg !3792

bb5.i.i.i:                                        ; preds = %start, %bb5.i.i.i
  %iter.sroa.0.06.i.i.i = phi ptr [ %_14.i.i.i.i.i, %bb5.i.i.i ], [ %_3.val, %start ]
  call void @llvm.dbg.value(metadata ptr %iter.sroa.0.06.i.i.i, metadata !3737, metadata !DIExpression(DW_OP_LLVM_fragment, 0, 64)), !dbg !3744
  call void @llvm.dbg.value(metadata ptr undef, metadata !3793, metadata !DIExpression()), !dbg !3807
  call void @llvm.dbg.value(metadata i64 1, metadata !3799, metadata !DIExpression()), !dbg !3807
  call void @llvm.dbg.value(metadata i64 1, metadata !3809, metadata !DIExpression()), !dbg !3817
  call void @llvm.dbg.value(metadata ptr %iter.sroa.0.06.i.i.i, metadata !3800, metadata !DIExpression()), !dbg !3819
  call void @llvm.dbg.value(metadata ptr undef, metadata !3804, metadata !DIExpression(DW_OP_plus_uconst, 8, DW_OP_stack_value)), !dbg !3820
  call void @llvm.dbg.value(metadata ptr %iter.sroa.0.06.i.i.i, metadata !3816, metadata !DIExpression()), !dbg !3817
  %_14.i.i.i.i.i = getelementptr inbounds i8, ptr %iter.sroa.0.06.i.i.i, i64 1, !dbg !3821
  call void @llvm.dbg.value(metadata ptr %_14.i.i.i.i.i, metadata !3737, metadata !DIExpression(DW_OP_LLVM_fragment, 0, 64)), !dbg !3744
  call void @llvm.lifetime.start.p0(i64 8, ptr nonnull %entry.i.i.i), !dbg !3822, !noalias !3823
  store ptr %iter.sroa.0.06.i.i.i, ptr %entry.i.i.i, align 8, !dbg !3822, !noalias !3823
; call core::fmt::builders::DebugList::entry
  %_9.i.i.i = call noundef align 8 dereferenceable(16) ptr @_ZN4core3fmt8builders9DebugList5entry17he5a4465e1dd4a691E(ptr noalias noundef nonnull align 8 dereferenceable(16) %_5.i.i, ptr noundef nonnull align 1 %entry.i.i.i, ptr noalias noundef nonnull readonly align 8 dereferenceable(32) @vtable.2), !dbg !3826
  call void @llvm.lifetime.end.p0(i64 8, ptr nonnull %entry.i.i.i), !dbg !3827, !noalias !3823
  call void @llvm.dbg.value(metadata ptr undef, metadata !3745, metadata !DIExpression()), !dbg !3768
  call void @llvm.dbg.value(metadata ptr undef, metadata !3770, metadata !DIExpression()), !dbg !3777
  call void @llvm.dbg.value(metadata ptr %_12.i.i, metadata !3766, metadata !DIExpression()), !dbg !3779
  call void @llvm.dbg.value(metadata ptr undef, metadata !3780, metadata !DIExpression()), !dbg !3789
  call void @llvm.dbg.value(metadata ptr undef, metadata !3788, metadata !DIExpression()), !dbg !3789
  %3 = icmp eq ptr %_14.i.i.i.i.i, %_12.i.i, !dbg !3791
  br i1 %3, label %"_ZN65_$LT$alloc..vec..Vec$LT$T$C$A$GT$$u20$as$u20$core..fmt..Debug$GT$3fmt17h4fa549c54ab40c29E.exit", label %bb5.i.i.i, !dbg !3792

"_ZN65_$LT$alloc..vec..Vec$LT$T$C$A$GT$$u20$as$u20$core..fmt..Debug$GT$3fmt17h4fa549c54ab40c29E.exit": ; preds = %bb5.i.i.i, %start
  call void @llvm.dbg.value(metadata ptr poison, metadata !3737, metadata !DIExpression(DW_OP_LLVM_fragment, 0, 64)), !dbg !3744
; call core::fmt::builders::DebugList::finish
  %_0.i.i = call noundef zeroext i1 @_ZN4core3fmt8builders9DebugList6finish17h9fea27fe6baef614E(ptr noalias noundef nonnull align 8 dereferenceable(16) %_5.i.i), !dbg !3696
  call void @llvm.lifetime.end.p0(i64 16, ptr nonnull %_5.i.i), !dbg !3828, !noalias !3697
  ret i1 %_0.i.i, !dbg !3829
}

; <&T as core::fmt::Debug>::fmt
; Function Attrs: nonlazybind uwtable
define internal noundef zeroext i1 @"_ZN42_$LT$$RF$T$u20$as$u20$core..fmt..Debug$GT$3fmt17he48ed21895eae8e2E"(ptr noalias nocapture noundef readonly align 8 dereferenceable(8) %self, ptr noalias noundef align 8 dereferenceable(64) %f) unnamed_addr #2 !dbg !3830 {
start:
  tail call void @llvm.dbg.value(metadata ptr %self, metadata !3835, metadata !DIExpression()), !dbg !3839
  tail call void @llvm.dbg.value(metadata ptr %f, metadata !3836, metadata !DIExpression()), !dbg !3839
  %_3 = load ptr, ptr %self, align 8, !dbg !3840, !nonnull !29, !align !1938, !noundef !29
; call <core::time::Duration as core::fmt::Debug>::fmt
  %_0 = tail call noundef zeroext i1 @"_ZN57_$LT$core..time..Duration$u20$as$u20$core..fmt..Debug$GT$3fmt17h26b0ad6d52fd911aE"(ptr noalias noundef nonnull readonly align 8 dereferenceable(16) %_3, ptr noalias noundef nonnull align 8 dereferenceable(64) %f), !dbg !3841
  ret i1 %_0, !dbg !3842
}

; core::fmt::num::<impl core::fmt::Debug for usize>::fmt
; Function Attrs: inlinehint nonlazybind uwtable
define internal noundef zeroext i1 @"_ZN4core3fmt3num52_$LT$impl$u20$core..fmt..Debug$u20$for$u20$usize$GT$3fmt17ha3731fb0f809905cE"(ptr noalias noundef readonly align 8 dereferenceable(8) %self, ptr noalias noundef align 8 dereferenceable(64) %f) unnamed_addr #3 !dbg !3843 {
start:
  tail call void @llvm.dbg.value(metadata ptr %self, metadata !3848, metadata !DIExpression()), !dbg !3850
  tail call void @llvm.dbg.value(metadata ptr %f, metadata !3849, metadata !DIExpression()), !dbg !3850
  tail call void @llvm.dbg.value(metadata ptr %f, metadata !3851, metadata !DIExpression()), !dbg !3855
  tail call void @llvm.dbg.value(metadata ptr %f, metadata !3857, metadata !DIExpression()), !dbg !3861
  %0 = getelementptr inbounds i8, ptr %f, i64 52, !dbg !3863
  %_4 = load i32, ptr %0, align 4, !dbg !3863, !noundef !29
  %_3 = and i32 %_4, 16, !dbg !3863
  %1 = icmp eq i32 %_3, 0, !dbg !3864
  br i1 %1, label %bb2, label %bb1, !dbg !3864

bb2:                                              ; preds = %start
  %_5 = and i32 %_4, 32, !dbg !3865
  %2 = icmp eq i32 %_5, 0, !dbg !3866
  br i1 %2, label %bb4, label %bb3, !dbg !3866

bb1:                                              ; preds = %start
; call core::fmt::num::<impl core::fmt::LowerHex for usize>::fmt
  %3 = tail call noundef zeroext i1 @"_ZN4core3fmt3num55_$LT$impl$u20$core..fmt..LowerHex$u20$for$u20$usize$GT$3fmt17hb89b543945fdac37E"(ptr noalias noundef nonnull readonly align 8 dereferenceable(8) %self, ptr noalias noundef nonnull align 8 dereferenceable(64) %f), !dbg !3867
  br label %bb6, !dbg !3867

bb4:                                              ; preds = %bb2
; call core::fmt::num::imp::<impl core::fmt::Display for usize>::fmt
  %4 = tail call noundef zeroext i1 @"_ZN4core3fmt3num3imp54_$LT$impl$u20$core..fmt..Display$u20$for$u20$usize$GT$3fmt17hdabfc7932e5a3df0E"(ptr noalias noundef nonnull readonly align 8 dereferenceable(8) %self, ptr noalias noundef nonnull align 8 dereferenceable(64) %f), !dbg !3868
  br label %bb6, !dbg !3868

bb3:                                              ; preds = %bb2
; call core::fmt::num::<impl core::fmt::UpperHex for usize>::fmt
  %5 = tail call noundef zeroext i1 @"_ZN4core3fmt3num55_$LT$impl$u20$core..fmt..UpperHex$u20$for$u20$usize$GT$3fmt17hb258a21f77c3d954E"(ptr noalias noundef nonnull readonly align 8 dereferenceable(8) %self, ptr noalias noundef nonnull align 8 dereferenceable(64) %f), !dbg !3869
  br label %bb6, !dbg !3869

bb6:                                              ; preds = %bb4, %bb3, %bb1
  %_0.sroa.0.0.in = phi i1 [ %4, %bb4 ], [ %5, %bb3 ], [ %3, %bb1 ]
  ret i1 %_0.sroa.0.0.in, !dbg !3870
}

; core::fmt::Write::write_char
; Function Attrs: nonlazybind uwtable
define internal noundef zeroext i1 @_ZN4core3fmt5Write10write_char17ha79227a7b36ae29fE(ptr noalias nocapture noundef align 8 dereferenceable(16) %self, i32 noundef %c) unnamed_addr #2 !dbg !3871 {
start:
  %_6 = alloca [4 x i8], align 4
  tail call void @llvm.dbg.value(metadata ptr %self, metadata !3877, metadata !DIExpression()), !dbg !3881
  tail call void @llvm.dbg.value(metadata i32 %c, metadata !3878, metadata !DIExpression()), !dbg !3881
  tail call void @llvm.dbg.value(metadata i32 %c, metadata !3882, metadata !DIExpression()), !dbg !3901
  call void @llvm.lifetime.start.p0(i64 4, ptr nonnull %_6), !dbg !3903
  store i32 0, ptr %_6, align 4, !dbg !3903
  tail call void @llvm.dbg.value(metadata ptr %_6, metadata !3900, metadata !DIExpression(DW_OP_LLVM_fragment, 0, 64)), !dbg !3901
  tail call void @llvm.dbg.value(metadata i64 4, metadata !3900, metadata !DIExpression(DW_OP_LLVM_fragment, 64, 64)), !dbg !3901
  tail call void @llvm.dbg.value(metadata i32 %c, metadata !3904, metadata !DIExpression()), !dbg !3910
  tail call void @llvm.dbg.value(metadata i32 %c, metadata !3916, metadata !DIExpression()), !dbg !3936
  tail call void @llvm.dbg.value(metadata ptr %_6, metadata !3917, metadata !DIExpression(DW_OP_LLVM_fragment, 0, 64)), !dbg !3936
  tail call void @llvm.dbg.value(metadata i64 4, metadata !3917, metadata !DIExpression(DW_OP_LLVM_fragment, 64, 64)), !dbg !3936
  %_59.i = icmp ult i32 %c, 128, !dbg !3937
  br i1 %_59.i, label %bb6.i, label %bb12.i, !dbg !3937

bb12.i:                                           ; preds = %start
  %_60.i = icmp ult i32 %c, 2048, !dbg !3938
  br i1 %_60.i, label %bb7.i, label %bb14.i, !dbg !3938

bb14.i:                                           ; preds = %bb12.i
  %_61.i = icmp ult i32 %c, 65536, !dbg !3939
  br i1 %_61.i, label %bb8.i, label %bb9.i, !dbg !3939

bb6.i:                                            ; preds = %start
  tail call void @llvm.dbg.value(metadata i64 1, metadata !3918, metadata !DIExpression()), !dbg !3940
  tail call void @llvm.dbg.value(metadata ptr %_6, metadata !3920, metadata !DIExpression()), !dbg !3941
  %0 = trunc i32 %c to i8, !dbg !3942
  store i8 %0, ptr %_6, align 4, !dbg !3942, !alias.scope !3943
  br label %_ZN4core4char7methods15encode_utf8_raw17h5f137a0ef0f8a40dE.exit, !dbg !3946

bb7.i:                                            ; preds = %bb12.i
  tail call void @llvm.dbg.value(metadata i64 2, metadata !3918, metadata !DIExpression()), !dbg !3940
  tail call void @llvm.dbg.value(metadata ptr %_6, metadata !3923, metadata !DIExpression()), !dbg !3947
  tail call void @llvm.dbg.value(metadata ptr %_6, metadata !3925, metadata !DIExpression(DW_OP_plus_uconst, 1, DW_OP_stack_value)), !dbg !3947
  %_18.i = lshr i32 %c, 6, !dbg !3948
  %1 = trunc i32 %_18.i to i8, !dbg !3949
  %2 = or disjoint i8 %1, -64, !dbg !3950
  store i8 %2, ptr %_6, align 4, !dbg !3950, !alias.scope !3943
  %3 = trunc i32 %c to i8, !dbg !3951
  %_19.i = and i8 %3, 63, !dbg !3951
  %4 = getelementptr inbounds [0 x i8], ptr %_6, i64 0, i64 1, !dbg !3952
  %5 = or disjoint i8 %_19.i, -128, !dbg !3952
  store i8 %5, ptr %4, align 1, !dbg !3952, !alias.scope !3943
  br label %_ZN4core4char7methods15encode_utf8_raw17h5f137a0ef0f8a40dE.exit, !dbg !3953

bb8.i:                                            ; preds = %bb14.i
  tail call void @llvm.dbg.value(metadata i64 3, metadata !3918, metadata !DIExpression()), !dbg !3940
  tail call void @llvm.dbg.value(metadata ptr %_6, metadata !3926, metadata !DIExpression()), !dbg !3954
  tail call void @llvm.dbg.value(metadata ptr %_6, metadata !3928, metadata !DIExpression(DW_OP_plus_uconst, 1, DW_OP_stack_value)), !dbg !3954
  tail call void @llvm.dbg.value(metadata ptr %_6, metadata !3929, metadata !DIExpression(DW_OP_plus_uconst, 2, DW_OP_stack_value)), !dbg !3954
  %_26.i = lshr i32 %c, 12, !dbg !3955
  %6 = trunc i32 %_26.i to i8, !dbg !3956
  %7 = or disjoint i8 %6, -32, !dbg !3957
  store i8 %7, ptr %_6, align 4, !dbg !3957, !alias.scope !3943
  %_29.i = lshr i32 %c, 6, !dbg !3958
  %8 = trunc i32 %_29.i to i8, !dbg !3959
  %_27.i = and i8 %8, 63, !dbg !3959
  %9 = getelementptr inbounds [0 x i8], ptr %_6, i64 0, i64 1, !dbg !3960
  %10 = or disjoint i8 %_27.i, -128, !dbg !3960
  store i8 %10, ptr %9, align 1, !dbg !3960, !alias.scope !3943
  %11 = trunc i32 %c to i8, !dbg !3961
  %_30.i = and i8 %11, 63, !dbg !3961
  %12 = getelementptr inbounds [0 x i8], ptr %_6, i64 0, i64 2, !dbg !3962
  %13 = or disjoint i8 %_30.i, -128, !dbg !3962
  store i8 %13, ptr %12, align 2, !dbg !3962, !alias.scope !3943
  br label %_ZN4core4char7methods15encode_utf8_raw17h5f137a0ef0f8a40dE.exit, !dbg !3963

bb9.i:                                            ; preds = %bb14.i
  tail call void @llvm.dbg.value(metadata i64 4, metadata !3918, metadata !DIExpression()), !dbg !3940
  tail call void @llvm.dbg.value(metadata ptr %_6, metadata !3930, metadata !DIExpression()), !dbg !3964
  tail call void @llvm.dbg.value(metadata ptr %_6, metadata !3932, metadata !DIExpression(DW_OP_plus_uconst, 1, DW_OP_stack_value)), !dbg !3964
  tail call void @llvm.dbg.value(metadata ptr %_6, metadata !3933, metadata !DIExpression(DW_OP_plus_uconst, 2, DW_OP_stack_value)), !dbg !3964
  tail call void @llvm.dbg.value(metadata ptr %_6, metadata !3934, metadata !DIExpression(DW_OP_plus_uconst, 3, DW_OP_stack_value)), !dbg !3964
  %_38.i = lshr i32 %c, 18, !dbg !3965
  %14 = trunc i32 %_38.i to i8, !dbg !3966
  %_36.i = and i8 %14, 7, !dbg !3966
  %15 = or disjoint i8 %_36.i, -16, !dbg !3967
  store i8 %15, ptr %_6, align 4, !dbg !3967, !alias.scope !3943
  %_41.i = lshr i32 %c, 12, !dbg !3968
  %16 = trunc i32 %_41.i to i8, !dbg !3969
  %_39.i = and i8 %16, 63, !dbg !3969
  %17 = getelementptr inbounds [0 x i8], ptr %_6, i64 0, i64 1, !dbg !3970
  %18 = or disjoint i8 %_39.i, -128, !dbg !3970
  store i8 %18, ptr %17, align 1, !dbg !3970, !alias.scope !3943
  %_44.i = lshr i32 %c, 6, !dbg !3971
  %19 = trunc i32 %_44.i to i8, !dbg !3972
  %_42.i = and i8 %19, 63, !dbg !3972
  %20 = getelementptr inbounds [0 x i8], ptr %_6, i64 0, i64 2, !dbg !3973
  %21 = or disjoint i8 %_42.i, -128, !dbg !3973
  store i8 %21, ptr %20, align 2, !dbg !3973, !alias.scope !3943
  %22 = trunc i32 %c to i8, !dbg !3974
  %_45.i = and i8 %22, 63, !dbg !3974
  %23 = getelementptr inbounds [0 x i8], ptr %_6, i64 0, i64 3, !dbg !3975
  %24 = or disjoint i8 %_45.i, -128, !dbg !3975
  store i8 %24, ptr %23, align 1, !dbg !3975, !alias.scope !3943
  br label %_ZN4core4char7methods15encode_utf8_raw17h5f137a0ef0f8a40dE.exit, !dbg !3976

_ZN4core4char7methods15encode_utf8_raw17h5f137a0ef0f8a40dE.exit: ; preds = %bb6.i, %bb7.i, %bb8.i, %bb9.i
  %_419.i = phi i64 [ 4, %bb9.i ], [ 3, %bb8.i ], [ 2, %bb7.i ], [ 1, %bb6.i ]
; call <std::io::Write::write_fmt::Adapter<T> as core::fmt::Write>::write_str
  %_0 = call noundef zeroext i1 @"_ZN80_$LT$std..io..Write..write_fmt..Adapter$LT$T$GT$$u20$as$u20$core..fmt..Write$GT$9write_str17heee6ec0f5278702eE"(ptr noalias noundef nonnull align 8 dereferenceable(16) %self, ptr noalias noundef nonnull readonly align 1 %_6, i64 noundef %_419.i), !dbg !3977
  call void @llvm.lifetime.end.p0(i64 4, ptr nonnull %_6), !dbg !3978
  ret i1 %_0, !dbg !3979
}

; core::fmt::Write::write_fmt
; Function Attrs: nonlazybind uwtable
define internal noundef zeroext i1 @_ZN4core3fmt5Write9write_fmt17hfe79b31b7c95ebefE(ptr noalias noundef align 8 dereferenceable(16) %self, ptr noalias nocapture noundef readonly align 8 dereferenceable(48) %args) unnamed_addr #2 !dbg !3980 {
start:
  tail call void @llvm.dbg.value(metadata ptr %self, metadata !3984, metadata !DIExpression()), !dbg !3986
  call void @llvm.dbg.declare(metadata ptr %args, metadata !3985, metadata !DIExpression()), !dbg !3987
  call void @llvm.dbg.value(metadata ptr %self, metadata !3988, metadata !DIExpression()), !dbg !3998
  call void @llvm.dbg.declare(metadata ptr %args, metadata !3993, metadata !DIExpression()), !dbg !4000
  call void @llvm.dbg.value(metadata ptr %args, metadata !4001, metadata !DIExpression()), !dbg !4010
  call void @llvm.dbg.value(metadata ptr %args, metadata !4012, metadata !DIExpression()), !dbg !4020
  call void @llvm.dbg.value(metadata ptr poison, metadata !4008, metadata !DIExpression(DW_OP_LLVM_fragment, 0, 64)), !dbg !4022
  call void @llvm.dbg.value(metadata i64 poison, metadata !4008, metadata !DIExpression(DW_OP_LLVM_fragment, 64, 64)), !dbg !4022
  call void @llvm.dbg.value(metadata ptr undef, metadata !4023, metadata !DIExpression()), !dbg !4031
; call core::fmt::write
  %0 = tail call noundef zeroext i1 @_ZN4core3fmt5write17h2b71bd12250911d0E(ptr noundef nonnull align 1 %self, ptr noalias noundef nonnull readonly align 8 dereferenceable(48) @vtable.0, ptr noalias nocapture noundef nonnull readonly align 8 dereferenceable(48) %args), !dbg !4033
  ret i1 %0, !dbg !4034
}

; core::ops::function::FnOnce::call_once{{vtable.shim}}
; Function Attrs: inlinehint nonlazybind uwtable
define internal void @"_ZN4core3ops8function6FnOnce40call_once$u7b$$u7b$vtable.shim$u7d$$u7d$17ha1e38f92271d72a6E"(ptr nocapture noundef readonly %_1) unnamed_addr #3 personality ptr @rust_eh_personality !dbg !4035 {
start:
  %_x.i = alloca [8 x i8], align 8
  %_7.i = alloca [8 x i8], align 8
  tail call void @llvm.dbg.value(metadata ptr %_1, metadata !4043, metadata !DIExpression()), !dbg !4048
  call void @llvm.dbg.declare(metadata ptr undef, metadata !4044, metadata !DIExpression()), !dbg !4049
  tail call void @llvm.experimental.noalias.scope.decl(metadata !4050), !dbg !4049
  call void @llvm.dbg.declare(metadata ptr %_1, metadata !4053, metadata !DIExpression()), !dbg !4077
  call void @llvm.dbg.declare(metadata ptr %_1, metadata !4058, metadata !DIExpression(DW_OP_plus_uconst, 16)), !dbg !4079
  call void @llvm.dbg.declare(metadata ptr %_1, metadata !4059, metadata !DIExpression(DW_OP_plus_uconst, 24)), !dbg !4080
  call void @llvm.dbg.declare(metadata ptr %_1, metadata !4060, metadata !DIExpression(DW_OP_plus_uconst, 8)), !dbg !4081
  call void @llvm.dbg.declare(metadata ptr %_x.i, metadata !4082, metadata !DIExpression()), !dbg !4090
  %_1.val.i = load ptr, ptr %_1, align 8, !dbg !4092, !alias.scope !4050, !nonnull !29, !noundef !29
  call void @llvm.dbg.value(metadata ptr undef, metadata !4093, metadata !DIExpression()), !dbg !4116
  %0 = getelementptr inbounds i8, ptr %_1.val.i, i64 16, !dbg !4118
  %_4.i.i = load i64, ptr %0, align 8, !dbg !4118, !range !1944, !noalias !4050, !noundef !29
  switch i64 %_4.i.i, label %default.unreachable [
    i64 0, label %bb2.i
    i64 1, label %bb4.i.i
    i64 2, label %bb3.i
  ], !dbg !4119

default.unreachable:                              ; preds = %start
  unreachable

bb4.i.i:                                          ; preds = %start
  call void @llvm.dbg.value(metadata ptr %0, metadata !4113, metadata !DIExpression(DW_OP_plus_uconst, 8, DW_OP_stack_value)), !dbg !4120
  call void @llvm.dbg.value(metadata ptr %0, metadata !4121, metadata !DIExpression(DW_OP_plus_uconst, 8, DW_OP_stack_value)), !dbg !4129
  call void @llvm.dbg.value(metadata ptr %0, metadata !4131, metadata !DIExpression(DW_OP_plus_uconst, 8, DW_OP_stack_value)), !dbg !4138
  %1 = getelementptr inbounds i8, ptr %_1.val.i, i64 24, !dbg !4140
  %_16.0.i.i = load ptr, ptr %1, align 8, !dbg !4140, !noalias !4050, !nonnull !29, !noundef !29
  %2 = getelementptr inbounds i8, ptr %_1.val.i, i64 32, !dbg !4140
  %_16.1.i.i = load i64, ptr %2, align 8, !dbg !4140, !noalias !4050, !noundef !29
  br label %bb2.i, !dbg !4141

bb2.i:                                            ; preds = %bb4.i.i, %start
  %_0.sroa.4.0.i.ph.i = phi i64 [ 5, %start ], [ %_16.1.i.i, %bb4.i.i ]
  %_0.sroa.0.0.i.ph.i = phi ptr [ @alloc_27a350529968e04bcc7d9b6f40cc7e95, %start ], [ %_16.0.i.i, %bb4.i.i ]
  call void @llvm.dbg.value(metadata ptr %_0.sroa.0.0.i.ph.i, metadata !4061, metadata !DIExpression(DW_OP_LLVM_fragment, 0, 64)), !dbg !4142
  call void @llvm.dbg.value(metadata i64 %_0.sroa.4.0.i.ph.i, metadata !4061, metadata !DIExpression(DW_OP_LLVM_fragment, 64, 64)), !dbg !4142
; invoke std::sys::pal::unix::thread::Thread::set_name
  invoke void @_ZN3std3sys3pal4unix6thread6Thread8set_name17ha131d87557654405E(ptr noalias noundef nonnull readonly align 1 %_0.sroa.0.0.i.ph.i, i64 noundef %_0.sroa.4.0.i.ph.i)
          to label %bb3.i unwind label %bb18.i, !dbg !4143, !noalias !4050

bb3.i:                                            ; preds = %bb2.i, %start
  call void @llvm.lifetime.start.p0(i64 8, ptr nonnull %_7.i), !dbg !4144, !noalias !4050
  %3 = getelementptr inbounds i8, ptr %_1, i64 16, !dbg !4145
  %_8.i = load ptr, ptr %3, align 8, !dbg !4145, !alias.scope !4050, !noundef !29
; invoke std::io::stdio::set_output_capture
  %4 = invoke noundef ptr @_ZN3std2io5stdio18set_output_capture17h9f17c3ca997aa2eaE(ptr noundef %_8.i)
          to label %bb4.i unwind label %bb18.i, !dbg !4144, !noalias !4050

bb4.i:                                            ; preds = %bb3.i
  store ptr %4, ptr %_7.i, align 8, !dbg !4144, !noalias !4050
  call void @llvm.dbg.value(metadata ptr %_7.i, metadata !4146, metadata !DIExpression()), !dbg !4154
  %5 = icmp eq ptr %4, null, !dbg !4156
  br i1 %5, label %bb5.i, label %bb2.i20.i, !dbg !4156

bb2.i20.i:                                        ; preds = %bb4.i
  call void @llvm.dbg.value(metadata ptr %_7.i, metadata !4157, metadata !DIExpression()), !dbg !4163
  call void @llvm.dbg.value(metadata i64 1, metadata !4165, metadata !DIExpression()), !dbg !4171
  call void @llvm.dbg.value(metadata i8 1, metadata !4170, metadata !DIExpression()), !dbg !4171
  call void @llvm.dbg.value(metadata i64 1, metadata !4180, metadata !DIExpression()), !dbg !4186
  call void @llvm.dbg.value(metadata i8 1, metadata !4185, metadata !DIExpression()), !dbg !4186
  call void @llvm.dbg.value(metadata i8 2, metadata !4188, metadata !DIExpression()), !dbg !4192
  call void @llvm.dbg.value(metadata ptr %_7.i, metadata !4178, metadata !DIExpression()), !dbg !4194
  call void @llvm.dbg.value(metadata ptr %4, metadata !4169, metadata !DIExpression()), !dbg !4171
  call void @llvm.dbg.value(metadata ptr %4, metadata !4184, metadata !DIExpression()), !dbg !4186
  %6 = atomicrmw sub ptr %4, i64 1 release, align 8, !dbg !4195, !noalias !4196
  %7 = icmp eq i64 %6, 1, !dbg !4203
  br i1 %7, label %bb2.i.i.i.i, label %bb5.i, !dbg !4203

bb2.i.i.i.i:                                      ; preds = %bb2.i20.i
  fence acquire, !dbg !4204
; call alloc::sync::Arc<T,A>::drop_slow
  call fastcc void @"_ZN5alloc4sync16Arc$LT$T$C$A$GT$9drop_slow17h3018a1c589308981E"(ptr noalias noundef nonnull align 8 dereferenceable(8) %_7.i), !dbg !4205, !noalias !4050
  br label %bb5.i, !dbg !4205

bb5.i:                                            ; preds = %bb2.i.i.i.i, %bb2.i20.i, %bb4.i
  call void @llvm.lifetime.end.p0(i64 8, ptr nonnull %_7.i), !dbg !4206, !noalias !4050
  %8 = getelementptr inbounds i8, ptr %_1, i64 24, !dbg !4207
  %9 = load ptr, ptr %8, align 8, !dbg !4207, !alias.scope !4050, !nonnull !29, !noundef !29
  call void @llvm.dbg.value(metadata ptr %9, metadata !4073, metadata !DIExpression()), !dbg !4208
; invoke std::thread::set_current
  invoke void @_ZN3std6thread11set_current17h6380c44a3d337c7dE(ptr noundef nonnull %_1.val.i)
          to label %bb6.i unwind label %bb12.thread60.i, !dbg !4209, !noalias !4050

bb12.thread60.i:                                  ; preds = %bb5.i
  %10 = landingpad { ptr, i32 }
          cleanup
  br label %bb13.i, !dbg !4210

bb6.i:                                            ; preds = %bb5.i
  call void @llvm.dbg.value(metadata ptr %9, metadata !4211, metadata !DIExpression()), !dbg !4230
  call void @llvm.dbg.value(metadata ptr %9, metadata !4232, metadata !DIExpression()), !dbg !4253
  call void @llvm.dbg.value(metadata ptr %9, metadata !4235, metadata !DIExpression(DW_OP_LLVM_fragment, 0, 64)), !dbg !4255
  call void @llvm.dbg.value(metadata ptr undef, metadata !4250, metadata !DIExpression()), !dbg !4256
  call void @llvm.dbg.value(metadata ptr undef, metadata !4257, metadata !DIExpression()), !dbg !4267
  call void @llvm.dbg.value(metadata ptr undef, metadata !4260, metadata !DIExpression()), !dbg !4269
  call void @llvm.dbg.value(metadata ptr undef, metadata !4263, metadata !DIExpression()), !dbg !4270
  call void @llvm.dbg.value(metadata ptr %9, metadata !4265, metadata !DIExpression()), !dbg !4271
  call void @llvm.dbg.declare(metadata ptr undef, metadata !4272, metadata !DIExpression()), !dbg !4283
  call void @llvm.dbg.value(metadata ptr %9, metadata !4279, metadata !DIExpression()), !dbg !4285
  call void @llvm.dbg.declare(metadata ptr undef, metadata !4280, metadata !DIExpression()), !dbg !4283
  call void @llvm.dbg.value(metadata ptr %9, metadata !4286, metadata !DIExpression()), !dbg !4291
; invoke std::sys_common::backtrace::__rust_begin_short_backtrace
  invoke fastcc void @_ZN3std10sys_common9backtrace28__rust_begin_short_backtrace17h6384577e1009fa0dE(ptr noundef nonnull align 8 %9)
          to label %bb21.i unwind label %catch.i.i.i, !dbg !4293, !noalias !4050

catch.i.i.i:                                      ; preds = %bb6.i
  %11 = landingpad { ptr, i32 }
          cleanup
          catch ptr null, !dbg !4294
  %12 = extractvalue { ptr, i32 } %11, 0, !dbg !4294
  call void @llvm.dbg.value(metadata ptr undef, metadata !4295, metadata !DIExpression()), !dbg !4305
  call void @llvm.dbg.value(metadata ptr %12, metadata !4298, metadata !DIExpression()), !dbg !4305
  call void @llvm.dbg.value(metadata ptr undef, metadata !4299, metadata !DIExpression()), !dbg !4307
  call void @llvm.dbg.value(metadata ptr undef, metadata !4301, metadata !DIExpression()), !dbg !4308
; invoke std::panicking::try::cleanup
  %13 = invoke { ptr, ptr } @_ZN3std9panicking3try7cleanup17hd6ade9b987c70092E(ptr noundef %12)
          to label %15 unwind label %terminate.i.i.i, !dbg !4309

terminate.i.i.i:                                  ; preds = %catch.i.i.i
  %14 = landingpad { ptr, i32 }
          filter [0 x ptr] zeroinitializer
; call core::panicking::panic_cannot_unwind
  tail call void @_ZN4core9panicking19panic_cannot_unwind17h3f96c9c07954d1a5E() #25, !dbg !4310, !noalias !4050
  unreachable, !dbg !4310

15:                                               ; preds = %catch.i.i.i
  %obj.0.i.i.i = extractvalue { ptr, ptr } %13, 0, !dbg !4309
  %obj.1.i.i.i = extractvalue { ptr, ptr } %13, 1, !dbg !4309
  call void @llvm.dbg.value(metadata ptr %obj.0.i.i.i, metadata !4235, metadata !DIExpression(DW_OP_LLVM_fragment, 0, 64)), !dbg !4255
  call void @llvm.dbg.value(metadata ptr %obj.1.i.i.i, metadata !4235, metadata !DIExpression(DW_OP_LLVM_fragment, 64, 64)), !dbg !4255
  br label %bb21.i, !dbg !4294

bb21.i:                                           ; preds = %15, %bb6.i
  %16 = phi ptr [ %obj.1.i.i.i, %15 ], [ undef, %bb6.i ]
  %17 = phi ptr [ %obj.0.i.i.i, %15 ], [ null, %bb6.i ]
  call void @llvm.dbg.value(metadata ptr %17, metadata !4075, metadata !DIExpression(DW_OP_LLVM_fragment, 0, 64)), !dbg !4311
  call void @llvm.dbg.value(metadata ptr %16, metadata !4075, metadata !DIExpression(DW_OP_LLVM_fragment, 64, 64)), !dbg !4311
  call void @llvm.dbg.value(metadata ptr %_1, metadata !4312, metadata !DIExpression(DW_OP_plus_uconst, 8, DW_OP_stack_value)), !dbg !4321
  call void @llvm.dbg.value(metadata ptr %_1, metadata !4323, metadata !DIExpression(DW_OP_plus_uconst, 8, DW_OP_stack_value)), !dbg !4331
  call void @llvm.dbg.value(metadata ptr %_1, metadata !4333, metadata !DIExpression(DW_OP_plus_uconst, 8, DW_OP_stack_value)), !dbg !4341
  %18 = getelementptr inbounds i8, ptr %_1, i64 8, !dbg !4343
  %self8.i = load ptr, ptr %18, align 8, !dbg !4343, !alias.scope !4050, !nonnull !29, !noundef !29
  call void @llvm.dbg.value(metadata ptr %self8.i, metadata !4344, metadata !DIExpression(DW_OP_plus_uconst, 16, DW_OP_plus_uconst, 8, DW_OP_stack_value)), !dbg !4354
  %_35.i = getelementptr inbounds i8, ptr %self8.i, i64 24, !dbg !4356
  tail call void @llvm.experimental.noalias.scope.decl(metadata !4357), !dbg !4360
  call void @llvm.dbg.value(metadata ptr %_35.i, metadata !4361, metadata !DIExpression()), !dbg !4366
  %_2.i.i = load i64, ptr %_35.i, align 8, !dbg !4368, !range !4369, !alias.scope !4357, !noalias !4050, !noundef !29
  %19 = icmp eq i64 %_2.i.i, 0, !dbg !4368
  br i1 %19, label %bb7.i, label %bb2.i21.i, !dbg !4368

bb2.i21.i:                                        ; preds = %bb21.i
  %20 = getelementptr inbounds i8, ptr %self8.i, i64 32, !dbg !4368
  %.val.i.i = load ptr, ptr %20, align 8, !dbg !4368, !alias.scope !4357, !noalias !4050, !noundef !29
  %21 = getelementptr inbounds i8, ptr %self8.i, i64 40, !dbg !4368
  %.val1.i.i = load ptr, ptr %21, align 8, !dbg !4368, !alias.scope !4357, !noalias !4050
  call void @llvm.dbg.value(metadata ptr undef, metadata !4370, metadata !DIExpression()), !dbg !4376
  %22 = icmp eq ptr %.val.i.i, null, !dbg !4378
  br i1 %22, label %bb7.i, label %bb2.i.i.i, !dbg !4378

bb2.i.i.i:                                        ; preds = %bb2.i21.i
  %23 = icmp ne ptr %.val1.i.i, null
  tail call void @llvm.assume(i1 %23)
  call void @llvm.dbg.value(metadata ptr undef, metadata !2617, metadata !DIExpression()), !dbg !4379
  %24 = load ptr, ptr %.val1.i.i, align 8, !dbg !4381, !invariant.load !29, !noalias !4382
  %.not.i.i.i.i = icmp eq ptr %24, null, !dbg !4381
  br i1 %.not.i.i.i.i, label %bb3.i.i.i.i, label %is_not_null.i.i.i.i, !dbg !4381

is_not_null.i.i.i.i:                              ; preds = %bb2.i.i.i
  invoke void %24(ptr noundef nonnull align 1 %.val.i.i)
          to label %bb3.i.i.i.i unwind label %cleanup.i.i.i.i, !dbg !4381, !noalias !4382

bb3.i.i.i.i:                                      ; preds = %is_not_null.i.i.i.i, %bb2.i.i.i
  call void @llvm.dbg.value(metadata ptr undef, metadata !2626, metadata !DIExpression()), !dbg !4383
  call void @llvm.dbg.value(metadata ptr %.val.i.i, metadata !2635, metadata !DIExpression(DW_OP_LLVM_fragment, 0, 64)), !dbg !4385
  call void @llvm.dbg.value(metadata ptr %.val1.i.i, metadata !2635, metadata !DIExpression(DW_OP_LLVM_fragment, 64, 64)), !dbg !4385
  call void @llvm.dbg.value(metadata ptr %.val.i.i, metadata !2657, metadata !DIExpression(DW_OP_LLVM_fragment, 0, 64)), !dbg !4386
  call void @llvm.dbg.value(metadata ptr %.val.i.i, metadata !2670, metadata !DIExpression(DW_OP_LLVM_fragment, 0, 64)), !dbg !4388
  call void @llvm.dbg.value(metadata ptr %.val.i.i, metadata !2679, metadata !DIExpression(DW_OP_LLVM_fragment, 0, 64)), !dbg !4390
  call void @llvm.dbg.value(metadata ptr %.val1.i.i, metadata !2657, metadata !DIExpression(DW_OP_LLVM_fragment, 64, 64)), !dbg !4386
  call void @llvm.dbg.value(metadata ptr %.val1.i.i, metadata !2670, metadata !DIExpression(DW_OP_LLVM_fragment, 64, 64)), !dbg !4388
  call void @llvm.dbg.value(metadata ptr %.val1.i.i, metadata !2679, metadata !DIExpression(DW_OP_LLVM_fragment, 64, 64)), !dbg !4390
  %25 = getelementptr inbounds i8, ptr %.val1.i.i, i64 8, !dbg !4392
  %26 = load i64, ptr %25, align 8, !dbg !4392, !range !2686, !invariant.load !29, !noalias !4382
  %27 = getelementptr inbounds i8, ptr %.val1.i.i, i64 16, !dbg !4392
  call void @llvm.dbg.value(metadata i64 %26, metadata !2665, metadata !DIExpression()), !dbg !4393
  call void @llvm.dbg.value(metadata i64 %26, metadata !2688, metadata !DIExpression()), !dbg !4394
  %28 = load i64, ptr %27, align 8, !dbg !4396, !range !2699, !invariant.load !29, !noalias !4382
  call void @llvm.dbg.value(metadata i64 %28, metadata !2667, metadata !DIExpression()), !dbg !4393
  call void @llvm.dbg.value(metadata i64 %28, metadata !2695, metadata !DIExpression()), !dbg !4394
  call void @llvm.dbg.value(metadata i64 %28, metadata !2700, metadata !DIExpression()), !dbg !4397
  %29 = icmp ult i64 %28, -9223372036854775807, !dbg !4399
  tail call void @llvm.assume(i1 %29), !dbg !4399
  call void @llvm.dbg.value(metadata i64 %26, metadata !2651, metadata !DIExpression(DW_OP_LLVM_fragment, 64, 64)), !dbg !4400
  call void @llvm.dbg.value(metadata i64 %28, metadata !2651, metadata !DIExpression(DW_OP_LLVM_fragment, 0, 64)), !dbg !4400
  %30 = icmp eq i64 %26, 0, !dbg !4401
  br i1 %30, label %bb7.i, label %"_ZN63_$LT$alloc..alloc..Global$u20$as$u20$core..alloc..Allocator$GT$10deallocate17h0f2d39528d187dc6E.exit.i.i.i.i.i", !dbg !4401

"_ZN63_$LT$alloc..alloc..Global$u20$as$u20$core..alloc..Allocator$GT$10deallocate17h0f2d39528d187dc6E.exit.i.i.i.i.i": ; preds = %bb3.i.i.i.i
  call void @llvm.dbg.value(metadata i64 %28, metadata !2713, metadata !DIExpression(DW_OP_LLVM_fragment, 0, 64)), !dbg !4402
  call void @llvm.dbg.value(metadata i64 %26, metadata !2713, metadata !DIExpression(DW_OP_LLVM_fragment, 64, 64)), !dbg !4402
  call void @llvm.dbg.value(metadata ptr undef, metadata !2721, metadata !DIExpression()), !dbg !4402
  call void @llvm.dbg.value(metadata ptr %.val.i.i, metadata !2722, metadata !DIExpression()), !dbg !4402
  call void @llvm.dbg.value(metadata ptr %.val.i.i, metadata !2725, metadata !DIExpression()), !dbg !4404
  call void @llvm.dbg.value(metadata i64 %28, metadata !2731, metadata !DIExpression(DW_OP_LLVM_fragment, 0, 64)), !dbg !4404
  call void @llvm.dbg.value(metadata i64 %26, metadata !2731, metadata !DIExpression(DW_OP_LLVM_fragment, 64, 64)), !dbg !4404
  tail call void @__rust_dealloc(ptr noundef nonnull %.val.i.i, i64 noundef %26, i64 noundef %28) #26, !dbg !4406, !noalias !4382
  br label %bb7.i, !dbg !4407

cleanup.i.i.i.i:                                  ; preds = %is_not_null.i.i.i.i
  %31 = landingpad { ptr, i32 }
          cleanup
  call void @llvm.dbg.value(metadata ptr undef, metadata !2626, metadata !DIExpression()), !dbg !4408
  call void @llvm.dbg.value(metadata ptr %.val.i.i, metadata !2635, metadata !DIExpression(DW_OP_LLVM_fragment, 0, 64)), !dbg !4410
  call void @llvm.dbg.value(metadata ptr %.val1.i.i, metadata !2635, metadata !DIExpression(DW_OP_LLVM_fragment, 64, 64)), !dbg !4410
  call void @llvm.dbg.value(metadata ptr %.val.i.i, metadata !2657, metadata !DIExpression(DW_OP_LLVM_fragment, 0, 64)), !dbg !4411
  call void @llvm.dbg.value(metadata ptr %.val.i.i, metadata !2670, metadata !DIExpression(DW_OP_LLVM_fragment, 0, 64)), !dbg !4413
  call void @llvm.dbg.value(metadata ptr %.val.i.i, metadata !2679, metadata !DIExpression(DW_OP_LLVM_fragment, 0, 64)), !dbg !4415
  call void @llvm.dbg.value(metadata ptr %.val1.i.i, metadata !2657, metadata !DIExpression(DW_OP_LLVM_fragment, 64, 64)), !dbg !4411
  call void @llvm.dbg.value(metadata ptr %.val1.i.i, metadata !2670, metadata !DIExpression(DW_OP_LLVM_fragment, 64, 64)), !dbg !4413
  call void @llvm.dbg.value(metadata ptr %.val1.i.i, metadata !2679, metadata !DIExpression(DW_OP_LLVM_fragment, 64, 64)), !dbg !4415
  %32 = getelementptr inbounds i8, ptr %.val1.i.i, i64 8, !dbg !4417
  %33 = load i64, ptr %32, align 8, !dbg !4417, !range !2686, !invariant.load !29, !noalias !4382
  %34 = getelementptr inbounds i8, ptr %.val1.i.i, i64 16, !dbg !4417
  call void @llvm.dbg.value(metadata i64 %33, metadata !2665, metadata !DIExpression()), !dbg !4418
  call void @llvm.dbg.value(metadata i64 %33, metadata !2688, metadata !DIExpression()), !dbg !4419
  %35 = load i64, ptr %34, align 8, !dbg !4421, !range !2699, !invariant.load !29, !noalias !4382
  call void @llvm.dbg.value(metadata i64 %35, metadata !2667, metadata !DIExpression()), !dbg !4418
  call void @llvm.dbg.value(metadata i64 %35, metadata !2695, metadata !DIExpression()), !dbg !4419
  call void @llvm.dbg.value(metadata i64 %35, metadata !2700, metadata !DIExpression()), !dbg !4422
  %36 = icmp ult i64 %35, -9223372036854775807, !dbg !4424
  tail call void @llvm.assume(i1 %36), !dbg !4424
  call void @llvm.dbg.value(metadata i64 %33, metadata !2651, metadata !DIExpression(DW_OP_LLVM_fragment, 64, 64)), !dbg !4425
  call void @llvm.dbg.value(metadata i64 %35, metadata !2651, metadata !DIExpression(DW_OP_LLVM_fragment, 0, 64)), !dbg !4425
  %37 = icmp eq i64 %33, 0, !dbg !4426
  br i1 %37, label %cleanup13.body.i, label %"_ZN63_$LT$alloc..alloc..Global$u20$as$u20$core..alloc..Allocator$GT$10deallocate17h0f2d39528d187dc6E.exit.i4.i.i.i.i", !dbg !4426

"_ZN63_$LT$alloc..alloc..Global$u20$as$u20$core..alloc..Allocator$GT$10deallocate17h0f2d39528d187dc6E.exit.i4.i.i.i.i": ; preds = %cleanup.i.i.i.i
  call void @llvm.dbg.value(metadata i64 %35, metadata !2713, metadata !DIExpression(DW_OP_LLVM_fragment, 0, 64)), !dbg !4427
  call void @llvm.dbg.value(metadata i64 %33, metadata !2713, metadata !DIExpression(DW_OP_LLVM_fragment, 64, 64)), !dbg !4427
  call void @llvm.dbg.value(metadata ptr undef, metadata !2721, metadata !DIExpression()), !dbg !4427
  call void @llvm.dbg.value(metadata ptr %.val.i.i, metadata !2722, metadata !DIExpression()), !dbg !4427
  call void @llvm.dbg.value(metadata ptr %.val.i.i, metadata !2725, metadata !DIExpression()), !dbg !4429
  call void @llvm.dbg.value(metadata i64 %35, metadata !2731, metadata !DIExpression(DW_OP_LLVM_fragment, 0, 64)), !dbg !4429
  call void @llvm.dbg.value(metadata i64 %33, metadata !2731, metadata !DIExpression(DW_OP_LLVM_fragment, 64, 64)), !dbg !4429
  tail call void @__rust_dealloc(ptr noundef nonnull %.val.i.i, i64 noundef %33, i64 noundef %35) #26, !dbg !4431, !noalias !4382
  br label %cleanup13.body.i, !dbg !4432

cleanup13.body.i:                                 ; preds = %"_ZN63_$LT$alloc..alloc..Global$u20$as$u20$core..alloc..Allocator$GT$10deallocate17h0f2d39528d187dc6E.exit.i4.i.i.i.i", %cleanup.i.i.i.i
  store i64 1, ptr %_35.i, align 8, !dbg !4360, !noalias !4050
  store ptr %17, ptr %20, align 8, !dbg !4360, !noalias !4050
  store ptr %16, ptr %21, align 8, !dbg !4360, !noalias !4050
  br label %bb13.i, !dbg !4433

bb7.i:                                            ; preds = %"_ZN63_$LT$alloc..alloc..Global$u20$as$u20$core..alloc..Allocator$GT$10deallocate17h0f2d39528d187dc6E.exit.i.i.i.i.i", %bb3.i.i.i.i, %bb2.i21.i, %bb21.i
  store i64 1, ptr %_35.i, align 8, !dbg !4360, !noalias !4050
  %_16.sroa.5.0._35.sroa_idx.i = getelementptr inbounds i8, ptr %self8.i, i64 32, !dbg !4360
  store ptr %17, ptr %_16.sroa.5.0._35.sroa_idx.i, align 8, !dbg !4360, !noalias !4050
  %_16.sroa.6.0._35.sroa_idx.i = getelementptr inbounds i8, ptr %self8.i, i64 40, !dbg !4360
  store ptr %16, ptr %_16.sroa.6.0._35.sroa_idx.i, align 8, !dbg !4360, !noalias !4050
  call void @llvm.lifetime.start.p0(i64 8, ptr nonnull %_x.i), !dbg !4434, !noalias !4050
  store ptr %self8.i, ptr %_x.i, align 8, !dbg !4434, !noalias !4050
  call void @llvm.dbg.value(metadata ptr %_x.i, metadata !4435, metadata !DIExpression()), !dbg !4441
  call void @llvm.dbg.value(metadata i64 1, metadata !4443, metadata !DIExpression()), !dbg !4449
  call void @llvm.dbg.value(metadata i8 1, metadata !4448, metadata !DIExpression()), !dbg !4449
  call void @llvm.dbg.value(metadata i64 1, metadata !4458, metadata !DIExpression()), !dbg !4464
  call void @llvm.dbg.value(metadata i8 1, metadata !4463, metadata !DIExpression()), !dbg !4464
  call void @llvm.dbg.value(metadata i8 2, metadata !4466, metadata !DIExpression()), !dbg !4470
  call void @llvm.dbg.value(metadata ptr %_x.i, metadata !4456, metadata !DIExpression()), !dbg !4472
  call void @llvm.dbg.value(metadata ptr %_x.i, metadata !4473, metadata !DIExpression()), !dbg !4477
  call void @llvm.dbg.value(metadata ptr %_x.i, metadata !4479, metadata !DIExpression()), !dbg !4483
  call void @llvm.dbg.value(metadata ptr %self8.i, metadata !4447, metadata !DIExpression()), !dbg !4449
  call void @llvm.dbg.value(metadata ptr %self8.i, metadata !4462, metadata !DIExpression()), !dbg !4464
  %38 = atomicrmw sub ptr %self8.i, i64 1 release, align 8, !dbg !4485, !noalias !4486
  %39 = icmp eq i64 %38, 1, !dbg !4491
  br i1 %39, label %bb2.i.i22.i, label %"_ZN3std6thread7Builder16spawn_unchecked_28_$u7b$$u7b$closure$u7d$$u7d$17h061690220c8c1088E.exit", !dbg !4491

bb2.i.i22.i:                                      ; preds = %bb7.i
  fence acquire, !dbg !4492
; call alloc::sync::Arc<T,A>::drop_slow
  call fastcc void @"_ZN5alloc4sync16Arc$LT$T$C$A$GT$9drop_slow17hf6ca5d5f22260cdeE"(ptr noalias noundef nonnull align 8 dereferenceable(8) %_x.i), !dbg !4493, !noalias !4050
  br label %"_ZN3std6thread7Builder16spawn_unchecked_28_$u7b$$u7b$closure$u7d$$u7d$17h061690220c8c1088E.exit"

bb16.i:                                           ; preds = %bb2.i.i.i.i.i, %bb18.i
  br i1 %_25.sroa.0.1.i, label %bb17.i, label %bb13.i, !dbg !4210

bb18.i:                                           ; preds = %bb3.i, %bb2.i
  %_25.sroa.0.1.i = phi i1 [ false, %bb3.i ], [ true, %bb2.i ], !dbg !4494
  %40 = landingpad { ptr, i32 }
          cleanup
  call void @llvm.dbg.value(metadata ptr %_1, metadata !4495, metadata !DIExpression()), !dbg !4503
  call void @llvm.dbg.value(metadata ptr %_1, metadata !4505, metadata !DIExpression()), !dbg !4513
  call void @llvm.dbg.value(metadata ptr %_1, metadata !4515, metadata !DIExpression()), !dbg !4523
  call void @llvm.dbg.value(metadata i64 1, metadata !4525, metadata !DIExpression()), !dbg !4531
  call void @llvm.dbg.value(metadata i8 1, metadata !4530, metadata !DIExpression()), !dbg !4531
  call void @llvm.dbg.value(metadata i64 1, metadata !4540, metadata !DIExpression()), !dbg !4546
  call void @llvm.dbg.value(metadata i8 1, metadata !4545, metadata !DIExpression()), !dbg !4546
  call void @llvm.dbg.value(metadata i8 2, metadata !4548, metadata !DIExpression()), !dbg !4552
  call void @llvm.dbg.value(metadata ptr %_1, metadata !4538, metadata !DIExpression()), !dbg !4554
  call void @llvm.dbg.value(metadata ptr %_1.val.i, metadata !4529, metadata !DIExpression()), !dbg !4531
  call void @llvm.dbg.value(metadata ptr %_1.val.i, metadata !4544, metadata !DIExpression()), !dbg !4546
  %41 = atomicrmw sub ptr %_1.val.i, i64 1 release, align 8, !dbg !4555, !noalias !4556
  %42 = icmp eq i64 %41, 1, !dbg !4565
  br i1 %42, label %bb2.i.i.i.i.i, label %bb16.i, !dbg !4565

bb2.i.i.i.i.i:                                    ; preds = %bb18.i
  fence acquire, !dbg !4566
; call alloc::sync::Arc<T,A>::drop_slow
  tail call fastcc void @"_ZN5alloc4sync16Arc$LT$T$C$A$GT$9drop_slow17hc454e1568c2c3c7eE"(ptr noalias noundef nonnull align 8 dereferenceable(8) %_1), !dbg !4567
  br label %bb16.i, !dbg !4567

terminate.i:                                      ; preds = %bb2.i.i27.i
  %43 = landingpad { ptr, i32 }
          filter [0 x ptr] zeroinitializer
; call core::panicking::panic_in_cleanup
  tail call void @_ZN4core9panicking16panic_in_cleanup17h43442956f23e9cbeE() #25, !dbg !4568, !noalias !4050
  unreachable, !dbg !4568

bb17.i:                                           ; preds = %bb16.i
  %44 = getelementptr inbounds i8, ptr %_1, i64 16, !dbg !4210
  tail call void @llvm.experimental.noalias.scope.decl(metadata !4569), !dbg !4210
  call void @llvm.dbg.value(metadata ptr %44, metadata !4146, metadata !DIExpression()), !dbg !4572
  %45 = load ptr, ptr %44, align 8, !dbg !4574, !alias.scope !4575, !noundef !29
  %46 = icmp eq ptr %45, null, !dbg !4574
  br i1 %46, label %bb13.i, label %bb2.i23.i, !dbg !4574

bb2.i23.i:                                        ; preds = %bb17.i
  call void @llvm.dbg.value(metadata ptr %44, metadata !4157, metadata !DIExpression()), !dbg !4576
  call void @llvm.dbg.value(metadata i64 1, metadata !4165, metadata !DIExpression()), !dbg !4578
  call void @llvm.dbg.value(metadata i8 1, metadata !4170, metadata !DIExpression()), !dbg !4578
  call void @llvm.dbg.value(metadata i64 1, metadata !4180, metadata !DIExpression()), !dbg !4581
  call void @llvm.dbg.value(metadata i8 1, metadata !4185, metadata !DIExpression()), !dbg !4581
  call void @llvm.dbg.value(metadata i8 2, metadata !4188, metadata !DIExpression()), !dbg !4583
  call void @llvm.dbg.value(metadata ptr %44, metadata !4178, metadata !DIExpression()), !dbg !4585
  call void @llvm.dbg.value(metadata ptr %45, metadata !4169, metadata !DIExpression()), !dbg !4578
  call void @llvm.dbg.value(metadata ptr %45, metadata !4184, metadata !DIExpression()), !dbg !4581
  %47 = atomicrmw sub ptr %45, i64 1 release, align 8, !dbg !4586, !noalias !4587
  %48 = icmp eq i64 %47, 1, !dbg !4592
  br i1 %48, label %bb2.i.i.i24.i, label %bb13.i, !dbg !4592

bb2.i.i.i24.i:                                    ; preds = %bb2.i23.i
  fence acquire, !dbg !4593
; call alloc::sync::Arc<T,A>::drop_slow
  tail call fastcc void @"_ZN5alloc4sync16Arc$LT$T$C$A$GT$9drop_slow17h3018a1c589308981E"(ptr noalias noundef nonnull align 8 dereferenceable(8) %44), !dbg !4594
  br label %bb13.i, !dbg !4594

bb9.i:                                            ; preds = %bb2.i.i27.i, %bb13.i
  resume { ptr, i32 } %.pn37465459.i, !dbg !4568

bb13.i:                                           ; preds = %bb2.i.i.i24.i, %bb2.i23.i, %bb17.i, %bb16.i, %cleanup13.body.i, %bb12.thread60.i
  %.pn37465459.i = phi { ptr, i32 } [ %10, %bb12.thread60.i ], [ %31, %cleanup13.body.i ], [ %40, %bb16.i ], [ %40, %bb17.i ], [ %40, %bb2.i23.i ], [ %40, %bb2.i.i.i24.i ]
  %49 = getelementptr inbounds i8, ptr %_1, i64 8, !dbg !4210
  tail call void @llvm.experimental.noalias.scope.decl(metadata !4595), !dbg !4210
  call void @llvm.dbg.value(metadata ptr %49, metadata !4435, metadata !DIExpression()), !dbg !4598
  tail call void @llvm.experimental.noalias.scope.decl(metadata !4600), !dbg !4603
  call void @llvm.dbg.value(metadata i64 1, metadata !4443, metadata !DIExpression()), !dbg !4604
  call void @llvm.dbg.value(metadata i8 1, metadata !4448, metadata !DIExpression()), !dbg !4604
  call void @llvm.dbg.value(metadata i64 1, metadata !4458, metadata !DIExpression()), !dbg !4607
  call void @llvm.dbg.value(metadata i8 1, metadata !4463, metadata !DIExpression()), !dbg !4607
  call void @llvm.dbg.value(metadata i8 2, metadata !4466, metadata !DIExpression()), !dbg !4609
  call void @llvm.dbg.value(metadata ptr %49, metadata !4456, metadata !DIExpression()), !dbg !4611
  call void @llvm.dbg.value(metadata ptr %49, metadata !4473, metadata !DIExpression()), !dbg !4612
  call void @llvm.dbg.value(metadata ptr %49, metadata !4479, metadata !DIExpression()), !dbg !4614
  %self6.i.i26.i = load ptr, ptr %49, align 8, !dbg !4616, !alias.scope !4617, !nonnull !29, !noundef !29
  call void @llvm.dbg.value(metadata ptr %self6.i.i26.i, metadata !4447, metadata !DIExpression()), !dbg !4604
  call void @llvm.dbg.value(metadata ptr %self6.i.i26.i, metadata !4462, metadata !DIExpression()), !dbg !4607
  %50 = atomicrmw sub ptr %self6.i.i26.i, i64 1 release, align 8, !dbg !4618, !noalias !4617
  %51 = icmp eq i64 %50, 1, !dbg !4619
  br i1 %51, label %bb2.i.i27.i, label %bb9.i, !dbg !4619

bb2.i.i27.i:                                      ; preds = %bb13.i
  fence acquire, !dbg !4620
; invoke alloc::sync::Arc<T,A>::drop_slow
  invoke fastcc void @"_ZN5alloc4sync16Arc$LT$T$C$A$GT$9drop_slow17hf6ca5d5f22260cdeE"(ptr noalias noundef nonnull align 8 dereferenceable(8) %49)
          to label %bb9.i unwind label %terminate.i, !dbg !4621

"_ZN3std6thread7Builder16spawn_unchecked_28_$u7b$$u7b$closure$u7d$$u7d$17h061690220c8c1088E.exit": ; preds = %bb7.i, %bb2.i.i22.i
  call void @llvm.lifetime.end.p0(i64 8, ptr nonnull %_x.i), !dbg !4622, !noalias !4050
  ret void, !dbg !4049
}

; core::ptr::drop_in_place<std::sync::poison::PoisonError<std::sync::mutex::MutexGuard<blocking::Inner>>>
; Function Attrs: nonlazybind uwtable
define internal void @"_ZN4core3ptr110drop_in_place$LT$std..sync..poison..PoisonError$LT$std..sync..mutex..MutexGuard$LT$blocking..Inner$GT$$GT$$GT$17hd7a6e8db19a935feE"(ptr noalias nocapture noundef readonly align 8 dereferenceable(16) %_1) unnamed_addr #2 !dbg !4623 {
start:
  tail call void @llvm.dbg.value(metadata ptr %_1, metadata !4628, metadata !DIExpression()), !dbg !4631
  %_1.val = load ptr, ptr %_1, align 8, !dbg !4632, !alias.scope !4633, !nonnull !29, !align !1938, !noundef !29
  %0 = getelementptr inbounds i8, ptr %_1, i64 8, !dbg !4632
  %_1.val1 = load i8, ptr %0, align 8, !dbg !4632, !range !4636, !alias.scope !4633, !noundef !29
  call void @llvm.dbg.value(metadata ptr undef, metadata !3066, metadata !DIExpression()), !dbg !4637
  call void @llvm.dbg.value(metadata i32 0, metadata !3074, metadata !DIExpression()), !dbg !4639
  call void @llvm.dbg.value(metadata i8 1, metadata !3082, metadata !DIExpression()), !dbg !4639
  call void @llvm.dbg.value(metadata i32 0, metadata !3099, metadata !DIExpression()), !dbg !4643
  call void @llvm.dbg.value(metadata i8 1, metadata !3106, metadata !DIExpression()), !dbg !4643
  call void @llvm.dbg.value(metadata ptr undef, metadata !3097, metadata !DIExpression()), !dbg !4645
  %_3.i.i = getelementptr inbounds i8, ptr %_1.val, i64 4, !dbg !4646
  call void @llvm.dbg.value(metadata ptr @_ZN3std9panicking11panic_count18GLOBAL_PANIC_COUNT17h00e7dcd913cdfbe0E, metadata !3110, metadata !DIExpression()), !dbg !4647
  call void @llvm.dbg.value(metadata i8 0, metadata !3114, metadata !DIExpression()), !dbg !4647
  call void @llvm.dbg.value(metadata i8 1, metadata !3135, metadata !DIExpression()), !dbg !4653
  call void @llvm.dbg.value(metadata i8 0, metadata !3143, metadata !DIExpression()), !dbg !4653
  call void @llvm.dbg.value(metadata ptr %_3.i.i, metadata !3132, metadata !DIExpression()), !dbg !4655
  call void @llvm.dbg.value(metadata ptr undef, metadata !3133, metadata !DIExpression()), !dbg !4655
  %_3.not.i.i.i = icmp eq i8 %_1.val1, 0, !dbg !4656
  br i1 %_3.not.i.i.i, label %bb1.i.i.i, label %_ZN3std4sync6poison4Flag4done17h6b62417d8d60c5ceE.exit.i.i, !dbg !4656

bb1.i.i.i:                                        ; preds = %start
  call void @llvm.dbg.value(metadata i8 0, metadata !1823, metadata !DIExpression()), !dbg !4657
  call void @llvm.dbg.value(metadata ptr @_ZN3std9panicking11panic_count18GLOBAL_PANIC_COUNT17h00e7dcd913cdfbe0E, metadata !1829, metadata !DIExpression()), !dbg !4657
  %1 = load atomic i64, ptr @_ZN3std9panicking11panic_count18GLOBAL_PANIC_COUNT17h00e7dcd913cdfbe0E monotonic, align 8, !dbg !4659, !noalias !4660
  %_7.i.i.i = and i64 %1, 9223372036854775807, !dbg !4663
  %2 = icmp eq i64 %_7.i.i.i, 0, !dbg !4663
  br i1 %2, label %_ZN3std4sync6poison4Flag4done17h6b62417d8d60c5ceE.exit.i.i, label %bb6.i.i.i, !dbg !4663

bb6.i.i.i:                                        ; preds = %bb1.i.i.i
; call std::panicking::panic_count::is_zero_slow_path
  %_6.i.i.i = tail call noundef zeroext i1 @_ZN3std9panicking11panic_count17is_zero_slow_path17h24de30857bbd803cE(), !dbg !4664, !noalias !4660
  br i1 %_6.i.i.i, label %_ZN3std4sync6poison4Flag4done17h6b62417d8d60c5ceE.exit.i.i, label %bb2.i.i.i, !dbg !4665

bb2.i.i.i:                                        ; preds = %bb6.i.i.i
  call void @llvm.dbg.value(metadata ptr %_3.i.i, metadata !3142, metadata !DIExpression()), !dbg !4653
  call void @llvm.dbg.value(metadata i8 0, metadata !3157, metadata !DIExpression()), !dbg !4666
  call void @llvm.dbg.value(metadata ptr %_3.i.i, metadata !3162, metadata !DIExpression()), !dbg !4666
  call void @llvm.dbg.value(metadata i8 1, metadata !3163, metadata !DIExpression()), !dbg !4666
  store atomic i8 1, ptr %_3.i.i monotonic, align 4, !dbg !4668, !noalias !4660
  br label %_ZN3std4sync6poison4Flag4done17h6b62417d8d60c5ceE.exit.i.i, !dbg !4669

_ZN3std4sync6poison4Flag4done17h6b62417d8d60c5ceE.exit.i.i: ; preds = %bb2.i.i.i, %bb6.i.i.i, %bb1.i.i.i, %start
  call void @llvm.dbg.value(metadata ptr %_1.val, metadata !3089, metadata !DIExpression()), !dbg !4670
  call void @llvm.dbg.value(metadata ptr %_1.val, metadata !3081, metadata !DIExpression()), !dbg !4639
  call void @llvm.dbg.value(metadata ptr %_1.val, metadata !3105, metadata !DIExpression()), !dbg !4643
  %3 = atomicrmw xchg ptr %_1.val, i32 0 release, align 4, !dbg !4671, !noalias !4660
  %_8.i.i = icmp eq i32 %3, 2, !dbg !4672
  br i1 %_8.i.i, label %bb2.i.i, label %"_ZN4core3ptr72drop_in_place$LT$std..sync..mutex..MutexGuard$LT$blocking..Inner$GT$$GT$17h771f39b971f5c574E.exit", !dbg !4672

bb2.i.i:                                          ; preds = %_ZN3std4sync6poison4Flag4done17h6b62417d8d60c5ceE.exit.i.i
; call std::sys::sync::mutex::futex::Mutex::wake
  tail call void @_ZN3std3sys4sync5mutex5futex5Mutex4wake17hc487312157454c34E(ptr noundef nonnull align 4 %_1.val), !dbg !4673, !noalias !4660
  br label %"_ZN4core3ptr72drop_in_place$LT$std..sync..mutex..MutexGuard$LT$blocking..Inner$GT$$GT$17h771f39b971f5c574E.exit", !dbg !4673

"_ZN4core3ptr72drop_in_place$LT$std..sync..mutex..MutexGuard$LT$blocking..Inner$GT$$GT$17h771f39b971f5c574E.exit": ; preds = %_ZN3std4sync6poison4Flag4done17h6b62417d8d60c5ceE.exit.i.i, %bb2.i.i
  ret void, !dbg !4632
}

; core::ptr::drop_in_place<core::result::Result<std::thread::JoinHandle<()>,std::io::error::Error>>
; Function Attrs: nonlazybind uwtable
define internal fastcc void @"_ZN4core3ptr112drop_in_place$LT$core..result..Result$LT$std..thread..JoinHandle$LT$$LP$$RP$$GT$$C$std..io..error..Error$GT$$GT$17h51a245974a35af5cE"(ptr noalias noundef align 8 dereferenceable(24) %_1) unnamed_addr #2 personality ptr @rust_eh_personality !dbg !4674 {
start:
  tail call void @llvm.dbg.value(metadata ptr %_1, metadata !4706, metadata !DIExpression()), !dbg !4709
  %0 = load ptr, ptr %_1, align 8, !dbg !4710, !noundef !29
  %.not = icmp eq ptr %0, null, !dbg !4710
  br i1 %.not, label %bb3, label %bb2, !dbg !4710

bb2:                                              ; preds = %start
  call void @llvm.dbg.value(metadata ptr %_1, metadata !4711, metadata !DIExpression()), !dbg !4718
  call void @llvm.dbg.value(metadata ptr %_1, metadata !4720, metadata !DIExpression()), !dbg !4728
  %1 = getelementptr inbounds i8, ptr %_1, i64 16, !dbg !4730
  call void @llvm.dbg.value(metadata ptr %1, metadata !4731, metadata !DIExpression()), !dbg !4739
; invoke <std::sys::pal::unix::thread::Thread as core::ops::drop::Drop>::drop
  invoke void @"_ZN77_$LT$std..sys..pal..unix..thread..Thread$u20$as$u20$core..ops..drop..Drop$GT$4drop17h06df8a1a91b3ec07E"(ptr noalias noundef nonnull align 8 dereferenceable(8) %1)
          to label %bb6.i.i unwind label %cleanup.i.i, !dbg !4741

cleanup.i.i:                                      ; preds = %bb2
  %2 = landingpad { ptr, i32 }
          cleanup
  tail call void @llvm.experimental.noalias.scope.decl(metadata !4742), !dbg !4730
  call void @llvm.dbg.value(metadata ptr %_1, metadata !4495, metadata !DIExpression()), !dbg !4745
  tail call void @llvm.experimental.noalias.scope.decl(metadata !4747), !dbg !4750
  call void @llvm.dbg.value(metadata ptr %_1, metadata !4505, metadata !DIExpression()), !dbg !4751
  tail call void @llvm.experimental.noalias.scope.decl(metadata !4753), !dbg !4756
  call void @llvm.dbg.value(metadata ptr %_1, metadata !4515, metadata !DIExpression()), !dbg !4757
  tail call void @llvm.experimental.noalias.scope.decl(metadata !4759), !dbg !4762
  call void @llvm.dbg.value(metadata i64 1, metadata !4525, metadata !DIExpression()), !dbg !4763
  call void @llvm.dbg.value(metadata i8 1, metadata !4530, metadata !DIExpression()), !dbg !4763
  call void @llvm.dbg.value(metadata i64 1, metadata !4540, metadata !DIExpression()), !dbg !4766
  call void @llvm.dbg.value(metadata i8 1, metadata !4545, metadata !DIExpression()), !dbg !4766
  call void @llvm.dbg.value(metadata i8 2, metadata !4548, metadata !DIExpression()), !dbg !4768
  call void @llvm.dbg.value(metadata ptr %_1, metadata !4538, metadata !DIExpression()), !dbg !4770
  call void @llvm.dbg.value(metadata ptr %_1, metadata !4771, metadata !DIExpression()), !dbg !4780
  call void @llvm.dbg.value(metadata ptr %_1, metadata !4782, metadata !DIExpression()), !dbg !4790
  %self6.i.i.i.i.i.i = load ptr, ptr %_1, align 8, !dbg !4792, !alias.scope !4793, !nonnull !29, !noundef !29
  call void @llvm.dbg.value(metadata ptr %self6.i.i.i.i.i.i, metadata !4529, metadata !DIExpression()), !dbg !4763
  call void @llvm.dbg.value(metadata ptr %self6.i.i.i.i.i.i, metadata !4544, metadata !DIExpression()), !dbg !4766
  %3 = atomicrmw sub ptr %self6.i.i.i.i.i.i, i64 1 release, align 8, !dbg !4798, !noalias !4799
  %4 = icmp eq i64 %3, 1, !dbg !4800
  br i1 %4, label %bb2.i.i.i.i.i.i, label %bb3.i.i, !dbg !4800

bb2.i.i.i.i.i.i:                                  ; preds = %cleanup.i.i
  fence acquire, !dbg !4801
; call alloc::sync::Arc<T,A>::drop_slow
  tail call fastcc void @"_ZN5alloc4sync16Arc$LT$T$C$A$GT$9drop_slow17hc454e1568c2c3c7eE"(ptr noalias noundef nonnull align 8 dereferenceable(8) %_1), !dbg !4802
  br label %bb3.i.i, !dbg !4802

bb6.i.i:                                          ; preds = %bb2
  tail call void @llvm.experimental.noalias.scope.decl(metadata !4803), !dbg !4730
  call void @llvm.dbg.value(metadata ptr %_1, metadata !4495, metadata !DIExpression()), !dbg !4806
  tail call void @llvm.experimental.noalias.scope.decl(metadata !4808), !dbg !4811
  call void @llvm.dbg.value(metadata ptr %_1, metadata !4505, metadata !DIExpression()), !dbg !4812
  tail call void @llvm.experimental.noalias.scope.decl(metadata !4814), !dbg !4817
  call void @llvm.dbg.value(metadata ptr %_1, metadata !4515, metadata !DIExpression()), !dbg !4818
  tail call void @llvm.experimental.noalias.scope.decl(metadata !4820), !dbg !4823
  call void @llvm.dbg.value(metadata i64 1, metadata !4525, metadata !DIExpression()), !dbg !4824
  call void @llvm.dbg.value(metadata i8 1, metadata !4530, metadata !DIExpression()), !dbg !4824
  call void @llvm.dbg.value(metadata i64 1, metadata !4540, metadata !DIExpression()), !dbg !4827
  call void @llvm.dbg.value(metadata i8 1, metadata !4545, metadata !DIExpression()), !dbg !4827
  call void @llvm.dbg.value(metadata i8 2, metadata !4548, metadata !DIExpression()), !dbg !4829
  call void @llvm.dbg.value(metadata ptr %_1, metadata !4538, metadata !DIExpression()), !dbg !4831
  call void @llvm.dbg.value(metadata ptr %_1, metadata !4771, metadata !DIExpression()), !dbg !4832
  call void @llvm.dbg.value(metadata ptr %_1, metadata !4782, metadata !DIExpression()), !dbg !4834
  %self6.i.i.i.i3.i.i = load ptr, ptr %_1, align 8, !dbg !4836, !alias.scope !4837, !nonnull !29, !noundef !29
  call void @llvm.dbg.value(metadata ptr %self6.i.i.i.i3.i.i, metadata !4529, metadata !DIExpression()), !dbg !4824
  call void @llvm.dbg.value(metadata ptr %self6.i.i.i.i3.i.i, metadata !4544, metadata !DIExpression()), !dbg !4827
  %5 = atomicrmw sub ptr %self6.i.i.i.i3.i.i, i64 1 release, align 8, !dbg !4838, !noalias !4839
  %6 = icmp eq i64 %5, 1, !dbg !4840
  br i1 %6, label %bb2.i.i.i.i4.i.i, label %bb5.i.i, !dbg !4840

bb2.i.i.i.i4.i.i:                                 ; preds = %bb6.i.i
  fence acquire, !dbg !4841
; call alloc::sync::Arc<T,A>::drop_slow
  tail call fastcc void @"_ZN5alloc4sync16Arc$LT$T$C$A$GT$9drop_slow17hc454e1568c2c3c7eE"(ptr noalias noundef nonnull align 8 dereferenceable(8) %_1), !dbg !4842
  br label %bb5.i.i, !dbg !4842

bb3.i.i:                                          ; preds = %bb2.i.i.i.i.i.i, %cleanup.i.i
  %7 = getelementptr inbounds i8, ptr %_1, i64 8, !dbg !4730
  tail call void @llvm.experimental.noalias.scope.decl(metadata !4843), !dbg !4730
  call void @llvm.dbg.value(metadata ptr %7, metadata !4435, metadata !DIExpression()), !dbg !4846
  tail call void @llvm.experimental.noalias.scope.decl(metadata !4848), !dbg !4851
  call void @llvm.dbg.value(metadata i64 1, metadata !4443, metadata !DIExpression()), !dbg !4852
  call void @llvm.dbg.value(metadata i8 1, metadata !4448, metadata !DIExpression()), !dbg !4852
  call void @llvm.dbg.value(metadata i64 1, metadata !4458, metadata !DIExpression()), !dbg !4855
  call void @llvm.dbg.value(metadata i8 1, metadata !4463, metadata !DIExpression()), !dbg !4855
  call void @llvm.dbg.value(metadata i8 2, metadata !4466, metadata !DIExpression()), !dbg !4857
  call void @llvm.dbg.value(metadata ptr %7, metadata !4456, metadata !DIExpression()), !dbg !4859
  call void @llvm.dbg.value(metadata ptr %7, metadata !4473, metadata !DIExpression()), !dbg !4860
  call void @llvm.dbg.value(metadata ptr %7, metadata !4479, metadata !DIExpression()), !dbg !4862
  %self6.i.i.i.i = load ptr, ptr %7, align 8, !dbg !4864, !alias.scope !4865, !nonnull !29, !noundef !29
  call void @llvm.dbg.value(metadata ptr %self6.i.i.i.i, metadata !4447, metadata !DIExpression()), !dbg !4852
  call void @llvm.dbg.value(metadata ptr %self6.i.i.i.i, metadata !4462, metadata !DIExpression()), !dbg !4855
  %8 = atomicrmw sub ptr %self6.i.i.i.i, i64 1 release, align 8, !dbg !4866, !noalias !4867
  %9 = icmp eq i64 %8, 1, !dbg !4868
  br i1 %9, label %bb2.i.i.i.i, label %bb1.i.i, !dbg !4868

bb2.i.i.i.i:                                      ; preds = %bb3.i.i
  fence acquire, !dbg !4869
; invoke alloc::sync::Arc<T,A>::drop_slow
  invoke fastcc void @"_ZN5alloc4sync16Arc$LT$T$C$A$GT$9drop_slow17hf6ca5d5f22260cdeE"(ptr noalias noundef nonnull align 8 dereferenceable(8) %7)
          to label %bb1.i.i unwind label %terminate.i.i, !dbg !4870

bb5.i.i:                                          ; preds = %bb2.i.i.i.i4.i.i, %bb6.i.i
  %10 = getelementptr inbounds i8, ptr %_1, i64 8, !dbg !4730
  tail call void @llvm.experimental.noalias.scope.decl(metadata !4871), !dbg !4730
  call void @llvm.dbg.value(metadata ptr %10, metadata !4435, metadata !DIExpression()), !dbg !4874
  tail call void @llvm.experimental.noalias.scope.decl(metadata !4876), !dbg !4879
  call void @llvm.dbg.value(metadata i64 1, metadata !4443, metadata !DIExpression()), !dbg !4880
  call void @llvm.dbg.value(metadata i8 1, metadata !4448, metadata !DIExpression()), !dbg !4880
  call void @llvm.dbg.value(metadata i64 1, metadata !4458, metadata !DIExpression()), !dbg !4883
  call void @llvm.dbg.value(metadata i8 1, metadata !4463, metadata !DIExpression()), !dbg !4883
  call void @llvm.dbg.value(metadata i8 2, metadata !4466, metadata !DIExpression()), !dbg !4885
  call void @llvm.dbg.value(metadata ptr %10, metadata !4456, metadata !DIExpression()), !dbg !4887
  call void @llvm.dbg.value(metadata ptr %10, metadata !4473, metadata !DIExpression()), !dbg !4888
  call void @llvm.dbg.value(metadata ptr %10, metadata !4479, metadata !DIExpression()), !dbg !4890
  %self6.i.i6.i.i = load ptr, ptr %10, align 8, !dbg !4892, !alias.scope !4893, !nonnull !29, !noundef !29
  call void @llvm.dbg.value(metadata ptr %self6.i.i6.i.i, metadata !4447, metadata !DIExpression()), !dbg !4880
  call void @llvm.dbg.value(metadata ptr %self6.i.i6.i.i, metadata !4462, metadata !DIExpression()), !dbg !4883
  %11 = atomicrmw sub ptr %self6.i.i6.i.i, i64 1 release, align 8, !dbg !4894, !noalias !4895
  %12 = icmp eq i64 %11, 1, !dbg !4896
  br i1 %12, label %bb2.i.i7.i.i, label %bb1, !dbg !4896

bb2.i.i7.i.i:                                     ; preds = %bb5.i.i
  fence acquire, !dbg !4897
; call alloc::sync::Arc<T,A>::drop_slow
  tail call fastcc void @"_ZN5alloc4sync16Arc$LT$T$C$A$GT$9drop_slow17hf6ca5d5f22260cdeE"(ptr noalias noundef nonnull align 8 dereferenceable(8) %10), !dbg !4898
  br label %bb1, !dbg !4898

terminate.i.i:                                    ; preds = %bb2.i.i.i.i
  %13 = landingpad { ptr, i32 }
          filter [0 x ptr] zeroinitializer
; call core::panicking::panic_in_cleanup
  tail call void @_ZN4core9panicking16panic_in_cleanup17h43442956f23e9cbeE() #25, !dbg !4730
  unreachable, !dbg !4730

bb1.i.i:                                          ; preds = %bb2.i.i.i.i, %bb3.i.i
  resume { ptr, i32 } %2, !dbg !4730

bb3:                                              ; preds = %start
  %14 = getelementptr inbounds i8, ptr %_1, i64 8, !dbg !4710
  %.val = load ptr, ptr %14, align 8, !dbg !4710, !nonnull !29, !noundef !29
; call core::ptr::drop_in_place<std::io::error::Error>
  tail call fastcc void @"_ZN4core3ptr42drop_in_place$LT$std..io..error..Error$GT$17hf4d916d94861514cE"(ptr nonnull %.val), !dbg !4710
  br label %bb1, !dbg !4710

bb1:                                              ; preds = %bb2.i.i7.i.i, %bb5.i.i, %bb3
  ret void, !dbg !4710
}

; core::ptr::drop_in_place<core::result::Result<(),alloc::boxed::Box<dyn core::any::Any+core::marker::Send>>>
; Function Attrs: nonlazybind uwtable
define internal fastcc void @"_ZN4core3ptr130drop_in_place$LT$core..result..Result$LT$$LP$$RP$$C$alloc..boxed..Box$LT$dyn$u20$core..any..Any$u2b$core..marker..Send$GT$$GT$$GT$17h4f6111c9c090cdd6E"(ptr %_1.0.val, ptr readonly %_1.8.val) unnamed_addr #2 personality ptr @rust_eh_personality !dbg !4371 {
start:
  tail call void @llvm.dbg.value(metadata ptr undef, metadata !4370, metadata !DIExpression()), !dbg !4899
  %0 = icmp eq ptr %_1.0.val, null, !dbg !4900
  br i1 %0, label %bb1, label %bb2, !dbg !4900

bb1:                                              ; preds = %"_ZN63_$LT$alloc..alloc..Global$u20$as$u20$core..alloc..Allocator$GT$10deallocate17h0f2d39528d187dc6E.exit.i.i", %bb3.i, %start
  ret void, !dbg !4900

bb2:                                              ; preds = %start
  %1 = icmp ne ptr %_1.8.val, null
  tail call void @llvm.assume(i1 %1)
  call void @llvm.dbg.value(metadata ptr undef, metadata !2617, metadata !DIExpression()), !dbg !4901
  %2 = load ptr, ptr %_1.8.val, align 8, !dbg !4903, !invariant.load !29
  %.not.i = icmp eq ptr %2, null, !dbg !4903
  br i1 %.not.i, label %bb3.i, label %is_not_null.i, !dbg !4903

is_not_null.i:                                    ; preds = %bb2
  invoke void %2(ptr noundef nonnull align 1 %_1.0.val)
          to label %bb3.i unwind label %cleanup.i, !dbg !4903

bb3.i:                                            ; preds = %is_not_null.i, %bb2
  call void @llvm.dbg.value(metadata ptr undef, metadata !2626, metadata !DIExpression()), !dbg !4904
  call void @llvm.dbg.value(metadata ptr %_1.0.val, metadata !2635, metadata !DIExpression(DW_OP_LLVM_fragment, 0, 64)), !dbg !4906
  call void @llvm.dbg.value(metadata ptr %_1.8.val, metadata !2635, metadata !DIExpression(DW_OP_LLVM_fragment, 64, 64)), !dbg !4906
  call void @llvm.dbg.value(metadata ptr %_1.0.val, metadata !2657, metadata !DIExpression(DW_OP_LLVM_fragment, 0, 64)), !dbg !4907
  call void @llvm.dbg.value(metadata ptr %_1.0.val, metadata !2670, metadata !DIExpression(DW_OP_LLVM_fragment, 0, 64)), !dbg !4909
  call void @llvm.dbg.value(metadata ptr %_1.0.val, metadata !2679, metadata !DIExpression(DW_OP_LLVM_fragment, 0, 64)), !dbg !4911
  call void @llvm.dbg.value(metadata ptr %_1.8.val, metadata !2657, metadata !DIExpression(DW_OP_LLVM_fragment, 64, 64)), !dbg !4907
  call void @llvm.dbg.value(metadata ptr %_1.8.val, metadata !2670, metadata !DIExpression(DW_OP_LLVM_fragment, 64, 64)), !dbg !4909
  call void @llvm.dbg.value(metadata ptr %_1.8.val, metadata !2679, metadata !DIExpression(DW_OP_LLVM_fragment, 64, 64)), !dbg !4911
  %3 = getelementptr inbounds i8, ptr %_1.8.val, i64 8, !dbg !4913
  %4 = load i64, ptr %3, align 8, !dbg !4913, !range !2686, !invariant.load !29
  %5 = getelementptr inbounds i8, ptr %_1.8.val, i64 16, !dbg !4913
  call void @llvm.dbg.value(metadata i64 %4, metadata !2665, metadata !DIExpression()), !dbg !4914
  call void @llvm.dbg.value(metadata i64 %4, metadata !2688, metadata !DIExpression()), !dbg !4915
  %6 = load i64, ptr %5, align 8, !dbg !4917, !range !2699, !invariant.load !29
  call void @llvm.dbg.value(metadata i64 %6, metadata !2667, metadata !DIExpression()), !dbg !4914
  call void @llvm.dbg.value(metadata i64 %6, metadata !2695, metadata !DIExpression()), !dbg !4915
  call void @llvm.dbg.value(metadata i64 %6, metadata !2700, metadata !DIExpression()), !dbg !4918
  %7 = icmp ult i64 %6, -9223372036854775807, !dbg !4920
  tail call void @llvm.assume(i1 %7), !dbg !4920
  call void @llvm.dbg.value(metadata i64 %4, metadata !2651, metadata !DIExpression(DW_OP_LLVM_fragment, 64, 64)), !dbg !4921
  call void @llvm.dbg.value(metadata i64 %6, metadata !2651, metadata !DIExpression(DW_OP_LLVM_fragment, 0, 64)), !dbg !4921
  %8 = icmp eq i64 %4, 0, !dbg !4922
  br i1 %8, label %bb1, label %"_ZN63_$LT$alloc..alloc..Global$u20$as$u20$core..alloc..Allocator$GT$10deallocate17h0f2d39528d187dc6E.exit.i.i", !dbg !4922

"_ZN63_$LT$alloc..alloc..Global$u20$as$u20$core..alloc..Allocator$GT$10deallocate17h0f2d39528d187dc6E.exit.i.i": ; preds = %bb3.i
  call void @llvm.dbg.value(metadata i64 %6, metadata !2713, metadata !DIExpression(DW_OP_LLVM_fragment, 0, 64)), !dbg !4923
  call void @llvm.dbg.value(metadata i64 %4, metadata !2713, metadata !DIExpression(DW_OP_LLVM_fragment, 64, 64)), !dbg !4923
  call void @llvm.dbg.value(metadata ptr undef, metadata !2721, metadata !DIExpression()), !dbg !4923
  call void @llvm.dbg.value(metadata ptr %_1.0.val, metadata !2722, metadata !DIExpression()), !dbg !4923
  call void @llvm.dbg.value(metadata ptr %_1.0.val, metadata !2725, metadata !DIExpression()), !dbg !4925
  call void @llvm.dbg.value(metadata i64 %6, metadata !2731, metadata !DIExpression(DW_OP_LLVM_fragment, 0, 64)), !dbg !4925
  call void @llvm.dbg.value(metadata i64 %4, metadata !2731, metadata !DIExpression(DW_OP_LLVM_fragment, 64, 64)), !dbg !4925
  tail call void @__rust_dealloc(ptr noundef nonnull %_1.0.val, i64 noundef %4, i64 noundef %6) #26, !dbg !4927
  br label %bb1, !dbg !4928

cleanup.i:                                        ; preds = %is_not_null.i
  %9 = landingpad { ptr, i32 }
          cleanup
  call void @llvm.dbg.value(metadata ptr undef, metadata !2626, metadata !DIExpression()), !dbg !4929
  call void @llvm.dbg.value(metadata ptr %_1.0.val, metadata !2635, metadata !DIExpression(DW_OP_LLVM_fragment, 0, 64)), !dbg !4931
  call void @llvm.dbg.value(metadata ptr %_1.8.val, metadata !2635, metadata !DIExpression(DW_OP_LLVM_fragment, 64, 64)), !dbg !4931
  call void @llvm.dbg.value(metadata ptr %_1.0.val, metadata !2657, metadata !DIExpression(DW_OP_LLVM_fragment, 0, 64)), !dbg !4932
  call void @llvm.dbg.value(metadata ptr %_1.0.val, metadata !2670, metadata !DIExpression(DW_OP_LLVM_fragment, 0, 64)), !dbg !4934
  call void @llvm.dbg.value(metadata ptr %_1.0.val, metadata !2679, metadata !DIExpression(DW_OP_LLVM_fragment, 0, 64)), !dbg !4936
  call void @llvm.dbg.value(metadata ptr %_1.8.val, metadata !2657, metadata !DIExpression(DW_OP_LLVM_fragment, 64, 64)), !dbg !4932
  call void @llvm.dbg.value(metadata ptr %_1.8.val, metadata !2670, metadata !DIExpression(DW_OP_LLVM_fragment, 64, 64)), !dbg !4934
  call void @llvm.dbg.value(metadata ptr %_1.8.val, metadata !2679, metadata !DIExpression(DW_OP_LLVM_fragment, 64, 64)), !dbg !4936
  %10 = getelementptr inbounds i8, ptr %_1.8.val, i64 8, !dbg !4938
  %11 = load i64, ptr %10, align 8, !dbg !4938, !range !2686, !invariant.load !29
  %12 = getelementptr inbounds i8, ptr %_1.8.val, i64 16, !dbg !4938
  call void @llvm.dbg.value(metadata i64 %11, metadata !2665, metadata !DIExpression()), !dbg !4939
  call void @llvm.dbg.value(metadata i64 %11, metadata !2688, metadata !DIExpression()), !dbg !4940
  %13 = load i64, ptr %12, align 8, !dbg !4942, !range !2699, !invariant.load !29
  call void @llvm.dbg.value(metadata i64 %13, metadata !2667, metadata !DIExpression()), !dbg !4939
  call void @llvm.dbg.value(metadata i64 %13, metadata !2695, metadata !DIExpression()), !dbg !4940
  call void @llvm.dbg.value(metadata i64 %13, metadata !2700, metadata !DIExpression()), !dbg !4943
  %14 = icmp ult i64 %13, -9223372036854775807, !dbg !4945
  tail call void @llvm.assume(i1 %14), !dbg !4945
  call void @llvm.dbg.value(metadata i64 %11, metadata !2651, metadata !DIExpression(DW_OP_LLVM_fragment, 64, 64)), !dbg !4946
  call void @llvm.dbg.value(metadata i64 %13, metadata !2651, metadata !DIExpression(DW_OP_LLVM_fragment, 0, 64)), !dbg !4946
  %15 = icmp eq i64 %11, 0, !dbg !4947
  br i1 %15, label %bb1.i, label %"_ZN63_$LT$alloc..alloc..Global$u20$as$u20$core..alloc..Allocator$GT$10deallocate17h0f2d39528d187dc6E.exit.i4.i", !dbg !4947

"_ZN63_$LT$alloc..alloc..Global$u20$as$u20$core..alloc..Allocator$GT$10deallocate17h0f2d39528d187dc6E.exit.i4.i": ; preds = %cleanup.i
  call void @llvm.dbg.value(metadata i64 %13, metadata !2713, metadata !DIExpression(DW_OP_LLVM_fragment, 0, 64)), !dbg !4948
  call void @llvm.dbg.value(metadata i64 %11, metadata !2713, metadata !DIExpression(DW_OP_LLVM_fragment, 64, 64)), !dbg !4948
  call void @llvm.dbg.value(metadata ptr undef, metadata !2721, metadata !DIExpression()), !dbg !4948
  call void @llvm.dbg.value(metadata ptr %_1.0.val, metadata !2722, metadata !DIExpression()), !dbg !4948
  call void @llvm.dbg.value(metadata ptr %_1.0.val, metadata !2725, metadata !DIExpression()), !dbg !4950
  call void @llvm.dbg.value(metadata i64 %13, metadata !2731, metadata !DIExpression(DW_OP_LLVM_fragment, 0, 64)), !dbg !4950
  call void @llvm.dbg.value(metadata i64 %11, metadata !2731, metadata !DIExpression(DW_OP_LLVM_fragment, 64, 64)), !dbg !4950
  tail call void @__rust_dealloc(ptr noundef nonnull %_1.0.val, i64 noundef %11, i64 noundef %13) #26, !dbg !4952
  br label %bb1.i, !dbg !4953

bb1.i:                                            ; preds = %"_ZN63_$LT$alloc..alloc..Global$u20$as$u20$core..alloc..Allocator$GT$10deallocate17h0f2d39528d187dc6E.exit.i4.i", %cleanup.i
  resume { ptr, i32 } %9, !dbg !4903
}

; core::ptr::drop_in_place<std::sync::poison::PoisonError<(std::sync::mutex::MutexGuard<blocking::Inner>,std::sync::condvar::WaitTimeoutResult)>>
; Function Attrs: nonlazybind uwtable
define internal void @"_ZN4core3ptr158drop_in_place$LT$std..sync..poison..PoisonError$LT$$LP$std..sync..mutex..MutexGuard$LT$blocking..Inner$GT$$C$std..sync..condvar..WaitTimeoutResult$RP$$GT$$GT$17he714b5c6a2ee4427E"(ptr noalias nocapture noundef readonly align 8 dereferenceable(24) %_1) unnamed_addr #2 !dbg !4954 {
start:
  tail call void @llvm.dbg.value(metadata ptr %_1, metadata !4959, metadata !DIExpression()), !dbg !4962
  %_1.val = load ptr, ptr %_1, align 8, !dbg !4963, !alias.scope !4633, !nonnull !29, !align !1938, !noundef !29
  %0 = getelementptr inbounds i8, ptr %_1, i64 8, !dbg !4963
  %_1.val1 = load i8, ptr %0, align 8, !dbg !4963, !range !4636, !alias.scope !4633, !noundef !29
  call void @llvm.dbg.value(metadata ptr undef, metadata !4964, metadata !DIExpression()), !dbg !4970
  call void @llvm.dbg.value(metadata ptr undef, metadata !3066, metadata !DIExpression()), !dbg !4972
  call void @llvm.dbg.value(metadata i32 0, metadata !3074, metadata !DIExpression()), !dbg !4974
  call void @llvm.dbg.value(metadata i8 1, metadata !3082, metadata !DIExpression()), !dbg !4974
  call void @llvm.dbg.value(metadata i32 0, metadata !3099, metadata !DIExpression()), !dbg !4978
  call void @llvm.dbg.value(metadata i8 1, metadata !3106, metadata !DIExpression()), !dbg !4978
  call void @llvm.dbg.value(metadata ptr undef, metadata !3097, metadata !DIExpression()), !dbg !4980
  %_3.i.i.i = getelementptr inbounds i8, ptr %_1.val, i64 4, !dbg !4981
  call void @llvm.dbg.value(metadata ptr @_ZN3std9panicking11panic_count18GLOBAL_PANIC_COUNT17h00e7dcd913cdfbe0E, metadata !3110, metadata !DIExpression()), !dbg !4982
  call void @llvm.dbg.value(metadata i8 0, metadata !3114, metadata !DIExpression()), !dbg !4982
  call void @llvm.dbg.value(metadata i8 1, metadata !3135, metadata !DIExpression()), !dbg !4988
  call void @llvm.dbg.value(metadata i8 0, metadata !3143, metadata !DIExpression()), !dbg !4988
  call void @llvm.dbg.value(metadata ptr %_3.i.i.i, metadata !3132, metadata !DIExpression()), !dbg !4990
  call void @llvm.dbg.value(metadata ptr undef, metadata !3133, metadata !DIExpression()), !dbg !4990
  %_3.not.i.i.i.i = icmp eq i8 %_1.val1, 0, !dbg !4991
  br i1 %_3.not.i.i.i.i, label %bb1.i.i.i.i, label %_ZN3std4sync6poison4Flag4done17h6b62417d8d60c5ceE.exit.i.i.i, !dbg !4991

bb1.i.i.i.i:                                      ; preds = %start
  call void @llvm.dbg.value(metadata i8 0, metadata !1823, metadata !DIExpression()), !dbg !4992
  call void @llvm.dbg.value(metadata ptr @_ZN3std9panicking11panic_count18GLOBAL_PANIC_COUNT17h00e7dcd913cdfbe0E, metadata !1829, metadata !DIExpression()), !dbg !4992
  %1 = load atomic i64, ptr @_ZN3std9panicking11panic_count18GLOBAL_PANIC_COUNT17h00e7dcd913cdfbe0E monotonic, align 8, !dbg !4994, !noalias !4995
  %_7.i.i.i.i = and i64 %1, 9223372036854775807, !dbg !4998
  %2 = icmp eq i64 %_7.i.i.i.i, 0, !dbg !4998
  br i1 %2, label %_ZN3std4sync6poison4Flag4done17h6b62417d8d60c5ceE.exit.i.i.i, label %bb6.i.i.i.i, !dbg !4998

bb6.i.i.i.i:                                      ; preds = %bb1.i.i.i.i
; call std::panicking::panic_count::is_zero_slow_path
  %_6.i.i.i.i = tail call noundef zeroext i1 @_ZN3std9panicking11panic_count17is_zero_slow_path17h24de30857bbd803cE(), !dbg !4999, !noalias !4995
  br i1 %_6.i.i.i.i, label %_ZN3std4sync6poison4Flag4done17h6b62417d8d60c5ceE.exit.i.i.i, label %bb2.i.i.i.i, !dbg !5000

bb2.i.i.i.i:                                      ; preds = %bb6.i.i.i.i
  call void @llvm.dbg.value(metadata ptr %_3.i.i.i, metadata !3142, metadata !DIExpression()), !dbg !4988
  call void @llvm.dbg.value(metadata i8 0, metadata !3157, metadata !DIExpression()), !dbg !5001
  call void @llvm.dbg.value(metadata ptr %_3.i.i.i, metadata !3162, metadata !DIExpression()), !dbg !5001
  call void @llvm.dbg.value(metadata i8 1, metadata !3163, metadata !DIExpression()), !dbg !5001
  store atomic i8 1, ptr %_3.i.i.i monotonic, align 4, !dbg !5003, !noalias !4995
  br label %_ZN3std4sync6poison4Flag4done17h6b62417d8d60c5ceE.exit.i.i.i, !dbg !5004

_ZN3std4sync6poison4Flag4done17h6b62417d8d60c5ceE.exit.i.i.i: ; preds = %bb2.i.i.i.i, %bb6.i.i.i.i, %bb1.i.i.i.i, %start
  call void @llvm.dbg.value(metadata ptr %_1.val, metadata !3089, metadata !DIExpression()), !dbg !5005
  call void @llvm.dbg.value(metadata ptr %_1.val, metadata !3081, metadata !DIExpression()), !dbg !4974
  call void @llvm.dbg.value(metadata ptr %_1.val, metadata !3105, metadata !DIExpression()), !dbg !4978
  %3 = atomicrmw xchg ptr %_1.val, i32 0 release, align 4, !dbg !5006, !noalias !4995
  %_8.i.i.i = icmp eq i32 %3, 2, !dbg !5007
  br i1 %_8.i.i.i, label %bb2.i.i.i, label %"_ZN4core3ptr120drop_in_place$LT$$LP$std..sync..mutex..MutexGuard$LT$blocking..Inner$GT$$C$std..sync..condvar..WaitTimeoutResult$RP$$GT$17h61e0c4dd1263cf6eE.exit", !dbg !5007

bb2.i.i.i:                                        ; preds = %_ZN3std4sync6poison4Flag4done17h6b62417d8d60c5ceE.exit.i.i.i
; call std::sys::sync::mutex::futex::Mutex::wake
  tail call void @_ZN3std3sys4sync5mutex5futex5Mutex4wake17hc487312157454c34E(ptr noundef nonnull align 4 %_1.val), !dbg !5008, !noalias !4995
  br label %"_ZN4core3ptr120drop_in_place$LT$$LP$std..sync..mutex..MutexGuard$LT$blocking..Inner$GT$$C$std..sync..condvar..WaitTimeoutResult$RP$$GT$17h61e0c4dd1263cf6eE.exit", !dbg !5008

"_ZN4core3ptr120drop_in_place$LT$$LP$std..sync..mutex..MutexGuard$LT$blocking..Inner$GT$$C$std..sync..condvar..WaitTimeoutResult$RP$$GT$17h61e0c4dd1263cf6eE.exit": ; preds = %_ZN3std4sync6poison4Flag4done17h6b62417d8d60c5ceE.exit.i.i.i, %bb2.i.i.i
  ret void, !dbg !4963
}

; core::ptr::drop_in_place<std::thread::Builder::spawn_unchecked_<blocking::Executor::grow_pool::{{closure}},()>::{{closure}}>
; Function Attrs: nonlazybind uwtable
define internal void @"_ZN4core3ptr165drop_in_place$LT$std..thread..Builder..spawn_unchecked_$LT$blocking..Executor..grow_pool..$u7b$$u7b$closure$u7d$$u7d$$C$$LP$$RP$$GT$..$u7b$$u7b$closure$u7d$$u7d$$GT$17h4741d03b02744832E"(ptr noalias nocapture noundef readonly align 8 dereferenceable(32) %_1) unnamed_addr #2 personality ptr @rust_eh_personality !dbg !5009 {
start:
  tail call void @llvm.dbg.value(metadata ptr %_1, metadata !5011, metadata !DIExpression()), !dbg !5014
  tail call void @llvm.experimental.noalias.scope.decl(metadata !5015), !dbg !5018
  call void @llvm.dbg.value(metadata ptr %_1, metadata !4495, metadata !DIExpression()), !dbg !5019
  tail call void @llvm.experimental.noalias.scope.decl(metadata !5021), !dbg !5024
  call void @llvm.dbg.value(metadata ptr %_1, metadata !4505, metadata !DIExpression()), !dbg !5025
  tail call void @llvm.experimental.noalias.scope.decl(metadata !5027), !dbg !5030
  call void @llvm.dbg.value(metadata ptr %_1, metadata !4515, metadata !DIExpression()), !dbg !5031
  tail call void @llvm.experimental.noalias.scope.decl(metadata !5033), !dbg !5036
  call void @llvm.dbg.value(metadata i64 1, metadata !4525, metadata !DIExpression()), !dbg !5037
  call void @llvm.dbg.value(metadata i8 1, metadata !4530, metadata !DIExpression()), !dbg !5037
  call void @llvm.dbg.value(metadata i64 1, metadata !4540, metadata !DIExpression()), !dbg !5040
  call void @llvm.dbg.value(metadata i8 1, metadata !4545, metadata !DIExpression()), !dbg !5040
  call void @llvm.dbg.value(metadata i8 2, metadata !4548, metadata !DIExpression()), !dbg !5042
  call void @llvm.dbg.value(metadata ptr %_1, metadata !4538, metadata !DIExpression()), !dbg !5044
  call void @llvm.dbg.value(metadata ptr %_1, metadata !4771, metadata !DIExpression()), !dbg !5045
  call void @llvm.dbg.value(metadata ptr %_1, metadata !4782, metadata !DIExpression()), !dbg !5047
  %self6.i.i.i.i = load ptr, ptr %_1, align 8, !dbg !5049, !alias.scope !5050, !nonnull !29, !noundef !29
  call void @llvm.dbg.value(metadata ptr %self6.i.i.i.i, metadata !4529, metadata !DIExpression()), !dbg !5037
  call void @llvm.dbg.value(metadata ptr %self6.i.i.i.i, metadata !4544, metadata !DIExpression()), !dbg !5040
  %0 = atomicrmw sub ptr %self6.i.i.i.i, i64 1 release, align 8, !dbg !5051, !noalias !5050
  %1 = icmp eq i64 %0, 1, !dbg !5052
  br i1 %1, label %bb2.i.i.i.i, label %bb8, !dbg !5052

bb2.i.i.i.i:                                      ; preds = %start
  fence acquire, !dbg !5053
; call alloc::sync::Arc<T,A>::drop_slow
  tail call fastcc void @"_ZN5alloc4sync16Arc$LT$T$C$A$GT$9drop_slow17hc454e1568c2c3c7eE"(ptr noalias noundef nonnull align 8 dereferenceable(8) %_1), !dbg !5054
  br label %bb8, !dbg !5054

bb8:                                              ; preds = %bb2.i.i.i.i, %start
  %2 = getelementptr inbounds i8, ptr %_1, i64 16, !dbg !5018
  tail call void @llvm.experimental.noalias.scope.decl(metadata !5055), !dbg !5018
  call void @llvm.dbg.value(metadata ptr %2, metadata !4146, metadata !DIExpression()), !dbg !5058
  %3 = load ptr, ptr %2, align 8, !dbg !5060, !alias.scope !5055, !noundef !29
  %4 = icmp eq ptr %3, null, !dbg !5060
  br i1 %4, label %bb6, label %bb2.i6, !dbg !5060

bb2.i6:                                           ; preds = %bb8
  call void @llvm.dbg.value(metadata ptr %2, metadata !4157, metadata !DIExpression()), !dbg !5061
  call void @llvm.dbg.value(metadata i64 1, metadata !4165, metadata !DIExpression()), !dbg !5063
  call void @llvm.dbg.value(metadata i8 1, metadata !4170, metadata !DIExpression()), !dbg !5063
  call void @llvm.dbg.value(metadata i64 1, metadata !4180, metadata !DIExpression()), !dbg !5066
  call void @llvm.dbg.value(metadata i8 1, metadata !4185, metadata !DIExpression()), !dbg !5066
  call void @llvm.dbg.value(metadata i8 2, metadata !4188, metadata !DIExpression()), !dbg !5068
  call void @llvm.dbg.value(metadata ptr %2, metadata !4178, metadata !DIExpression()), !dbg !5070
  call void @llvm.dbg.value(metadata ptr %3, metadata !4169, metadata !DIExpression()), !dbg !5063
  call void @llvm.dbg.value(metadata ptr %3, metadata !4184, metadata !DIExpression()), !dbg !5066
  %5 = atomicrmw sub ptr %3, i64 1 release, align 8, !dbg !5071, !noalias !5072
  %6 = icmp eq i64 %5, 1, !dbg !5077
  br i1 %6, label %bb2.i.i.i7, label %bb6, !dbg !5077

bb2.i.i.i7:                                       ; preds = %bb2.i6
  fence acquire, !dbg !5078
; call alloc::sync::Arc<T,A>::drop_slow
  tail call fastcc void @"_ZN5alloc4sync16Arc$LT$T$C$A$GT$9drop_slow17h3018a1c589308981E"(ptr noalias noundef nonnull align 8 dereferenceable(8) %2), !dbg !5079
  br label %bb6, !dbg !5079

bb6:                                              ; preds = %bb8, %bb2.i6, %bb2.i.i.i7
  %7 = getelementptr inbounds i8, ptr %_1, i64 8, !dbg !5018
  tail call void @llvm.experimental.noalias.scope.decl(metadata !5080), !dbg !5018
  call void @llvm.dbg.value(metadata ptr %7, metadata !4435, metadata !DIExpression()), !dbg !5083
  tail call void @llvm.experimental.noalias.scope.decl(metadata !5085), !dbg !5088
  call void @llvm.dbg.value(metadata i64 1, metadata !4443, metadata !DIExpression()), !dbg !5089
  call void @llvm.dbg.value(metadata i8 1, metadata !4448, metadata !DIExpression()), !dbg !5089
  call void @llvm.dbg.value(metadata i64 1, metadata !4458, metadata !DIExpression()), !dbg !5092
  call void @llvm.dbg.value(metadata i8 1, metadata !4463, metadata !DIExpression()), !dbg !5092
  call void @llvm.dbg.value(metadata i8 2, metadata !4466, metadata !DIExpression()), !dbg !5094
  call void @llvm.dbg.value(metadata ptr %7, metadata !4456, metadata !DIExpression()), !dbg !5096
  call void @llvm.dbg.value(metadata ptr %7, metadata !4473, metadata !DIExpression()), !dbg !5097
  call void @llvm.dbg.value(metadata ptr %7, metadata !4479, metadata !DIExpression()), !dbg !5099
  %self6.i.i9 = load ptr, ptr %7, align 8, !dbg !5101, !alias.scope !5102, !nonnull !29, !noundef !29
  call void @llvm.dbg.value(metadata ptr %self6.i.i9, metadata !4447, metadata !DIExpression()), !dbg !5089
  call void @llvm.dbg.value(metadata ptr %self6.i.i9, metadata !4462, metadata !DIExpression()), !dbg !5092
  %8 = atomicrmw sub ptr %self6.i.i9, i64 1 release, align 8, !dbg !5103, !noalias !5102
  %9 = icmp eq i64 %8, 1, !dbg !5104
  br i1 %9, label %bb2.i.i10, label %"_ZN4core3ptr80drop_in_place$LT$alloc..sync..Arc$LT$std..thread..Packet$LT$$LP$$RP$$GT$$GT$$GT$17h02675b8145b8e52aE.exit11", !dbg !5104

bb2.i.i10:                                        ; preds = %bb6
  fence acquire, !dbg !5105
; call alloc::sync::Arc<T,A>::drop_slow
  tail call fastcc void @"_ZN5alloc4sync16Arc$LT$T$C$A$GT$9drop_slow17hf6ca5d5f22260cdeE"(ptr noalias noundef nonnull align 8 dereferenceable(8) %7), !dbg !5106
  br label %"_ZN4core3ptr80drop_in_place$LT$alloc..sync..Arc$LT$std..thread..Packet$LT$$LP$$RP$$GT$$GT$$GT$17h02675b8145b8e52aE.exit11", !dbg !5106

"_ZN4core3ptr80drop_in_place$LT$alloc..sync..Arc$LT$std..thread..Packet$LT$$LP$$RP$$GT$$GT$$GT$17h02675b8145b8e52aE.exit11": ; preds = %bb6, %bb2.i.i10
  ret void, !dbg !5018
}

; core::ptr::drop_in_place<core::cell::UnsafeCell<core::option::Option<core::result::Result<(),alloc::boxed::Box<dyn core::any::Any+core::marker::Send>>>>>
; Function Attrs: nonlazybind uwtable
define internal fastcc void @"_ZN4core3ptr188drop_in_place$LT$core..cell..UnsafeCell$LT$core..option..Option$LT$core..result..Result$LT$$LP$$RP$$C$alloc..boxed..Box$LT$dyn$u20$core..any..Any$u2b$core..marker..Send$GT$$GT$$GT$$GT$$GT$17he625550f8f4f7980E"(ptr noalias nocapture noundef readonly align 8 dereferenceable(24) %_1) unnamed_addr #2 personality ptr @rust_eh_personality !dbg !5107 {
start:
  tail call void @llvm.dbg.value(metadata ptr %_1, metadata !5112, metadata !DIExpression()), !dbg !5115
  tail call void @llvm.experimental.noalias.scope.decl(metadata !5116), !dbg !5119
  call void @llvm.dbg.value(metadata ptr %_1, metadata !4361, metadata !DIExpression()), !dbg !5120
  %_2.i = load i64, ptr %_1, align 8, !dbg !5122, !range !4369, !alias.scope !5116, !noundef !29
  %0 = icmp eq i64 %_2.i, 0, !dbg !5122
  br i1 %0, label %"_ZN4core3ptr158drop_in_place$LT$core..option..Option$LT$core..result..Result$LT$$LP$$RP$$C$alloc..boxed..Box$LT$dyn$u20$core..any..Any$u2b$core..marker..Send$GT$$GT$$GT$$GT$17h1d4be5791a79633aE.exit", label %bb2.i, !dbg !5122

bb2.i:                                            ; preds = %start
  %1 = getelementptr inbounds i8, ptr %_1, i64 8, !dbg !5122
  %.val.i = load ptr, ptr %1, align 8, !dbg !5122, !alias.scope !5116, !noundef !29
  %2 = getelementptr inbounds i8, ptr %_1, i64 16, !dbg !5122
  %.val1.i = load ptr, ptr %2, align 8, !dbg !5122, !alias.scope !5116
  call void @llvm.dbg.value(metadata ptr undef, metadata !4370, metadata !DIExpression()), !dbg !5123
  %3 = icmp eq ptr %.val.i, null, !dbg !5125
  br i1 %3, label %"_ZN4core3ptr158drop_in_place$LT$core..option..Option$LT$core..result..Result$LT$$LP$$RP$$C$alloc..boxed..Box$LT$dyn$u20$core..any..Any$u2b$core..marker..Send$GT$$GT$$GT$$GT$17h1d4be5791a79633aE.exit", label %bb2.i.i, !dbg !5125

bb2.i.i:                                          ; preds = %bb2.i
  %4 = icmp ne ptr %.val1.i, null
  tail call void @llvm.assume(i1 %4)
  call void @llvm.dbg.value(metadata ptr undef, metadata !2617, metadata !DIExpression()), !dbg !5126
  %5 = load ptr, ptr %.val1.i, align 8, !dbg !5128, !invariant.load !29, !noalias !5116
  %.not.i.i.i = icmp eq ptr %5, null, !dbg !5128
  br i1 %.not.i.i.i, label %bb3.i.i.i, label %is_not_null.i.i.i, !dbg !5128

is_not_null.i.i.i:                                ; preds = %bb2.i.i
  invoke void %5(ptr noundef nonnull align 1 %.val.i)
          to label %bb3.i.i.i unwind label %cleanup.i.i.i, !dbg !5128, !noalias !5116

bb3.i.i.i:                                        ; preds = %is_not_null.i.i.i, %bb2.i.i
  call void @llvm.dbg.value(metadata ptr undef, metadata !2626, metadata !DIExpression()), !dbg !5129
  call void @llvm.dbg.value(metadata ptr %.val.i, metadata !2635, metadata !DIExpression(DW_OP_LLVM_fragment, 0, 64)), !dbg !5131
  call void @llvm.dbg.value(metadata ptr %.val1.i, metadata !2635, metadata !DIExpression(DW_OP_LLVM_fragment, 64, 64)), !dbg !5131
  call void @llvm.dbg.value(metadata ptr %.val.i, metadata !2657, metadata !DIExpression(DW_OP_LLVM_fragment, 0, 64)), !dbg !5132
  call void @llvm.dbg.value(metadata ptr %.val.i, metadata !2670, metadata !DIExpression(DW_OP_LLVM_fragment, 0, 64)), !dbg !5134
  call void @llvm.dbg.value(metadata ptr %.val.i, metadata !2679, metadata !DIExpression(DW_OP_LLVM_fragment, 0, 64)), !dbg !5136
  call void @llvm.dbg.value(metadata ptr %.val1.i, metadata !2657, metadata !DIExpression(DW_OP_LLVM_fragment, 64, 64)), !dbg !5132
  call void @llvm.dbg.value(metadata ptr %.val1.i, metadata !2670, metadata !DIExpression(DW_OP_LLVM_fragment, 64, 64)), !dbg !5134
  call void @llvm.dbg.value(metadata ptr %.val1.i, metadata !2679, metadata !DIExpression(DW_OP_LLVM_fragment, 64, 64)), !dbg !5136
  %6 = getelementptr inbounds i8, ptr %.val1.i, i64 8, !dbg !5138
  %7 = load i64, ptr %6, align 8, !dbg !5138, !range !2686, !invariant.load !29, !noalias !5116
  %8 = getelementptr inbounds i8, ptr %.val1.i, i64 16, !dbg !5138
  call void @llvm.dbg.value(metadata i64 %7, metadata !2665, metadata !DIExpression()), !dbg !5139
  call void @llvm.dbg.value(metadata i64 %7, metadata !2688, metadata !DIExpression()), !dbg !5140
