; ModuleID = 'futures_lite.e1f26f54f57b4b7d-cgu.0'
source_filename = "futures_lite.e1f26f54f57b4b7d-cgu.0"
target datalayout = "e-m:e-p270:32:32-p271:32:32-p272:64:64-i64:64-i128:128-f80:128-n8:16:32:64-S128"
target triple = "x86_64-unknown-linux-gnu"

%"std::io::IoSlice<'_>" = type { %"std::sys::pal::unix::io::IoSlice<'_>" }
%"std::sys::pal::unix::io::IoSlice<'_>" = type { %"libc::unix::iovec", %"core::marker::PhantomData<&[u8]>" }
%"libc::unix::iovec" = type { ptr, i64 }
%"core::marker::PhantomData<&[u8]>" = type {}

@alloc_0fb556b02ca7c93cd9ee17a418c3f63c = private unnamed_addr constant <{ ptr, ptr, ptr, ptr }> <{ ptr @_ZN5alloc4task9raw_waker11clone_waker17h7c14368c8d84cae1E, ptr @_ZN5alloc4task9raw_waker4wake17h623d9473fe9f5edcE, ptr @_ZN5alloc4task9raw_waker11wake_by_ref17h0bfaf7d7d0b41fffE, ptr @_ZN5alloc4task9raw_waker10drop_waker17hc4a7792bfd155c23E }>, align 8
@__rust_no_alloc_shim_is_unstable = external global i8
@alloc_93f1d18e96c71d56b3f730be0f68dd60 = private unnamed_addr constant <{ [12 x i8] }> <{ [12 x i8] c"Empty { .. }" }>, align 1
@"_ZN12futures_lite6future8block_on5CACHE29_$u7b$$u7b$constant$u7d$$u7d$28_$u7b$$u7b$closure$u7d$$u7d$3VAL17h3108d5d0e560735aE" = thread_local local_unnamed_addr global <{ [8 x i8], [32 x i8] }> <{ [8 x i8] zeroinitializer, [32 x i8] undef }>, align 8, !dbg !0

; alloc::sync::Arc<T,A>::drop_slow
; Function Attrs: noinline nounwind nonlazybind uwtable
define internal fastcc void @"_ZN5alloc4sync16Arc$LT$T$C$A$GT$9drop_slow17hd5961035baad38d3E"(ptr noalias nocapture noundef readonly align 8 dereferenceable(8) %self) unnamed_addr #0 !dbg !485 {
start:
  tail call void @llvm.dbg.value(metadata ptr %self, metadata !492, metadata !DIExpression()), !dbg !493
  %_5 = load ptr, ptr %self, align 8, !dbg !494, !nonnull !29, !noundef !29
  tail call void @llvm.dbg.value(metadata ptr %_5, metadata !495, metadata !DIExpression(DW_OP_LLVM_fragment, 0, 64)), !dbg !512
  tail call void @llvm.dbg.value(metadata ptr %self, metadata !495, metadata !DIExpression(DW_OP_plus_uconst, 8, DW_OP_stack_value, DW_OP_LLVM_fragment, 64, 64)), !dbg !512
  call void @llvm.dbg.value(metadata ptr undef, metadata !514, metadata !DIExpression()), !dbg !521
  call void @llvm.dbg.value(metadata i64 1, metadata !523, metadata !DIExpression()), !dbg !534
  call void @llvm.dbg.value(metadata i8 1, metadata !533, metadata !DIExpression()), !dbg !534
  call void @llvm.dbg.value(metadata i64 1, metadata !552, metadata !DIExpression()), !dbg !561
  call void @llvm.dbg.value(metadata i8 1, metadata !560, metadata !DIExpression()), !dbg !561
  call void @llvm.dbg.value(metadata i8 2, metadata !563, metadata !DIExpression()), !dbg !569
  call void @llvm.dbg.value(metadata ptr undef, metadata !543, metadata !DIExpression()), !dbg !571
  call void @llvm.dbg.value(metadata ptr undef, metadata !572, metadata !DIExpression()), !dbg !597
  call void @llvm.dbg.value(metadata ptr %_5, metadata !599, metadata !DIExpression()), !dbg !608
  call void @llvm.dbg.value(metadata ptr %_5, metadata !594, metadata !DIExpression()), !dbg !610
  %_15.i.i = icmp eq ptr %_5, inttoptr (i64 -1 to ptr), !dbg !611
  br i1 %_15.i.i, label %"_ZN4core3ptr87drop_in_place$LT$alloc..sync..Weak$LT$parking..Inner$C$$RF$alloc..alloc..Global$GT$$GT$17h3a39a1a2b50fa682E.exit", label %bb7.i.i, !dbg !612

bb7.i.i:                                          ; preds = %start
  %_18.i.i = getelementptr inbounds i8, ptr %_5, i64 8, !dbg !613
  call void @llvm.dbg.value(metadata ptr %_18.i.i, metadata !544, metadata !DIExpression(DW_OP_LLVM_fragment, 0, 64)), !dbg !614
  call void @llvm.dbg.value(metadata ptr %_18.i.i, metadata !549, metadata !DIExpression(DW_OP_LLVM_fragment, 0, 64)), !dbg !615
  call void @llvm.dbg.value(metadata ptr %_18.i.i, metadata !532, metadata !DIExpression()), !dbg !534
  call void @llvm.dbg.value(metadata ptr %_5, metadata !544, metadata !DIExpression(DW_OP_LLVM_fragment, 64, 64)), !dbg !614
  call void @llvm.dbg.value(metadata ptr %_5, metadata !549, metadata !DIExpression(DW_OP_LLVM_fragment, 64, 64)), !dbg !615
  call void @llvm.dbg.value(metadata ptr %_18.i.i, metadata !559, metadata !DIExpression()), !dbg !561
  %0 = atomicrmw sub ptr %_18.i.i, i64 1 release, align 8, !dbg !616, !noalias !617
  %1 = icmp eq i64 %0, 1, !dbg !620
  br i1 %1, label %bb1.i.i, label %"_ZN4core3ptr87drop_in_place$LT$alloc..sync..Weak$LT$parking..Inner$C$$RF$alloc..alloc..Global$GT$$GT$17h3a39a1a2b50fa682E.exit", !dbg !620

bb1.i.i:                                          ; preds = %bb7.i.i
  fence acquire, !dbg !621
  call void @llvm.dbg.value(metadata ptr undef, metadata !622, metadata !DIExpression()), !dbg !646
  call void @llvm.dbg.value(metadata ptr %_5, metadata !643, metadata !DIExpression()), !dbg !646
  call void @llvm.dbg.value(metadata i64 8, metadata !644, metadata !DIExpression(DW_OP_LLVM_fragment, 0, 64)), !dbg !646
  call void @llvm.dbg.value(metadata i64 40, metadata !644, metadata !DIExpression(DW_OP_LLVM_fragment, 64, 64)), !dbg !646
  call void @llvm.dbg.value(metadata i64 8, metadata !648, metadata !DIExpression(DW_OP_LLVM_fragment, 0, 64)), !dbg !657
  call void @llvm.dbg.value(metadata i64 40, metadata !648, metadata !DIExpression(DW_OP_LLVM_fragment, 64, 64)), !dbg !657
  call void @llvm.dbg.value(metadata ptr undef, metadata !655, metadata !DIExpression()), !dbg !657
  call void @llvm.dbg.value(metadata ptr %_5, metadata !656, metadata !DIExpression()), !dbg !657
  call void @llvm.dbg.value(metadata ptr %_5, metadata !659, metadata !DIExpression()), !dbg !667
  call void @llvm.dbg.value(metadata i64 8, metadata !666, metadata !DIExpression(DW_OP_LLVM_fragment, 0, 64)), !dbg !667
  call void @llvm.dbg.value(metadata i64 40, metadata !666, metadata !DIExpression(DW_OP_LLVM_fragment, 64, 64)), !dbg !667
  tail call void @__rust_dealloc(ptr noundef nonnull %_5, i64 noundef 40, i64 noundef 8) #20, !dbg !669, !noalias !617
  br label %"_ZN4core3ptr87drop_in_place$LT$alloc..sync..Weak$LT$parking..Inner$C$$RF$alloc..alloc..Global$GT$$GT$17h3a39a1a2b50fa682E.exit", !dbg !670

"_ZN4core3ptr87drop_in_place$LT$alloc..sync..Weak$LT$parking..Inner$C$$RF$alloc..alloc..Global$GT$$GT$17h3a39a1a2b50fa682E.exit": ; preds = %start, %bb7.i.i, %bb1.i.i
  ret void, !dbg !671
}

; alloc::task::raw_waker::drop_waker
; Function Attrs: nounwind nonlazybind uwtable
define internal void @_ZN5alloc4task9raw_waker10drop_waker17hc4a7792bfd155c23E(ptr noundef %waker) unnamed_addr #1 !dbg !672 {
start:
  %_x = alloca [8 x i8], align 8
  call void @llvm.dbg.declare(metadata ptr undef, metadata !680, metadata !DIExpression()), !dbg !689
  tail call void @llvm.dbg.value(metadata ptr %waker, metadata !677, metadata !DIExpression()), !dbg !699
  call void @llvm.dbg.declare(metadata ptr %_x, metadata !700, metadata !DIExpression()), !dbg !708
  tail call void @llvm.dbg.value(metadata ptr %waker, metadata !697, metadata !DIExpression()), !dbg !710
  tail call void @llvm.dbg.value(metadata ptr %waker, metadata !688, metadata !DIExpression()), !dbg !711
  call void @llvm.lifetime.start.p0(i64 8, ptr nonnull %_x), !dbg !712
  tail call void @llvm.dbg.value(metadata ptr %waker, metadata !713, metadata !DIExpression()), !dbg !724
  tail call void @llvm.dbg.value(metadata ptr %waker, metadata !726, metadata !DIExpression()), !dbg !736
  call void @llvm.dbg.declare(metadata ptr undef, metadata !719, metadata !DIExpression()), !dbg !738
  tail call void @llvm.dbg.value(metadata i64 16, metadata !720, metadata !DIExpression()), !dbg !739
  tail call void @llvm.dbg.value(metadata i64 16, metadata !735, metadata !DIExpression()), !dbg !736
  tail call void @llvm.dbg.value(metadata i64 16, metadata !740, metadata !DIExpression()), !dbg !747
  tail call void @llvm.dbg.value(metadata ptr %waker, metadata !746, metadata !DIExpression()), !dbg !747
  tail call void @llvm.dbg.value(metadata ptr %waker, metadata !749, metadata !DIExpression()), !dbg !756
  tail call void @llvm.dbg.value(metadata i64 -16, metadata !755, metadata !DIExpression()), !dbg !756
  %0 = getelementptr inbounds i8, ptr %waker, i64 -16, !dbg !758
  store ptr %0, ptr %_x, align 8, !dbg !712
  call void @llvm.dbg.value(metadata ptr %_x, metadata !759, metadata !DIExpression()), !dbg !765
  call void @llvm.dbg.value(metadata i64 1, metadata !767, metadata !DIExpression()), !dbg !773
  call void @llvm.dbg.value(metadata i8 1, metadata !772, metadata !DIExpression()), !dbg !773
  call void @llvm.dbg.value(metadata i64 1, metadata !780, metadata !DIExpression()), !dbg !786
  call void @llvm.dbg.value(metadata i8 1, metadata !785, metadata !DIExpression()), !dbg !786
  call void @llvm.dbg.value(metadata i8 2, metadata !788, metadata !DIExpression()), !dbg !792
  call void @llvm.dbg.value(metadata ptr %_x, metadata !778, metadata !DIExpression()), !dbg !794
  call void @llvm.dbg.value(metadata ptr %0, metadata !771, metadata !DIExpression()), !dbg !773
  call void @llvm.dbg.value(metadata ptr %0, metadata !784, metadata !DIExpression()), !dbg !786
  %1 = atomicrmw sub ptr %0, i64 1 release, align 8, !dbg !795, !noalias !796
  %2 = icmp eq i64 %1, 1, !dbg !801
  br i1 %2, label %bb2.i.i, label %"_ZN4core3ptr59drop_in_place$LT$alloc..sync..Arc$LT$parking..Inner$GT$$GT$17h6b2af5fac0f44142E.exit", !dbg !801

bb2.i.i:                                          ; preds = %start
  fence acquire, !dbg !802
; call alloc::sync::Arc<T,A>::drop_slow
  call fastcc void @"_ZN5alloc4sync16Arc$LT$T$C$A$GT$9drop_slow17hd5961035baad38d3E"(ptr noalias noundef nonnull align 8 dereferenceable(8) %_x), !dbg !803
  br label %"_ZN4core3ptr59drop_in_place$LT$alloc..sync..Arc$LT$parking..Inner$GT$$GT$17h6b2af5fac0f44142E.exit", !dbg !803

"_ZN4core3ptr59drop_in_place$LT$alloc..sync..Arc$LT$parking..Inner$GT$$GT$17h6b2af5fac0f44142E.exit": ; preds = %start, %bb2.i.i
  call void @llvm.lifetime.end.p0(i64 8, ptr nonnull %_x), !dbg !804
  ret void, !dbg !805
}

; alloc::task::raw_waker::clone_waker
; Function Attrs: alwaysinline nounwind nonlazybind memory(argmem: readwrite, inaccessiblemem: write) uwtable
define internal { ptr, ptr } @_ZN5alloc4task9raw_waker11clone_waker17h7c14368c8d84cae1E(ptr noundef %waker) unnamed_addr #2 !dbg !806 {
start:
  call void @llvm.dbg.declare(metadata ptr undef, metadata !809, metadata !DIExpression()), !dbg !823
  tail call void @llvm.dbg.value(metadata ptr %waker, metadata !808, metadata !DIExpression()), !dbg !831
  tail call void @llvm.dbg.value(metadata ptr %waker, metadata !829, metadata !DIExpression()), !dbg !832
  tail call void @llvm.dbg.value(metadata ptr %waker, metadata !814, metadata !DIExpression()), !dbg !833
  tail call void @llvm.dbg.value(metadata ptr %waker, metadata !713, metadata !DIExpression()), !dbg !834
  tail call void @llvm.dbg.value(metadata ptr %waker, metadata !726, metadata !DIExpression()), !dbg !836
  call void @llvm.dbg.declare(metadata ptr undef, metadata !719, metadata !DIExpression()), !dbg !838
  tail call void @llvm.dbg.value(metadata i64 16, metadata !720, metadata !DIExpression()), !dbg !839
  tail call void @llvm.dbg.value(metadata i64 16, metadata !735, metadata !DIExpression()), !dbg !836
  tail call void @llvm.dbg.value(metadata i64 16, metadata !740, metadata !DIExpression()), !dbg !840
  tail call void @llvm.dbg.value(metadata ptr %waker, metadata !746, metadata !DIExpression()), !dbg !840
  tail call void @llvm.dbg.value(metadata ptr %waker, metadata !749, metadata !DIExpression()), !dbg !842
  tail call void @llvm.dbg.value(metadata i64 -16, metadata !755, metadata !DIExpression()), !dbg !842
  %0 = getelementptr inbounds i8, ptr %waker, i64 -16, !dbg !844
  tail call void @llvm.dbg.value(metadata ptr %0, metadata !815, metadata !DIExpression()), !dbg !845
  tail call void @llvm.dbg.value(metadata ptr undef, metadata !846, metadata !DIExpression()), !dbg !855
  call void @llvm.dbg.value(metadata i64 1, metadata !857, metadata !DIExpression()), !dbg !864
  call void @llvm.dbg.value(metadata i8 0, metadata !863, metadata !DIExpression()), !dbg !864
  call void @llvm.dbg.value(metadata i64 1, metadata !876, metadata !DIExpression()), !dbg !882
  call void @llvm.dbg.value(metadata i8 0, metadata !881, metadata !DIExpression()), !dbg !882
  call void @llvm.dbg.value(metadata ptr undef, metadata !872, metadata !DIExpression()), !dbg !884
  call void @llvm.dbg.value(metadata ptr %0, metadata !862, metadata !DIExpression()), !dbg !864
  call void @llvm.dbg.value(metadata ptr %0, metadata !880, metadata !DIExpression()), !dbg !882
  %1 = atomicrmw add ptr %0, i64 1 monotonic, align 8, !dbg !885
  call void @llvm.dbg.value(metadata i64 %1, metadata !873, metadata !DIExpression()), !dbg !886
  %_4.i = icmp slt i64 %1, 0, !dbg !887
  br i1 %_4.i, label %bb1.i, label %"_ZN68_$LT$alloc..sync..Arc$LT$T$C$A$GT$$u20$as$u20$core..clone..Clone$GT$5clone17hd522fc41728ecb63E.exit", !dbg !887

bb1.i:                                            ; preds = %start
  tail call void @llvm.trap(), !dbg !888
  unreachable, !dbg !888

"_ZN68_$LT$alloc..sync..Arc$LT$T$C$A$GT$$u20$as$u20$core..clone..Clone$GT$5clone17hd522fc41728ecb63E.exit": ; preds = %start
  %2 = insertvalue { ptr, ptr } { ptr @alloc_0fb556b02ca7c93cd9ee17a418c3f63c, ptr poison }, ptr %waker, 1, !dbg !889
  ret { ptr, ptr } %2, !dbg !889
}

; alloc::task::raw_waker::wake_by_ref
; Function Attrs: nonlazybind uwtable
define internal void @_ZN5alloc4task9raw_waker11wake_by_ref17h0bfaf7d7d0b41fffE(ptr noundef nonnull %waker) unnamed_addr #3 !dbg !890 {
start:
  tail call void @llvm.dbg.value(metadata ptr %waker, metadata !892, metadata !DIExpression()), !dbg !895
  tail call void @llvm.dbg.value(metadata ptr %waker, metadata !893, metadata !DIExpression(DW_OP_constu, 16, DW_OP_minus, DW_OP_stack_value)), !dbg !896
  call void @llvm.dbg.value(metadata ptr undef, metadata !897, metadata !DIExpression()), !dbg !904
; call parking::Inner::unpark
  %_2.i = tail call noundef zeroext i1 @_ZN7parking5Inner6unpark17h2d81dc2aaee87566E(ptr noundef nonnull align 8 %waker), !dbg !906
  ret void, !dbg !907
}

; alloc::task::raw_waker::wake
; Function Attrs: nonlazybind uwtable
define internal void @_ZN5alloc4task9raw_waker4wake17h623d9473fe9f5edcE(ptr noundef nonnull %waker) unnamed_addr #3 personality ptr @rust_eh_personality !dbg !908 {
start:
  %self.i = alloca [8 x i8], align 8
  tail call void @llvm.dbg.value(metadata ptr %waker, metadata !910, metadata !DIExpression()), !dbg !913
  tail call void @llvm.dbg.value(metadata ptr %waker, metadata !914, metadata !DIExpression()), !dbg !921
  tail call void @llvm.dbg.value(metadata ptr %waker, metadata !713, metadata !DIExpression()), !dbg !923
  tail call void @llvm.dbg.value(metadata ptr %waker, metadata !726, metadata !DIExpression()), !dbg !925
  call void @llvm.dbg.declare(metadata ptr undef, metadata !719, metadata !DIExpression()), !dbg !927
  tail call void @llvm.dbg.value(metadata i64 16, metadata !720, metadata !DIExpression()), !dbg !928
  tail call void @llvm.dbg.value(metadata i64 16, metadata !735, metadata !DIExpression()), !dbg !925
  tail call void @llvm.dbg.value(metadata i64 16, metadata !740, metadata !DIExpression()), !dbg !929
  tail call void @llvm.dbg.value(metadata ptr %waker, metadata !746, metadata !DIExpression()), !dbg !929
  tail call void @llvm.dbg.value(metadata ptr %waker, metadata !749, metadata !DIExpression()), !dbg !931
  tail call void @llvm.dbg.value(metadata i64 -16, metadata !755, metadata !DIExpression()), !dbg !931
  %0 = getelementptr inbounds i8, ptr %waker, i64 -16, !dbg !933
  tail call void @llvm.dbg.value(metadata ptr %0, metadata !911, metadata !DIExpression()), !dbg !934
  call void @llvm.lifetime.start.p0(i64 8, ptr nonnull %self.i)
  store ptr %0, ptr %self.i, align 8
  call void @llvm.dbg.declare(metadata ptr %self.i, metadata !935, metadata !DIExpression()), !dbg !938
; invoke parking::Inner::unpark
  %_2.i = invoke noundef zeroext i1 @_ZN7parking5Inner6unpark17h2d81dc2aaee87566E(ptr noundef nonnull align 8 %waker)
          to label %bb1.i unwind label %cleanup.i, !dbg !940

cleanup.i:                                        ; preds = %start
  %1 = landingpad { ptr, i32 }
          cleanup
  call void @llvm.dbg.value(metadata ptr %self.i, metadata !759, metadata !DIExpression()), !dbg !941
  call void @llvm.dbg.value(metadata i64 1, metadata !767, metadata !DIExpression()), !dbg !943
  call void @llvm.dbg.value(metadata i8 1, metadata !772, metadata !DIExpression()), !dbg !943
  call void @llvm.dbg.value(metadata i64 1, metadata !780, metadata !DIExpression()), !dbg !946
  call void @llvm.dbg.value(metadata i8 1, metadata !785, metadata !DIExpression()), !dbg !946
  call void @llvm.dbg.value(metadata i8 2, metadata !788, metadata !DIExpression()), !dbg !948
  call void @llvm.dbg.value(metadata ptr %self.i, metadata !778, metadata !DIExpression()), !dbg !950
  call void @llvm.dbg.value(metadata ptr %0, metadata !771, metadata !DIExpression()), !dbg !943
  call void @llvm.dbg.value(metadata ptr %0, metadata !784, metadata !DIExpression()), !dbg !946
  %2 = atomicrmw sub ptr %0, i64 1 release, align 8, !dbg !951, !noalias !952
  %3 = icmp eq i64 %2, 1, !dbg !957
  br i1 %3, label %bb2.i.i.i, label %bb4.i, !dbg !957

bb2.i.i.i:                                        ; preds = %cleanup.i
  fence acquire, !dbg !958
; call alloc::sync::Arc<T,A>::drop_slow
  call fastcc void @"_ZN5alloc4sync16Arc$LT$T$C$A$GT$9drop_slow17hd5961035baad38d3E"(ptr noalias noundef nonnull align 8 dereferenceable(8) %self.i), !dbg !959
  br label %bb4.i, !dbg !959

bb1.i:                                            ; preds = %start
  call void @llvm.dbg.value(metadata ptr %self.i, metadata !759, metadata !DIExpression()), !dbg !960
  call void @llvm.dbg.value(metadata i64 1, metadata !767, metadata !DIExpression()), !dbg !962
  call void @llvm.dbg.value(metadata i8 1, metadata !772, metadata !DIExpression()), !dbg !962
  call void @llvm.dbg.value(metadata i64 1, metadata !780, metadata !DIExpression()), !dbg !965
  call void @llvm.dbg.value(metadata i8 1, metadata !785, metadata !DIExpression()), !dbg !965
  call void @llvm.dbg.value(metadata i8 2, metadata !788, metadata !DIExpression()), !dbg !967
  call void @llvm.dbg.value(metadata ptr %self.i, metadata !778, metadata !DIExpression()), !dbg !969
  call void @llvm.dbg.value(metadata ptr %0, metadata !771, metadata !DIExpression()), !dbg !962
  call void @llvm.dbg.value(metadata ptr %0, metadata !784, metadata !DIExpression()), !dbg !965
  %4 = atomicrmw sub ptr %0, i64 1 release, align 8, !dbg !970, !noalias !971
  %5 = icmp eq i64 %4, 1, !dbg !976
  br i1 %5, label %bb2.i.i6.i, label %"_ZN52_$LT$parking..Inner$u20$as$u20$alloc..task..Wake$GT$4wake17h18695aad9a43413bE.exit", !dbg !976

bb2.i.i6.i:                                       ; preds = %bb1.i
  fence acquire, !dbg !977
; call alloc::sync::Arc<T,A>::drop_slow
  call fastcc void @"_ZN5alloc4sync16Arc$LT$T$C$A$GT$9drop_slow17hd5961035baad38d3E"(ptr noalias noundef nonnull align 8 dereferenceable(8) %self.i), !dbg !978
  br label %"_ZN52_$LT$parking..Inner$u20$as$u20$alloc..task..Wake$GT$4wake17h18695aad9a43413bE.exit", !dbg !978

bb4.i:                                            ; preds = %bb2.i.i.i, %cleanup.i
  resume { ptr, i32 } %1, !dbg !979

"_ZN52_$LT$parking..Inner$u20$as$u20$alloc..task..Wake$GT$4wake17h18695aad9a43413bE.exit": ; preds = %bb1.i, %bb2.i.i6.i
  call void @llvm.lifetime.end.p0(i64 8, ptr nonnull %self.i), !dbg !980
  ret void, !dbg !981
}

; alloc::raw_vec::finish_grow
; Function Attrs: noinline nounwind nonlazybind uwtable
define internal fastcc void @_ZN5alloc7raw_vec11finish_grow17h68b2933e3a686549E(ptr dead_on_unwind noalias nocapture noundef writable writeonly align 8 dereferenceable(24) %_0, i64 noundef %0, i64 %1, ptr noalias nocapture noundef readonly align 8 dereferenceable(24) %current_memory) unnamed_addr #0 !dbg !982 {
start:
  call void @llvm.dbg.declare(metadata ptr undef, metadata !1137, metadata !DIExpression()), !dbg !1169
  call void @llvm.dbg.declare(metadata ptr undef, metadata !1171, metadata !DIExpression()), !dbg !1190
  tail call void @llvm.dbg.value(metadata i64 %0, metadata !1062, metadata !DIExpression(DW_OP_LLVM_fragment, 0, 64)), !dbg !1192
  tail call void @llvm.dbg.value(metadata i64 %0, metadata !1164, metadata !DIExpression(DW_OP_LLVM_fragment, 0, 64)), !dbg !1193
  tail call void @llvm.dbg.value(metadata i64 %1, metadata !1062, metadata !DIExpression(DW_OP_LLVM_fragment, 64, 64)), !dbg !1192
  tail call void @llvm.dbg.value(metadata i64 %1, metadata !1164, metadata !DIExpression(DW_OP_LLVM_fragment, 64, 64)), !dbg !1193
  call void @llvm.dbg.declare(metadata ptr %current_memory, metadata !1063, metadata !DIExpression()), !dbg !1194
  tail call void @llvm.dbg.value(metadata ptr undef, metadata !1064, metadata !DIExpression()), !dbg !1192
  %2 = icmp eq i64 %0, 0, !dbg !1195
  br i1 %2, label %bb8, label %bb9, !dbg !1196

bb9:                                              ; preds = %start
  tail call void @llvm.dbg.value(metadata i64 %0, metadata !1065, metadata !DIExpression(DW_OP_LLVM_fragment, 0, 64)), !dbg !1197
  tail call void @llvm.dbg.value(metadata i64 %1, metadata !1065, metadata !DIExpression(DW_OP_LLVM_fragment, 64, 64)), !dbg !1197
  %3 = getelementptr inbounds i8, ptr %current_memory, i64 8, !dbg !1198
  %4 = load i64, ptr %3, align 8, !dbg !1198, !range !1199, !noundef !29
  %5 = icmp eq i64 %4, 0, !dbg !1198
  br i1 %5, label %bb2, label %bb3, !dbg !1198

bb8:                                              ; preds = %start
  tail call void @llvm.dbg.value(metadata i64 0, metadata !1067, metadata !DIExpression(DW_OP_LLVM_fragment, 0, 64)), !dbg !1200
  tail call void @llvm.dbg.value(metadata i64 0, metadata !1201, metadata !DIExpression(DW_OP_LLVM_fragment, 0, 64)), !dbg !1219
  tail call void @llvm.dbg.value(metadata i64 undef, metadata !1067, metadata !DIExpression(DW_OP_LLVM_fragment, 64, 64)), !dbg !1200
  tail call void @llvm.dbg.value(metadata i64 undef, metadata !1201, metadata !DIExpression(DW_OP_LLVM_fragment, 64, 64)), !dbg !1219
  tail call void @llvm.dbg.value(metadata i64 0, metadata !1216, metadata !DIExpression(DW_OP_LLVM_fragment, 0, 64)), !dbg !1221
  tail call void @llvm.dbg.value(metadata i64 undef, metadata !1216, metadata !DIExpression(DW_OP_LLVM_fragment, 64, 64)), !dbg !1221
  %6 = getelementptr inbounds i8, ptr %_0, i64 8, !dbg !1222
  store i64 0, ptr %6, align 8, !dbg !1222
  br label %bb7, !dbg !1223

bb3:                                              ; preds = %bb9
  %ptr = load ptr, ptr %current_memory, align 8, !dbg !1224, !nonnull !29, !noundef !29
  tail call void @llvm.dbg.value(metadata ptr %ptr, metadata !1125, metadata !DIExpression()), !dbg !1225
  %7 = getelementptr inbounds i8, ptr %current_memory, i64 16, !dbg !1226
  %8 = load i64, ptr %7, align 8, !dbg !1226, !noundef !29
  tail call void @llvm.dbg.value(metadata i64 %4, metadata !1127, metadata !DIExpression(DW_OP_LLVM_fragment, 0, 64)), !dbg !1225
  tail call void @llvm.dbg.value(metadata i64 %8, metadata !1127, metadata !DIExpression(DW_OP_LLVM_fragment, 64, 64)), !dbg !1225
  %cond = icmp eq i64 %4, %0, !dbg !1227
  tail call void @llvm.dbg.value(metadata i1 %cond, metadata !1228, metadata !DIExpression(DW_OP_LLVM_convert, 1, DW_ATE_unsigned, DW_OP_LLVM_convert, 8, DW_ATE_unsigned, DW_OP_stack_value)), !dbg !1236
  tail call void @llvm.assume(i1 %cond), !dbg !1238
  call void @llvm.dbg.value(metadata ptr undef, metadata !1239, metadata !DIExpression()), !dbg !1247
  call void @llvm.dbg.value(metadata ptr %ptr, metadata !1244, metadata !DIExpression()), !dbg !1247
  call void @llvm.dbg.value(metadata i64 %4, metadata !1245, metadata !DIExpression(DW_OP_LLVM_fragment, 0, 64)), !dbg !1247
  call void @llvm.dbg.value(metadata i64 %8, metadata !1245, metadata !DIExpression(DW_OP_LLVM_fragment, 64, 64)), !dbg !1247
  call void @llvm.dbg.value(metadata i64 %0, metadata !1246, metadata !DIExpression(DW_OP_LLVM_fragment, 0, 64)), !dbg !1247
  call void @llvm.dbg.value(metadata i64 %1, metadata !1246, metadata !DIExpression(DW_OP_LLVM_fragment, 64, 64)), !dbg !1247
  call void @llvm.dbg.value(metadata i64 %4, metadata !1249, metadata !DIExpression(DW_OP_LLVM_fragment, 0, 64)), !dbg !1293
  call void @llvm.dbg.value(metadata i64 %8, metadata !1249, metadata !DIExpression(DW_OP_LLVM_fragment, 64, 64)), !dbg !1293
  call void @llvm.dbg.value(metadata i64 %0, metadata !1257, metadata !DIExpression(DW_OP_LLVM_fragment, 0, 64)), !dbg !1293
  call void @llvm.dbg.value(metadata i64 %1, metadata !1257, metadata !DIExpression(DW_OP_LLVM_fragment, 64, 64)), !dbg !1293
  call void @llvm.dbg.value(metadata ptr undef, metadata !1255, metadata !DIExpression()), !dbg !1293
  call void @llvm.dbg.value(metadata ptr %ptr, metadata !1256, metadata !DIExpression()), !dbg !1293
  call void @llvm.dbg.value(metadata i1 false, metadata !1258, metadata !DIExpression(DW_OP_LLVM_convert, 1, DW_ATE_unsigned, DW_OP_LLVM_convert, 8, DW_ATE_unsigned, DW_OP_stack_value)), !dbg !1293
  call void @llvm.dbg.value(metadata i64 %8, metadata !1259, metadata !DIExpression()), !dbg !1295
  %9 = icmp eq i64 %8, 0, !dbg !1296
  br i1 %9, label %bb1.i.i, label %bb3.i.i, !dbg !1296

bb1.i.i:                                          ; preds = %bb3
  call void @llvm.dbg.value(metadata i64 %0, metadata !1297, metadata !DIExpression(DW_OP_LLVM_fragment, 0, 64)), !dbg !1315
  call void @llvm.dbg.value(metadata i64 %1, metadata !1297, metadata !DIExpression(DW_OP_LLVM_fragment, 64, 64)), !dbg !1315
  call void @llvm.dbg.value(metadata ptr undef, metadata !1303, metadata !DIExpression()), !dbg !1315
  call void @llvm.dbg.value(metadata i1 false, metadata !1304, metadata !DIExpression(DW_OP_LLVM_convert, 1, DW_ATE_unsigned, DW_OP_LLVM_convert, 8, DW_ATE_unsigned, DW_OP_stack_value)), !dbg !1315
  call void @llvm.dbg.value(metadata i64 %1, metadata !1305, metadata !DIExpression()), !dbg !1317
  %10 = icmp eq i64 %1, 0, !dbg !1318
  br i1 %10, label %bb2.i.i.i, label %bb5.i.i.i, !dbg !1318

bb2.i.i.i:                                        ; preds = %bb1.i.i
  call void @llvm.dbg.value(metadata ptr undef, metadata !1319, metadata !DIExpression()), !dbg !1326
  call void @llvm.dbg.value(metadata i64 %0, metadata !1328, metadata !DIExpression()), !dbg !1334
  %ptr.i.i.i.i = getelementptr i8, ptr null, i64 %0, !dbg !1336
  br label %bb6, !dbg !1337

bb5.i.i.i:                                        ; preds = %bb1.i.i
  call void @llvm.dbg.value(metadata ptr @__rust_no_alloc_shim_is_unstable, metadata !1338, metadata !DIExpression()), !dbg !1344
  call void @llvm.dbg.value(metadata i64 %0, metadata !1350, metadata !DIExpression(DW_OP_LLVM_fragment, 0, 64)), !dbg !1352
  call void @llvm.dbg.value(metadata i64 %1, metadata !1350, metadata !DIExpression(DW_OP_LLVM_fragment, 64, 64)), !dbg !1352
  %11 = load volatile i8, ptr @__rust_no_alloc_shim_is_unstable, align 1, !dbg !1353
  %_0.i.i.i.i = tail call noalias noundef ptr @__rust_alloc(i64 noundef %1, i64 noundef %0) #20, !dbg !1354
  call void @llvm.dbg.value(metadata ptr %_0.i.i.i.i, metadata !1307, metadata !DIExpression()), !dbg !1355
  call void @llvm.dbg.value(metadata ptr %_0.i.i.i.i, metadata !1307, metadata !DIExpression()), !dbg !1355
  call void @llvm.dbg.value(metadata ptr %_0.i.i.i.i, metadata !1356, metadata !DIExpression()), !dbg !1377
  br label %bb6, !dbg !1379

bb3.i.i:                                          ; preds = %bb3
  call void @llvm.dbg.value(metadata ptr undef, metadata !1261, metadata !DIExpression()), !dbg !1295
  call void @llvm.dbg.value(metadata i64 %1, metadata !1262, metadata !DIExpression()), !dbg !1380
  %cond.i.i = icmp ule i64 %8, %1, !dbg !1381
  call void @llvm.dbg.value(metadata i1 %cond.i.i, metadata !1382, metadata !DIExpression(DW_OP_LLVM_convert, 1, DW_ATE_unsigned, DW_OP_LLVM_convert, 8, DW_ATE_unsigned, DW_OP_stack_value)), !dbg !1386
  tail call void @llvm.assume(i1 %cond.i.i), !dbg !1388
  call void @llvm.dbg.value(metadata ptr %ptr, metadata !1389, metadata !DIExpression()), !dbg !1397
  call void @llvm.dbg.value(metadata i64 %4, metadata !1395, metadata !DIExpression(DW_OP_LLVM_fragment, 0, 64)), !dbg !1397
  call void @llvm.dbg.value(metadata i64 %8, metadata !1395, metadata !DIExpression(DW_OP_LLVM_fragment, 64, 64)), !dbg !1397
  call void @llvm.dbg.value(metadata i64 %1, metadata !1396, metadata !DIExpression()), !dbg !1397
  %12 = tail call noundef ptr @__rust_realloc(ptr noundef nonnull %ptr, i64 noundef %8, i64 noundef %0, i64 noundef %1) #20, !dbg !1399
  call void @llvm.dbg.value(metadata ptr %12, metadata !1264, metadata !DIExpression()), !dbg !1400
  call void @llvm.dbg.value(metadata ptr %12, metadata !1401, metadata !DIExpression()), !dbg !1405
  br label %bb6, !dbg !1407

bb2:                                              ; preds = %bb9
  call void @llvm.dbg.value(metadata ptr undef, metadata !1408, metadata !DIExpression()), !dbg !1414
  call void @llvm.dbg.value(metadata i64 %0, metadata !1413, metadata !DIExpression(DW_OP_LLVM_fragment, 0, 64)), !dbg !1414
  call void @llvm.dbg.value(metadata i64 %1, metadata !1413, metadata !DIExpression(DW_OP_LLVM_fragment, 64, 64)), !dbg !1414
  call void @llvm.dbg.value(metadata i64 %0, metadata !1297, metadata !DIExpression(DW_OP_LLVM_fragment, 0, 64)), !dbg !1416
  call void @llvm.dbg.value(metadata i64 %1, metadata !1297, metadata !DIExpression(DW_OP_LLVM_fragment, 64, 64)), !dbg !1416
  call void @llvm.dbg.value(metadata ptr undef, metadata !1303, metadata !DIExpression()), !dbg !1416
  call void @llvm.dbg.value(metadata i1 false, metadata !1304, metadata !DIExpression(DW_OP_LLVM_convert, 1, DW_ATE_unsigned, DW_OP_LLVM_convert, 8, DW_ATE_unsigned, DW_OP_stack_value)), !dbg !1416
  call void @llvm.dbg.value(metadata i64 %1, metadata !1305, metadata !DIExpression()), !dbg !1418
  %13 = icmp eq i64 %1, 0, !dbg !1419
  br i1 %13, label %bb2.i.i34, label %bb5.i.i, !dbg !1419

bb2.i.i34:                                        ; preds = %bb2
  call void @llvm.dbg.value(metadata ptr undef, metadata !1319, metadata !DIExpression()), !dbg !1420
  call void @llvm.dbg.value(metadata i64 %0, metadata !1328, metadata !DIExpression()), !dbg !1422
  %ptr.i.i.i = getelementptr i8, ptr null, i64 %0, !dbg !1424
  br label %bb6, !dbg !1425

bb5.i.i:                                          ; preds = %bb2
  call void @llvm.dbg.value(metadata ptr @__rust_no_alloc_shim_is_unstable, metadata !1338, metadata !DIExpression()), !dbg !1426
  call void @llvm.dbg.value(metadata i64 %0, metadata !1350, metadata !DIExpression(DW_OP_LLVM_fragment, 0, 64)), !dbg !1429
  call void @llvm.dbg.value(metadata i64 %1, metadata !1350, metadata !DIExpression(DW_OP_LLVM_fragment, 64, 64)), !dbg !1429
  %14 = load volatile i8, ptr @__rust_no_alloc_shim_is_unstable, align 1, !dbg !1430
  %_0.i.i.i = tail call noalias noundef ptr @__rust_alloc(i64 noundef %1, i64 noundef %0) #20, !dbg !1431
  call void @llvm.dbg.value(metadata ptr %_0.i.i.i, metadata !1307, metadata !DIExpression()), !dbg !1432
  call void @llvm.dbg.value(metadata ptr %_0.i.i.i, metadata !1356, metadata !DIExpression()), !dbg !1433
  br label %bb6, !dbg !1435

bb6:                                              ; preds = %bb5.i.i, %bb2.i.i34, %bb3.i.i, %bb5.i.i.i, %bb2.i.i.i
  %_0.sroa.0.0.i.i33.pn = phi ptr [ %12, %bb3.i.i ], [ %ptr.i.i.i.i, %bb2.i.i.i ], [ %_0.i.i.i.i, %bb5.i.i.i ], [ %ptr.i.i.i, %bb2.i.i34 ], [ %_0.i.i.i, %bb5.i.i ]
  tail call void @llvm.dbg.value(metadata i64 poison, metadata !1107, metadata !DIExpression(DW_OP_LLVM_fragment, 64, 64)), !dbg !1436
  tail call void @llvm.dbg.value(metadata ptr %_0.sroa.0.0.i.i33.pn, metadata !1107, metadata !DIExpression(DW_OP_LLVM_fragment, 0, 64)), !dbg !1436
  tail call void @llvm.dbg.value(metadata ptr %_0.sroa.0.0.i.i33.pn, metadata !1186, metadata !DIExpression(DW_OP_LLVM_fragment, 0, 64)), !dbg !1437
  tail call void @llvm.dbg.value(metadata i64 poison, metadata !1186, metadata !DIExpression(DW_OP_LLVM_fragment, 64, 64)), !dbg !1437
  tail call void @llvm.dbg.value(metadata ptr undef, metadata !1187, metadata !DIExpression()), !dbg !1437
  %15 = icmp eq ptr %_0.sroa.0.0.i.i33.pn, null, !dbg !1438
  %16 = getelementptr inbounds i8, ptr %_0, i64 8, !dbg !1437
  %17 = getelementptr inbounds i8, ptr %_0, i64 16, !dbg !1437
  br i1 %15, label %bb13, label %bb14, !dbg !1439

bb14:                                             ; preds = %bb6
  tail call void @llvm.dbg.value(metadata i64 %1, metadata !1107, metadata !DIExpression(DW_OP_LLVM_fragment, 64, 64)), !dbg !1436
  tail call void @llvm.dbg.value(metadata i64 %1, metadata !1186, metadata !DIExpression(DW_OP_LLVM_fragment, 64, 64)), !dbg !1437
  tail call void @llvm.dbg.value(metadata ptr %_0.sroa.0.0.i.i33.pn, metadata !1188, metadata !DIExpression(DW_OP_LLVM_fragment, 0, 64)), !dbg !1440
  tail call void @llvm.dbg.value(metadata i64 %1, metadata !1188, metadata !DIExpression(DW_OP_LLVM_fragment, 64, 64)), !dbg !1440
  store ptr %_0.sroa.0.0.i.i33.pn, ptr %16, align 8, !dbg !1441
  store i64 %1, ptr %17, align 8, !dbg !1441
  br label %bb7, !dbg !1442

bb13:                                             ; preds = %bb6
  store i64 %0, ptr %16, align 8, !dbg !1443
  store i64 %1, ptr %17, align 8, !dbg !1443
  br label %bb7, !dbg !1444

bb7:                                              ; preds = %bb14, %bb13, %bb8
  %storemerge32 = phi i64 [ 1, %bb8 ], [ 0, %bb14 ], [ 1, %bb13 ], !dbg !1192
  store i64 %storemerge32, ptr %_0, align 8, !dbg !1192
  ret void, !dbg !1223
}

; alloc::raw_vec::RawVec<T,A>::reserve::do_reserve_and_handle
; Function Attrs: cold nonlazybind uwtable
define internal fastcc void @"_ZN5alloc7raw_vec19RawVec$LT$T$C$A$GT$7reserve21do_reserve_and_handle17h27ea52722b8b0785E"(ptr noalias nocapture noundef align 8 dereferenceable(16) %slf, i64 noundef %len, i64 noundef %additional) unnamed_addr #4 personality ptr @rust_eh_personality !dbg !1445 {
start:
  %_17.i = alloca [24 x i8], align 8
  %self5.i = alloca [24 x i8], align 8
  tail call void @llvm.dbg.value(metadata ptr %slf, metadata !1467, metadata !DIExpression()), !dbg !1472
  tail call void @llvm.dbg.value(metadata i64 %len, metadata !1468, metadata !DIExpression()), !dbg !1472
  tail call void @llvm.dbg.value(metadata i64 %additional, metadata !1469, metadata !DIExpression()), !dbg !1472
  tail call void @llvm.experimental.noalias.scope.decl(metadata !1473), !dbg !1476
  call void @llvm.dbg.value(metadata i64 8, metadata !1477, metadata !DIExpression()), !dbg !1488
  call void @llvm.dbg.value(metadata i64 8, metadata !1531, metadata !DIExpression()), !dbg !1542
  call void @llvm.dbg.value(metadata ptr %slf, metadata !1511, metadata !DIExpression()), !dbg !1544
  call void @llvm.dbg.value(metadata ptr %slf, metadata !1545, metadata !DIExpression()), !dbg !1554
  call void @llvm.dbg.value(metadata i64 %len, metadata !1512, metadata !DIExpression()), !dbg !1544
  call void @llvm.dbg.value(metadata i64 %len, metadata !1556, metadata !DIExpression()), !dbg !1580
  call void @llvm.dbg.value(metadata i64 %len, metadata !1582, metadata !DIExpression()), !dbg !1596
  call void @llvm.dbg.value(metadata i64 %additional, metadata !1513, metadata !DIExpression()), !dbg !1544
  call void @llvm.dbg.value(metadata i64 %additional, metadata !1576, metadata !DIExpression()), !dbg !1580
  call void @llvm.dbg.value(metadata i64 %additional, metadata !1592, metadata !DIExpression()), !dbg !1596
  call void @llvm.dbg.declare(metadata ptr %self5.i, metadata !1598, metadata !DIExpression()), !dbg !1627
  %0 = tail call { i64, i1 } @llvm.uadd.with.overflow.i64(i64 %len, i64 %additional), !dbg !1629
  %_25.1.i = extractvalue { i64, i1 } %0, 1, !dbg !1629
  call void @llvm.dbg.value(metadata i1 %_25.1.i, metadata !1579, metadata !DIExpression(DW_OP_LLVM_convert, 1, DW_ATE_unsigned, DW_OP_LLVM_convert, 8, DW_ATE_unsigned, DW_OP_stack_value)), !dbg !1630
  call void @llvm.dbg.value(metadata i64 poison, metadata !1577, metadata !DIExpression()), !dbg !1630
  br i1 %_25.1.i, label %bb2, label %bb10.i, !dbg !1631

bb10.i:                                           ; preds = %start
  %_25.0.i = extractvalue { i64, i1 } %0, 0, !dbg !1629
  call void @llvm.dbg.value(metadata i64 %_25.0.i, metadata !1577, metadata !DIExpression()), !dbg !1630
  call void @llvm.dbg.value(metadata i64 %_25.0.i, metadata !1514, metadata !DIExpression()), !dbg !1634
  call void @llvm.dbg.value(metadata i64 %_25.0.i, metadata !1486, metadata !DIExpression()), !dbg !1635
  call void @llvm.dbg.value(metadata i64 %_25.0.i, metadata !1538, metadata !DIExpression()), !dbg !1637
  %_12.i = load i64, ptr %slf, align 8, !dbg !1639, !alias.scope !1473, !noundef !29
  %v1.i = shl i64 %_12.i, 1, !dbg !1639
  call void @llvm.dbg.value(metadata i64 %v1.i, metadata !1484, metadata !DIExpression()), !dbg !1635
  call void @llvm.dbg.value(metadata i64 %v1.i, metadata !1536, metadata !DIExpression()), !dbg !1637
  call void @llvm.dbg.value(metadata i64 %v1.i, metadata !1640, metadata !DIExpression()), !dbg !1652
  call void @llvm.dbg.value(metadata i64 %_25.0.i, metadata !1648, metadata !DIExpression()), !dbg !1652
  call void @llvm.dbg.declare(metadata ptr undef, metadata !1649, metadata !DIExpression()), !dbg !1654
  %_0.sroa.0.0.sroa.speculated.i.i = tail call noundef i64 @llvm.umax.i64(i64 %v1.i, i64 %_25.0.i), !dbg !1652
  call void @llvm.dbg.value(metadata i64 %_0.sroa.0.0.sroa.speculated.i.i, metadata !1519, metadata !DIExpression()), !dbg !1655
  call void @llvm.dbg.value(metadata i64 %_0.sroa.0.0.sroa.speculated.i.i, metadata !1487, metadata !DIExpression()), !dbg !1488
  call void @llvm.dbg.value(metadata i64 %_0.sroa.0.0.sroa.speculated.i.i, metadata !1539, metadata !DIExpression()), !dbg !1542
  call void @llvm.dbg.value(metadata i64 8, metadata !1640, metadata !DIExpression()), !dbg !1656
  call void @llvm.dbg.value(metadata i64 %_0.sroa.0.0.sroa.speculated.i.i, metadata !1648, metadata !DIExpression()), !dbg !1656
  call void @llvm.dbg.declare(metadata ptr undef, metadata !1649, metadata !DIExpression()), !dbg !1658
  %_0.sroa.0.0.sroa.speculated.i27.i = tail call noundef i64 @llvm.umax.i64(i64 %_0.sroa.0.0.sroa.speculated.i.i, i64 8), !dbg !1656
  call void @llvm.dbg.value(metadata i64 %_0.sroa.0.0.sroa.speculated.i27.i, metadata !1520, metadata !DIExpression()), !dbg !1659
  call void @llvm.dbg.value(metadata i64 %_0.sroa.0.0.sroa.speculated.i27.i, metadata !1660, metadata !DIExpression()), !dbg !1667
  call void @llvm.dbg.value(metadata i64 %_0.sroa.0.0.sroa.speculated.i27.i, metadata !1553, metadata !DIExpression()), !dbg !1554
  call void @llvm.dbg.value(metadata i64 1, metadata !1669, metadata !DIExpression()), !dbg !1680
  call void @llvm.dbg.value(metadata i64 1, metadata !1676, metadata !DIExpression()), !dbg !1680
  call void @llvm.dbg.value(metadata i64 %_0.sroa.0.0.sroa.speculated.i27.i, metadata !1677, metadata !DIExpression()), !dbg !1680
  %_4.i.i = icmp sgt i64 %_0.sroa.0.0.sroa.speculated.i27.i, -1, !dbg !1682
  %_0.sroa.0.0.i.i = zext i1 %_4.i.i to i64, !dbg !1682
  call void @llvm.dbg.value(metadata i64 %_0.sroa.0.0.i.i, metadata !1522, metadata !DIExpression(DW_OP_LLVM_fragment, 0, 64)), !dbg !1683
  call void @llvm.dbg.value(metadata i64 %_0.sroa.0.0.sroa.speculated.i27.i, metadata !1522, metadata !DIExpression(DW_OP_LLVM_fragment, 64, 64)), !dbg !1683
  call void @llvm.lifetime.start.p0(i64 24, ptr nonnull %self5.i), !dbg !1684, !noalias !1473
  call void @llvm.lifetime.start.p0(i64 24, ptr nonnull %_17.i), !dbg !1685, !noalias !1473
  %1 = getelementptr inbounds i8, ptr %slf, i64 8, !dbg !1685
  call void @llvm.dbg.value(metadata ptr undef, metadata !1686, metadata !DIExpression()), !dbg !1699
  %2 = icmp eq i64 %_12.i, 0, !dbg !1701
  br i1 %2, label %"_ZN5alloc7raw_vec19RawVec$LT$T$C$A$GT$14current_memory17h5aaefd636b7b1aa1E.exit.i", label %bb4.i.i, !dbg !1701

bb4.i.i:                                          ; preds = %bb10.i
  %self.val26.i = load ptr, ptr %1, align 8, !dbg !1685, !alias.scope !1473, !nonnull !29, !noundef !29
  call void @llvm.dbg.value(metadata i64 1, metadata !1693, metadata !DIExpression()), !dbg !1702
  call void @llvm.dbg.value(metadata i64 %_12.i, metadata !1695, metadata !DIExpression()), !dbg !1703
  call void @llvm.dbg.value(metadata i64 1, metadata !1697, metadata !DIExpression(DW_OP_LLVM_fragment, 0, 64)), !dbg !1704
  call void @llvm.dbg.value(metadata i64 %_12.i, metadata !1697, metadata !DIExpression(DW_OP_LLVM_fragment, 64, 64)), !dbg !1704
  store ptr %self.val26.i, ptr %_17.i, align 8, !dbg !1705, !alias.scope !1706, !noalias !1473
  %_9.sroa.5.0._0.sroa_idx.i.i = getelementptr inbounds i8, ptr %_17.i, i64 16, !dbg !1705
  store i64 %_12.i, ptr %_9.sroa.5.0._0.sroa_idx.i.i, align 8, !dbg !1705, !alias.scope !1706, !noalias !1473
  br label %"_ZN5alloc7raw_vec19RawVec$LT$T$C$A$GT$14current_memory17h5aaefd636b7b1aa1E.exit.i", !dbg !1709

"_ZN5alloc7raw_vec19RawVec$LT$T$C$A$GT$14current_memory17h5aaefd636b7b1aa1E.exit.i": ; preds = %bb4.i.i, %bb10.i
  %.sink.i.i = phi i64 [ 1, %bb4.i.i ], [ 0, %bb10.i ], !dbg !1699
  %3 = getelementptr inbounds i8, ptr %_17.i, i64 8, !dbg !1699
  store i64 %.sink.i.i, ptr %3, align 8, !dbg !1699, !alias.scope !1706, !noalias !1473
; call alloc::raw_vec::finish_grow
  call fastcc void @_ZN5alloc7raw_vec11finish_grow17h68b2933e3a686549E(ptr noalias nocapture noundef nonnull align 8 dereferenceable(24) %self5.i, i64 noundef %_0.sroa.0.0.i.i, i64 %_0.sroa.0.0.sroa.speculated.i27.i, ptr noalias nocapture noundef nonnull readonly align 8 dereferenceable(24) %_17.i), !dbg !1684, !noalias !1473
  call void @llvm.lifetime.end.p0(i64 24, ptr nonnull %_17.i), !dbg !1710, !noalias !1473
  %_39.i = load i64, ptr %self5.i, align 8, !dbg !1711, !range !1712, !noalias !1473, !noundef !29
  %trunc.not.i = icmp eq i64 %_39.i, 0, !dbg !1713
  %4 = getelementptr inbounds i8, ptr %self5.i, i64 8, !dbg !1714
  br i1 %trunc.not.i, label %bb3, label %bb14.i, !dbg !1713

bb14.i:                                           ; preds = %"_ZN5alloc7raw_vec19RawVec$LT$T$C$A$GT$14current_memory17h5aaefd636b7b1aa1E.exit.i"
  %e.0.i = load i64, ptr %4, align 8, !dbg !1715, !range !1199, !noalias !1473, !noundef !29
  %5 = getelementptr inbounds i8, ptr %self5.i, i64 16, !dbg !1715
  %e.1.i = load i64, ptr %5, align 8, !dbg !1715, !noalias !1473
  call void @llvm.lifetime.end.p0(i64 24, ptr nonnull %self5.i), !dbg !1716, !noalias !1473
  br label %bb2, !dbg !1717

bb2:                                              ; preds = %bb14.i, %start
  %_0.sroa.4.0.i.ph = phi i64 [ undef, %start ], [ %e.1.i, %bb14.i ]
  %_0.sroa.0.0.i.ph = phi i64 [ 0, %start ], [ %e.0.i, %bb14.i ]
  tail call void @llvm.dbg.value(metadata i64 %_0.sroa.0.0.i.ph, metadata !1470, metadata !DIExpression(DW_OP_LLVM_fragment, 0, 64)), !dbg !1720
  tail call void @llvm.dbg.value(metadata i64 %_0.sroa.4.0.i.ph, metadata !1470, metadata !DIExpression(DW_OP_LLVM_fragment, 64, 64)), !dbg !1720
; call alloc::raw_vec::handle_error
  tail call void @_ZN5alloc7raw_vec12handle_error17hbecd345b13023a3fE(i64 noundef %_0.sroa.0.0.i.ph, i64 %_0.sroa.4.0.i.ph) #21, !dbg !1721
  unreachable, !dbg !1721

bb3:                                              ; preds = %"_ZN5alloc7raw_vec19RawVec$LT$T$C$A$GT$14current_memory17h5aaefd636b7b1aa1E.exit.i"
  %v.0.i = load ptr, ptr %4, align 8, !dbg !1722, !noalias !1473, !nonnull !29, !noundef !29
  call void @llvm.lifetime.end.p0(i64 24, ptr nonnull %self5.i), !dbg !1716, !noalias !1473
  call void @llvm.dbg.value(metadata ptr %v.0.i, metadata !1524, metadata !DIExpression(DW_OP_LLVM_fragment, 0, 64)), !dbg !1723
  call void @llvm.dbg.value(metadata ptr %v.0.i, metadata !1552, metadata !DIExpression(DW_OP_LLVM_fragment, 0, 64)), !dbg !1554
  call void @llvm.dbg.value(metadata i64 poison, metadata !1524, metadata !DIExpression(DW_OP_LLVM_fragment, 64, 64)), !dbg !1723
  call void @llvm.dbg.value(metadata i64 poison, metadata !1552, metadata !DIExpression(DW_OP_LLVM_fragment, 64, 64)), !dbg !1554
  store ptr %v.0.i, ptr %1, align 8, !dbg !1724, !alias.scope !1473
  store i64 %_0.sroa.0.0.sroa.speculated.i27.i, ptr %slf, align 8, !dbg !1725, !alias.scope !1473
  ret void, !dbg !1726
}

; futures_lite::future::block_on::parker_and_waker
; Function Attrs: nonlazybind uwtable
define void @_ZN12futures_lite6future8block_on16parker_and_waker17hd38d1e672d897ec9E(ptr dead_on_unwind noalias nocapture noundef writable writeonly sret([24 x i8]) align 8 dereferenceable(24) %_0) unnamed_addr #3 personality ptr @rust_eh_personality !dbg !1727 {
start:
  %parker = alloca [8 x i8], align 8
  call void @llvm.dbg.declare(metadata ptr %parker, metadata !1732, metadata !DIExpression()), !dbg !1738
  call void @llvm.lifetime.start.p0(i64 8, ptr nonnull %parker), !dbg !1739
; call parking::Parker::new
  %0 = tail call noundef nonnull ptr @_ZN7parking6Parker3new17hd8c92361f5d835b4E(), !dbg !1740
  store ptr %0, ptr %parker, align 8, !dbg !1740
; invoke parking::Parker::unparker
  %unparker = invoke noundef nonnull ptr @_ZN7parking6Parker8unparker17hb267f095239a07dbE(ptr noalias noundef nonnull readonly align 8 dereferenceable(8) %parker)
          to label %bb2 unwind label %cleanup, !dbg !1741

cleanup:                                          ; preds = %start
  %1 = landingpad { ptr, i32 }
          cleanup
  call void @llvm.dbg.value(metadata ptr %parker, metadata !1742, metadata !DIExpression()), !dbg !1750
  call void @llvm.dbg.value(metadata ptr %parker, metadata !1752, metadata !DIExpression()), !dbg !1760
  call void @llvm.dbg.value(metadata ptr %parker, metadata !759, metadata !DIExpression()), !dbg !1762
  call void @llvm.dbg.value(metadata i64 1, metadata !767, metadata !DIExpression()), !dbg !1764
  call void @llvm.dbg.value(metadata i8 1, metadata !772, metadata !DIExpression()), !dbg !1764
  call void @llvm.dbg.value(metadata i64 1, metadata !780, metadata !DIExpression()), !dbg !1767
  call void @llvm.dbg.value(metadata i8 1, metadata !785, metadata !DIExpression()), !dbg !1767
  call void @llvm.dbg.value(metadata i8 2, metadata !788, metadata !DIExpression()), !dbg !1769
  call void @llvm.dbg.value(metadata ptr %parker, metadata !778, metadata !DIExpression()), !dbg !1771
  call void @llvm.dbg.value(metadata ptr %0, metadata !771, metadata !DIExpression()), !dbg !1764
  call void @llvm.dbg.value(metadata ptr %0, metadata !784, metadata !DIExpression()), !dbg !1767
  %2 = atomicrmw sub ptr %0, i64 1 release, align 8, !dbg !1772, !noalias !1773
  %3 = icmp eq i64 %2, 1, !dbg !1782
  br i1 %3, label %bb2.i.i.i.i, label %bb4, !dbg !1782

bb2.i.i.i.i:                                      ; preds = %cleanup
  fence acquire, !dbg !1783
; call alloc::sync::Arc<T,A>::drop_slow
  call fastcc void @"_ZN5alloc4sync16Arc$LT$T$C$A$GT$9drop_slow17hd5961035baad38d3E"(ptr noalias noundef nonnull align 8 dereferenceable(8) %parker), !dbg !1784
  br label %bb4, !dbg !1784

bb2:                                              ; preds = %start
  tail call void @llvm.dbg.value(metadata ptr %unparker, metadata !1734, metadata !DIExpression()), !dbg !1785
  tail call void @llvm.dbg.value(metadata ptr %unparker, metadata !1786, metadata !DIExpression()), !dbg !1793
  tail call void @llvm.dbg.value(metadata ptr %unparker, metadata !1795, metadata !DIExpression()), !dbg !1802
  tail call void @llvm.dbg.value(metadata ptr %unparker, metadata !1804, metadata !DIExpression()), !dbg !1810
  tail call void @llvm.dbg.value(metadata ptr %unparker, metadata !1812, metadata !DIExpression()), !dbg !1821
  tail call void @llvm.dbg.value(metadata ptr undef, metadata !1823, metadata !DIExpression()), !dbg !1832
  tail call void @llvm.dbg.value(metadata ptr %unparker, metadata !1830, metadata !DIExpression()), !dbg !1834
  %_14 = getelementptr inbounds i8, ptr %unparker, i64 16, !dbg !1835
  tail call void @llvm.dbg.value(metadata ptr @alloc_0fb556b02ca7c93cd9ee17a418c3f63c, metadata !1736, metadata !DIExpression(DW_OP_LLVM_fragment, 0, 64)), !dbg !1836
  tail call void @llvm.dbg.value(metadata ptr %_14, metadata !1736, metadata !DIExpression(DW_OP_LLVM_fragment, 64, 64)), !dbg !1836
  store ptr %0, ptr %_0, align 8, !dbg !1837
  %4 = getelementptr inbounds i8, ptr %_0, i64 8, !dbg !1837
  store ptr @alloc_0fb556b02ca7c93cd9ee17a418c3f63c, ptr %4, align 8, !dbg !1837
  %5 = getelementptr inbounds i8, ptr %_0, i64 16, !dbg !1837
  store ptr %_14, ptr %5, align 8, !dbg !1837
  call void @llvm.lifetime.end.p0(i64 8, ptr nonnull %parker), !dbg !1838
  ret void, !dbg !1839

bb4:                                              ; preds = %bb2.i.i.i.i, %cleanup
  resume { ptr, i32 } %1, !dbg !1840
}

; <futures_lite::future::YieldNow as core::future::future::Future>::poll
; Function Attrs: nonlazybind uwtable
define noundef zeroext i1 @"_ZN79_$LT$futures_lite..future..YieldNow$u20$as$u20$core..future..future..Future$GT$4poll17h1f66b79aa626d191E"(ptr noalias nocapture noundef align 1 dereferenceable(1) %0, ptr noalias nocapture noundef readonly align 8 dereferenceable(32) %cx) unnamed_addr #3 !dbg !1841 {
start:
  tail call void @llvm.dbg.value(metadata ptr %0, metadata !1921, metadata !DIExpression()), !dbg !1923
  tail call void @llvm.dbg.value(metadata ptr %cx, metadata !1922, metadata !DIExpression()), !dbg !1923
  tail call void @llvm.dbg.value(metadata ptr %cx, metadata !1924, metadata !DIExpression()), !dbg !1933
  %1 = load i8, ptr %0, align 1, !dbg !1935, !range !1936, !noundef !29
  %_3.not = icmp eq i8 %1, 0, !dbg !1935
  br i1 %_3.not, label %bb1, label %bb3, !dbg !1935

bb1:                                              ; preds = %start
  store i8 1, ptr %0, align 1, !dbg !1937
  %self8 = load ptr, ptr %cx, align 8, !dbg !1938, !nonnull !29, !align !1939, !noundef !29
  tail call void @llvm.dbg.value(metadata ptr %self8, metadata !1940, metadata !DIExpression()), !dbg !1947
  %_17 = load ptr, ptr %self8, align 8, !dbg !1949, !nonnull !29, !align !1939, !noundef !29
  %2 = getelementptr inbounds i8, ptr %_17, i64 16, !dbg !1949
  %_15 = load ptr, ptr %2, align 8, !dbg !1949, !nonnull !29, !noundef !29
  %3 = getelementptr inbounds i8, ptr %self8, i64 8, !dbg !1950
  %_16 = load ptr, ptr %3, align 8, !dbg !1950, !noundef !29
  tail call void %_15(ptr noundef %_16), !dbg !1949
  br label %bb3, !dbg !1951

bb3:                                              ; preds = %start, %bb1
  ret i1 %_3.not, !dbg !1952
}

; <futures_lite::io::Cursor<&mut [u8]> as futures_io::if_std::AsyncWrite>::poll_write
; Function Attrs: mustprogress nofree norecurse nosync nounwind nonlazybind willreturn uwtable
define { i64, ptr } @"_ZN107_$LT$futures_lite..io..Cursor$LT$$RF$mut$u20$$u5b$u8$u5d$$GT$$u20$as$u20$futures_io..if_std..AsyncWrite$GT$10poll_write17h1fb0db80b7edf4c5E"(ptr noalias nocapture noundef align 8 dereferenceable(24) %0, ptr noalias nocapture noundef readnone align 8 dereferenceable(32) %_2, ptr noalias nocapture noundef nonnull readonly align 1 %buf.0, i64 noundef %buf.1) unnamed_addr #5 personality ptr @rust_eh_personality !dbg !1953 {
start:
  tail call void @llvm.dbg.value(metadata ptr %0, metadata !2011, metadata !DIExpression()), !dbg !2014
  tail call void @llvm.dbg.value(metadata ptr %_2, metadata !2013, metadata !DIExpression()), !dbg !2014
  tail call void @llvm.dbg.value(metadata ptr %buf.0, metadata !2012, metadata !DIExpression(DW_OP_LLVM_fragment, 0, 64)), !dbg !2014
  tail call void @llvm.dbg.value(metadata ptr %buf.0, metadata !2015, metadata !DIExpression(DW_OP_LLVM_fragment, 0, 64)), !dbg !2025
  tail call void @llvm.dbg.value(metadata i64 %buf.1, metadata !2012, metadata !DIExpression(DW_OP_LLVM_fragment, 64, 64)), !dbg !2014
  tail call void @llvm.dbg.value(metadata i64 %buf.1, metadata !2015, metadata !DIExpression(DW_OP_LLVM_fragment, 64, 64)), !dbg !2025
  tail call void @llvm.dbg.value(metadata ptr %0, metadata !2024, metadata !DIExpression()), !dbg !2025
  %_10 = getelementptr inbounds i8, ptr %0, i64 16, !dbg !2027
  %_11.0 = load ptr, ptr %0, align 8, !dbg !2028, !nonnull !29, !align !2029, !noundef !29
  %1 = getelementptr inbounds i8, ptr %0, i64 8, !dbg !2028
  %_11.1 = load i64, ptr %1, align 8, !dbg !2028, !noundef !29
  tail call void @llvm.experimental.noalias.scope.decl(metadata !2030), !dbg !2033
  tail call void @llvm.experimental.noalias.scope.decl(metadata !2034), !dbg !2033
  tail call void @llvm.experimental.noalias.scope.decl(metadata !2036), !dbg !2033
  call void @llvm.dbg.value(metadata ptr %_10, metadata !2038, metadata !DIExpression()), !dbg !2067
  call void @llvm.dbg.value(metadata ptr %_11.0, metadata !2044, metadata !DIExpression(DW_OP_LLVM_fragment, 0, 64)), !dbg !2067
  call void @llvm.dbg.value(metadata ptr %_11.0, metadata !2069, metadata !DIExpression(DW_OP_LLVM_fragment, 0, 64)), !dbg !2088
  call void @llvm.dbg.value(metadata i64 %_11.1, metadata !2044, metadata !DIExpression(DW_OP_LLVM_fragment, 64, 64)), !dbg !2067
  call void @llvm.dbg.value(metadata i64 %_11.1, metadata !2069, metadata !DIExpression(DW_OP_LLVM_fragment, 64, 64)), !dbg !2088
  call void @llvm.dbg.value(metadata ptr %buf.0, metadata !2045, metadata !DIExpression(DW_OP_LLVM_fragment, 0, 64)), !dbg !2067
  call void @llvm.dbg.value(metadata i64 %buf.1, metadata !2045, metadata !DIExpression(DW_OP_LLVM_fragment, 64, 64)), !dbg !2067
  %v1.i = load i64, ptr %_10, align 8, !dbg !2090, !alias.scope !2030, !noalias !2091, !noundef !29
  call void @llvm.dbg.value(metadata i64 %v1.i, metadata !2092, metadata !DIExpression()), !dbg !2101
  call void @llvm.dbg.value(metadata i64 %v1.i, metadata !2103, metadata !DIExpression()), !dbg !2110
  call void @llvm.dbg.value(metadata i64 %_11.1, metadata !2098, metadata !DIExpression()), !dbg !2101
  call void @llvm.dbg.value(metadata i64 %_11.1, metadata !2107, metadata !DIExpression()), !dbg !2110
  call void @llvm.dbg.value(metadata i64 %v1.i, metadata !2112, metadata !DIExpression()), !dbg !2125
  call void @llvm.dbg.value(metadata i64 %_11.1, metadata !2121, metadata !DIExpression()), !dbg !2125
  call void @llvm.dbg.declare(metadata ptr undef, metadata !2122, metadata !DIExpression()), !dbg !2127
  %_0.sroa.0.0.sroa.speculated.i.i = tail call noundef i64 @llvm.umin.i64(i64 %v1.i, i64 %_11.1), !dbg !2125
  call void @llvm.dbg.value(metadata i64 %_0.sroa.0.0.sroa.speculated.i.i, metadata !2046, metadata !DIExpression()), !dbg !2128
  call void @llvm.dbg.value(metadata i64 %_0.sroa.0.0.sroa.speculated.i.i, metadata !2085, metadata !DIExpression()), !dbg !2088
  call void @llvm.dbg.value(metadata i64 %_0.sroa.0.0.sroa.speculated.i.i, metadata !2129, metadata !DIExpression()), !dbg !2136
  call void @llvm.dbg.value(metadata ptr %_11.0, metadata !2135, metadata !DIExpression(DW_OP_LLVM_fragment, 0, 64)), !dbg !2136
  call void @llvm.dbg.value(metadata i64 %_11.1, metadata !2135, metadata !DIExpression(DW_OP_LLVM_fragment, 64, 64)), !dbg !2136
  call void @llvm.dbg.value(metadata i64 %_0.sroa.0.0.sroa.speculated.i.i, metadata !2138, metadata !DIExpression()), !dbg !2149
  call void @llvm.dbg.value(metadata ptr %_11.0, metadata !2148, metadata !DIExpression(DW_OP_LLVM_fragment, 0, 64)), !dbg !2149
  call void @llvm.dbg.value(metadata i64 %_11.1, metadata !2148, metadata !DIExpression(DW_OP_LLVM_fragment, 64, 64)), !dbg !2149
  call void @llvm.dbg.value(metadata i64 %_0.sroa.0.0.sroa.speculated.i.i, metadata !2151, metadata !DIExpression(DW_OP_LLVM_fragment, 0, 64)), !dbg !2164
  call void @llvm.dbg.value(metadata i64 %_11.1, metadata !2151, metadata !DIExpression(DW_OP_LLVM_fragment, 64, 64)), !dbg !2164
  call void @llvm.dbg.value(metadata ptr %_11.0, metadata !2161, metadata !DIExpression(DW_OP_LLVM_fragment, 0, 64)), !dbg !2164
  call void @llvm.dbg.value(metadata i64 %_11.1, metadata !2161, metadata !DIExpression(DW_OP_LLVM_fragment, 64, 64)), !dbg !2164
  call void @llvm.dbg.value(metadata i64 %_11.1, metadata !2166, metadata !DIExpression()), !dbg !2171
  call void @llvm.dbg.value(metadata i64 %_0.sroa.0.0.sroa.speculated.i.i, metadata !2170, metadata !DIExpression()), !dbg !2171
  %new_len.i.i.i = sub nuw i64 %_11.1, %_0.sroa.0.0.sroa.speculated.i.i, !dbg !2173
  call void @llvm.dbg.value(metadata i64 %new_len.i.i.i, metadata !2162, metadata !DIExpression()), !dbg !2174
  call void @llvm.dbg.value(metadata ptr %_11.0, metadata !2175, metadata !DIExpression()), !dbg !2185
  call void @llvm.dbg.value(metadata i64 %_0.sroa.0.0.sroa.speculated.i.i, metadata !2184, metadata !DIExpression()), !dbg !2185
  %data.i.i.i = getelementptr inbounds i8, ptr %_11.0, i64 %_0.sroa.0.0.sroa.speculated.i.i, !dbg !2187
  call void @llvm.dbg.value(metadata ptr undef, metadata !2188, metadata !DIExpression()), !dbg !2203
  call void @llvm.dbg.value(metadata ptr %buf.0, metadata !2197, metadata !DIExpression(DW_OP_LLVM_fragment, 0, 64)), !dbg !2203
  call void @llvm.dbg.value(metadata i64 %buf.1, metadata !2197, metadata !DIExpression(DW_OP_LLVM_fragment, 64, 64)), !dbg !2203
  call void @llvm.dbg.value(metadata i64 %buf.1, metadata !2205, metadata !DIExpression()), !dbg !2210
  call void @llvm.dbg.value(metadata i64 %buf.1, metadata !2212, metadata !DIExpression()), !dbg !2217
  call void @llvm.dbg.value(metadata i64 %new_len.i.i.i, metadata !2209, metadata !DIExpression()), !dbg !2210
  call void @llvm.dbg.value(metadata i64 %new_len.i.i.i, metadata !2216, metadata !DIExpression()), !dbg !2217
  call void @llvm.dbg.value(metadata i64 %buf.1, metadata !2219, metadata !DIExpression()), !dbg !2224
  call void @llvm.dbg.value(metadata i64 %new_len.i.i.i, metadata !2222, metadata !DIExpression()), !dbg !2224
  call void @llvm.dbg.declare(metadata ptr undef, metadata !2223, metadata !DIExpression()), !dbg !2226
  %_0.sroa.0.0.sroa.speculated.i.i.i = tail call noundef i64 @llvm.umin.i64(i64 %buf.1, i64 %new_len.i.i.i), !dbg !2224
  call void @llvm.dbg.value(metadata i64 %_0.sroa.0.0.sroa.speculated.i.i.i, metadata !2198, metadata !DIExpression()), !dbg !2227
  call void @llvm.dbg.value(metadata ptr %data.i.i.i, metadata !2200, metadata !DIExpression(DW_OP_LLVM_fragment, 0, 64)), !dbg !2228
  call void @llvm.dbg.value(metadata i64 %_0.sroa.0.0.sroa.speculated.i.i.i, metadata !2200, metadata !DIExpression(DW_OP_LLVM_fragment, 64, 64)), !dbg !2228
  call void @llvm.dbg.value(metadata !DIArgList(ptr %data.i.i.i, i64 %_0.sroa.0.0.sroa.speculated.i.i.i), metadata !2202, metadata !DIExpression(DW_OP_LLVM_arg, 0, DW_OP_LLVM_arg, 1, DW_OP_constu, 1, DW_OP_mul, DW_OP_plus, DW_OP_stack_value, DW_OP_LLVM_fragment, 0, 64)), !dbg !2228
  call void @llvm.dbg.value(metadata !DIArgList(i64 %new_len.i.i.i, i64 %_0.sroa.0.0.sroa.speculated.i.i.i), metadata !2202, metadata !DIExpression(DW_OP_LLVM_arg, 0, DW_OP_LLVM_arg, 1, DW_OP_minus, DW_OP_stack_value, DW_OP_LLVM_fragment, 64, 64)), !dbg !2228
  call void @llvm.dbg.value(metadata ptr %data.i.i.i, metadata !2229, metadata !DIExpression(DW_OP_LLVM_fragment, 0, 64)), !dbg !2237
  call void @llvm.dbg.value(metadata i64 %_0.sroa.0.0.sroa.speculated.i.i.i, metadata !2229, metadata !DIExpression(DW_OP_LLVM_fragment, 64, 64)), !dbg !2237
  call void @llvm.dbg.value(metadata ptr %buf.0, metadata !2236, metadata !DIExpression(DW_OP_LLVM_fragment, 0, 64)), !dbg !2237
  call void @llvm.dbg.value(metadata i64 %_0.sroa.0.0.sroa.speculated.i.i.i, metadata !2236, metadata !DIExpression(DW_OP_LLVM_fragment, 64, 64)), !dbg !2237
  call void @llvm.dbg.value(metadata ptr %buf.0, metadata !2239, metadata !DIExpression()), !dbg !2249
  call void @llvm.dbg.value(metadata ptr %data.i.i.i, metadata !2247, metadata !DIExpression()), !dbg !2249
  call void @llvm.dbg.value(metadata i64 %_0.sroa.0.0.sroa.speculated.i.i.i, metadata !2248, metadata !DIExpression()), !dbg !2249
  tail call void @llvm.memcpy.p0.p0.i64(ptr nonnull align 1 %data.i.i.i, ptr nonnull align 1 %buf.0, i64 %_0.sroa.0.0.sroa.speculated.i.i.i, i1 false), !dbg !2251, !alias.scope !2252, !noalias !2256
  %2 = inttoptr i64 %_0.sroa.0.0.sroa.speculated.i.i.i to ptr, !dbg !2259
  call void @llvm.dbg.value(metadata i64 %_0.sroa.0.0.sroa.speculated.i.i.i, metadata !2048, metadata !DIExpression()), !dbg !2260
  %3 = add i64 %_0.sroa.0.0.sroa.speculated.i.i.i, %v1.i, !dbg !2261
  store i64 %3, ptr %_10, align 8, !dbg !2261, !alias.scope !2030, !noalias !2091
  %4 = insertvalue { i64, ptr } { i64 0, ptr undef }, ptr %2, 1, !dbg !2262
  ret { i64, ptr } %4, !dbg !2263
}

; <futures_lite::io::Cursor<&mut [u8]> as futures_io::if_std::AsyncWrite>::poll_write_vectored
; Function Attrs: nofree norecurse nosync nounwind nonlazybind uwtable
define { i64, ptr } @"_ZN107_$LT$futures_lite..io..Cursor$LT$$RF$mut$u20$$u5b$u8$u5d$$GT$$u20$as$u20$futures_io..if_std..AsyncWrite$GT$19poll_write_vectored17hd16f40a6f48c4b1eE"(ptr noalias nocapture noundef align 8 dereferenceable(24) %0, ptr noalias nocapture noundef readnone align 8 dereferenceable(32) %_2, ptr noalias noundef nonnull readonly align 8 %bufs.0, i64 noundef %bufs.1) unnamed_addr #6 personality ptr @rust_eh_personality !dbg !2264 {
start:
  tail call void @llvm.dbg.value(metadata ptr %0, metadata !2291, metadata !DIExpression()), !dbg !2294
  tail call void @llvm.dbg.value(metadata ptr %_2, metadata !2293, metadata !DIExpression()), !dbg !2294
  tail call void @llvm.dbg.value(metadata ptr %bufs.0, metadata !2292, metadata !DIExpression(DW_OP_LLVM_fragment, 0, 64)), !dbg !2294
  tail call void @llvm.dbg.value(metadata ptr %bufs.0, metadata !2295, metadata !DIExpression(DW_OP_LLVM_fragment, 0, 64)), !dbg !2302
  tail call void @llvm.dbg.value(metadata i64 %bufs.1, metadata !2292, metadata !DIExpression(DW_OP_LLVM_fragment, 64, 64)), !dbg !2294
  tail call void @llvm.dbg.value(metadata i64 %bufs.1, metadata !2295, metadata !DIExpression(DW_OP_LLVM_fragment, 64, 64)), !dbg !2302
  tail call void @llvm.dbg.value(metadata ptr %0, metadata !2301, metadata !DIExpression()), !dbg !2302
  %_10 = getelementptr inbounds i8, ptr %0, i64 16, !dbg !2304
  %_11.0 = load ptr, ptr %0, align 8, !dbg !2305, !nonnull !29, !align !2029, !noundef !29
  %1 = getelementptr inbounds i8, ptr %0, i64 8, !dbg !2305
  %_11.1 = load i64, ptr %1, align 8, !dbg !2305, !noundef !29
  tail call void @llvm.experimental.noalias.scope.decl(metadata !2306), !dbg !2309
  tail call void @llvm.experimental.noalias.scope.decl(metadata !2310), !dbg !2309
  call void @llvm.dbg.value(metadata ptr %_10, metadata !2312, metadata !DIExpression()), !dbg !2347
  call void @llvm.dbg.value(metadata ptr %_11.0, metadata !2317, metadata !DIExpression(DW_OP_LLVM_fragment, 0, 64)), !dbg !2347
  call void @llvm.dbg.value(metadata i64 %_11.1, metadata !2317, metadata !DIExpression(DW_OP_LLVM_fragment, 64, 64)), !dbg !2347
  call void @llvm.dbg.value(metadata ptr %bufs.0, metadata !2318, metadata !DIExpression(DW_OP_LLVM_fragment, 0, 64)), !dbg !2347
  call void @llvm.dbg.value(metadata ptr %bufs.0, metadata !2349, metadata !DIExpression(DW_OP_LLVM_fragment, 0, 64)), !dbg !2357
  call void @llvm.dbg.value(metadata ptr %bufs.0, metadata !2359, metadata !DIExpression(DW_OP_LLVM_fragment, 0, 64)), !dbg !2363
  call void @llvm.dbg.value(metadata ptr %bufs.0, metadata !2365, metadata !DIExpression(DW_OP_LLVM_fragment, 0, 64)), !dbg !2376
  call void @llvm.dbg.value(metadata i64 %bufs.1, metadata !2318, metadata !DIExpression(DW_OP_LLVM_fragment, 64, 64)), !dbg !2347
  call void @llvm.dbg.value(metadata i64 %bufs.1, metadata !2349, metadata !DIExpression(DW_OP_LLVM_fragment, 64, 64)), !dbg !2357
  call void @llvm.dbg.value(metadata i64 %bufs.1, metadata !2359, metadata !DIExpression(DW_OP_LLVM_fragment, 64, 64)), !dbg !2363
  call void @llvm.dbg.value(metadata i64 %bufs.1, metadata !2365, metadata !DIExpression(DW_OP_LLVM_fragment, 64, 64)), !dbg !2376
  call void @llvm.dbg.value(metadata i64 0, metadata !2319, metadata !DIExpression()), !dbg !2378
  call void @llvm.dbg.value(metadata i64 %bufs.1, metadata !2370, metadata !DIExpression()), !dbg !2379
  call void @llvm.dbg.value(metadata i64 %bufs.1, metadata !2380, metadata !DIExpression()), !dbg !2388
  call void @llvm.dbg.value(metadata ptr %bufs.0, metadata !2372, metadata !DIExpression()), !dbg !2390
  call void @llvm.dbg.value(metadata ptr %bufs.0, metadata !2387, metadata !DIExpression()), !dbg !2388
  %_23.i = getelementptr inbounds %"std::io::IoSlice<'_>", ptr %bufs.0, i64 %bufs.1, !dbg !2391
  call void @llvm.dbg.value(metadata ptr %bufs.0, metadata !2321, metadata !DIExpression(DW_OP_LLVM_fragment, 0, 64)), !dbg !2392
  call void @llvm.dbg.value(metadata ptr %_23.i, metadata !2321, metadata !DIExpression(DW_OP_LLVM_fragment, 64, 64)), !dbg !2392
  %pos_mut.promoted.i = load i64, ptr %_10, align 8, !alias.scope !2393, !noalias !2396
  br label %bb1.i, !dbg !2400

bb1.i:                                            ; preds = %bb4.i, %start
  %2 = phi i64 [ %pos_mut.promoted.i, %start ], [ %5, %bb4.i ]
  %iter.sroa.0.0.i = phi ptr [ %bufs.0, %start ], [ %_14.i.i.i, %bb4.i ], !dbg !2401
  %nwritten.sroa.0.0.i = phi i64 [ 0, %start ], [ %6, %bb4.i ], !dbg !2347
  call void @llvm.dbg.value(metadata ptr %iter.sroa.0.0.i, metadata !2321, metadata !DIExpression(DW_OP_LLVM_fragment, 0, 64)), !dbg !2392
  call void @llvm.dbg.value(metadata i64 %nwritten.sroa.0.0.i, metadata !2319, metadata !DIExpression()), !dbg !2378
  call void @llvm.dbg.value(metadata ptr undef, metadata !2402, metadata !DIExpression()), !dbg !2425
  call void @llvm.dbg.value(metadata ptr undef, metadata !2427, metadata !DIExpression()), !dbg !2434
  call void @llvm.dbg.value(metadata ptr %_23.i, metadata !2423, metadata !DIExpression()), !dbg !2436
  call void @llvm.dbg.value(metadata ptr undef, metadata !2437, metadata !DIExpression()), !dbg !2446
  call void @llvm.dbg.value(metadata ptr undef, metadata !2445, metadata !DIExpression()), !dbg !2446
  %3 = icmp eq ptr %iter.sroa.0.0.i, %_23.i, !dbg !2448
  br i1 %3, label %_ZN3std2io6cursor20slice_write_vectored17hf3dc013afb7bddd6E.exit, label %bb4.i, !dbg !2449

bb4.i:                                            ; preds = %bb1.i
  call void @llvm.dbg.value(metadata ptr undef, metadata !2450, metadata !DIExpression()), !dbg !2464
  call void @llvm.dbg.value(metadata i64 1, metadata !2456, metadata !DIExpression()), !dbg !2464
  call void @llvm.dbg.value(metadata i64 1, metadata !2466, metadata !DIExpression()), !dbg !2474
  call void @llvm.dbg.value(metadata ptr %iter.sroa.0.0.i, metadata !2457, metadata !DIExpression()), !dbg !2476
  call void @llvm.dbg.value(metadata ptr undef, metadata !2461, metadata !DIExpression(DW_OP_plus_uconst, 8, DW_OP_stack_value)), !dbg !2477
  call void @llvm.dbg.value(metadata ptr %iter.sroa.0.0.i, metadata !2473, metadata !DIExpression()), !dbg !2474
  %_14.i.i.i = getelementptr inbounds %"std::io::IoSlice<'_>", ptr %iter.sroa.0.0.i, i64 1, !dbg !2478
  call void @llvm.dbg.value(metadata ptr %_14.i.i.i, metadata !2321, metadata !DIExpression(DW_OP_LLVM_fragment, 0, 64)), !dbg !2392
  call void @llvm.dbg.value(metadata ptr %iter.sroa.0.0.i, metadata !2339, metadata !DIExpression()), !dbg !2479
  call void @llvm.dbg.value(metadata ptr %iter.sroa.0.0.i, metadata !2480, metadata !DIExpression()), !dbg !2490
  call void @llvm.dbg.value(metadata ptr %iter.sroa.0.0.i, metadata !2492, metadata !DIExpression()), !dbg !2503
  %_29.i = load ptr, ptr %iter.sroa.0.0.i, align 8, !dbg !2505, !alias.scope !2310, !noalias !2506, !noundef !29
  %4 = getelementptr inbounds i8, ptr %iter.sroa.0.0.i, i64 8, !dbg !2507
  %len.i = load i64, ptr %4, align 8, !dbg !2507, !alias.scope !2310, !noalias !2506, !noundef !29
  tail call void @llvm.experimental.noalias.scope.decl(metadata !2508), !dbg !2509
  tail call void @llvm.experimental.noalias.scope.decl(metadata !2510), !dbg !2509
  tail call void @llvm.experimental.noalias.scope.decl(metadata !2511), !dbg !2509
  call void @llvm.dbg.value(metadata ptr %_10, metadata !2038, metadata !DIExpression()), !dbg !2512
  call void @llvm.dbg.value(metadata ptr %_11.0, metadata !2044, metadata !DIExpression(DW_OP_LLVM_fragment, 0, 64)), !dbg !2512
  call void @llvm.dbg.value(metadata ptr %_11.0, metadata !2069, metadata !DIExpression(DW_OP_LLVM_fragment, 0, 64)), !dbg !2514
  call void @llvm.dbg.value(metadata i64 %_11.1, metadata !2044, metadata !DIExpression(DW_OP_LLVM_fragment, 64, 64)), !dbg !2512
  call void @llvm.dbg.value(metadata i64 %_11.1, metadata !2069, metadata !DIExpression(DW_OP_LLVM_fragment, 64, 64)), !dbg !2514
  call void @llvm.dbg.value(metadata ptr %_29.i, metadata !2045, metadata !DIExpression(DW_OP_LLVM_fragment, 0, 64)), !dbg !2512
  call void @llvm.dbg.value(metadata i64 %len.i, metadata !2045, metadata !DIExpression(DW_OP_LLVM_fragment, 64, 64)), !dbg !2512
  call void @llvm.dbg.value(metadata i64 %2, metadata !2092, metadata !DIExpression()), !dbg !2516
  call void @llvm.dbg.value(metadata i64 %2, metadata !2103, metadata !DIExpression()), !dbg !2518
  call void @llvm.dbg.value(metadata i64 %_11.1, metadata !2098, metadata !DIExpression()), !dbg !2516
  call void @llvm.dbg.value(metadata i64 %_11.1, metadata !2107, metadata !DIExpression()), !dbg !2518
  call void @llvm.dbg.value(metadata i64 %2, metadata !2112, metadata !DIExpression()), !dbg !2520
  call void @llvm.dbg.value(metadata i64 %_11.1, metadata !2121, metadata !DIExpression()), !dbg !2520
  call void @llvm.dbg.declare(metadata ptr undef, metadata !2122, metadata !DIExpression()), !dbg !2522
  %_0.sroa.0.0.sroa.speculated.i.i.i = tail call noundef i64 @llvm.umin.i64(i64 %2, i64 %_11.1), !dbg !2520
  call void @llvm.dbg.value(metadata i64 %_0.sroa.0.0.sroa.speculated.i.i.i, metadata !2046, metadata !DIExpression()), !dbg !2523
  call void @llvm.dbg.value(metadata i64 %_0.sroa.0.0.sroa.speculated.i.i.i, metadata !2085, metadata !DIExpression()), !dbg !2514
  call void @llvm.dbg.value(metadata i64 %_0.sroa.0.0.sroa.speculated.i.i.i, metadata !2129, metadata !DIExpression()), !dbg !2524
  call void @llvm.dbg.value(metadata ptr %_11.0, metadata !2135, metadata !DIExpression(DW_OP_LLVM_fragment, 0, 64)), !dbg !2524
  call void @llvm.dbg.value(metadata i64 %_11.1, metadata !2135, metadata !DIExpression(DW_OP_LLVM_fragment, 64, 64)), !dbg !2524
  call void @llvm.dbg.value(metadata i64 %_0.sroa.0.0.sroa.speculated.i.i.i, metadata !2138, metadata !DIExpression()), !dbg !2526
  call void @llvm.dbg.value(metadata ptr %_11.0, metadata !2148, metadata !DIExpression(DW_OP_LLVM_fragment, 0, 64)), !dbg !2526
  call void @llvm.dbg.value(metadata i64 %_11.1, metadata !2148, metadata !DIExpression(DW_OP_LLVM_fragment, 64, 64)), !dbg !2526
  call void @llvm.dbg.value(metadata i64 %_0.sroa.0.0.sroa.speculated.i.i.i, metadata !2151, metadata !DIExpression(DW_OP_LLVM_fragment, 0, 64)), !dbg !2528
  call void @llvm.dbg.value(metadata i64 %_11.1, metadata !2151, metadata !DIExpression(DW_OP_LLVM_fragment, 64, 64)), !dbg !2528
  call void @llvm.dbg.value(metadata ptr %_11.0, metadata !2161, metadata !DIExpression(DW_OP_LLVM_fragment, 0, 64)), !dbg !2528
  call void @llvm.dbg.value(metadata i64 %_11.1, metadata !2161, metadata !DIExpression(DW_OP_LLVM_fragment, 64, 64)), !dbg !2528
  call void @llvm.dbg.value(metadata i64 %_11.1, metadata !2166, metadata !DIExpression()), !dbg !2530
  call void @llvm.dbg.value(metadata i64 %_0.sroa.0.0.sroa.speculated.i.i.i, metadata !2170, metadata !DIExpression()), !dbg !2530
  %new_len.i.i.i.i = sub nuw i64 %_11.1, %_0.sroa.0.0.sroa.speculated.i.i.i, !dbg !2532
  call void @llvm.dbg.value(metadata i64 %new_len.i.i.i.i, metadata !2162, metadata !DIExpression()), !dbg !2533
  call void @llvm.dbg.value(metadata ptr %_11.0, metadata !2175, metadata !DIExpression()), !dbg !2534
  call void @llvm.dbg.value(metadata i64 %_0.sroa.0.0.sroa.speculated.i.i.i, metadata !2184, metadata !DIExpression()), !dbg !2534
  %data.i.i.i.i = getelementptr inbounds i8, ptr %_11.0, i64 %_0.sroa.0.0.sroa.speculated.i.i.i, !dbg !2536
  call void @llvm.dbg.value(metadata ptr undef, metadata !2188, metadata !DIExpression()), !dbg !2537
  call void @llvm.dbg.value(metadata ptr %_29.i, metadata !2197, metadata !DIExpression(DW_OP_LLVM_fragment, 0, 64)), !dbg !2537
  call void @llvm.dbg.value(metadata i64 %len.i, metadata !2197, metadata !DIExpression(DW_OP_LLVM_fragment, 64, 64)), !dbg !2537
  call void @llvm.dbg.value(metadata i64 %len.i, metadata !2205, metadata !DIExpression()), !dbg !2539
  call void @llvm.dbg.value(metadata i64 %len.i, metadata !2212, metadata !DIExpression()), !dbg !2541
  call void @llvm.dbg.value(metadata i64 %new_len.i.i.i.i, metadata !2209, metadata !DIExpression()), !dbg !2539
  call void @llvm.dbg.value(metadata i64 %new_len.i.i.i.i, metadata !2216, metadata !DIExpression()), !dbg !2541
  call void @llvm.dbg.value(metadata i64 %len.i, metadata !2219, metadata !DIExpression()), !dbg !2543
  call void @llvm.dbg.value(metadata i64 %new_len.i.i.i.i, metadata !2222, metadata !DIExpression()), !dbg !2543
  call void @llvm.dbg.declare(metadata ptr undef, metadata !2223, metadata !DIExpression()), !dbg !2545
  %_0.sroa.0.0.sroa.speculated.i.i.i.i = tail call noundef i64 @llvm.umin.i64(i64 %len.i, i64 %new_len.i.i.i.i), !dbg !2543
  call void @llvm.dbg.value(metadata i64 %_0.sroa.0.0.sroa.speculated.i.i.i.i, metadata !2198, metadata !DIExpression()), !dbg !2546
  call void @llvm.dbg.value(metadata ptr %data.i.i.i.i, metadata !2200, metadata !DIExpression(DW_OP_LLVM_fragment, 0, 64)), !dbg !2547
  call void @llvm.dbg.value(metadata i64 %_0.sroa.0.0.sroa.speculated.i.i.i.i, metadata !2200, metadata !DIExpression(DW_OP_LLVM_fragment, 64, 64)), !dbg !2547
  call void @llvm.dbg.value(metadata !DIArgList(ptr %data.i.i.i.i, i64 %_0.sroa.0.0.sroa.speculated.i.i.i.i), metadata !2202, metadata !DIExpression(DW_OP_LLVM_arg, 0, DW_OP_LLVM_arg, 1, DW_OP_constu, 1, DW_OP_mul, DW_OP_plus, DW_OP_stack_value, DW_OP_LLVM_fragment, 0, 64)), !dbg !2547
  call void @llvm.dbg.value(metadata !DIArgList(i64 %new_len.i.i.i.i, i64 %_0.sroa.0.0.sroa.speculated.i.i.i.i), metadata !2202, metadata !DIExpression(DW_OP_LLVM_arg, 0, DW_OP_LLVM_arg, 1, DW_OP_minus, DW_OP_stack_value, DW_OP_LLVM_fragment, 64, 64)), !dbg !2547
  call void @llvm.dbg.value(metadata ptr %data.i.i.i.i, metadata !2229, metadata !DIExpression(DW_OP_LLVM_fragment, 0, 64)), !dbg !2548
  call void @llvm.dbg.value(metadata i64 %_0.sroa.0.0.sroa.speculated.i.i.i.i, metadata !2229, metadata !DIExpression(DW_OP_LLVM_fragment, 64, 64)), !dbg !2548
  call void @llvm.dbg.value(metadata ptr %_29.i, metadata !2236, metadata !DIExpression(DW_OP_LLVM_fragment, 0, 64)), !dbg !2548
  call void @llvm.dbg.value(metadata i64 %_0.sroa.0.0.sroa.speculated.i.i.i.i, metadata !2236, metadata !DIExpression(DW_OP_LLVM_fragment, 64, 64)), !dbg !2548
  call void @llvm.dbg.value(metadata ptr %_29.i, metadata !2239, metadata !DIExpression()), !dbg !2550
  call void @llvm.dbg.value(metadata ptr %data.i.i.i.i, metadata !2247, metadata !DIExpression()), !dbg !2550
  call void @llvm.dbg.value(metadata i64 %_0.sroa.0.0.sroa.speculated.i.i.i.i, metadata !2248, metadata !DIExpression()), !dbg !2550
  tail call void @llvm.memcpy.p0.p0.i64(ptr nonnull align 1 %data.i.i.i.i, ptr nonnull align 1 %_29.i, i64 %_0.sroa.0.0.sroa.speculated.i.i.i.i, i1 false), !dbg !2552, !alias.scope !2553, !noalias !2557
  call void @llvm.dbg.value(metadata i64 %_0.sroa.0.0.sroa.speculated.i.i.i.i, metadata !2048, metadata !DIExpression()), !dbg !2560
  %5 = add i64 %_0.sroa.0.0.sroa.speculated.i.i.i.i, %2, !dbg !2561
  store i64 %5, ptr %_10, align 8, !dbg !2561, !alias.scope !2393, !noalias !2396
  call void @llvm.dbg.value(metadata i64 %_0.sroa.0.0.sroa.speculated.i.i.i.i, metadata !2341, metadata !DIExpression()), !dbg !2562
  %6 = add i64 %_0.sroa.0.0.sroa.speculated.i.i.i.i, %nwritten.sroa.0.0.i, !dbg !2563
  call void @llvm.dbg.value(metadata i64 %6, metadata !2319, metadata !DIExpression()), !dbg !2378
  %_16.i = icmp ult i64 %new_len.i.i.i.i, %len.i, !dbg !2564
  br i1 %_16.i, label %_ZN3std2io6cursor20slice_write_vectored17hf3dc013afb7bddd6E.exit, label %bb1.i, !dbg !2564

_ZN3std2io6cursor20slice_write_vectored17hf3dc013afb7bddd6E.exit: ; preds = %bb1.i, %bb4.i
  %nwritten.sroa.0.1.i = phi i64 [ %6, %bb4.i ], [ %nwritten.sroa.0.0.i, %bb1.i ], !dbg !2347
  call void @llvm.dbg.value(metadata i64 %nwritten.sroa.0.1.i, metadata !2319, metadata !DIExpression()), !dbg !2378
  %7 = inttoptr i64 %nwritten.sroa.0.1.i to ptr, !dbg !2565
  %8 = insertvalue { i64, ptr } { i64 0, ptr undef }, ptr %7, 1, !dbg !2565
  ret { i64, ptr } %8, !dbg !2566
}

; <futures_lite::io::Cursor<&mut alloc::vec::Vec<u8>> as futures_io::if_std::AsyncWrite>::poll_write
; Function Attrs: nonlazybind uwtable
define { i64, ptr } @"_ZN120_$LT$futures_lite..io..Cursor$LT$$RF$mut$u20$alloc..vec..Vec$LT$u8$GT$$GT$$u20$as$u20$futures_io..if_std..AsyncWrite$GT$10poll_write17h3cd3bf83299d9a8aE"(ptr noalias nocapture noundef align 8 dereferenceable(16) %0, ptr noalias nocapture noundef readnone align 8 dereferenceable(32) %_2, ptr noalias nocapture noundef nonnull readonly align 1 %buf.0, i64 noundef %buf.1) unnamed_addr #3 !dbg !2567 {
start:
  tail call void @llvm.dbg.value(metadata ptr %0, metadata !2593, metadata !DIExpression()), !dbg !2596
  tail call void @llvm.dbg.value(metadata ptr %_2, metadata !2595, metadata !DIExpression()), !dbg !2596
  tail call void @llvm.dbg.value(metadata ptr %buf.0, metadata !2594, metadata !DIExpression(DW_OP_LLVM_fragment, 0, 64)), !dbg !2596
  tail call void @llvm.dbg.value(metadata ptr %buf.0, metadata !2597, metadata !DIExpression(DW_OP_LLVM_fragment, 0, 64)), !dbg !2606
  tail call void @llvm.dbg.value(metadata i64 %buf.1, metadata !2594, metadata !DIExpression(DW_OP_LLVM_fragment, 64, 64)), !dbg !2596
  tail call void @llvm.dbg.value(metadata i64 %buf.1, metadata !2597, metadata !DIExpression(DW_OP_LLVM_fragment, 64, 64)), !dbg !2606
  tail call void @llvm.dbg.value(metadata ptr %0, metadata !2605, metadata !DIExpression()), !dbg !2606
  %_10 = getelementptr inbounds i8, ptr %0, i64 8, !dbg !2608
  %_11 = load ptr, ptr %0, align 8, !dbg !2609, !nonnull !29, !align !1939, !noundef !29
  tail call void @llvm.experimental.noalias.scope.decl(metadata !2610), !dbg !2613
  tail call void @llvm.experimental.noalias.scope.decl(metadata !2614), !dbg !2613
  call void @llvm.dbg.value(metadata ptr %_10, metadata !2616, metadata !DIExpression()), !dbg !2631
  call void @llvm.dbg.value(metadata ptr %_11, metadata !2621, metadata !DIExpression()), !dbg !2631
  call void @llvm.dbg.value(metadata ptr %_11, metadata !2633, metadata !DIExpression()), !dbg !2642
  call void @llvm.dbg.value(metadata ptr %_11, metadata !2644, metadata !DIExpression()), !dbg !2652
  call void @llvm.dbg.value(metadata ptr %buf.0, metadata !2622, metadata !DIExpression(DW_OP_LLVM_fragment, 0, 64)), !dbg !2631
  call void @llvm.dbg.value(metadata i64 %buf.1, metadata !2622, metadata !DIExpression(DW_OP_LLVM_fragment, 64, 64)), !dbg !2631
  call void @llvm.dbg.value(metadata i64 %buf.1, metadata !2623, metadata !DIExpression()), !dbg !2654
  %pos_mut.val.i = load i64, ptr %_10, align 8, !dbg !2655, !alias.scope !2610, !noalias !2656, !noundef !29
  tail call void @llvm.experimental.noalias.scope.decl(metadata !2658), !dbg !2655
  call void @llvm.dbg.value(metadata ptr undef, metadata !2661, metadata !DIExpression()), !dbg !2693
  call void @llvm.dbg.value(metadata ptr %_11, metadata !2666, metadata !DIExpression()), !dbg !2693
  call void @llvm.dbg.value(metadata ptr %_11, metadata !2695, metadata !DIExpression()), !dbg !2702
  call void @llvm.dbg.value(metadata ptr %_11, metadata !2704, metadata !DIExpression()), !dbg !2712
  call void @llvm.dbg.value(metadata ptr %_11, metadata !2708, metadata !DIExpression()), !dbg !2714
  call void @llvm.dbg.value(metadata ptr %_11, metadata !2716, metadata !DIExpression()), !dbg !2721
  call void @llvm.dbg.value(metadata i64 %buf.1, metadata !2667, metadata !DIExpression()), !dbg !2693
  call void @llvm.dbg.value(metadata i64 %buf.1, metadata !2723, metadata !DIExpression()), !dbg !2728
  call void @llvm.dbg.value(metadata i64 %pos_mut.val.i, metadata !2668, metadata !DIExpression()), !dbg !2730
  call void @llvm.dbg.value(metadata i64 %pos_mut.val.i, metadata !2727, metadata !DIExpression()), !dbg !2728
  call void @llvm.dbg.value(metadata i64 %pos_mut.val.i, metadata !2720, metadata !DIExpression()), !dbg !2721
  %1 = tail call i64 @llvm.uadd.sat.i64(i64 %pos_mut.val.i, i64 %buf.1), !dbg !2731
  call void @llvm.dbg.value(metadata i64 %1, metadata !2674, metadata !DIExpression()), !dbg !2732
  call void @llvm.dbg.value(metadata ptr %_11, metadata !2733, metadata !DIExpression()), !dbg !2742
  %_13.i.i = load i64, ptr %_11, align 8, !dbg !2744, !alias.scope !2745, !noalias !2746, !noundef !29
  %_12.i.i = icmp ugt i64 %1, %_13.i.i, !dbg !2747
  br i1 %_12.i.i, label %bb1.i.i, label %bb4.i.i, !dbg !2747

bb1.i.i:                                          ; preds = %start
  %2 = getelementptr inbounds i8, ptr %_11, i64 16, !dbg !2748
  %_16.i.i = load i64, ptr %2, align 8, !dbg !2748, !alias.scope !2745, !noalias !2746, !noundef !29
  %_15.i.i = sub i64 %1, %_16.i.i, !dbg !2749
  call void @llvm.dbg.value(metadata ptr %_11, metadata !2750, metadata !DIExpression()), !dbg !2755
  call void @llvm.dbg.value(metadata i64 %_15.i.i, metadata !2754, metadata !DIExpression()), !dbg !2755
  call void @llvm.dbg.value(metadata i64 %_15.i.i, metadata !2757, metadata !DIExpression()), !dbg !2764
  call void @llvm.dbg.value(metadata i64 %_15.i.i, metadata !2766, metadata !DIExpression()), !dbg !2775
  call void @llvm.dbg.value(metadata ptr %_11, metadata !2762, metadata !DIExpression()), !dbg !2764
  call void @llvm.dbg.value(metadata ptr %_11, metadata !2773, metadata !DIExpression()), !dbg !2775
  call void @llvm.dbg.value(metadata i64 %_16.i.i, metadata !2763, metadata !DIExpression()), !dbg !2764
  call void @llvm.dbg.value(metadata i64 %_16.i.i, metadata !2774, metadata !DIExpression()), !dbg !2775
  call void @llvm.dbg.value(metadata i64 %_16.i.i, metadata !2777, metadata !DIExpression()), !dbg !2782
  call void @llvm.dbg.value(metadata i64 %_13.i.i, metadata !2781, metadata !DIExpression()), !dbg !2782
  %_7.i.i.i = sub i64 %_13.i.i, %_16.i.i, !dbg !2784
  %_5.i.i.i = icmp ult i64 %_7.i.i.i, %_15.i.i, !dbg !2785
  br i1 %_5.i.i.i, label %bb1.i.i.i, label %bb4.i.i, !dbg !2786

bb1.i.i.i:                                        ; preds = %bb1.i.i
; call alloc::raw_vec::RawVec<T,A>::reserve::do_reserve_and_handle
  tail call fastcc void @"_ZN5alloc7raw_vec19RawVec$LT$T$C$A$GT$7reserve21do_reserve_and_handle17h27ea52722b8b0785E"(ptr noalias noundef nonnull align 8 dereferenceable(16) %_11, i64 noundef %_16.i.i, i64 noundef %_15.i.i), !dbg !2787, !noalias !2746
  br label %bb4.i.i, !dbg !2787

bb4.i.i:                                          ; preds = %bb1.i.i.i, %bb1.i.i, %start
  %3 = getelementptr inbounds i8, ptr %_11, i64 16, !dbg !2788
  %_18.i.i = load i64, ptr %3, align 8, !dbg !2788, !alias.scope !2614, !noalias !2746, !noundef !29
  %_17.i.i = icmp ult i64 %_18.i.i, %pos_mut.val.i, !dbg !2789
  br i1 %_17.i.i, label %bb4.preheader.i.i.i, label %bb4.i._ZN3std2io6cursor15reserve_and_pad17hf7248d6078fe529eE.exit_crit_edge.i, !dbg !2789

bb4.i._ZN3std2io6cursor15reserve_and_pad17hf7248d6078fe529eE.exit_crit_edge.i: ; preds = %bb4.i.i
  %.phi.trans.insert.i = getelementptr inbounds i8, ptr %_11, i64 8
  %vec.val.pre.i = load ptr, ptr %.phi.trans.insert.i, align 8, !dbg !2790, !alias.scope !2614, !noalias !2746
  br label %_ZN3std2io6cursor15reserve_and_pad17hf7248d6078fe529eE.exit.i, !dbg !2789

bb4.preheader.i.i.i:                              ; preds = %bb4.i.i
  call void @llvm.dbg.value(metadata !DIArgList(i64 %pos_mut.val.i, i64 %_18.i.i), metadata !2676, metadata !DIExpression(DW_OP_LLVM_arg, 0, DW_OP_LLVM_arg, 1, DW_OP_minus, DW_OP_stack_value)), !dbg !2791
  call void @llvm.dbg.value(metadata ptr %_11, metadata !2792, metadata !DIExpression()), !dbg !2798
  call void @llvm.dbg.value(metadata ptr %_11, metadata !2800, metadata !DIExpression()), !dbg !2807
  call void @llvm.dbg.value(metadata ptr %_11, metadata !2809, metadata !DIExpression()), !dbg !2816
  call void @llvm.dbg.value(metadata ptr poison, metadata !2818, metadata !DIExpression()), !dbg !2823
  call void @llvm.dbg.value(metadata i64 %_18.i.i, metadata !2822, metadata !DIExpression()), !dbg !2823
  call void @llvm.dbg.value(metadata ptr poison, metadata !2678, metadata !DIExpression(DW_OP_LLVM_fragment, 0, 64)), !dbg !2825
  call void @llvm.dbg.value(metadata i64 poison, metadata !2678, metadata !DIExpression(DW_OP_LLVM_fragment, 64, 64)), !dbg !2825
  call void @llvm.dbg.value(metadata !DIArgList(ptr poison, i64 poison), metadata !2826, metadata !DIExpression(DW_OP_LLVM_arg, 0, DW_OP_LLVM_arg, 1, DW_OP_constu, 1, DW_OP_mul, DW_OP_plus, DW_OP_stack_value, DW_OP_LLVM_fragment, 0, 64)), !dbg !2835
  call void @llvm.dbg.value(metadata !DIArgList(i64 %pos_mut.val.i, i64 %_18.i.i), metadata !2826, metadata !DIExpression(DW_OP_LLVM_arg, 0, DW_OP_LLVM_arg, 1, DW_OP_minus, DW_OP_stack_value, DW_OP_LLVM_fragment, 64, 64)), !dbg !2835
  call void @llvm.dbg.value(metadata i8 0, metadata !2832, metadata !DIExpression()), !dbg !2835
  call void @llvm.dbg.value(metadata !DIArgList(ptr poison, i64 poison), metadata !2837, metadata !DIExpression(DW_OP_LLVM_arg, 0, DW_OP_LLVM_arg, 1, DW_OP_constu, 1, DW_OP_mul, DW_OP_plus, DW_OP_stack_value, DW_OP_LLVM_fragment, 0, 64)), !dbg !2862
  call void @llvm.dbg.value(metadata !DIArgList(i64 %pos_mut.val.i, i64 %_18.i.i), metadata !2837, metadata !DIExpression(DW_OP_LLVM_arg, 0, DW_OP_LLVM_arg, 1, DW_OP_minus, DW_OP_stack_value, DW_OP_LLVM_fragment, 64, 64)), !dbg !2862
  call void @llvm.dbg.value(metadata i8 0, metadata !2843, metadata !DIExpression()), !dbg !2862
  call void @llvm.dbg.value(metadata !DIArgList(ptr poison, i64 poison), metadata !2844, metadata !DIExpression(DW_OP_LLVM_arg, 0, DW_OP_LLVM_arg, 1, DW_OP_constu, 1, DW_OP_mul, DW_OP_plus, DW_OP_stack_value, DW_OP_LLVM_fragment, 0, 64)), !dbg !2864
  call void @llvm.dbg.value(metadata !DIArgList(ptr poison, i64 poison, i64 poison), metadata !2844, metadata !DIExpression(DW_OP_LLVM_arg, 0, DW_OP_LLVM_arg, 2, DW_OP_constu, 1, DW_OP_mul, DW_OP_plus, DW_OP_LLVM_arg, 1, DW_OP_constu, 1, DW_OP_mul, DW_OP_plus, DW_OP_stack_value, DW_OP_LLVM_fragment, 64, 64)), !dbg !2864
  %diff.i.i = sub i64 %pos_mut.val.i, %_18.i.i, !dbg !2865
  call void @llvm.dbg.value(metadata i64 %diff.i.i, metadata !2676, metadata !DIExpression()), !dbg !2791
  call void @llvm.dbg.value(metadata i64 %diff.i.i, metadata !2826, metadata !DIExpression(DW_OP_LLVM_fragment, 64, 64)), !dbg !2835
  call void @llvm.dbg.value(metadata i64 %diff.i.i, metadata !2837, metadata !DIExpression(DW_OP_LLVM_fragment, 64, 64)), !dbg !2862
  %4 = getelementptr inbounds i8, ptr %_11, i64 8, !dbg !2866
  %self2.i.i.i = load ptr, ptr %4, align 8, !dbg !2866, !alias.scope !2614, !noalias !2746, !nonnull !29, !noundef !29
  call void @llvm.dbg.value(metadata ptr %self2.i.i.i, metadata !2818, metadata !DIExpression()), !dbg !2823
  call void @llvm.dbg.value(metadata !DIArgList(ptr %self2.i.i.i, i64 %_18.i.i), metadata !2826, metadata !DIExpression(DW_OP_LLVM_arg, 0, DW_OP_LLVM_arg, 1, DW_OP_constu, 1, DW_OP_mul, DW_OP_plus, DW_OP_stack_value, DW_OP_LLVM_fragment, 0, 64)), !dbg !2835
  call void @llvm.dbg.value(metadata !DIArgList(ptr %self2.i.i.i, i64 %_18.i.i), metadata !2837, metadata !DIExpression(DW_OP_LLVM_arg, 0, DW_OP_LLVM_arg, 1, DW_OP_constu, 1, DW_OP_mul, DW_OP_plus, DW_OP_stack_value, DW_OP_LLVM_fragment, 0, 64)), !dbg !2862
  call void @llvm.dbg.value(metadata !DIArgList(ptr %self2.i.i.i, i64 %_18.i.i), metadata !2844, metadata !DIExpression(DW_OP_LLVM_arg, 0, DW_OP_LLVM_arg, 1, DW_OP_constu, 1, DW_OP_mul, DW_OP_plus, DW_OP_stack_value, DW_OP_LLVM_fragment, 0, 64)), !dbg !2864
  call void @llvm.dbg.value(metadata !DIArgList(ptr %self2.i.i.i, i64 %diff.i.i, i64 %_18.i.i), metadata !2844, metadata !DIExpression(DW_OP_LLVM_arg, 0, DW_OP_LLVM_arg, 2, DW_OP_constu, 1, DW_OP_mul, DW_OP_plus, DW_OP_LLVM_arg, 1, DW_OP_constu, 1, DW_OP_mul, DW_OP_plus, DW_OP_stack_value, DW_OP_LLVM_fragment, 64, 64)), !dbg !2864
  %_3.i.i.i = getelementptr inbounds i8, ptr %self2.i.i.i, i64 %_18.i.i, !dbg !2867
  call void @llvm.dbg.value(metadata ptr %_3.i.i.i, metadata !2826, metadata !DIExpression(DW_OP_LLVM_fragment, 0, 64)), !dbg !2835
  call void @llvm.dbg.value(metadata ptr %_3.i.i.i, metadata !2837, metadata !DIExpression(DW_OP_LLVM_fragment, 0, 64)), !dbg !2862
  call void @llvm.dbg.value(metadata ptr %_3.i.i.i, metadata !2844, metadata !DIExpression(DW_OP_LLVM_fragment, 0, 64)), !dbg !2864
  call void @llvm.dbg.value(metadata !DIArgList(ptr %_3.i.i.i, i64 %diff.i.i), metadata !2844, metadata !DIExpression(DW_OP_LLVM_arg, 0, DW_OP_LLVM_arg, 1, DW_OP_constu, 1, DW_OP_mul, DW_OP_plus, DW_OP_stack_value, DW_OP_LLVM_fragment, 64, 64)), !dbg !2864
  tail call void @llvm.memset.p0.i64(ptr nonnull align 1 %_3.i.i.i, i8 0, i64 %diff.i.i, i1 false), !dbg !2868, !alias.scope !2869, !noalias !2872
  call void @llvm.dbg.value(metadata ptr poison, metadata !2844, metadata !DIExpression(DW_OP_LLVM_fragment, 0, 64)), !dbg !2864
  call void @llvm.dbg.value(metadata ptr poison, metadata !2860, metadata !DIExpression()), !dbg !2873
  call void @llvm.dbg.value(metadata ptr poison, metadata !2844, metadata !DIExpression(DW_OP_LLVM_fragment, 0, 64)), !dbg !2864
  store i64 %pos_mut.val.i, ptr %3, align 8, !dbg !2874, !alias.scope !2745, !noalias !2746
  br label %_ZN3std2io6cursor15reserve_and_pad17hf7248d6078fe529eE.exit.i, !dbg !2875

_ZN3std2io6cursor15reserve_and_pad17hf7248d6078fe529eE.exit.i: ; preds = %bb4.preheader.i.i.i, %bb4.i._ZN3std2io6cursor15reserve_and_pad17hf7248d6078fe529eE.exit_crit_edge.i
  %_14.i = phi i64 [ %_18.i.i, %bb4.i._ZN3std2io6cursor15reserve_and_pad17hf7248d6078fe529eE.exit_crit_edge.i ], [ %pos_mut.val.i, %bb4.preheader.i.i.i ], !dbg !2876
  %vec.val.i = phi ptr [ %vec.val.pre.i, %bb4.i._ZN3std2io6cursor15reserve_and_pad17hf7248d6078fe529eE.exit_crit_edge.i ], [ %self2.i.i.i, %bb4.preheader.i.i.i ], !dbg !2790
  call void @llvm.dbg.value(metadata i64 %pos_mut.val.i, metadata !2625, metadata !DIExpression()), !dbg !2877
  call void @llvm.dbg.value(metadata i64 %pos_mut.val.i, metadata !2878, metadata !DIExpression()), !dbg !2885
  call void @llvm.dbg.value(metadata i64 %pos_mut.val.i, metadata !2887, metadata !DIExpression()), !dbg !2892
  call void @llvm.dbg.value(metadata ptr undef, metadata !2883, metadata !DIExpression()), !dbg !2885
  call void @llvm.dbg.value(metadata ptr %buf.0, metadata !2884, metadata !DIExpression(DW_OP_LLVM_fragment, 0, 64)), !dbg !2885
  call void @llvm.dbg.value(metadata i64 %buf.1, metadata !2884, metadata !DIExpression(DW_OP_LLVM_fragment, 64, 64)), !dbg !2885
  call void @llvm.dbg.value(metadata ptr %vec.val.i, metadata !2891, metadata !DIExpression()), !dbg !2892
  %self3.i.i = getelementptr inbounds i8, ptr %vec.val.i, i64 %pos_mut.val.i, !dbg !2894
  call void @llvm.dbg.value(metadata ptr %self3.i.i, metadata !2895, metadata !DIExpression()), !dbg !2903
  call void @llvm.dbg.value(metadata ptr %self3.i.i, metadata !2905, metadata !DIExpression()), !dbg !2911
  call void @llvm.dbg.value(metadata ptr %buf.0, metadata !2901, metadata !DIExpression()), !dbg !2903
  call void @llvm.dbg.value(metadata ptr %buf.0, metadata !2909, metadata !DIExpression()), !dbg !2911
  call void @llvm.dbg.value(metadata i64 %buf.1, metadata !2902, metadata !DIExpression()), !dbg !2903
  call void @llvm.dbg.value(metadata i64 %buf.1, metadata !2910, metadata !DIExpression()), !dbg !2911
  tail call void @llvm.memcpy.p0.p0.i64(ptr nonnull align 1 %self3.i.i, ptr nonnull align 1 %buf.0, i64 %buf.1, i1 false), !dbg !2913, !noalias !2914
  %_0.i.i = add i64 %pos_mut.val.i, %buf.1, !dbg !2915
  call void @llvm.dbg.value(metadata i64 %_0.i.i, metadata !2625, metadata !DIExpression()), !dbg !2877
  %_12.i = icmp ugt i64 %_0.i.i, %_14.i, !dbg !2916
  br i1 %_12.i, label %bb4.i, label %_ZN3std2io6cursor9vec_write17h3e2a87dc77c98307E.exit, !dbg !2916

bb4.i:                                            ; preds = %_ZN3std2io6cursor15reserve_and_pad17hf7248d6078fe529eE.exit.i
  call void @llvm.dbg.value(metadata i64 %_0.i.i, metadata !2651, metadata !DIExpression()), !dbg !2652
  store i64 %_0.i.i, ptr %3, align 8, !dbg !2917, !alias.scope !2614, !noalias !2746
  br label %_ZN3std2io6cursor9vec_write17h3e2a87dc77c98307E.exit, !dbg !2918

_ZN3std2io6cursor9vec_write17h3e2a87dc77c98307E.exit: ; preds = %_ZN3std2io6cursor15reserve_and_pad17hf7248d6078fe529eE.exit.i, %bb4.i
  store i64 %_0.i.i, ptr %_10, align 8, !dbg !2919, !alias.scope !2610, !noalias !2656
  %5 = inttoptr i64 %buf.1 to ptr, !dbg !2920
  %6 = insertvalue { i64, ptr } { i64 0, ptr undef }, ptr %5, 1, !dbg !2920
  ret { i64, ptr } %6, !dbg !2921
}

; <futures_lite::io::Cursor<alloc::vec::Vec<u8>> as futures_io::if_std::AsyncWrite>::poll_write
; Function Attrs: nonlazybind uwtable
define { i64, ptr } @"_ZN108_$LT$futures_lite..io..Cursor$LT$alloc..vec..Vec$LT$u8$GT$$GT$$u20$as$u20$futures_io..if_std..AsyncWrite$GT$10poll_write17h2baa7965774fa336E"(ptr noalias nocapture noundef align 8 dereferenceable(32) %0, ptr noalias nocapture noundef readnone align 8 dereferenceable(32) %_2, ptr noalias nocapture noundef nonnull readonly align 1 %buf.0, i64 noundef %buf.1) unnamed_addr #3 !dbg !2922 {
start:
  tail call void @llvm.dbg.value(metadata ptr %0, metadata !2942, metadata !DIExpression()), !dbg !2945
  tail call void @llvm.dbg.value(metadata ptr %_2, metadata !2944, metadata !DIExpression()), !dbg !2945
  tail call void @llvm.dbg.value(metadata ptr %buf.0, metadata !2943, metadata !DIExpression(DW_OP_LLVM_fragment, 0, 64)), !dbg !2945
  tail call void @llvm.dbg.value(metadata ptr %buf.0, metadata !2946, metadata !DIExpression(DW_OP_LLVM_fragment, 0, 64)), !dbg !2955
  tail call void @llvm.dbg.value(metadata i64 %buf.1, metadata !2943, metadata !DIExpression(DW_OP_LLVM_fragment, 64, 64)), !dbg !2945
  tail call void @llvm.dbg.value(metadata i64 %buf.1, metadata !2946, metadata !DIExpression(DW_OP_LLVM_fragment, 64, 64)), !dbg !2955
  tail call void @llvm.dbg.value(metadata ptr %0, metadata !2954, metadata !DIExpression()), !dbg !2955
  %_10 = getelementptr inbounds i8, ptr %0, i64 24, !dbg !2957
  tail call void @llvm.experimental.noalias.scope.decl(metadata !2958), !dbg !2961
  tail call void @llvm.experimental.noalias.scope.decl(metadata !2962), !dbg !2961
  call void @llvm.dbg.value(metadata ptr %_10, metadata !2616, metadata !DIExpression()), !dbg !2964
  call void @llvm.dbg.value(metadata ptr %0, metadata !2621, metadata !DIExpression()), !dbg !2964
  call void @llvm.dbg.value(metadata ptr %0, metadata !2633, metadata !DIExpression()), !dbg !2966
  call void @llvm.dbg.value(metadata ptr %0, metadata !2644, metadata !DIExpression()), !dbg !2968
  call void @llvm.dbg.value(metadata ptr %buf.0, metadata !2622, metadata !DIExpression(DW_OP_LLVM_fragment, 0, 64)), !dbg !2964
  call void @llvm.dbg.value(metadata i64 %buf.1, metadata !2622, metadata !DIExpression(DW_OP_LLVM_fragment, 64, 64)), !dbg !2964
  call void @llvm.dbg.value(metadata i64 %buf.1, metadata !2623, metadata !DIExpression()), !dbg !2970
  %pos_mut.val.i = load i64, ptr %_10, align 8, !dbg !2971, !alias.scope !2958, !noalias !2972, !noundef !29
  tail call void @llvm.experimental.noalias.scope.decl(metadata !2974), !dbg !2971
  call void @llvm.dbg.value(metadata ptr undef, metadata !2661, metadata !DIExpression()), !dbg !2977
  call void @llvm.dbg.value(metadata ptr %0, metadata !2666, metadata !DIExpression()), !dbg !2977
  call void @llvm.dbg.value(metadata ptr %0, metadata !2695, metadata !DIExpression()), !dbg !2979
  call void @llvm.dbg.value(metadata ptr %0, metadata !2704, metadata !DIExpression()), !dbg !2981
  call void @llvm.dbg.value(metadata ptr %0, metadata !2708, metadata !DIExpression()), !dbg !2983
  call void @llvm.dbg.value(metadata ptr %0, metadata !2716, metadata !DIExpression()), !dbg !2985
  call void @llvm.dbg.value(metadata i64 %buf.1, metadata !2667, metadata !DIExpression()), !dbg !2977
  call void @llvm.dbg.value(metadata i64 %buf.1, metadata !2723, metadata !DIExpression()), !dbg !2987
  call void @llvm.dbg.value(metadata i64 %pos_mut.val.i, metadata !2668, metadata !DIExpression()), !dbg !2989
  call void @llvm.dbg.value(metadata i64 %pos_mut.val.i, metadata !2727, metadata !DIExpression()), !dbg !2987
  call void @llvm.dbg.value(metadata i64 %pos_mut.val.i, metadata !2720, metadata !DIExpression()), !dbg !2985
  %1 = tail call i64 @llvm.uadd.sat.i64(i64 %pos_mut.val.i, i64 %buf.1), !dbg !2990
  call void @llvm.dbg.value(metadata i64 %1, metadata !2674, metadata !DIExpression()), !dbg !2991
  call void @llvm.dbg.value(metadata ptr %0, metadata !2733, metadata !DIExpression()), !dbg !2992
  %_13.i.i = load i64, ptr %0, align 8, !dbg !2994, !alias.scope !2995, !noalias !2996, !noundef !29
  %_12.i.i = icmp ugt i64 %1, %_13.i.i, !dbg !2997
  br i1 %_12.i.i, label %bb1.i.i, label %bb4.i.i, !dbg !2997

bb1.i.i:                                          ; preds = %start
  %2 = getelementptr inbounds i8, ptr %0, i64 16, !dbg !2998
  %_16.i.i = load i64, ptr %2, align 8, !dbg !2998, !alias.scope !2995, !noalias !2996, !noundef !29
  %_15.i.i = sub i64 %1, %_16.i.i, !dbg !2999
  call void @llvm.dbg.value(metadata ptr %0, metadata !2750, metadata !DIExpression()), !dbg !3000
  call void @llvm.dbg.value(metadata i64 %_15.i.i, metadata !2754, metadata !DIExpression()), !dbg !3000
  call void @llvm.dbg.value(metadata i64 %_15.i.i, metadata !2757, metadata !DIExpression()), !dbg !3002
  call void @llvm.dbg.value(metadata i64 %_15.i.i, metadata !2766, metadata !DIExpression()), !dbg !3004
  call void @llvm.dbg.value(metadata ptr %0, metadata !2762, metadata !DIExpression()), !dbg !3002
  call void @llvm.dbg.value(metadata ptr %0, metadata !2773, metadata !DIExpression()), !dbg !3004
  call void @llvm.dbg.value(metadata i64 %_16.i.i, metadata !2763, metadata !DIExpression()), !dbg !3002
  call void @llvm.dbg.value(metadata i64 %_16.i.i, metadata !2774, metadata !DIExpression()), !dbg !3004
  call void @llvm.dbg.value(metadata i64 %_16.i.i, metadata !2777, metadata !DIExpression()), !dbg !3006
  call void @llvm.dbg.value(metadata i64 %_13.i.i, metadata !2781, metadata !DIExpression()), !dbg !3006
  %_7.i.i.i = sub i64 %_13.i.i, %_16.i.i, !dbg !3008
  %_5.i.i.i = icmp ult i64 %_7.i.i.i, %_15.i.i, !dbg !3009
  br i1 %_5.i.i.i, label %bb1.i.i.i, label %bb4.i.i, !dbg !3010

bb1.i.i.i:                                        ; preds = %bb1.i.i
; call alloc::raw_vec::RawVec<T,A>::reserve::do_reserve_and_handle
  tail call fastcc void @"_ZN5alloc7raw_vec19RawVec$LT$T$C$A$GT$7reserve21do_reserve_and_handle17h27ea52722b8b0785E"(ptr noalias noundef nonnull align 8 dereferenceable(16) %0, i64 noundef %_16.i.i, i64 noundef %_15.i.i), !dbg !3011, !noalias !2996
  br label %bb4.i.i, !dbg !3011

bb4.i.i:                                          ; preds = %bb1.i.i.i, %bb1.i.i, %start
  %3 = getelementptr inbounds i8, ptr %0, i64 16, !dbg !3012
  %_18.i.i = load i64, ptr %3, align 8, !dbg !3012, !alias.scope !2962, !noalias !2996, !noundef !29
  %_17.i.i = icmp ult i64 %_18.i.i, %pos_mut.val.i, !dbg !3013
  br i1 %_17.i.i, label %bb4.preheader.i.i.i, label %bb4.i._ZN3std2io6cursor15reserve_and_pad17hf7248d6078fe529eE.exit_crit_edge.i, !dbg !3013

bb4.i._ZN3std2io6cursor15reserve_and_pad17hf7248d6078fe529eE.exit_crit_edge.i: ; preds = %bb4.i.i
  %.phi.trans.insert.i = getelementptr inbounds i8, ptr %0, i64 8
  %vec.val.pre.i = load ptr, ptr %.phi.trans.insert.i, align 8, !dbg !3014, !alias.scope !2962, !noalias !2996
  br label %_ZN3std2io6cursor15reserve_and_pad17hf7248d6078fe529eE.exit.i, !dbg !3013

bb4.preheader.i.i.i:                              ; preds = %bb4.i.i
  call void @llvm.dbg.value(metadata !DIArgList(i64 %pos_mut.val.i, i64 %_18.i.i), metadata !2676, metadata !DIExpression(DW_OP_LLVM_arg, 0, DW_OP_LLVM_arg, 1, DW_OP_minus, DW_OP_stack_value)), !dbg !3015
  call void @llvm.dbg.value(metadata ptr %0, metadata !2792, metadata !DIExpression()), !dbg !3016
  call void @llvm.dbg.value(metadata ptr %0, metadata !2800, metadata !DIExpression()), !dbg !3018
  call void @llvm.dbg.value(metadata ptr %0, metadata !2809, metadata !DIExpression()), !dbg !3020
  call void @llvm.dbg.value(metadata ptr poison, metadata !2818, metadata !DIExpression()), !dbg !3022
  call void @llvm.dbg.value(metadata i64 %_18.i.i, metadata !2822, metadata !DIExpression()), !dbg !3022
  call void @llvm.dbg.value(metadata ptr poison, metadata !2678, metadata !DIExpression(DW_OP_LLVM_fragment, 0, 64)), !dbg !3024
  call void @llvm.dbg.value(metadata i64 poison, metadata !2678, metadata !DIExpression(DW_OP_LLVM_fragment, 64, 64)), !dbg !3024
  call void @llvm.dbg.value(metadata !DIArgList(ptr poison, i64 poison), metadata !2826, metadata !DIExpression(DW_OP_LLVM_arg, 0, DW_OP_LLVM_arg, 1, DW_OP_constu, 1, DW_OP_mul, DW_OP_plus, DW_OP_stack_value, DW_OP_LLVM_fragment, 0, 64)), !dbg !3025
  call void @llvm.dbg.value(metadata !DIArgList(i64 %pos_mut.val.i, i64 %_18.i.i), metadata !2826, metadata !DIExpression(DW_OP_LLVM_arg, 0, DW_OP_LLVM_arg, 1, DW_OP_minus, DW_OP_stack_value, DW_OP_LLVM_fragment, 64, 64)), !dbg !3025
  call void @llvm.dbg.value(metadata i8 0, metadata !2832, metadata !DIExpression()), !dbg !3025
  call void @llvm.dbg.value(metadata !DIArgList(ptr poison, i64 poison), metadata !2837, metadata !DIExpression(DW_OP_LLVM_arg, 0, DW_OP_LLVM_arg, 1, DW_OP_constu, 1, DW_OP_mul, DW_OP_plus, DW_OP_stack_value, DW_OP_LLVM_fragment, 0, 64)), !dbg !3027
  call void @llvm.dbg.value(metadata !DIArgList(i64 %pos_mut.val.i, i64 %_18.i.i), metadata !2837, metadata !DIExpression(DW_OP_LLVM_arg, 0, DW_OP_LLVM_arg, 1, DW_OP_minus, DW_OP_stack_value, DW_OP_LLVM_fragment, 64, 64)), !dbg !3027
  call void @llvm.dbg.value(metadata i8 0, metadata !2843, metadata !DIExpression()), !dbg !3027
  call void @llvm.dbg.value(metadata !DIArgList(ptr poison, i64 poison), metadata !2844, metadata !DIExpression(DW_OP_LLVM_arg, 0, DW_OP_LLVM_arg, 1, DW_OP_constu, 1, DW_OP_mul, DW_OP_plus, DW_OP_stack_value, DW_OP_LLVM_fragment, 0, 64)), !dbg !3029
  call void @llvm.dbg.value(metadata !DIArgList(ptr poison, i64 poison, i64 poison), metadata !2844, metadata !DIExpression(DW_OP_LLVM_arg, 0, DW_OP_LLVM_arg, 2, DW_OP_constu, 1, DW_OP_mul, DW_OP_plus, DW_OP_LLVM_arg, 1, DW_OP_constu, 1, DW_OP_mul, DW_OP_plus, DW_OP_stack_value, DW_OP_LLVM_fragment, 64, 64)), !dbg !3029
  %diff.i.i = sub i64 %pos_mut.val.i, %_18.i.i, !dbg !3030
  call void @llvm.dbg.value(metadata i64 %diff.i.i, metadata !2676, metadata !DIExpression()), !dbg !3015
  call void @llvm.dbg.value(metadata i64 %diff.i.i, metadata !2826, metadata !DIExpression(DW_OP_LLVM_fragment, 64, 64)), !dbg !3025
  call void @llvm.dbg.value(metadata i64 %diff.i.i, metadata !2837, metadata !DIExpression(DW_OP_LLVM_fragment, 64, 64)), !dbg !3027
  %4 = getelementptr inbounds i8, ptr %0, i64 8, !dbg !3031
  %self2.i.i.i = load ptr, ptr %4, align 8, !dbg !3031, !alias.scope !2962, !noalias !2996, !nonnull !29, !noundef !29
  call void @llvm.dbg.value(metadata ptr %self2.i.i.i, metadata !2818, metadata !DIExpression()), !dbg !3022
  call void @llvm.dbg.value(metadata !DIArgList(ptr %self2.i.i.i, i64 %_18.i.i), metadata !2826, metadata !DIExpression(DW_OP_LLVM_arg, 0, DW_OP_LLVM_arg, 1, DW_OP_constu, 1, DW_OP_mul, DW_OP_plus, DW_OP_stack_value, DW_OP_LLVM_fragment, 0, 64)), !dbg !3025
  call void @llvm.dbg.value(metadata !DIArgList(ptr %self2.i.i.i, i64 %_18.i.i), metadata !2837, metadata !DIExpression(DW_OP_LLVM_arg, 0, DW_OP_LLVM_arg, 1, DW_OP_constu, 1, DW_OP_mul, DW_OP_plus, DW_OP_stack_value, DW_OP_LLVM_fragment, 0, 64)), !dbg !3027
  call void @llvm.dbg.value(metadata !DIArgList(ptr %self2.i.i.i, i64 %_18.i.i), metadata !2844, metadata !DIExpression(DW_OP_LLVM_arg, 0, DW_OP_LLVM_arg, 1, DW_OP_constu, 1, DW_OP_mul, DW_OP_plus, DW_OP_stack_value, DW_OP_LLVM_fragment, 0, 64)), !dbg !3029
  call void @llvm.dbg.value(metadata !DIArgList(ptr %self2.i.i.i, i64 %diff.i.i, i64 %_18.i.i), metadata !2844, metadata !DIExpression(DW_OP_LLVM_arg, 0, DW_OP_LLVM_arg, 2, DW_OP_constu, 1, DW_OP_mul, DW_OP_plus, DW_OP_LLVM_arg, 1, DW_OP_constu, 1, DW_OP_mul, DW_OP_plus, DW_OP_stack_value, DW_OP_LLVM_fragment, 64, 64)), !dbg !3029
  %_3.i.i.i = getelementptr inbounds i8, ptr %self2.i.i.i, i64 %_18.i.i, !dbg !3032
  call void @llvm.dbg.value(metadata ptr %_3.i.i.i, metadata !2826, metadata !DIExpression(DW_OP_LLVM_fragment, 0, 64)), !dbg !3025
  call void @llvm.dbg.value(metadata ptr %_3.i.i.i, metadata !2837, metadata !DIExpression(DW_OP_LLVM_fragment, 0, 64)), !dbg !3027
  call void @llvm.dbg.value(metadata ptr %_3.i.i.i, metadata !2844, metadata !DIExpression(DW_OP_LLVM_fragment, 0, 64)), !dbg !3029
  call void @llvm.dbg.value(metadata !DIArgList(ptr %_3.i.i.i, i64 %diff.i.i), metadata !2844, metadata !DIExpression(DW_OP_LLVM_arg, 0, DW_OP_LLVM_arg, 1, DW_OP_constu, 1, DW_OP_mul, DW_OP_plus, DW_OP_stack_value, DW_OP_LLVM_fragment, 64, 64)), !dbg !3029
  tail call void @llvm.memset.p0.i64(ptr nonnull align 1 %_3.i.i.i, i8 0, i64 %diff.i.i, i1 false), !dbg !3033, !alias.scope !3034, !noalias !3037
  call void @llvm.dbg.value(metadata ptr poison, metadata !2844, metadata !DIExpression(DW_OP_LLVM_fragment, 0, 64)), !dbg !3029
  call void @llvm.dbg.value(metadata ptr poison, metadata !2860, metadata !DIExpression()), !dbg !3038
  call void @llvm.dbg.value(metadata ptr poison, metadata !2844, metadata !DIExpression(DW_OP_LLVM_fragment, 0, 64)), !dbg !3029
  store i64 %pos_mut.val.i, ptr %3, align 8, !dbg !3039, !alias.scope !2995, !noalias !2996
  br label %_ZN3std2io6cursor15reserve_and_pad17hf7248d6078fe529eE.exit.i, !dbg !3040

_ZN3std2io6cursor15reserve_and_pad17hf7248d6078fe529eE.exit.i: ; preds = %bb4.preheader.i.i.i, %bb4.i._ZN3std2io6cursor15reserve_and_pad17hf7248d6078fe529eE.exit_crit_edge.i
  %_14.i = phi i64 [ %_18.i.i, %bb4.i._ZN3std2io6cursor15reserve_and_pad17hf7248d6078fe529eE.exit_crit_edge.i ], [ %pos_mut.val.i, %bb4.preheader.i.i.i ], !dbg !3041
  %vec.val.i = phi ptr [ %vec.val.pre.i, %bb4.i._ZN3std2io6cursor15reserve_and_pad17hf7248d6078fe529eE.exit_crit_edge.i ], [ %self2.i.i.i, %bb4.preheader.i.i.i ], !dbg !3014
  call void @llvm.dbg.value(metadata i64 %pos_mut.val.i, metadata !2625, metadata !DIExpression()), !dbg !3042
  call void @llvm.dbg.value(metadata i64 %pos_mut.val.i, metadata !2878, metadata !DIExpression()), !dbg !3043
  call void @llvm.dbg.value(metadata i64 %pos_mut.val.i, metadata !2887, metadata !DIExpression()), !dbg !3045
  call void @llvm.dbg.value(metadata ptr undef, metadata !2883, metadata !DIExpression()), !dbg !3043
  call void @llvm.dbg.value(metadata ptr %buf.0, metadata !2884, metadata !DIExpression(DW_OP_LLVM_fragment, 0, 64)), !dbg !3043
  call void @llvm.dbg.value(metadata i64 %buf.1, metadata !2884, metadata !DIExpression(DW_OP_LLVM_fragment, 64, 64)), !dbg !3043
  call void @llvm.dbg.value(metadata ptr %vec.val.i, metadata !2891, metadata !DIExpression()), !dbg !3045
  %self3.i.i = getelementptr inbounds i8, ptr %vec.val.i, i64 %pos_mut.val.i, !dbg !3047
  call void @llvm.dbg.value(metadata ptr %self3.i.i, metadata !2895, metadata !DIExpression()), !dbg !3048
  call void @llvm.dbg.value(metadata ptr %self3.i.i, metadata !2905, metadata !DIExpression()), !dbg !3050
  call void @llvm.dbg.value(metadata ptr %buf.0, metadata !2901, metadata !DIExpression()), !dbg !3048
  call void @llvm.dbg.value(metadata ptr %buf.0, metadata !2909, metadata !DIExpression()), !dbg !3050
  call void @llvm.dbg.value(metadata i64 %buf.1, metadata !2902, metadata !DIExpression()), !dbg !3048
  call void @llvm.dbg.value(metadata i64 %buf.1, metadata !2910, metadata !DIExpression()), !dbg !3050
  tail call void @llvm.memcpy.p0.p0.i64(ptr nonnull align 1 %self3.i.i, ptr nonnull align 1 %buf.0, i64 %buf.1, i1 false), !dbg !3052, !noalias !3053
  %_0.i.i = add i64 %pos_mut.val.i, %buf.1, !dbg !3054
  call void @llvm.dbg.value(metadata i64 %_0.i.i, metadata !2625, metadata !DIExpression()), !dbg !3042
  %_12.i = icmp ugt i64 %_0.i.i, %_14.i, !dbg !3055
  br i1 %_12.i, label %bb4.i, label %_ZN3std2io6cursor9vec_write17h3e2a87dc77c98307E.exit, !dbg !3055

bb4.i:                                            ; preds = %_ZN3std2io6cursor15reserve_and_pad17hf7248d6078fe529eE.exit.i
  call void @llvm.dbg.value(metadata i64 %_0.i.i, metadata !2651, metadata !DIExpression()), !dbg !2968
  store i64 %_0.i.i, ptr %3, align 8, !dbg !3056, !alias.scope !2962, !noalias !2996
  br label %_ZN3std2io6cursor9vec_write17h3e2a87dc77c98307E.exit, !dbg !3057

_ZN3std2io6cursor9vec_write17h3e2a87dc77c98307E.exit: ; preds = %_ZN3std2io6cursor15reserve_and_pad17hf7248d6078fe529eE.exit.i, %bb4.i
  store i64 %_0.i.i, ptr %_10, align 8, !dbg !3058, !alias.scope !2958, !noalias !2972
  %5 = inttoptr i64 %buf.1 to ptr, !dbg !3059
  %6 = insertvalue { i64, ptr } { i64 0, ptr undef }, ptr %5, 1, !dbg !3059
  ret { i64, ptr } %6, !dbg !3060
}

; <futures_lite::io::Empty as core::fmt::Debug>::fmt
; Function Attrs: nonlazybind uwtable
define noundef zeroext i1 @"_ZN60_$LT$futures_lite..io..Empty$u20$as$u20$core..fmt..Debug$GT$3fmt17h4797781f417c806eE"(ptr noalias nocapture noundef nonnull readonly align 1 %self, ptr noalias noundef align 8 dereferenceable(64) %f) unnamed_addr #3 !dbg !3061 {
start:
  tail call void @llvm.dbg.value(metadata ptr %self, metadata !3106, metadata !DIExpression()), !dbg !3108
  tail call void @llvm.dbg.value(metadata ptr %f, metadata !3107, metadata !DIExpression()), !dbg !3108
; call core::fmt::Formatter::pad
  %_0 = tail call noundef zeroext i1 @_ZN4core3fmt9Formatter3pad17h7a36b2c624c9ffbaE(ptr noalias noundef nonnull align 8 dereferenceable(64) %f, ptr noalias noundef nonnull readonly align 1 @alloc_93f1d18e96c71d56b3f730be0f68dd60, i64 noundef 12), !dbg !3109
  ret i1 %_0, !dbg !3110
}

; <futures_lite::io::read_to_end_internal::Guard as core::ops::drop::Drop>::drop
; Function Attrs: nonlazybind uwtable
define void @"_ZN87_$LT$futures_lite..io..read_to_end_internal..Guard$u20$as$u20$core..ops..drop..Drop$GT$4drop17hd950221aec75ed31E"(ptr noalias nocapture noundef readonly align 8 dereferenceable(16) %self) unnamed_addr #3 personality ptr @rust_eh_personality !dbg !3111 {
start:
  tail call void @llvm.dbg.value(metadata ptr %self, metadata !3122, metadata !DIExpression()), !dbg !3123
  %_4 = load ptr, ptr %self, align 8, !dbg !3124, !nonnull !29, !align !1939, !noundef !29
  %0 = getelementptr inbounds i8, ptr %self, i64 8, !dbg !3125
  %_3 = load i64, ptr %0, align 8, !dbg !3125, !noundef !29
  tail call void @llvm.experimental.noalias.scope.decl(metadata !3126), !dbg !3124
  call void @llvm.dbg.value(metadata ptr %_4, metadata !3129, metadata !DIExpression()), !dbg !3139
  call void @llvm.dbg.value(metadata ptr %_4, metadata !3141, metadata !DIExpression()), !dbg !3145
  call void @llvm.dbg.value(metadata i64 %_3, metadata !3135, metadata !DIExpression()), !dbg !3139
  call void @llvm.dbg.value(metadata i8 0, metadata !3136, metadata !DIExpression()), !dbg !3139
  %1 = getelementptr inbounds i8, ptr %_4, i64 16, !dbg !3147
  %len.i = load i64, ptr %1, align 8, !dbg !3147, !alias.scope !3126, !noundef !29
  call void @llvm.dbg.value(metadata i64 %len.i, metadata !3137, metadata !DIExpression()), !dbg !3148
  %_5.i = icmp ult i64 %len.i, %_3, !dbg !3149
  br i1 %_5.i, label %bb1.i, label %"_ZN5alloc3vec16Vec$LT$T$C$A$GT$6resize17he2654bfa3474c10fE.exit", !dbg !3149

bb1.i:                                            ; preds = %start
  %_6.i = sub i64 %_3, %len.i, !dbg !3150
  tail call void @llvm.experimental.noalias.scope.decl(metadata !3151), !dbg !3154
  call void @llvm.dbg.value(metadata i64 1, metadata !3155, metadata !DIExpression()), !dbg !3174
  call void @llvm.dbg.value(metadata i8 0, metadata !3183, metadata !DIExpression()), !dbg !3189
  call void @llvm.dbg.value(metadata ptr %_4, metadata !3181, metadata !DIExpression()), !dbg !3189
  call void @llvm.dbg.value(metadata ptr %_4, metadata !3190, metadata !DIExpression()), !dbg !3194
  call void @llvm.dbg.value(metadata ptr %_4, metadata !3196, metadata !DIExpression()), !dbg !3200
  call void @llvm.dbg.value(metadata i64 %_6.i, metadata !3182, metadata !DIExpression()), !dbg !3189
  call void @llvm.dbg.value(metadata ptr %_4, metadata !2750, metadata !DIExpression()), !dbg !3202
  call void @llvm.dbg.value(metadata i64 %_6.i, metadata !2754, metadata !DIExpression()), !dbg !3202
  call void @llvm.dbg.value(metadata i64 %_6.i, metadata !2757, metadata !DIExpression()), !dbg !3204
  call void @llvm.dbg.value(metadata i64 %_6.i, metadata !2766, metadata !DIExpression()), !dbg !3206
  call void @llvm.dbg.value(metadata ptr %_4, metadata !2762, metadata !DIExpression()), !dbg !3204
  call void @llvm.dbg.value(metadata ptr %_4, metadata !2773, metadata !DIExpression()), !dbg !3206
  call void @llvm.dbg.value(metadata ptr %_4, metadata !3208, metadata !DIExpression()), !dbg !3212
  call void @llvm.dbg.value(metadata i64 %len.i, metadata !2763, metadata !DIExpression()), !dbg !3204
  call void @llvm.dbg.value(metadata i64 %len.i, metadata !2774, metadata !DIExpression()), !dbg !3206
  call void @llvm.dbg.value(metadata i64 %len.i, metadata !2777, metadata !DIExpression()), !dbg !3214
  %2 = load i64, ptr %_4, align 8, !dbg !3216, !alias.scope !3217, !noundef !29
  call void @llvm.dbg.value(metadata i64 %2, metadata !2781, metadata !DIExpression()), !dbg !3214
  %_7.i.i.i = sub i64 %2, %len.i, !dbg !3220
  %_5.i.i.i = icmp ult i64 %_7.i.i.i, %_6.i, !dbg !3221
  br i1 %_5.i.i.i, label %bb1.i.i.i, label %"_ZN5alloc3vec16Vec$LT$T$C$A$GT$7reserve17hc0e2fe0ca50aa168E.exit.i.i", !dbg !3222

bb1.i.i.i:                                        ; preds = %bb1.i
; call alloc::raw_vec::RawVec<T,A>::reserve::do_reserve_and_handle
  tail call fastcc void @"_ZN5alloc7raw_vec19RawVec$LT$T$C$A$GT$7reserve21do_reserve_and_handle17h27ea52722b8b0785E"(ptr noalias noundef nonnull align 8 dereferenceable(16) %_4, i64 noundef %len.i, i64 noundef %_6.i), !dbg !3223
  %count.pre.i.i = load i64, ptr %1, align 8, !dbg !3224, !alias.scope !3225
  br label %"_ZN5alloc3vec16Vec$LT$T$C$A$GT$7reserve17hc0e2fe0ca50aa168E.exit.i.i", !dbg !3223

"_ZN5alloc3vec16Vec$LT$T$C$A$GT$7reserve17hc0e2fe0ca50aa168E.exit.i.i": ; preds = %bb1.i.i.i, %bb1.i
  %count.i.i = phi i64 [ %len.i, %bb1.i ], [ %count.pre.i.i, %bb1.i.i.i ], !dbg !3224
  call void @llvm.dbg.value(metadata ptr %_4, metadata !3226, metadata !DIExpression()), !dbg !3230
  %3 = getelementptr inbounds i8, ptr %_4, i64 8, !dbg !3232
  %self3.i.i = load ptr, ptr %3, align 8, !dbg !3232, !alias.scope !3225, !nonnull !29, !noundef !29
  call void @llvm.dbg.value(metadata ptr %self3.i.i, metadata !3233, metadata !DIExpression()), !dbg !3241
  call void @llvm.dbg.value(metadata i64 %count.i.i, metadata !3237, metadata !DIExpression()), !dbg !3241
  %4 = getelementptr i8, ptr %self3.i.i, i64 %count.i.i, !dbg !3243
  call void @llvm.dbg.value(metadata ptr %4, metadata !3184, metadata !DIExpression()), !dbg !3244
  call void @llvm.dbg.value(metadata ptr %1, metadata !3185, metadata !DIExpression(DW_OP_LLVM_fragment, 0, 64)), !dbg !3245
  call void @llvm.dbg.value(metadata i64 1, metadata !3186, metadata !DIExpression(DW_OP_LLVM_fragment, 0, 64)), !dbg !3246
  call void @llvm.dbg.value(metadata i64 %_6.i, metadata !3186, metadata !DIExpression(DW_OP_LLVM_fragment, 64, 64)), !dbg !3246
  call void @llvm.dbg.value(metadata i64 %count.i.i, metadata !3185, metadata !DIExpression(DW_OP_LLVM_fragment, 64, 64)), !dbg !3245
  call void @llvm.dbg.value(metadata ptr undef, metadata !3247, metadata !DIExpression()), !dbg !3260
  call void @llvm.dbg.value(metadata ptr undef, metadata !3262, metadata !DIExpression()), !dbg !3269
  call void @llvm.dbg.value(metadata ptr undef, metadata !3271, metadata !DIExpression()), !dbg !3280
  call void @llvm.dbg.value(metadata ptr poison, metadata !3279, metadata !DIExpression()), !dbg !3280
  %_2833.i.i = icmp ugt i64 %_6.i, 1, !dbg !3282
  br i1 %_2833.i.i, label %bb15.thread.i.i, label %bb4.i.i, !dbg !3283

bb15.thread.i.i:                                  ; preds = %"_ZN5alloc3vec16Vec$LT$T$C$A$GT$7reserve17hc0e2fe0ca50aa168E.exit.i.i"
  %5 = add i64 %_6.i, -1, !dbg !3283
  tail call void @llvm.memset.p0.i64(ptr align 1 %4, i8 0, i64 %5, i1 false), !dbg !3284, !noalias !3225
  %6 = add i64 %count.i.i, %5, !dbg !3283
  call void @llvm.dbg.value(metadata ptr poison, metadata !3184, metadata !DIExpression()), !dbg !3244
  call void @llvm.dbg.value(metadata i64 poison, metadata !3186, metadata !DIExpression(DW_OP_LLVM_fragment, 0, 64)), !dbg !3246
  call void @llvm.dbg.value(metadata i64 poison, metadata !3185, metadata !DIExpression(DW_OP_LLVM_fragment, 64, 64)), !dbg !3245
  call void @llvm.dbg.value(metadata ptr poison, metadata !3290, metadata !DIExpression()), !dbg !3296
  call void @llvm.dbg.value(metadata i8 0, metadata !3291, metadata !DIExpression()), !dbg !3296
  call void @llvm.dbg.value(metadata ptr undef, metadata !3247, metadata !DIExpression()), !dbg !3260
  call void @llvm.dbg.value(metadata ptr undef, metadata !3262, metadata !DIExpression()), !dbg !3269
  call void @llvm.dbg.value(metadata ptr undef, metadata !3271, metadata !DIExpression()), !dbg !3280
  call void @llvm.dbg.value(metadata ptr poison, metadata !3279, metadata !DIExpression()), !dbg !3280
  %scevgep.i.i = getelementptr i8, ptr %self3.i.i, i64 %6, !dbg !3283
  br label %bb4.i.i, !dbg !3297

bb4.i.i:                                          ; preds = %bb15.thread.i.i, %"_ZN5alloc3vec16Vec$LT$T$C$A$GT$7reserve17hc0e2fe0ca50aa168E.exit.i.i"
  %ptr.sroa.0.0.lcssa43.i.i = phi ptr [ %scevgep.i.i, %bb15.thread.i.i ], [ %4, %"_ZN5alloc3vec16Vec$LT$T$C$A$GT$7reserve17hc0e2fe0ca50aa168E.exit.i.i" ]
  %storemerge.lcssa42.i.i = phi i64 [ %6, %bb15.thread.i.i ], [ %count.i.i, %"_ZN5alloc3vec16Vec$LT$T$C$A$GT$7reserve17hc0e2fe0ca50aa168E.exit.i.i" ]
  call void @llvm.dbg.value(metadata ptr %ptr.sroa.0.0.lcssa43.i.i, metadata !3292, metadata !DIExpression()), !dbg !3298
  call void @llvm.dbg.value(metadata i8 0, metadata !3294, metadata !DIExpression()), !dbg !3298
  store i8 0, ptr %ptr.sroa.0.0.lcssa43.i.i, align 1, !dbg !3300, !noalias !3225
  call void @llvm.dbg.value(metadata ptr undef, metadata !3173, metadata !DIExpression()), !dbg !3174
  %7 = add i64 %storemerge.lcssa42.i.i, 1, !dbg !3301
  call void @llvm.dbg.value(metadata i64 %7, metadata !3185, metadata !DIExpression(DW_OP_LLVM_fragment, 64, 64)), !dbg !3245
  br label %"_ZN5alloc3vec16Vec$LT$T$C$A$GT$6resize17he2654bfa3474c10fE.exit", !dbg !3302

"_ZN5alloc3vec16Vec$LT$T$C$A$GT$6resize17he2654bfa3474c10fE.exit": ; preds = %start, %bb4.i.i
  %storemerge.i = phi i64 [ %_3, %start ], [ %7, %bb4.i.i ], !dbg !3148
  store i64 %storemerge.i, ptr %1, align 8, !dbg !3148, !alias.scope !3126
  ret void, !dbg !3303
}

; futures_lite::io::memchr
; Function Attrs: nofree norecurse nosync nounwind nonlazybind memory(read, inaccessiblemem: write) uwtable
define { i64, i64 } @_ZN12futures_lite2io6memchr17h47269cbee39f1294E(i8 noundef %0, ptr noalias noundef nonnull readonly align 1 %haystack.0, i64 noundef %haystack.1) unnamed_addr #7 personality ptr @rust_eh_personality !dbg !3304 {
start:
  tail call void @llvm.dbg.value(metadata i8 %0, metadata !3308, metadata !DIExpression()), !dbg !3310
  tail call void @llvm.dbg.value(metadata ptr %haystack.0, metadata !3309, metadata !DIExpression(DW_OP_LLVM_fragment, 0, 64)), !dbg !3310
  tail call void @llvm.dbg.value(metadata ptr %haystack.0, metadata !3311, metadata !DIExpression(DW_OP_LLVM_fragment, 0, 64)), !dbg !3326
  tail call void @llvm.dbg.value(metadata ptr %haystack.0, metadata !3328, metadata !DIExpression(DW_OP_LLVM_fragment, 0, 64)), !dbg !3339
  tail call void @llvm.dbg.value(metadata i64 %haystack.1, metadata !3309, metadata !DIExpression(DW_OP_LLVM_fragment, 64, 64)), !dbg !3310
  tail call void @llvm.dbg.value(metadata i64 %haystack.1, metadata !3311, metadata !DIExpression(DW_OP_LLVM_fragment, 64, 64)), !dbg !3326
  tail call void @llvm.dbg.value(metadata i64 %haystack.1, metadata !3328, metadata !DIExpression(DW_OP_LLVM_fragment, 64, 64)), !dbg !3339
  tail call void @llvm.dbg.value(metadata i64 %haystack.1, metadata !3333, metadata !DIExpression()), !dbg !3341
  tail call void @llvm.dbg.value(metadata i64 %haystack.1, metadata !3342, metadata !DIExpression()), !dbg !3347
  tail call void @llvm.dbg.value(metadata ptr %haystack.0, metadata !3335, metadata !DIExpression()), !dbg !3349
  tail call void @llvm.dbg.value(metadata ptr %haystack.0, metadata !3346, metadata !DIExpression()), !dbg !3347
  %_11 = getelementptr inbounds i8, ptr %haystack.0, i64 %haystack.1, !dbg !3350
  call void @llvm.dbg.value(metadata ptr undef, metadata !3351, metadata !DIExpression()), !dbg !3374
  call void @llvm.dbg.value(metadata ptr undef, metadata !3361, metadata !DIExpression()), !dbg !3374
  call void @llvm.dbg.value(metadata i64 %haystack.1, metadata !3362, metadata !DIExpression()), !dbg !3376
  call void @llvm.dbg.value(metadata i64 0, metadata !3368, metadata !DIExpression()), !dbg !3377
  call void @llvm.dbg.value(metadata i64 0, metadata !3368, metadata !DIExpression()), !dbg !3377
  call void @llvm.dbg.value(metadata ptr undef, metadata !3378, metadata !DIExpression()), !dbg !3398
  call void @llvm.dbg.value(metadata ptr undef, metadata !3400, metadata !DIExpression()), !dbg !3406
  call void @llvm.dbg.value(metadata ptr %_11, metadata !3396, metadata !DIExpression()), !dbg !3408
  call void @llvm.dbg.value(metadata ptr undef, metadata !3409, metadata !DIExpression()), !dbg !3417
  call void @llvm.dbg.value(metadata ptr undef, metadata !3416, metadata !DIExpression()), !dbg !3417
  %1 = icmp eq i64 %haystack.1, 0, !dbg !3419
  br i1 %1, label %"_ZN91_$LT$core..slice..iter..Iter$LT$T$GT$$u20$as$u20$core..iter..traits..iterator..Iterator$GT$8position17hcfeb087531241de3E.exit", label %bb6.i, !dbg !3420

bb6.i:                                            ; preds = %start, %bb9.i
  %i.sroa.0.010.i = phi i64 [ %_22.0.i, %bb9.i ], [ 0, %start ]
  %_14.i.i89.i = phi ptr [ %_14.i.i.i, %bb9.i ], [ %haystack.0, %start ]
  call void @llvm.dbg.value(metadata i64 %i.sroa.0.010.i, metadata !3368, metadata !DIExpression()), !dbg !3377
  call void @llvm.dbg.value(metadata ptr undef, metadata !3421, metadata !DIExpression()), !dbg !3435
  call void @llvm.dbg.value(metadata i64 1, metadata !3427, metadata !DIExpression()), !dbg !3435
  call void @llvm.dbg.value(metadata i64 1, metadata !3437, metadata !DIExpression()), !dbg !3445
  call void @llvm.dbg.value(metadata ptr %_14.i.i89.i, metadata !3428, metadata !DIExpression()), !dbg !3447
  call void @llvm.dbg.value(metadata ptr undef, metadata !3432, metadata !DIExpression(DW_OP_plus_uconst, 8, DW_OP_stack_value)), !dbg !3448
  call void @llvm.dbg.value(metadata ptr %_14.i.i89.i, metadata !3444, metadata !DIExpression()), !dbg !3445
  call void @llvm.dbg.value(metadata ptr %_14.i.i89.i, metadata !3370, metadata !DIExpression()), !dbg !3449
  %.val.i = load i8, ptr %_14.i.i89.i, align 1, !dbg !3450, !noalias !3451, !noundef !29
  call void @llvm.dbg.value(metadata ptr undef, metadata !3455, metadata !DIExpression(DW_OP_deref, DW_OP_deref)), !dbg !3464
  call void @llvm.dbg.value(metadata ptr undef, metadata !3463, metadata !DIExpression()), !dbg !3464
  call void @llvm.dbg.value(metadata i8 %.val.i, metadata !3461, metadata !DIExpression()), !dbg !3466
  %_0.i.i = icmp eq i8 %.val.i, %0, !dbg !3467
  br i1 %_0.i.i, label %bb8.i, label %bb9.i, !dbg !3450

bb9.i:                                            ; preds = %bb6.i
  %_14.i.i.i = getelementptr inbounds i8, ptr %_14.i.i89.i, i64 1, !dbg !3468
  %_22.0.i = add nuw i64 %i.sroa.0.010.i, 1, !dbg !3469
  call void @llvm.dbg.value(metadata i64 %_22.0.i, metadata !3368, metadata !DIExpression()), !dbg !3377
  call void @llvm.dbg.value(metadata ptr undef, metadata !3378, metadata !DIExpression()), !dbg !3398
  call void @llvm.dbg.value(metadata ptr undef, metadata !3400, metadata !DIExpression()), !dbg !3406
  call void @llvm.dbg.value(metadata ptr %_11, metadata !3396, metadata !DIExpression()), !dbg !3408
  call void @llvm.dbg.value(metadata ptr undef, metadata !3409, metadata !DIExpression()), !dbg !3417
  call void @llvm.dbg.value(metadata ptr undef, metadata !3416, metadata !DIExpression()), !dbg !3417
  %2 = icmp eq ptr %_14.i.i.i, %_11, !dbg !3419
  br i1 %2, label %"_ZN91_$LT$core..slice..iter..Iter$LT$T$GT$$u20$as$u20$core..iter..traits..iterator..Iterator$GT$8position17hcfeb087531241de3E.exit", label %bb6.i, !dbg !3420

bb8.i:                                            ; preds = %bb6.i
  %cond.i = icmp ult i64 %i.sroa.0.010.i, %haystack.1, !dbg !3470
  call void @llvm.dbg.value(metadata i1 %cond.i, metadata !3471, metadata !DIExpression(DW_OP_LLVM_convert, 1, DW_ATE_unsigned, DW_OP_LLVM_convert, 8, DW_ATE_unsigned, DW_OP_stack_value)), !dbg !3475
  tail call void @llvm.assume(i1 %cond.i), !dbg !3477
  br label %"_ZN91_$LT$core..slice..iter..Iter$LT$T$GT$$u20$as$u20$core..iter..traits..iterator..Iterator$GT$8position17hcfeb087531241de3E.exit", !dbg !3478

"_ZN91_$LT$core..slice..iter..Iter$LT$T$GT$$u20$as$u20$core..iter..traits..iterator..Iterator$GT$8position17hcfeb087531241de3E.exit": ; preds = %bb9.i, %start, %bb8.i
  %i.sroa.0.07.i = phi i64 [ %i.sroa.0.010.i, %bb8.i ], [ 0, %start ], [ %haystack.1, %bb9.i ]
  %_0.sroa.0.0.i = phi i64 [ 1, %bb8.i ], [ 0, %start ], [ 0, %bb9.i ], !dbg !3377
  %3 = insertvalue { i64, i64 } poison, i64 %_0.sroa.0.0.i, 0, !dbg !3479
  %4 = insertvalue { i64, i64 } %3, i64 %i.sroa.0.07.i, 1, !dbg !3479
  ret { i64, i64 } %4, !dbg !3480
}

; Function Attrs: mustprogress nocallback nofree nosync nounwind speculatable willreturn memory(none)
declare void @llvm.dbg.declare(metadata, metadata, metadata) #8

; Function Attrs: nonlazybind uwtable
declare noundef i32 @rust_eh_personality(i32 noundef, i32 noundef, i64 noundef, ptr noundef, ptr noundef) unnamed_addr #3

; Function Attrs: mustprogress nocallback nofree nosync nounwind willreturn memory(inaccessiblemem: write)
declare void @llvm.assume(i1 noundef) #9

; Function Attrs: mustprogress nocallback nofree nosync nounwind speculatable willreturn memory(none)
declare i64 @llvm.uadd.sat.i64(i64, i64) #8

; Function Attrs: mustprogress nocallback nofree nounwind willreturn memory(argmem: readwrite)
declare void @llvm.memcpy.p0.p0.i64(ptr noalias nocapture writeonly, ptr noalias nocapture readonly, i64, i1 immarg) #10

; Function Attrs: mustprogress nocallback nofree nounwind willreturn memory(argmem: write)
declare void @llvm.memset.p0.i64(ptr nocapture writeonly, i8, i64, i1 immarg) #11

; parking::Inner::unpark
; Function Attrs: nonlazybind uwtable
declare noundef zeroext i1 @_ZN7parking5Inner6unpark17h2d81dc2aaee87566E(ptr noundef nonnull align 8) unnamed_addr #3

; Function Attrs: nounwind nonlazybind allockind("alloc,uninitialized,aligned") allocsize(0) uwtable
declare noalias noundef ptr @__rust_alloc(i64 noundef, i64 allocalign noundef) unnamed_addr #12

; Function Attrs: nounwind nonlazybind allockind("realloc,aligned") allocsize(3) uwtable
declare noalias noundef ptr @__rust_realloc(ptr allocptr noundef, i64 noundef, i64 allocalign noundef, i64 noundef) unnamed_addr #13

; Function Attrs: mustprogress nocallback nofree nosync nounwind speculatable willreturn memory(none)
declare { i64, i1 } @llvm.uadd.with.overflow.i64(i64, i64) #8

; alloc::raw_vec::handle_error
; Function Attrs: cold noreturn nonlazybind uwtable
declare void @_ZN5alloc7raw_vec12handle_error17hbecd345b13023a3fE(i64 noundef, i64) unnamed_addr #14

; Function Attrs: nounwind nonlazybind allockind("free") uwtable
declare void @__rust_dealloc(ptr allocptr noundef, i64 noundef, i64 noundef) unnamed_addr #15

; Function Attrs: cold noreturn nounwind memory(inaccessiblemem: write)
declare void @llvm.trap() #16

; parking::Parker::new
; Function Attrs: nonlazybind uwtable
declare noundef nonnull ptr @_ZN7parking6Parker3new17hd8c92361f5d835b4E() unnamed_addr #3

; parking::Parker::unparker
; Function Attrs: nonlazybind uwtable
declare noundef nonnull ptr @_ZN7parking6Parker8unparker17hb267f095239a07dbE(ptr noalias noundef readonly align 8 dereferenceable(8)) unnamed_addr #3

; core::fmt::Formatter::pad
; Function Attrs: nonlazybind uwtable
declare noundef zeroext i1 @_ZN4core3fmt9Formatter3pad17h7a36b2c624c9ffbaE(ptr noalias noundef align 8 dereferenceable(64), ptr noalias noundef nonnull readonly align 1, i64 noundef) unnamed_addr #3

; Function Attrs: mustprogress nocallback nofree nosync nounwind willreturn memory(argmem: readwrite)
declare void @llvm.lifetime.start.p0(i64 immarg, ptr nocapture) #17

; Function Attrs: mustprogress nocallback nofree nosync nounwind willreturn memory(argmem: readwrite)
declare void @llvm.lifetime.end.p0(i64 immarg, ptr nocapture) #17

; Function Attrs: nocallback nofree nosync nounwind speculatable willreturn memory(none)
declare void @llvm.dbg.value(metadata, metadata, metadata) #18

; Function Attrs: nocallback nofree nosync nounwind willreturn memory(inaccessiblemem: readwrite)
declare void @llvm.experimental.noalias.scope.decl(metadata) #19

; Function Attrs: nocallback nofree nosync nounwind speculatable willreturn memory(none)
declare i64 @llvm.umin.i64(i64, i64) #18

; Function Attrs: nocallback nofree nosync nounwind speculatable willreturn memory(none)
declare i64 @llvm.umax.i64(i64, i64) #18

attributes #0 = { noinline nounwind nonlazybind uwtable "probe-stack"="inline-asm" "target-cpu"="x86-64" }
attributes #1 = { nounwind nonlazybind uwtable "probe-stack"="inline-asm" "target-cpu"="x86-64" }
attributes #2 = { alwaysinline nounwind nonlazybind memory(argmem: readwrite, inaccessiblemem: write) uwtable "probe-stack"="inline-asm" "target-cpu"="x86-64" }
attributes #3 = { nonlazybind uwtable "probe-stack"="inline-asm" "target-cpu"="x86-64" }
attributes #4 = { cold nonlazybind uwtable "probe-stack"="inline-asm" "target-cpu"="x86-64" }
attributes #5 = { mustprogress nofree norecurse nosync nounwind nonlazybind willreturn uwtable "probe-stack"="inline-asm" "target-cpu"="x86-64" }
attributes #6 = { nofree norecurse nosync nounwind nonlazybind uwtable "probe-stack"="inline-asm" "target-cpu"="x86-64" }
attributes #7 = { nofree norecurse nosync nounwind nonlazybind memory(read, inaccessiblemem: write) uwtable "probe-stack"="inline-asm" "target-cpu"="x86-64" }
attributes #8 = { mustprogress nocallback nofree nosync nounwind speculatable willreturn memory(none) }
attributes #9 = { mustprogress nocallback nofree nosync nounwind willreturn memory(inaccessiblemem: write) }
attributes #10 = { mustprogress nocallback nofree nounwind willreturn memory(argmem: readwrite) }
attributes #11 = { mustprogress nocallback nofree nounwind willreturn memory(argmem: write) }
attributes #12 = { nounwind nonlazybind allockind("alloc,uninitialized,aligned") allocsize(0) uwtable "alloc-family"="__rust_alloc" "probe-stack"="inline-asm" "target-cpu"="x86-64" }
attributes #13 = { nounwind nonlazybind allockind("realloc,aligned") allocsize(3) uwtable "alloc-family"="__rust_alloc" "probe-stack"="inline-asm" "target-cpu"="x86-64" }
attributes #14 = { cold noreturn nonlazybind uwtable "probe-stack"="inline-asm" "target-cpu"="x86-64" }
attributes #15 = { nounwind nonlazybind allockind("free") uwtable "alloc-family"="__rust_alloc" "probe-stack"="inline-asm" "target-cpu"="x86-64" }
attributes #16 = { cold noreturn nounwind memory(inaccessiblemem: write) }
attributes #17 = { mustprogress nocallback nofree nosync nounwind willreturn memory(argmem: readwrite) }
attributes #18 = { nocallback nofree nosync nounwind speculatable willreturn memory(none) }
attributes #19 = { nocallback nofree nosync nounwind willreturn memory(inaccessiblemem: readwrite) }
attributes #20 = { nounwind }
attributes #21 = { noreturn }

!llvm.module.flags = !{!198, !199, !200, !201}
!llvm.ident = !{!202}
!llvm.dbg.cu = !{!203}

!0 = !DIGlobalVariableExpression(var: !1, expr: !DIExpression())
!1 = distinct !DIGlobalVariable(name: "VAL", linkageName: "_ZN12futures_lite6future8block_on5CACHE29_$u7b$$u7b$constant$u7d$$u7d$28_$u7b$$u7b$closure$u7d$$u7d$3VAL17h3108d5d0e560735aE", scope: !2, file: !8, line: 94, type: !9, isLocal: false, isDefinition: true, align: 64)
!2 = !DINamespace(name: "{closure#0}", scope: !3)
!3 = !DINamespace(name: "{constant#0}", scope: !4)
!4 = !DINamespace(name: "CACHE", scope: !5)
!5 = !DINamespace(name: "block_on", scope: !6)
!6 = !DINamespace(name: "future", scope: !7)
!7 = !DINamespace(name: "futures_lite", scope: null)
!8 = !DIFile(filename: "/home/arsalan/Documents/Github/unsafe-rust-benchmark/library/std/src/sys/thread_local/fast_local/mod.rs", directory: "", checksumkind: CSK_MD5, checksum: "f87315a436d87690bf6e647ddcb75cb0")
!9 = !DICompositeType(tag: DW_TAG_structure_type, name: "Storage<core::cell::RefCell<(parking::Parker, core::task::wake::Waker)>, ()>", scope: !11, file: !10, size: 320, align: 64, flags: DIFlagPublic, elements: !16, templateParams: !30, identifier: "abb33bcb4b748f9d15117d5a008a641a")
!10 = !DIFile(filename: "<unknown>", directory: "")
!11 = !DINamespace(name: "lazy", scope: !12)
!12 = !DINamespace(name: "fast_local", scope: !13)
!13 = !DINamespace(name: "thread_local", scope: !14)
!14 = !DINamespace(name: "sys", scope: !15)
!15 = !DINamespace(name: "std", scope: null)
!16 = !{!17}
!17 = !DIDerivedType(tag: DW_TAG_member, name: "state", scope: !9, file: !10, baseType: !18, size: 320, align: 64, flags: DIFlagPrivate)
!18 = !DICompositeType(tag: DW_TAG_structure_type, name: "UnsafeCell<std::sys::thread_local::fast_local::lazy::State<core::cell::RefCell<(parking::Parker, core::task::wake::Waker)>, ()>>", scope: !19, file: !10, size: 320, align: 64, flags: DIFlagPublic, elements: !21, templateParams: !196, identifier: "f0aceaaa8edfd2df92b9134f799d00")
!19 = !DINamespace(name: "cell", scope: !20)
!20 = !DINamespace(name: "core", scope: null)
!21 = !{!22}
!22 = !DIDerivedType(tag: DW_TAG_member, name: "value", scope: !18, file: !10, baseType: !23, size: 320, align: 64, flags: DIFlagPrivate)
!23 = !DICompositeType(tag: DW_TAG_structure_type, name: "State<core::cell::RefCell<(parking::Parker, core::task::wake::Waker)>, ()>", scope: !11, file: !10, size: 320, align: 64, flags: DIFlagPrivate, elements: !24, templateParams: !29, identifier: "5a0b3152d7c41fbc4519a22c04a2400e")
!24 = !{!25}
!25 = !DICompositeType(tag: DW_TAG_variant_part, scope: !23, file: !10, size: 320, align: 64, elements: !26, templateParams: !29, identifier: "c8e9d65ff5eb584c8fa9e091d7cacffb", discriminator: !194)
!26 = !{!27, !186, !190}
!27 = !DIDerivedType(tag: DW_TAG_member, name: "Initial", scope: !25, file: !10, baseType: !28, size: 320, align: 64, extraData: i128 0)
!28 = !DICompositeType(tag: DW_TAG_structure_type, name: "Initial", scope: !23, file: !10, size: 320, align: 64, flags: DIFlagPrivate, elements: !29, templateParams: !30, identifier: "cca5a96db3cfdb044b6abff410c5533c")
!29 = !{}
!30 = !{!31, !185}
!31 = !DITemplateTypeParameter(name: "T", type: !32)
!32 = !DICompositeType(tag: DW_TAG_structure_type, name: "RefCell<(parking::Parker, core::task::wake::Waker)>", scope: !19, file: !10, size: 256, align: 64, flags: DIFlagPublic, elements: !33, templateParams: !183, identifier: "d504dfa4d9c529ba852b320345ddb065")
!33 = !{!34, !44}
!34 = !DIDerivedType(tag: DW_TAG_member, name: "borrow", scope: !32, file: !10, baseType: !35, size: 64, align: 64, flags: DIFlagPrivate)
!35 = !DICompositeType(tag: DW_TAG_structure_type, name: "Cell<isize>", scope: !19, file: !10, size: 64, align: 64, flags: DIFlagPublic, elements: !36, templateParams: !42, identifier: "9de832fc817e92e5ff430c96cbfcf49")
!36 = !{!37}
!37 = !DIDerivedType(tag: DW_TAG_member, name: "value", scope: !35, file: !10, baseType: !38, size: 64, align: 64, flags: DIFlagPrivate)
!38 = !DICompositeType(tag: DW_TAG_structure_type, name: "UnsafeCell<isize>", scope: !19, file: !10, size: 64, align: 64, flags: DIFlagPublic, elements: !39, templateParams: !42, identifier: "d73edba658522c91062ed66b8da1f8f")
!39 = !{!40}
!40 = !DIDerivedType(tag: DW_TAG_member, name: "value", scope: !38, file: !10, baseType: !41, size: 64, align: 64, flags: DIFlagPrivate)
!41 = !DIBasicType(name: "isize", size: 64, encoding: DW_ATE_signed)
!42 = !{!43}
!43 = !DITemplateTypeParameter(name: "T", type: !41)
!44 = !DIDerivedType(tag: DW_TAG_member, name: "value", scope: !32, file: !10, baseType: !45, size: 192, align: 64, offset: 64, flags: DIFlagPrivate)
!45 = !DICompositeType(tag: DW_TAG_structure_type, name: "UnsafeCell<(parking::Parker, core::task::wake::Waker)>", scope: !19, file: !10, size: 192, align: 64, flags: DIFlagPublic, elements: !46, templateParams: !183, identifier: "f82dc23184b926a67f10791f076da600")
!46 = !{!47}
!47 = !DIDerivedType(tag: DW_TAG_member, name: "value", scope: !45, file: !10, baseType: !48, size: 192, align: 64, flags: DIFlagPrivate)
!48 = !DICompositeType(tag: DW_TAG_structure_type, name: "(parking::Parker, core::task::wake::Waker)", file: !10, size: 192, align: 64, elements: !49, templateParams: !29, identifier: "6ccb04ab5faf7cf1d4b7a2d8b96d123b")
!49 = !{!50, !159}
!50 = !DIDerivedType(tag: DW_TAG_member, name: "__0", scope: !48, file: !10, baseType: !51, size: 64, align: 64)
!51 = !DICompositeType(tag: DW_TAG_structure_type, name: "Parker", scope: !52, file: !10, size: 64, align: 64, flags: DIFlagPublic, elements: !53, templateParams: !29, identifier: "41d7f00bd7dcf5386de56676b39abc0b")
!52 = !DINamespace(name: "parking", scope: null)
!53 = !{!54, !152}
!54 = !DIDerivedType(tag: DW_TAG_member, name: "unparker", scope: !51, file: !10, baseType: !55, size: 64, align: 64, flags: DIFlagPrivate)
!55 = !DICompositeType(tag: DW_TAG_structure_type, name: "Unparker", scope: !52, file: !10, size: 64, align: 64, flags: DIFlagPublic, elements: !56, templateParams: !29, identifier: "5192ed2efe1020b6ccd5e36b4da17d5b")
!56 = !{!57}
!57 = !DIDerivedType(tag: DW_TAG_member, name: "inner", scope: !55, file: !10, baseType: !58, size: 64, align: 64, flags: DIFlagPrivate)
!58 = !DICompositeType(tag: DW_TAG_structure_type, name: "Arc<parking::Inner, alloc::alloc::Global>", scope: !59, file: !10, size: 64, align: 64, flags: DIFlagPublic, elements: !61, templateParams: !150, identifier: "f2d46d41b9758d25450ea7070e7e54d0")
!59 = !DINamespace(name: "sync", scope: !60)
!60 = !DINamespace(name: "alloc", scope: null)
!61 = !{!62, !144, !147}
!62 = !DIDerivedType(tag: DW_TAG_member, name: "ptr", scope: !58, file: !10, baseType: !63, size: 64, align: 64, flags: DIFlagPrivate)
!63 = !DICompositeType(tag: DW_TAG_structure_type, name: "NonNull<alloc::sync::ArcInner<parking::Inner>>", scope: !64, file: !10, size: 64, align: 64, flags: DIFlagPublic, elements: !66, templateParams: !142, identifier: "825cebb2feb53bbe75ce00c352a7557b")
!64 = !DINamespace(name: "non_null", scope: !65)
!65 = !DINamespace(name: "ptr", scope: !20)
!66 = !{!67}
!67 = !DIDerivedType(tag: DW_TAG_member, name: "pointer", scope: !63, file: !10, baseType: !68, size: 64, align: 64, flags: DIFlagPrivate)
!68 = !DIDerivedType(tag: DW_TAG_pointer_type, name: "*const alloc::sync::ArcInner<parking::Inner>", baseType: !69, size: 64, align: 64, dwarfAddressSpace: 0)
!69 = !DICompositeType(tag: DW_TAG_structure_type, name: "ArcInner<parking::Inner>", scope: !59, file: !10, size: 320, align: 64, flags: DIFlagPrivate, elements: !70, templateParams: !140, identifier: "5b53f9341214387fb6b74fadd363563e")
!70 = !{!71, !83, !84}
!71 = !DIDerivedType(tag: DW_TAG_member, name: "strong", scope: !69, file: !10, baseType: !72, size: 64, align: 64, flags: DIFlagPrivate)
!72 = !DICompositeType(tag: DW_TAG_structure_type, name: "AtomicUsize", scope: !73, file: !10, size: 64, align: 64, flags: DIFlagPublic, elements: !75, templateParams: !29, identifier: "5e2d2bd30b2255a1bb7bbacbfa3cfa79")
!73 = !DINamespace(name: "atomic", scope: !74)
!74 = !DINamespace(name: "sync", scope: !20)
!75 = !{!76}
!76 = !DIDerivedType(tag: DW_TAG_member, name: "v", scope: !72, file: !10, baseType: !77, size: 64, align: 64, flags: DIFlagPrivate)
!77 = !DICompositeType(tag: DW_TAG_structure_type, name: "UnsafeCell<usize>", scope: !19, file: !10, size: 64, align: 64, flags: DIFlagPublic, elements: !78, templateParams: !81, identifier: "739795389d327d6873469e3d89b8c60e")
!78 = !{!79}
!79 = !DIDerivedType(tag: DW_TAG_member, name: "value", scope: !77, file: !10, baseType: !80, size: 64, align: 64, flags: DIFlagPrivate)
!80 = !DIBasicType(name: "usize", size: 64, encoding: DW_ATE_unsigned)
!81 = !{!82}
!82 = !DITemplateTypeParameter(name: "T", type: !80)
!83 = !DIDerivedType(tag: DW_TAG_member, name: "weak", scope: !69, file: !10, baseType: !72, size: 64, align: 64, offset: 64, flags: DIFlagPrivate)
!84 = !DIDerivedType(tag: DW_TAG_member, name: "data", scope: !69, file: !10, baseType: !85, size: 192, align: 64, offset: 128, flags: DIFlagPrivate)
!85 = !DICompositeType(tag: DW_TAG_structure_type, name: "Inner", scope: !52, file: !10, size: 192, align: 64, flags: DIFlagPrivate, elements: !86, templateParams: !29, identifier: "5f39869ee684c5037dd93dab50c67fdb")
!86 = !{!87, !88, !130}
!87 = !DIDerivedType(tag: DW_TAG_member, name: "state", scope: !85, file: !10, baseType: !72, size: 64, align: 64, flags: DIFlagPrivate)
!88 = !DIDerivedType(tag: DW_TAG_member, name: "lock", scope: !85, file: !10, baseType: !89, size: 64, align: 32, offset: 64, flags: DIFlagPrivate)
!89 = !DICompositeType(tag: DW_TAG_structure_type, name: "Mutex<()>", scope: !90, file: !10, size: 64, align: 32, flags: DIFlagPublic, elements: !92, templateParams: !128, identifier: "d5fd249575a8d955fed7c24d847ce0e7")
!90 = !DINamespace(name: "mutex", scope: !91)
!91 = !DINamespace(name: "sync", scope: !15)
!92 = !{!93, !109, !123}
!93 = !DIDerivedType(tag: DW_TAG_member, name: "inner", scope: !89, file: !10, baseType: !94, size: 32, align: 32, flags: DIFlagPrivate)
!94 = !DICompositeType(tag: DW_TAG_structure_type, name: "Mutex", scope: !95, file: !10, size: 32, align: 32, flags: DIFlagPublic, elements: !98, templateParams: !29, identifier: "d3cc6cb8dfa2f1c5acff260507e3a423")
!95 = !DINamespace(name: "futex", scope: !96)
!96 = !DINamespace(name: "mutex", scope: !97)
!97 = !DINamespace(name: "sync", scope: !14)
!98 = !{!99}
!99 = !DIDerivedType(tag: DW_TAG_member, name: "futex", scope: !94, file: !10, baseType: !100, size: 32, align: 32, flags: DIFlagPrivate)
!100 = !DICompositeType(tag: DW_TAG_structure_type, name: "AtomicU32", scope: !73, file: !10, size: 32, align: 32, flags: DIFlagPublic, elements: !101, templateParams: !29, identifier: "ee8380a54dbd8a3323fad416b629cb4c")
!101 = !{!102}
!102 = !DIDerivedType(tag: DW_TAG_member, name: "v", scope: !100, file: !10, baseType: !103, size: 32, align: 32, flags: DIFlagPrivate)
!103 = !DICompositeType(tag: DW_TAG_structure_type, name: "UnsafeCell<u32>", scope: !19, file: !10, size: 32, align: 32, flags: DIFlagPublic, elements: !104, templateParams: !107, identifier: "96b01ddd9a02ff76f2ea3ae35bb7e982")
!104 = !{!105}
!105 = !DIDerivedType(tag: DW_TAG_member, name: "value", scope: !103, file: !10, baseType: !106, size: 32, align: 32, flags: DIFlagPrivate)
!106 = !DIBasicType(name: "u32", size: 32, encoding: DW_ATE_unsigned)
!107 = !{!108}
!108 = !DITemplateTypeParameter(name: "T", type: !106)
!109 = !DIDerivedType(tag: DW_TAG_member, name: "poison", scope: !89, file: !10, baseType: !110, size: 8, align: 8, offset: 32, flags: DIFlagPrivate)
!110 = !DICompositeType(tag: DW_TAG_structure_type, name: "Flag", scope: !111, file: !10, size: 8, align: 8, flags: DIFlagPublic, elements: !112, templateParams: !29, identifier: "f02169750979dbd37c1ab4c868f04f71")
!111 = !DINamespace(name: "poison", scope: !91)
!112 = !{!113}
!113 = !DIDerivedType(tag: DW_TAG_member, name: "failed", scope: !110, file: !10, baseType: !114, size: 8, align: 8, flags: DIFlagPrivate)
!114 = !DICompositeType(tag: DW_TAG_structure_type, name: "AtomicBool", scope: !73, file: !10, size: 8, align: 8, flags: DIFlagPublic, elements: !115, templateParams: !29, identifier: "e355366fff81569ecf8136dc5af7d4f7")
!115 = !{!116}
!116 = !DIDerivedType(tag: DW_TAG_member, name: "v", scope: !114, file: !10, baseType: !117, size: 8, align: 8, flags: DIFlagPrivate)
!117 = !DICompositeType(tag: DW_TAG_structure_type, name: "UnsafeCell<u8>", scope: !19, file: !10, size: 8, align: 8, flags: DIFlagPublic, elements: !118, templateParams: !121, identifier: "3d60124e2ea80f49fea4c31f0e521ce7")
!118 = !{!119}
!119 = !DIDerivedType(tag: DW_TAG_member, name: "value", scope: !117, file: !10, baseType: !120, size: 8, align: 8, flags: DIFlagPrivate)
!120 = !DIBasicType(name: "u8", size: 8, encoding: DW_ATE_unsigned)
!121 = !{!122}
!122 = !DITemplateTypeParameter(name: "T", type: !120)
!123 = !DIDerivedType(tag: DW_TAG_member, name: "data", scope: !89, file: !10, baseType: !124, align: 8, offset: 40, flags: DIFlagPrivate)
!124 = !DICompositeType(tag: DW_TAG_structure_type, name: "UnsafeCell<()>", scope: !19, file: !10, align: 8, flags: DIFlagPublic, elements: !125, templateParams: !128, identifier: "df2a04390e4e7561d08d0a5a22c77b4a")
!125 = !{!126}
!126 = !DIDerivedType(tag: DW_TAG_member, name: "value", scope: !124, file: !10, baseType: !127, align: 8, flags: DIFlagPrivate)
!127 = !DIBasicType(name: "()", encoding: DW_ATE_unsigned)
!128 = !{!129}
!129 = !DITemplateTypeParameter(name: "T", type: !127)
!130 = !DIDerivedType(tag: DW_TAG_member, name: "cvar", scope: !85, file: !10, baseType: !131, size: 32, align: 32, offset: 128, flags: DIFlagPrivate)
!131 = !DICompositeType(tag: DW_TAG_structure_type, name: "Condvar", scope: !132, file: !10, size: 32, align: 32, flags: DIFlagPublic, elements: !133, templateParams: !29, identifier: "4ac5dba46f41aa1312825ffdc090ba3d")
!132 = !DINamespace(name: "condvar", scope: !91)
!133 = !{!134}
!134 = !DIDerivedType(tag: DW_TAG_member, name: "inner", scope: !131, file: !10, baseType: !135, size: 32, align: 32, flags: DIFlagPrivate)
!135 = !DICompositeType(tag: DW_TAG_structure_type, name: "Condvar", scope: !136, file: !10, size: 32, align: 32, flags: DIFlagPublic, elements: !138, templateParams: !29, identifier: "85e7f52dd80c402ab0edc07952b121af")
!136 = !DINamespace(name: "futex", scope: !137)
!137 = !DINamespace(name: "condvar", scope: !97)
!138 = !{!139}
!139 = !DIDerivedType(tag: DW_TAG_member, name: "futex", scope: !135, file: !10, baseType: !100, size: 32, align: 32, flags: DIFlagPrivate)
!140 = !{!141}
!141 = !DITemplateTypeParameter(name: "T", type: !85)
!142 = !{!143}
!143 = !DITemplateTypeParameter(name: "T", type: !69)
!144 = !DIDerivedType(tag: DW_TAG_member, name: "phantom", scope: !58, file: !10, baseType: !145, align: 8, offset: 64, flags: DIFlagPrivate)
!145 = !DICompositeType(tag: DW_TAG_structure_type, name: "PhantomData<alloc::sync::ArcInner<parking::Inner>>", scope: !146, file: !10, align: 8, flags: DIFlagPublic, elements: !29, templateParams: !142, identifier: "48ffbd424065b89079830852149b4cfc")
!146 = !DINamespace(name: "marker", scope: !20)
!147 = !DIDerivedType(tag: DW_TAG_member, name: "alloc", scope: !58, file: !10, baseType: !148, align: 8, offset: 64, flags: DIFlagPrivate)
!148 = !DICompositeType(tag: DW_TAG_structure_type, name: "Global", scope: !149, file: !10, align: 8, flags: DIFlagPublic, elements: !29, identifier: "14de19725ec4b1fd38fae074afd4da08")
!149 = !DINamespace(name: "alloc", scope: !60)
!150 = !{!141, !151}
!151 = !DITemplateTypeParameter(name: "A", type: !148)
!152 = !DIDerivedType(tag: DW_TAG_member, name: "_marker", scope: !51, file: !10, baseType: !153, align: 8, offset: 64, flags: DIFlagPrivate)
!153 = !DICompositeType(tag: DW_TAG_structure_type, name: "PhantomData<core::cell::Cell<()>>", scope: !146, file: !10, align: 8, flags: DIFlagPublic, elements: !29, templateParams: !154, identifier: "83aff4402c54c54956628c6a359f3a70")
!154 = !{!155}
!155 = !DITemplateTypeParameter(name: "T", type: !156)
!156 = !DICompositeType(tag: DW_TAG_structure_type, name: "Cell<()>", scope: !19, file: !10, align: 8, flags: DIFlagPublic, elements: !157, templateParams: !128, identifier: "99152f47ca36bb11fcaaf2b6a04a429e")
!157 = !{!158}
!158 = !DIDerivedType(tag: DW_TAG_member, name: "value", scope: !156, file: !10, baseType: !124, align: 8, flags: DIFlagPrivate)
!159 = !DIDerivedType(tag: DW_TAG_member, name: "__1", scope: !48, file: !10, baseType: !160, size: 128, align: 64, offset: 64)
!160 = !DICompositeType(tag: DW_TAG_structure_type, name: "Waker", scope: !161, file: !10, size: 128, align: 64, flags: DIFlagPublic, elements: !163, templateParams: !29, identifier: "ec03eb30528f12f1717f729e65eac0d1")
!161 = !DINamespace(name: "wake", scope: !162)
!162 = !DINamespace(name: "task", scope: !20)
!163 = !{!164}
!164 = !DIDerivedType(tag: DW_TAG_member, name: "waker", scope: !160, file: !10, baseType: !165, size: 128, align: 64, flags: DIFlagPrivate)
!165 = !DICompositeType(tag: DW_TAG_structure_type, name: "RawWaker", scope: !161, file: !10, size: 128, align: 64, flags: DIFlagPublic, elements: !166, templateParams: !29, identifier: "212c6d54ee18011b525ba8a27d92578c")
!166 = !{!167, !169}
!167 = !DIDerivedType(tag: DW_TAG_member, name: "data", scope: !165, file: !10, baseType: !168, size: 64, align: 64, offset: 64, flags: DIFlagPrivate)
!168 = !DIDerivedType(tag: DW_TAG_pointer_type, name: "*const ()", baseType: !127, size: 64, align: 64, dwarfAddressSpace: 0)
!169 = !DIDerivedType(tag: DW_TAG_member, name: "vtable", scope: !165, file: !10, baseType: !170, size: 64, align: 64, flags: DIFlagPrivate)
!170 = !DIDerivedType(tag: DW_TAG_pointer_type, name: "&core::task::wake::RawWakerVTable", baseType: !171, size: 64, align: 64, dwarfAddressSpace: 0)
!171 = !DICompositeType(tag: DW_TAG_structure_type, name: "RawWakerVTable", scope: !161, file: !10, size: 256, align: 64, flags: DIFlagPublic, elements: !172, templateParams: !29, identifier: "f4abbf7758eb3384651691936bf57e5b")
!172 = !{!173, !177, !181, !182}
!173 = !DIDerivedType(tag: DW_TAG_member, name: "clone", scope: !171, file: !10, baseType: !174, size: 64, align: 64, flags: DIFlagPrivate)
!174 = !DIDerivedType(tag: DW_TAG_pointer_type, name: "unsafe fn(*const ()) -> core::task::wake::RawWaker", baseType: !175, size: 64, align: 64, dwarfAddressSpace: 0)
!175 = !DISubroutineType(types: !176)
!176 = !{!165, !168}
!177 = !DIDerivedType(tag: DW_TAG_member, name: "wake", scope: !171, file: !10, baseType: !178, size: 64, align: 64, offset: 64, flags: DIFlagPrivate)
!178 = !DIDerivedType(tag: DW_TAG_pointer_type, name: "unsafe fn(*const ())", baseType: !179, size: 64, align: 64, dwarfAddressSpace: 0)
!179 = !DISubroutineType(types: !180)
!180 = !{null, !168}
!181 = !DIDerivedType(tag: DW_TAG_member, name: "wake_by_ref", scope: !171, file: !10, baseType: !178, size: 64, align: 64, offset: 128, flags: DIFlagPrivate)
!182 = !DIDerivedType(tag: DW_TAG_member, name: "drop", scope: !171, file: !10, baseType: !178, size: 64, align: 64, offset: 192, flags: DIFlagPrivate)
!183 = !{!184}
!184 = !DITemplateTypeParameter(name: "T", type: !48)
!185 = !DITemplateTypeParameter(name: "D", type: !127)
!186 = !DIDerivedType(tag: DW_TAG_member, name: "Alive", scope: !25, file: !10, baseType: !187, size: 320, align: 64, extraData: i128 1)
!187 = !DICompositeType(tag: DW_TAG_structure_type, name: "Alive", scope: !23, file: !10, size: 320, align: 64, flags: DIFlagPrivate, elements: !188, templateParams: !30, identifier: "49bd31c7e5a45558b68988e823de4c1c")
!188 = !{!189}
!189 = !DIDerivedType(tag: DW_TAG_member, name: "__0", scope: !187, file: !10, baseType: !32, size: 256, align: 64, offset: 64, flags: DIFlagPrivate)
!190 = !DIDerivedType(tag: DW_TAG_member, name: "Destroyed", scope: !25, file: !10, baseType: !191, size: 320, align: 64, extraData: i128 2)
!191 = !DICompositeType(tag: DW_TAG_structure_type, name: "Destroyed", scope: !23, file: !10, size: 320, align: 64, flags: DIFlagPrivate, elements: !192, templateParams: !30, identifier: "491d788161a6ce2df0df87230903e60d")
!192 = !{!193}
!193 = !DIDerivedType(tag: DW_TAG_member, name: "__0", scope: !191, file: !10, baseType: !127, align: 8, offset: 64, flags: DIFlagPrivate)
!194 = !DIDerivedType(tag: DW_TAG_member, scope: !23, file: !10, baseType: !195, size: 64, align: 64, flags: DIFlagArtificial)
!195 = !DIBasicType(name: "u64", size: 64, encoding: DW_ATE_unsigned)
!196 = !{!197}
!197 = !DITemplateTypeParameter(name: "T", type: !23)
!198 = !{i32 8, !"PIC Level", i32 2}
!199 = !{i32 2, !"RtLibUseGOT", i32 1}
!200 = !{i32 2, !"Dwarf Version", i32 4}
!201 = !{i32 2, !"Debug Info Version", i32 3}
!202 = !{!"rustc version 1.80.0-dev"}
!203 = distinct !DICompileUnit(language: DW_LANG_Rust, file: !204, producer: "clang LLVM (rustc version 1.80.0-dev)", isOptimized: true, runtimeVersion: 0, emissionKind: FullDebug, enums: !205, globals: !351, splitDebugInlining: false, nameTableKind: None)
!204 = !DIFile(filename: "/home/arsalan/.cargo/registry/src/index.crates.io-1949cf8c6b5b557f/futures-lite-2.1.0/src/lib.rs/@/futures_lite.e1f26f54f57b4b7d-cgu.0", directory: "/home/arsalan/.cargo/registry/src/index.crates.io-1949cf8c6b5b557f/futures-lite-2.1.0")
!205 = !{!206, !214, !259, !264, !331, !338, !344}
!206 = !DICompositeType(tag: DW_TAG_enumeration_type, name: "Alignment", scope: !207, file: !10, baseType: !120, size: 8, align: 8, flags: DIFlagEnumClass, elements: !209)
!207 = !DINamespace(name: "rt", scope: !208)
!208 = !DINamespace(name: "fmt", scope: !20)
!209 = !{!210, !211, !212, !213}
!210 = !DIEnumerator(name: "Left", value: 0, isUnsigned: true)
!211 = !DIEnumerator(name: "Right", value: 1, isUnsigned: true)
!212 = !DIEnumerator(name: "Center", value: 2, isUnsigned: true)
!213 = !DIEnumerator(name: "Unknown", value: 3, isUnsigned: true)
!214 = !DICompositeType(tag: DW_TAG_enumeration_type, name: "ErrorKind", scope: !215, file: !10, baseType: !120, size: 8, align: 8, flags: DIFlagEnumClass, elements: !217)
!215 = !DINamespace(name: "error", scope: !216)
!216 = !DINamespace(name: "io", scope: !15)
!217 = !{!218, !219, !220, !221, !222, !223, !224, !225, !226, !227, !228, !229, !230, !231, !232, !233, !234, !235, !236, !237, !238, !239, !240, !241, !242, !243, !244, !245, !246, !247, !248, !249, !250, !251, !252, !253, !254, !255, !256, !257, !258}
!218 = !DIEnumerator(name: "NotFound", value: 0, isUnsigned: true)
!219 = !DIEnumerator(name: "PermissionDenied", value: 1, isUnsigned: true)
!220 = !DIEnumerator(name: "ConnectionRefused", value: 2, isUnsigned: true)
!221 = !DIEnumerator(name: "ConnectionReset", value: 3, isUnsigned: true)
!222 = !DIEnumerator(name: "HostUnreachable", value: 4, isUnsigned: true)
!223 = !DIEnumerator(name: "NetworkUnreachable", value: 5, isUnsigned: true)
!224 = !DIEnumerator(name: "ConnectionAborted", value: 6, isUnsigned: true)
!225 = !DIEnumerator(name: "NotConnected", value: 7, isUnsigned: true)
!226 = !DIEnumerator(name: "AddrInUse", value: 8, isUnsigned: true)
!227 = !DIEnumerator(name: "AddrNotAvailable", value: 9, isUnsigned: true)
!228 = !DIEnumerator(name: "NetworkDown", value: 10, isUnsigned: true)
!229 = !DIEnumerator(name: "BrokenPipe", value: 11, isUnsigned: true)
!230 = !DIEnumerator(name: "AlreadyExists", value: 12, isUnsigned: true)
!231 = !DIEnumerator(name: "WouldBlock", value: 13, isUnsigned: true)
!232 = !DIEnumerator(name: "NotADirectory", value: 14, isUnsigned: true)
!233 = !DIEnumerator(name: "IsADirectory", value: 15, isUnsigned: true)
!234 = !DIEnumerator(name: "DirectoryNotEmpty", value: 16, isUnsigned: true)
!235 = !DIEnumerator(name: "ReadOnlyFilesystem", value: 17, isUnsigned: true)
!236 = !DIEnumerator(name: "FilesystemLoop", value: 18, isUnsigned: true)
!237 = !DIEnumerator(name: "StaleNetworkFileHandle", value: 19, isUnsigned: true)
!238 = !DIEnumerator(name: "InvalidInput", value: 20, isUnsigned: true)
!239 = !DIEnumerator(name: "InvalidData", value: 21, isUnsigned: true)
!240 = !DIEnumerator(name: "TimedOut", value: 22, isUnsigned: true)
!241 = !DIEnumerator(name: "WriteZero", value: 23, isUnsigned: true)
!242 = !DIEnumerator(name: "StorageFull", value: 24, isUnsigned: true)
!243 = !DIEnumerator(name: "NotSeekable", value: 25, isUnsigned: true)
!244 = !DIEnumerator(name: "FilesystemQuotaExceeded", value: 26, isUnsigned: true)
!245 = !DIEnumerator(name: "FileTooLarge", value: 27, isUnsigned: true)
!246 = !DIEnumerator(name: "ResourceBusy", value: 28, isUnsigned: true)
!247 = !DIEnumerator(name: "ExecutableFileBusy", value: 29, isUnsigned: true)
!248 = !DIEnumerator(name: "Deadlock", value: 30, isUnsigned: true)
!249 = !DIEnumerator(name: "CrossesDevices", value: 31, isUnsigned: true)
!250 = !DIEnumerator(name: "TooManyLinks", value: 32, isUnsigned: true)
!251 = !DIEnumerator(name: "InvalidFilename", value: 33, isUnsigned: true)
!252 = !DIEnumerator(name: "ArgumentListTooLong", value: 34, isUnsigned: true)
!253 = !DIEnumerator(name: "Interrupted", value: 35, isUnsigned: true)
!254 = !DIEnumerator(name: "Unsupported", value: 36, isUnsigned: true)
!255 = !DIEnumerator(name: "UnexpectedEof", value: 37, isUnsigned: true)
!256 = !DIEnumerator(name: "OutOfMemory", value: 38, isUnsigned: true)
!257 = !DIEnumerator(name: "Other", value: 39, isUnsigned: true)
!258 = !DIEnumerator(name: "Uncategorized", value: 40, isUnsigned: true)
!259 = !DICompositeType(tag: DW_TAG_enumeration_type, name: "c_void", scope: !260, file: !10, baseType: !120, size: 8, align: 8, flags: DIFlagEnumClass, elements: !261)
!260 = !DINamespace(name: "ffi", scope: !20)
!261 = !{!262, !263}
!262 = !DIEnumerator(name: "__variant1", value: 0, isUnsigned: true)
!263 = !DIEnumerator(name: "__variant2", value: 1, isUnsigned: true)
!264 = !DICompositeType(tag: DW_TAG_enumeration_type, name: "AlignmentEnum", scope: !265, file: !10, baseType: !195, size: 64, align: 64, flags: DIFlagEnumClass, elements: !266)
!265 = !DINamespace(name: "alignment", scope: !65)
!266 = !{!267, !268, !269, !270, !271, !272, !273, !274, !275, !276, !277, !278, !279, !280, !281, !282, !283, !284, !285, !286, !287, !288, !289, !290, !291, !292, !293, !294, !295, !296, !297, !298, !299, !300, !301, !302, !303, !304, !305, !306, !307, !308, !309, !310, !311, !312, !313, !314, !315, !316, !317, !318, !319, !320, !321, !322, !323, !324, !325, !326, !327, !328, !329, !330}
!267 = !DIEnumerator(name: "_Align1Shl0", value: 1, isUnsigned: true)
!268 = !DIEnumerator(name: "_Align1Shl1", value: 2, isUnsigned: true)
!269 = !DIEnumerator(name: "_Align1Shl2", value: 4, isUnsigned: true)
!270 = !DIEnumerator(name: "_Align1Shl3", value: 8, isUnsigned: true)
!271 = !DIEnumerator(name: "_Align1Shl4", value: 16, isUnsigned: true)
!272 = !DIEnumerator(name: "_Align1Shl5", value: 32, isUnsigned: true)
!273 = !DIEnumerator(name: "_Align1Shl6", value: 64, isUnsigned: true)
!274 = !DIEnumerator(name: "_Align1Shl7", value: 128, isUnsigned: true)
!275 = !DIEnumerator(name: "_Align1Shl8", value: 256, isUnsigned: true)
!276 = !DIEnumerator(name: "_Align1Shl9", value: 512, isUnsigned: true)
!277 = !DIEnumerator(name: "_Align1Shl10", value: 1024, isUnsigned: true)
!278 = !DIEnumerator(name: "_Align1Shl11", value: 2048, isUnsigned: true)
!279 = !DIEnumerator(name: "_Align1Shl12", value: 4096, isUnsigned: true)
!280 = !DIEnumerator(name: "_Align1Shl13", value: 8192, isUnsigned: true)
!281 = !DIEnumerator(name: "_Align1Shl14", value: 16384, isUnsigned: true)
!282 = !DIEnumerator(name: "_Align1Shl15", value: 32768, isUnsigned: true)
!283 = !DIEnumerator(name: "_Align1Shl16", value: 65536, isUnsigned: true)
!284 = !DIEnumerator(name: "_Align1Shl17", value: 131072, isUnsigned: true)
!285 = !DIEnumerator(name: "_Align1Shl18", value: 262144, isUnsigned: true)
!286 = !DIEnumerator(name: "_Align1Shl19", value: 524288, isUnsigned: true)
!287 = !DIEnumerator(name: "_Align1Shl20", value: 1048576, isUnsigned: true)
!288 = !DIEnumerator(name: "_Align1Shl21", value: 2097152, isUnsigned: true)
!289 = !DIEnumerator(name: "_Align1Shl22", value: 4194304, isUnsigned: true)
!290 = !DIEnumerator(name: "_Align1Shl23", value: 8388608, isUnsigned: true)
!291 = !DIEnumerator(name: "_Align1Shl24", value: 16777216, isUnsigned: true)
!292 = !DIEnumerator(name: "_Align1Shl25", value: 33554432, isUnsigned: true)
!293 = !DIEnumerator(name: "_Align1Shl26", value: 67108864, isUnsigned: true)
!294 = !DIEnumerator(name: "_Align1Shl27", value: 134217728, isUnsigned: true)
!295 = !DIEnumerator(name: "_Align1Shl28", value: 268435456, isUnsigned: true)
!296 = !DIEnumerator(name: "_Align1Shl29", value: 536870912, isUnsigned: true)
!297 = !DIEnumerator(name: "_Align1Shl30", value: 1073741824, isUnsigned: true)
!298 = !DIEnumerator(name: "_Align1Shl31", value: 2147483648, isUnsigned: true)
!299 = !DIEnumerator(name: "_Align1Shl32", value: 4294967296, isUnsigned: true)
!300 = !DIEnumerator(name: "_Align1Shl33", value: 8589934592, isUnsigned: true)
!301 = !DIEnumerator(name: "_Align1Shl34", value: 17179869184, isUnsigned: true)
!302 = !DIEnumerator(name: "_Align1Shl35", value: 34359738368, isUnsigned: true)
!303 = !DIEnumerator(name: "_Align1Shl36", value: 68719476736, isUnsigned: true)
!304 = !DIEnumerator(name: "_Align1Shl37", value: 137438953472, isUnsigned: true)
!305 = !DIEnumerator(name: "_Align1Shl38", value: 274877906944, isUnsigned: true)
!306 = !DIEnumerator(name: "_Align1Shl39", value: 549755813888, isUnsigned: true)
!307 = !DIEnumerator(name: "_Align1Shl40", value: 1099511627776, isUnsigned: true)
!308 = !DIEnumerator(name: "_Align1Shl41", value: 2199023255552, isUnsigned: true)
!309 = !DIEnumerator(name: "_Align1Shl42", value: 4398046511104, isUnsigned: true)
!310 = !DIEnumerator(name: "_Align1Shl43", value: 8796093022208, isUnsigned: true)
!311 = !DIEnumerator(name: "_Align1Shl44", value: 17592186044416, isUnsigned: true)
!312 = !DIEnumerator(name: "_Align1Shl45", value: 35184372088832, isUnsigned: true)
!313 = !DIEnumerator(name: "_Align1Shl46", value: 70368744177664, isUnsigned: true)
!314 = !DIEnumerator(name: "_Align1Shl47", value: 140737488355328, isUnsigned: true)
!315 = !DIEnumerator(name: "_Align1Shl48", value: 281474976710656, isUnsigned: true)
!316 = !DIEnumerator(name: "_Align1Shl49", value: 562949953421312, isUnsigned: true)
!317 = !DIEnumerator(name: "_Align1Shl50", value: 1125899906842624, isUnsigned: true)
!318 = !DIEnumerator(name: "_Align1Shl51", value: 2251799813685248, isUnsigned: true)
!319 = !DIEnumerator(name: "_Align1Shl52", value: 4503599627370496, isUnsigned: true)
!320 = !DIEnumerator(name: "_Align1Shl53", value: 9007199254740992, isUnsigned: true)
!321 = !DIEnumerator(name: "_Align1Shl54", value: 18014398509481984, isUnsigned: true)
!322 = !DIEnumerator(name: "_Align1Shl55", value: 36028797018963968, isUnsigned: true)
!323 = !DIEnumerator(name: "_Align1Shl56", value: 72057594037927936, isUnsigned: true)
!324 = !DIEnumerator(name: "_Align1Shl57", value: 144115188075855872, isUnsigned: true)
!325 = !DIEnumerator(name: "_Align1Shl58", value: 288230376151711744, isUnsigned: true)
!326 = !DIEnumerator(name: "_Align1Shl59", value: 576460752303423488, isUnsigned: true)
!327 = !DIEnumerator(name: "_Align1Shl60", value: 1152921504606846976, isUnsigned: true)
!328 = !DIEnumerator(name: "_Align1Shl61", value: 2305843009213693952, isUnsigned: true)
!329 = !DIEnumerator(name: "_Align1Shl62", value: 4611686018427387904, isUnsigned: true)
!330 = !DIEnumerator(name: "_Align1Shl63", value: 9223372036854775808, isUnsigned: true)
!331 = !DICompositeType(tag: DW_TAG_enumeration_type, name: "Ordering", scope: !332, file: !10, baseType: !333, size: 8, align: 8, flags: DIFlagEnumClass, elements: !334)
!332 = !DINamespace(name: "cmp", scope: !20)
!333 = !DIBasicType(name: "i8", size: 8, encoding: DW_ATE_signed)
!334 = !{!335, !336, !337}
!335 = !DIEnumerator(name: "Less", value: -1)
!336 = !DIEnumerator(name: "Equal", value: 0)
!337 = !DIEnumerator(name: "Greater", value: 1)
!338 = !DICompositeType(tag: DW_TAG_enumeration_type, name: "AssertKind", scope: !339, file: !10, baseType: !120, size: 8, align: 8, flags: DIFlagEnumClass, elements: !340)
!339 = !DINamespace(name: "panicking", scope: !20)
!340 = !{!341, !342, !343}
!341 = !DIEnumerator(name: "Eq", value: 0, isUnsigned: true)
!342 = !DIEnumerator(name: "Ne", value: 1, isUnsigned: true)
!343 = !DIEnumerator(name: "Match", value: 2, isUnsigned: true)
!344 = !DICompositeType(tag: DW_TAG_enumeration_type, name: "Ordering", scope: !73, file: !10, baseType: !120, size: 8, align: 8, flags: DIFlagEnumClass, elements: !345)
!345 = !{!346, !347, !348, !349, !350}
!346 = !DIEnumerator(name: "Relaxed", value: 0, isUnsigned: true)
!347 = !DIEnumerator(name: "Release", value: 1, isUnsigned: true)
!348 = !DIEnumerator(name: "Acquire", value: 2, isUnsigned: true)
!349 = !DIEnumerator(name: "AcqRel", value: 3, isUnsigned: true)
!350 = !DIEnumerator(name: "SeqCst", value: 4, isUnsigned: true)
!351 = !{!352, !0, !456}
!352 = !DIGlobalVariableExpression(var: !353, expr: !DIExpression())
!353 = distinct !DIGlobalVariable(name: "<std::io::Write::write_fmt::Adapter<std::sys::pal::unix::stdio::Stderr> as core::fmt::Write>::{vtable}", scope: null, file: !10, type: !354, isLocal: true, isDefinition: true)
!354 = !DICompositeType(tag: DW_TAG_structure_type, name: "<std::io::Write::write_fmt::Adapter<std::sys::pal::unix::stdio::Stderr> as core::fmt::Write>::{vtable_type}", file: !10, size: 384, align: 64, flags: DIFlagArtificial, elements: !355, vtableHolder: !362, templateParams: !29, identifier: "3b9dc1cd24e5f6261916f3a71a8e93ed")
!355 = !{!356, !357, !358, !359, !360, !361}
!356 = !DIDerivedType(tag: DW_TAG_member, name: "drop_in_place", scope: !354, file: !10, baseType: !168, size: 64, align: 64)
!357 = !DIDerivedType(tag: DW_TAG_member, name: "size", scope: !354, file: !10, baseType: !80, size: 64, align: 64, offset: 64)
!358 = !DIDerivedType(tag: DW_TAG_member, name: "align", scope: !354, file: !10, baseType: !80, size: 64, align: 64, offset: 128)
!359 = !DIDerivedType(tag: DW_TAG_member, name: "__method3", scope: !354, file: !10, baseType: !168, size: 64, align: 64, offset: 192)
!360 = !DIDerivedType(tag: DW_TAG_member, name: "__method4", scope: !354, file: !10, baseType: !168, size: 64, align: 64, offset: 256)
!361 = !DIDerivedType(tag: DW_TAG_member, name: "__method5", scope: !354, file: !10, baseType: !168, size: 64, align: 64, offset: 320)
!362 = !DICompositeType(tag: DW_TAG_structure_type, name: "Adapter<std::sys::pal::unix::stdio::Stderr>", scope: !363, file: !10, size: 128, align: 64, flags: DIFlagProtected, elements: !365, templateParams: !454, identifier: "5cc60cf3bc5ca3351bc45c96fb2576d0")
!363 = !DINamespace(name: "write_fmt", scope: !364)
!364 = !DINamespace(name: "Write", scope: !216)
!365 = !{!366, !374}
!366 = !DIDerivedType(tag: DW_TAG_member, name: "inner", scope: !362, file: !10, baseType: !367, size: 64, align: 64, flags: DIFlagProtected)
!367 = !DIDerivedType(tag: DW_TAG_pointer_type, name: "&mut std::sys::pal::unix::stdio::Stderr", baseType: !368, size: 64, align: 64, dwarfAddressSpace: 0)
!368 = !DICompositeType(tag: DW_TAG_structure_type, name: "Stderr", scope: !369, file: !10, align: 8, flags: DIFlagPublic, elements: !372, templateParams: !29, identifier: "93c379795faa0383c896fabe3f393c")
!369 = !DINamespace(name: "stdio", scope: !370)
!370 = !DINamespace(name: "unix", scope: !371)
!371 = !DINamespace(name: "pal", scope: !14)
!372 = !{!373}
!373 = !DIDerivedType(tag: DW_TAG_member, name: "__0", scope: !368, file: !10, baseType: !127, align: 8, flags: DIFlagPrivate)
!374 = !DIDerivedType(tag: DW_TAG_member, name: "error", scope: !362, file: !10, baseType: !375, size: 64, align: 64, offset: 64, flags: DIFlagProtected)
!375 = !DICompositeType(tag: DW_TAG_structure_type, name: "Result<(), std::io::error::Error>", scope: !376, file: !10, size: 64, align: 64, flags: DIFlagPublic, elements: !377, templateParams: !29, identifier: "f6fab78402c7921c81b48f94ff59f12a")
!376 = !DINamespace(name: "result", scope: !20)
!377 = !{!378}
!378 = !DICompositeType(tag: DW_TAG_variant_part, scope: !375, file: !10, size: 64, align: 64, elements: !379, templateParams: !29, identifier: "f20382f78447208541d43a2eb7c7b177", discriminator: !453)
!379 = !{!380, !449}
!380 = !DIDerivedType(tag: DW_TAG_member, name: "Ok", scope: !378, file: !10, baseType: !381, size: 64, align: 64, extraData: i128 0)
!381 = !DICompositeType(tag: DW_TAG_structure_type, name: "Ok", scope: !375, file: !10, size: 64, align: 64, flags: DIFlagPublic, elements: !382, templateParams: !384, identifier: "7fff08edb161cdb6f65adbe333abb587")
!382 = !{!383}
!383 = !DIDerivedType(tag: DW_TAG_member, name: "__0", scope: !381, file: !10, baseType: !127, align: 8, flags: DIFlagPublic)
!384 = !{!129, !385}
!385 = !DITemplateTypeParameter(name: "E", type: !386)
!386 = !DICompositeType(tag: DW_TAG_structure_type, name: "Error", scope: !215, file: !10, size: 64, align: 64, flags: DIFlagPublic, elements: !387, templateParams: !29, identifier: "9481a9f9dd3a514fccbd1ee45fe835c0")
!387 = !{!388}
!388 = !DIDerivedType(tag: DW_TAG_member, name: "repr", scope: !386, file: !10, baseType: !389, size: 64, align: 64, flags: DIFlagPrivate)
!389 = !DICompositeType(tag: DW_TAG_structure_type, name: "Repr", scope: !390, file: !10, size: 64, align: 64, flags: DIFlagProtected, elements: !391, templateParams: !29, identifier: "d19e764dc7d400364cac938e600e6e8e")
!390 = !DINamespace(name: "repr_bitpacked", scope: !215)
!391 = !{!392, !396}
!392 = !DIDerivedType(tag: DW_TAG_member, name: "__0", scope: !389, file: !10, baseType: !393, size: 64, align: 64, flags: DIFlagPrivate)
!393 = !DICompositeType(tag: DW_TAG_structure_type, name: "NonNull<()>", scope: !64, file: !10, size: 64, align: 64, flags: DIFlagPublic, elements: !394, templateParams: !128, identifier: "219b4814660fc803ec7ad9770695a")
!394 = !{!395}
!395 = !DIDerivedType(tag: DW_TAG_member, name: "pointer", scope: !393, file: !10, baseType: !168, size: 64, align: 64, flags: DIFlagPrivate)
!396 = !DIDerivedType(tag: DW_TAG_member, name: "__1", scope: !389, file: !10, baseType: !397, align: 8, offset: 64, flags: DIFlagPrivate)
!397 = !DICompositeType(tag: DW_TAG_structure_type, name: "PhantomData<std::io::error::ErrorData<alloc::boxed::Box<std::io::error::Custom, alloc::alloc::Global>>>", scope: !146, file: !10, align: 8, flags: DIFlagPublic, elements: !29, templateParams: !398, identifier: "b3a9535088463228dd721e3df15a74b4")
!398 = !{!399}
!399 = !DITemplateTypeParameter(name: "T", type: !400)
!400 = !DICompositeType(tag: DW_TAG_structure_type, name: "ErrorData<alloc::boxed::Box<std::io::error::Custom, alloc::alloc::Global>>", scope: !215, file: !10, size: 128, align: 64, flags: DIFlagPrivate, elements: !401, templateParams: !29, identifier: "2d842b368858db53e5e95cb68f18ba4d")
!401 = !{!402}
!402 = !DICompositeType(tag: DW_TAG_variant_part, scope: !400, file: !10, size: 128, align: 64, elements: !403, templateParams: !29, identifier: "7b170337c204a193ef1904d1caedcc36", discriminator: !448)
!403 = !{!404, !426, !430, !444}
!404 = !DIDerivedType(tag: DW_TAG_member, name: "Os", scope: !402, file: !10, baseType: !405, size: 128, align: 64, extraData: i128 0)
!405 = !DICompositeType(tag: DW_TAG_structure_type, name: "Os", scope: !400, file: !10, size: 128, align: 64, flags: DIFlagPrivate, elements: !406, templateParams: !409, identifier: "ec7ef559ca1c1873dcb949d9353e83c4")
!406 = !{!407}
!407 = !DIDerivedType(tag: DW_TAG_member, name: "__0", scope: !405, file: !10, baseType: !408, size: 32, align: 32, offset: 32, flags: DIFlagPrivate)
!408 = !DIBasicType(name: "i32", size: 32, encoding: DW_ATE_signed)
!409 = !{!410}
!410 = !DITemplateTypeParameter(name: "C", type: !411)
!411 = !DIDerivedType(tag: DW_TAG_pointer_type, name: "alloc::boxed::Box<std::io::error::Custom, alloc::alloc::Global>", baseType: !412, size: 64, align: 64, dwarfAddressSpace: 0)
!412 = !DICompositeType(tag: DW_TAG_structure_type, name: "Custom", scope: !215, file: !10, size: 192, align: 64, flags: DIFlagPrivate, elements: !413, templateParams: !29, identifier: "4a83a1c02e32f7677e925d15cbf9f223")
!413 = !{!414, !415}
!414 = !DIDerivedType(tag: DW_TAG_member, name: "kind", scope: !412, file: !10, baseType: !214, size: 8, align: 8, offset: 128, flags: DIFlagPrivate)
!415 = !DIDerivedType(tag: DW_TAG_member, name: "error", scope: !412, file: !10, baseType: !416, size: 128, align: 64, flags: DIFlagPrivate)
!416 = !DICompositeType(tag: DW_TAG_structure_type, name: "alloc::boxed::Box<(dyn core::error::Error + core::marker::Send + core::marker::Sync), alloc::alloc::Global>", file: !10, size: 128, align: 64, elements: !417, templateParams: !29, identifier: "fc4c978384b58c14d0c3b28c9444e0a6")
!417 = !{!418, !421}
!418 = !DIDerivedType(tag: DW_TAG_member, name: "pointer", scope: !416, file: !10, baseType: !419, size: 64, align: 64)
!419 = !DIDerivedType(tag: DW_TAG_pointer_type, baseType: !420, size: 64, align: 64, dwarfAddressSpace: 0)
!420 = !DICompositeType(tag: DW_TAG_structure_type, name: "(dyn core::error::Error + core::marker::Send + core::marker::Sync)", file: !10, align: 8, elements: !29, identifier: "af492d0fde630cae993a48fd15ada2c5")
!421 = !DIDerivedType(tag: DW_TAG_member, name: "vtable", scope: !416, file: !10, baseType: !422, size: 64, align: 64, offset: 64)
!422 = !DIDerivedType(tag: DW_TAG_pointer_type, name: "&[usize; 10]", baseType: !423, size: 64, align: 64, dwarfAddressSpace: 0)
!423 = !DICompositeType(tag: DW_TAG_array_type, baseType: !80, size: 640, align: 64, elements: !424)
!424 = !{!425}
!425 = !DISubrange(count: 10, lowerBound: 0)
!426 = !DIDerivedType(tag: DW_TAG_member, name: "Simple", scope: !402, file: !10, baseType: !427, size: 128, align: 64, extraData: i128 1)
!427 = !DICompositeType(tag: DW_TAG_structure_type, name: "Simple", scope: !400, file: !10, size: 128, align: 64, flags: DIFlagPrivate, elements: !428, templateParams: !409, identifier: "c722108768e442de944796846599cf6a")
!428 = !{!429}
!429 = !DIDerivedType(tag: DW_TAG_member, name: "__0", scope: !427, file: !10, baseType: !214, size: 8, align: 8, offset: 8, flags: DIFlagPrivate)
!430 = !DIDerivedType(tag: DW_TAG_member, name: "SimpleMessage", scope: !402, file: !10, baseType: !431, size: 128, align: 64, extraData: i128 2)
!431 = !DICompositeType(tag: DW_TAG_structure_type, name: "SimpleMessage", scope: !400, file: !10, size: 128, align: 64, flags: DIFlagPrivate, elements: !432, templateParams: !409, identifier: "a889002bec16644f89535583317530e7")
!432 = !{!433}
!433 = !DIDerivedType(tag: DW_TAG_member, name: "__0", scope: !431, file: !10, baseType: !434, size: 64, align: 64, offset: 64, flags: DIFlagPrivate)
!434 = !DIDerivedType(tag: DW_TAG_pointer_type, name: "&std::io::error::SimpleMessage", baseType: !435, size: 64, align: 64, dwarfAddressSpace: 0)
!435 = !DICompositeType(tag: DW_TAG_structure_type, name: "SimpleMessage", scope: !215, file: !10, size: 192, align: 64, flags: DIFlagProtected, elements: !436, templateParams: !29, identifier: "1cc23320a6f881d629e59649fa6dee8b")
!436 = !{!437, !438}
!437 = !DIDerivedType(tag: DW_TAG_member, name: "kind", scope: !435, file: !10, baseType: !214, size: 8, align: 8, offset: 128, flags: DIFlagPrivate)
!438 = !DIDerivedType(tag: DW_TAG_member, name: "message", scope: !435, file: !10, baseType: !439, size: 128, align: 64, flags: DIFlagPrivate)
!439 = !DICompositeType(tag: DW_TAG_structure_type, name: "&str", file: !10, size: 128, align: 64, elements: !440, templateParams: !29, identifier: "9277eecd40495f85161460476aacc992")
!440 = !{!441, !443}
!441 = !DIDerivedType(tag: DW_TAG_member, name: "data_ptr", scope: !439, file: !10, baseType: !442, size: 64, align: 64)
!442 = !DIDerivedType(tag: DW_TAG_pointer_type, baseType: !120, size: 64, align: 64, dwarfAddressSpace: 0)
!443 = !DIDerivedType(tag: DW_TAG_member, name: "length", scope: !439, file: !10, baseType: !80, size: 64, align: 64, offset: 64)
!444 = !DIDerivedType(tag: DW_TAG_member, name: "Custom", scope: !402, file: !10, baseType: !445, size: 128, align: 64, extraData: i128 3)
!445 = !DICompositeType(tag: DW_TAG_structure_type, name: "Custom", scope: !400, file: !10, size: 128, align: 64, flags: DIFlagPrivate, elements: !446, templateParams: !409, identifier: "6be90b54a330d2fbea2d9f76e0bfb292")
!446 = !{!447}
!447 = !DIDerivedType(tag: DW_TAG_member, name: "__0", scope: !445, file: !10, baseType: !411, size: 64, align: 64, offset: 64, flags: DIFlagPrivate)
!448 = !DIDerivedType(tag: DW_TAG_member, scope: !400, file: !10, baseType: !120, size: 8, align: 8, flags: DIFlagArtificial)
!449 = !DIDerivedType(tag: DW_TAG_member, name: "Err", scope: !378, file: !10, baseType: !450, size: 64, align: 64)
!450 = !DICompositeType(tag: DW_TAG_structure_type, name: "Err", scope: !375, file: !10, size: 64, align: 64, flags: DIFlagPublic, elements: !451, templateParams: !384, identifier: "a184e6321da6a5ec587e5ea90c206f8c")
!451 = !{!452}
!452 = !DIDerivedType(tag: DW_TAG_member, name: "__0", scope: !450, file: !10, baseType: !386, size: 64, align: 64, flags: DIFlagPublic)
!453 = !DIDerivedType(tag: DW_TAG_member, scope: !375, file: !10, baseType: !195, size: 64, align: 64, flags: DIFlagArtificial)
!454 = !{!455}
!455 = !DITemplateTypeParameter(name: "T", type: !368)
!456 = !DIGlobalVariableExpression(var: !457, expr: !DIExpression())
!457 = distinct !DIGlobalVariable(name: "VAL", linkageName: "_ZN12futures_lite6future8block_on5CACHE29_$u7b$$u7b$constant$u7d$$u7d$28_$u7b$$u7b$closure$u7d$$u7d$3VAL17h2777c0684b16fbdfE", scope: !458, file: !8, line: 100, type: !459, isLocal: true, isDefinition: true, align: 64)
!458 = !DINamespace(name: "{closure#1}", scope: !3)
!459 = !DICompositeType(tag: DW_TAG_structure_type, name: "Storage<core::cell::RefCell<(parking::Parker, core::task::wake::Waker)>, !>", scope: !11, file: !10, size: 320, align: 64, flags: DIFlagPublic, elements: !460, templateParams: !471, identifier: "74ff8fb741e7d5d84e61694c885e4c21")
!460 = !{!461}
!461 = !DIDerivedType(tag: DW_TAG_member, name: "state", scope: !459, file: !10, baseType: !462, size: 320, align: 64, flags: DIFlagPrivate)
!462 = !DICompositeType(tag: DW_TAG_structure_type, name: "UnsafeCell<std::sys::thread_local::fast_local::lazy::State<core::cell::RefCell<(parking::Parker, core::task::wake::Waker)>, !>>", scope: !19, file: !10, size: 320, align: 64, flags: DIFlagPublic, elements: !463, templateParams: !483, identifier: "6cfc7d2b83ab168f7d8151b51a4d379c")
!463 = !{!464}
!464 = !DIDerivedType(tag: DW_TAG_member, name: "value", scope: !462, file: !10, baseType: !465, size: 320, align: 64, flags: DIFlagPrivate)
!465 = !DICompositeType(tag: DW_TAG_structure_type, name: "State<core::cell::RefCell<(parking::Parker, core::task::wake::Waker)>, !>", scope: !11, file: !10, size: 320, align: 64, flags: DIFlagPrivate, elements: !466, templateParams: !29, identifier: "d99ba62b0e3f7fae66b076c25498cfc6")
!466 = !{!467}
!467 = !DICompositeType(tag: DW_TAG_variant_part, scope: !465, file: !10, size: 320, align: 64, elements: !468, templateParams: !29, identifier: "fa5a3d12212a2ef59663b8396831110e", discriminator: !482)
!468 = !{!469, !474, !478}
!469 = !DIDerivedType(tag: DW_TAG_member, name: "Initial", scope: !467, file: !10, baseType: !470, size: 320, align: 64, extraData: i128 0)
!470 = !DICompositeType(tag: DW_TAG_structure_type, name: "Initial", scope: !465, file: !10, size: 320, align: 64, flags: DIFlagPrivate, elements: !29, templateParams: !471, identifier: "8c6a65172d7d96778399c35e164e21bd")
!471 = !{!31, !472}
!472 = !DITemplateTypeParameter(name: "D", type: !473)
!473 = !DIBasicType(name: "!", encoding: DW_ATE_unsigned)
!474 = !DIDerivedType(tag: DW_TAG_member, name: "Alive", scope: !467, file: !10, baseType: !475, size: 320, align: 64, extraData: i128 1)
!475 = !DICompositeType(tag: DW_TAG_structure_type, name: "Alive", scope: !465, file: !10, size: 320, align: 64, flags: DIFlagPrivate, elements: !476, templateParams: !471, identifier: "5a222288881ab45716b0c8c2a246001f")
!476 = !{!477}
!477 = !DIDerivedType(tag: DW_TAG_member, name: "__0", scope: !475, file: !10, baseType: !32, size: 256, align: 64, offset: 64, flags: DIFlagPrivate)
!478 = !DIDerivedType(tag: DW_TAG_member, name: "Destroyed", scope: !467, file: !10, baseType: !479, size: 320, align: 64, extraData: i128 2)
!479 = !DICompositeType(tag: DW_TAG_structure_type, name: "Destroyed", scope: !465, file: !10, size: 320, align: 64, flags: DIFlagPrivate, elements: !480, templateParams: !471, identifier: "48d999a7c5f24b195d8af24f6160b786")
!480 = !{!481}
!481 = !DIDerivedType(tag: DW_TAG_member, name: "__0", scope: !479, file: !10, baseType: !473, align: 8, offset: 64, flags: DIFlagPrivate)
!482 = !DIDerivedType(tag: DW_TAG_member, scope: !465, file: !10, baseType: !195, size: 64, align: 64, flags: DIFlagArtificial)
!483 = !{!484}
!484 = !DITemplateTypeParameter(name: "T", type: !465)
!485 = distinct !DISubprogram(name: "drop_slow<parking::Inner, alloc::alloc::Global>", linkageName: "_ZN5alloc4sync16Arc$LT$T$C$A$GT$9drop_slow17hd5961035baad38d3E", scope: !58, file: !486, line: 1835, type: !487, scopeLine: 1835, flags: DIFlagPrototyped, spFlags: DISPFlagLocalToUnit | DISPFlagDefinition | DISPFlagOptimized, unit: !203, templateParams: !150, declaration: !490, retainedNodes: !491)
!486 = !DIFile(filename: "/home/arsalan/Documents/Github/unsafe-rust-benchmark/library/alloc/src/sync.rs", directory: "", checksumkind: CSK_MD5, checksum: "d97152ce06873160e4001a6951abf5fd")
!487 = !DISubroutineType(types: !488)
!488 = !{null, !489}
!489 = !DIDerivedType(tag: DW_TAG_pointer_type, name: "&mut alloc::sync::Arc<parking::Inner, alloc::alloc::Global>", baseType: !58, size: 64, align: 64, dwarfAddressSpace: 0)
!490 = !DISubprogram(name: "drop_slow<parking::Inner, alloc::alloc::Global>", linkageName: "_ZN5alloc4sync16Arc$LT$T$C$A$GT$9drop_slow17hd5961035baad38d3E", scope: !58, file: !486, line: 1835, type: !487, scopeLine: 1835, flags: DIFlagPrototyped, spFlags: DISPFlagLocalToUnit | DISPFlagOptimized, templateParams: !150)
!491 = !{!492}
!492 = !DILocalVariable(name: "self", arg: 1, scope: !485, file: !486, line: 1835, type: !489)
!493 = !DILocation(line: 0, scope: !485)
!494 = !DILocation(line: 1844, column: 26, scope: !485)
!495 = !DILocalVariable(name: "_x", arg: 1, scope: !496, file: !497, line: 938, type: !502)
!496 = distinct !DILexicalBlock(scope: !498, file: !497, line: 938, column: 1)
!497 = !DIFile(filename: "/home/arsalan/Documents/Github/unsafe-rust-benchmark/library/core/src/mem/mod.rs", directory: "", checksumkind: CSK_MD5, checksum: "ab6d66e759286ff434b3e279bd7267d7")
!498 = distinct !DISubprogram(name: "drop<alloc::sync::Weak<parking::Inner, &alloc::alloc::Global>>", linkageName: "_ZN4core3mem4drop17h658d7c3aa6fa890fE", scope: !499, file: !497, line: 938, type: !500, scopeLine: 938, flags: DIFlagPrototyped, spFlags: DISPFlagLocalToUnit | DISPFlagDefinition | DISPFlagOptimized, unit: !203, templateParams: !510, retainedNodes: !509)
!499 = !DINamespace(name: "mem", scope: !20)
!500 = !DISubroutineType(types: !501)
!501 = !{null, !502}
!502 = !DICompositeType(tag: DW_TAG_structure_type, name: "Weak<parking::Inner, &alloc::alloc::Global>", scope: !59, file: !10, size: 128, align: 64, flags: DIFlagPublic, elements: !503, templateParams: !507, identifier: "e0add4c73d3ee3d0373dc98b26dc8090")
!503 = !{!504, !505}
!504 = !DIDerivedType(tag: DW_TAG_member, name: "ptr", scope: !502, file: !10, baseType: !63, size: 64, align: 64, flags: DIFlagPrivate)
!505 = !DIDerivedType(tag: DW_TAG_member, name: "alloc", scope: !502, file: !10, baseType: !506, size: 64, align: 64, offset: 64, flags: DIFlagPrivate)
!506 = !DIDerivedType(tag: DW_TAG_pointer_type, name: "&alloc::alloc::Global", baseType: !148, size: 64, align: 64, dwarfAddressSpace: 0)
!507 = !{!141, !508}
!508 = !DITemplateTypeParameter(name: "A", type: !506)
!509 = !{!495}
!510 = !{!511}
!511 = !DITemplateTypeParameter(name: "T", type: !502)
!512 = !DILocation(line: 0, scope: !496, inlinedAt: !513)
!513 = !DILocation(line: 1844, column: 9, scope: !485)
!514 = !DILocalVariable(arg: 1, scope: !515, file: !516, line: 542, type: !519)
!515 = distinct !DISubprogram(name: "drop_in_place<alloc::sync::Weak<parking::Inner, &alloc::alloc::Global>>", linkageName: "_ZN4core3ptr87drop_in_place$LT$alloc..sync..Weak$LT$parking..Inner$C$$RF$alloc..alloc..Global$GT$$GT$17h3a39a1a2b50fa682E", scope: !65, file: !516, line: 542, type: !517, scopeLine: 542, flags: DIFlagPrototyped, spFlags: DISPFlagLocalToUnit | DISPFlagDefinition | DISPFlagOptimized, unit: !203, templateParams: !510, retainedNodes: !520)
!516 = !DIFile(filename: "/home/arsalan/Documents/Github/unsafe-rust-benchmark/library/core/src/ptr/mod.rs", directory: "", checksumkind: CSK_MD5, checksum: "a85d519116fde26821981e2ebfa0ecba")
!517 = !DISubroutineType(types: !518)
!518 = !{null, !519}
!519 = !DIDerivedType(tag: DW_TAG_pointer_type, name: "*mut alloc::sync::Weak<parking::Inner, &alloc::alloc::Global>", baseType: !502, size: 64, align: 64, dwarfAddressSpace: 0)
!520 = !{!514}
!521 = !DILocation(line: 0, scope: !515, inlinedAt: !522)
!522 = distinct !DILocation(line: 938, column: 24, scope: !496, inlinedAt: !513)
!523 = !DILocalVariable(name: "val", scope: !524, file: !525, line: 2686, type: !80, align: 8)
!524 = distinct !DILexicalBlock(scope: !526, file: !525, line: 2686, column: 13)
!525 = !DIFile(filename: "/home/arsalan/Documents/Github/unsafe-rust-benchmark/library/core/src/sync/atomic.rs", directory: "", checksumkind: CSK_MD5, checksum: "3974e4024eb8e2ba36045270da58dc5a")
!526 = distinct !DISubprogram(name: "fetch_sub", linkageName: "_ZN4core4sync6atomic11AtomicUsize9fetch_sub17h83dbbb1e9ac08f15E", scope: !72, file: !525, line: 2686, type: !527, scopeLine: 2686, flags: DIFlagPrototyped, spFlags: DISPFlagLocalToUnit | DISPFlagDefinition | DISPFlagOptimized, unit: !203, templateParams: !29, declaration: !530, retainedNodes: !531)
!527 = !DISubroutineType(types: !528)
!528 = !{!80, !529, !80, !344}
!529 = !DIDerivedType(tag: DW_TAG_pointer_type, name: "&core::sync::atomic::AtomicUsize", baseType: !72, size: 64, align: 64, dwarfAddressSpace: 0)
!530 = !DISubprogram(name: "fetch_sub", linkageName: "_ZN4core4sync6atomic11AtomicUsize9fetch_sub17h83dbbb1e9ac08f15E", scope: !72, file: !525, line: 2686, type: !527, scopeLine: 2686, flags: DIFlagPrototyped, spFlags: DISPFlagLocalToUnit | DISPFlagOptimized, templateParams: !29)
!531 = !{!532, !523, !533}
!532 = !DILocalVariable(name: "self", arg: 1, scope: !524, file: !525, line: 2686, type: !529)
!533 = !DILocalVariable(name: "order", scope: !524, file: !525, line: 2686, type: !344, align: 1)
!534 = !DILocation(line: 0, scope: !524, inlinedAt: !535)
!535 = distinct !DILocation(line: 3133, column: 23, scope: !536, inlinedAt: !551)
!536 = distinct !DILexicalBlock(scope: !537, file: !486, line: 3131, column: 9)
!537 = distinct !DISubprogram(name: "drop<parking::Inner, &alloc::alloc::Global>", linkageName: "_ZN72_$LT$alloc..sync..Weak$LT$T$C$A$GT$$u20$as$u20$core..ops..drop..Drop$GT$4drop17h3efad2a53f7fbf6aE", scope: !538, file: !486, line: 3122, type: !539, scopeLine: 3122, flags: DIFlagPrototyped, spFlags: DISPFlagLocalToUnit | DISPFlagDefinition | DISPFlagOptimized, unit: !203, templateParams: !507, retainedNodes: !542)
!538 = !DINamespace(name: "{impl#44}", scope: !59)
!539 = !DISubroutineType(types: !540)
!540 = !{null, !541}
!541 = !DIDerivedType(tag: DW_TAG_pointer_type, name: "&mut alloc::sync::Weak<parking::Inner, &alloc::alloc::Global>", baseType: !502, size: 64, align: 64, dwarfAddressSpace: 0)
!542 = !{!543, !544, !544, !549, !549}
!543 = !DILocalVariable(name: "self", arg: 1, scope: !537, file: !486, line: 3122, type: !541)
!544 = !DILocalVariable(name: "inner", scope: !536, file: !486, line: 3131, type: !545, align: 8)
!545 = !DICompositeType(tag: DW_TAG_structure_type, name: "WeakInner", scope: !59, file: !10, size: 128, align: 64, flags: DIFlagPrivate, elements: !546, templateParams: !29, identifier: "4a9660f4a1aa23cea9319ec4a01f0825")
!546 = !{!547, !548}
!547 = !DIDerivedType(tag: DW_TAG_member, name: "weak", scope: !545, file: !10, baseType: !529, size: 64, align: 64, flags: DIFlagPrivate)
!548 = !DIDerivedType(tag: DW_TAG_member, name: "strong", scope: !545, file: !10, baseType: !529, size: 64, align: 64, offset: 64, flags: DIFlagPrivate)
!549 = !DILocalVariable(name: "inner", scope: !550, file: !486, line: 3131, type: !545, align: 8)
!550 = distinct !DILexicalBlock(scope: !537, file: !486, line: 3131, column: 55)
!551 = distinct !DILocation(line: 542, column: 1, scope: !515, inlinedAt: !522)
!552 = !DILocalVariable(name: "val", scope: !553, file: !525, line: 3344, type: !80, align: 8)
!553 = distinct !DILexicalBlock(scope: !554, file: !525, line: 3344, column: 1)
!554 = distinct !DISubprogram(name: "atomic_sub<usize>", linkageName: "_ZN4core4sync6atomic10atomic_sub17h900c7e9c10eab54eE", scope: !73, file: !525, line: 3344, type: !555, scopeLine: 3344, flags: DIFlagPrototyped, spFlags: DISPFlagLocalToUnit | DISPFlagDefinition | DISPFlagOptimized, unit: !203, templateParams: !81, retainedNodes: !558)
!555 = !DISubroutineType(types: !556)
!556 = !{!80, !557, !80, !344}
!557 = !DIDerivedType(tag: DW_TAG_pointer_type, name: "*mut usize", baseType: !80, size: 64, align: 64, dwarfAddressSpace: 0)
!558 = !{!559, !552, !560}
!559 = !DILocalVariable(name: "dst", arg: 1, scope: !553, file: !525, line: 3344, type: !557)
!560 = !DILocalVariable(name: "order", scope: !553, file: !525, line: 3344, type: !344, align: 1)
!561 = !DILocation(line: 0, scope: !553, inlinedAt: !562)
!562 = distinct !DILocation(line: 2688, column: 26, scope: !524, inlinedAt: !535)
!563 = !DILocalVariable(name: "order", scope: !564, file: !525, line: 3637, type: !344, align: 1)
!564 = distinct !DILexicalBlock(scope: !565, file: !525, line: 3637, column: 1)
!565 = distinct !DISubprogram(name: "fence", linkageName: "_ZN4core4sync6atomic5fence17h8c0e8cfbe12bcb90E", scope: !73, file: !525, line: 3637, type: !566, scopeLine: 3637, flags: DIFlagPrototyped, spFlags: DISPFlagLocalToUnit | DISPFlagDefinition | DISPFlagOptimized, unit: !203, templateParams: !29, retainedNodes: !568)
!566 = !DISubroutineType(types: !567)
!567 = !{null, !344}
!568 = !{!563}
!569 = !DILocation(line: 0, scope: !564, inlinedAt: !570)
!570 = distinct !DILocation(line: 64, column: 9, scope: !536, inlinedAt: !551)
!571 = !DILocation(line: 0, scope: !537, inlinedAt: !551)
!572 = !DILocalVariable(name: "self", arg: 1, scope: !573, file: !486, line: 2982, type: !541)
!573 = distinct !DILexicalBlock(scope: !574, file: !486, line: 2982, column: 5)
!574 = distinct !DISubprogram(name: "inner<parking::Inner, &alloc::alloc::Global>", linkageName: "_ZN5alloc4sync17Weak$LT$T$C$A$GT$5inner17hcecb6d4f483c1d81E", scope: !502, file: !486, line: 2982, type: !575, scopeLine: 2982, flags: DIFlagPrototyped, spFlags: DISPFlagLocalToUnit | DISPFlagDefinition | DISPFlagOptimized, unit: !203, templateParams: !507, declaration: !592, retainedNodes: !593)
!575 = !DISubroutineType(types: !576)
!576 = !{!577, !591}
!577 = !DICompositeType(tag: DW_TAG_structure_type, name: "Option<alloc::sync::WeakInner>", scope: !578, file: !10, size: 128, align: 64, flags: DIFlagPublic, elements: !579, templateParams: !29, identifier: "4927641db2496eb57810ca0db381e636")
!578 = !DINamespace(name: "option", scope: !20)
!579 = !{!580}
!580 = !DICompositeType(tag: DW_TAG_variant_part, scope: !577, file: !10, size: 128, align: 64, elements: !581, templateParams: !29, identifier: "33815f7b003ae9cd6e3783bca2c45560", discriminator: !590)
!581 = !{!582, !586}
!582 = !DIDerivedType(tag: DW_TAG_member, name: "None", scope: !580, file: !10, baseType: !583, size: 128, align: 64, extraData: i128 0)
!583 = !DICompositeType(tag: DW_TAG_structure_type, name: "None", scope: !577, file: !10, size: 128, align: 64, flags: DIFlagPublic, elements: !29, templateParams: !584, identifier: "d15b55fb6008d3de154fe3803704c7e2")
!584 = !{!585}
!585 = !DITemplateTypeParameter(name: "T", type: !545)
!586 = !DIDerivedType(tag: DW_TAG_member, name: "Some", scope: !580, file: !10, baseType: !587, size: 128, align: 64)
!587 = !DICompositeType(tag: DW_TAG_structure_type, name: "Some", scope: !577, file: !10, size: 128, align: 64, flags: DIFlagPublic, elements: !588, templateParams: !584, identifier: "54461c7235261262d9db67d02cb645e4")
!588 = !{!589}
!589 = !DIDerivedType(tag: DW_TAG_member, name: "__0", scope: !587, file: !10, baseType: !545, size: 128, align: 64, flags: DIFlagPublic)
!590 = !DIDerivedType(tag: DW_TAG_member, scope: !577, file: !10, baseType: !195, size: 64, align: 64, flags: DIFlagArtificial)
!591 = !DIDerivedType(tag: DW_TAG_pointer_type, name: "&alloc::sync::Weak<parking::Inner, &alloc::alloc::Global>", baseType: !502, size: 64, align: 64, dwarfAddressSpace: 0)
!592 = !DISubprogram(name: "inner<parking::Inner, &alloc::alloc::Global>", linkageName: "_ZN5alloc4sync17Weak$LT$T$C$A$GT$5inner17hcecb6d4f483c1d81E", scope: !502, file: !486, line: 2982, type: !575, scopeLine: 2982, flags: DIFlagPrototyped, spFlags: DISPFlagLocalToUnit | DISPFlagOptimized, templateParams: !507)
!593 = !{!572, !594}
!594 = !DILocalVariable(name: "ptr", scope: !595, file: !486, line: 2983, type: !596, align: 8)
!595 = distinct !DILexicalBlock(scope: !573, file: !486, line: 2983, column: 9)
!596 = !DIDerivedType(tag: DW_TAG_pointer_type, name: "*mut alloc::sync::ArcInner<parking::Inner>", baseType: !69, size: 64, align: 64, dwarfAddressSpace: 0)
!597 = !DILocation(line: 0, scope: !573, inlinedAt: !598)
!598 = distinct !DILocation(line: 3131, column: 47, scope: !550, inlinedAt: !551)
!599 = !DILocalVariable(name: "ptr", arg: 1, scope: !600, file: !601, line: 2913, type: !68)
!600 = distinct !DILexicalBlock(scope: !602, file: !601, line: 2913, column: 1)
!601 = !DIFile(filename: "/home/arsalan/Documents/Github/unsafe-rust-benchmark/library/alloc/src/rc.rs", directory: "", checksumkind: CSK_MD5, checksum: "68e71db250225b207c12fb1a749ea8d0")
!602 = distinct !DISubprogram(name: "is_dangling<alloc::sync::ArcInner<parking::Inner>>", linkageName: "_ZN5alloc2rc11is_dangling17h8930f49b96b22154E", scope: !603, file: !601, line: 2913, type: !604, scopeLine: 2913, flags: DIFlagPrototyped, spFlags: DISPFlagLocalToUnit | DISPFlagDefinition | DISPFlagOptimized, unit: !203, templateParams: !142, retainedNodes: !607)
!603 = !DINamespace(name: "rc", scope: !60)
!604 = !DISubroutineType(types: !605)
!605 = !{!606, !68}
!606 = !DIBasicType(name: "bool", size: 8, encoding: DW_ATE_boolean)
!607 = !{!599}
!608 = !DILocation(line: 0, scope: !600, inlinedAt: !609)
!609 = distinct !DILocation(line: 2984, column: 12, scope: !595, inlinedAt: !598)
!610 = !DILocation(line: 0, scope: !595, inlinedAt: !598)
!611 = !DILocation(line: 2914, column: 5, scope: !600, inlinedAt: !609)
!612 = !DILocation(line: 2984, column: 12, scope: !595, inlinedAt: !598)
!613 = !DILocation(line: 2990, column: 69, scope: !595, inlinedAt: !598)
!614 = !DILocation(line: 0, scope: !536, inlinedAt: !551)
!615 = !DILocation(line: 0, scope: !550, inlinedAt: !551)
!616 = !DILocation(line: 3350, column: 24, scope: !553, inlinedAt: !562)
!617 = !{!618}
!618 = distinct !{!618, !619, !"_ZN72_$LT$alloc..sync..Weak$LT$T$C$A$GT$$u20$as$u20$core..ops..drop..Drop$GT$4drop17h3efad2a53f7fbf6aE: %self"}
!619 = distinct !{!619, !"_ZN72_$LT$alloc..sync..Weak$LT$T$C$A$GT$$u20$as$u20$core..ops..drop..Drop$GT$4drop17h3efad2a53f7fbf6aE"}
!620 = !DILocation(line: 3133, column: 12, scope: !536, inlinedAt: !551)
!621 = !DILocation(line: 3641, column: 24, scope: !564, inlinedAt: !570)
!622 = !DILocalVariable(name: "self", arg: 1, scope: !623, file: !624, line: 390, type: !629)
!623 = distinct !DISubprogram(name: "deallocate<alloc::alloc::Global>", linkageName: "_ZN48_$LT$$RF$A$u20$as$u20$core..alloc..Allocator$GT$10deallocate17hc761f620fc194a05E", scope: !625, file: !624, line: 390, type: !627, scopeLine: 390, flags: DIFlagPrototyped, spFlags: DISPFlagLocalToUnit | DISPFlagDefinition | DISPFlagOptimized, unit: !203, templateParams: !645, retainedNodes: !642)
!624 = !DIFile(filename: "/home/arsalan/Documents/Github/unsafe-rust-benchmark/library/core/src/alloc/mod.rs", directory: "", checksumkind: CSK_MD5, checksum: "b79436d65c64eb88d91494ab352e20fc")
!625 = !DINamespace(name: "{impl#2}", scope: !626)
!626 = !DINamespace(name: "alloc", scope: !20)
!627 = !DISubroutineType(types: !628)
!628 = !{null, !629, !630, !634}
!629 = !DIDerivedType(tag: DW_TAG_pointer_type, name: "&&alloc::alloc::Global", baseType: !506, size: 64, align: 64, dwarfAddressSpace: 0)
!630 = !DICompositeType(tag: DW_TAG_structure_type, name: "NonNull<u8>", scope: !64, file: !10, size: 64, align: 64, flags: DIFlagPublic, elements: !631, templateParams: !121, identifier: "a4acf166b74ef43af1db8d6335ca167e")
!631 = !{!632}
!632 = !DIDerivedType(tag: DW_TAG_member, name: "pointer", scope: !630, file: !10, baseType: !633, size: 64, align: 64, flags: DIFlagPrivate)
!633 = !DIDerivedType(tag: DW_TAG_pointer_type, name: "*const u8", baseType: !120, size: 64, align: 64, dwarfAddressSpace: 0)
!634 = !DICompositeType(tag: DW_TAG_structure_type, name: "Layout", scope: !635, file: !10, size: 128, align: 64, flags: DIFlagPublic, elements: !636, templateParams: !29, identifier: "e53210ff23d6d7b64d0c502d9cf034c2")
!635 = !DINamespace(name: "layout", scope: !626)
!636 = !{!637, !638}
!637 = !DIDerivedType(tag: DW_TAG_member, name: "size", scope: !634, file: !10, baseType: !80, size: 64, align: 64, offset: 64, flags: DIFlagPrivate)
!638 = !DIDerivedType(tag: DW_TAG_member, name: "align", scope: !634, file: !10, baseType: !639, size: 64, align: 64, flags: DIFlagPrivate)
!639 = !DICompositeType(tag: DW_TAG_structure_type, name: "Alignment", scope: !265, file: !10, size: 64, align: 64, flags: DIFlagPublic, elements: !640, templateParams: !29, identifier: "d52b523600ea492069fdcf2d89e5e6af")
!640 = !{!641}
!641 = !DIDerivedType(tag: DW_TAG_member, name: "__0", scope: !639, file: !10, baseType: !264, size: 64, align: 64, flags: DIFlagPrivate)
!642 = !{!622, !643, !644}
!643 = !DILocalVariable(name: "ptr", arg: 2, scope: !623, file: !624, line: 390, type: !630)
!644 = !DILocalVariable(name: "layout", arg: 3, scope: !623, file: !624, line: 390, type: !634)
!645 = !{!151}
!646 = !DILocation(line: 0, scope: !623, inlinedAt: !647)
!647 = distinct !DILocation(line: 3145, column: 17, scope: !536, inlinedAt: !551)
!648 = !DILocalVariable(name: "layout", arg: 3, scope: !649, file: !650, line: 252, type: !634)
!649 = distinct !DISubprogram(name: "deallocate", linkageName: "_ZN63_$LT$alloc..alloc..Global$u20$as$u20$core..alloc..Allocator$GT$10deallocate17h0f2d39528d187dc6E", scope: !651, file: !650, line: 252, type: !652, scopeLine: 252, flags: DIFlagPrototyped, spFlags: DISPFlagLocalToUnit | DISPFlagDefinition | DISPFlagOptimized, unit: !203, templateParams: !29, retainedNodes: !654)
!650 = !DIFile(filename: "/home/arsalan/Documents/Github/unsafe-rust-benchmark/library/alloc/src/alloc.rs", directory: "", checksumkind: CSK_MD5, checksum: "6687e3e140ed9b8c51f77000a3d3a272")
!651 = !DINamespace(name: "{impl#1}", scope: !149)
!652 = !DISubroutineType(types: !653)
!653 = !{null, !506, !630, !634}
!654 = !{!655, !656, !648}
!655 = !DILocalVariable(name: "self", arg: 1, scope: !649, file: !650, line: 252, type: !506)
!656 = !DILocalVariable(name: "ptr", arg: 2, scope: !649, file: !650, line: 252, type: !630)
!657 = !DILocation(line: 0, scope: !649, inlinedAt: !658)
!658 = distinct !DILocation(line: 392, column: 18, scope: !623, inlinedAt: !647)
!659 = !DILocalVariable(name: "ptr", arg: 1, scope: !660, file: !650, line: 118, type: !664)
!660 = distinct !DILexicalBlock(scope: !661, file: !650, line: 118, column: 1)
!661 = distinct !DISubprogram(name: "dealloc", linkageName: "_ZN5alloc5alloc7dealloc17h50c1b4509c737c52E", scope: !149, file: !650, line: 118, type: !662, scopeLine: 118, flags: DIFlagPrototyped, spFlags: DISPFlagLocalToUnit | DISPFlagDefinition | DISPFlagOptimized, unit: !203, templateParams: !29, retainedNodes: !665)
!662 = !DISubroutineType(types: !663)
!663 = !{null, !664, !634}
!664 = !DIDerivedType(tag: DW_TAG_pointer_type, name: "*mut u8", baseType: !120, size: 64, align: 64, dwarfAddressSpace: 0)
!665 = !{!659, !666}
!666 = !DILocalVariable(name: "layout", arg: 2, scope: !660, file: !650, line: 118, type: !634)
!667 = !DILocation(line: 0, scope: !660, inlinedAt: !668)
!668 = distinct !DILocation(line: 256, column: 22, scope: !649, inlinedAt: !658)
!669 = !DILocation(line: 119, column: 14, scope: !660, inlinedAt: !668)
!670 = !DILocation(line: 3133, column: 9, scope: !536, inlinedAt: !551)
!671 = !DILocation(line: 1845, column: 6, scope: !485)
!672 = distinct !DISubprogram(name: "drop_waker<parking::Inner>", linkageName: "_ZN5alloc4task9raw_waker10drop_waker17hc4a7792bfd155c23E", scope: !674, file: !673, line: 169, type: !179, scopeLine: 169, flags: DIFlagPrototyped, spFlags: DISPFlagLocalToUnit | DISPFlagDefinition | DISPFlagOptimized, unit: !203, templateParams: !678, retainedNodes: !676)
!673 = !DIFile(filename: "/home/arsalan/Documents/Github/unsafe-rust-benchmark/library/alloc/src/task.rs", directory: "", checksumkind: CSK_MD5, checksum: "8e9ff2de63c8aadbf862104fc6347c0e")
!674 = !DINamespace(name: "raw_waker", scope: !675)
!675 = !DINamespace(name: "task", scope: !60)
!676 = !{!677}
!677 = !DILocalVariable(name: "waker", arg: 1, scope: !672, file: !673, line: 169, type: !168)
!678 = !{!679}
!679 = !DITemplateTypeParameter(name: "W", type: !85)
!680 = !DILocalVariable(name: "alloc", scope: !681, file: !486, line: 1819, type: !148, align: 1)
!681 = distinct !DILexicalBlock(scope: !682, file: !486, line: 1819, column: 5)
!682 = distinct !DISubprogram(name: "decrement_strong_count_in<parking::Inner, alloc::alloc::Global>", linkageName: "_ZN5alloc4sync16Arc$LT$T$C$A$GT$25decrement_strong_count_in17h1e648a437d4c693fE", scope: !58, file: !486, line: 1819, type: !683, scopeLine: 1819, flags: DIFlagPrototyped, spFlags: DISPFlagLocalToUnit | DISPFlagDefinition | DISPFlagOptimized, unit: !203, templateParams: !150, declaration: !686, retainedNodes: !687)
!683 = !DISubroutineType(types: !684)
!684 = !{null, !685, !148}
!685 = !DIDerivedType(tag: DW_TAG_pointer_type, name: "*const parking::Inner", baseType: !85, size: 64, align: 64, dwarfAddressSpace: 0)
!686 = !DISubprogram(name: "decrement_strong_count_in<parking::Inner, alloc::alloc::Global>", linkageName: "_ZN5alloc4sync16Arc$LT$T$C$A$GT$25decrement_strong_count_in17h1e648a437d4c693fE", scope: !58, file: !486, line: 1819, type: !683, scopeLine: 1819, flags: DIFlagPrototyped, spFlags: DISPFlagLocalToUnit | DISPFlagOptimized, templateParams: !150)
!687 = !{!688, !680}
!688 = !DILocalVariable(name: "ptr", arg: 1, scope: !681, file: !486, line: 1819, type: !685)
!689 = !DILocation(line: 1819, column: 60, scope: !681, inlinedAt: !690)
!690 = !DILocation(line: 1469, column: 18, scope: !691, inlinedAt: !698)
!691 = distinct !DILexicalBlock(scope: !692, file: !486, line: 1468, column: 5)
!692 = distinct !DISubprogram(name: "decrement_strong_count<parking::Inner>", linkageName: "_ZN5alloc4sync12Arc$LT$T$GT$22decrement_strong_count17hc0cba04e73714614E", scope: !58, file: !486, line: 1468, type: !693, scopeLine: 1468, flags: DIFlagPrototyped, spFlags: DISPFlagLocalToUnit | DISPFlagDefinition | DISPFlagOptimized, unit: !203, templateParams: !140, declaration: !695, retainedNodes: !696)
!693 = !DISubroutineType(types: !694)
!694 = !{null, !685}
!695 = !DISubprogram(name: "decrement_strong_count<parking::Inner>", linkageName: "_ZN5alloc4sync12Arc$LT$T$GT$22decrement_strong_count17hc0cba04e73714614E", scope: !58, file: !486, line: 1468, type: !693, scopeLine: 1468, flags: DIFlagPrototyped, spFlags: DISPFlagLocalToUnit | DISPFlagOptimized, templateParams: !140)
!696 = !{!697}
!697 = !DILocalVariable(name: "ptr", arg: 1, scope: !691, file: !486, line: 1468, type: !685)
!698 = !DILocation(line: 170, column: 18, scope: !672)
!699 = !DILocation(line: 0, scope: !672)
!700 = !DILocalVariable(name: "_x", arg: 1, scope: !701, file: !497, line: 938, type: !58)
!701 = distinct !DILexicalBlock(scope: !702, file: !497, line: 938, column: 1)
!702 = distinct !DISubprogram(name: "drop<alloc::sync::Arc<parking::Inner, alloc::alloc::Global>>", linkageName: "_ZN4core3mem4drop17ha206ca2734db6c01E", scope: !499, file: !497, line: 938, type: !703, scopeLine: 938, flags: DIFlagPrototyped, spFlags: DISPFlagLocalToUnit | DISPFlagDefinition | DISPFlagOptimized, unit: !203, templateParams: !706, retainedNodes: !705)
!703 = !DISubroutineType(types: !704)
!704 = !{null, !58}
!705 = !{!700}
!706 = !{!707}
!707 = !DITemplateTypeParameter(name: "T", type: !58)
!708 = !DILocation(line: 938, column: 16, scope: !701, inlinedAt: !709)
!709 = !DILocation(line: 1820, column: 18, scope: !681, inlinedAt: !690)
!710 = !DILocation(line: 0, scope: !691, inlinedAt: !698)
!711 = !DILocation(line: 0, scope: !681, inlinedAt: !690)
!712 = !DILocation(line: 1820, column: 23, scope: !681, inlinedAt: !690)
!713 = !DILocalVariable(name: "ptr", arg: 1, scope: !714, file: !486, line: 1622, type: !685)
!714 = distinct !DISubprogram(name: "from_raw_in<parking::Inner, alloc::alloc::Global>", linkageName: "_ZN5alloc4sync16Arc$LT$T$C$A$GT$11from_raw_in17h535f9b03cbc88767E", scope: !58, file: !486, line: 1622, type: !715, scopeLine: 1622, flags: DIFlagPrototyped, spFlags: DISPFlagLocalToUnit | DISPFlagDefinition | DISPFlagOptimized, unit: !203, templateParams: !150, declaration: !717, retainedNodes: !718)
!715 = !DISubroutineType(types: !716)
!716 = !{!58, !685, !148}
!717 = !DISubprogram(name: "from_raw_in<parking::Inner, alloc::alloc::Global>", linkageName: "_ZN5alloc4sync16Arc$LT$T$C$A$GT$11from_raw_in17h535f9b03cbc88767E", scope: !58, file: !486, line: 1622, type: !715, scopeLine: 1622, flags: DIFlagPrototyped, spFlags: DISPFlagLocalToUnit | DISPFlagOptimized, templateParams: !150)
!718 = !{!713, !719, !720, !722}
!719 = !DILocalVariable(name: "alloc", arg: 2, scope: !714, file: !486, line: 1622, type: !148)
!720 = !DILocalVariable(name: "offset", scope: !721, file: !486, line: 1624, type: !80, align: 8)
!721 = distinct !DILexicalBlock(scope: !714, file: !486, line: 1624, column: 13)
!722 = !DILocalVariable(name: "arc_ptr", scope: !723, file: !486, line: 1627, type: !596, align: 8)
!723 = distinct !DILexicalBlock(scope: !721, file: !486, line: 1627, column: 13)
!724 = !DILocation(line: 0, scope: !714, inlinedAt: !725)
!725 = distinct !DILocation(line: 1820, column: 23, scope: !681, inlinedAt: !690)
!726 = !DILocalVariable(name: "self", arg: 1, scope: !727, file: !728, line: 1118, type: !685)
!727 = distinct !DILexicalBlock(scope: !729, file: !728, line: 1118, column: 5)
!728 = !DIFile(filename: "/home/arsalan/Documents/Github/unsafe-rust-benchmark/library/core/src/ptr/const_ptr.rs", directory: "", checksumkind: CSK_MD5, checksum: "b925067ec6cc15f01151b5ae643852d1")
!729 = distinct !DISubprogram(name: "byte_sub<parking::Inner>", linkageName: "_ZN4core3ptr9const_ptr33_$LT$impl$u20$$BP$const$u20$T$GT$8byte_sub17h050f51604d6f1ac7E", scope: !730, file: !728, line: 1118, type: !732, scopeLine: 1118, flags: DIFlagPrototyped, spFlags: DISPFlagLocalToUnit | DISPFlagDefinition | DISPFlagOptimized, unit: !203, templateParams: !140, retainedNodes: !734)
!730 = !DINamespace(name: "{impl#0}", scope: !731)
!731 = !DINamespace(name: "const_ptr", scope: !65)
!732 = !DISubroutineType(types: !733)
!733 = !{!685, !685, !80}
!734 = !{!726, !735}
!735 = !DILocalVariable(name: "count", arg: 2, scope: !727, file: !728, line: 1118, type: !80)
!736 = !DILocation(line: 0, scope: !727, inlinedAt: !737)
!737 = distinct !DILocation(line: 1627, column: 31, scope: !721, inlinedAt: !725)
!738 = !DILocation(line: 1622, column: 46, scope: !714, inlinedAt: !725)
!739 = !DILocation(line: 0, scope: !721, inlinedAt: !725)
!740 = !DILocalVariable(name: "count", arg: 2, scope: !741, file: !728, line: 1086, type: !80)
!741 = distinct !DILexicalBlock(scope: !742, file: !728, line: 1086, column: 5)
!742 = distinct !DISubprogram(name: "sub<u8>", linkageName: "_ZN4core3ptr9const_ptr33_$LT$impl$u20$$BP$const$u20$T$GT$3sub17hf48ee9e8b1459457E", scope: !730, file: !728, line: 1086, type: !743, scopeLine: 1086, flags: DIFlagPrototyped, spFlags: DISPFlagLocalToUnit | DISPFlagDefinition | DISPFlagOptimized, unit: !203, templateParams: !121, retainedNodes: !745)
!743 = !DISubroutineType(types: !744)
!744 = !{!633, !633, !80}
!745 = !{!746, !740}
!746 = !DILocalVariable(name: "self", arg: 1, scope: !741, file: !728, line: 1086, type: !633)
!747 = !DILocation(line: 0, scope: !741, inlinedAt: !748)
!748 = distinct !DILocation(line: 1120, column: 36, scope: !727, inlinedAt: !737)
!749 = !DILocalVariable(name: "self", arg: 1, scope: !750, file: !728, line: 513, type: !633)
!750 = distinct !DILexicalBlock(scope: !751, file: !728, line: 513, column: 5)
!751 = distinct !DISubprogram(name: "offset<u8>", linkageName: "_ZN4core3ptr9const_ptr33_$LT$impl$u20$$BP$const$u20$T$GT$6offset17h1670c99320fe9ccfE", scope: !730, file: !728, line: 513, type: !752, scopeLine: 513, flags: DIFlagPrototyped, spFlags: DISPFlagLocalToUnit | DISPFlagDefinition | DISPFlagOptimized, unit: !203, templateParams: !121, retainedNodes: !754)
!752 = !DISubroutineType(types: !753)
!753 = !{!633, !633, !41}
!754 = !{!749, !755}
!755 = !DILocalVariable(name: "count", arg: 2, scope: !750, file: !728, line: 513, type: !41)
!756 = !DILocation(line: 0, scope: !750, inlinedAt: !757)
!757 = distinct !DILocation(line: 1097, column: 27, scope: !741, inlinedAt: !748)
!758 = !DILocation(line: 518, column: 18, scope: !750, inlinedAt: !757)
!759 = !DILocalVariable(arg: 1, scope: !760, file: !516, line: 542, type: !763)
!760 = distinct !DISubprogram(name: "drop_in_place<alloc::sync::Arc<parking::Inner, alloc::alloc::Global>>", linkageName: "_ZN4core3ptr59drop_in_place$LT$alloc..sync..Arc$LT$parking..Inner$GT$$GT$17h6b2af5fac0f44142E", scope: !65, file: !516, line: 542, type: !761, scopeLine: 542, flags: DIFlagPrototyped, spFlags: DISPFlagLocalToUnit | DISPFlagDefinition | DISPFlagOptimized, unit: !203, templateParams: !706, retainedNodes: !764)
!761 = !DISubroutineType(types: !762)
!762 = !{null, !763}
!763 = !DIDerivedType(tag: DW_TAG_pointer_type, name: "*mut alloc::sync::Arc<parking::Inner, alloc::alloc::Global>", baseType: !58, size: 64, align: 64, dwarfAddressSpace: 0)
!764 = !{!759}
!765 = !DILocation(line: 0, scope: !760, inlinedAt: !766)
!766 = distinct !DILocation(line: 938, column: 24, scope: !701, inlinedAt: !709)
!767 = !DILocalVariable(name: "val", scope: !768, file: !525, line: 2686, type: !80, align: 8)
!768 = distinct !DILexicalBlock(scope: !769, file: !525, line: 2686, column: 13)
!769 = distinct !DISubprogram(name: "fetch_sub", linkageName: "_ZN4core4sync6atomic11AtomicUsize9fetch_sub17h83dbbb1e9ac08f15E", scope: !72, file: !525, line: 2686, type: !527, scopeLine: 2686, flags: DIFlagPrototyped, spFlags: DISPFlagLocalToUnit | DISPFlagDefinition | DISPFlagOptimized, unit: !203, templateParams: !29, declaration: !530, retainedNodes: !770)
!770 = !{!771, !767, !772}
!771 = !DILocalVariable(name: "self", arg: 1, scope: !768, file: !525, line: 2686, type: !529)
!772 = !DILocalVariable(name: "order", scope: !768, file: !525, line: 2686, type: !344, align: 1)
!773 = !DILocation(line: 0, scope: !768, inlinedAt: !774)
!774 = distinct !DILocation(line: 2463, column: 32, scope: !775, inlinedAt: !779)
!775 = distinct !DISubprogram(name: "drop<parking::Inner, alloc::alloc::Global>", linkageName: "_ZN71_$LT$alloc..sync..Arc$LT$T$C$A$GT$$u20$as$u20$core..ops..drop..Drop$GT$4drop17h6dbad827934f2e7eE", scope: !776, file: !486, line: 2459, type: !487, scopeLine: 2459, flags: DIFlagPrototyped, spFlags: DISPFlagLocalToUnit | DISPFlagDefinition | DISPFlagOptimized, unit: !203, templateParams: !150, retainedNodes: !777)
!776 = !DINamespace(name: "{impl#35}", scope: !59)
!777 = !{!778}
!778 = !DILocalVariable(name: "self", arg: 1, scope: !775, file: !486, line: 2459, type: !489)
!779 = distinct !DILocation(line: 542, column: 1, scope: !760, inlinedAt: !766)
!780 = !DILocalVariable(name: "val", scope: !781, file: !525, line: 3344, type: !80, align: 8)
!781 = distinct !DILexicalBlock(scope: !782, file: !525, line: 3344, column: 1)
!782 = distinct !DISubprogram(name: "atomic_sub<usize>", linkageName: "_ZN4core4sync6atomic10atomic_sub17h900c7e9c10eab54eE", scope: !73, file: !525, line: 3344, type: !555, scopeLine: 3344, flags: DIFlagPrototyped, spFlags: DISPFlagLocalToUnit | DISPFlagDefinition | DISPFlagOptimized, unit: !203, templateParams: !81, retainedNodes: !783)
!783 = !{!784, !780, !785}
!784 = !DILocalVariable(name: "dst", arg: 1, scope: !781, file: !525, line: 3344, type: !557)
!785 = !DILocalVariable(name: "order", scope: !781, file: !525, line: 3344, type: !344, align: 1)
!786 = !DILocation(line: 0, scope: !781, inlinedAt: !787)
!787 = distinct !DILocation(line: 2688, column: 26, scope: !768, inlinedAt: !774)
!788 = !DILocalVariable(name: "order", scope: !789, file: !525, line: 3637, type: !344, align: 1)
!789 = distinct !DILexicalBlock(scope: !790, file: !525, line: 3637, column: 1)
!790 = distinct !DISubprogram(name: "fence", linkageName: "_ZN4core4sync6atomic5fence17h8c0e8cfbe12bcb90E", scope: !73, file: !525, line: 3637, type: !566, scopeLine: 3637, flags: DIFlagPrototyped, spFlags: DISPFlagLocalToUnit | DISPFlagDefinition | DISPFlagOptimized, unit: !203, templateParams: !29, retainedNodes: !791)
!791 = !{!788}
!792 = !DILocation(line: 0, scope: !789, inlinedAt: !793)
!793 = distinct !DILocation(line: 64, column: 9, scope: !775, inlinedAt: !779)
!794 = !DILocation(line: 0, scope: !775, inlinedAt: !779)
!795 = !DILocation(line: 3350, column: 24, scope: !781, inlinedAt: !787)
!796 = !{!797, !799}
!797 = distinct !{!797, !798, !"_ZN71_$LT$alloc..sync..Arc$LT$T$C$A$GT$$u20$as$u20$core..ops..drop..Drop$GT$4drop17h6dbad827934f2e7eE: %self"}
!798 = distinct !{!798, !"_ZN71_$LT$alloc..sync..Arc$LT$T$C$A$GT$$u20$as$u20$core..ops..drop..Drop$GT$4drop17h6dbad827934f2e7eE"}
!799 = distinct !{!799, !800, !"_ZN4core3ptr59drop_in_place$LT$alloc..sync..Arc$LT$parking..Inner$GT$$GT$17h6b2af5fac0f44142E: %_1"}
!800 = distinct !{!800, !"_ZN4core3ptr59drop_in_place$LT$alloc..sync..Arc$LT$parking..Inner$GT$$GT$17h6b2af5fac0f44142E"}
!801 = !DILocation(line: 2463, column: 12, scope: !775, inlinedAt: !779)
!802 = !DILocation(line: 3641, column: 24, scope: !789, inlinedAt: !793)
!803 = !DILocation(line: 2506, column: 13, scope: !775, inlinedAt: !779)
!804 = !DILocation(line: 1820, column: 51, scope: !681, inlinedAt: !690)
!805 = !DILocation(line: 171, column: 6, scope: !672)
!806 = distinct !DISubprogram(name: "clone_waker<parking::Inner>", linkageName: "_ZN5alloc4task9raw_waker11clone_waker17h7c14368c8d84cae1E", scope: !674, file: !673, line: 148, type: !175, scopeLine: 148, flags: DIFlagPrototyped, spFlags: DISPFlagLocalToUnit | DISPFlagDefinition | DISPFlagOptimized, unit: !203, templateParams: !678, retainedNodes: !807)
!807 = !{!808}
!808 = !DILocalVariable(name: "waker", arg: 1, scope: !806, file: !673, line: 148, type: !168)
!809 = !DILocalVariable(name: "alloc", scope: !810, file: !486, line: 1773, type: !148, align: 1)
!810 = distinct !DILexicalBlock(scope: !811, file: !486, line: 1773, column: 5)
!811 = distinct !DISubprogram(name: "increment_strong_count_in<parking::Inner, alloc::alloc::Global>", linkageName: "_ZN5alloc4sync16Arc$LT$T$C$A$GT$25increment_strong_count_in17h0f88b64716341265E", scope: !58, file: !486, line: 1773, type: !683, scopeLine: 1773, flags: DIFlagPrototyped, spFlags: DISPFlagLocalToUnit | DISPFlagDefinition | DISPFlagOptimized, unit: !203, templateParams: !150, declaration: !812, retainedNodes: !813)
!812 = !DISubprogram(name: "increment_strong_count_in<parking::Inner, alloc::alloc::Global>", linkageName: "_ZN5alloc4sync16Arc$LT$T$C$A$GT$25increment_strong_count_in17h0f88b64716341265E", scope: !58, file: !486, line: 1773, type: !683, scopeLine: 1773, flags: DIFlagPrototyped, spFlags: DISPFlagLocalToUnit | DISPFlagOptimized, templateParams: !150)
!813 = !{!814, !809, !815, !821}
!814 = !DILocalVariable(name: "ptr", arg: 1, scope: !810, file: !486, line: 1773, type: !685)
!815 = !DILocalVariable(name: "arc", scope: !816, file: !486, line: 1778, type: !817, align: 8)
!816 = distinct !DILexicalBlock(scope: !810, file: !486, line: 1778, column: 9)
!817 = !DICompositeType(tag: DW_TAG_structure_type, name: "ManuallyDrop<alloc::sync::Arc<parking::Inner, alloc::alloc::Global>>", scope: !818, file: !10, size: 64, align: 64, flags: DIFlagPublic, elements: !819, templateParams: !706, identifier: "e54d25ef0744291f49f4282cba30340c")
!818 = !DINamespace(name: "manually_drop", scope: !499)
!819 = !{!820}
!820 = !DIDerivedType(tag: DW_TAG_member, name: "value", scope: !817, file: !10, baseType: !58, size: 64, align: 64, flags: DIFlagPrivate)
!821 = !DILocalVariable(name: "_arc_clone", scope: !822, file: !486, line: 1780, type: !817, align: 8)
!822 = distinct !DILexicalBlock(scope: !816, file: !486, line: 1780, column: 9)
!823 = !DILocation(line: 1773, column: 60, scope: !810, inlinedAt: !824)
!824 = !DILocation(line: 1433, column: 18, scope: !825, inlinedAt: !830)
!825 = distinct !DILexicalBlock(scope: !826, file: !486, line: 1432, column: 5)
!826 = distinct !DISubprogram(name: "increment_strong_count<parking::Inner>", linkageName: "_ZN5alloc4sync12Arc$LT$T$GT$22increment_strong_count17hc04e561b292aac44E", scope: !58, file: !486, line: 1432, type: !693, scopeLine: 1432, flags: DIFlagPrototyped, spFlags: DISPFlagLocalToUnit | DISPFlagDefinition | DISPFlagOptimized, unit: !203, templateParams: !140, declaration: !827, retainedNodes: !828)
!827 = !DISubprogram(name: "increment_strong_count<parking::Inner>", linkageName: "_ZN5alloc4sync12Arc$LT$T$GT$22increment_strong_count17hc04e561b292aac44E", scope: !58, file: !486, line: 1432, type: !693, scopeLine: 1432, flags: DIFlagPrototyped, spFlags: DISPFlagLocalToUnit | DISPFlagOptimized, templateParams: !140)
!828 = !{!829}
!829 = !DILocalVariable(name: "ptr", arg: 1, scope: !825, file: !486, line: 1432, type: !685)
!830 = !DILocation(line: 149, column: 18, scope: !806)
!831 = !DILocation(line: 0, scope: !806)
!832 = !DILocation(line: 0, scope: !825, inlinedAt: !830)
!833 = !DILocation(line: 0, scope: !810, inlinedAt: !824)
!834 = !DILocation(line: 0, scope: !714, inlinedAt: !835)
!835 = distinct !DILocation(line: 1778, column: 51, scope: !810, inlinedAt: !824)
!836 = !DILocation(line: 0, scope: !727, inlinedAt: !837)
!837 = distinct !DILocation(line: 1627, column: 31, scope: !721, inlinedAt: !835)
!838 = !DILocation(line: 1622, column: 46, scope: !714, inlinedAt: !835)
!839 = !DILocation(line: 0, scope: !721, inlinedAt: !835)
!840 = !DILocation(line: 0, scope: !741, inlinedAt: !841)
!841 = distinct !DILocation(line: 1120, column: 36, scope: !727, inlinedAt: !837)
!842 = !DILocation(line: 0, scope: !750, inlinedAt: !843)
!843 = distinct !DILocation(line: 1097, column: 27, scope: !741, inlinedAt: !841)
!844 = !DILocation(line: 518, column: 18, scope: !750, inlinedAt: !843)
!845 = !DILocation(line: 0, scope: !816, inlinedAt: !824)
!846 = !DILocalVariable(name: "self", arg: 1, scope: !847, file: !848, line: 48, type: !853)
!847 = distinct !DILexicalBlock(scope: !849, file: !848, line: 48, column: 16)
!848 = !DIFile(filename: "/home/arsalan/Documents/Github/unsafe-rust-benchmark/library/core/src/mem/manually_drop.rs", directory: "", checksumkind: CSK_MD5, checksum: "d4d4bbef6d5b091a5da60dbe4f80f9db")
!849 = distinct !DISubprogram(name: "clone<alloc::sync::Arc<parking::Inner, alloc::alloc::Global>>", linkageName: "_ZN86_$LT$core..mem..manually_drop..ManuallyDrop$LT$T$GT$$u20$as$u20$core..clone..Clone$GT$5clone17hcfaacb2d9be93419E", scope: !850, file: !848, line: 48, type: !851, scopeLine: 48, flags: DIFlagPrototyped, spFlags: DISPFlagLocalToUnit | DISPFlagDefinition | DISPFlagOptimized, unit: !203, templateParams: !706, retainedNodes: !854)
!850 = !DINamespace(name: "{impl#6}", scope: !818)
!851 = !DISubroutineType(types: !852)
!852 = !{!817, !853}
!853 = !DIDerivedType(tag: DW_TAG_pointer_type, name: "&core::mem::manually_drop::ManuallyDrop<alloc::sync::Arc<parking::Inner, alloc::alloc::Global>>", baseType: !817, size: 64, align: 64, dwarfAddressSpace: 0)
!854 = !{!846}
!855 = !DILocation(line: 0, scope: !847, inlinedAt: !856)
!856 = !DILocation(line: 1780, column: 52, scope: !816, inlinedAt: !824)
!857 = !DILocalVariable(name: "val", scope: !858, file: !525, line: 2656, type: !80, align: 8)
!858 = distinct !DILexicalBlock(scope: !859, file: !525, line: 2656, column: 13)
!859 = distinct !DISubprogram(name: "fetch_add", linkageName: "_ZN4core4sync6atomic11AtomicUsize9fetch_add17h908472aa2f25c32eE", scope: !72, file: !525, line: 2656, type: !527, scopeLine: 2656, flags: DIFlagPrototyped, spFlags: DISPFlagLocalToUnit | DISPFlagDefinition | DISPFlagOptimized, unit: !203, templateParams: !29, declaration: !860, retainedNodes: !861)
!860 = !DISubprogram(name: "fetch_add", linkageName: "_ZN4core4sync6atomic11AtomicUsize9fetch_add17h908472aa2f25c32eE", scope: !72, file: !525, line: 2656, type: !527, scopeLine: 2656, flags: DIFlagPrototyped, spFlags: DISPFlagLocalToUnit | DISPFlagOptimized, templateParams: !29)
!861 = !{!862, !857, !863}
!862 = !DILocalVariable(name: "self", arg: 1, scope: !858, file: !525, line: 2656, type: !529)
!863 = !DILocalVariable(name: "order", scope: !858, file: !525, line: 2656, type: !344, align: 1)
!864 = !DILocation(line: 0, scope: !858, inlinedAt: !865)
!865 = distinct !DILocation(line: 2109, column: 44, scope: !866, inlinedAt: !875)
!866 = distinct !DISubprogram(name: "clone<parking::Inner, alloc::alloc::Global>", linkageName: "_ZN68_$LT$alloc..sync..Arc$LT$T$C$A$GT$$u20$as$u20$core..clone..Clone$GT$5clone17hd522fc41728ecb63E", scope: !867, file: !486, line: 2097, type: !868, scopeLine: 2097, flags: DIFlagPrototyped, spFlags: DISPFlagLocalToUnit | DISPFlagDefinition | DISPFlagOptimized, unit: !203, templateParams: !150, retainedNodes: !871)
!867 = !DINamespace(name: "{impl#28}", scope: !59)
!868 = !DISubroutineType(types: !869)
!869 = !{!58, !870}
!870 = !DIDerivedType(tag: DW_TAG_pointer_type, name: "&alloc::sync::Arc<parking::Inner, alloc::alloc::Global>", baseType: !58, size: 64, align: 64, dwarfAddressSpace: 0)
!871 = !{!872, !873}
!872 = !DILocalVariable(name: "self", arg: 1, scope: !866, file: !486, line: 2097, type: !870)
!873 = !DILocalVariable(name: "old_size", scope: !874, file: !486, line: 2109, type: !80, align: 8)
!874 = distinct !DILexicalBlock(scope: !866, file: !486, line: 2109, column: 9)
!875 = distinct !DILocation(line: 48, column: 16, scope: !847, inlinedAt: !856)
!876 = !DILocalVariable(name: "val", scope: !877, file: !525, line: 3327, type: !80, align: 8)
!877 = distinct !DILexicalBlock(scope: !878, file: !525, line: 3327, column: 1)
!878 = distinct !DISubprogram(name: "atomic_add<usize>", linkageName: "_ZN4core4sync6atomic10atomic_add17hb64a70ec1618ae06E", scope: !73, file: !525, line: 3327, type: !555, scopeLine: 3327, flags: DIFlagPrototyped, spFlags: DISPFlagLocalToUnit | DISPFlagDefinition | DISPFlagOptimized, unit: !203, templateParams: !81, retainedNodes: !879)
!879 = !{!880, !876, !881}
!880 = !DILocalVariable(name: "dst", arg: 1, scope: !877, file: !525, line: 3327, type: !557)
!881 = !DILocalVariable(name: "order", scope: !877, file: !525, line: 3327, type: !344, align: 1)
!882 = !DILocation(line: 0, scope: !877, inlinedAt: !883)
!883 = distinct !DILocation(line: 2658, column: 26, scope: !858, inlinedAt: !865)
!884 = !DILocation(line: 0, scope: !866, inlinedAt: !875)
!885 = !DILocation(line: 3331, column: 24, scope: !877, inlinedAt: !883)
!886 = !DILocation(line: 0, scope: !874, inlinedAt: !875)
!887 = !DILocation(line: 2126, column: 12, scope: !874, inlinedAt: !875)
!888 = !DILocation(line: 2127, column: 13, scope: !874, inlinedAt: !875)
!889 = !DILocation(line: 154, column: 6, scope: !806)
!890 = distinct !DISubprogram(name: "wake_by_ref<parking::Inner>", linkageName: "_ZN5alloc4task9raw_waker11wake_by_ref17h0bfaf7d7d0b41fffE", scope: !674, file: !673, line: 163, type: !179, scopeLine: 163, flags: DIFlagPrototyped, spFlags: DISPFlagLocalToUnit | DISPFlagDefinition | DISPFlagOptimized, unit: !203, templateParams: !678, retainedNodes: !891)
!891 = !{!892, !893}
!892 = !DILocalVariable(name: "waker", arg: 1, scope: !890, file: !673, line: 163, type: !168)
!893 = !DILocalVariable(name: "waker", scope: !894, file: !673, line: 164, type: !817, align: 8)
!894 = distinct !DILexicalBlock(scope: !890, file: !673, line: 164, column: 9)
!895 = !DILocation(line: 0, scope: !890)
!896 = !DILocation(line: 0, scope: !894)
!897 = !DILocalVariable(name: "self", arg: 1, scope: !898, file: !899, line: 435, type: !870)
!898 = distinct !DISubprogram(name: "wake_by_ref", linkageName: "_ZN52_$LT$parking..Inner$u20$as$u20$alloc..task..Wake$GT$11wake_by_ref17h9539a8256dbe0e6dE", scope: !900, file: !899, line: 435, type: !901, scopeLine: 435, flags: DIFlagPrototyped, spFlags: DISPFlagLocalToUnit | DISPFlagDefinition | DISPFlagOptimized, unit: !203, templateParams: !29, retainedNodes: !903)
!899 = !DIFile(filename: "/home/arsalan/.cargo/registry/src/index.crates.io-1949cf8c6b5b557f/parking-2.2.0/src/lib.rs", directory: "", checksumkind: CSK_MD5, checksum: "4363bf5a18791ca56cd7a93ab881be4a")
!900 = !DINamespace(name: "{impl#8}", scope: !52)
!901 = !DISubroutineType(types: !902)
!902 = !{null, !870}
!903 = !{!897}
!904 = !DILocation(line: 0, scope: !898, inlinedAt: !905)
!905 = distinct !DILocation(line: 165, column: 9, scope: !894)
!906 = !DILocation(line: 436, column: 9, scope: !898, inlinedAt: !905)
!907 = !DILocation(line: 166, column: 6, scope: !890)
!908 = distinct !DISubprogram(name: "wake<parking::Inner>", linkageName: "_ZN5alloc4task9raw_waker4wake17h623d9473fe9f5edcE", scope: !674, file: !673, line: 157, type: !179, scopeLine: 157, flags: DIFlagPrototyped, spFlags: DISPFlagLocalToUnit | DISPFlagDefinition | DISPFlagOptimized, unit: !203, templateParams: !678, retainedNodes: !909)
!909 = !{!910, !911}
!910 = !DILocalVariable(name: "waker", arg: 1, scope: !908, file: !673, line: 157, type: !168)
!911 = !DILocalVariable(name: "waker", scope: !912, file: !673, line: 158, type: !58, align: 8)
!912 = distinct !DILexicalBlock(scope: !908, file: !673, line: 158, column: 9)
!913 = !DILocation(line: 0, scope: !908)
!914 = !DILocalVariable(name: "ptr", arg: 1, scope: !915, file: !486, line: 1400, type: !685)
!915 = distinct !DILexicalBlock(scope: !916, file: !486, line: 1400, column: 5)
!916 = distinct !DISubprogram(name: "from_raw<parking::Inner>", linkageName: "_ZN5alloc4sync12Arc$LT$T$GT$8from_raw17h325fe6bf0065006eE", scope: !58, file: !486, line: 1400, type: !917, scopeLine: 1400, flags: DIFlagPrototyped, spFlags: DISPFlagLocalToUnit | DISPFlagDefinition | DISPFlagOptimized, unit: !203, templateParams: !140, declaration: !919, retainedNodes: !920)
!917 = !DISubroutineType(types: !918)
!918 = !{!58, !685}
!919 = !DISubprogram(name: "from_raw<parking::Inner>", linkageName: "_ZN5alloc4sync12Arc$LT$T$GT$8from_raw17h325fe6bf0065006eE", scope: !58, file: !486, line: 1400, type: !917, scopeLine: 1400, flags: DIFlagPrototyped, spFlags: DISPFlagLocalToUnit | DISPFlagOptimized, templateParams: !140)
!920 = !{!914}
!921 = !DILocation(line: 0, scope: !915, inlinedAt: !922)
!922 = !DILocation(line: 158, column: 30, scope: !908)
!923 = !DILocation(line: 0, scope: !714, inlinedAt: !924)
!924 = distinct !DILocation(line: 1401, column: 18, scope: !915, inlinedAt: !922)
!925 = !DILocation(line: 0, scope: !727, inlinedAt: !926)
!926 = distinct !DILocation(line: 1627, column: 31, scope: !721, inlinedAt: !924)
!927 = !DILocation(line: 1622, column: 46, scope: !714, inlinedAt: !924)
!928 = !DILocation(line: 0, scope: !721, inlinedAt: !924)
!929 = !DILocation(line: 0, scope: !741, inlinedAt: !930)
!930 = distinct !DILocation(line: 1120, column: 36, scope: !727, inlinedAt: !926)
!931 = !DILocation(line: 0, scope: !750, inlinedAt: !932)
!932 = distinct !DILocation(line: 1097, column: 27, scope: !741, inlinedAt: !930)
!933 = !DILocation(line: 518, column: 18, scope: !750, inlinedAt: !932)
!934 = !DILocation(line: 0, scope: !912)
!935 = !DILocalVariable(name: "self", arg: 1, scope: !936, file: !899, line: 430, type: !58)
!936 = distinct !DISubprogram(name: "wake", linkageName: "_ZN52_$LT$parking..Inner$u20$as$u20$alloc..task..Wake$GT$4wake17h18695aad9a43413bE", scope: !900, file: !899, line: 430, type: !703, scopeLine: 430, flags: DIFlagPrototyped, spFlags: DISPFlagLocalToUnit | DISPFlagDefinition | DISPFlagOptimized, unit: !203, templateParams: !29, retainedNodes: !937)
!937 = !{!935}
!938 = !DILocation(line: 430, column: 13, scope: !936, inlinedAt: !939)
!939 = distinct !DILocation(line: 159, column: 9, scope: !912)
!940 = !DILocation(line: 431, column: 9, scope: !936, inlinedAt: !939)
!941 = !DILocation(line: 0, scope: !760, inlinedAt: !942)
!942 = distinct !DILocation(line: 432, column: 5, scope: !936, inlinedAt: !939)
!943 = !DILocation(line: 0, scope: !768, inlinedAt: !944)
!944 = distinct !DILocation(line: 2463, column: 32, scope: !775, inlinedAt: !945)
!945 = distinct !DILocation(line: 542, column: 1, scope: !760, inlinedAt: !942)
!946 = !DILocation(line: 0, scope: !781, inlinedAt: !947)
!947 = distinct !DILocation(line: 2688, column: 26, scope: !768, inlinedAt: !944)
!948 = !DILocation(line: 0, scope: !789, inlinedAt: !949)
!949 = distinct !DILocation(line: 64, column: 9, scope: !775, inlinedAt: !945)
!950 = !DILocation(line: 0, scope: !775, inlinedAt: !945)
!951 = !DILocation(line: 3350, column: 24, scope: !781, inlinedAt: !947)
!952 = !{!953, !955}
!953 = distinct !{!953, !954, !"_ZN71_$LT$alloc..sync..Arc$LT$T$C$A$GT$$u20$as$u20$core..ops..drop..Drop$GT$4drop17h6dbad827934f2e7eE: %self"}
!954 = distinct !{!954, !"_ZN71_$LT$alloc..sync..Arc$LT$T$C$A$GT$$u20$as$u20$core..ops..drop..Drop$GT$4drop17h6dbad827934f2e7eE"}
!955 = distinct !{!955, !956, !"_ZN4core3ptr59drop_in_place$LT$alloc..sync..Arc$LT$parking..Inner$GT$$GT$17h6b2af5fac0f44142E: %_1"}
!956 = distinct !{!956, !"_ZN4core3ptr59drop_in_place$LT$alloc..sync..Arc$LT$parking..Inner$GT$$GT$17h6b2af5fac0f44142E"}
!957 = !DILocation(line: 2463, column: 12, scope: !775, inlinedAt: !945)
!958 = !DILocation(line: 3641, column: 24, scope: !789, inlinedAt: !949)
!959 = !DILocation(line: 2506, column: 13, scope: !775, inlinedAt: !945)
!960 = !DILocation(line: 0, scope: !760, inlinedAt: !961)
!961 = distinct !DILocation(line: 432, column: 5, scope: !936, inlinedAt: !939)
!962 = !DILocation(line: 0, scope: !768, inlinedAt: !963)
!963 = distinct !DILocation(line: 2463, column: 32, scope: !775, inlinedAt: !964)
!964 = distinct !DILocation(line: 542, column: 1, scope: !760, inlinedAt: !961)
!965 = !DILocation(line: 0, scope: !781, inlinedAt: !966)
!966 = distinct !DILocation(line: 2688, column: 26, scope: !768, inlinedAt: !963)
!967 = !DILocation(line: 0, scope: !789, inlinedAt: !968)
!968 = distinct !DILocation(line: 64, column: 9, scope: !775, inlinedAt: !964)
!969 = !DILocation(line: 0, scope: !775, inlinedAt: !964)
!970 = !DILocation(line: 3350, column: 24, scope: !781, inlinedAt: !966)
!971 = !{!972, !974}
!972 = distinct !{!972, !973, !"_ZN71_$LT$alloc..sync..Arc$LT$T$C$A$GT$$u20$as$u20$core..ops..drop..Drop$GT$4drop17h6dbad827934f2e7eE: %self"}
!973 = distinct !{!973, !"_ZN71_$LT$alloc..sync..Arc$LT$T$C$A$GT$$u20$as$u20$core..ops..drop..Drop$GT$4drop17h6dbad827934f2e7eE"}
!974 = distinct !{!974, !975, !"_ZN4core3ptr59drop_in_place$LT$alloc..sync..Arc$LT$parking..Inner$GT$$GT$17h6b2af5fac0f44142E: %_1"}
!975 = distinct !{!975, !"_ZN4core3ptr59drop_in_place$LT$alloc..sync..Arc$LT$parking..Inner$GT$$GT$17h6b2af5fac0f44142E"}
!976 = !DILocation(line: 2463, column: 12, scope: !775, inlinedAt: !964)
!977 = !DILocation(line: 3641, column: 24, scope: !789, inlinedAt: !968)
!978 = !DILocation(line: 2506, column: 13, scope: !775, inlinedAt: !964)
!979 = !DILocation(line: 430, column: 5, scope: !936, inlinedAt: !939)
!980 = !DILocation(line: 432, column: 6, scope: !936, inlinedAt: !939)
!981 = !DILocation(line: 160, column: 6, scope: !908)
!982 = distinct !DISubprogram(name: "finish_grow<alloc::alloc::Global>", linkageName: "_ZN5alloc7raw_vec11finish_grow17h68b2933e3a686549E", scope: !984, file: !983, line: 552, type: !985, scopeLine: 552, flags: DIFlagPrototyped, spFlags: DISPFlagLocalToUnit | DISPFlagDefinition | DISPFlagOptimized, unit: !203, templateParams: !645, retainedNodes: !1061)
!983 = !DIFile(filename: "/home/arsalan/Documents/Github/unsafe-rust-benchmark/library/alloc/src/raw_vec.rs", directory: "", checksumkind: CSK_MD5, checksum: "99d32400863317b069599ba961cfe288")
!984 = !DINamespace(name: "raw_vec", scope: !60)
!985 = !DISubroutineType(types: !986)
!986 = !{!987, !1026, !1043, !1060}
!987 = !DICompositeType(tag: DW_TAG_structure_type, name: "Result<core::ptr::non_null::NonNull<[u8]>, alloc::collections::TryReserveError>", scope: !376, file: !10, size: 192, align: 64, flags: DIFlagPublic, elements: !988, templateParams: !29, identifier: "a757f3a2bf0c81dbb28b1c24f51b7801")
!988 = !{!989}
!989 = !DICompositeType(tag: DW_TAG_variant_part, scope: !987, file: !10, size: 192, align: 64, elements: !990, templateParams: !29, identifier: "6d18593e4fbc949fb708a6851f8a3ea7", discriminator: !1025)
!990 = !{!991, !1021}
!991 = !DIDerivedType(tag: DW_TAG_member, name: "Ok", scope: !989, file: !10, baseType: !992, size: 192, align: 64, extraData: i128 0)
!992 = !DICompositeType(tag: DW_TAG_structure_type, name: "Ok", scope: !987, file: !10, size: 192, align: 64, flags: DIFlagPublic, elements: !993, templateParams: !1002, identifier: "164ed10a14b3aaa476fdc2527dc12b64")
!993 = !{!994}
!994 = !DIDerivedType(tag: DW_TAG_member, name: "__0", scope: !992, file: !10, baseType: !995, size: 128, align: 64, offset: 64, flags: DIFlagPublic)
!995 = !DICompositeType(tag: DW_TAG_structure_type, name: "NonNull<[u8]>", scope: !64, file: !10, size: 128, align: 64, flags: DIFlagPublic, elements: !996, templateParams: !121, identifier: "321a1c9a13424b52ae24b00919f47782")
!996 = !{!997}
!997 = !DIDerivedType(tag: DW_TAG_member, name: "pointer", scope: !995, file: !10, baseType: !998, size: 128, align: 64, flags: DIFlagPrivate)
!998 = !DICompositeType(tag: DW_TAG_structure_type, name: "*const [u8]", file: !10, size: 128, align: 64, elements: !999, templateParams: !29, identifier: "a10360edaf335c418dbc95bccd0cb05d")
!999 = !{!1000, !1001}
!1000 = !DIDerivedType(tag: DW_TAG_member, name: "data_ptr", scope: !998, file: !10, baseType: !442, size: 64, align: 64)
!1001 = !DIDerivedType(tag: DW_TAG_member, name: "length", scope: !998, file: !10, baseType: !80, size: 64, align: 64, offset: 64)
!1002 = !{!1003, !1004}
!1003 = !DITemplateTypeParameter(name: "T", type: !995)
!1004 = !DITemplateTypeParameter(name: "E", type: !1005)
!1005 = !DICompositeType(tag: DW_TAG_structure_type, name: "TryReserveError", scope: !1006, file: !10, size: 128, align: 64, flags: DIFlagPublic, elements: !1007, templateParams: !29, identifier: "e78c3079dc4e214631abef5a24cb9ca1")
!1006 = !DINamespace(name: "collections", scope: !60)
!1007 = !{!1008}
!1008 = !DIDerivedType(tag: DW_TAG_member, name: "kind", scope: !1005, file: !10, baseType: !1009, size: 128, align: 64, flags: DIFlagPrivate)
!1009 = !DICompositeType(tag: DW_TAG_structure_type, name: "TryReserveErrorKind", scope: !1006, file: !10, size: 128, align: 64, flags: DIFlagPublic, elements: !1010, templateParams: !29, identifier: "b24120f803c008fd6c29c47701d6ddc9")
!1010 = !{!1011}
!1011 = !DICompositeType(tag: DW_TAG_variant_part, scope: !1009, file: !10, size: 128, align: 64, elements: !1012, templateParams: !29, identifier: "ad4230f1c757e6ea8b99460dcd6d9272", discriminator: !1020)
!1012 = !{!1013, !1015}
!1013 = !DIDerivedType(tag: DW_TAG_member, name: "CapacityOverflow", scope: !1011, file: !10, baseType: !1014, size: 128, align: 64, extraData: i128 0)
!1014 = !DICompositeType(tag: DW_TAG_structure_type, name: "CapacityOverflow", scope: !1009, file: !10, size: 128, align: 64, flags: DIFlagPublic, elements: !29, identifier: "6bb74696a08d858bd39db64842e9d0b7")
!1015 = !DIDerivedType(tag: DW_TAG_member, name: "AllocError", scope: !1011, file: !10, baseType: !1016, size: 128, align: 64)
!1016 = !DICompositeType(tag: DW_TAG_structure_type, name: "AllocError", scope: !1009, file: !10, size: 128, align: 64, flags: DIFlagPublic, elements: !1017, templateParams: !29, identifier: "6e59ffdfacfbc79c95b5d6e5162f3673")
!1017 = !{!1018, !1019}
!1018 = !DIDerivedType(tag: DW_TAG_member, name: "layout", scope: !1016, file: !10, baseType: !634, size: 128, align: 64, flags: DIFlagPublic)
!1019 = !DIDerivedType(tag: DW_TAG_member, name: "non_exhaustive", scope: !1016, file: !10, baseType: !127, align: 8, offset: 128, flags: DIFlagPublic)
!1020 = !DIDerivedType(tag: DW_TAG_member, scope: !1009, file: !10, baseType: !195, size: 64, align: 64, flags: DIFlagArtificial)
!1021 = !DIDerivedType(tag: DW_TAG_member, name: "Err", scope: !989, file: !10, baseType: !1022, size: 192, align: 64, extraData: i128 1)
!1022 = !DICompositeType(tag: DW_TAG_structure_type, name: "Err", scope: !987, file: !10, size: 192, align: 64, flags: DIFlagPublic, elements: !1023, templateParams: !1002, identifier: "64b6a2ef0987eaed93250d339f36df79")
!1023 = !{!1024}
!1024 = !DIDerivedType(tag: DW_TAG_member, name: "__0", scope: !1022, file: !10, baseType: !1005, size: 128, align: 64, offset: 64, flags: DIFlagPublic)
!1025 = !DIDerivedType(tag: DW_TAG_member, scope: !987, file: !10, baseType: !195, size: 64, align: 64, flags: DIFlagArtificial)
!1026 = !DICompositeType(tag: DW_TAG_structure_type, name: "Result<core::alloc::layout::Layout, core::alloc::layout::LayoutError>", scope: !376, file: !10, size: 128, align: 64, flags: DIFlagPublic, elements: !1027, templateParams: !29, identifier: "b9fac944f0fa797f32e13fbbf40fc3e0")
!1027 = !{!1028}
!1028 = !DICompositeType(tag: DW_TAG_variant_part, scope: !1026, file: !10, size: 128, align: 64, elements: !1029, templateParams: !29, identifier: "b1a3496a6042b4786e096aa626b784b", discriminator: !1042)
!1029 = !{!1030, !1038}
!1030 = !DIDerivedType(tag: DW_TAG_member, name: "Ok", scope: !1028, file: !10, baseType: !1031, size: 128, align: 64)
!1031 = !DICompositeType(tag: DW_TAG_structure_type, name: "Ok", scope: !1026, file: !10, size: 128, align: 64, flags: DIFlagPublic, elements: !1032, templateParams: !1034, identifier: "837d0c5e54083a3829348b700f287f16")
!1032 = !{!1033}
!1033 = !DIDerivedType(tag: DW_TAG_member, name: "__0", scope: !1031, file: !10, baseType: !634, size: 128, align: 64, flags: DIFlagPublic)
!1034 = !{!1035, !1036}
!1035 = !DITemplateTypeParameter(name: "T", type: !634)
!1036 = !DITemplateTypeParameter(name: "E", type: !1037)
!1037 = !DICompositeType(tag: DW_TAG_structure_type, name: "LayoutError", scope: !635, file: !10, align: 8, flags: DIFlagPublic, elements: !29, identifier: "d2981f7b361f48fd5711b8af9fd3f0da")
!1038 = !DIDerivedType(tag: DW_TAG_member, name: "Err", scope: !1028, file: !10, baseType: !1039, size: 128, align: 64, extraData: i128 0)
!1039 = !DICompositeType(tag: DW_TAG_structure_type, name: "Err", scope: !1026, file: !10, size: 128, align: 64, flags: DIFlagPublic, elements: !1040, templateParams: !1034, identifier: "33aa606e206d10247e87302523d582a9")
!1040 = !{!1041}
!1041 = !DIDerivedType(tag: DW_TAG_member, name: "__0", scope: !1039, file: !10, baseType: !1037, align: 8, flags: DIFlagPublic)
!1042 = !DIDerivedType(tag: DW_TAG_member, scope: !1026, file: !10, baseType: !195, size: 64, align: 64, flags: DIFlagArtificial)
!1043 = !DICompositeType(tag: DW_TAG_structure_type, name: "Option<(core::ptr::non_null::NonNull<u8>, core::alloc::layout::Layout)>", scope: !578, file: !10, size: 192, align: 64, flags: DIFlagPublic, elements: !1044, templateParams: !29, identifier: "91630c39dcafe7dedfa1007dfd651463")
!1044 = !{!1045}
!1045 = !DICompositeType(tag: DW_TAG_variant_part, scope: !1043, file: !10, size: 192, align: 64, elements: !1046, templateParams: !29, identifier: "f1c07b66faef3ea2c3969f0460fb5b", discriminator: !1059)
!1046 = !{!1047, !1055}
!1047 = !DIDerivedType(tag: DW_TAG_member, name: "None", scope: !1045, file: !10, baseType: !1048, size: 192, align: 64, extraData: i128 0)
!1048 = !DICompositeType(tag: DW_TAG_structure_type, name: "None", scope: !1043, file: !10, size: 192, align: 64, flags: DIFlagPublic, elements: !29, templateParams: !1049, identifier: "da1e5e26ce02592858efbaacc18fc7bb")
!1049 = !{!1050}
!1050 = !DITemplateTypeParameter(name: "T", type: !1051)
!1051 = !DICompositeType(tag: DW_TAG_structure_type, name: "(core::ptr::non_null::NonNull<u8>, core::alloc::layout::Layout)", file: !10, size: 192, align: 64, elements: !1052, templateParams: !29, identifier: "10d96848229c9e51a3a4a3a9d1ab55e4")
!1052 = !{!1053, !1054}
!1053 = !DIDerivedType(tag: DW_TAG_member, name: "__0", scope: !1051, file: !10, baseType: !630, size: 64, align: 64)
!1054 = !DIDerivedType(tag: DW_TAG_member, name: "__1", scope: !1051, file: !10, baseType: !634, size: 128, align: 64, offset: 64)
!1055 = !DIDerivedType(tag: DW_TAG_member, name: "Some", scope: !1045, file: !10, baseType: !1056, size: 192, align: 64)
!1056 = !DICompositeType(tag: DW_TAG_structure_type, name: "Some", scope: !1043, file: !10, size: 192, align: 64, flags: DIFlagPublic, elements: !1057, templateParams: !1049, identifier: "70e22c2da201d0c9b02f84657b2e0e5c")
!1057 = !{!1058}
!1058 = !DIDerivedType(tag: DW_TAG_member, name: "__0", scope: !1056, file: !10, baseType: !1051, size: 192, align: 64, flags: DIFlagPublic)
!1059 = !DIDerivedType(tag: DW_TAG_member, scope: !1043, file: !10, baseType: !195, size: 64, align: 64, offset: 64, flags: DIFlagArtificial)
!1060 = !DIDerivedType(tag: DW_TAG_pointer_type, name: "&mut alloc::alloc::Global", baseType: !148, size: 64, align: 64, dwarfAddressSpace: 0)
!1061 = !{!1062, !1063, !1064, !1065, !1067, !1088, !1090, !1105, !1107, !1125, !1127, !1128, !1133, !1134}
!1062 = !DILocalVariable(name: "new_layout", arg: 1, scope: !982, file: !983, line: 553, type: !1026)
!1063 = !DILocalVariable(name: "current_memory", arg: 2, scope: !982, file: !983, line: 554, type: !1043)
!1064 = !DILocalVariable(name: "alloc", arg: 3, scope: !982, file: !983, line: 555, type: !1060)
!1065 = !DILocalVariable(name: "new_layout", scope: !1066, file: !983, line: 561, type: !634, align: 8)
!1066 = distinct !DILexicalBlock(scope: !982, file: !983, line: 561, column: 5)
!1067 = !DILocalVariable(name: "residual", scope: !1068, file: !983, line: 561, type: !1069, align: 8)
!1068 = distinct !DILexicalBlock(scope: !982, file: !983, line: 561, column: 62)
!1069 = !DICompositeType(tag: DW_TAG_structure_type, name: "Result<core::convert::Infallible, alloc::collections::TryReserveErrorKind>", scope: !376, file: !10, size: 128, align: 64, flags: DIFlagPublic, elements: !1070, templateParams: !29, identifier: "e296b9b6f57d983341227331a43d879a")
!1070 = !{!1071}
!1071 = !DICompositeType(tag: DW_TAG_variant_part, scope: !1069, file: !10, size: 128, align: 64, elements: !1072, templateParams: !29, identifier: "5752f60c93c3b54a9a088b2a90e9646b")
!1072 = !{!1073, !1084}
!1073 = !DIDerivedType(tag: DW_TAG_member, name: "Ok", scope: !1071, file: !10, baseType: !1074, size: 128, align: 64)
!1074 = !DICompositeType(tag: DW_TAG_structure_type, name: "Ok", scope: !1069, file: !10, size: 128, align: 64, flags: DIFlagPublic, elements: !1075, templateParams: !1081, identifier: "2c4a05917239fe713a58f829485ed794")
!1075 = !{!1076}
!1076 = !DIDerivedType(tag: DW_TAG_member, name: "__0", scope: !1074, file: !10, baseType: !1077, align: 8, flags: DIFlagPublic)
!1077 = !DICompositeType(tag: DW_TAG_structure_type, name: "Infallible", scope: !1078, file: !10, align: 8, flags: DIFlagPublic, elements: !1079, templateParams: !29, identifier: "99e46428226604db6e999ddc0c603fff")
!1078 = !DINamespace(name: "convert", scope: !20)
!1079 = !{!1080}
!1080 = !DICompositeType(tag: DW_TAG_variant_part, scope: !1077, file: !10, align: 8, elements: !29, identifier: "60b45785fd7a746e1e97f9376819176")
!1081 = !{!1082, !1083}
!1082 = !DITemplateTypeParameter(name: "T", type: !1077)
!1083 = !DITemplateTypeParameter(name: "E", type: !1009)
!1084 = !DIDerivedType(tag: DW_TAG_member, name: "Err", scope: !1071, file: !10, baseType: !1085, size: 128, align: 64)
!1085 = !DICompositeType(tag: DW_TAG_structure_type, name: "Err", scope: !1069, file: !10, size: 128, align: 64, flags: DIFlagPublic, elements: !1086, templateParams: !1081, identifier: "d710ba8461d0e1895882fa0fae8a97e7")
!1086 = !{!1087}
!1087 = !DIDerivedType(tag: DW_TAG_member, name: "__0", scope: !1085, file: !10, baseType: !1009, size: 128, align: 64, flags: DIFlagPublic)
!1088 = !DILocalVariable(name: "val", scope: !1089, file: !983, line: 561, type: !634, align: 8)
!1089 = distinct !DILexicalBlock(scope: !982, file: !983, line: 561, column: 22)
!1090 = !DILocalVariable(name: "residual", scope: !1091, file: !983, line: 563, type: !1092, align: 8)
!1091 = distinct !DILexicalBlock(scope: !1066, file: !983, line: 563, column: 35)
!1092 = !DICompositeType(tag: DW_TAG_structure_type, name: "Result<core::convert::Infallible, alloc::collections::TryReserveError>", scope: !376, file: !10, size: 128, align: 64, flags: DIFlagPublic, elements: !1093, templateParams: !29, identifier: "b3b187fcdcac144ea9a33cd249db9e")
!1093 = !{!1094}
!1094 = !DICompositeType(tag: DW_TAG_variant_part, scope: !1092, file: !10, size: 128, align: 64, elements: !1095, templateParams: !29, identifier: "339d599c78120bd36369d0197f0f2bf8")
!1095 = !{!1096, !1101}
!1096 = !DIDerivedType(tag: DW_TAG_member, name: "Ok", scope: !1094, file: !10, baseType: !1097, size: 128, align: 64)
!1097 = !DICompositeType(tag: DW_TAG_structure_type, name: "Ok", scope: !1092, file: !10, size: 128, align: 64, flags: DIFlagPublic, elements: !1098, templateParams: !1100, identifier: "8251778dadcbf6db10c37fc3b19c0024")
!1098 = !{!1099}
!1099 = !DIDerivedType(tag: DW_TAG_member, name: "__0", scope: !1097, file: !10, baseType: !1077, align: 8, flags: DIFlagPublic)
!1100 = !{!1082, !1004}
!1101 = !DIDerivedType(tag: DW_TAG_member, name: "Err", scope: !1094, file: !10, baseType: !1102, size: 128, align: 64)
!1102 = !DICompositeType(tag: DW_TAG_structure_type, name: "Err", scope: !1092, file: !10, size: 128, align: 64, flags: DIFlagPublic, elements: !1103, templateParams: !1100, identifier: "25068c829dcc43148a2f861287572bdd")
!1103 = !{!1104}
!1104 = !DIDerivedType(tag: DW_TAG_member, name: "__0", scope: !1102, file: !10, baseType: !1005, size: 128, align: 64, flags: DIFlagPublic)
!1105 = !DILocalVariable(name: "val", scope: !1106, file: !983, line: 563, type: !127, align: 1)
!1106 = distinct !DILexicalBlock(scope: !1066, file: !983, line: 563, column: 5)
!1107 = !DILocalVariable(name: "memory", scope: !1108, file: !983, line: 565, type: !1109, align: 8)
!1108 = distinct !DILexicalBlock(scope: !1066, file: !983, line: 565, column: 5)
!1109 = !DICompositeType(tag: DW_TAG_structure_type, name: "Result<core::ptr::non_null::NonNull<[u8]>, core::alloc::AllocError>", scope: !376, file: !10, size: 128, align: 64, flags: DIFlagPublic, elements: !1110, templateParams: !29, identifier: "69476ecdc68b549e255d58e805d418e1")
!1110 = !{!1111}
!1111 = !DICompositeType(tag: DW_TAG_variant_part, scope: !1109, file: !10, size: 128, align: 64, elements: !1112, templateParams: !29, identifier: "58148ccf6cdf93e5c99fea0eb3a42241", discriminator: !1124)
!1112 = !{!1113, !1120}
!1113 = !DIDerivedType(tag: DW_TAG_member, name: "Ok", scope: !1111, file: !10, baseType: !1114, size: 128, align: 64)
!1114 = !DICompositeType(tag: DW_TAG_structure_type, name: "Ok", scope: !1109, file: !10, size: 128, align: 64, flags: DIFlagPublic, elements: !1115, templateParams: !1117, identifier: "e66dc4b4b49f1926a26d416561eb60dc")
!1115 = !{!1116}
!1116 = !DIDerivedType(tag: DW_TAG_member, name: "__0", scope: !1114, file: !10, baseType: !995, size: 128, align: 64, flags: DIFlagPublic)
!1117 = !{!1003, !1118}
!1118 = !DITemplateTypeParameter(name: "E", type: !1119)
!1119 = !DICompositeType(tag: DW_TAG_structure_type, name: "AllocError", scope: !626, file: !10, align: 8, flags: DIFlagPublic, elements: !29, identifier: "d03678c8e223272325250dce3c09a8c1")
!1120 = !DIDerivedType(tag: DW_TAG_member, name: "Err", scope: !1111, file: !10, baseType: !1121, size: 128, align: 64, extraData: i128 0)
!1121 = !DICompositeType(tag: DW_TAG_structure_type, name: "Err", scope: !1109, file: !10, size: 128, align: 64, flags: DIFlagPublic, elements: !1122, templateParams: !1117, identifier: "d5f21a4859e1af391c90fd1aa5fecc78")
!1122 = !{!1123}
!1123 = !DIDerivedType(tag: DW_TAG_member, name: "__0", scope: !1121, file: !10, baseType: !1119, align: 8, flags: DIFlagPublic)
!1124 = !DIDerivedType(tag: DW_TAG_member, scope: !1109, file: !10, baseType: !195, size: 64, align: 64, flags: DIFlagArtificial)
!1125 = !DILocalVariable(name: "ptr", scope: !1126, file: !983, line: 565, type: !630, align: 8)
!1126 = distinct !DILexicalBlock(scope: !1066, file: !983, line: 565, column: 66)
!1127 = !DILocalVariable(name: "old_layout", scope: !1126, file: !983, line: 565, type: !634, align: 8)
!1128 = !DILocalVariable(name: "left_val", scope: !1129, file: !983, line: 566, type: !1132, align: 8)
!1129 = !DILexicalBlockFile(scope: !1130, file: !983, discriminator: 0)
!1130 = distinct !DILexicalBlock(scope: !1126, file: !1131, line: 39, column: 13)
!1131 = !DIFile(filename: "/home/arsalan/Documents/Github/unsafe-rust-benchmark/library/core/src/macros/mod.rs", directory: "", checksumkind: CSK_MD5, checksum: "ce7e9e584d23e87cb143e4f77a5b9149")
!1132 = !DIDerivedType(tag: DW_TAG_pointer_type, name: "&usize", baseType: !80, size: 64, align: 64, dwarfAddressSpace: 0)
!1133 = !DILocalVariable(name: "right_val", scope: !1129, file: !983, line: 566, type: !1132, align: 8)
!1134 = !DILocalVariable(name: "kind", scope: !1135, file: !983, line: 566, type: !338, align: 1)
!1135 = !DILexicalBlockFile(scope: !1136, file: !983, discriminator: 0)
