; ModuleID = 'futures_util.189b71d2afac8c40-cgu.0'
source_filename = "futures_util.189b71d2afac8c40-cgu.0"
target datalayout = "e-m:e-p270:32:32-p271:32:32-p272:64:64-i64:64-i128:128-f80:128-n8:16:32:64-S128"
target triple = "x86_64-unknown-linux-gnu"

%"core::sync::atomic::AtomicUsize" = type { i64 }
%"slab::Entry<core::option::Option<core::task::wake::Waker>>" = type { i64, [2 x i64] }

@_ZN3std9panicking11panic_count18GLOBAL_PANIC_COUNT17h00e7dcd913cdfbe0E = external local_unnamed_addr global %"core::sync::atomic::AtomicUsize"
@vtable.0 = private constant <{ [24 x i8], ptr, ptr }> <{ [24 x i8] c"\00\00\00\00\00\00\00\00\10\00\00\00\00\00\00\00\08\00\00\00\00\00\00\00", ptr @"_ZN91_$LT$std..panicking..begin_panic..Payload$LT$A$GT$$u20$as$u20$core..panic..PanicPayload$GT$8take_box17h61e6caec6f3d0d6fE", ptr @"_ZN91_$LT$std..panicking..begin_panic..Payload$LT$A$GT$$u20$as$u20$core..panic..PanicPayload$GT$3get17h65661c684ed79500E" }>, align 8, !dbg !0
@alloc_00ae4b301f7fab8ac9617c03fcbd7274 = private unnamed_addr constant <{ [43 x i8] }> <{ [43 x i8] c"called `Result::unwrap()` on an `Err` value" }>, align 1
@vtable.2 = private constant <{ ptr, [16 x i8], ptr }> <{ ptr @"_ZN4core3ptr192drop_in_place$LT$std..sync..poison..PoisonError$LT$std..sync..mutex..MutexGuard$LT$core..option..Option$LT$slab..Slab$LT$core..option..Option$LT$core..task..wake..Waker$GT$$GT$$GT$$GT$$GT$$GT$17haeaf9760c07a212bE", [16 x i8] c"\10\00\00\00\00\00\00\00\08\00\00\00\00\00\00\00", ptr @"_ZN76_$LT$std..sync..poison..PoisonError$LT$T$GT$$u20$as$u20$core..fmt..Debug$GT$3fmt17he8a960ad3b409cc0E" }>, align 8, !dbg !44
@alloc_9bc96f7544a2a4e30fc9ca495ef8a128 = private unnamed_addr constant <{ [20 x i8] }> <{ [20 x i8] c"Arc counter overflow" }>, align 1
@alloc_7742fec9f2f2fc19935953991c560506 = private unnamed_addr constant <{ ptr, [8 x i8] }> <{ ptr @alloc_9bc96f7544a2a4e30fc9ca495ef8a128, [8 x i8] c"\14\00\00\00\00\00\00\00" }>, align 8
@alloc_d2eedeb181f35d1cc719bc1229bfadb2 = private unnamed_addr constant <{ [78 x i8] }> <{ [78 x i8] c"/home/arsalan/Documents/Github/unsafe-rust-benchmark/library/alloc/src/sync.rs" }>, align 1
@alloc_81c063577ec6f7dad1902094dfce8f20 = private unnamed_addr constant <{ ptr, [16 x i8] }> <{ ptr @alloc_d2eedeb181f35d1cc719bc1229bfadb2, [16 x i8] c"N\00\00\00\00\00\00\00\80\06\00\00\0D\00\00\00" }>, align 8
@alloc_b99730e73100e73a81f4fbfe74b3821d = private unnamed_addr constant <{ ptr, [8 x i8] }> <{ ptr inttoptr (i64 1 to ptr), [8 x i8] zeroinitializer }>, align 8
@__rust_no_alloc_shim_is_unstable = external global i8
@alloc_8e2410b80645266732854088d21653bc = private unnamed_addr constant <{ [11 x i8] }> <{ [11 x i8] c"PoisonError" }>, align 1
@vtable.3 = private constant <{ [24 x i8], ptr }> <{ [24 x i8] c"\00\00\00\00\00\00\00\00\10\00\00\00\00\00\00\00\08\00\00\00\00\00\00\00", ptr @"_ZN36_$LT$T$u20$as$u20$core..any..Any$GT$7type_id17h7692f4a3877cc68bE" }>, align 8, !dbg !212
@alloc_baaddcc40455cfefd9533a5168d3cad8 = private unnamed_addr constant <{ [114 x i8] }> <{ [114 x i8] c"/home/arsalan/.cargo/registry/src/index.crates.io-1949cf8c6b5b557f/futures-util-0.3.29/src/future/future/shared.rs" }>, align 1
@alloc_e2f4156ab5349a93bfa6d3bf51b55a1c = private unnamed_addr constant <{ ptr, [16 x i8] }> <{ ptr @alloc_baaddcc40455cfefd9533a5168d3cad8, [16 x i8] c"r\00\00\00\00\00\00\00\8A\01\00\003\00\00\00" }>, align 8
@alloc_b56f035dd22e39f2746cc20252afc6e1 = private unnamed_addr constant <{ [124 x i8] }> <{ [124 x i8] c"/home/arsalan/.cargo/registry/src/index.crates.io-1949cf8c6b5b557f/futures-util-0.3.29/src/stream/futures_unordered/abort.rs" }>, align 1
@alloc_f1d6ac324d308e91a7dd93cfe9a524a7 = private unnamed_addr constant <{ ptr, [16 x i8] }> <{ ptr @alloc_b56f035dd22e39f2746cc20252afc6e1, [16 x i8] c"|\00\00\00\00\00\00\00\0B\00\00\00\05\00\00\00" }>, align 8
@alloc_6894d1d9f252bae3000846f6e88f73ae = private unnamed_addr constant <{ [36 x i8] }> <{ [36 x i8] c"panicking twice to abort the program" }>, align 1
@alloc_63a93006b46a5740bbc7db3b34dfa379 = private unnamed_addr constant <{ ptr, [16 x i8] }> <{ ptr @alloc_b56f035dd22e39f2746cc20252afc6e1, [16 x i8] c"|\00\00\00\00\00\00\00\06\00\00\00\0D\00\00\00" }>, align 8
@alloc_a36dee15417047f6cf850c81d5c249fa = private unnamed_addr constant <{ [31 x i8] }> <{ [31 x i8] c"future still here when dropping" }>, align 1
@alloc_023d394817cce2cf3e935c1023202862 = private unnamed_addr constant <{ [35 x i8] }> <{ [35 x i8] c"`Abortable` future has been aborted" }>, align 1
@alloc_cac792c033a4bf65b5e924cfd5f01ae0 = private unnamed_addr constant <{ [12 x i8] }> <{ [12 x i8] c"merge_result" }>, align 1

; <T as core::any::Any>::type_id
; Function Attrs: mustprogress nofree norecurse nosync nounwind nonlazybind willreturn memory(none) uwtable
define internal { i64, i64 } @"_ZN36_$LT$T$u20$as$u20$core..any..Any$GT$7type_id17h7692f4a3877cc68bE"(ptr noalias nocapture readonly align 8 %self) unnamed_addr #0 !dbg !325 {
start:
  tail call void @llvm.dbg.value(metadata ptr poison, metadata !340, metadata !DIExpression()), !dbg !341
  ret { i64, i64 } { i64 -5076933981314334344, i64 7199936582794304877 }, !dbg !342
}

; std::sys_common::backtrace::__rust_end_short_backtrace
; Function Attrs: noinline noreturn nonlazybind uwtable
define internal fastcc void @_ZN3std10sys_common9backtrace26__rust_end_short_backtrace17h6e7f2ab67aed6ef6E(ptr noalias nocapture noundef readonly align 8 dereferenceable(24) %f) unnamed_addr #1 !dbg !343 {
start:
  call void @llvm.dbg.declare(metadata ptr undef, metadata !369, metadata !DIExpression()), !dbg !379
  call void @llvm.dbg.declare(metadata ptr undef, metadata !363, metadata !DIExpression()), !dbg !381
  call void @llvm.dbg.declare(metadata ptr %f, metadata !362, metadata !DIExpression()), !dbg !382
; call std::panicking::begin_panic::{{closure}}
  tail call fastcc void @"_ZN3std9panicking11begin_panic28_$u7b$$u7b$closure$u7d$$u7d$17h058ff2f169486bb8E"(ptr noalias nocapture noundef nonnull align 8 dereferenceable(24) %f) #24, !dbg !383
  unreachable, !dbg !384
}

; std::panicking::begin_panic
; Function Attrs: cold noinline noreturn nonlazybind uwtable
define internal fastcc void @_ZN3std9panicking11begin_panic17h54355bcf1f160d65E() unnamed_addr #2 !dbg !385 {
start:
  %_3 = alloca [24 x i8], align 8
  tail call void @llvm.dbg.value(metadata ptr @alloc_6894d1d9f252bae3000846f6e88f73ae, metadata !390, metadata !DIExpression(DW_OP_LLVM_fragment, 0, 64)), !dbg !395
  tail call void @llvm.dbg.value(metadata i64 36, metadata !390, metadata !DIExpression(DW_OP_LLVM_fragment, 64, 64)), !dbg !395
  tail call void @llvm.dbg.value(metadata ptr @alloc_63a93006b46a5740bbc7db3b34dfa379, metadata !391, metadata !DIExpression()), !dbg !396
  call void @llvm.lifetime.start.p0(i64 24, ptr nonnull %_3), !dbg !397
  store ptr @alloc_6894d1d9f252bae3000846f6e88f73ae, ptr %_3, align 8, !dbg !397
  %0 = getelementptr inbounds i8, ptr %_3, i64 8, !dbg !397
  store i64 36, ptr %0, align 8, !dbg !397
  %1 = getelementptr inbounds i8, ptr %_3, i64 16, !dbg !397
  store ptr @alloc_63a93006b46a5740bbc7db3b34dfa379, ptr %1, align 8, !dbg !397
; call std::sys_common::backtrace::__rust_end_short_backtrace
  call fastcc void @_ZN3std10sys_common9backtrace26__rust_end_short_backtrace17h6e7f2ab67aed6ef6E(ptr noalias nocapture noundef nonnull align 8 dereferenceable(24) %_3) #24, !dbg !398
  unreachable, !dbg !398
}

; std::panicking::begin_panic::{{closure}}
; Function Attrs: inlinehint noreturn nonlazybind uwtable
define internal fastcc void @"_ZN3std9panicking11begin_panic28_$u7b$$u7b$closure$u7d$$u7d$17h058ff2f169486bb8E"(ptr noalias nocapture noundef readonly align 8 dereferenceable(24) %_1) unnamed_addr #3 personality ptr @rust_eh_personality !dbg !399 {
start:
  %_4 = alloca [16 x i8], align 8
  call void @llvm.dbg.declare(metadata ptr %_1, metadata !401, metadata !DIExpression()), !dbg !403
  call void @llvm.dbg.declare(metadata ptr %_1, metadata !402, metadata !DIExpression(DW_OP_plus_uconst, 16)), !dbg !404
  call void @llvm.lifetime.start.p0(i64 16, ptr nonnull %_4), !dbg !405
  %inner.0 = load ptr, ptr %_1, align 8, !dbg !406, !nonnull !27, !align !407, !noundef !27
  %0 = getelementptr inbounds i8, ptr %_1, i64 8, !dbg !406
  %inner.1 = load i64, ptr %0, align 8, !dbg !406, !noundef !27
  tail call void @llvm.dbg.value(metadata ptr %inner.0, metadata !408, metadata !DIExpression(DW_OP_LLVM_fragment, 0, 64)), !dbg !415
  tail call void @llvm.dbg.value(metadata i64 %inner.1, metadata !408, metadata !DIExpression(DW_OP_LLVM_fragment, 64, 64)), !dbg !415
  store ptr %inner.0, ptr %_4, align 8, !dbg !416
  %1 = getelementptr inbounds i8, ptr %_4, i64 8, !dbg !416
  store i64 %inner.1, ptr %1, align 8, !dbg !416
  %2 = getelementptr inbounds i8, ptr %_1, i64 16, !dbg !417
  %_6 = load ptr, ptr %2, align 8, !dbg !417, !nonnull !27, !align !418, !noundef !27
; call std::panicking::rust_panic_with_hook
  call void @_ZN3std9panicking20rust_panic_with_hook17h68d2bb7086845887E(ptr noundef nonnull align 1 %_4, ptr noalias noundef nonnull readonly align 8 dereferenceable(40) @vtable.0, ptr noalias noundef readonly align 8 dereferenceable_or_null(48) null, ptr noalias noundef nonnull readonly align 8 dereferenceable(24) %_6, i1 noundef zeroext true, i1 noundef zeroext false) #24, !dbg !419
  unreachable
}

; <&T as core::fmt::Display>::fmt
; Function Attrs: nonlazybind uwtable
define internal noundef zeroext i1 @"_ZN44_$LT$$RF$T$u20$as$u20$core..fmt..Display$GT$3fmt17h1ed6cd18161a2d73E"(ptr noalias nocapture noundef readonly align 8 dereferenceable(16) %self, ptr noalias noundef align 8 dereferenceable(64) %f) unnamed_addr #4 !dbg !420 {
start:
  tail call void @llvm.dbg.value(metadata ptr %self, metadata !476, metadata !DIExpression()), !dbg !478
  tail call void @llvm.dbg.value(metadata ptr %f, metadata !477, metadata !DIExpression()), !dbg !478
  %_3.0 = load ptr, ptr %self, align 8, !dbg !479, !nonnull !27, !align !407, !noundef !27
  %0 = getelementptr inbounds i8, ptr %self, i64 8, !dbg !479
  %_3.1 = load i64, ptr %0, align 8, !dbg !479, !noundef !27
; call <str as core::fmt::Display>::fmt
  %_0 = tail call noundef zeroext i1 @"_ZN42_$LT$str$u20$as$u20$core..fmt..Display$GT$3fmt17h49e1caa39cb6eebbE"(ptr noalias noundef nonnull readonly align 1 %_3.0, i64 noundef %_3.1, ptr noalias noundef nonnull align 8 dereferenceable(64) %f), !dbg !480
  ret i1 %_0, !dbg !481
}

; core::ptr::drop_in_place<futures_util::stream::futures_unordered::task::Task<futures_task::future_obj::FutureObj<()>>>
; Function Attrs: nonlazybind uwtable
define internal fastcc void @"_ZN4core3ptr131drop_in_place$LT$futures_util..stream..futures_unordered..task..Task$LT$futures_task..future_obj..FutureObj$LT$$LP$$RP$$GT$$GT$$GT$17h3c65baddf12ccbf8E"(ptr noalias nocapture noundef readonly align 8 dereferenceable(72) %_1) unnamed_addr #4 personality ptr @rust_eh_personality !dbg !482 {
start:
  tail call void @llvm.dbg.value(metadata ptr %_1, metadata !626, metadata !DIExpression()), !dbg !627
  %0 = getelementptr inbounds i8, ptr %_1, i64 8, !dbg !628
  %_1.val = load ptr, ptr %0, align 8, !dbg !628, !noundef !27
  call void @llvm.dbg.value(metadata ptr undef, metadata !629, metadata !DIExpression()), !dbg !637
  call void @llvm.dbg.value(metadata ptr poison, metadata !639, metadata !DIExpression()), !dbg !649
  %1 = icmp eq ptr %_1.val, null, !dbg !651
  br i1 %1, label %bb5, label %bb2.i, !dbg !652

bb2.i:                                            ; preds = %start
; invoke futures_util::stream::futures_unordered::abort::abort
  invoke void @_ZN12futures_util6stream17futures_unordered5abort5abort17h7fec08aeba20eb3cE(ptr noalias noundef nonnull readonly align 1 @alloc_a36dee15417047f6cf850c81d5c249fa, i64 noundef 31) #24
          to label %.noexc unwind label %bb2.i.i, !dbg !655

.noexc:                                           ; preds = %bb2.i
  unreachable, !dbg !655

bb2.i.i:                                          ; preds = %bb2.i
  %2 = landingpad { ptr, i32 }
          cleanup
  call void @llvm.dbg.value(metadata ptr %0, metadata !656, metadata !DIExpression()), !dbg !664
  call void @llvm.dbg.value(metadata ptr %0, metadata !666, metadata !DIExpression()), !dbg !671
  call void @llvm.dbg.value(metadata ptr %0, metadata !673, metadata !DIExpression()), !dbg !679
  call void @llvm.dbg.value(metadata ptr %0, metadata !681, metadata !DIExpression()), !dbg !689
  call void @llvm.dbg.value(metadata ptr %0, metadata !691, metadata !DIExpression()), !dbg !699
  %3 = getelementptr inbounds i8, ptr %_1, i64 16, !dbg !701
  %_3.0.i.i.i.i.i = load ptr, ptr %3, align 8, !dbg !701, !alias.scope !702, !noundef !27, !unsafe_inst !713
  %4 = getelementptr inbounds i8, ptr %_1, i64 24, !dbg !701
  %_3.1.i.i.i.i.i = load ptr, ptr %4, align 8, !dbg !701, !alias.scope !702, !nonnull !27, !align !418, !noundef !27, !unsafe_inst !713
  invoke void %_1.val(ptr noundef %_3.0.i.i.i.i.i, ptr noalias noundef nonnull readonly align 8 dereferenceable(32) %_3.1.i.i.i.i.i)
          to label %bb3 unwind label %terminate, !dbg !714

bb3:                                              ; preds = %bb2.i.i
  %_1.val3 = load ptr, ptr %_1, align 8, !dbg !628, !alias.scope !715, !nonnull !27, !noundef !27
  call void @llvm.dbg.value(metadata ptr undef, metadata !718, metadata !DIExpression()), !dbg !726
  call void @llvm.dbg.value(metadata i64 1, metadata !728, metadata !DIExpression()), !dbg !739
  call void @llvm.dbg.value(metadata i8 1, metadata !738, metadata !DIExpression()), !dbg !739
  call void @llvm.dbg.value(metadata i64 1, metadata !758, metadata !DIExpression()), !dbg !767
  call void @llvm.dbg.value(metadata i8 1, metadata !766, metadata !DIExpression()), !dbg !767
  call void @llvm.dbg.value(metadata i8 2, metadata !769, metadata !DIExpression()), !dbg !775
  call void @llvm.dbg.value(metadata ptr undef, metadata !749, metadata !DIExpression()), !dbg !777
  call void @llvm.dbg.value(metadata ptr undef, metadata !778, metadata !DIExpression()), !dbg !802
  call void @llvm.dbg.value(metadata ptr %_1.val3, metadata !804, metadata !DIExpression()), !dbg !812
  call void @llvm.dbg.value(metadata ptr %_1.val3, metadata !799, metadata !DIExpression()), !dbg !814
  %_15.i.i = icmp eq ptr %_1.val3, inttoptr (i64 -1 to ptr), !dbg !815
  br i1 %_15.i.i, label %bb1, label %bb7.i.i, !dbg !816

bb7.i.i:                                          ; preds = %bb3
  %_18.i.i = getelementptr inbounds i8, ptr %_1.val3, i64 8, !dbg !817
  call void @llvm.dbg.value(metadata ptr %_18.i.i, metadata !750, metadata !DIExpression(DW_OP_LLVM_fragment, 0, 64)), !dbg !818
  call void @llvm.dbg.value(metadata ptr %_18.i.i, metadata !755, metadata !DIExpression(DW_OP_LLVM_fragment, 0, 64)), !dbg !819
  call void @llvm.dbg.value(metadata ptr %_18.i.i, metadata !737, metadata !DIExpression()), !dbg !739
  call void @llvm.dbg.value(metadata ptr %_1.val3, metadata !750, metadata !DIExpression(DW_OP_LLVM_fragment, 64, 64)), !dbg !818
  call void @llvm.dbg.value(metadata ptr %_1.val3, metadata !755, metadata !DIExpression(DW_OP_LLVM_fragment, 64, 64)), !dbg !819
  call void @llvm.dbg.value(metadata ptr %_18.i.i, metadata !765, metadata !DIExpression()), !dbg !767
  %5 = atomicrmw sub ptr %_18.i.i, i64 1 release, align 8, !dbg !820, !noalias !821
  %6 = icmp eq i64 %5, 1, !dbg !824
  br i1 %6, label %bb1.i.i, label %bb1, !dbg !824

bb1.i.i:                                          ; preds = %bb7.i.i
  fence acquire, !dbg !825
  call void @llvm.dbg.value(metadata i64 8, metadata !826, metadata !DIExpression(DW_OP_LLVM_fragment, 0, 64)), !dbg !849
  call void @llvm.dbg.value(metadata i64 64, metadata !826, metadata !DIExpression(DW_OP_LLVM_fragment, 64, 64)), !dbg !849
  call void @llvm.dbg.value(metadata ptr undef, metadata !847, metadata !DIExpression()), !dbg !849
  call void @llvm.dbg.value(metadata ptr %_1.val3, metadata !848, metadata !DIExpression()), !dbg !849
  call void @llvm.dbg.value(metadata ptr %_1.val3, metadata !851, metadata !DIExpression()), !dbg !859
  call void @llvm.dbg.value(metadata i64 8, metadata !858, metadata !DIExpression(DW_OP_LLVM_fragment, 0, 64)), !dbg !859
  call void @llvm.dbg.value(metadata i64 64, metadata !858, metadata !DIExpression(DW_OP_LLVM_fragment, 64, 64)), !dbg !859
  tail call void @__rust_dealloc(ptr noundef nonnull %_1.val3, i64 noundef 64, i64 noundef 8) #16, !dbg !861, !noalias !821
  br label %bb1, !dbg !862

bb5:                                              ; preds = %start
  call void @llvm.dbg.value(metadata ptr %0, metadata !656, metadata !DIExpression()), !dbg !863
  call void @llvm.dbg.value(metadata ptr %0, metadata !666, metadata !DIExpression()), !dbg !865
  %_1.val4 = load ptr, ptr %_1, align 8, !dbg !628, !alias.scope !715, !nonnull !27, !noundef !27
  call void @llvm.dbg.value(metadata ptr undef, metadata !718, metadata !DIExpression()), !dbg !867
  call void @llvm.dbg.value(metadata i64 1, metadata !728, metadata !DIExpression()), !dbg !869
  call void @llvm.dbg.value(metadata i8 1, metadata !738, metadata !DIExpression()), !dbg !869
  call void @llvm.dbg.value(metadata i64 1, metadata !758, metadata !DIExpression()), !dbg !872
  call void @llvm.dbg.value(metadata i8 1, metadata !766, metadata !DIExpression()), !dbg !872
  call void @llvm.dbg.value(metadata i8 2, metadata !769, metadata !DIExpression()), !dbg !874
  call void @llvm.dbg.value(metadata ptr undef, metadata !749, metadata !DIExpression()), !dbg !876
  call void @llvm.dbg.value(metadata ptr undef, metadata !778, metadata !DIExpression()), !dbg !877
  call void @llvm.dbg.value(metadata ptr %_1.val4, metadata !804, metadata !DIExpression()), !dbg !879
  call void @llvm.dbg.value(metadata ptr %_1.val4, metadata !799, metadata !DIExpression()), !dbg !881
  %_15.i.i11 = icmp eq ptr %_1.val4, inttoptr (i64 -1 to ptr), !dbg !882
  br i1 %_15.i.i11, label %"_ZN4core3ptr181drop_in_place$LT$alloc..sync..Weak$LT$futures_util..stream..futures_unordered..ready_to_run_queue..ReadyToRunQueue$LT$futures_task..future_obj..FutureObj$LT$$LP$$RP$$GT$$GT$$GT$$GT$17h14949ac4d8ba5ac5E.exit15", label %bb7.i.i12, !dbg !883

bb7.i.i12:                                        ; preds = %bb5
  %_18.i.i13 = getelementptr inbounds i8, ptr %_1.val4, i64 8, !dbg !884
  call void @llvm.dbg.value(metadata ptr %_18.i.i13, metadata !750, metadata !DIExpression(DW_OP_LLVM_fragment, 0, 64)), !dbg !885
  call void @llvm.dbg.value(metadata ptr %_18.i.i13, metadata !755, metadata !DIExpression(DW_OP_LLVM_fragment, 0, 64)), !dbg !886
  call void @llvm.dbg.value(metadata ptr %_18.i.i13, metadata !737, metadata !DIExpression()), !dbg !869
  call void @llvm.dbg.value(metadata ptr %_1.val4, metadata !750, metadata !DIExpression(DW_OP_LLVM_fragment, 64, 64)), !dbg !885
  call void @llvm.dbg.value(metadata ptr %_1.val4, metadata !755, metadata !DIExpression(DW_OP_LLVM_fragment, 64, 64)), !dbg !886
  call void @llvm.dbg.value(metadata ptr %_18.i.i13, metadata !765, metadata !DIExpression()), !dbg !872
  %7 = atomicrmw sub ptr %_18.i.i13, i64 1 release, align 8, !dbg !887, !noalias !888
  %8 = icmp eq i64 %7, 1, !dbg !891
  br i1 %8, label %bb1.i.i14, label %"_ZN4core3ptr181drop_in_place$LT$alloc..sync..Weak$LT$futures_util..stream..futures_unordered..ready_to_run_queue..ReadyToRunQueue$LT$futures_task..future_obj..FutureObj$LT$$LP$$RP$$GT$$GT$$GT$$GT$17h14949ac4d8ba5ac5E.exit15", !dbg !891

bb1.i.i14:                                        ; preds = %bb7.i.i12
  fence acquire, !dbg !892
  call void @llvm.dbg.value(metadata i64 8, metadata !826, metadata !DIExpression(DW_OP_LLVM_fragment, 0, 64)), !dbg !893
  call void @llvm.dbg.value(metadata i64 64, metadata !826, metadata !DIExpression(DW_OP_LLVM_fragment, 64, 64)), !dbg !893
  call void @llvm.dbg.value(metadata ptr undef, metadata !847, metadata !DIExpression()), !dbg !893
  call void @llvm.dbg.value(metadata ptr %_1.val4, metadata !848, metadata !DIExpression()), !dbg !893
  call void @llvm.dbg.value(metadata ptr %_1.val4, metadata !851, metadata !DIExpression()), !dbg !895
  call void @llvm.dbg.value(metadata i64 8, metadata !858, metadata !DIExpression(DW_OP_LLVM_fragment, 0, 64)), !dbg !895
  call void @llvm.dbg.value(metadata i64 64, metadata !858, metadata !DIExpression(DW_OP_LLVM_fragment, 64, 64)), !dbg !895
  tail call void @__rust_dealloc(ptr noundef nonnull %_1.val4, i64 noundef 64, i64 noundef 8) #16, !dbg !897, !noalias !888
  br label %"_ZN4core3ptr181drop_in_place$LT$alloc..sync..Weak$LT$futures_util..stream..futures_unordered..ready_to_run_queue..ReadyToRunQueue$LT$futures_task..future_obj..FutureObj$LT$$LP$$RP$$GT$$GT$$GT$$GT$17h14949ac4d8ba5ac5E.exit15", !dbg !898

"_ZN4core3ptr181drop_in_place$LT$alloc..sync..Weak$LT$futures_util..stream..futures_unordered..ready_to_run_queue..ReadyToRunQueue$LT$futures_task..future_obj..FutureObj$LT$$LP$$RP$$GT$$GT$$GT$$GT$17h14949ac4d8ba5ac5E.exit15": ; preds = %bb5, %bb7.i.i12, %bb1.i.i14
  ret void, !dbg !628

terminate:                                        ; preds = %bb2.i.i
  %9 = landingpad { ptr, i32 }
          filter [0 x ptr] zeroinitializer
; call core::panicking::panic_in_cleanup
  tail call void @_ZN4core9panicking16panic_in_cleanup17h43442956f23e9cbeE() #25, !dbg !628
  unreachable, !dbg !628

bb1:                                              ; preds = %bb1.i.i, %bb7.i.i, %bb3
  resume { ptr, i32 } %2, !dbg !628
}

; core::ptr::drop_in_place<futures_util::stream::futures_unordered::task::Task<futures_task::future_obj::LocalFutureObj<()>>>
; Function Attrs: nonlazybind uwtable
define internal fastcc void @"_ZN4core3ptr136drop_in_place$LT$futures_util..stream..futures_unordered..task..Task$LT$futures_task..future_obj..LocalFutureObj$LT$$LP$$RP$$GT$$GT$$GT$17h36fc798ff47941cfE"(ptr noalias nocapture noundef readonly align 8 dereferenceable(72) %_1) unnamed_addr #4 personality ptr @rust_eh_personality !dbg !899 {
start:
  tail call void @llvm.dbg.value(metadata ptr %_1, metadata !990, metadata !DIExpression()), !dbg !991
  %0 = getelementptr inbounds i8, ptr %_1, i64 8, !dbg !992
  %_1.val = load ptr, ptr %0, align 8, !dbg !992, !noundef !27
  call void @llvm.dbg.value(metadata ptr undef, metadata !993, metadata !DIExpression()), !dbg !999
  call void @llvm.dbg.value(metadata ptr poison, metadata !1001, metadata !DIExpression()), !dbg !1010
  %1 = icmp eq ptr %_1.val, null, !dbg !1012
  br i1 %1, label %bb5, label %bb2.i, !dbg !1013

bb2.i:                                            ; preds = %start
; invoke futures_util::stream::futures_unordered::abort::abort
  invoke void @_ZN12futures_util6stream17futures_unordered5abort5abort17h7fec08aeba20eb3cE(ptr noalias noundef nonnull readonly align 1 @alloc_a36dee15417047f6cf850c81d5c249fa, i64 noundef 31) #24
          to label %.noexc unwind label %bb2.i.i, !dbg !1015

.noexc:                                           ; preds = %bb2.i
  unreachable, !dbg !1015

bb2.i.i:                                          ; preds = %bb2.i
  %2 = landingpad { ptr, i32 }
          cleanup
  call void @llvm.dbg.value(metadata ptr %0, metadata !1016, metadata !DIExpression()), !dbg !1024
  call void @llvm.dbg.value(metadata ptr %0, metadata !1026, metadata !DIExpression()), !dbg !1031
  call void @llvm.dbg.value(metadata ptr %0, metadata !681, metadata !DIExpression()), !dbg !1033
  call void @llvm.dbg.value(metadata ptr %0, metadata !691, metadata !DIExpression()), !dbg !1035
  %3 = getelementptr inbounds i8, ptr %_1, i64 16, !dbg !1037
  %_3.0.i.i.i.i = load ptr, ptr %3, align 8, !dbg !1037, !alias.scope !1038, !noundef !27, !unsafe_inst !713
  %4 = getelementptr inbounds i8, ptr %_1, i64 24, !dbg !1037
  %_3.1.i.i.i.i = load ptr, ptr %4, align 8, !dbg !1037, !alias.scope !1038, !nonnull !27, !align !418, !noundef !27, !unsafe_inst !713
  invoke void %_1.val(ptr noundef %_3.0.i.i.i.i, ptr noalias noundef nonnull readonly align 8 dereferenceable(32) %_3.1.i.i.i.i)
          to label %bb3 unwind label %terminate, !dbg !1047

bb3:                                              ; preds = %bb2.i.i
  %_1.val3 = load ptr, ptr %_1, align 8, !dbg !992, !alias.scope !1048, !nonnull !27, !noundef !27
  call void @llvm.dbg.value(metadata ptr undef, metadata !1051, metadata !DIExpression()), !dbg !1059
  call void @llvm.dbg.value(metadata i64 1, metadata !1061, metadata !DIExpression()), !dbg !1067
  call void @llvm.dbg.value(metadata i8 1, metadata !1066, metadata !DIExpression()), !dbg !1067
  call void @llvm.dbg.value(metadata i64 1, metadata !1080, metadata !DIExpression()), !dbg !1086
  call void @llvm.dbg.value(metadata i8 1, metadata !1085, metadata !DIExpression()), !dbg !1086
  call void @llvm.dbg.value(metadata i8 2, metadata !1088, metadata !DIExpression()), !dbg !1092
  call void @llvm.dbg.value(metadata ptr undef, metadata !1075, metadata !DIExpression()), !dbg !1094
  call void @llvm.dbg.value(metadata ptr undef, metadata !1095, metadata !DIExpression()), !dbg !1106
  call void @llvm.dbg.value(metadata ptr %_1.val3, metadata !1108, metadata !DIExpression()), !dbg !1114
  call void @llvm.dbg.value(metadata ptr %_1.val3, metadata !1103, metadata !DIExpression()), !dbg !1116
  %_15.i.i = icmp eq ptr %_1.val3, inttoptr (i64 -1 to ptr), !dbg !1117
  br i1 %_15.i.i, label %bb1, label %bb7.i.i, !dbg !1118

bb7.i.i:                                          ; preds = %bb3
  %_18.i.i = getelementptr inbounds i8, ptr %_1.val3, i64 8, !dbg !1119
  call void @llvm.dbg.value(metadata ptr %_18.i.i, metadata !1076, metadata !DIExpression(DW_OP_LLVM_fragment, 0, 64)), !dbg !1120
  call void @llvm.dbg.value(metadata ptr %_18.i.i, metadata !1077, metadata !DIExpression(DW_OP_LLVM_fragment, 0, 64)), !dbg !1121
  call void @llvm.dbg.value(metadata ptr %_18.i.i, metadata !1065, metadata !DIExpression()), !dbg !1067
  call void @llvm.dbg.value(metadata ptr %_1.val3, metadata !1076, metadata !DIExpression(DW_OP_LLVM_fragment, 64, 64)), !dbg !1120
  call void @llvm.dbg.value(metadata ptr %_1.val3, metadata !1077, metadata !DIExpression(DW_OP_LLVM_fragment, 64, 64)), !dbg !1121
  call void @llvm.dbg.value(metadata ptr %_18.i.i, metadata !1084, metadata !DIExpression()), !dbg !1086
  %5 = atomicrmw sub ptr %_18.i.i, i64 1 release, align 8, !dbg !1122, !noalias !1123
  %6 = icmp eq i64 %5, 1, !dbg !1126
  br i1 %6, label %bb1.i.i, label %bb1, !dbg !1126

bb1.i.i:                                          ; preds = %bb7.i.i
  fence acquire, !dbg !1127
  call void @llvm.dbg.value(metadata i64 8, metadata !826, metadata !DIExpression(DW_OP_LLVM_fragment, 0, 64)), !dbg !1128
  call void @llvm.dbg.value(metadata i64 64, metadata !826, metadata !DIExpression(DW_OP_LLVM_fragment, 64, 64)), !dbg !1128
  call void @llvm.dbg.value(metadata ptr undef, metadata !847, metadata !DIExpression()), !dbg !1128
  call void @llvm.dbg.value(metadata ptr %_1.val3, metadata !848, metadata !DIExpression()), !dbg !1128
  call void @llvm.dbg.value(metadata ptr %_1.val3, metadata !851, metadata !DIExpression()), !dbg !1130
  call void @llvm.dbg.value(metadata i64 8, metadata !858, metadata !DIExpression(DW_OP_LLVM_fragment, 0, 64)), !dbg !1130
  call void @llvm.dbg.value(metadata i64 64, metadata !858, metadata !DIExpression(DW_OP_LLVM_fragment, 64, 64)), !dbg !1130
  tail call void @__rust_dealloc(ptr noundef nonnull %_1.val3, i64 noundef 64, i64 noundef 8) #16, !dbg !1132, !noalias !1123
  br label %bb1, !dbg !1133

bb5:                                              ; preds = %start
  call void @llvm.dbg.value(metadata ptr %0, metadata !1016, metadata !DIExpression()), !dbg !1134
  call void @llvm.dbg.value(metadata ptr %0, metadata !1026, metadata !DIExpression()), !dbg !1136
  %_1.val4 = load ptr, ptr %_1, align 8, !dbg !992, !alias.scope !1048, !nonnull !27, !noundef !27
  call void @llvm.dbg.value(metadata ptr undef, metadata !1051, metadata !DIExpression()), !dbg !1138
  call void @llvm.dbg.value(metadata i64 1, metadata !1061, metadata !DIExpression()), !dbg !1140
  call void @llvm.dbg.value(metadata i8 1, metadata !1066, metadata !DIExpression()), !dbg !1140
  call void @llvm.dbg.value(metadata i64 1, metadata !1080, metadata !DIExpression()), !dbg !1143
  call void @llvm.dbg.value(metadata i8 1, metadata !1085, metadata !DIExpression()), !dbg !1143
  call void @llvm.dbg.value(metadata i8 2, metadata !1088, metadata !DIExpression()), !dbg !1145
  call void @llvm.dbg.value(metadata ptr undef, metadata !1075, metadata !DIExpression()), !dbg !1147
  call void @llvm.dbg.value(metadata ptr undef, metadata !1095, metadata !DIExpression()), !dbg !1148
  call void @llvm.dbg.value(metadata ptr %_1.val4, metadata !1108, metadata !DIExpression()), !dbg !1150
  call void @llvm.dbg.value(metadata ptr %_1.val4, metadata !1103, metadata !DIExpression()), !dbg !1152
  %_15.i.i11 = icmp eq ptr %_1.val4, inttoptr (i64 -1 to ptr), !dbg !1153
  br i1 %_15.i.i11, label %"_ZN4core3ptr186drop_in_place$LT$alloc..sync..Weak$LT$futures_util..stream..futures_unordered..ready_to_run_queue..ReadyToRunQueue$LT$futures_task..future_obj..LocalFutureObj$LT$$LP$$RP$$GT$$GT$$GT$$GT$17h77f706cc15b8d561E.exit15", label %bb7.i.i12, !dbg !1154

bb7.i.i12:                                        ; preds = %bb5
  %_18.i.i13 = getelementptr inbounds i8, ptr %_1.val4, i64 8, !dbg !1155
  call void @llvm.dbg.value(metadata ptr %_18.i.i13, metadata !1076, metadata !DIExpression(DW_OP_LLVM_fragment, 0, 64)), !dbg !1156
  call void @llvm.dbg.value(metadata ptr %_18.i.i13, metadata !1077, metadata !DIExpression(DW_OP_LLVM_fragment, 0, 64)), !dbg !1157
  call void @llvm.dbg.value(metadata ptr %_18.i.i13, metadata !1065, metadata !DIExpression()), !dbg !1140
  call void @llvm.dbg.value(metadata ptr %_1.val4, metadata !1076, metadata !DIExpression(DW_OP_LLVM_fragment, 64, 64)), !dbg !1156
  call void @llvm.dbg.value(metadata ptr %_1.val4, metadata !1077, metadata !DIExpression(DW_OP_LLVM_fragment, 64, 64)), !dbg !1157
  call void @llvm.dbg.value(metadata ptr %_18.i.i13, metadata !1084, metadata !DIExpression()), !dbg !1143
  %7 = atomicrmw sub ptr %_18.i.i13, i64 1 release, align 8, !dbg !1158, !noalias !1159
  %8 = icmp eq i64 %7, 1, !dbg !1162
  br i1 %8, label %bb1.i.i14, label %"_ZN4core3ptr186drop_in_place$LT$alloc..sync..Weak$LT$futures_util..stream..futures_unordered..ready_to_run_queue..ReadyToRunQueue$LT$futures_task..future_obj..LocalFutureObj$LT$$LP$$RP$$GT$$GT$$GT$$GT$17h77f706cc15b8d561E.exit15", !dbg !1162

bb1.i.i14:                                        ; preds = %bb7.i.i12
  fence acquire, !dbg !1163
  call void @llvm.dbg.value(metadata i64 8, metadata !826, metadata !DIExpression(DW_OP_LLVM_fragment, 0, 64)), !dbg !1164
  call void @llvm.dbg.value(metadata i64 64, metadata !826, metadata !DIExpression(DW_OP_LLVM_fragment, 64, 64)), !dbg !1164
  call void @llvm.dbg.value(metadata ptr undef, metadata !847, metadata !DIExpression()), !dbg !1164
  call void @llvm.dbg.value(metadata ptr %_1.val4, metadata !848, metadata !DIExpression()), !dbg !1164
  call void @llvm.dbg.value(metadata ptr %_1.val4, metadata !851, metadata !DIExpression()), !dbg !1166
  call void @llvm.dbg.value(metadata i64 8, metadata !858, metadata !DIExpression(DW_OP_LLVM_fragment, 0, 64)), !dbg !1166
  call void @llvm.dbg.value(metadata i64 64, metadata !858, metadata !DIExpression(DW_OP_LLVM_fragment, 64, 64)), !dbg !1166
  tail call void @__rust_dealloc(ptr noundef nonnull %_1.val4, i64 noundef 64, i64 noundef 8) #16, !dbg !1168, !noalias !1159
  br label %"_ZN4core3ptr186drop_in_place$LT$alloc..sync..Weak$LT$futures_util..stream..futures_unordered..ready_to_run_queue..ReadyToRunQueue$LT$futures_task..future_obj..LocalFutureObj$LT$$LP$$RP$$GT$$GT$$GT$$GT$17h77f706cc15b8d561E.exit15", !dbg !1169

"_ZN4core3ptr186drop_in_place$LT$alloc..sync..Weak$LT$futures_util..stream..futures_unordered..ready_to_run_queue..ReadyToRunQueue$LT$futures_task..future_obj..LocalFutureObj$LT$$LP$$RP$$GT$$GT$$GT$$GT$17h77f706cc15b8d561E.exit15": ; preds = %bb5, %bb7.i.i12, %bb1.i.i14
  ret void, !dbg !992

terminate:                                        ; preds = %bb2.i.i
  %9 = landingpad { ptr, i32 }
          filter [0 x ptr] zeroinitializer
; call core::panicking::panic_in_cleanup
  tail call void @_ZN4core9panicking16panic_in_cleanup17h43442956f23e9cbeE() #25, !dbg !992
  unreachable, !dbg !992

bb1:                                              ; preds = %bb1.i.i, %bb7.i.i, %bb3
  resume { ptr, i32 } %2, !dbg !992
}

; core::ptr::drop_in_place<std::sync::mutex::MutexGuard<core::option::Option<slab::Slab<core::option::Option<core::task::wake::Waker>>>>>
; Function Attrs: nonlazybind uwtable
define internal fastcc void @"_ZN4core3ptr154drop_in_place$LT$std..sync..mutex..MutexGuard$LT$core..option..Option$LT$slab..Slab$LT$core..option..Option$LT$core..task..wake..Waker$GT$$GT$$GT$$GT$$GT$17h38897af18df5971dE"(ptr %_1.0.val, i8 %_1.8.val) unnamed_addr #4 !dbg !1170 {
start:
  tail call void @llvm.dbg.value(metadata ptr undef, metadata !1175, metadata !DIExpression()), !dbg !1176
  call void @llvm.dbg.value(metadata i32 0, metadata !1177, metadata !DIExpression()), !dbg !1187
  call void @llvm.dbg.value(metadata i8 1, metadata !1186, metadata !DIExpression()), !dbg !1187
  call void @llvm.dbg.value(metadata i32 0, metadata !1208, metadata !DIExpression()), !dbg !1217
  call void @llvm.dbg.value(metadata i8 1, metadata !1216, metadata !DIExpression()), !dbg !1217
  call void @llvm.dbg.value(metadata ptr undef, metadata !1206, metadata !DIExpression()), !dbg !1219
  %0 = icmp ne ptr %_1.0.val, null
  tail call void @llvm.assume(i1 %0)
  %_3.i = getelementptr inbounds i8, ptr %_1.0.val, i64 4, !dbg !1220
  call void @llvm.dbg.value(metadata ptr @_ZN3std9panicking11panic_count18GLOBAL_PANIC_COUNT17h00e7dcd913cdfbe0E, metadata !1221, metadata !DIExpression()), !dbg !1229
  call void @llvm.dbg.value(metadata i8 0, metadata !1228, metadata !DIExpression()), !dbg !1229
  call void @llvm.dbg.value(metadata i8 1, metadata !1256, metadata !DIExpression()), !dbg !1266
  call void @llvm.dbg.value(metadata i8 0, metadata !1265, metadata !DIExpression()), !dbg !1266
  call void @llvm.dbg.value(metadata ptr %_3.i, metadata !1253, metadata !DIExpression()), !dbg !1268
  call void @llvm.dbg.value(metadata ptr undef, metadata !1254, metadata !DIExpression()), !dbg !1268
  %_3.not.i.i = icmp eq i8 %_1.8.val, 0, !dbg !1269
  br i1 %_3.not.i.i, label %bb1.i.i, label %_ZN3std4sync6poison4Flag4done17h6b62417d8d60c5ceE.exit.i, !dbg !1269

bb1.i.i:                                          ; preds = %start
  call void @llvm.dbg.value(metadata i8 0, metadata !1270, metadata !DIExpression()), !dbg !1277
  call void @llvm.dbg.value(metadata ptr @_ZN3std9panicking11panic_count18GLOBAL_PANIC_COUNT17h00e7dcd913cdfbe0E, metadata !1276, metadata !DIExpression()), !dbg !1277
  %1 = load atomic i64, ptr @_ZN3std9panicking11panic_count18GLOBAL_PANIC_COUNT17h00e7dcd913cdfbe0E monotonic, align 8, !dbg !1279, !noalias !1280
  %_7.i.i = and i64 %1, 9223372036854775807, !dbg !1283
  %2 = icmp eq i64 %_7.i.i, 0, !dbg !1283
  br i1 %2, label %_ZN3std4sync6poison4Flag4done17h6b62417d8d60c5ceE.exit.i, label %bb6.i.i, !dbg !1283

bb6.i.i:                                          ; preds = %bb1.i.i
; call std::panicking::panic_count::is_zero_slow_path
  %_6.i.i = tail call noundef zeroext i1 @_ZN3std9panicking11panic_count17is_zero_slow_path17h24de30857bbd803cE(), !dbg !1284, !noalias !1280
  br i1 %_6.i.i, label %_ZN3std4sync6poison4Flag4done17h6b62417d8d60c5ceE.exit.i, label %bb2.i.i, !dbg !1285

bb2.i.i:                                          ; preds = %bb6.i.i
  call void @llvm.dbg.value(metadata ptr %_3.i, metadata !1264, metadata !DIExpression()), !dbg !1266
  call void @llvm.dbg.value(metadata i8 0, metadata !1286, metadata !DIExpression()), !dbg !1293
  call void @llvm.dbg.value(metadata ptr %_3.i, metadata !1291, metadata !DIExpression()), !dbg !1293
  call void @llvm.dbg.value(metadata i8 1, metadata !1292, metadata !DIExpression()), !dbg !1293
  store atomic i8 1, ptr %_3.i monotonic, align 1, !dbg !1295, !noalias !1280
  br label %_ZN3std4sync6poison4Flag4done17h6b62417d8d60c5ceE.exit.i, !dbg !1296

_ZN3std4sync6poison4Flag4done17h6b62417d8d60c5ceE.exit.i: ; preds = %bb2.i.i, %bb6.i.i, %bb1.i.i, %start
  call void @llvm.dbg.value(metadata ptr %_1.0.val, metadata !1197, metadata !DIExpression()), !dbg !1297
  call void @llvm.dbg.value(metadata ptr %_1.0.val, metadata !1185, metadata !DIExpression()), !dbg !1187
  call void @llvm.dbg.value(metadata ptr %_1.0.val, metadata !1215, metadata !DIExpression()), !dbg !1217
  %3 = atomicrmw xchg ptr %_1.0.val, i32 0 release, align 4, !dbg !1298, !noalias !1280
  %_8.i = icmp eq i32 %3, 2, !dbg !1299
  br i1 %_8.i, label %bb2.i, label %"_ZN79_$LT$std..sync..mutex..MutexGuard$LT$T$GT$$u20$as$u20$core..ops..drop..Drop$GT$4drop17h09ce0ce8cfedbd20E.exit", !dbg !1299

bb2.i:                                            ; preds = %_ZN3std4sync6poison4Flag4done17h6b62417d8d60c5ceE.exit.i
; call std::sys::sync::mutex::futex::Mutex::wake
  tail call void @_ZN3std3sys4sync5mutex5futex5Mutex4wake17hc487312157454c34E(ptr noundef nonnull align 4 %_1.0.val), !dbg !1300, !noalias !1280
  br label %"_ZN79_$LT$std..sync..mutex..MutexGuard$LT$T$GT$$u20$as$u20$core..ops..drop..Drop$GT$4drop17h09ce0ce8cfedbd20E.exit", !dbg !1300

"_ZN79_$LT$std..sync..mutex..MutexGuard$LT$T$GT$$u20$as$u20$core..ops..drop..Drop$GT$4drop17h09ce0ce8cfedbd20E.exit": ; preds = %_ZN3std4sync6poison4Flag4done17h6b62417d8d60c5ceE.exit.i, %bb2.i
  ret void, !dbg !1301
}

; core::ptr::drop_in_place<std::sync::poison::PoisonError<std::sync::mutex::MutexGuard<core::option::Option<slab::Slab<core::option::Option<core::task::wake::Waker>>>>>>
; Function Attrs: nonlazybind uwtable
define internal void @"_ZN4core3ptr192drop_in_place$LT$std..sync..poison..PoisonError$LT$std..sync..mutex..MutexGuard$LT$core..option..Option$LT$slab..Slab$LT$core..option..Option$LT$core..task..wake..Waker$GT$$GT$$GT$$GT$$GT$$GT$17haeaf9760c07a212bE"(ptr noalias nocapture noundef readonly align 8 dereferenceable(16) %_1) unnamed_addr #4 !dbg !1302 {
start:
  tail call void @llvm.dbg.value(metadata ptr %_1, metadata !1307, metadata !DIExpression()), !dbg !1310
  %_1.val = load ptr, ptr %_1, align 8, !dbg !1311, !alias.scope !1280, !nonnull !27, !align !418, !noundef !27
  %0 = getelementptr inbounds i8, ptr %_1, i64 8, !dbg !1311
  %_1.val1 = load i8, ptr %0, align 8, !dbg !1311, !range !1312, !alias.scope !1280, !noundef !27
  call void @llvm.dbg.value(metadata ptr undef, metadata !1175, metadata !DIExpression()), !dbg !1313
  call void @llvm.dbg.value(metadata i32 0, metadata !1177, metadata !DIExpression()), !dbg !1315
  call void @llvm.dbg.value(metadata i8 1, metadata !1186, metadata !DIExpression()), !dbg !1315
  call void @llvm.dbg.value(metadata i32 0, metadata !1208, metadata !DIExpression()), !dbg !1319
  call void @llvm.dbg.value(metadata i8 1, metadata !1216, metadata !DIExpression()), !dbg !1319
  call void @llvm.dbg.value(metadata ptr undef, metadata !1206, metadata !DIExpression()), !dbg !1321
  %_3.i.i = getelementptr inbounds i8, ptr %_1.val, i64 4, !dbg !1322
  call void @llvm.dbg.value(metadata ptr @_ZN3std9panicking11panic_count18GLOBAL_PANIC_COUNT17h00e7dcd913cdfbe0E, metadata !1221, metadata !DIExpression()), !dbg !1323
  call void @llvm.dbg.value(metadata i8 0, metadata !1228, metadata !DIExpression()), !dbg !1323
  call void @llvm.dbg.value(metadata i8 1, metadata !1256, metadata !DIExpression()), !dbg !1329
  call void @llvm.dbg.value(metadata i8 0, metadata !1265, metadata !DIExpression()), !dbg !1329
  call void @llvm.dbg.value(metadata ptr %_3.i.i, metadata !1253, metadata !DIExpression()), !dbg !1331
  call void @llvm.dbg.value(metadata ptr undef, metadata !1254, metadata !DIExpression()), !dbg !1331
  %_3.not.i.i.i = icmp eq i8 %_1.val1, 0, !dbg !1332
  br i1 %_3.not.i.i.i, label %bb1.i.i.i, label %_ZN3std4sync6poison4Flag4done17h6b62417d8d60c5ceE.exit.i.i, !dbg !1332

bb1.i.i.i:                                        ; preds = %start
  call void @llvm.dbg.value(metadata i8 0, metadata !1270, metadata !DIExpression()), !dbg !1333
  call void @llvm.dbg.value(metadata ptr @_ZN3std9panicking11panic_count18GLOBAL_PANIC_COUNT17h00e7dcd913cdfbe0E, metadata !1276, metadata !DIExpression()), !dbg !1333
  %1 = load atomic i64, ptr @_ZN3std9panicking11panic_count18GLOBAL_PANIC_COUNT17h00e7dcd913cdfbe0E monotonic, align 8, !dbg !1335, !noalias !1336
  %_7.i.i.i = and i64 %1, 9223372036854775807, !dbg !1339
  %2 = icmp eq i64 %_7.i.i.i, 0, !dbg !1339
  br i1 %2, label %_ZN3std4sync6poison4Flag4done17h6b62417d8d60c5ceE.exit.i.i, label %bb6.i.i.i, !dbg !1339

bb6.i.i.i:                                        ; preds = %bb1.i.i.i
; call std::panicking::panic_count::is_zero_slow_path
  %_6.i.i.i = tail call noundef zeroext i1 @_ZN3std9panicking11panic_count17is_zero_slow_path17h24de30857bbd803cE(), !dbg !1340, !noalias !1336
  br i1 %_6.i.i.i, label %_ZN3std4sync6poison4Flag4done17h6b62417d8d60c5ceE.exit.i.i, label %bb2.i.i.i, !dbg !1341

bb2.i.i.i:                                        ; preds = %bb6.i.i.i
  call void @llvm.dbg.value(metadata ptr %_3.i.i, metadata !1264, metadata !DIExpression()), !dbg !1329
  call void @llvm.dbg.value(metadata i8 0, metadata !1286, metadata !DIExpression()), !dbg !1342
  call void @llvm.dbg.value(metadata ptr %_3.i.i, metadata !1291, metadata !DIExpression()), !dbg !1342
  call void @llvm.dbg.value(metadata i8 1, metadata !1292, metadata !DIExpression()), !dbg !1342
  store atomic i8 1, ptr %_3.i.i monotonic, align 4, !dbg !1344, !noalias !1336
  br label %_ZN3std4sync6poison4Flag4done17h6b62417d8d60c5ceE.exit.i.i, !dbg !1345

_ZN3std4sync6poison4Flag4done17h6b62417d8d60c5ceE.exit.i.i: ; preds = %bb2.i.i.i, %bb6.i.i.i, %bb1.i.i.i, %start
  call void @llvm.dbg.value(metadata ptr %_1.val, metadata !1197, metadata !DIExpression()), !dbg !1346
  call void @llvm.dbg.value(metadata ptr %_1.val, metadata !1185, metadata !DIExpression()), !dbg !1315
  call void @llvm.dbg.value(metadata ptr %_1.val, metadata !1215, metadata !DIExpression()), !dbg !1319
  %3 = atomicrmw xchg ptr %_1.val, i32 0 release, align 4, !dbg !1347, !noalias !1336
  %_8.i.i = icmp eq i32 %3, 2, !dbg !1348
  br i1 %_8.i.i, label %bb2.i.i, label %"_ZN4core3ptr154drop_in_place$LT$std..sync..mutex..MutexGuard$LT$core..option..Option$LT$slab..Slab$LT$core..option..Option$LT$core..task..wake..Waker$GT$$GT$$GT$$GT$$GT$17h38897af18df5971dE.exit", !dbg !1348

bb2.i.i:                                          ; preds = %_ZN3std4sync6poison4Flag4done17h6b62417d8d60c5ceE.exit.i.i
; call std::sys::sync::mutex::futex::Mutex::wake
  tail call void @_ZN3std3sys4sync5mutex5futex5Mutex4wake17hc487312157454c34E(ptr noundef nonnull align 4 %_1.val), !dbg !1349, !noalias !1336
  br label %"_ZN4core3ptr154drop_in_place$LT$std..sync..mutex..MutexGuard$LT$core..option..Option$LT$slab..Slab$LT$core..option..Option$LT$core..task..wake..Waker$GT$$GT$$GT$$GT$$GT$17h38897af18df5971dE.exit", !dbg !1349

"_ZN4core3ptr154drop_in_place$LT$std..sync..mutex..MutexGuard$LT$core..option..Option$LT$slab..Slab$LT$core..option..Option$LT$core..task..wake..Waker$GT$$GT$$GT$$GT$$GT$17h38897af18df5971dE.exit": ; preds = %_ZN3std4sync6poison4Flag4done17h6b62417d8d60c5ceE.exit.i.i, %bb2.i.i
  ret void, !dbg !1311
}

; alloc::sync::Arc<T,A>::downgrade::panic_cold_display
; Function Attrs: cold noinline noreturn nonlazybind uwtable
define internal fastcc void @"_ZN5alloc4sync16Arc$LT$T$C$A$GT$9downgrade18panic_cold_display17h3d36121486bbb041E"() unnamed_addr #2 !dbg !1350 {
start:
  %_5 = alloca [16 x i8], align 8
  %_3 = alloca [48 x i8], align 8
  tail call void @llvm.dbg.value(metadata ptr @alloc_b99730e73100e73a81f4fbfe74b3821d, metadata !1358, metadata !DIExpression()), !dbg !1451
  tail call void @llvm.dbg.value(metadata ptr @alloc_7742fec9f2f2fc19935953991c560506, metadata !1357, metadata !DIExpression()), !dbg !1459
  tail call void @llvm.dbg.value(metadata ptr @alloc_7742fec9f2f2fc19935953991c560506, metadata !1457, metadata !DIExpression()), !dbg !1460
  call void @llvm.lifetime.start.p0(i64 48, ptr nonnull %_3), !dbg !1452
  call void @llvm.lifetime.start.p0(i64 16, ptr nonnull %_5), !dbg !1452
  store ptr @alloc_7742fec9f2f2fc19935953991c560506, ptr %_5, align 8, !dbg !1452
  %_6.sroa.4.0..sroa_idx = getelementptr inbounds i8, ptr %_5, i64 8, !dbg !1452
  store ptr @"_ZN44_$LT$$RF$T$u20$as$u20$core..fmt..Display$GT$3fmt17h1ed6cd18161a2d73E", ptr %_6.sroa.4.0..sroa_idx, align 8, !dbg !1452
  tail call void @llvm.dbg.value(metadata ptr %_5, metadata !1450, metadata !DIExpression()), !dbg !1451
  store ptr @alloc_b99730e73100e73a81f4fbfe74b3821d, ptr %_3, align 8, !dbg !1461
  %0 = getelementptr inbounds i8, ptr %_3, i64 8, !dbg !1461
  store i64 1, ptr %0, align 8, !dbg !1461
  %1 = getelementptr inbounds i8, ptr %_3, i64 32, !dbg !1461
  store ptr null, ptr %1, align 8, !dbg !1461
  %2 = getelementptr inbounds i8, ptr %_3, i64 16, !dbg !1461
  store ptr %_5, ptr %2, align 8, !dbg !1461
  %3 = getelementptr inbounds i8, ptr %_3, i64 24, !dbg !1461
  store i64 1, ptr %3, align 8, !dbg !1461
; call core::panicking::panic_fmt
  call void @_ZN4core9panicking9panic_fmt17h3111a7beccfa68f5E(ptr noalias nocapture noundef nonnull readonly align 8 dereferenceable(48) %_3, ptr noalias noundef nonnull readonly align 8 dereferenceable(24) @alloc_81c063577ec6f7dad1902094dfce8f20) #24, !dbg !1462
  unreachable, !dbg !1462
}

; <std::sync::poison::PoisonError<T> as core::fmt::Debug>::fmt
; Function Attrs: nonlazybind uwtable
define internal noundef zeroext i1 @"_ZN76_$LT$std..sync..poison..PoisonError$LT$T$GT$$u20$as$u20$core..fmt..Debug$GT$3fmt17he8a960ad3b409cc0E"(ptr noalias nocapture readonly align 8 %self, ptr noalias noundef align 8 dereferenceable(64) %f) unnamed_addr #4 !dbg !1463 {
start:
  %_4 = alloca [16 x i8], align 8
  tail call void @llvm.dbg.value(metadata ptr poison, metadata !1469, metadata !DIExpression()), !dbg !1471
  tail call void @llvm.dbg.value(metadata ptr %f, metadata !1470, metadata !DIExpression()), !dbg !1471
  call void @llvm.lifetime.start.p0(i64 16, ptr nonnull %_4), !dbg !1472
; call core::fmt::Formatter::debug_struct
  call void @_ZN4core3fmt9Formatter12debug_struct17hfe55f8660bb7c366E(ptr noalias nocapture noundef nonnull sret([16 x i8]) align 8 dereferenceable(16) %_4, ptr noalias noundef nonnull align 8 dereferenceable(64) %f, ptr noalias noundef nonnull readonly align 1 @alloc_8e2410b80645266732854088d21653bc, i64 noundef 11), !dbg !1472
; call core::fmt::builders::DebugStruct::finish_non_exhaustive
  %_0 = call noundef zeroext i1 @_ZN4core3fmt8builders11DebugStruct21finish_non_exhaustive17h13844b69093bed9cE(ptr noalias noundef nonnull align 8 dereferenceable(16) %_4), !dbg !1472
  call void @llvm.lifetime.end.p0(i64 16, ptr nonnull %_4), !dbg !1473
  ret i1 %_0, !dbg !1474
}

; <std::panicking::begin_panic::Payload<A> as core::panic::PanicPayload>::get
; Function Attrs: nonlazybind uwtable
define internal { ptr, ptr } @"_ZN91_$LT$std..panicking..begin_panic..Payload$LT$A$GT$$u20$as$u20$core..panic..PanicPayload$GT$3get17h65661c684ed79500E"(ptr noalias noundef align 8 dereferenceable(16) %self) unnamed_addr #4 !dbg !1475 {
start:
  tail call void @llvm.dbg.value(metadata ptr %self, metadata !1487, metadata !DIExpression()), !dbg !1490
  %0 = load ptr, ptr %self, align 8, !dbg !1491, !noundef !27
  %1 = icmp eq ptr %0, null, !dbg !1491
  br i1 %1, label %bb2, label %bb3, !dbg !1492

bb2:                                              ; preds = %start
; call std::process::abort
  tail call void @_ZN3std7process5abort17h302c95d6b8ec09e2E() #24, !dbg !1493
  unreachable, !dbg !1493

bb3:                                              ; preds = %start
  %2 = insertvalue { ptr, ptr } poison, ptr %self, 0, !dbg !1494
  %3 = insertvalue { ptr, ptr } %2, ptr @vtable.3, 1, !dbg !1494
  ret { ptr, ptr } %3, !dbg !1494
}

; <std::panicking::begin_panic::Payload<A> as core::panic::PanicPayload>::take_box
; Function Attrs: nonlazybind uwtable
define internal { ptr, ptr } @"_ZN91_$LT$std..panicking..begin_panic..Payload$LT$A$GT$$u20$as$u20$core..panic..PanicPayload$GT$8take_box17h61e6caec6f3d0d6fE"(ptr noalias nocapture noundef align 8 dereferenceable(16) %self) unnamed_addr #4 personality ptr @rust_eh_personality !dbg !1495 {
start:
  tail call void @llvm.dbg.value(metadata ptr %self, metadata !1503, metadata !DIExpression()), !dbg !1512
  tail call void @llvm.dbg.value(metadata ptr %self, metadata !1513, metadata !DIExpression()), !dbg !1521
  tail call void @llvm.dbg.value(metadata ptr %self, metadata !1523, metadata !DIExpression()), !dbg !1536
  tail call void @llvm.dbg.value(metadata ptr %self, metadata !1538, metadata !DIExpression()), !dbg !1545
  tail call void @llvm.dbg.value(metadata ptr %self, metadata !1547, metadata !DIExpression()), !dbg !1555
  tail call void @llvm.dbg.value(metadata ptr null, metadata !1531, metadata !DIExpression(DW_OP_LLVM_fragment, 0, 64)), !dbg !1536
  tail call void @llvm.dbg.value(metadata ptr null, metadata !1554, metadata !DIExpression(DW_OP_LLVM_fragment, 0, 64)), !dbg !1555
  %0 = load ptr, ptr %self, align 8, !dbg !1557, !align !407, !noundef !27
  %1 = getelementptr inbounds i8, ptr %self, i64 8, !dbg !1557
  %2 = load i64, ptr %1, align 8, !dbg !1557
  tail call void @llvm.dbg.value(metadata ptr %0, metadata !1532, metadata !DIExpression(DW_OP_LLVM_fragment, 0, 64)), !dbg !1558
  tail call void @llvm.dbg.value(metadata i64 %2, metadata !1532, metadata !DIExpression(DW_OP_LLVM_fragment, 64, 64)), !dbg !1558
  store ptr null, ptr %self, align 8, !dbg !1559
  %3 = icmp eq ptr %0, null, !dbg !1560
  br i1 %3, label %bb2, label %bb3, !dbg !1561

bb2:                                              ; preds = %start
; call std::process::abort
  tail call void @_ZN3std7process5abort17h302c95d6b8ec09e2E() #24, !dbg !1562
  unreachable, !dbg !1562

bb3:                                              ; preds = %start
  tail call void @llvm.dbg.value(metadata ptr %0, metadata !1510, metadata !DIExpression(DW_OP_LLVM_fragment, 0, 64)), !dbg !1563
  tail call void @llvm.dbg.value(metadata i64 %2, metadata !1510, metadata !DIExpression(DW_OP_LLVM_fragment, 64, 64)), !dbg !1563
  call void @llvm.dbg.value(metadata ptr %0, metadata !1564, metadata !DIExpression(DW_OP_LLVM_fragment, 0, 64)), !dbg !1573
  call void @llvm.dbg.value(metadata i64 %2, metadata !1564, metadata !DIExpression(DW_OP_LLVM_fragment, 64, 64)), !dbg !1573
  call void @llvm.dbg.value(metadata ptr inttoptr (i64 1 to ptr), metadata !1575, metadata !DIExpression()), !dbg !1606
  call void @llvm.dbg.value(metadata i64 16, metadata !1613, metadata !DIExpression()), !dbg !1619
  call void @llvm.dbg.value(metadata i64 8, metadata !1614, metadata !DIExpression()), !dbg !1619
  call void @llvm.dbg.value(metadata i64 8, metadata !1615, metadata !DIExpression(DW_OP_LLVM_fragment, 0, 64)), !dbg !1620
  call void @llvm.dbg.value(metadata i64 8, metadata !1605, metadata !DIExpression(DW_OP_LLVM_fragment, 0, 64)), !dbg !1606
  call void @llvm.dbg.value(metadata i64 16, metadata !1615, metadata !DIExpression(DW_OP_LLVM_fragment, 64, 64)), !dbg !1620
  call void @llvm.dbg.value(metadata i64 16, metadata !1605, metadata !DIExpression(DW_OP_LLVM_fragment, 64, 64)), !dbg !1606
  call void @llvm.dbg.value(metadata i64 8, metadata !1621, metadata !DIExpression(DW_OP_LLVM_fragment, 0, 64)), !dbg !1657
  call void @llvm.dbg.value(metadata i64 16, metadata !1621, metadata !DIExpression(DW_OP_LLVM_fragment, 64, 64)), !dbg !1657
  call void @llvm.dbg.value(metadata ptr undef, metadata !1627, metadata !DIExpression()), !dbg !1657
  call void @llvm.dbg.value(metadata i1 false, metadata !1628, metadata !DIExpression(DW_OP_LLVM_convert, 1, DW_ATE_unsigned, DW_OP_LLVM_convert, 8, DW_ATE_unsigned, DW_OP_stack_value)), !dbg !1657
  call void @llvm.dbg.value(metadata i64 16, metadata !1629, metadata !DIExpression()), !dbg !1659
  call void @llvm.dbg.value(metadata ptr @__rust_no_alloc_shim_is_unstable, metadata !1660, metadata !DIExpression()), !dbg !1666
  call void @llvm.dbg.value(metadata i64 8, metadata !1672, metadata !DIExpression(DW_OP_LLVM_fragment, 0, 64)), !dbg !1674
  call void @llvm.dbg.value(metadata i64 16, metadata !1672, metadata !DIExpression(DW_OP_LLVM_fragment, 64, 64)), !dbg !1674
  %4 = load volatile i8, ptr @__rust_no_alloc_shim_is_unstable, align 1, !dbg !1675, !noalias !1676
  %_0.i.i.i = tail call noalias noundef align 8 dereferenceable_or_null(16) ptr @__rust_alloc(i64 noundef 16, i64 noundef 8) #16, !dbg !1679, !noalias !1676
  %5 = icmp eq ptr %_0.i.i.i, null, !dbg !1680
  br i1 %5, label %bb2.i, label %_ZN5alloc5alloc15exchange_malloc17h354862c5666a0a2aE.exit, !dbg !1681

bb2.i:                                            ; preds = %bb3
; call alloc::alloc::handle_alloc_error
  tail call void @_ZN5alloc5alloc18handle_alloc_error17h668ad8a7a2fd77cbE(i64 noundef 8, i64 noundef 16) #24, !dbg !1682, !noalias !1676
  unreachable, !dbg !1682

_ZN5alloc5alloc15exchange_malloc17h354862c5666a0a2aE.exit: ; preds = %bb3
  store ptr %0, ptr %_0.i.i.i, align 8, !dbg !1683, !noalias !1676
  %6 = getelementptr inbounds i8, ptr %_0.i.i.i, i64 8, !dbg !1683
  store i64 %2, ptr %6, align 8, !dbg !1683
  %7 = insertvalue { ptr, ptr } poison, ptr %_0.i.i.i, 0, !dbg !1684
  %8 = insertvalue { ptr, ptr } %7, ptr @vtable.3, 1, !dbg !1684
  ret { ptr, ptr } %8, !dbg !1684
}

; <<futures_util::future::future::shared::Shared<Fut> as core::future::future::Future>::poll::Reset as core::ops::drop::Drop>::drop
; Function Attrs: mustprogress nofree norecurse nounwind nonlazybind willreturn memory(readwrite, inaccessiblemem: none) uwtable
define void @"_ZN158_$LT$$LT$futures_util..future..future..shared..Shared$LT$Fut$GT$$u20$as$u20$core..future..future..Future$GT$..poll..Reset$u20$as$u20$core..ops..drop..Drop$GT$4drop17heb9d0b904fc11c98E"(ptr noalias nocapture noundef readonly align 8 dereferenceable(16) %self) unnamed_addr #5 !dbg !1685 {
start:
  tail call void @llvm.dbg.value(metadata i64 3, metadata !1702, metadata !DIExpression()), !dbg !1711
  tail call void @llvm.dbg.value(metadata i8 4, metadata !1710, metadata !DIExpression()), !dbg !1711
  tail call void @llvm.dbg.value(metadata ptr %self, metadata !1701, metadata !DIExpression()), !dbg !1713
  %0 = getelementptr inbounds i8, ptr %self, i64 8, !dbg !1714
  %1 = load i8, ptr %0, align 8, !dbg !1714, !range !1312, !noundef !27
  %_2.not = icmp eq i8 %1, 0, !dbg !1714
  br i1 %_2.not, label %bb1, label %bb2, !dbg !1714

bb1:                                              ; preds = %start
  %self1 = load ptr, ptr %self, align 8, !dbg !1715, !nonnull !27, !align !418, !noundef !27
  tail call void @llvm.dbg.value(metadata ptr %self1, metadata !1709, metadata !DIExpression()), !dbg !1711
  tail call void @llvm.dbg.value(metadata i8 4, metadata !1716, metadata !DIExpression()), !dbg !1723
  tail call void @llvm.dbg.value(metadata ptr %self1, metadata !1721, metadata !DIExpression()), !dbg !1723
  tail call void @llvm.dbg.value(metadata i64 3, metadata !1722, metadata !DIExpression()), !dbg !1723
  store atomic i64 3, ptr %self1 seq_cst, align 8, !dbg !1725
  br label %bb2, !dbg !1726

bb2:                                              ; preds = %bb1, %start
  ret void, !dbg !1727
}

; <futures_util::future::future::shared::Notifier as futures_task::arc_wake::ArcWake>::wake_by_ref
; Function Attrs: nonlazybind uwtable
define void @"_ZN98_$LT$futures_util..future..future..shared..Notifier$u20$as$u20$futures_task..arc_wake..ArcWake$GT$11wake_by_ref17h6d26c5e25e2498f9E"(ptr noalias nocapture noundef readonly align 8 dereferenceable(8) %arc_self) unnamed_addr #4 personality ptr @rust_eh_personality !dbg !1728 {
start:
  %e.i = alloca [16 x i8], align 8
  call void @llvm.dbg.declare(metadata ptr undef, metadata !1798, metadata !DIExpression(DW_OP_LLVM_fragment, 136, 56)), !dbg !1824
  tail call void @llvm.dbg.value(metadata ptr poison, metadata !1826, metadata !DIExpression(DW_OP_LLVM_fragment, 0, 64)), !dbg !1835
  tail call void @llvm.dbg.value(metadata ptr poison, metadata !1826, metadata !DIExpression(DW_OP_LLVM_fragment, 64, 64)), !dbg !1835
  tail call void @llvm.dbg.value(metadata ptr poison, metadata !1845, metadata !DIExpression(DW_OP_LLVM_fragment, 0, 64)), !dbg !1853
  tail call void @llvm.dbg.value(metadata ptr poison, metadata !1845, metadata !DIExpression(DW_OP_LLVM_fragment, 64, 64)), !dbg !1853
  tail call void @llvm.dbg.value(metadata ptr %arc_self, metadata !1758, metadata !DIExpression()), !dbg !1855
  tail call void @llvm.dbg.value(metadata ptr %arc_self, metadata !1856, metadata !DIExpression()), !dbg !1864
  tail call void @llvm.dbg.value(metadata ptr %arc_self, metadata !1866, metadata !DIExpression()), !dbg !1874
  tail call void @llvm.dbg.value(metadata ptr %arc_self, metadata !1876, metadata !DIExpression()), !dbg !1885
  %self = load ptr, ptr %arc_self, align 8, !dbg !1887, !nonnull !27, !noundef !27
  %_5 = getelementptr inbounds i8, ptr %self, i64 16, !dbg !1865
  call void @llvm.dbg.value(metadata i32 0, metadata !1888, metadata !DIExpression()), !dbg !1914
  call void @llvm.dbg.value(metadata i32 1, metadata !1911, metadata !DIExpression()), !dbg !1914
  call void @llvm.dbg.value(metadata i8 2, metadata !1912, metadata !DIExpression()), !dbg !1914
  call void @llvm.dbg.value(metadata i8 0, metadata !1913, metadata !DIExpression()), !dbg !1914
  call void @llvm.dbg.value(metadata ptr %_5, metadata !1927, metadata !DIExpression()), !dbg !1929
  call void @llvm.dbg.value(metadata ptr %_5, metadata !1920, metadata !DIExpression()), !dbg !1930
  call void @llvm.dbg.value(metadata ptr %_5, metadata !1910, metadata !DIExpression()), !dbg !1914
  call void @llvm.dbg.value(metadata i8 2, metadata !1931, metadata !DIExpression()), !dbg !1943
  call void @llvm.dbg.value(metadata i8 0, metadata !1939, metadata !DIExpression()), !dbg !1943
  call void @llvm.dbg.value(metadata ptr %_5, metadata !1936, metadata !DIExpression()), !dbg !1943
  call void @llvm.dbg.value(metadata i32 0, metadata !1937, metadata !DIExpression()), !dbg !1943
  call void @llvm.dbg.value(metadata i32 1, metadata !1938, metadata !DIExpression()), !dbg !1943
  %0 = cmpxchg ptr %_5, i32 0, i32 1 acquire monotonic, align 4, !dbg !1945, !noalias !1946
  %1 = extractvalue { i32, i1 } %0, 1, !dbg !1945
  call void @llvm.dbg.value(metadata ptr undef, metadata !1949, metadata !DIExpression()), !dbg !1957
  call void @llvm.dbg.value(metadata ptr undef, metadata !1959, metadata !DIExpression()), !dbg !1964
  br i1 %1, label %bb2.i11, label %bb4.i, !dbg !1966

bb4.i:                                            ; preds = %start
; call std::sys::sync::mutex::futex::Mutex::lock_contended
  tail call void @_ZN3std3sys4sync5mutex5futex5Mutex14lock_contended17h8fd9cbd50b365b92E(ptr noundef nonnull align 4 %_5), !dbg !1968, !noalias !1946
  br label %bb2.i11, !dbg !1968

bb2.i11:                                          ; preds = %bb4.i, %start
  call void @llvm.dbg.value(metadata ptr %_5, metadata !1969, metadata !DIExpression()), !dbg !1973
  call void @llvm.dbg.value(metadata ptr @_ZN3std9panicking11panic_count18GLOBAL_PANIC_COUNT17h00e7dcd913cdfbe0E, metadata !1975, metadata !DIExpression()), !dbg !1980
  call void @llvm.dbg.value(metadata i8 0, metadata !1979, metadata !DIExpression()), !dbg !1980
  call void @llvm.dbg.value(metadata i8 0, metadata !2020, metadata !DIExpression()), !dbg !2028
  call void @llvm.dbg.value(metadata ptr %_5, metadata !2016, metadata !DIExpression(DW_OP_plus_uconst, 4, DW_OP_stack_value)), !dbg !2038
  call void @llvm.dbg.value(metadata ptr %_5, metadata !2036, metadata !DIExpression(DW_OP_plus_uconst, 4, DW_OP_stack_value)), !dbg !2039
  call void @llvm.dbg.value(metadata i8 0, metadata !1270, metadata !DIExpression()), !dbg !2040
  call void @llvm.dbg.value(metadata ptr @_ZN3std9panicking11panic_count18GLOBAL_PANIC_COUNT17h00e7dcd913cdfbe0E, metadata !1276, metadata !DIExpression()), !dbg !2040
  %2 = load atomic i64, ptr @_ZN3std9panicking11panic_count18GLOBAL_PANIC_COUNT17h00e7dcd913cdfbe0E monotonic, align 8, !dbg !2042, !noalias !2043
  %_6.i.i.i = and i64 %2, 9223372036854775807, !dbg !2046
  %3 = icmp eq i64 %_6.i.i.i, 0, !dbg !2046
  br i1 %3, label %"_ZN3std4sync5mutex14Mutex$LT$T$GT$4lock17h226042f06e917143E.exit", label %bb6.i.i.i, !dbg !2046

bb6.i.i.i:                                        ; preds = %bb2.i11
; call std::panicking::panic_count::is_zero_slow_path
  %4 = tail call noundef zeroext i1 @_ZN3std9panicking11panic_count17is_zero_slow_path17h24de30857bbd803cE(), !dbg !2047, !noalias !2043
  %5 = xor i1 %4, true, !dbg !2048
  %6 = zext i1 %5 to i8, !dbg !2049
  br label %"_ZN3std4sync5mutex14Mutex$LT$T$GT$4lock17h226042f06e917143E.exit", !dbg !2047

"_ZN3std4sync5mutex14Mutex$LT$T$GT$4lock17h226042f06e917143E.exit": ; preds = %bb2.i11, %bb6.i.i.i
  %_5.sroa.0.0.i.i.i = phi i8 [ %6, %bb6.i.i.i ], [ 0, %bb2.i11 ], !dbg !2050
  %_3.i.i = getelementptr inbounds i8, ptr %self, i64 20, !dbg !2051
  call void @llvm.dbg.value(metadata ptr %_3.i.i, metadata !2016, metadata !DIExpression()), !dbg !2038
  call void @llvm.dbg.value(metadata ptr %_3.i.i, metadata !2036, metadata !DIExpression()), !dbg !2039
  call void @llvm.dbg.value(metadata i8 %_5.sroa.0.0.i.i.i, metadata !2017, metadata !DIExpression(DW_OP_LLVM_convert, 1, DW_ATE_unsigned, DW_OP_LLVM_convert, 8, DW_ATE_unsigned, DW_OP_stack_value)), !dbg !2052
  call void @llvm.dbg.value(metadata ptr %_3.i.i, metadata !2027, metadata !DIExpression()), !dbg !2028
  call void @llvm.dbg.value(metadata i8 0, metadata !2053, metadata !DIExpression()), !dbg !2059
  call void @llvm.dbg.value(metadata ptr %_3.i.i, metadata !2058, metadata !DIExpression()), !dbg !2059
  %7 = load atomic i8, ptr %_3.i.i monotonic, align 1, !dbg !2061, !noalias !2043
  %.not = icmp eq i8 %7, 0, !dbg !2062
  tail call void @llvm.dbg.value(metadata ptr %_5, metadata !1798, metadata !DIExpression(DW_OP_LLVM_fragment, 64, 64)), !dbg !2063
  tail call void @llvm.dbg.value(metadata i8 %_5.sroa.0.0.i.i.i, metadata !1798, metadata !DIExpression(DW_OP_LLVM_fragment, 128, 8)), !dbg !2063
  tail call void @llvm.dbg.value(metadata i1 %.not, metadata !1798, metadata !DIExpression(DW_OP_LLVM_convert, 1, DW_ATE_unsigned, DW_OP_LLVM_convert, 64, DW_ATE_unsigned, DW_OP_stack_value, DW_OP_LLVM_fragment, 0, 64)), !dbg !2063
  call void @llvm.dbg.declare(metadata ptr %e.i, metadata !1822, metadata !DIExpression()), !dbg !2064
  br i1 %.not, label %"_ZN4core6result19Result$LT$T$C$E$GT$6unwrap17hee86ad3d14d38a4fE.exit", label %bb2.i, !dbg !2065

bb2.i:                                            ; preds = %"_ZN3std4sync5mutex14Mutex$LT$T$GT$4lock17h226042f06e917143E.exit"
  call void @llvm.lifetime.start.p0(i64 16, ptr nonnull %e.i), !dbg !2066, !noalias !2067
  store ptr %_5, ptr %e.i, align 8, !dbg !2066, !noalias !2067
  %8 = getelementptr inbounds i8, ptr %e.i, i64 8, !dbg !2066
  store i8 %_5.sroa.0.0.i.i.i, ptr %8, align 8, !dbg !2066, !noalias !2067
; invoke core::result::unwrap_failed
  invoke void @_ZN4core6result13unwrap_failed17hebd1efddce947a93E(ptr noalias noundef nonnull readonly align 1 @alloc_00ae4b301f7fab8ac9617c03fcbd7274, i64 noundef 43, ptr noundef nonnull align 1 %e.i, ptr noalias noundef nonnull readonly align 8 dereferenceable(32) @vtable.2, ptr noalias noundef nonnull readonly align 8 dereferenceable(24) @alloc_e2f4156ab5349a93bfa6d3bf51b55a1c) #24
          to label %unreachable.i unwind label %cleanup.i, !dbg !2070, !noalias !2067

cleanup.i:                                        ; preds = %bb2.i
  %9 = landingpad { ptr, i32 }
          cleanup
; invoke core::ptr::drop_in_place<std::sync::poison::PoisonError<std::sync::mutex::MutexGuard<core::option::Option<slab::Slab<core::option::Option<core::task::wake::Waker>>>>>>
  invoke void @"_ZN4core3ptr192drop_in_place$LT$std..sync..poison..PoisonError$LT$std..sync..mutex..MutexGuard$LT$core..option..Option$LT$slab..Slab$LT$core..option..Option$LT$core..task..wake..Waker$GT$$GT$$GT$$GT$$GT$$GT$17haeaf9760c07a212bE"(ptr noalias noundef nonnull align 8 dereferenceable(16) %e.i) #26
          to label %common.resume unwind label %terminate.i, !dbg !2071, !noalias !2067

unreachable.i:                                    ; preds = %bb2.i
  unreachable

terminate.i:                                      ; preds = %cleanup.i
  %10 = landingpad { ptr, i32 }
          filter [0 x ptr] zeroinitializer
; call core::panicking::panic_in_cleanup
  call void @_ZN4core9panicking16panic_in_cleanup17h43442956f23e9cbeE() #25, !dbg !2072, !noalias !2067
  unreachable, !dbg !2072

common.resume:                                    ; preds = %cleanup, %cleanup.i
  %common.resume.op = phi { ptr, i32 } [ %9, %cleanup.i ], [ %16, %cleanup ]
  resume { ptr, i32 } %common.resume.op, !dbg !1855

"_ZN4core6result19Result$LT$T$C$E$GT$6unwrap17hee86ad3d14d38a4fE.exit": ; preds = %"_ZN3std4sync5mutex14Mutex$LT$T$GT$4lock17h226042f06e917143E.exit"
  tail call void @llvm.dbg.value(metadata ptr undef, metadata !2073, metadata !DIExpression()), !dbg !2081
  tail call void @llvm.dbg.value(metadata ptr %_5, metadata !2083, metadata !DIExpression(DW_OP_plus_uconst, 8, DW_OP_stack_value)), !dbg !2092
  %_27 = getelementptr inbounds i8, ptr %self, i64 24, !dbg !2094
  tail call void @llvm.dbg.value(metadata ptr %_27, metadata !1759, metadata !DIExpression()), !dbg !2095
  tail call void @llvm.dbg.value(metadata ptr %_27, metadata !2096, metadata !DIExpression()), !dbg !2118
  %11 = load i64, ptr %_27, align 8, !dbg !2120, !range !2121, !noundef !27
  %12 = icmp eq i64 %11, -9223372036854775808, !dbg !2120
  br i1 %12, label %bb9, label %bb19, !dbg !2122

bb9:                                              ; preds = %bb1.i, %"_ZN4core6result19Result$LT$T$C$E$GT$6unwrap17hee86ad3d14d38a4fE.exit"
  call void @llvm.dbg.value(metadata ptr undef, metadata !1175, metadata !DIExpression()), !dbg !2123
  call void @llvm.dbg.value(metadata i32 0, metadata !1177, metadata !DIExpression()), !dbg !2125
  call void @llvm.dbg.value(metadata i8 1, metadata !1186, metadata !DIExpression()), !dbg !2125
  call void @llvm.dbg.value(metadata i32 0, metadata !1208, metadata !DIExpression()), !dbg !2129
  call void @llvm.dbg.value(metadata i8 1, metadata !1216, metadata !DIExpression()), !dbg !2129
  call void @llvm.dbg.value(metadata ptr undef, metadata !1206, metadata !DIExpression()), !dbg !2131
  call void @llvm.dbg.value(metadata ptr @_ZN3std9panicking11panic_count18GLOBAL_PANIC_COUNT17h00e7dcd913cdfbe0E, metadata !1221, metadata !DIExpression()), !dbg !2132
  call void @llvm.dbg.value(metadata i8 0, metadata !1228, metadata !DIExpression()), !dbg !2132
  call void @llvm.dbg.value(metadata i8 1, metadata !1256, metadata !DIExpression()), !dbg !2138
  call void @llvm.dbg.value(metadata i8 0, metadata !1265, metadata !DIExpression()), !dbg !2138
  call void @llvm.dbg.value(metadata ptr %_3.i.i, metadata !1253, metadata !DIExpression()), !dbg !2140
  call void @llvm.dbg.value(metadata ptr undef, metadata !1254, metadata !DIExpression()), !dbg !2140
  %_3.not.i.i.i = icmp eq i8 %_5.sroa.0.0.i.i.i, 0, !dbg !2141
  br i1 %_3.not.i.i.i, label %bb1.i.i.i, label %_ZN3std4sync6poison4Flag4done17h6b62417d8d60c5ceE.exit.i.i, !dbg !2141

bb1.i.i.i:                                        ; preds = %bb9
  call void @llvm.dbg.value(metadata i8 0, metadata !1270, metadata !DIExpression()), !dbg !2142
  call void @llvm.dbg.value(metadata ptr @_ZN3std9panicking11panic_count18GLOBAL_PANIC_COUNT17h00e7dcd913cdfbe0E, metadata !1276, metadata !DIExpression()), !dbg !2142
  %13 = load atomic i64, ptr @_ZN3std9panicking11panic_count18GLOBAL_PANIC_COUNT17h00e7dcd913cdfbe0E monotonic, align 8, !dbg !2144, !noalias !2145
  %_7.i.i.i = and i64 %13, 9223372036854775807, !dbg !2148
  %14 = icmp eq i64 %_7.i.i.i, 0, !dbg !2148
  br i1 %14, label %_ZN3std4sync6poison4Flag4done17h6b62417d8d60c5ceE.exit.i.i, label %bb6.i.i.i13, !dbg !2148

bb6.i.i.i13:                                      ; preds = %bb1.i.i.i
; call std::panicking::panic_count::is_zero_slow_path
  %_6.i.i.i14 = tail call noundef zeroext i1 @_ZN3std9panicking11panic_count17is_zero_slow_path17h24de30857bbd803cE(), !dbg !2149, !noalias !2145
  br i1 %_6.i.i.i14, label %_ZN3std4sync6poison4Flag4done17h6b62417d8d60c5ceE.exit.i.i, label %bb2.i.i.i, !dbg !2150

bb2.i.i.i:                                        ; preds = %bb6.i.i.i13
  call void @llvm.dbg.value(metadata ptr %_3.i.i, metadata !1264, metadata !DIExpression()), !dbg !2138
  call void @llvm.dbg.value(metadata i8 0, metadata !1286, metadata !DIExpression()), !dbg !2151
  call void @llvm.dbg.value(metadata ptr %_3.i.i, metadata !1291, metadata !DIExpression()), !dbg !2151
  call void @llvm.dbg.value(metadata i8 1, metadata !1292, metadata !DIExpression()), !dbg !2151
  store atomic i8 1, ptr %_3.i.i monotonic, align 1, !dbg !2153, !noalias !2145
  br label %_ZN3std4sync6poison4Flag4done17h6b62417d8d60c5ceE.exit.i.i, !dbg !2154

_ZN3std4sync6poison4Flag4done17h6b62417d8d60c5ceE.exit.i.i: ; preds = %bb2.i.i.i, %bb6.i.i.i13, %bb1.i.i.i, %bb9
  call void @llvm.dbg.value(metadata ptr %_5, metadata !1197, metadata !DIExpression()), !dbg !2155
  call void @llvm.dbg.value(metadata ptr %_5, metadata !1185, metadata !DIExpression()), !dbg !2125
  call void @llvm.dbg.value(metadata ptr %_5, metadata !1215, metadata !DIExpression()), !dbg !2129
  %15 = atomicrmw xchg ptr %_5, i32 0 release, align 4, !dbg !2156, !noalias !2145
  %_8.i.i = icmp eq i32 %15, 2, !dbg !2157
  br i1 %_8.i.i, label %bb2.i.i, label %"_ZN4core3ptr154drop_in_place$LT$std..sync..mutex..MutexGuard$LT$core..option..Option$LT$slab..Slab$LT$core..option..Option$LT$core..task..wake..Waker$GT$$GT$$GT$$GT$$GT$17h38897af18df5971dE.exit", !dbg !2157

bb2.i.i:                                          ; preds = %_ZN3std4sync6poison4Flag4done17h6b62417d8d60c5ceE.exit.i.i
; call std::sys::sync::mutex::futex::Mutex::wake
  tail call void @_ZN3std3sys4sync5mutex5futex5Mutex4wake17hc487312157454c34E(ptr noundef nonnull align 4 %_5), !dbg !2158, !noalias !2145
  br label %"_ZN4core3ptr154drop_in_place$LT$std..sync..mutex..MutexGuard$LT$core..option..Option$LT$slab..Slab$LT$core..option..Option$LT$core..task..wake..Waker$GT$$GT$$GT$$GT$$GT$17h38897af18df5971dE.exit", !dbg !2158

"_ZN4core3ptr154drop_in_place$LT$std..sync..mutex..MutexGuard$LT$core..option..Option$LT$slab..Slab$LT$core..option..Option$LT$core..task..wake..Waker$GT$$GT$$GT$$GT$$GT$17h38897af18df5971dE.exit": ; preds = %_ZN3std4sync6poison4Flag4done17h6b62417d8d60c5ceE.exit.i.i, %bb2.i.i
  ret void, !dbg !2159

cleanup:                                          ; preds = %bb8
  %16 = landingpad { ptr, i32 }
          cleanup
; invoke core::ptr::drop_in_place<std::sync::mutex::MutexGuard<core::option::Option<slab::Slab<core::option::Option<core::task::wake::Waker>>>>>
  invoke fastcc void @"_ZN4core3ptr154drop_in_place$LT$std..sync..mutex..MutexGuard$LT$core..option..Option$LT$slab..Slab$LT$core..option..Option$LT$core..task..wake..Waker$GT$$GT$$GT$$GT$$GT$17h38897af18df5971dE"(ptr nonnull %_5, i8 %_5.sroa.0.0.i.i.i) #26
          to label %common.resume unwind label %terminate, !dbg !2160

bb19:                                             ; preds = %"_ZN4core6result19Result$LT$T$C$E$GT$6unwrap17hee86ad3d14d38a4fE.exit"
  tail call void @llvm.dbg.value(metadata ptr %_27, metadata !1762, metadata !DIExpression()), !dbg !2161
  tail call void @llvm.dbg.value(metadata ptr %_27, metadata !2162, metadata !DIExpression()), !dbg !2170
  tail call void @llvm.dbg.value(metadata ptr %_27, metadata !2172, metadata !DIExpression()), !dbg !2176
  tail call void @llvm.dbg.value(metadata ptr %_27, metadata !2178, metadata !DIExpression()), !dbg !2192
  tail call void @llvm.dbg.value(metadata ptr %_27, metadata !2194, metadata !DIExpression()), !dbg !2201
  tail call void @llvm.dbg.value(metadata ptr %_27, metadata !2203, metadata !DIExpression()), !dbg !2212
  %17 = getelementptr inbounds i8, ptr %self, i64 32, !dbg !2214
  %self3.i = load ptr, ptr %17, align 8, !dbg !2214, !alias.scope !2215, !noalias !2218, !nonnull !27, !noundef !27
  %18 = getelementptr inbounds i8, ptr %self, i64 40, !dbg !2220
  %len.i = load i64, ptr %18, align 8, !dbg !2220, !alias.scope !2215, !noalias !2218, !noundef !27
  tail call void @llvm.dbg.value(metadata ptr %self3.i, metadata !2221, metadata !DIExpression(DW_OP_LLVM_fragment, 0, 64)), !dbg !2233
  tail call void @llvm.dbg.value(metadata ptr %self3.i, metadata !2235, metadata !DIExpression(DW_OP_LLVM_fragment, 0, 64)), !dbg !2247
  tail call void @llvm.dbg.value(metadata i64 %len.i, metadata !2221, metadata !DIExpression(DW_OP_LLVM_fragment, 64, 64)), !dbg !2233
  tail call void @llvm.dbg.value(metadata i64 %len.i, metadata !2235, metadata !DIExpression(DW_OP_LLVM_fragment, 64, 64)), !dbg !2247
  tail call void @llvm.dbg.value(metadata i64 %len.i, metadata !2241, metadata !DIExpression()), !dbg !2249
  tail call void @llvm.dbg.value(metadata i64 %len.i, metadata !2250, metadata !DIExpression()), !dbg !2260
  tail call void @llvm.dbg.value(metadata ptr %self3.i, metadata !2243, metadata !DIExpression()), !dbg !2262
  tail call void @llvm.dbg.value(metadata ptr %self3.i, metadata !2259, metadata !DIExpression()), !dbg !2260
  %19 = getelementptr inbounds %"slab::Entry<core::option::Option<core::task::wake::Waker>>", ptr %self3.i, i64 %len.i, !dbg !2263
  tail call void @llvm.dbg.value(metadata ptr %self3.i, metadata !1765, metadata !DIExpression(DW_OP_LLVM_fragment, 0, 64)), !dbg !2264
  tail call void @llvm.dbg.value(metadata ptr %19, metadata !1765, metadata !DIExpression(DW_OP_LLVM_fragment, 64, 64)), !dbg !2264
  tail call void @llvm.dbg.value(metadata i64 0, metadata !1765, metadata !DIExpression(DW_OP_LLVM_fragment, 128, 64)), !dbg !2264
  tail call void @llvm.dbg.value(metadata i64 poison, metadata !1765, metadata !DIExpression(DW_OP_LLVM_fragment, 192, 64)), !dbg !2264
  br label %bb1.i, !dbg !2265

bb1.i:                                            ; preds = %bb1.i.backedge, %bb19
  %_14.i.i.i6.i = phi ptr [ %self3.i, %bb19 ], [ %_14.i.i.i.i, %bb1.i.backedge ]
  tail call void @llvm.dbg.value(metadata i64 poison, metadata !1765, metadata !DIExpression(DW_OP_LLVM_fragment, 128, 64)), !dbg !2264
  tail call void @llvm.dbg.value(metadata ptr poison, metadata !1765, metadata !DIExpression(DW_OP_LLVM_fragment, 0, 64)), !dbg !2264
  tail call void @llvm.dbg.value(metadata ptr undef, metadata !2266, metadata !DIExpression()), !dbg !2297
  tail call void @llvm.dbg.value(metadata ptr undef, metadata !2339, metadata !DIExpression()), !dbg !2365
  tail call void @llvm.dbg.value(metadata ptr undef, metadata !2367, metadata !DIExpression()), !dbg !2390
  tail call void @llvm.dbg.value(metadata ptr undef, metadata !2392, metadata !DIExpression()), !dbg !2399
  tail call void @llvm.dbg.value(metadata ptr %19, metadata !2388, metadata !DIExpression()), !dbg !2401
  tail call void @llvm.dbg.value(metadata ptr undef, metadata !2402, metadata !DIExpression()), !dbg !2411
  tail call void @llvm.dbg.value(metadata ptr undef, metadata !2410, metadata !DIExpression()), !dbg !2411
  %20 = icmp eq ptr %_14.i.i.i6.i, %19, !dbg !2413
  br i1 %20, label %bb9, label %bb3.i, !dbg !2414

bb3.i:                                            ; preds = %bb1.i
  tail call void @llvm.dbg.value(metadata ptr undef, metadata !2415, metadata !DIExpression()), !dbg !2429
  tail call void @llvm.dbg.value(metadata i64 1, metadata !2421, metadata !DIExpression()), !dbg !2429
  tail call void @llvm.dbg.value(metadata i64 1, metadata !2431, metadata !DIExpression()), !dbg !2439
  tail call void @llvm.dbg.value(metadata ptr %_14.i.i.i6.i, metadata !2422, metadata !DIExpression()), !dbg !2441
  tail call void @llvm.dbg.value(metadata ptr undef, metadata !2426, metadata !DIExpression(DW_OP_plus_uconst, 8, DW_OP_stack_value)), !dbg !2442
  tail call void @llvm.dbg.value(metadata ptr %_14.i.i.i6.i, metadata !2438, metadata !DIExpression()), !dbg !2439
  %_14.i.i.i.i = getelementptr inbounds %"slab::Entry<core::option::Option<core::task::wake::Waker>>", ptr %_14.i.i.i6.i, i64 1, !dbg !2443
  tail call void @llvm.dbg.value(metadata ptr %_14.i.i.i.i, metadata !1765, metadata !DIExpression(DW_OP_LLVM_fragment, 0, 64)), !dbg !2264
  tail call void @llvm.dbg.value(metadata i64 poison, metadata !1765, metadata !DIExpression(DW_OP_plus_uconst, 1, DW_OP_stack_value, DW_OP_LLVM_fragment, 128, 64)), !dbg !2264
  tail call void @llvm.dbg.value(metadata i64 poison, metadata !2325, metadata !DIExpression()), !dbg !2444
  tail call void @llvm.dbg.value(metadata ptr %_14.i.i.i6.i, metadata !2327, metadata !DIExpression()), !dbg !2444
  %_9.i = load i64, ptr %_14.i.i.i6.i, align 8, !dbg !2445, !range !2446, !noalias !2447, !noundef !27
  %trunc.not.not.i = icmp eq i64 %_9.i, 0, !dbg !2445
  br i1 %trunc.not.not.i, label %bb1.i.backedge, label %bb6, !dbg !2445

bb1.i.backedge:                                   ; preds = %bb3.i, %bb8, %bb6
  br label %bb1.i, !dbg !2264

bb6:                                              ; preds = %bb3.i
  tail call void @llvm.dbg.value(metadata ptr %_14.i.i.i6.i, metadata !2328, metadata !DIExpression(DW_OP_plus_uconst, 8, DW_OP_stack_value)), !dbg !2450
  tail call void @llvm.dbg.value(metadata i64 poison, metadata !1765, metadata !DIExpression(DW_OP_constu, 1, DW_OP_minus, DW_OP_stack_value, DW_OP_LLVM_fragment, 192, 64)), !dbg !2264
  %_12.i = getelementptr inbounds i8, ptr %_14.i.i.i6.i, i64 8, !dbg !2451
  tail call void @llvm.dbg.value(metadata i64 poison, metadata !1765, metadata !DIExpression(DW_OP_plus_uconst, 1, DW_OP_stack_value, DW_OP_LLVM_fragment, 128, 64)), !dbg !2264
  tail call void @llvm.dbg.value(metadata ptr %_14.i.i.i.i, metadata !1765, metadata !DIExpression(DW_OP_LLVM_fragment, 0, 64)), !dbg !2264
  tail call void @llvm.dbg.value(metadata i64 poison, metadata !1792, metadata !DIExpression()), !dbg !2452
  tail call void @llvm.dbg.value(metadata ptr %_12.i, metadata !1794, metadata !DIExpression()), !dbg !2452
  tail call void @llvm.dbg.value(metadata ptr %_12.i, metadata !1843, metadata !DIExpression()), !dbg !2453
  tail call void @llvm.dbg.value(metadata ptr %_12.i, metadata !1832, metadata !DIExpression()), !dbg !1835
  tail call void @llvm.dbg.value(metadata ptr %_12.i, metadata !2454, metadata !DIExpression()), !dbg !2461
  tail call void @llvm.dbg.value(metadata ptr %_12.i, metadata !1852, metadata !DIExpression()), !dbg !1853
  %21 = load ptr, ptr %_12.i, align 8, !dbg !2463, !align !418, !noundef !27
  %22 = getelementptr inbounds i8, ptr %_14.i.i.i6.i, i64 16, !dbg !2463
  %23 = load ptr, ptr %22, align 8, !dbg !2463
  tail call void @llvm.dbg.value(metadata ptr %21, metadata !1833, metadata !DIExpression(DW_OP_LLVM_fragment, 0, 64)), !dbg !2464
  tail call void @llvm.dbg.value(metadata ptr %23, metadata !1833, metadata !DIExpression(DW_OP_LLVM_fragment, 64, 64)), !dbg !2464
  store ptr null, ptr %_12.i, align 8, !dbg !2465
  %24 = icmp eq ptr %21, null, !dbg !2466
  br i1 %24, label %bb1.i.backedge, label %bb8, !dbg !2466

bb8:                                              ; preds = %bb6
  tail call void @llvm.dbg.value(metadata ptr %21, metadata !1796, metadata !DIExpression(DW_OP_LLVM_fragment, 0, 64)), !dbg !2467
  tail call void @llvm.dbg.value(metadata ptr %21, metadata !2468, metadata !DIExpression(DW_OP_LLVM_fragment, 0, 64)), !dbg !2480
  tail call void @llvm.dbg.value(metadata ptr %23, metadata !1796, metadata !DIExpression(DW_OP_LLVM_fragment, 64, 64)), !dbg !2467
  tail call void @llvm.dbg.value(metadata ptr %23, metadata !2468, metadata !DIExpression(DW_OP_LLVM_fragment, 64, 64)), !dbg !2480
  %25 = getelementptr inbounds i8, ptr %21, i64 8, !dbg !2482
  %wake = load ptr, ptr %25, align 8, !dbg !2482, !nonnull !27, !noundef !27
  tail call void @llvm.dbg.value(metadata ptr %wake, metadata !2476, metadata !DIExpression()), !dbg !2483
  tail call void @llvm.dbg.value(metadata ptr %23, metadata !2478, metadata !DIExpression()), !dbg !2484
  invoke void %wake(ptr noundef %23)
          to label %bb1.i.backedge unwind label %cleanup, !dbg !2485

terminate:                                        ; preds = %cleanup
  %26 = landingpad { ptr, i32 }
          filter [0 x ptr] zeroinitializer
; call core::panicking::panic_in_cleanup
  tail call void @_ZN4core9panicking16panic_in_cleanup17h43442956f23e9cbeE() #25, !dbg !2486
  unreachable, !dbg !2486
}

; futures_util::stream::stream::flatten_unordered::SharedPollState::new
; Function Attrs: nonlazybind uwtable
define noalias noundef nonnull ptr @_ZN12futures_util6stream6stream17flatten_unordered15SharedPollState3new17h05e33cf0edb69fceE(i8 noundef %value) unnamed_addr #4 personality ptr @rust_eh_personality !dbg !2487 {
start:
  call void @llvm.dbg.declare(metadata ptr poison, metadata !2522, metadata !DIExpression(DW_OP_LLVM_fragment, 136, 56)), !dbg !2528
  tail call void @llvm.dbg.value(metadata i8 %value, metadata !2521, metadata !DIExpression()), !dbg !2540
  tail call void @llvm.dbg.value(metadata i8 %value, metadata !2536, metadata !DIExpression()), !dbg !2541
  tail call void @llvm.dbg.value(metadata i64 1, metadata !2522, metadata !DIExpression(DW_OP_LLVM_fragment, 0, 64)), !dbg !2542
  tail call void @llvm.dbg.value(metadata i64 1, metadata !2522, metadata !DIExpression(DW_OP_LLVM_fragment, 64, 64)), !dbg !2542
  tail call void @llvm.dbg.value(metadata i8 %value, metadata !2522, metadata !DIExpression(DW_OP_LLVM_fragment, 128, 8)), !dbg !2542
  call void @llvm.dbg.value(metadata ptr inttoptr (i64 1 to ptr), metadata !1575, metadata !DIExpression()), !dbg !2543
  call void @llvm.dbg.value(metadata i64 24, metadata !1613, metadata !DIExpression()), !dbg !2546
  call void @llvm.dbg.value(metadata i64 8, metadata !1614, metadata !DIExpression()), !dbg !2546
  call void @llvm.dbg.value(metadata i64 8, metadata !1615, metadata !DIExpression(DW_OP_LLVM_fragment, 0, 64)), !dbg !2547
  call void @llvm.dbg.value(metadata i64 8, metadata !1605, metadata !DIExpression(DW_OP_LLVM_fragment, 0, 64)), !dbg !2543
  call void @llvm.dbg.value(metadata i64 24, metadata !1615, metadata !DIExpression(DW_OP_LLVM_fragment, 64, 64)), !dbg !2547
  call void @llvm.dbg.value(metadata i64 24, metadata !1605, metadata !DIExpression(DW_OP_LLVM_fragment, 64, 64)), !dbg !2543
  call void @llvm.dbg.value(metadata i64 8, metadata !1621, metadata !DIExpression(DW_OP_LLVM_fragment, 0, 64)), !dbg !2548
  call void @llvm.dbg.value(metadata i64 24, metadata !1621, metadata !DIExpression(DW_OP_LLVM_fragment, 64, 64)), !dbg !2548
  call void @llvm.dbg.value(metadata ptr undef, metadata !1627, metadata !DIExpression()), !dbg !2548
  call void @llvm.dbg.value(metadata i1 false, metadata !1628, metadata !DIExpression(DW_OP_LLVM_convert, 1, DW_ATE_unsigned, DW_OP_LLVM_convert, 8, DW_ATE_unsigned, DW_OP_stack_value)), !dbg !2548
  call void @llvm.dbg.value(metadata i64 24, metadata !1629, metadata !DIExpression()), !dbg !2550
  call void @llvm.dbg.value(metadata ptr @__rust_no_alloc_shim_is_unstable, metadata !1660, metadata !DIExpression()), !dbg !2551
  call void @llvm.dbg.value(metadata i64 8, metadata !1672, metadata !DIExpression(DW_OP_LLVM_fragment, 0, 64)), !dbg !2554
  call void @llvm.dbg.value(metadata i64 24, metadata !1672, metadata !DIExpression(DW_OP_LLVM_fragment, 64, 64)), !dbg !2554
  %0 = load volatile i8, ptr @__rust_no_alloc_shim_is_unstable, align 1, !dbg !2555, !noalias !2556
  %_0.i.i.i = tail call noalias noundef align 8 dereferenceable_or_null(24) ptr @__rust_alloc(i64 noundef 24, i64 noundef 8) #16, !dbg !2559, !noalias !2556
  %1 = icmp eq ptr %_0.i.i.i, null, !dbg !2560
  br i1 %1, label %bb2.i, label %_ZN5alloc5alloc15exchange_malloc17h354862c5666a0a2aE.exit, !dbg !2561

bb2.i:                                            ; preds = %start
; call alloc::alloc::handle_alloc_error
  tail call void @_ZN5alloc5alloc18handle_alloc_error17h668ad8a7a2fd77cbE(i64 noundef 8, i64 noundef 24) #24, !dbg !2562, !noalias !2556
  unreachable, !dbg !2562

_ZN5alloc5alloc15exchange_malloc17h354862c5666a0a2aE.exit: ; preds = %start
  store i64 1, ptr %_0.i.i.i, align 8, !dbg !2563
  %_6.sroa.4.0._0.i.i.i.sroa_idx = getelementptr inbounds i8, ptr %_0.i.i.i, i64 8, !dbg !2563
  store i64 1, ptr %_6.sroa.4.0._0.i.i.i.sroa_idx, align 8, !dbg !2563
  %_6.sroa.5.0._0.i.i.i.sroa_idx = getelementptr inbounds i8, ptr %_0.i.i.i, i64 16, !dbg !2563
  store i8 %value, ptr %_6.sroa.5.0._0.i.i.i.sroa_idx, align 8, !dbg !2563
  ret ptr %_0.i.i.i, !dbg !2564
}

; futures_util::stream::stream::flatten_unordered::SharedPollState::start_polling
; Function Attrs: nofree norecurse nounwind nonlazybind memory(readwrite, inaccessiblemem: none) uwtable
define void @_ZN12futures_util6stream6stream17flatten_unordered15SharedPollState13start_polling17h7f66c1de313a4861E(ptr dead_on_unwind noalias nocapture noundef writable writeonly sret([24 x i8]) align 8 dereferenceable(24) %_0, ptr noalias noundef readonly align 8 dereferenceable(8) %self) unnamed_addr #6 personality ptr @rust_eh_personality !dbg !2565 {
start:
  call void @llvm.dbg.declare(metadata ptr undef, metadata !2613, metadata !DIExpression()), !dbg !2619
  call void @llvm.dbg.declare(metadata ptr undef, metadata !2620, metadata !DIExpression()), !dbg !2627
  tail call void @llvm.dbg.value(metadata ptr %self, metadata !2610, metadata !DIExpression()), !dbg !2629
  tail call void @llvm.dbg.value(metadata ptr %self, metadata !2630, metadata !DIExpression()), !dbg !2638
  tail call void @llvm.dbg.value(metadata ptr %self, metadata !2640, metadata !DIExpression()), !dbg !2648
  tail call void @llvm.dbg.value(metadata ptr %self, metadata !2650, metadata !DIExpression()), !dbg !2658
  %self6 = load ptr, ptr %self, align 8, !dbg !2660, !nonnull !27, !noundef !27
  %_5 = getelementptr inbounds i8, ptr %self6, i64 16, !dbg !2639
  tail call void @llvm.dbg.value(metadata ptr %_5, metadata !2661, metadata !DIExpression()), !dbg !2698
  tail call void @llvm.dbg.value(metadata ptr %_5, metadata !2700, metadata !DIExpression()), !dbg !2708
  tail call void @llvm.dbg.value(metadata ptr %_5, metadata !2710, metadata !DIExpression()), !dbg !2721
  tail call void @llvm.dbg.value(metadata i8 4, metadata !2687, metadata !DIExpression()), !dbg !2698
  tail call void @llvm.dbg.value(metadata i8 4, metadata !2719, metadata !DIExpression()), !dbg !2721
  tail call void @llvm.dbg.value(metadata i8 4, metadata !2688, metadata !DIExpression()), !dbg !2698
  tail call void @llvm.dbg.value(metadata i8 4, metadata !2707, metadata !DIExpression()), !dbg !2708
  tail call void @llvm.dbg.value(metadata i8 4, metadata !2720, metadata !DIExpression()), !dbg !2721
  call void @llvm.dbg.declare(metadata ptr poison, metadata !2689, metadata !DIExpression()), !dbg !2723
  tail call void @llvm.dbg.value(metadata i8 4, metadata !2053, metadata !DIExpression()), !dbg !2724
  tail call void @llvm.dbg.value(metadata ptr %_5, metadata !2058, metadata !DIExpression()), !dbg !2724
  %0 = load atomic i8, ptr %_5 seq_cst, align 1, !dbg !2726
  tail call void @llvm.dbg.value(metadata i8 %0, metadata !2690, metadata !DIExpression()), !dbg !2727
  br label %bb1.i, !dbg !2728

bb1.i:                                            ; preds = %bb3.i, %start
  %prev.sroa.0.0.i = phi i8 [ %0, %start ], [ %3, %bb3.i ], !dbg !2698
  tail call void @llvm.dbg.value(metadata i8 %prev.sroa.0.0.i, metadata !2690, metadata !DIExpression()), !dbg !2727
  tail call void @llvm.dbg.value(metadata ptr undef, metadata !2729, metadata !DIExpression()), !dbg !2747
  tail call void @llvm.dbg.value(metadata i8 %prev.sroa.0.0.i, metadata !2746, metadata !DIExpression()), !dbg !2747
  %_4.i.i = and i8 %prev.sroa.0.0.i, 8, !dbg !2749
  %_3.i.not.not.i.not = icmp eq i8 %_4.i.i, 0, !dbg !2749
  br i1 %_3.i.not.not.i.not, label %bb3.i, label %bb3, !dbg !2750

bb3.i:                                            ; preds = %bb1.i
  tail call void @llvm.dbg.value(metadata i8 4, metadata !2692, metadata !DIExpression()), !dbg !2751
  tail call void @llvm.dbg.value(metadata i8 4, metadata !2718, metadata !DIExpression()), !dbg !2721
  tail call void @llvm.dbg.value(metadata i8 %prev.sroa.0.0.i, metadata !2717, metadata !DIExpression()), !dbg !2721
  tail call void @llvm.dbg.value(metadata i8 4, metadata !2752, metadata !DIExpression()), !dbg !2764
  tail call void @llvm.dbg.value(metadata i8 4, metadata !2760, metadata !DIExpression()), !dbg !2764
  tail call void @llvm.dbg.value(metadata ptr %_5, metadata !2757, metadata !DIExpression()), !dbg !2764
  tail call void @llvm.dbg.value(metadata i8 %prev.sroa.0.0.i, metadata !2758, metadata !DIExpression()), !dbg !2764
  tail call void @llvm.dbg.value(metadata i8 4, metadata !2759, metadata !DIExpression()), !dbg !2764
  %1 = cmpxchg weak ptr %_5, i8 %prev.sroa.0.0.i, i8 4 seq_cst seq_cst, align 1, !dbg !2766
  %2 = extractvalue { i8, i1 } %1, 1, !dbg !2766
  %3 = extractvalue { i8, i1 } %1, 0, !dbg !2766
  br i1 %2, label %bb8, label %bb1.i, !dbg !2767

bb8:                                              ; preds = %bb3.i
  tail call void @llvm.dbg.value(metadata i8 %3, metadata !2611, metadata !DIExpression()), !dbg !2768
  tail call void @llvm.dbg.value(metadata ptr %self, metadata !2617, metadata !DIExpression(DW_OP_LLVM_fragment, 0, 64)), !dbg !2769
  tail call void @llvm.dbg.value(metadata i8 1, metadata !2617, metadata !DIExpression(DW_OP_LLVM_fragment, 64, 8)), !dbg !2769
  store i8 %3, ptr %_0, align 8, !dbg !2770
  %_9.sroa.49.0._0.sroa_idx = getelementptr inbounds i8, ptr %_0, i64 8, !dbg !2770
  store ptr %self, ptr %_9.sroa.49.0._0.sroa_idx, align 8, !dbg !2770
  br label %bb3, !dbg !2771

bb3:                                              ; preds = %bb1.i, %bb8
  %.sink = phi i8 [ 1, %bb8 ], [ 2, %bb1.i ]
  %_9.sroa.5.0._0.sroa_idx = getelementptr inbounds i8, ptr %_0, i64 16, !dbg !2629
  store i8 %.sink, ptr %_9.sroa.5.0._0.sroa_idx, align 8, !dbg !2629
  ret void, !dbg !2771
}

; futures_util::stream::stream::flatten_unordered::SharedPollState::stop_polling
; Function Attrs: nofree norecurse nounwind nonlazybind memory(readwrite, inaccessiblemem: none) uwtable
define noundef i8 @_ZN12futures_util6stream6stream17flatten_unordered15SharedPollState12stop_polling17hd43e45ed2da66becE(ptr noalias nocapture noundef readonly align 8 dereferenceable(8) %self, i8 noundef %0, i1 noundef zeroext %1) unnamed_addr #6 personality ptr @rust_eh_personality !dbg !2772 {
start:
  tail call void @llvm.dbg.value(metadata i8 %0, metadata !2778, metadata !DIExpression()), !dbg !2780
  tail call void @llvm.dbg.value(metadata i1 %1, metadata !2779, metadata !DIExpression(DW_OP_LLVM_convert, 1, DW_ATE_unsigned, DW_OP_LLVM_convert, 8, DW_ATE_unsigned, DW_OP_stack_value)), !dbg !2780
  tail call void @llvm.dbg.value(metadata ptr %self, metadata !2777, metadata !DIExpression()), !dbg !2780
  tail call void @llvm.dbg.value(metadata ptr %self, metadata !2781, metadata !DIExpression()), !dbg !2785
  tail call void @llvm.dbg.value(metadata ptr %self, metadata !2787, metadata !DIExpression()), !dbg !2791
  tail call void @llvm.dbg.value(metadata ptr %self, metadata !2793, metadata !DIExpression()), !dbg !2797
  %self3 = load ptr, ptr %self, align 8, !dbg !2799, !nonnull !27, !noundef !27
  %_5 = getelementptr inbounds i8, ptr %self3, i64 16, !dbg !2786
  tail call void @llvm.dbg.value(metadata ptr undef, metadata !2800, metadata !DIExpression(DW_OP_LLVM_fragment, 0, 64)), !dbg !2826
  tail call void @llvm.dbg.value(metadata ptr undef, metadata !2800, metadata !DIExpression(DW_OP_LLVM_fragment, 64, 64)), !dbg !2826
  tail call void @llvm.dbg.value(metadata ptr %_5, metadata !2815, metadata !DIExpression()), !dbg !2826
  tail call void @llvm.dbg.value(metadata ptr %_5, metadata !2828, metadata !DIExpression()), !dbg !2833
  tail call void @llvm.dbg.value(metadata ptr %_5, metadata !2835, metadata !DIExpression()), !dbg !2843
  tail call void @llvm.dbg.value(metadata i8 4, metadata !2816, metadata !DIExpression()), !dbg !2826
  tail call void @llvm.dbg.value(metadata i8 4, metadata !2841, metadata !DIExpression()), !dbg !2843
  tail call void @llvm.dbg.value(metadata i8 4, metadata !2817, metadata !DIExpression()), !dbg !2826
  tail call void @llvm.dbg.value(metadata i8 4, metadata !2832, metadata !DIExpression()), !dbg !2833
  tail call void @llvm.dbg.value(metadata i8 4, metadata !2842, metadata !DIExpression()), !dbg !2843
  tail call void @llvm.dbg.value(metadata i8 4, metadata !2053, metadata !DIExpression()), !dbg !2845
  tail call void @llvm.dbg.value(metadata ptr %_5, metadata !2058, metadata !DIExpression()), !dbg !2845
  %2 = load atomic i8, ptr %_5 seq_cst, align 1, !dbg !2847, !noalias !2848
  tail call void @llvm.dbg.value(metadata i8 %2, metadata !2818, metadata !DIExpression()), !dbg !2852
  %3 = or i8 %0, 16
  br i1 %1, label %start.split.us.i, label %bb1.i

start.split.us.i:                                 ; preds = %start
  %next_value.sroa.0.0.masked.i.us.i = and i8 %3, -13
  br label %bb1.us.i, !dbg !2853

bb1.us.i:                                         ; preds = %bb1.us.i, %start.split.us.i
  %prev.sroa.0.0.us.i = phi i8 [ %2, %start.split.us.i ], [ %7, %bb1.us.i ], !dbg !2826
  tail call void @llvm.dbg.value(metadata i8 %prev.sroa.0.0.us.i, metadata !2818, metadata !DIExpression()), !dbg !2852
  call void @llvm.dbg.value(metadata i8 %prev.sroa.0.0.us.i, metadata !2854, metadata !DIExpression()), !dbg !2864
  call void @llvm.dbg.value(metadata ptr undef, metadata !2860, metadata !DIExpression(DW_OP_deref, DW_OP_deref)), !dbg !2864
  call void @llvm.dbg.value(metadata ptr undef, metadata !2861, metadata !DIExpression(DW_OP_deref, DW_OP_plus_uconst, 8, DW_OP_deref)), !dbg !2864
  call void @llvm.dbg.value(metadata i8 %0, metadata !2862, metadata !DIExpression()), !dbg !2866
  %4 = and i8 %prev.sroa.0.0.us.i, 3, !dbg !2867
  call void @llvm.dbg.value(metadata i8 %4, metadata !2854, metadata !DIExpression()), !dbg !2864
  call void @llvm.dbg.value(metadata i8 poison, metadata !2862, metadata !DIExpression()), !dbg !2866
  call void @llvm.dbg.value(metadata !DIArgList(i8 poison, i8 poison), metadata !2862, metadata !DIExpression(DW_OP_LLVM_arg, 0, DW_OP_LLVM_arg, 1, DW_OP_or, DW_OP_stack_value)), !dbg !2866
  %_9.i.us.i = or i8 %4, %next_value.sroa.0.0.masked.i.us.i, !dbg !2868
  tail call void @llvm.dbg.value(metadata i8 %_9.i.us.i, metadata !2820, metadata !DIExpression()), !dbg !2869
  tail call void @llvm.dbg.value(metadata i8 %_9.i.us.i, metadata !2840, metadata !DIExpression()), !dbg !2843
  tail call void @llvm.dbg.value(metadata i8 %prev.sroa.0.0.us.i, metadata !2839, metadata !DIExpression()), !dbg !2843
  tail call void @llvm.dbg.value(metadata i8 4, metadata !2752, metadata !DIExpression()), !dbg !2870
  tail call void @llvm.dbg.value(metadata i8 4, metadata !2760, metadata !DIExpression()), !dbg !2870
  tail call void @llvm.dbg.value(metadata ptr %_5, metadata !2757, metadata !DIExpression()), !dbg !2870
  tail call void @llvm.dbg.value(metadata i8 %prev.sroa.0.0.us.i, metadata !2758, metadata !DIExpression()), !dbg !2870
  tail call void @llvm.dbg.value(metadata i8 %_9.i.us.i, metadata !2759, metadata !DIExpression()), !dbg !2870
  %5 = cmpxchg weak ptr %_5, i8 %prev.sroa.0.0.us.i, i8 %_9.i.us.i seq_cst seq_cst, align 1, !dbg !2872, !noalias !2848
  %6 = extractvalue { i8, i1 } %5, 1, !dbg !2872
  %7 = extractvalue { i8, i1 } %5, 0, !dbg !2872
  br i1 %6, label %"_ZN4core6result19Result$LT$T$C$E$GT$6unwrap17ha3c4dbcd3354da34E.exit", label %bb1.us.i, !dbg !2873

bb1.i:                                            ; preds = %start, %bb1.i
  %prev.sroa.0.0.i = phi i8 [ %11, %bb1.i ], [ %2, %start ], !dbg !2826
  tail call void @llvm.dbg.value(metadata i8 %prev.sroa.0.0.i, metadata !2818, metadata !DIExpression()), !dbg !2852
  call void @llvm.dbg.value(metadata i8 %prev.sroa.0.0.i, metadata !2854, metadata !DIExpression()), !dbg !2864
  call void @llvm.dbg.value(metadata ptr undef, metadata !2860, metadata !DIExpression(DW_OP_deref, DW_OP_deref)), !dbg !2864
  call void @llvm.dbg.value(metadata ptr undef, metadata !2861, metadata !DIExpression(DW_OP_deref, DW_OP_plus_uconst, 8, DW_OP_deref)), !dbg !2864
  call void @llvm.dbg.value(metadata i8 %0, metadata !2862, metadata !DIExpression()), !dbg !2866
  %8 = and i8 %prev.sroa.0.0.i, 3, !dbg !2867
  call void @llvm.dbg.value(metadata i8 %8, metadata !2854, metadata !DIExpression()), !dbg !2864
  %_4.not.i.i = icmp eq i8 %8, 0, !dbg !2874
  %spec.select.i = select i1 %_4.not.i.i, i8 %0, i8 %3, !dbg !2874
  call void @llvm.dbg.value(metadata i8 %spec.select.i, metadata !2862, metadata !DIExpression()), !dbg !2866
  call void @llvm.dbg.value(metadata !DIArgList(i8 %spec.select.i, i8 %8), metadata !2862, metadata !DIExpression(DW_OP_LLVM_arg, 0, DW_OP_LLVM_arg, 1, DW_OP_or, DW_OP_stack_value)), !dbg !2866
  %next_value.sroa.0.0.masked.i.i = and i8 %spec.select.i, -13, !dbg !2868
  %_9.i.i = or i8 %next_value.sroa.0.0.masked.i.i, %8, !dbg !2868
  tail call void @llvm.dbg.value(metadata i8 %_9.i.i, metadata !2820, metadata !DIExpression()), !dbg !2869
  tail call void @llvm.dbg.value(metadata i8 %_9.i.i, metadata !2840, metadata !DIExpression()), !dbg !2843
  tail call void @llvm.dbg.value(metadata i8 %prev.sroa.0.0.i, metadata !2839, metadata !DIExpression()), !dbg !2843
  tail call void @llvm.dbg.value(metadata i8 4, metadata !2752, metadata !DIExpression()), !dbg !2870
  tail call void @llvm.dbg.value(metadata i8 4, metadata !2760, metadata !DIExpression()), !dbg !2870
  tail call void @llvm.dbg.value(metadata ptr %_5, metadata !2757, metadata !DIExpression()), !dbg !2870
  tail call void @llvm.dbg.value(metadata i8 %prev.sroa.0.0.i, metadata !2758, metadata !DIExpression()), !dbg !2870
  tail call void @llvm.dbg.value(metadata i8 %_9.i.i, metadata !2759, metadata !DIExpression()), !dbg !2870
  %9 = cmpxchg weak ptr %_5, i8 %prev.sroa.0.0.i, i8 %_9.i.i seq_cst seq_cst, align 1, !dbg !2872, !noalias !2848
  %10 = extractvalue { i8, i1 } %9, 1, !dbg !2872
  %11 = extractvalue { i8, i1 } %9, 0, !dbg !2872
  br i1 %10, label %"_ZN4core6result19Result$LT$T$C$E$GT$6unwrap17ha3c4dbcd3354da34E.exit", label %bb1.i, !dbg !2873

"_ZN4core6result19Result$LT$T$C$E$GT$6unwrap17ha3c4dbcd3354da34E.exit": ; preds = %bb1.i, %bb1.us.i
  %.us-phi9.i = phi i8 [ %7, %bb1.us.i ], [ %11, %bb1.i ]
  ret i8 %.us-phi9.i, !dbg !2875
}

; futures_util::stream::stream::flatten_unordered::SharedPollState::stop_waking
; Function Attrs: nofree norecurse nounwind nonlazybind memory(readwrite, inaccessiblemem: none) uwtable
define noundef i8 @_ZN12futures_util6stream6stream17flatten_unordered15SharedPollState11stop_waking17h2c8f5dcdf29677beE(ptr noalias nocapture noundef readonly align 8 dereferenceable(8) %self) unnamed_addr #6 personality ptr @rust_eh_personality !dbg !2876 {
start:
  tail call void @llvm.dbg.value(metadata ptr %self, metadata !2879, metadata !DIExpression()), !dbg !2882
  tail call void @llvm.dbg.value(metadata ptr %self, metadata !2883, metadata !DIExpression()), !dbg !2887
  tail call void @llvm.dbg.value(metadata ptr %self, metadata !2889, metadata !DIExpression()), !dbg !2893
  tail call void @llvm.dbg.value(metadata ptr %self, metadata !2895, metadata !DIExpression()), !dbg !2899
  %self4 = load ptr, ptr %self, align 8, !dbg !2901, !nonnull !27, !noundef !27
  %_4 = getelementptr inbounds i8, ptr %self4, i64 16, !dbg !2888
  tail call void @llvm.dbg.value(metadata ptr %_4, metadata !2902, metadata !DIExpression()), !dbg !2923
  tail call void @llvm.dbg.value(metadata ptr %_4, metadata !2925, metadata !DIExpression()), !dbg !2930
  tail call void @llvm.dbg.value(metadata ptr %_4, metadata !2932, metadata !DIExpression()), !dbg !2940
  tail call void @llvm.dbg.value(metadata i8 4, metadata !2912, metadata !DIExpression()), !dbg !2923
  tail call void @llvm.dbg.value(metadata i8 4, metadata !2938, metadata !DIExpression()), !dbg !2940
  tail call void @llvm.dbg.value(metadata i8 4, metadata !2913, metadata !DIExpression()), !dbg !2923
  tail call void @llvm.dbg.value(metadata i8 4, metadata !2929, metadata !DIExpression()), !dbg !2930
  tail call void @llvm.dbg.value(metadata i8 4, metadata !2939, metadata !DIExpression()), !dbg !2940
  call void @llvm.dbg.declare(metadata ptr poison, metadata !2914, metadata !DIExpression()), !dbg !2942
  tail call void @llvm.dbg.value(metadata i8 4, metadata !2053, metadata !DIExpression()), !dbg !2943
  tail call void @llvm.dbg.value(metadata ptr %_4, metadata !2058, metadata !DIExpression()), !dbg !2943
  %0 = load atomic i8, ptr %_4 seq_cst, align 1, !dbg !2945
  tail call void @llvm.dbg.value(metadata i8 %0, metadata !2915, metadata !DIExpression()), !dbg !2946
  br label %bb1.i, !dbg !2947

bb1.i:                                            ; preds = %bb3.i, %start
  %prev.sroa.0.0.i = phi i8 [ %0, %start ], [ %3, %bb3.i ], !dbg !2923
  tail call void @llvm.dbg.value(metadata i8 %prev.sroa.0.0.i, metadata !2915, metadata !DIExpression()), !dbg !2946
  tail call void @llvm.dbg.value(metadata ptr undef, metadata !2948, metadata !DIExpression()), !dbg !2957
  tail call void @llvm.dbg.value(metadata i8 %prev.sroa.0.0.i, metadata !2954, metadata !DIExpression()), !dbg !2957
  %_4.i.i = and i8 %prev.sroa.0.0.i, -25, !dbg !2959
  %next_value.i.i = or disjoint i8 %_4.i.i, 16, !dbg !2959
  tail call void @llvm.dbg.value(metadata i8 %next_value.i.i, metadata !2955, metadata !DIExpression()), !dbg !2960
  %_5.not.i.not.not.i = icmp eq i8 %next_value.i.i, %prev.sroa.0.0.i, !dbg !2961
  br i1 %_5.not.i.not.not.i, label %bb2, label %bb3.i, !dbg !2962

bb3.i:                                            ; preds = %bb1.i
  tail call void @llvm.dbg.value(metadata i8 %next_value.i.i, metadata !2917, metadata !DIExpression()), !dbg !2963
  tail call void @llvm.dbg.value(metadata i8 %next_value.i.i, metadata !2937, metadata !DIExpression()), !dbg !2940
  tail call void @llvm.dbg.value(metadata i8 %prev.sroa.0.0.i, metadata !2936, metadata !DIExpression()), !dbg !2940
  tail call void @llvm.dbg.value(metadata i8 4, metadata !2752, metadata !DIExpression()), !dbg !2964
  tail call void @llvm.dbg.value(metadata i8 4, metadata !2760, metadata !DIExpression()), !dbg !2964
  tail call void @llvm.dbg.value(metadata ptr %_4, metadata !2757, metadata !DIExpression()), !dbg !2964
  tail call void @llvm.dbg.value(metadata i8 %prev.sroa.0.0.i, metadata !2758, metadata !DIExpression()), !dbg !2964
  tail call void @llvm.dbg.value(metadata i8 %next_value.i.i, metadata !2759, metadata !DIExpression()), !dbg !2964
  %1 = cmpxchg weak ptr %_4, i8 %prev.sroa.0.0.i, i8 %next_value.i.i seq_cst seq_cst, align 1, !dbg !2966
  %2 = extractvalue { i8, i1 } %1, 1, !dbg !2966
  %3 = extractvalue { i8, i1 } %1, 0, !dbg !2966
  br i1 %2, label %bb2, label %bb1.i, !dbg !2967

bb2:                                              ; preds = %bb1.i, %bb3.i
  %_0.sroa.3.0.i10 = phi i8 [ %3, %bb3.i ], [ %prev.sroa.0.0.i, %bb1.i ]
  ret i8 %_0.sroa.3.0.i10, !dbg !2968
}

; futures_util::stream::stream::flatten_unordered::SharedPollState::reset
; Function Attrs: mustprogress nofree norecurse nounwind nonlazybind willreturn memory(readwrite, inaccessiblemem: none) uwtable
define noundef i8 @_ZN12futures_util6stream6stream17flatten_unordered15SharedPollState5reset17hac92f0430ee7338fE(ptr noalias nocapture noundef readonly align 8 dereferenceable(8) %self) unnamed_addr #5 !dbg !2969 {
start:
  tail call void @llvm.dbg.value(metadata i8 3, metadata !2973, metadata !DIExpression()), !dbg !2982
  tail call void @llvm.dbg.value(metadata i8 4, metadata !2981, metadata !DIExpression()), !dbg !2982
  tail call void @llvm.dbg.value(metadata i8 3, metadata !2984, metadata !DIExpression()), !dbg !2992
  tail call void @llvm.dbg.value(metadata i8 4, metadata !2991, metadata !DIExpression()), !dbg !2992
  tail call void @llvm.dbg.value(metadata ptr %self, metadata !2972, metadata !DIExpression()), !dbg !2994
  tail call void @llvm.dbg.value(metadata ptr %self, metadata !2995, metadata !DIExpression()), !dbg !2999
  tail call void @llvm.dbg.value(metadata ptr %self, metadata !3001, metadata !DIExpression()), !dbg !3005
  tail call void @llvm.dbg.value(metadata ptr %self, metadata !3007, metadata !DIExpression()), !dbg !3011
  %self5 = load ptr, ptr %self, align 8, !dbg !3013, !nonnull !27, !noundef !27
  tail call void @llvm.dbg.value(metadata ptr %self5, metadata !2980, metadata !DIExpression(DW_OP_plus_uconst, 16, DW_OP_stack_value)), !dbg !2982
  tail call void @llvm.dbg.value(metadata ptr %self5, metadata !3014, metadata !DIExpression(DW_OP_plus_uconst, 16, DW_OP_stack_value)), !dbg !3022
  %_10 = getelementptr inbounds i8, ptr %self5, i64 16, !dbg !3024
  tail call void @llvm.dbg.value(metadata ptr %_10, metadata !2990, metadata !DIExpression()), !dbg !2992
  %0 = atomicrmw xchg ptr %_10, i8 3 seq_cst, align 1, !dbg !3025
  ret i8 %0, !dbg !3026
}

; futures_util::stream::stream::flatten_unordered::WrappedWaker::replace_waker
; Function Attrs: nonlazybind uwtable
define void @_ZN12futures_util6stream6stream17flatten_unordered12WrappedWaker13replace_waker17h2d5ddc8e8762c7a6E(ptr noalias nocapture noundef readonly align 8 dereferenceable(8) %self_arc, ptr noalias nocapture noundef readonly align 8 dereferenceable(32) %cx) unnamed_addr #4 personality ptr @rust_eh_personality !dbg !3027 {
start:
  tail call void @llvm.dbg.value(metadata ptr %self_arc, metadata !3106, metadata !DIExpression()), !dbg !3108
  tail call void @llvm.dbg.value(metadata ptr %self_arc, metadata !3109, metadata !DIExpression()), !dbg !3117
  tail call void @llvm.dbg.value(metadata ptr %self_arc, metadata !3119, metadata !DIExpression()), !dbg !3127
  tail call void @llvm.dbg.value(metadata ptr %cx, metadata !3107, metadata !DIExpression()), !dbg !3108
  tail call void @llvm.dbg.value(metadata ptr %cx, metadata !3129, metadata !DIExpression()), !dbg !3136
  %self = load ptr, ptr %cx, align 8, !dbg !3138, !nonnull !27, !align !418, !noundef !27, !unsafe_inst !713
  tail call void @llvm.dbg.value(metadata ptr %self, metadata !3139, metadata !DIExpression()), !dbg !3146
  %_11 = load ptr, ptr %self, align 8, !dbg !3148, !nonnull !27, !align !418, !noundef !27, !unsafe_inst !713
  %_9 = load ptr, ptr %_11, align 8, !dbg !3148, !nonnull !27, !noundef !27, !unsafe_inst !713
  %0 = getelementptr inbounds i8, ptr %self, i64 8, !dbg !3149, !unsafe_inst !713
  %_10 = load ptr, ptr %0, align 8, !dbg !3149, !noundef !27, !unsafe_inst !713
  %1 = tail call { ptr, ptr } %_9(ptr noundef %_10), !dbg !3148, !unsafe_inst !713
  %_8.0 = extractvalue { ptr, ptr } %1, 0, !dbg !3148, !unsafe_inst !713
  %_8.1 = extractvalue { ptr, ptr } %1, 1, !dbg !3148, !unsafe_inst !713
  tail call void @llvm.dbg.value(metadata ptr %self_arc, metadata !3150, metadata !DIExpression()), !dbg !3158
  %self3 = load ptr, ptr %self_arc, align 8, !dbg !3160, !nonnull !27, !noundef !27, !unsafe_inst !713
  tail call void @llvm.dbg.value(metadata ptr %self3, metadata !3161, metadata !DIExpression(DW_OP_plus_uconst, 16, DW_OP_plus_uconst, 8, DW_OP_stack_value)), !dbg !3169
  %_16 = getelementptr inbounds i8, ptr %self3, i64 24, !dbg !3171
  %_16.val = load ptr, ptr %_16, align 8, !dbg !3172, !noundef !27
  call void @llvm.dbg.value(metadata ptr undef, metadata !3173, metadata !DIExpression()), !dbg !3178
  %2 = icmp eq ptr %_16.val, null, !dbg !3180
  br i1 %2, label %bb1, label %bb2.i, !dbg !3180

bb2.i:                                            ; preds = %start
  %3 = getelementptr i8, ptr %self3, i64 32, !dbg !3172
  %_16.val10 = load ptr, ptr %3, align 8, !dbg !3172
  call void @llvm.dbg.value(metadata ptr undef, metadata !3181, metadata !DIExpression()), !dbg !3187
  call void @llvm.dbg.value(metadata ptr undef, metadata !3189, metadata !DIExpression()), !dbg !3196
  %4 = getelementptr inbounds i8, ptr %_16.val, i64 24, !dbg !3198
  %_2.i.i.i = load ptr, ptr %4, align 8, !dbg !3198, !nonnull !27, !noundef !27
  invoke void %_2.i.i.i(ptr noundef %_16.val10)
          to label %bb1 unwind label %cleanup, !dbg !3198

cleanup:                                          ; preds = %bb2.i
  %5 = landingpad { ptr, i32 }
          cleanup
  store ptr %_8.0, ptr %_16, align 8, !dbg !3172, !unsafe_inst !713
  store ptr %_8.1, ptr %3, align 8, !dbg !3172, !unsafe_inst !713
  resume { ptr, i32 } %5, !dbg !3199, !unsafe_inst !713

bb1:                                              ; preds = %start, %bb2.i
  store ptr %_8.0, ptr %_16, align 8, !dbg !3172, !unsafe_inst !713
  %6 = getelementptr inbounds i8, ptr %self3, i64 32, !dbg !3172
  store ptr %_8.1, ptr %6, align 8, !dbg !3172, !unsafe_inst !713
  ret void, !dbg !3200, !unsafe_inst !713
}

; <futures_util::stream::stream::flatten_unordered::WrappedWaker as futures_task::arc_wake::ArcWake>::wake_by_ref
; Function Attrs: nonlazybind uwtable
define void @"_ZN113_$LT$futures_util..stream..stream..flatten_unordered..WrappedWaker$u20$as$u20$futures_task..arc_wake..ArcWake$GT$11wake_by_ref17h3acf39b177fbcd39E"(ptr noalias nocapture noundef readonly align 8 dereferenceable(8) %self_arc) unnamed_addr #4 personality ptr @rust_eh_personality !dbg !3201 {
start:
  call void @llvm.dbg.declare(metadata ptr undef, metadata !3229, metadata !DIExpression(DW_OP_LLVM_fragment, 72, 56)), !dbg !3237
  call void @llvm.dbg.declare(metadata ptr undef, metadata !3207, metadata !DIExpression(DW_OP_LLVM_fragment, 72, 56)), !dbg !3239
  tail call void @llvm.dbg.value(metadata ptr %self_arc, metadata !3206, metadata !DIExpression()), !dbg !3240
  tail call void @llvm.dbg.value(metadata ptr %self_arc, metadata !3241, metadata !DIExpression()), !dbg !3247
  tail call void @llvm.dbg.value(metadata ptr %self_arc, metadata !3249, metadata !DIExpression()), !dbg !3255
  tail call void @llvm.dbg.value(metadata ptr %self_arc, metadata !3257, metadata !DIExpression()), !dbg !3263
  %self1 = load ptr, ptr %self_arc, align 8, !dbg !3265, !nonnull !27, !noundef !27
  %_3 = getelementptr inbounds i8, ptr %self1, i64 16, !dbg !3248
  call void @llvm.dbg.value(metadata ptr %_3, metadata !3266, metadata !DIExpression()), !dbg !3289
  %0 = getelementptr inbounds i8, ptr %self1, i64 40, !dbg !3291
  %_3.i = load i8, ptr %0, align 8, !dbg !3291, !noalias !3292, !noundef !27
  tail call void @llvm.experimental.noalias.scope.decl(metadata !3295), !dbg !3298
  call void @llvm.dbg.value(metadata i8 %_3.i, metadata !3299, metadata !DIExpression()), !dbg !3314
  call void @llvm.dbg.value(metadata ptr %_3, metadata !3305, metadata !DIExpression()), !dbg !3314
  call void @llvm.dbg.value(metadata ptr %_3, metadata !3316, metadata !DIExpression()), !dbg !3320
  call void @llvm.dbg.value(metadata ptr %_3, metadata !3322, metadata !DIExpression()), !dbg !3326
  call void @llvm.dbg.value(metadata ptr %_3, metadata !3328, metadata !DIExpression()), !dbg !3332
  %self6.i.i = load ptr, ptr %_3, align 8, !dbg !3334, !alias.scope !3295, !noalias !3335, !nonnull !27, !noundef !27
  %_6.i.i = getelementptr inbounds i8, ptr %self6.i.i, i64 16, !dbg !3337
  call void @llvm.dbg.value(metadata ptr undef, metadata !3338, metadata !DIExpression()), !dbg !3361
  call void @llvm.dbg.value(metadata ptr %_6.i.i, metadata !3350, metadata !DIExpression()), !dbg !3361
  call void @llvm.dbg.value(metadata ptr %_6.i.i, metadata !3363, metadata !DIExpression()), !dbg !3368
  call void @llvm.dbg.value(metadata ptr %_6.i.i, metadata !3370, metadata !DIExpression()), !dbg !3378
  call void @llvm.dbg.value(metadata i8 4, metadata !3351, metadata !DIExpression()), !dbg !3361
  call void @llvm.dbg.value(metadata i8 4, metadata !3376, metadata !DIExpression()), !dbg !3378
  call void @llvm.dbg.value(metadata i8 4, metadata !3352, metadata !DIExpression()), !dbg !3361
  call void @llvm.dbg.value(metadata i8 4, metadata !3367, metadata !DIExpression()), !dbg !3368
  call void @llvm.dbg.value(metadata i8 4, metadata !3377, metadata !DIExpression()), !dbg !3378
  call void @llvm.dbg.value(metadata i8 4, metadata !2053, metadata !DIExpression()), !dbg !3380
  call void @llvm.dbg.value(metadata ptr %_6.i.i, metadata !2058, metadata !DIExpression()), !dbg !3380
  %1 = load atomic i8, ptr %_6.i.i seq_cst, align 1, !dbg !3382, !noalias !3383
  call void @llvm.dbg.value(metadata i8 %1, metadata !3353, metadata !DIExpression()), !dbg !3386
  br label %bb1.i.i.i, !dbg !3387

bb1.i.i.i:                                        ; preds = %bb3.i.i.i, %start
  %prev.sroa.0.0.i.i.i = phi i8 [ %1, %start ], [ %6, %bb3.i.i.i ], !dbg !3361
  call void @llvm.dbg.value(metadata i8 %prev.sroa.0.0.i.i.i, metadata !3353, metadata !DIExpression()), !dbg !3386
  call void @llvm.dbg.value(metadata ptr undef, metadata !3388, metadata !DIExpression(DW_OP_deref, DW_OP_deref)), !dbg !3397
  call void @llvm.dbg.value(metadata i8 %prev.sroa.0.0.i.i.i, metadata !3394, metadata !DIExpression()), !dbg !3397
  %2 = or i8 %prev.sroa.0.0.i.i.i, %_3.i, !dbg !3399
  call void @llvm.dbg.value(metadata i8 %2, metadata !3395, metadata !DIExpression()), !dbg !3400
  %_6.i.i.i.i = and i8 %prev.sroa.0.0.i.i.i, 20, !dbg !3401
  %_5.i.i.i.i = icmp eq i8 %_6.i.i.i.i, 0, !dbg !3401
  %3 = or i8 %2, 8
  %spec.select.i.i.i.i = select i1 %_5.i.i.i.i, i8 %3, i8 %2, !dbg !3401
  call void @llvm.dbg.value(metadata i8 %spec.select.i.i.i.i, metadata !3395, metadata !DIExpression()), !dbg !3400
  %_7.not.i.not.not.i.i.i = icmp eq i8 %spec.select.i.i.i.i, %prev.sroa.0.0.i.i.i, !dbg !3402
  br i1 %_7.not.i.not.not.i.i.i, label %bb11, label %bb3.i.i.i, !dbg !3403

bb3.i.i.i:                                        ; preds = %bb1.i.i.i
  call void @llvm.dbg.value(metadata i8 %spec.select.i.i.i.i, metadata !3355, metadata !DIExpression()), !dbg !3404
  call void @llvm.dbg.value(metadata i8 %spec.select.i.i.i.i, metadata !3375, metadata !DIExpression()), !dbg !3378
  call void @llvm.dbg.value(metadata i8 %prev.sroa.0.0.i.i.i, metadata !3374, metadata !DIExpression()), !dbg !3378
  call void @llvm.dbg.value(metadata i8 4, metadata !2752, metadata !DIExpression()), !dbg !3405
  call void @llvm.dbg.value(metadata i8 4, metadata !2760, metadata !DIExpression()), !dbg !3405
  call void @llvm.dbg.value(metadata ptr %_6.i.i, metadata !2757, metadata !DIExpression()), !dbg !3405
  call void @llvm.dbg.value(metadata i8 %prev.sroa.0.0.i.i.i, metadata !2758, metadata !DIExpression()), !dbg !3405
  call void @llvm.dbg.value(metadata i8 %spec.select.i.i.i.i, metadata !2759, metadata !DIExpression()), !dbg !3405
  %4 = cmpxchg weak ptr %_6.i.i, i8 %prev.sroa.0.0.i.i.i, i8 %spec.select.i.i.i.i seq_cst seq_cst, align 1, !dbg !3407, !noalias !3383
  %5 = extractvalue { i8, i1 } %4, 1, !dbg !3407
  %6 = extractvalue { i8, i1 } %4, 0, !dbg !3407
  br i1 %5, label %bb11.i.i, label %bb1.i.i.i, !dbg !3408

bb11.i.i:                                         ; preds = %bb3.i.i.i
  call void @llvm.dbg.value(metadata i8 %6, metadata !3306, metadata !DIExpression()), !dbg !3409
  %_12.i.i = and i8 %6, 28, !dbg !3410
  %_11.i.i = icmp eq i8 %_12.i.i, 0, !dbg !3410
  br i1 %_11.i.i, label %bb2, label %bb11, !dbg !3410

bb2:                                              ; preds = %bb11.i.i
  tail call void @llvm.dbg.value(metadata ptr %_3, metadata !3207, metadata !DIExpression(DW_OP_LLVM_fragment, 0, 64)), !dbg !3411
  tail call void @llvm.dbg.value(metadata i8 poison, metadata !3207, metadata !DIExpression(DW_OP_LLVM_fragment, 64, 8)), !dbg !3411
  tail call void @llvm.dbg.value(metadata ptr %_3, metadata !3412, metadata !DIExpression(DW_OP_plus_uconst, 8, DW_OP_stack_value)), !dbg !3416
  %_27 = getelementptr inbounds i8, ptr %self1, i64 24, !dbg !3418
  tail call void @llvm.dbg.value(metadata ptr %_27, metadata !3224, metadata !DIExpression()), !dbg !3419
  tail call void @llvm.dbg.value(metadata ptr %_27, metadata !3420, metadata !DIExpression()), !dbg !3429
  %7 = load ptr, ptr %_27, align 8, !dbg !3431, !noundef !27
  %8 = icmp eq ptr %7, null, !dbg !3431
  br i1 %8, label %bb1.i.i15, label %bb24, !dbg !3432

bb24:                                             ; preds = %bb2
  tail call void @llvm.dbg.value(metadata ptr %self1, metadata !3427, metadata !DIExpression(DW_OP_plus_uconst, 24, DW_OP_stack_value)), !dbg !3433
  tail call void @llvm.dbg.value(metadata ptr %self1, metadata !3434, metadata !DIExpression(DW_OP_plus_uconst, 24, DW_OP_stack_value)), !dbg !3438
  %_38 = load ptr, ptr %7, align 8, !dbg !3440, !nonnull !27, !noundef !27
  %9 = getelementptr inbounds i8, ptr %self1, i64 32, !dbg !3441
  %_39 = load ptr, ptr %9, align 8, !dbg !3441, !noundef !27
  %10 = invoke { ptr, ptr } %_38(ptr noundef %_39)
          to label %bb22 unwind label %bb1.i.i27, !dbg !3440

bb22:                                             ; preds = %bb24
  %_37.0 = extractvalue { ptr, ptr } %10, 0, !dbg !3440
  %_37.1 = extractvalue { ptr, ptr } %10, 1, !dbg !3440
  %11 = icmp eq ptr %_37.0, null, !dbg !3442
  br i1 %11, label %bb1.i.i15, label %bb1.i.i, !dbg !3442

bb1.i.i:                                          ; preds = %bb22
  tail call void @llvm.dbg.value(metadata ptr %_37.0, metadata !3227, metadata !DIExpression(DW_OP_LLVM_fragment, 0, 64)), !dbg !3443
  tail call void @llvm.dbg.value(metadata ptr %_37.1, metadata !3227, metadata !DIExpression(DW_OP_LLVM_fragment, 64, 64)), !dbg !3443
  tail call void @llvm.dbg.value(metadata ptr %_3, metadata !3229, metadata !DIExpression(DW_OP_LLVM_fragment, 0, 64)), !dbg !3444
  tail call void @llvm.dbg.value(metadata i8 poison, metadata !3229, metadata !DIExpression(DW_OP_LLVM_fragment, 64, 8)), !dbg !3444
  call void @llvm.dbg.value(metadata ptr undef, metadata !3445, metadata !DIExpression()), !dbg !3451
  call void @llvm.dbg.value(metadata ptr undef, metadata !3453, metadata !DIExpression()), !dbg !3462
  call void @llvm.dbg.declare(metadata ptr undef, metadata !3460, metadata !DIExpression()), !dbg !3464
  tail call void @llvm.dbg.value(metadata i8 0, metadata !3229, metadata !DIExpression(DW_OP_LLVM_fragment, 64, 8)), !dbg !3444
  tail call void @llvm.experimental.noalias.scope.decl(metadata !3465), !dbg !3468
  call void @llvm.dbg.value(metadata ptr %_3, metadata !3469, metadata !DIExpression()), !dbg !3485
  call void @llvm.dbg.declare(metadata ptr undef, metadata !3478, metadata !DIExpression()), !dbg !3487
  tail call void @llvm.experimental.noalias.scope.decl(metadata !3488), !dbg !3487
  call void @llvm.dbg.value(metadata ptr %_3, metadata !2879, metadata !DIExpression()), !dbg !3491
  call void @llvm.dbg.value(metadata ptr %_3, metadata !2883, metadata !DIExpression()), !dbg !3493
  call void @llvm.dbg.value(metadata ptr %_3, metadata !2889, metadata !DIExpression()), !dbg !3495
  call void @llvm.dbg.value(metadata ptr %_3, metadata !2895, metadata !DIExpression()), !dbg !3497
  %self4.i.i.i.i = load ptr, ptr %_3, align 8, !dbg !3499, !alias.scope !3500, !noalias !3501, !nonnull !27, !noundef !27
  %_4.i.i.i.i = getelementptr inbounds i8, ptr %self4.i.i.i.i, i64 16, !dbg !3506
  call void @llvm.dbg.value(metadata ptr %_4.i.i.i.i, metadata !2902, metadata !DIExpression()), !dbg !3507
  call void @llvm.dbg.value(metadata ptr %_4.i.i.i.i, metadata !2925, metadata !DIExpression()), !dbg !3509
  call void @llvm.dbg.value(metadata ptr %_4.i.i.i.i, metadata !2932, metadata !DIExpression()), !dbg !3511
  call void @llvm.dbg.value(metadata i8 4, metadata !2912, metadata !DIExpression()), !dbg !3507
  call void @llvm.dbg.value(metadata i8 4, metadata !2938, metadata !DIExpression()), !dbg !3511
  call void @llvm.dbg.value(metadata i8 4, metadata !2913, metadata !DIExpression()), !dbg !3507
  call void @llvm.dbg.value(metadata i8 4, metadata !2929, metadata !DIExpression()), !dbg !3509
  call void @llvm.dbg.value(metadata i8 4, metadata !2939, metadata !DIExpression()), !dbg !3511
  call void @llvm.dbg.declare(metadata ptr poison, metadata !2914, metadata !DIExpression()), !dbg !3513
  call void @llvm.dbg.value(metadata i8 4, metadata !2053, metadata !DIExpression()), !dbg !3514
  call void @llvm.dbg.value(metadata ptr %_4.i.i.i.i, metadata !2058, metadata !DIExpression()), !dbg !3514
  %12 = load atomic i8, ptr %_4.i.i.i.i seq_cst, align 1, !dbg !3516, !noalias !3517
  call void @llvm.dbg.value(metadata i8 %12, metadata !2915, metadata !DIExpression()), !dbg !3518
  br label %bb1.i.i.i.i.i, !dbg !3519

bb1.i.i.i.i.i:                                    ; preds = %bb3.i.i.i.i.i, %bb1.i.i
  %prev.sroa.0.0.i.i.i.i.i = phi i8 [ %12, %bb1.i.i ], [ %15, %bb3.i.i.i.i.i ], !dbg !3507
  call void @llvm.dbg.value(metadata i8 %prev.sroa.0.0.i.i.i.i.i, metadata !2915, metadata !DIExpression()), !dbg !3518
  call void @llvm.dbg.value(metadata ptr undef, metadata !2948, metadata !DIExpression()), !dbg !3520
  call void @llvm.dbg.value(metadata i8 %prev.sroa.0.0.i.i.i.i.i, metadata !2954, metadata !DIExpression()), !dbg !3520
  %_4.i.i.i.i.i.i = and i8 %prev.sroa.0.0.i.i.i.i.i, -25, !dbg !3522
  %next_value.i.i.i.i.i.i = or disjoint i8 %_4.i.i.i.i.i.i, 16, !dbg !3522
  call void @llvm.dbg.value(metadata i8 %next_value.i.i.i.i.i.i, metadata !2955, metadata !DIExpression()), !dbg !3523
  %_5.not.i.not.not.i.i.i.i.i = icmp eq i8 %next_value.i.i.i.i.i.i, %prev.sroa.0.0.i.i.i.i.i, !dbg !3524
  br i1 %_5.not.i.not.not.i.i.i.i.i, label %bb26, label %bb3.i.i.i.i.i, !dbg !3525

bb3.i.i.i.i.i:                                    ; preds = %bb1.i.i.i.i.i
  call void @llvm.dbg.value(metadata i8 %next_value.i.i.i.i.i.i, metadata !2917, metadata !DIExpression()), !dbg !3526
  call void @llvm.dbg.value(metadata i8 %next_value.i.i.i.i.i.i, metadata !2937, metadata !DIExpression()), !dbg !3511
  call void @llvm.dbg.value(metadata i8 %prev.sroa.0.0.i.i.i.i.i, metadata !2936, metadata !DIExpression()), !dbg !3511
  call void @llvm.dbg.value(metadata i8 4, metadata !2752, metadata !DIExpression()), !dbg !3527
  call void @llvm.dbg.value(metadata i8 4, metadata !2760, metadata !DIExpression()), !dbg !3527
  call void @llvm.dbg.value(metadata ptr %_4.i.i.i.i, metadata !2757, metadata !DIExpression()), !dbg !3527
  call void @llvm.dbg.value(metadata i8 %prev.sroa.0.0.i.i.i.i.i, metadata !2758, metadata !DIExpression()), !dbg !3527
  call void @llvm.dbg.value(metadata i8 %next_value.i.i.i.i.i.i, metadata !2759, metadata !DIExpression()), !dbg !3527
  %13 = cmpxchg weak ptr %_4.i.i.i.i, i8 %prev.sroa.0.0.i.i.i.i.i, i8 %next_value.i.i.i.i.i.i seq_cst seq_cst, align 1, !dbg !3529, !noalias !3517
  %14 = extractvalue { i8, i1 } %13, 1, !dbg !3529
  %15 = extractvalue { i8, i1 } %13, 0, !dbg !3529
  br i1 %14, label %bb26, label %bb1.i.i.i.i.i, !dbg !3530

bb26:                                             ; preds = %bb3.i.i.i.i.i, %bb1.i.i.i.i.i
  tail call void @llvm.dbg.value(metadata ptr %_37.0, metadata !3531, metadata !DIExpression(DW_OP_LLVM_fragment, 0, 64)), !dbg !3539
  tail call void @llvm.dbg.value(metadata ptr %_37.1, metadata !3531, metadata !DIExpression(DW_OP_LLVM_fragment, 64, 64)), !dbg !3539
  %16 = getelementptr inbounds i8, ptr %_37.0, i64 8, !dbg !3541
  %wake = load ptr, ptr %16, align 8, !dbg !3541, !nonnull !27, !noundef !27
  tail call void @llvm.dbg.value(metadata ptr %wake, metadata !3535, metadata !DIExpression()), !dbg !3542
  tail call void @llvm.dbg.value(metadata ptr %_37.1, metadata !3537, metadata !DIExpression()), !dbg !3543
  tail call void %wake(ptr noundef %_37.1), !dbg !3544
  br label %bb11

bb1.i.i15:                                        ; preds = %bb2, %bb22
  call void @llvm.dbg.value(metadata ptr undef, metadata !3445, metadata !DIExpression()), !dbg !3545
  call void @llvm.dbg.value(metadata ptr undef, metadata !3453, metadata !DIExpression()), !dbg !3547
  call void @llvm.dbg.declare(metadata ptr undef, metadata !3460, metadata !DIExpression()), !dbg !3549
  tail call void @llvm.dbg.value(metadata i8 0, metadata !3207, metadata !DIExpression(DW_OP_LLVM_fragment, 64, 8)), !dbg !3411
  tail call void @llvm.experimental.noalias.scope.decl(metadata !3550), !dbg !3553
  call void @llvm.dbg.value(metadata ptr %_3, metadata !3469, metadata !DIExpression()), !dbg !3554
  call void @llvm.dbg.declare(metadata ptr undef, metadata !3478, metadata !DIExpression()), !dbg !3556
  tail call void @llvm.experimental.noalias.scope.decl(metadata !3557), !dbg !3556
  call void @llvm.dbg.value(metadata ptr %_3, metadata !2879, metadata !DIExpression()), !dbg !3560
  call void @llvm.dbg.value(metadata ptr %_3, metadata !2883, metadata !DIExpression()), !dbg !3562
  call void @llvm.dbg.value(metadata ptr %_3, metadata !2889, metadata !DIExpression()), !dbg !3564
  call void @llvm.dbg.value(metadata ptr %_3, metadata !2895, metadata !DIExpression()), !dbg !3566
  %self4.i.i.i.i17 = load ptr, ptr %_3, align 8, !dbg !3568, !alias.scope !3569, !noalias !3570, !nonnull !27, !noundef !27
  %_4.i.i.i.i18 = getelementptr inbounds i8, ptr %self4.i.i.i.i17, i64 16, !dbg !3575
  call void @llvm.dbg.value(metadata ptr %_4.i.i.i.i18, metadata !2902, metadata !DIExpression()), !dbg !3576
  call void @llvm.dbg.value(metadata ptr %_4.i.i.i.i18, metadata !2925, metadata !DIExpression()), !dbg !3578
  call void @llvm.dbg.value(metadata ptr %_4.i.i.i.i18, metadata !2932, metadata !DIExpression()), !dbg !3580
  call void @llvm.dbg.value(metadata i8 4, metadata !2912, metadata !DIExpression()), !dbg !3576
  call void @llvm.dbg.value(metadata i8 4, metadata !2938, metadata !DIExpression()), !dbg !3580
  call void @llvm.dbg.value(metadata i8 4, metadata !2913, metadata !DIExpression()), !dbg !3576
  call void @llvm.dbg.value(metadata i8 4, metadata !2929, metadata !DIExpression()), !dbg !3578
  call void @llvm.dbg.value(metadata i8 4, metadata !2939, metadata !DIExpression()), !dbg !3580
  call void @llvm.dbg.declare(metadata ptr poison, metadata !2914, metadata !DIExpression()), !dbg !3582
  call void @llvm.dbg.value(metadata i8 4, metadata !2053, metadata !DIExpression()), !dbg !3583
  call void @llvm.dbg.value(metadata ptr %_4.i.i.i.i18, metadata !2058, metadata !DIExpression()), !dbg !3583
  %17 = load atomic i8, ptr %_4.i.i.i.i18 seq_cst, align 1, !dbg !3585, !noalias !3586
  call void @llvm.dbg.value(metadata i8 %17, metadata !2915, metadata !DIExpression()), !dbg !3587
  br label %bb1.i.i.i.i.i19, !dbg !3588

bb1.i.i.i.i.i19:                                  ; preds = %bb3.i.i.i.i.i24, %bb1.i.i15
  %prev.sroa.0.0.i.i.i.i.i20 = phi i8 [ %17, %bb1.i.i15 ], [ %20, %bb3.i.i.i.i.i24 ], !dbg !3576
  call void @llvm.dbg.value(metadata i8 %prev.sroa.0.0.i.i.i.i.i20, metadata !2915, metadata !DIExpression()), !dbg !3587
  call void @llvm.dbg.value(metadata ptr undef, metadata !2948, metadata !DIExpression()), !dbg !3589
  call void @llvm.dbg.value(metadata i8 %prev.sroa.0.0.i.i.i.i.i20, metadata !2954, metadata !DIExpression()), !dbg !3589
  %_4.i.i.i.i.i.i21 = and i8 %prev.sroa.0.0.i.i.i.i.i20, -25, !dbg !3591
  %next_value.i.i.i.i.i.i22 = or disjoint i8 %_4.i.i.i.i.i.i21, 16, !dbg !3591
  call void @llvm.dbg.value(metadata i8 %next_value.i.i.i.i.i.i22, metadata !2955, metadata !DIExpression()), !dbg !3592
  %_5.not.i.not.not.i.i.i.i.i23 = icmp eq i8 %next_value.i.i.i.i.i.i22, %prev.sroa.0.0.i.i.i.i.i20, !dbg !3593
  br i1 %_5.not.i.not.not.i.i.i.i.i23, label %bb11, label %bb3.i.i.i.i.i24, !dbg !3594

bb3.i.i.i.i.i24:                                  ; preds = %bb1.i.i.i.i.i19
  call void @llvm.dbg.value(metadata i8 %next_value.i.i.i.i.i.i22, metadata !2917, metadata !DIExpression()), !dbg !3595
  call void @llvm.dbg.value(metadata i8 %next_value.i.i.i.i.i.i22, metadata !2937, metadata !DIExpression()), !dbg !3580
  call void @llvm.dbg.value(metadata i8 %prev.sroa.0.0.i.i.i.i.i20, metadata !2936, metadata !DIExpression()), !dbg !3580
  call void @llvm.dbg.value(metadata i8 4, metadata !2752, metadata !DIExpression()), !dbg !3596
  call void @llvm.dbg.value(metadata i8 4, metadata !2760, metadata !DIExpression()), !dbg !3596
  call void @llvm.dbg.value(metadata ptr %_4.i.i.i.i18, metadata !2757, metadata !DIExpression()), !dbg !3596
  call void @llvm.dbg.value(metadata i8 %prev.sroa.0.0.i.i.i.i.i20, metadata !2758, metadata !DIExpression()), !dbg !3596
  call void @llvm.dbg.value(metadata i8 %next_value.i.i.i.i.i.i22, metadata !2759, metadata !DIExpression()), !dbg !3596
  %18 = cmpxchg weak ptr %_4.i.i.i.i18, i8 %prev.sroa.0.0.i.i.i.i.i20, i8 %next_value.i.i.i.i.i.i22 seq_cst seq_cst, align 1, !dbg !3598, !noalias !3586
  %19 = extractvalue { i8, i1 } %18, 1, !dbg !3598
  %20 = extractvalue { i8, i1 } %18, 0, !dbg !3598
  br i1 %19, label %bb11, label %bb1.i.i.i.i.i19, !dbg !3599

bb6:                                              ; preds = %bb3.i.i.i.i.i36, %bb1.i.i.i.i.i31
  resume { ptr, i32 } %21, !dbg !3600

bb1.i.i27:                                        ; preds = %bb24
  %21 = landingpad { ptr, i32 }
          cleanup
  call void @llvm.dbg.value(metadata ptr undef, metadata !3445, metadata !DIExpression()), !dbg !3601
  call void @llvm.dbg.value(metadata ptr undef, metadata !3453, metadata !DIExpression()), !dbg !3603
  call void @llvm.dbg.declare(metadata ptr undef, metadata !3460, metadata !DIExpression()), !dbg !3605
  tail call void @llvm.dbg.value(metadata i8 0, metadata !3207, metadata !DIExpression(DW_OP_LLVM_fragment, 64, 8)), !dbg !3411
  tail call void @llvm.experimental.noalias.scope.decl(metadata !3606), !dbg !3609
  call void @llvm.dbg.value(metadata ptr %_3, metadata !3469, metadata !DIExpression()), !dbg !3610
  call void @llvm.dbg.declare(metadata ptr undef, metadata !3478, metadata !DIExpression()), !dbg !3612
  tail call void @llvm.experimental.noalias.scope.decl(metadata !3613), !dbg !3612
  call void @llvm.dbg.value(metadata ptr %_3, metadata !2879, metadata !DIExpression()), !dbg !3616
  call void @llvm.dbg.value(metadata ptr %_3, metadata !2883, metadata !DIExpression()), !dbg !3618
  call void @llvm.dbg.value(metadata ptr %_3, metadata !2889, metadata !DIExpression()), !dbg !3620
  call void @llvm.dbg.value(metadata ptr %_3, metadata !2895, metadata !DIExpression()), !dbg !3622
  %self4.i.i.i.i29 = load ptr, ptr %_3, align 8, !dbg !3624, !alias.scope !3625, !noalias !3626, !nonnull !27, !noundef !27
  %_4.i.i.i.i30 = getelementptr inbounds i8, ptr %self4.i.i.i.i29, i64 16, !dbg !3631
  call void @llvm.dbg.value(metadata ptr %_4.i.i.i.i30, metadata !2902, metadata !DIExpression()), !dbg !3632
  call void @llvm.dbg.value(metadata ptr %_4.i.i.i.i30, metadata !2925, metadata !DIExpression()), !dbg !3634
  call void @llvm.dbg.value(metadata ptr %_4.i.i.i.i30, metadata !2932, metadata !DIExpression()), !dbg !3636
  call void @llvm.dbg.value(metadata i8 4, metadata !2912, metadata !DIExpression()), !dbg !3632
  call void @llvm.dbg.value(metadata i8 4, metadata !2938, metadata !DIExpression()), !dbg !3636
  call void @llvm.dbg.value(metadata i8 4, metadata !2913, metadata !DIExpression()), !dbg !3632
  call void @llvm.dbg.value(metadata i8 4, metadata !2929, metadata !DIExpression()), !dbg !3634
  call void @llvm.dbg.value(metadata i8 4, metadata !2939, metadata !DIExpression()), !dbg !3636
  call void @llvm.dbg.declare(metadata ptr poison, metadata !2914, metadata !DIExpression()), !dbg !3638
  call void @llvm.dbg.value(metadata i8 4, metadata !2053, metadata !DIExpression()), !dbg !3639
  call void @llvm.dbg.value(metadata ptr %_4.i.i.i.i30, metadata !2058, metadata !DIExpression()), !dbg !3639
  %22 = load atomic i8, ptr %_4.i.i.i.i30 seq_cst, align 1, !dbg !3641, !noalias !3642
  call void @llvm.dbg.value(metadata i8 %22, metadata !2915, metadata !DIExpression()), !dbg !3643
  br label %bb1.i.i.i.i.i31, !dbg !3644

bb1.i.i.i.i.i31:                                  ; preds = %bb3.i.i.i.i.i36, %bb1.i.i27
  %prev.sroa.0.0.i.i.i.i.i32 = phi i8 [ %22, %bb1.i.i27 ], [ %25, %bb3.i.i.i.i.i36 ], !dbg !3632
  call void @llvm.dbg.value(metadata i8 %prev.sroa.0.0.i.i.i.i.i32, metadata !2915, metadata !DIExpression()), !dbg !3643
  call void @llvm.dbg.value(metadata ptr undef, metadata !2948, metadata !DIExpression()), !dbg !3645
  call void @llvm.dbg.value(metadata i8 %prev.sroa.0.0.i.i.i.i.i32, metadata !2954, metadata !DIExpression()), !dbg !3645
  %_4.i.i.i.i.i.i33 = and i8 %prev.sroa.0.0.i.i.i.i.i32, -25, !dbg !3647
  %next_value.i.i.i.i.i.i34 = or disjoint i8 %_4.i.i.i.i.i.i33, 16, !dbg !3647
  call void @llvm.dbg.value(metadata i8 %next_value.i.i.i.i.i.i34, metadata !2955, metadata !DIExpression()), !dbg !3648
  %_5.not.i.not.not.i.i.i.i.i35 = icmp eq i8 %next_value.i.i.i.i.i.i34, %prev.sroa.0.0.i.i.i.i.i32, !dbg !3649
  br i1 %_5.not.i.not.not.i.i.i.i.i35, label %bb6, label %bb3.i.i.i.i.i36, !dbg !3650

bb3.i.i.i.i.i36:                                  ; preds = %bb1.i.i.i.i.i31
  call void @llvm.dbg.value(metadata i8 %next_value.i.i.i.i.i.i34, metadata !2917, metadata !DIExpression()), !dbg !3651
  call void @llvm.dbg.value(metadata i8 %next_value.i.i.i.i.i.i34, metadata !2937, metadata !DIExpression()), !dbg !3636
  call void @llvm.dbg.value(metadata i8 %prev.sroa.0.0.i.i.i.i.i32, metadata !2936, metadata !DIExpression()), !dbg !3636
  call void @llvm.dbg.value(metadata i8 4, metadata !2752, metadata !DIExpression()), !dbg !3652
  call void @llvm.dbg.value(metadata i8 4, metadata !2760, metadata !DIExpression()), !dbg !3652
  call void @llvm.dbg.value(metadata ptr %_4.i.i.i.i30, metadata !2757, metadata !DIExpression()), !dbg !3652
  call void @llvm.dbg.value(metadata i8 %prev.sroa.0.0.i.i.i.i.i32, metadata !2758, metadata !DIExpression()), !dbg !3652
  call void @llvm.dbg.value(metadata i8 %next_value.i.i.i.i.i.i34, metadata !2759, metadata !DIExpression()), !dbg !3652
  %23 = cmpxchg weak ptr %_4.i.i.i.i30, i8 %prev.sroa.0.0.i.i.i.i.i32, i8 %next_value.i.i.i.i.i.i34 seq_cst seq_cst, align 1, !dbg !3654, !noalias !3642
  %24 = extractvalue { i8, i1 } %23, 1, !dbg !3654
  %25 = extractvalue { i8, i1 } %23, 0, !dbg !3654
  br i1 %24, label %bb6, label %bb1.i.i.i.i.i31, !dbg !3655

bb11:                                             ; preds = %bb1.i.i.i, %bb1.i.i.i.i.i19, %bb3.i.i.i.i.i24, %bb26, %bb11.i.i
  ret void, !dbg !3656
}

; futures_util::stream::futures_unordered::abort::abort
; Function Attrs: noreturn nonlazybind uwtable
define void @_ZN12futures_util6stream17futures_unordered5abort5abort17h7fec08aeba20eb3cE(ptr noalias noundef nonnull readonly align 1 %0, i64 noundef %1) unnamed_addr #7 personality ptr @rust_eh_personality !dbg !3657 {
start:
  %_7 = alloca [16 x i8], align 8
  %_5 = alloca [48 x i8], align 8
  %s = alloca [16 x i8], align 8
  call void @llvm.dbg.declare(metadata ptr undef, metadata !3664, metadata !DIExpression()), !dbg !3668
  tail call void @llvm.dbg.value(metadata ptr @alloc_b99730e73100e73a81f4fbfe74b3821d, metadata !3669, metadata !DIExpression()), !dbg !3674
  store ptr %0, ptr %s, align 8, !dbg !3683
  %2 = getelementptr inbounds i8, ptr %s, i64 8, !dbg !3683
  store i64 %1, ptr %2, align 8, !dbg !3683
  call void @llvm.dbg.declare(metadata ptr %s, metadata !3663, metadata !DIExpression()), !dbg !3684
  tail call void @llvm.dbg.value(metadata ptr %s, metadata !3679, metadata !DIExpression()), !dbg !3685
  call void @llvm.lifetime.start.p0(i64 48, ptr nonnull %_5), !dbg !3675
  call void @llvm.lifetime.start.p0(i64 16, ptr nonnull %_7), !dbg !3675
  store ptr %s, ptr %_7, align 8, !dbg !3675
  %_8.sroa.4.0..sroa_idx = getelementptr inbounds i8, ptr %_7, i64 8, !dbg !3675
  store ptr @"_ZN44_$LT$$RF$T$u20$as$u20$core..fmt..Display$GT$3fmt17h1ed6cd18161a2d73E", ptr %_8.sroa.4.0..sroa_idx, align 8, !dbg !3675
  tail call void @llvm.dbg.value(metadata ptr %_7, metadata !3673, metadata !DIExpression()), !dbg !3674
  store ptr @alloc_b99730e73100e73a81f4fbfe74b3821d, ptr %_5, align 8, !dbg !3686
  %3 = getelementptr inbounds i8, ptr %_5, i64 8, !dbg !3686
  store i64 1, ptr %3, align 8, !dbg !3686
  %4 = getelementptr inbounds i8, ptr %_5, i64 32, !dbg !3686
  store ptr null, ptr %4, align 8, !dbg !3686
  %5 = getelementptr inbounds i8, ptr %_5, i64 16, !dbg !3686
  store ptr %_7, ptr %5, align 8, !dbg !3686
  %6 = getelementptr inbounds i8, ptr %_5, i64 24, !dbg !3686
  store i64 1, ptr %6, align 8, !dbg !3686
; invoke core::panicking::panic_fmt
  invoke void @_ZN4core9panicking9panic_fmt17h3111a7beccfa68f5E(ptr noalias nocapture noundef nonnull readonly align 8 dereferenceable(48) %_5, ptr noalias noundef nonnull readonly align 8 dereferenceable(24) @alloc_f1d6ac324d308e91a7dd93cfe9a524a7) #24
          to label %unreachable unwind label %cleanup, !dbg !3687

cleanup:                                          ; preds = %start
  %7 = landingpad { ptr, i32 }
          cleanup
  call void @llvm.dbg.value(metadata ptr undef, metadata !3688, metadata !DIExpression()), !dbg !3696
  call void @llvm.dbg.value(metadata ptr undef, metadata !3698, metadata !DIExpression()), !dbg !3705
; invoke std::panicking::begin_panic
  invoke fastcc void @_ZN3std9panicking11begin_panic17h54355bcf1f160d65E() #24
          to label %.noexc unwind label %terminate, !dbg !3707

.noexc:                                           ; preds = %cleanup
  unreachable, !dbg !3707

unreachable:                                      ; preds = %start
  unreachable

terminate:                                        ; preds = %cleanup
  %8 = landingpad { ptr, i32 }
          filter [0 x ptr] zeroinitializer
; call core::panicking::panic_in_cleanup
  call void @_ZN4core9panicking16panic_in_cleanup17h43442956f23e9cbeE() #25, !dbg !3708
  unreachable, !dbg !3708
}

; <futures_util::stream::futures_unordered::abort::abort::DoublePanic as core::ops::drop::Drop>::drop
; Function Attrs: noreturn nonlazybind uwtable
define void @"_ZN108_$LT$futures_util..stream..futures_unordered..abort..abort..DoublePanic$u20$as$u20$core..ops..drop..Drop$GT$4drop17h4c21738cf52db1e7E"(ptr noalias nocapture noundef nonnull readnone align 1 %self) unnamed_addr #7 !dbg !3699 {
start:
  tail call void @llvm.dbg.value(metadata ptr %self, metadata !3698, metadata !DIExpression()), !dbg !3709
; call std::panicking::begin_panic
  tail call fastcc void @_ZN3std9panicking11begin_panic17h54355bcf1f160d65E() #24, !dbg !3710
  unreachable, !dbg !3710
}

; <futures_util::stream::futures_unordered::FuturesUnordered<futures_task::future_obj::FutureObj<()>> as futures_task::spawn::Spawn>::spawn_obj
; Function Attrs: nonlazybind uwtable
define noundef zeroext i1 @"_ZN163_$LT$futures_util..stream..futures_unordered..FuturesUnordered$LT$futures_task..future_obj..FutureObj$LT$$LP$$RP$$GT$$GT$$u20$as$u20$futures_task..spawn..Spawn$GT$9spawn_obj17h822d0ca1a9c9ace7E"(ptr nocapture noundef nonnull align 8 %self, ptr noalias nocapture noundef readonly align 8 dereferenceable(24) %future_obj) unnamed_addr #4 personality ptr @rust_eh_personality !dbg !3711 {
start:
  %_32.i = alloca [88 x i8], align 8
  %data.sroa.11.i = alloca [6 x i8], align 2
  tail call void @llvm.dbg.value(metadata ptr %self, metadata !3748, metadata !DIExpression()), !dbg !3750
  call void @llvm.dbg.declare(metadata ptr %future_obj, metadata !3749, metadata !DIExpression()), !dbg !3751
  tail call void @llvm.experimental.noalias.scope.decl(metadata !3752), !dbg !3755
  call void @llvm.dbg.declare(metadata ptr %data.sroa.11.i, metadata !3756, metadata !DIExpression(DW_OP_LLVM_fragment, 528, 48)), !dbg !3766
  call void @llvm.dbg.value(metadata i8 0, metadata !3780, metadata !DIExpression()), !dbg !3786
  call void @llvm.dbg.value(metadata i8 0, metadata !3785, metadata !DIExpression()), !dbg !3786
  call void @llvm.dbg.value(metadata ptr %self, metadata !3773, metadata !DIExpression()), !dbg !3788
  call void @llvm.dbg.value(metadata ptr %self, metadata !3789, metadata !DIExpression()), !dbg !3796
  call void @llvm.dbg.declare(metadata ptr %future_obj, metadata !3774, metadata !DIExpression()), !dbg !3798
  call void @llvm.lifetime.start.p0(i64 6, ptr nonnull %data.sroa.11.i), !dbg !3799
  %value.sroa.0.0.copyload.i = load ptr, ptr %future_obj, align 8, !dbg !3800, !alias.scope !3752
  %value.sroa.4.0.future.sroa_idx.i = getelementptr inbounds i8, ptr %future_obj, i64 8, !dbg !3800
  %value.sroa.4.0.copyload.i = load ptr, ptr %value.sroa.4.0.future.sroa_idx.i, align 8, !dbg !3800, !alias.scope !3752
  %value.sroa.5.0.future.sroa_idx.i = getelementptr inbounds i8, ptr %future_obj, i64 16, !dbg !3800
  %value.sroa.5.0.copyload.i = load ptr, ptr %value.sroa.5.0.future.sroa_idx.i, align 8, !dbg !3800, !alias.scope !3752
  call void @llvm.dbg.value(metadata ptr %self, metadata !3801, metadata !DIExpression()), !dbg !3811
  call void @llvm.dbg.value(metadata ptr %self, metadata !3813, metadata !DIExpression()), !dbg !3823
  call void @llvm.dbg.value(metadata ptr %self, metadata !3825, metadata !DIExpression()), !dbg !3835
  %self16.i = load ptr, ptr %self, align 8, !dbg !3837, !noalias !3752, !nonnull !27, !noundef !27
  call void @llvm.dbg.value(metadata ptr %self16.i, metadata !3838, metadata !DIExpression(DW_OP_plus_uconst, 16, DW_OP_stack_value)), !dbg !3849
  %0 = getelementptr inbounds i8, ptr %self16.i, i64 16, !dbg !3851
  %self19.i = load ptr, ptr %0, align 8, !dbg !3851, !noalias !3752, !nonnull !27, !noundef !27
  call void @llvm.dbg.value(metadata ptr %self19.i, metadata !3846, metadata !DIExpression()), !dbg !3852
  call void @llvm.dbg.value(metadata ptr %self19.i, metadata !3853, metadata !DIExpression(DW_OP_plus_uconst, 16, DW_OP_stack_value)), !dbg !3862
  call void @llvm.dbg.value(metadata i8 0, metadata !3864, metadata !DIExpression()), !dbg !3872
  call void @llvm.dbg.value(metadata i8 0, metadata !3871, metadata !DIExpression()), !dbg !3885
  call void @llvm.dbg.value(metadata i8 2, metadata !3887, metadata !DIExpression()), !dbg !3913
  call void @llvm.dbg.value(metadata i8 0, metadata !3912, metadata !DIExpression()), !dbg !3913
  call void @llvm.dbg.value(metadata ptr %self, metadata !3879, metadata !DIExpression()), !dbg !3915
  call void @llvm.dbg.value(metadata ptr %self16.i, metadata !3868, metadata !DIExpression(DW_OP_plus_uconst, 8, DW_OP_stack_value)), !dbg !3872
  call void @llvm.dbg.value(metadata ptr %self16.i, metadata !3916, metadata !DIExpression(DW_OP_plus_uconst, 8, DW_OP_stack_value)), !dbg !3928
  %_29.i.i = getelementptr inbounds i8, ptr %self16.i, i64 8, !dbg !3930
  call void @llvm.dbg.value(metadata i8 0, metadata !1270, metadata !DIExpression()), !dbg !3931
  call void @llvm.dbg.value(metadata ptr %_29.i.i, metadata !1276, metadata !DIExpression()), !dbg !3931
  call void @llvm.dbg.value(metadata i64 %1, metadata !3880, metadata !DIExpression()), !dbg !3933
  br label %bb1.i.i.sink.split, !dbg !3934

bb1.i.i.sink.split:                               ; preds = %start, %bb2.i.i
  %1 = load atomic i64, ptr %_29.i.i monotonic, align 8, !dbg !3935, !noalias !3937
  br label %bb1.i.i, !dbg !3940

bb1.i.i:                                          ; preds = %bb1.i.i.sink.split, %bb4.i.i
  %cur.sroa.0.0.i.i = phi i64 [ %4, %bb4.i.i ], [ %1, %bb1.i.i.sink.split ], !dbg !3915
  call void @llvm.dbg.value(metadata i64 %cur.sroa.0.0.i.i, metadata !3880, metadata !DIExpression()), !dbg !3933
  %_4.i39.i = icmp eq i64 %cur.sroa.0.0.i.i, -1, !dbg !3940
  br i1 %_4.i39.i, label %bb2.i.i, label %bb3.i40.i, !dbg !3940

bb3.i40.i:                                        ; preds = %bb1.i.i
  %_8.i.i = icmp sgt i64 %cur.sroa.0.0.i.i, -1, !dbg !3941
  br i1 %_8.i.i, label %bb4.i.i, label %bb5.i.i, !dbg !3941

bb2.i.i:                                          ; preds = %bb1.i.i
  tail call void @llvm.x86.sse2.pause() #16, !dbg !3942, !noalias !3937
  call void @llvm.dbg.value(metadata ptr %self16.i, metadata !3869, metadata !DIExpression(DW_OP_plus_uconst, 8, DW_OP_stack_value)), !dbg !3885
  call void @llvm.dbg.value(metadata i8 0, metadata !1270, metadata !DIExpression()), !dbg !3955
  call void @llvm.dbg.value(metadata ptr %_29.i.i, metadata !1276, metadata !DIExpression()), !dbg !3955
  call void @llvm.dbg.value(metadata i64 %1, metadata !3880, metadata !DIExpression()), !dbg !3933
  br label %bb1.i.i.sink.split, !dbg !3957

bb5.i.i:                                          ; preds = %bb3.i40.i
; invoke alloc::sync::Arc<T,A>::downgrade::panic_cold_display
  invoke fastcc void @"_ZN5alloc4sync16Arc$LT$T$C$A$GT$9downgrade18panic_cold_display17h3d36121486bbb041E"() #24
          to label %.noexc.i unwind label %cleanup.i, !dbg !3960, !noalias !3752

.noexc.i:                                         ; preds = %bb5.i.i
  unreachable, !dbg !3960

bb4.i.i:                                          ; preds = %bb3.i40.i
  call void @llvm.dbg.value(metadata ptr %self16.i, metadata !3909, metadata !DIExpression(DW_OP_plus_uconst, 8, DW_OP_stack_value)), !dbg !3913
  call void @llvm.dbg.value(metadata i64 %cur.sroa.0.0.i.i, metadata !3910, metadata !DIExpression()), !dbg !3913
  %new.i.i = add nuw i64 %cur.sroa.0.0.i.i, 1, !dbg !3961
  call void @llvm.dbg.value(metadata i64 %new.i.i, metadata !3911, metadata !DIExpression()), !dbg !3913
  call void @llvm.dbg.value(metadata i8 2, metadata !3962, metadata !DIExpression()), !dbg !3974
  call void @llvm.dbg.value(metadata i8 0, metadata !3970, metadata !DIExpression()), !dbg !3974
  call void @llvm.dbg.value(metadata ptr %_29.i.i, metadata !3967, metadata !DIExpression()), !dbg !3974
  call void @llvm.dbg.value(metadata i64 %cur.sroa.0.0.i.i, metadata !3968, metadata !DIExpression()), !dbg !3974
  call void @llvm.dbg.value(metadata i64 %new.i.i, metadata !3969, metadata !DIExpression()), !dbg !3974
  %2 = cmpxchg weak ptr %_29.i.i, i64 %cur.sroa.0.0.i.i, i64 %new.i.i acquire monotonic, align 8, !dbg !3976, !noalias !3937
  %3 = extractvalue { i64, i1 } %2, 1, !dbg !3976
  %4 = extractvalue { i64, i1 } %2, 0, !dbg !3976
  br i1 %3, label %bb1.i, label %bb1.i.i, !dbg !3977

cleanup.i:                                        ; preds = %bb5.i.i
  %5 = landingpad { ptr, i32 }
          cleanup
  call void @llvm.dbg.value(metadata ptr undef, metadata !656, metadata !DIExpression()), !dbg !3978
  call void @llvm.dbg.value(metadata ptr undef, metadata !666, metadata !DIExpression()), !dbg !3980
  %6 = icmp eq ptr %value.sroa.0.0.copyload.i, null, !dbg !3982
  br i1 %6, label %common.resume.i, label %bb2.i.i.i, !dbg !3982

bb2.i.i.i:                                        ; preds = %cleanup.i
  call void @llvm.dbg.value(metadata ptr undef, metadata !673, metadata !DIExpression()), !dbg !3983
  call void @llvm.dbg.value(metadata ptr undef, metadata !681, metadata !DIExpression()), !dbg !3985
  call void @llvm.dbg.value(metadata ptr undef, metadata !691, metadata !DIExpression()), !dbg !3987
  %7 = icmp ne ptr %value.sroa.5.0.copyload.i, null
  tail call void @llvm.assume(i1 %7)
  invoke void %value.sroa.0.0.copyload.i(ptr noundef %value.sroa.4.0.copyload.i, ptr noalias noundef nonnull readonly align 8 dereferenceable(32) %value.sroa.5.0.copyload.i)
          to label %common.resume.i unwind label %terminate.i, !dbg !3989, !noalias !3752

bb1.i:                                            ; preds = %bb4.i.i
  %p.i = getelementptr inbounds i8, ptr %self19.i, i64 16, !dbg !3990
  call void @llvm.dbg.value(metadata ptr %p.i, metadata !3853, metadata !DIExpression()), !dbg !3862
  %8 = ptrtoint ptr %p.i to i64, !dbg !3991
  call void @llvm.dbg.value(metadata ptr %value.sroa.0.0.copyload.i, metadata !3756, metadata !DIExpression(DW_OP_LLVM_fragment, 64, 64)), !dbg !3992
  call void @llvm.dbg.value(metadata ptr %value.sroa.4.0.copyload.i, metadata !3756, metadata !DIExpression(DW_OP_LLVM_fragment, 128, 64)), !dbg !3992
  call void @llvm.dbg.value(metadata ptr %value.sroa.5.0.copyload.i, metadata !3756, metadata !DIExpression(DW_OP_LLVM_fragment, 192, 64)), !dbg !3992
  call void @llvm.dbg.value(metadata i64 %8, metadata !3756, metadata !DIExpression(DW_OP_LLVM_fragment, 256, 64)), !dbg !3992
  call void @llvm.dbg.value(metadata ptr null, metadata !3756, metadata !DIExpression(DW_OP_LLVM_fragment, 320, 64)), !dbg !3992
  call void @llvm.dbg.value(metadata i64 0, metadata !3756, metadata !DIExpression(DW_OP_LLVM_fragment, 384, 64)), !dbg !3992
  call void @llvm.dbg.value(metadata i64 0, metadata !3756, metadata !DIExpression(DW_OP_LLVM_fragment, 448, 64)), !dbg !3992
  call void @llvm.dbg.value(metadata ptr %self16.i, metadata !3756, metadata !DIExpression(DW_OP_LLVM_fragment, 0, 64)), !dbg !3992
  call void @llvm.dbg.value(metadata i8 1, metadata !3756, metadata !DIExpression(DW_OP_LLVM_fragment, 512, 8)), !dbg !3992
  call void @llvm.dbg.value(metadata i8 0, metadata !3756, metadata !DIExpression(DW_OP_LLVM_fragment, 520, 8)), !dbg !3992
  call void @llvm.lifetime.start.p0(i64 88, ptr nonnull %_32.i), !dbg !3993, !noalias !3752
  store i64 1, ptr %_32.i, align 8, !dbg !3993, !noalias !3752
  %9 = getelementptr inbounds i8, ptr %_32.i, i64 8, !dbg !3993
  store i64 1, ptr %9, align 8, !dbg !3993, !noalias !3752
  %10 = getelementptr inbounds i8, ptr %_32.i, i64 16, !dbg !3993
  store ptr %self16.i, ptr %10, align 8, !dbg !3993, !noalias !3752
  %data.sroa.4.0..sroa_idx.i = getelementptr inbounds i8, ptr %_32.i, i64 24, !dbg !3993
  store ptr %value.sroa.0.0.copyload.i, ptr %data.sroa.4.0..sroa_idx.i, align 8, !dbg !3993, !noalias !3752
  %data.sroa.4.sroa.4.0.data.sroa.4.0..sroa_idx.sroa_idx.i = getelementptr inbounds i8, ptr %_32.i, i64 32, !dbg !3993
  store ptr %value.sroa.4.0.copyload.i, ptr %data.sroa.4.sroa.4.0.data.sroa.4.0..sroa_idx.sroa_idx.i, align 8, !dbg !3993, !noalias !3752
  %data.sroa.4.sroa.5.0.data.sroa.4.0..sroa_idx.sroa_idx.i = getelementptr inbounds i8, ptr %_32.i, i64 40, !dbg !3993
  store ptr %value.sroa.5.0.copyload.i, ptr %data.sroa.4.sroa.5.0.data.sroa.4.0..sroa_idx.sroa_idx.i, align 8, !dbg !3993, !noalias !3752
  %data.sroa.5.0..sroa_idx.i = getelementptr inbounds i8, ptr %_32.i, i64 48, !dbg !3993
  store i64 %8, ptr %data.sroa.5.0..sroa_idx.i, align 8, !dbg !3993, !noalias !3752
  %data.sroa.6.0..sroa_idx.i = getelementptr inbounds i8, ptr %_32.i, i64 56, !dbg !3993
  %data.sroa.9.0..sroa_idx.i = getelementptr inbounds i8, ptr %_32.i, i64 80, !dbg !3993
  call void @llvm.memset.p0.i64(ptr noundef nonnull align 8 dereferenceable(24) %data.sroa.6.0..sroa_idx.i, i8 0, i64 24, i1 false), !dbg !3993, !noalias !3752
  store i8 1, ptr %data.sroa.9.0..sroa_idx.i, align 8, !dbg !3993, !noalias !3752
  %data.sroa.10.0..sroa_idx.i = getelementptr inbounds i8, ptr %_32.i, i64 81, !dbg !3993
  store i8 0, ptr %data.sroa.10.0..sroa_idx.i, align 1, !dbg !3993, !noalias !3752
  %data.sroa.11.0..sroa_idx.i = getelementptr inbounds i8, ptr %_32.i, i64 82, !dbg !3993
  call void @llvm.memcpy.p0.p0.i64(ptr noundef nonnull align 2 dereferenceable(6) %data.sroa.11.0..sroa_idx.i, ptr noundef nonnull align 2 dereferenceable(6) %data.sroa.11.i, i64 6, i1 false), !dbg !3993, !noalias !3752
  call void @llvm.dbg.declare(metadata ptr %_32.i, metadata !3994, metadata !DIExpression()), !dbg !3999
  call void @llvm.dbg.value(metadata ptr inttoptr (i64 1 to ptr), metadata !1575, metadata !DIExpression()), !dbg !4001
  call void @llvm.dbg.value(metadata i64 88, metadata !1613, metadata !DIExpression()), !dbg !4004
  call void @llvm.dbg.value(metadata i64 8, metadata !1614, metadata !DIExpression()), !dbg !4004
  call void @llvm.dbg.value(metadata i64 8, metadata !1615, metadata !DIExpression(DW_OP_LLVM_fragment, 0, 64)), !dbg !4005
  call void @llvm.dbg.value(metadata i64 8, metadata !1605, metadata !DIExpression(DW_OP_LLVM_fragment, 0, 64)), !dbg !4001
  call void @llvm.dbg.value(metadata i64 88, metadata !1615, metadata !DIExpression(DW_OP_LLVM_fragment, 64, 64)), !dbg !4005
  call void @llvm.dbg.value(metadata i64 88, metadata !1605, metadata !DIExpression(DW_OP_LLVM_fragment, 64, 64)), !dbg !4001
  call void @llvm.dbg.value(metadata i64 8, metadata !1621, metadata !DIExpression(DW_OP_LLVM_fragment, 0, 64)), !dbg !4006
  call void @llvm.dbg.value(metadata i64 88, metadata !1621, metadata !DIExpression(DW_OP_LLVM_fragment, 64, 64)), !dbg !4006
  call void @llvm.dbg.value(metadata ptr undef, metadata !1627, metadata !DIExpression()), !dbg !4006
  call void @llvm.dbg.value(metadata i1 false, metadata !1628, metadata !DIExpression(DW_OP_LLVM_convert, 1, DW_ATE_unsigned, DW_OP_LLVM_convert, 8, DW_ATE_unsigned, DW_OP_stack_value)), !dbg !4006
  call void @llvm.dbg.value(metadata i64 88, metadata !1629, metadata !DIExpression()), !dbg !4008
  call void @llvm.dbg.value(metadata ptr @__rust_no_alloc_shim_is_unstable, metadata !1660, metadata !DIExpression()), !dbg !4009
  call void @llvm.dbg.value(metadata i64 8, metadata !1672, metadata !DIExpression(DW_OP_LLVM_fragment, 0, 64)), !dbg !4012
  call void @llvm.dbg.value(metadata i64 88, metadata !1672, metadata !DIExpression(DW_OP_LLVM_fragment, 64, 64)), !dbg !4012
  %11 = load volatile i8, ptr @__rust_no_alloc_shim_is_unstable, align 1, !dbg !4013, !noalias !4014
  %_0.i.i.i.i = tail call noalias noundef align 8 dereferenceable_or_null(88) ptr @__rust_alloc(i64 noundef 88, i64 noundef 8) #16, !dbg !4017, !noalias !4014
  %12 = icmp eq ptr %_0.i.i.i.i, null, !dbg !4018
  br i1 %12, label %bb2.i43.i, label %bb9.i, !dbg !4019

bb2.i43.i:                                        ; preds = %bb1.i
; invoke alloc::alloc::handle_alloc_error
  invoke void @_ZN5alloc5alloc18handle_alloc_error17h668ad8a7a2fd77cbE(i64 noundef 8, i64 noundef 88) #24
          to label %.noexc44.i unwind label %cleanup.i.i, !dbg !4020, !noalias !3752

.noexc44.i:                                       ; preds = %bb2.i43.i
  unreachable, !dbg !4020

cleanup.i.i:                                      ; preds = %bb2.i43.i
  %13 = landingpad { ptr, i32 }
          cleanup
  call void @llvm.dbg.value(metadata ptr %_32.i, metadata !4021, metadata !DIExpression()), !dbg !4026
; invoke core::ptr::drop_in_place<futures_util::stream::futures_unordered::task::Task<futures_task::future_obj::FutureObj<()>>>
  invoke fastcc void @"_ZN4core3ptr131drop_in_place$LT$futures_util..stream..futures_unordered..task..Task$LT$futures_task..future_obj..FutureObj$LT$$LP$$RP$$GT$$GT$$GT$17h3c65baddf12ccbf8E"(ptr noalias noundef nonnull align 8 dereferenceable(72) %10)
          to label %common.resume.i unwind label %terminate.i.i, !dbg !4028, !noalias !3752

terminate.i.i:                                    ; preds = %cleanup.i.i
  %14 = landingpad { ptr, i32 }
          filter [0 x ptr] zeroinitializer
; call core::panicking::panic_in_cleanup
  tail call void @_ZN4core9panicking16panic_in_cleanup17h43442956f23e9cbeE() #25, !dbg !4029, !noalias !3752
  unreachable, !dbg !4029

common.resume.i:                                  ; preds = %cleanup.i.i, %bb2.i.i.i, %cleanup.i
  %common.resume.op.i = phi { ptr, i32 } [ %13, %cleanup.i.i ], [ %5, %cleanup.i ], [ %5, %bb2.i.i.i ]
  resume { ptr, i32 } %common.resume.op.i, !dbg !3788

bb9.i:                                            ; preds = %bb1.i
  call void @llvm.memcpy.p0.p0.i64(ptr noundef nonnull align 8 dereferenceable(88) %_0.i.i.i.i, ptr noundef nonnull align 8 dereferenceable(88) %_32.i, i64 88, i1 false), !dbg !4030, !noalias !3752
  call void @llvm.lifetime.end.p0(i64 88, ptr nonnull %_32.i), !dbg !4031, !noalias !3752
  call void @llvm.dbg.value(metadata ptr %_0.i.i.i.i, metadata !3775, metadata !DIExpression()), !dbg !4032
  call void @llvm.lifetime.end.p0(i64 6, ptr nonnull %data.sroa.11.i), !dbg !4033
  call void @llvm.dbg.value(metadata ptr %self, metadata !3784, metadata !DIExpression(DW_OP_plus_uconst, 16, DW_OP_stack_value)), !dbg !3786
  call void @llvm.dbg.value(metadata ptr %self, metadata !4034, metadata !DIExpression(DW_OP_plus_uconst, 16, DW_OP_stack_value)), !dbg !4038
  %_46.i = getelementptr inbounds i8, ptr %self, i64 16, !dbg !4040
  call void @llvm.dbg.value(metadata i8 0, metadata !1286, metadata !DIExpression()), !dbg !4041
  call void @llvm.dbg.value(metadata ptr %_46.i, metadata !1291, metadata !DIExpression()), !dbg !4041
  call void @llvm.dbg.value(metadata i8 0, metadata !1292, metadata !DIExpression()), !dbg !4041
  store atomic i8 0, ptr %_46.i monotonic, align 8, !dbg !4043, !noalias !3752
  call void @llvm.dbg.value(metadata i8 3, metadata !4044, metadata !DIExpression()), !dbg !4054
  call void @llvm.dbg.value(metadata i8 3, metadata !4078, metadata !DIExpression()), !dbg !4087
  call void @llvm.dbg.value(metadata i8 2, metadata !4089, metadata !DIExpression()), !dbg !4101
  call void @llvm.dbg.value(metadata i8 2, metadata !4103, metadata !DIExpression()), !dbg !4114
  call void @llvm.dbg.value(metadata i8 1, metadata !4116, metadata !DIExpression()), !dbg !4125
  call void @llvm.dbg.value(metadata ptr %_0.i.i.i.i, metadata !4063, metadata !DIExpression()), !dbg !4127
  call void @llvm.dbg.value(metadata ptr %self, metadata !4062, metadata !DIExpression()), !dbg !4127
  call void @llvm.dbg.value(metadata ptr %self, metadata !4128, metadata !DIExpression()), !dbg !4134
  call void @llvm.dbg.value(metadata ptr %_0.i.i.i.i, metadata !4136, metadata !DIExpression()), !dbg !4145
  call void @llvm.dbg.value(metadata ptr undef, metadata !4147, metadata !DIExpression()), !dbg !4161
  call void @llvm.dbg.value(metadata ptr %_0.i.i.i.i, metadata !4155, metadata !DIExpression()), !dbg !4163
  %ptr.i.i = getelementptr inbounds i8, ptr %_0.i.i.i.i, i64 16, !dbg !4164
  call void @llvm.dbg.value(metadata ptr %ptr.i.i, metadata !4053, metadata !DIExpression()), !dbg !4054
  call void @llvm.dbg.value(metadata ptr %ptr.i.i, metadata !4086, metadata !DIExpression()), !dbg !4087
  call void @llvm.dbg.value(metadata ptr %ptr.i.i, metadata !4072, metadata !DIExpression()), !dbg !4165
  call void @llvm.dbg.value(metadata ptr %self, metadata !4052, metadata !DIExpression(DW_OP_plus_uconst, 8, DW_OP_stack_value)), !dbg !4054
  call void @llvm.dbg.value(metadata ptr %self, metadata !4166, metadata !DIExpression(DW_OP_plus_uconst, 8, DW_OP_stack_value)), !dbg !4180
  %_41.i.i = getelementptr inbounds i8, ptr %self, i64 8, !dbg !4182
  call void @llvm.dbg.value(metadata ptr %_41.i.i, metadata !4085, metadata !DIExpression()), !dbg !4087
  %15 = atomicrmw xchg ptr %_41.i.i, ptr %ptr.i.i acq_rel, align 8, !dbg !4183, !noalias !3752
  call void @llvm.dbg.value(metadata ptr %15, metadata !4073, metadata !DIExpression()), !dbg !4184
  call void @llvm.dbg.value(metadata ptr %15, metadata !4124, metadata !DIExpression()), !dbg !4125
  %16 = icmp eq ptr %15, null, !dbg !4185
  br i1 %16, label %bb6.critedge.i.i, label %bb2.i46.i, !dbg !4185, !unsafe_inst !713

bb2.i46.i:                                        ; preds = %bb9.i
  call void @llvm.dbg.value(metadata ptr %15, metadata !4097, metadata !DIExpression()), !dbg !4101
  call void @llvm.dbg.value(metadata ptr %self, metadata !4186, metadata !DIExpression()), !dbg !4192
  call void @llvm.dbg.value(metadata ptr %self, metadata !4194, metadata !DIExpression()), !dbg !4200
  call void @llvm.dbg.value(metadata ptr %self, metadata !4202, metadata !DIExpression()), !dbg !4208
  %self17.i.i = load ptr, ptr %self, align 8, !dbg !4210, !noalias !3752, !nonnull !27, !noundef !27
  call void @llvm.dbg.value(metadata ptr %self17.i.i, metadata !4157, metadata !DIExpression(DW_OP_plus_uconst, 16, DW_OP_stack_value)), !dbg !4211
  %17 = getelementptr inbounds i8, ptr %self17.i.i, i64 16, !dbg !4213
  %self22.i.i = load ptr, ptr %17, align 8, !dbg !4213, !noalias !3752, !nonnull !27, !noundef !27
  call void @llvm.dbg.value(metadata ptr %self22.i.i, metadata !4159, metadata !DIExpression()), !dbg !4214
  %pending_next_all.i.i = getelementptr inbounds i8, ptr %self22.i.i, i64 16, !dbg !4215
  call void @llvm.dbg.value(metadata ptr %pending_next_all.i.i, metadata !4098, metadata !DIExpression()), !dbg !4101
  %_59.i.i = getelementptr inbounds i8, ptr %15, i64 32
  br label %bb11.i.i, !dbg !4216

bb11.i.i:                                         ; preds = %bb11.i.i, %bb2.i46.i
  call void @llvm.dbg.value(metadata ptr %15, metadata !4113, metadata !DIExpression(DW_OP_plus_uconst, 32, DW_OP_stack_value)), !dbg !4114
  call void @llvm.dbg.value(metadata i8 2, metadata !4217, metadata !DIExpression()), !dbg !4224
  call void @llvm.dbg.value(metadata ptr %_59.i.i, metadata !4223, metadata !DIExpression()), !dbg !4224
  %18 = load atomic ptr, ptr %_59.i.i acquire, align 8, !dbg !4226
  call void @llvm.dbg.value(metadata ptr %18, metadata !4099, metadata !DIExpression()), !dbg !4227
  %_56.not.i.i = icmp eq ptr %18, %pending_next_all.i.i, !dbg !4228
  br i1 %_56.not.i.i, label %bb11.i.i, label %bb5.i47.i, !dbg !4228

bb5.i47.i:                                        ; preds = %bb11.i.i
  %self31.i.i = getelementptr inbounds i8, ptr %15, i64 48, !dbg !4229, !unsafe_inst !713
  %_13.i.i = load i64, ptr %self31.i.i, align 8, !dbg !4230, !noundef !27, !unsafe_inst !713
  %19 = add i64 %_13.i.i, 1, !dbg !4230, !unsafe_inst !713
  call void @llvm.dbg.value(metadata i64 %19, metadata !4075, metadata !DIExpression()), !dbg !4231
  call void @llvm.dbg.value(metadata ptr %ptr.i.i, metadata !4232, metadata !DIExpression(DW_OP_plus_uconst, 48, DW_OP_stack_value)), !dbg !4238
  %_61.i.i = getelementptr inbounds i8, ptr %_0.i.i.i.i, i64 64, !dbg !4240
  store i64 %19, ptr %_61.i.i, align 8, !dbg !4241, !noalias !3752, !unsafe_inst !713
  call void @llvm.dbg.value(metadata ptr %ptr.i.i, metadata !4123, metadata !DIExpression(DW_OP_plus_uconst, 32, DW_OP_stack_value)), !dbg !4125
  call void @llvm.dbg.value(metadata ptr %ptr.i.i, metadata !4178, metadata !DIExpression(DW_OP_plus_uconst, 32, DW_OP_stack_value)), !dbg !4242
  %_65.i.i = getelementptr inbounds i8, ptr %_0.i.i.i.i, i64 48, !dbg !4244
  call void @llvm.dbg.value(metadata i8 1, metadata !4245, metadata !DIExpression()), !dbg !4252
  call void @llvm.dbg.value(metadata ptr %_65.i.i, metadata !4250, metadata !DIExpression()), !dbg !4252
  call void @llvm.dbg.value(metadata ptr %15, metadata !4251, metadata !DIExpression()), !dbg !4252
  store atomic ptr %15, ptr %_65.i.i release, align 8, !dbg !4254, !noalias !3752
  %self40.i.i = getelementptr inbounds i8, ptr %15, i64 40, !dbg !4255, !unsafe_inst !713
  store ptr %ptr.i.i, ptr %self40.i.i, align 8, !dbg !4256, !unsafe_inst !713
  br label %"_ZN12futures_util6stream17futures_unordered27FuturesUnordered$LT$Fut$GT$4push17h3bebcb560aa20567E.exit", !dbg !4257, !unsafe_inst !713

bb6.critedge.i.i:                                 ; preds = %bb9.i
  call void @llvm.dbg.value(metadata i64 %19, metadata !4075, metadata !DIExpression()), !dbg !4231
  call void @llvm.dbg.value(metadata ptr %ptr.i.i, metadata !4232, metadata !DIExpression(DW_OP_plus_uconst, 48, DW_OP_stack_value)), !dbg !4238
  %_61.c.i.i = getelementptr inbounds i8, ptr %_0.i.i.i.i, i64 64, !dbg !4240
  store i64 1, ptr %_61.c.i.i, align 8, !dbg !4241, !noalias !3752, !unsafe_inst !713
  call void @llvm.dbg.value(metadata ptr %ptr.i.i, metadata !4123, metadata !DIExpression(DW_OP_plus_uconst, 32, DW_OP_stack_value)), !dbg !4125
  call void @llvm.dbg.value(metadata ptr %ptr.i.i, metadata !4178, metadata !DIExpression(DW_OP_plus_uconst, 32, DW_OP_stack_value)), !dbg !4242
  %_65.c.i.i = getelementptr inbounds i8, ptr %_0.i.i.i.i, i64 48, !dbg !4244
  call void @llvm.dbg.value(metadata i8 1, metadata !4245, metadata !DIExpression()), !dbg !4258
  call void @llvm.dbg.value(metadata ptr %_65.c.i.i, metadata !4250, metadata !DIExpression()), !dbg !4258
  call void @llvm.dbg.value(metadata ptr %15, metadata !4251, metadata !DIExpression()), !dbg !4258
  store atomic ptr null, ptr %_65.c.i.i release, align 8, !dbg !4260, !noalias !3752
  br label %"_ZN12futures_util6stream17futures_unordered27FuturesUnordered$LT$Fut$GT$4push17h3bebcb560aa20567E.exit", !dbg !4261

terminate.i:                                      ; preds = %bb2.i.i.i
  %20 = landingpad { ptr, i32 }
          filter [0 x ptr] zeroinitializer
; call core::panicking::panic_in_cleanup
  tail call void @_ZN4core9panicking16panic_in_cleanup17h43442956f23e9cbeE() #25, !dbg !4262, !noalias !3752
  unreachable, !dbg !4262

"_ZN12futures_util6stream17futures_unordered27FuturesUnordered$LT$Fut$GT$4push17h3bebcb560aa20567E.exit": ; preds = %bb5.i47.i, %bb6.critedge.i.i
  call void @llvm.dbg.value(metadata ptr %ptr.i.i, metadata !3777, metadata !DIExpression()), !dbg !4263
  call void @llvm.dbg.value(metadata ptr %self, metadata !3809, metadata !DIExpression()), !dbg !4264
  call void @llvm.dbg.value(metadata ptr %self, metadata !3821, metadata !DIExpression()), !dbg !4266
  call void @llvm.dbg.value(metadata ptr %self, metadata !3833, metadata !DIExpression()), !dbg !4268
  %self34.i = load ptr, ptr %self, align 8, !dbg !4270, !noalias !3752, !nonnull !27, !noundef !27
  call void @llvm.dbg.value(metadata ptr null, metadata !4271, metadata !DIExpression()), !dbg !4281
  call void @llvm.dbg.value(metadata i8 0, metadata !4276, metadata !DIExpression()), !dbg !4281
  call void @llvm.dbg.value(metadata i8 3, metadata !4296, metadata !DIExpression()), !dbg !4302
  call void @llvm.dbg.value(metadata i8 3, metadata !4304, metadata !DIExpression()), !dbg !4310
  call void @llvm.dbg.value(metadata i8 1, metadata !4280, metadata !DIExpression()), !dbg !4312
  call void @llvm.dbg.value(metadata ptr %self34.i, metadata !4289, metadata !DIExpression(DW_OP_plus_uconst, 16, DW_OP_stack_value)), !dbg !4314
  call void @llvm.dbg.value(metadata ptr %ptr.i.i, metadata !4290, metadata !DIExpression()), !dbg !4314
  call void @llvm.dbg.value(metadata ptr %ptr.i.i, metadata !4275, metadata !DIExpression(DW_OP_plus_uconst, 56, DW_OP_stack_value)), !dbg !4281
  call void @llvm.dbg.value(metadata ptr %ptr.i.i, metadata !4315, metadata !DIExpression(DW_OP_plus_uconst, 56, DW_OP_stack_value)), !dbg !4323
  %_13.i48.i = getelementptr inbounds i8, ptr %_0.i.i.i.i, i64 72, !dbg !4325
  call void @llvm.dbg.value(metadata i8 0, metadata !4245, metadata !DIExpression()), !dbg !4326
  call void @llvm.dbg.value(metadata ptr %_13.i48.i, metadata !4250, metadata !DIExpression()), !dbg !4326
  call void @llvm.dbg.value(metadata ptr null, metadata !4251, metadata !DIExpression()), !dbg !4326
  store atomic ptr null, ptr %_13.i48.i monotonic, align 8, !dbg !4328, !noalias !3752
  call void @llvm.dbg.value(metadata ptr %ptr.i.i, metadata !4291, metadata !DIExpression()), !dbg !4329
  call void @llvm.dbg.value(metadata ptr %ptr.i.i, metadata !4301, metadata !DIExpression()), !dbg !4302
  call void @llvm.dbg.value(metadata ptr %ptr.i.i, metadata !4309, metadata !DIExpression()), !dbg !4310
  call void @llvm.dbg.value(metadata ptr %ptr.i.i, metadata !4279, metadata !DIExpression()), !dbg !4312
  call void @llvm.dbg.value(metadata ptr %self34.i, metadata !4300, metadata !DIExpression(DW_OP_plus_uconst, 16, DW_OP_plus_uconst, 32, DW_OP_stack_value)), !dbg !4302
  call void @llvm.dbg.value(metadata ptr %self34.i, metadata !4319, metadata !DIExpression(DW_OP_plus_uconst, 16, DW_OP_plus_uconst, 32, DW_OP_stack_value)), !dbg !4330
  %_16.i.i = getelementptr inbounds i8, ptr %self34.i, i64 48, !dbg !4332
  call void @llvm.dbg.value(metadata ptr %_16.i.i, metadata !4308, metadata !DIExpression()), !dbg !4310
  %21 = atomicrmw xchg ptr %_16.i.i, ptr %ptr.i.i acq_rel, align 8, !dbg !4333, !noalias !3752
  call void @llvm.dbg.value(metadata ptr %21, metadata !4293, metadata !DIExpression()), !dbg !4334
  %self14.i.i = getelementptr inbounds i8, ptr %21, i64 56, !dbg !4335, !unsafe_inst !713
  call void @llvm.dbg.value(metadata ptr %self14.i.i, metadata !4277, metadata !DIExpression()), !dbg !4312
  call void @llvm.dbg.value(metadata i8 1, metadata !4245, metadata !DIExpression()), !dbg !4336
  call void @llvm.dbg.value(metadata ptr %self14.i.i, metadata !4250, metadata !DIExpression()), !dbg !4336
  call void @llvm.dbg.value(metadata ptr %ptr.i.i, metadata !4251, metadata !DIExpression()), !dbg !4336
  store atomic ptr %ptr.i.i, ptr %self14.i.i release, align 8, !dbg !4338
  ret i1 false, !dbg !4339
}

; <futures_util::stream::futures_unordered::FuturesUnordered<futures_task::future_obj::LocalFutureObj<()>> as futures_task::spawn::LocalSpawn>::spawn_local_obj
; Function Attrs: nonlazybind uwtable
define noundef zeroext i1 @"_ZN173_$LT$futures_util..stream..futures_unordered..FuturesUnordered$LT$futures_task..future_obj..LocalFutureObj$LT$$LP$$RP$$GT$$GT$$u20$as$u20$futures_task..spawn..LocalSpawn$GT$15spawn_local_obj17h38baccb370f7725aE"(ptr nocapture noundef nonnull align 8 %self, ptr noalias nocapture noundef readonly align 8 dereferenceable(24) %future_obj) unnamed_addr #4 personality ptr @rust_eh_personality !dbg !4340 {
start:
  %_32.i = alloca [88 x i8], align 8
  %data.sroa.11.i = alloca [6 x i8], align 2
  tail call void @llvm.dbg.value(metadata ptr %self, metadata !4357, metadata !DIExpression()), !dbg !4359
  call void @llvm.dbg.declare(metadata ptr %future_obj, metadata !4358, metadata !DIExpression()), !dbg !4360
  tail call void @llvm.experimental.noalias.scope.decl(metadata !4361), !dbg !4364
  call void @llvm.dbg.declare(metadata ptr %data.sroa.11.i, metadata !4365, metadata !DIExpression(DW_OP_LLVM_fragment, 528, 48)), !dbg !4375
  call void @llvm.dbg.value(metadata i8 0, metadata !4389, metadata !DIExpression()), !dbg !4395
  call void @llvm.dbg.value(metadata i8 0, metadata !4394, metadata !DIExpression()), !dbg !4395
  call void @llvm.dbg.value(metadata ptr %self, metadata !4382, metadata !DIExpression()), !dbg !4397
  call void @llvm.dbg.value(metadata ptr %self, metadata !4398, metadata !DIExpression()), !dbg !4405
  call void @llvm.dbg.declare(metadata ptr %future_obj, metadata !4383, metadata !DIExpression()), !dbg !4407
  call void @llvm.lifetime.start.p0(i64 6, ptr nonnull %data.sroa.11.i), !dbg !4408
  %value.sroa.0.0.copyload.i = load ptr, ptr %future_obj, align 8, !dbg !4409, !alias.scope !4361
  %value.sroa.4.0.future.sroa_idx.i = getelementptr inbounds i8, ptr %future_obj, i64 8, !dbg !4409
  %value.sroa.4.0.copyload.i = load ptr, ptr %value.sroa.4.0.future.sroa_idx.i, align 8, !dbg !4409, !alias.scope !4361
  %value.sroa.5.0.future.sroa_idx.i = getelementptr inbounds i8, ptr %future_obj, i64 16, !dbg !4409
  %value.sroa.5.0.copyload.i = load ptr, ptr %value.sroa.5.0.future.sroa_idx.i, align 8, !dbg !4409, !alias.scope !4361
  call void @llvm.dbg.value(metadata ptr %self, metadata !4410, metadata !DIExpression()), !dbg !4420
  call void @llvm.dbg.value(metadata ptr %self, metadata !4422, metadata !DIExpression()), !dbg !4432
  call void @llvm.dbg.value(metadata ptr %self, metadata !4434, metadata !DIExpression()), !dbg !4444
  %self16.i = load ptr, ptr %self, align 8, !dbg !4446, !noalias !4361, !nonnull !27, !noundef !27
  call void @llvm.dbg.value(metadata ptr %self16.i, metadata !4447, metadata !DIExpression(DW_OP_plus_uconst, 16, DW_OP_stack_value)), !dbg !4458
  %0 = getelementptr inbounds i8, ptr %self16.i, i64 16, !dbg !4460
  %self19.i = load ptr, ptr %0, align 8, !dbg !4460, !noalias !4361, !nonnull !27, !noundef !27
  call void @llvm.dbg.value(metadata ptr %self19.i, metadata !4455, metadata !DIExpression()), !dbg !4461
  call void @llvm.dbg.value(metadata ptr %self19.i, metadata !4462, metadata !DIExpression(DW_OP_plus_uconst, 16, DW_OP_stack_value)), !dbg !4471
  call void @llvm.dbg.value(metadata i8 0, metadata !4473, metadata !DIExpression()), !dbg !4481
  call void @llvm.dbg.value(metadata i8 0, metadata !4480, metadata !DIExpression()), !dbg !4494
  call void @llvm.dbg.value(metadata i8 2, metadata !4496, metadata !DIExpression()), !dbg !4504
  call void @llvm.dbg.value(metadata i8 0, metadata !4503, metadata !DIExpression()), !dbg !4504
  call void @llvm.dbg.value(metadata ptr %self, metadata !4488, metadata !DIExpression()), !dbg !4506
  call void @llvm.dbg.value(metadata ptr %self16.i, metadata !4477, metadata !DIExpression(DW_OP_plus_uconst, 8, DW_OP_stack_value)), !dbg !4481
  call void @llvm.dbg.value(metadata ptr %self16.i, metadata !4507, metadata !DIExpression(DW_OP_plus_uconst, 8, DW_OP_stack_value)), !dbg !4515
  %_29.i.i = getelementptr inbounds i8, ptr %self16.i, i64 8, !dbg !4517
  call void @llvm.dbg.value(metadata i8 0, metadata !1270, metadata !DIExpression()), !dbg !4518
  call void @llvm.dbg.value(metadata ptr %_29.i.i, metadata !1276, metadata !DIExpression()), !dbg !4518
  call void @llvm.dbg.value(metadata i64 %1, metadata !4489, metadata !DIExpression()), !dbg !4520
  br label %bb1.i.i.sink.split, !dbg !4521

bb1.i.i.sink.split:                               ; preds = %start, %bb2.i.i
  %1 = load atomic i64, ptr %_29.i.i monotonic, align 8, !dbg !4522, !noalias !4524
  br label %bb1.i.i, !dbg !4527

bb1.i.i:                                          ; preds = %bb1.i.i.sink.split, %bb4.i.i
  %cur.sroa.0.0.i.i = phi i64 [ %4, %bb4.i.i ], [ %1, %bb1.i.i.sink.split ], !dbg !4506
  call void @llvm.dbg.value(metadata i64 %cur.sroa.0.0.i.i, metadata !4489, metadata !DIExpression()), !dbg !4520
  %_4.i39.i = icmp eq i64 %cur.sroa.0.0.i.i, -1, !dbg !4527
  br i1 %_4.i39.i, label %bb2.i.i, label %bb3.i40.i, !dbg !4527

bb3.i40.i:                                        ; preds = %bb1.i.i
  %_8.i.i = icmp sgt i64 %cur.sroa.0.0.i.i, -1, !dbg !4528
  br i1 %_8.i.i, label %bb4.i.i, label %bb5.i.i, !dbg !4528

bb2.i.i:                                          ; preds = %bb1.i.i
  tail call void @llvm.x86.sse2.pause() #16, !dbg !4529, !noalias !4524
  call void @llvm.dbg.value(metadata ptr %self16.i, metadata !4478, metadata !DIExpression(DW_OP_plus_uconst, 8, DW_OP_stack_value)), !dbg !4494
  call void @llvm.dbg.value(metadata i8 0, metadata !1270, metadata !DIExpression()), !dbg !4536
  call void @llvm.dbg.value(metadata ptr %_29.i.i, metadata !1276, metadata !DIExpression()), !dbg !4536
  call void @llvm.dbg.value(metadata i64 %1, metadata !4489, metadata !DIExpression()), !dbg !4520
  br label %bb1.i.i.sink.split, !dbg !4538

bb5.i.i:                                          ; preds = %bb3.i40.i
; invoke alloc::sync::Arc<T,A>::downgrade::panic_cold_display
  invoke fastcc void @"_ZN5alloc4sync16Arc$LT$T$C$A$GT$9downgrade18panic_cold_display17h3d36121486bbb041E"() #24
          to label %.noexc.i unwind label %cleanup.i, !dbg !4540, !noalias !4361

.noexc.i:                                         ; preds = %bb5.i.i
  unreachable, !dbg !4540

bb4.i.i:                                          ; preds = %bb3.i40.i
  call void @llvm.dbg.value(metadata ptr %self16.i, metadata !4500, metadata !DIExpression(DW_OP_plus_uconst, 8, DW_OP_stack_value)), !dbg !4504
  call void @llvm.dbg.value(metadata i64 %cur.sroa.0.0.i.i, metadata !4501, metadata !DIExpression()), !dbg !4504
  %new.i.i = add nuw i64 %cur.sroa.0.0.i.i, 1, !dbg !4541
  call void @llvm.dbg.value(metadata i64 %new.i.i, metadata !4502, metadata !DIExpression()), !dbg !4504
  call void @llvm.dbg.value(metadata i8 2, metadata !3962, metadata !DIExpression()), !dbg !4542
  call void @llvm.dbg.value(metadata i8 0, metadata !3970, metadata !DIExpression()), !dbg !4542
  call void @llvm.dbg.value(metadata ptr %_29.i.i, metadata !3967, metadata !DIExpression()), !dbg !4542
  call void @llvm.dbg.value(metadata i64 %cur.sroa.0.0.i.i, metadata !3968, metadata !DIExpression()), !dbg !4542
  call void @llvm.dbg.value(metadata i64 %new.i.i, metadata !3969, metadata !DIExpression()), !dbg !4542
  %2 = cmpxchg weak ptr %_29.i.i, i64 %cur.sroa.0.0.i.i, i64 %new.i.i acquire monotonic, align 8, !dbg !4544, !noalias !4524
  %3 = extractvalue { i64, i1 } %2, 1, !dbg !4544
  %4 = extractvalue { i64, i1 } %2, 0, !dbg !4544
  br i1 %3, label %bb1.i, label %bb1.i.i, !dbg !4545

cleanup.i:                                        ; preds = %bb5.i.i
  %5 = landingpad { ptr, i32 }
          cleanup
  call void @llvm.dbg.value(metadata ptr undef, metadata !1016, metadata !DIExpression()), !dbg !4546
  call void @llvm.dbg.value(metadata ptr undef, metadata !1026, metadata !DIExpression()), !dbg !4548
  %6 = icmp eq ptr %value.sroa.0.0.copyload.i, null, !dbg !4550
  br i1 %6, label %common.resume.i, label %bb2.i.i.i, !dbg !4550

bb2.i.i.i:                                        ; preds = %cleanup.i
  call void @llvm.dbg.value(metadata ptr undef, metadata !681, metadata !DIExpression()), !dbg !4551
  call void @llvm.dbg.value(metadata ptr undef, metadata !691, metadata !DIExpression()), !dbg !4553
  %7 = icmp ne ptr %value.sroa.5.0.copyload.i, null
  tail call void @llvm.assume(i1 %7)
  invoke void %value.sroa.0.0.copyload.i(ptr noundef %value.sroa.4.0.copyload.i, ptr noalias noundef nonnull readonly align 8 dereferenceable(32) %value.sroa.5.0.copyload.i)
          to label %common.resume.i unwind label %terminate.i, !dbg !4555, !noalias !4361

bb1.i:                                            ; preds = %bb4.i.i
  %p.i = getelementptr inbounds i8, ptr %self19.i, i64 16, !dbg !4556
  call void @llvm.dbg.value(metadata ptr %p.i, metadata !4462, metadata !DIExpression()), !dbg !4471
  %8 = ptrtoint ptr %p.i to i64, !dbg !4557
  call void @llvm.dbg.value(metadata ptr %value.sroa.0.0.copyload.i, metadata !4365, metadata !DIExpression(DW_OP_LLVM_fragment, 64, 64)), !dbg !4558
  call void @llvm.dbg.value(metadata ptr %value.sroa.4.0.copyload.i, metadata !4365, metadata !DIExpression(DW_OP_LLVM_fragment, 128, 64)), !dbg !4558
  call void @llvm.dbg.value(metadata ptr %value.sroa.5.0.copyload.i, metadata !4365, metadata !DIExpression(DW_OP_LLVM_fragment, 192, 64)), !dbg !4558
  call void @llvm.dbg.value(metadata i64 %8, metadata !4365, metadata !DIExpression(DW_OP_LLVM_fragment, 256, 64)), !dbg !4558
  call void @llvm.dbg.value(metadata ptr null, metadata !4365, metadata !DIExpression(DW_OP_LLVM_fragment, 320, 64)), !dbg !4558
  call void @llvm.dbg.value(metadata i64 0, metadata !4365, metadata !DIExpression(DW_OP_LLVM_fragment, 384, 64)), !dbg !4558
  call void @llvm.dbg.value(metadata i64 0, metadata !4365, metadata !DIExpression(DW_OP_LLVM_fragment, 448, 64)), !dbg !4558
  call void @llvm.dbg.value(metadata ptr %self16.i, metadata !4365, metadata !DIExpression(DW_OP_LLVM_fragment, 0, 64)), !dbg !4558
  call void @llvm.dbg.value(metadata i8 1, metadata !4365, metadata !DIExpression(DW_OP_LLVM_fragment, 512, 8)), !dbg !4558
  call void @llvm.dbg.value(metadata i8 0, metadata !4365, metadata !DIExpression(DW_OP_LLVM_fragment, 520, 8)), !dbg !4558
  call void @llvm.lifetime.start.p0(i64 88, ptr nonnull %_32.i), !dbg !4559, !noalias !4361
  store i64 1, ptr %_32.i, align 8, !dbg !4559, !noalias !4361
  %9 = getelementptr inbounds i8, ptr %_32.i, i64 8, !dbg !4559
  store i64 1, ptr %9, align 8, !dbg !4559, !noalias !4361
  %10 = getelementptr inbounds i8, ptr %_32.i, i64 16, !dbg !4559
  store ptr %self16.i, ptr %10, align 8, !dbg !4559, !noalias !4361
  %data.sroa.4.0..sroa_idx.i = getelementptr inbounds i8, ptr %_32.i, i64 24, !dbg !4559
  store ptr %value.sroa.0.0.copyload.i, ptr %data.sroa.4.0..sroa_idx.i, align 8, !dbg !4559, !noalias !4361
  %data.sroa.4.sroa.4.0.data.sroa.4.0..sroa_idx.sroa_idx.i = getelementptr inbounds i8, ptr %_32.i, i64 32, !dbg !4559
  store ptr %value.sroa.4.0.copyload.i, ptr %data.sroa.4.sroa.4.0.data.sroa.4.0..sroa_idx.sroa_idx.i, align 8, !dbg !4559, !noalias !4361
  %data.sroa.4.sroa.5.0.data.sroa.4.0..sroa_idx.sroa_idx.i = getelementptr inbounds i8, ptr %_32.i, i64 40, !dbg !4559
  store ptr %value.sroa.5.0.copyload.i, ptr %data.sroa.4.sroa.5.0.data.sroa.4.0..sroa_idx.sroa_idx.i, align 8, !dbg !4559, !noalias !4361
  %data.sroa.5.0..sroa_idx.i = getelementptr inbounds i8, ptr %_32.i, i64 48, !dbg !4559
  store i64 %8, ptr %data.sroa.5.0..sroa_idx.i, align 8, !dbg !4559, !noalias !4361
  %data.sroa.6.0..sroa_idx.i = getelementptr inbounds i8, ptr %_32.i, i64 56, !dbg !4559
  %data.sroa.9.0..sroa_idx.i = getelementptr inbounds i8, ptr %_32.i, i64 80, !dbg !4559
  call void @llvm.memset.p0.i64(ptr noundef nonnull align 8 dereferenceable(24) %data.sroa.6.0..sroa_idx.i, i8 0, i64 24, i1 false), !dbg !4559, !noalias !4361
  store i8 1, ptr %data.sroa.9.0..sroa_idx.i, align 8, !dbg !4559, !noalias !4361
  %data.sroa.10.0..sroa_idx.i = getelementptr inbounds i8, ptr %_32.i, i64 81, !dbg !4559
  store i8 0, ptr %data.sroa.10.0..sroa_idx.i, align 1, !dbg !4559, !noalias !4361
  %data.sroa.11.0..sroa_idx.i = getelementptr inbounds i8, ptr %_32.i, i64 82, !dbg !4559
  call void @llvm.memcpy.p0.p0.i64(ptr noundef nonnull align 2 dereferenceable(6) %data.sroa.11.0..sroa_idx.i, ptr noundef nonnull align 2 dereferenceable(6) %data.sroa.11.i, i64 6, i1 false), !dbg !4559, !noalias !4361
  call void @llvm.dbg.declare(metadata ptr %_32.i, metadata !4560, metadata !DIExpression()), !dbg !4565
  call void @llvm.dbg.value(metadata ptr inttoptr (i64 1 to ptr), metadata !1575, metadata !DIExpression()), !dbg !4567
  call void @llvm.dbg.value(metadata i64 88, metadata !1613, metadata !DIExpression()), !dbg !4570
  call void @llvm.dbg.value(metadata i64 8, metadata !1614, metadata !DIExpression()), !dbg !4570
  call void @llvm.dbg.value(metadata i64 8, metadata !1615, metadata !DIExpression(DW_OP_LLVM_fragment, 0, 64)), !dbg !4571
  call void @llvm.dbg.value(metadata i64 8, metadata !1605, metadata !DIExpression(DW_OP_LLVM_fragment, 0, 64)), !dbg !4567
  call void @llvm.dbg.value(metadata i64 88, metadata !1615, metadata !DIExpression(DW_OP_LLVM_fragment, 64, 64)), !dbg !4571
  call void @llvm.dbg.value(metadata i64 88, metadata !1605, metadata !DIExpression(DW_OP_LLVM_fragment, 64, 64)), !dbg !4567
  call void @llvm.dbg.value(metadata i64 8, metadata !1621, metadata !DIExpression(DW_OP_LLVM_fragment, 0, 64)), !dbg !4572
  call void @llvm.dbg.value(metadata i64 88, metadata !1621, metadata !DIExpression(DW_OP_LLVM_fragment, 64, 64)), !dbg !4572
  call void @llvm.dbg.value(metadata ptr undef, metadata !1627, metadata !DIExpression()), !dbg !4572
  call void @llvm.dbg.value(metadata i1 false, metadata !1628, metadata !DIExpression(DW_OP_LLVM_convert, 1, DW_ATE_unsigned, DW_OP_LLVM_convert, 8, DW_ATE_unsigned, DW_OP_stack_value)), !dbg !4572
  call void @llvm.dbg.value(metadata i64 88, metadata !1629, metadata !DIExpression()), !dbg !4574
  call void @llvm.dbg.value(metadata ptr @__rust_no_alloc_shim_is_unstable, metadata !1660, metadata !DIExpression()), !dbg !4575
  call void @llvm.dbg.value(metadata i64 8, metadata !1672, metadata !DIExpression(DW_OP_LLVM_fragment, 0, 64)), !dbg !4578
  call void @llvm.dbg.value(metadata i64 88, metadata !1672, metadata !DIExpression(DW_OP_LLVM_fragment, 64, 64)), !dbg !4578
  %11 = load volatile i8, ptr @__rust_no_alloc_shim_is_unstable, align 1, !dbg !4579, !noalias !4580
  %_0.i.i.i.i = tail call noalias noundef align 8 dereferenceable_or_null(88) ptr @__rust_alloc(i64 noundef 88, i64 noundef 8) #16, !dbg !4583, !noalias !4580
  %12 = icmp eq ptr %_0.i.i.i.i, null, !dbg !4584
  br i1 %12, label %bb2.i43.i, label %bb9.i, !dbg !4585

bb2.i43.i:                                        ; preds = %bb1.i
; invoke alloc::alloc::handle_alloc_error
  invoke void @_ZN5alloc5alloc18handle_alloc_error17h668ad8a7a2fd77cbE(i64 noundef 8, i64 noundef 88) #24
          to label %.noexc44.i unwind label %cleanup.i.i, !dbg !4586, !noalias !4361

.noexc44.i:                                       ; preds = %bb2.i43.i
  unreachable, !dbg !4586

cleanup.i.i:                                      ; preds = %bb2.i43.i
  %13 = landingpad { ptr, i32 }
          cleanup
  call void @llvm.dbg.value(metadata ptr %_32.i, metadata !4587, metadata !DIExpression()), !dbg !4592
; invoke core::ptr::drop_in_place<futures_util::stream::futures_unordered::task::Task<futures_task::future_obj::LocalFutureObj<()>>>
  invoke fastcc void @"_ZN4core3ptr136drop_in_place$LT$futures_util..stream..futures_unordered..task..Task$LT$futures_task..future_obj..LocalFutureObj$LT$$LP$$RP$$GT$$GT$$GT$17h36fc798ff47941cfE"(ptr noalias noundef nonnull align 8 dereferenceable(72) %10)
          to label %common.resume.i unwind label %terminate.i.i, !dbg !4594, !noalias !4361

terminate.i.i:                                    ; preds = %cleanup.i.i
  %14 = landingpad { ptr, i32 }
          filter [0 x ptr] zeroinitializer
; call core::panicking::panic_in_cleanup
  tail call void @_ZN4core9panicking16panic_in_cleanup17h43442956f23e9cbeE() #25, !dbg !4595, !noalias !4361
  unreachable, !dbg !4595

common.resume.i:                                  ; preds = %cleanup.i.i, %bb2.i.i.i, %cleanup.i
  %common.resume.op.i = phi { ptr, i32 } [ %13, %cleanup.i.i ], [ %5, %cleanup.i ], [ %5, %bb2.i.i.i ]
  resume { ptr, i32 } %common.resume.op.i, !dbg !4397

bb9.i:                                            ; preds = %bb1.i
  call void @llvm.memcpy.p0.p0.i64(ptr noundef nonnull align 8 dereferenceable(88) %_0.i.i.i.i, ptr noundef nonnull align 8 dereferenceable(88) %_32.i, i64 88, i1 false), !dbg !4596, !noalias !4361
  call void @llvm.lifetime.end.p0(i64 88, ptr nonnull %_32.i), !dbg !4597, !noalias !4361
  call void @llvm.dbg.value(metadata ptr %_0.i.i.i.i, metadata !4384, metadata !DIExpression()), !dbg !4598
  call void @llvm.lifetime.end.p0(i64 6, ptr nonnull %data.sroa.11.i), !dbg !4599
  call void @llvm.dbg.value(metadata ptr %self, metadata !4393, metadata !DIExpression(DW_OP_plus_uconst, 16, DW_OP_stack_value)), !dbg !4395
  call void @llvm.dbg.value(metadata ptr %self, metadata !4600, metadata !DIExpression(DW_OP_plus_uconst, 16, DW_OP_stack_value)), !dbg !4604
  %_46.i = getelementptr inbounds i8, ptr %self, i64 16, !dbg !4606
  call void @llvm.dbg.value(metadata i8 0, metadata !1286, metadata !DIExpression()), !dbg !4607
  call void @llvm.dbg.value(metadata ptr %_46.i, metadata !1291, metadata !DIExpression()), !dbg !4607
  call void @llvm.dbg.value(metadata i8 0, metadata !1292, metadata !DIExpression()), !dbg !4607
  store atomic i8 0, ptr %_46.i monotonic, align 8, !dbg !4609, !noalias !4361
  call void @llvm.dbg.value(metadata i8 3, metadata !4610, metadata !DIExpression()), !dbg !4620
  call void @llvm.dbg.value(metadata i8 3, metadata !4644, metadata !DIExpression()), !dbg !4653
  call void @llvm.dbg.value(metadata i8 2, metadata !4655, metadata !DIExpression()), !dbg !4667
  call void @llvm.dbg.value(metadata i8 2, metadata !4669, metadata !DIExpression()), !dbg !4680
  call void @llvm.dbg.value(metadata i8 1, metadata !4682, metadata !DIExpression()), !dbg !4691
  call void @llvm.dbg.value(metadata ptr %_0.i.i.i.i, metadata !4629, metadata !DIExpression()), !dbg !4693
  call void @llvm.dbg.value(metadata ptr %self, metadata !4628, metadata !DIExpression()), !dbg !4693
  call void @llvm.dbg.value(metadata ptr %self, metadata !4694, metadata !DIExpression()), !dbg !4700
  call void @llvm.dbg.value(metadata ptr %_0.i.i.i.i, metadata !4702, metadata !DIExpression()), !dbg !4711
  call void @llvm.dbg.value(metadata ptr undef, metadata !4713, metadata !DIExpression()), !dbg !4727
  call void @llvm.dbg.value(metadata ptr %_0.i.i.i.i, metadata !4721, metadata !DIExpression()), !dbg !4729
  %ptr.i.i = getelementptr inbounds i8, ptr %_0.i.i.i.i, i64 16, !dbg !4730
  call void @llvm.dbg.value(metadata ptr %ptr.i.i, metadata !4619, metadata !DIExpression()), !dbg !4620
  call void @llvm.dbg.value(metadata ptr %ptr.i.i, metadata !4652, metadata !DIExpression()), !dbg !4653
  call void @llvm.dbg.value(metadata ptr %ptr.i.i, metadata !4638, metadata !DIExpression()), !dbg !4731
  call void @llvm.dbg.value(metadata ptr %self, metadata !4618, metadata !DIExpression(DW_OP_plus_uconst, 8, DW_OP_stack_value)), !dbg !4620
  call void @llvm.dbg.value(metadata ptr %self, metadata !4732, metadata !DIExpression(DW_OP_plus_uconst, 8, DW_OP_stack_value)), !dbg !4746
  %_41.i.i = getelementptr inbounds i8, ptr %self, i64 8, !dbg !4748
  call void @llvm.dbg.value(metadata ptr %_41.i.i, metadata !4651, metadata !DIExpression()), !dbg !4653
  %15 = atomicrmw xchg ptr %_41.i.i, ptr %ptr.i.i acq_rel, align 8, !dbg !4749, !noalias !4361
  call void @llvm.dbg.value(metadata ptr %15, metadata !4639, metadata !DIExpression()), !dbg !4750
  call void @llvm.dbg.value(metadata ptr %15, metadata !4690, metadata !DIExpression()), !dbg !4691
  %16 = icmp eq ptr %15, null, !dbg !4751
  br i1 %16, label %bb6.critedge.i.i, label %bb2.i46.i, !dbg !4751, !unsafe_inst !713

bb2.i46.i:                                        ; preds = %bb9.i
  call void @llvm.dbg.value(metadata ptr %15, metadata !4663, metadata !DIExpression()), !dbg !4667
  call void @llvm.dbg.value(metadata ptr %self, metadata !4752, metadata !DIExpression()), !dbg !4758
  call void @llvm.dbg.value(metadata ptr %self, metadata !4760, metadata !DIExpression()), !dbg !4766
  call void @llvm.dbg.value(metadata ptr %self, metadata !4768, metadata !DIExpression()), !dbg !4774
  %self17.i.i = load ptr, ptr %self, align 8, !dbg !4776, !noalias !4361, !nonnull !27, !noundef !27
  call void @llvm.dbg.value(metadata ptr %self17.i.i, metadata !4723, metadata !DIExpression(DW_OP_plus_uconst, 16, DW_OP_stack_value)), !dbg !4777
  %17 = getelementptr inbounds i8, ptr %self17.i.i, i64 16, !dbg !4779
  %self22.i.i = load ptr, ptr %17, align 8, !dbg !4779, !noalias !4361, !nonnull !27, !noundef !27
  call void @llvm.dbg.value(metadata ptr %self22.i.i, metadata !4725, metadata !DIExpression()), !dbg !4780
  %pending_next_all.i.i = getelementptr inbounds i8, ptr %self22.i.i, i64 16, !dbg !4781
  call void @llvm.dbg.value(metadata ptr %pending_next_all.i.i, metadata !4664, metadata !DIExpression()), !dbg !4667
  %_59.i.i = getelementptr inbounds i8, ptr %15, i64 32
  br label %bb11.i.i, !dbg !4782

bb11.i.i:                                         ; preds = %bb11.i.i, %bb2.i46.i
  call void @llvm.dbg.value(metadata ptr %15, metadata !4679, metadata !DIExpression(DW_OP_plus_uconst, 32, DW_OP_stack_value)), !dbg !4680
  call void @llvm.dbg.value(metadata i8 2, metadata !4783, metadata !DIExpression()), !dbg !4790
  call void @llvm.dbg.value(metadata ptr %_59.i.i, metadata !4789, metadata !DIExpression()), !dbg !4790
  %18 = load atomic ptr, ptr %_59.i.i acquire, align 8, !dbg !4792
  call void @llvm.dbg.value(metadata ptr %18, metadata !4665, metadata !DIExpression()), !dbg !4793
  %_56.not.i.i = icmp eq ptr %18, %pending_next_all.i.i, !dbg !4794
  br i1 %_56.not.i.i, label %bb11.i.i, label %bb5.i47.i, !dbg !4794

bb5.i47.i:                                        ; preds = %bb11.i.i
  %self31.i.i = getelementptr inbounds i8, ptr %15, i64 48, !dbg !4795, !unsafe_inst !713
  %_13.i.i = load i64, ptr %self31.i.i, align 8, !dbg !4796, !noundef !27, !unsafe_inst !713
  %19 = add i64 %_13.i.i, 1, !dbg !4796, !unsafe_inst !713
  call void @llvm.dbg.value(metadata i64 %19, metadata !4641, metadata !DIExpression()), !dbg !4797
  call void @llvm.dbg.value(metadata ptr %ptr.i.i, metadata !4798, metadata !DIExpression(DW_OP_plus_uconst, 48, DW_OP_stack_value)), !dbg !4804
  %_61.i.i = getelementptr inbounds i8, ptr %_0.i.i.i.i, i64 64, !dbg !4806
  store i64 %19, ptr %_61.i.i, align 8, !dbg !4807, !noalias !4361, !unsafe_inst !713
  call void @llvm.dbg.value(metadata ptr %ptr.i.i, metadata !4689, metadata !DIExpression(DW_OP_plus_uconst, 32, DW_OP_stack_value)), !dbg !4691
  call void @llvm.dbg.value(metadata ptr %ptr.i.i, metadata !4744, metadata !DIExpression(DW_OP_plus_uconst, 32, DW_OP_stack_value)), !dbg !4808
  %_65.i.i = getelementptr inbounds i8, ptr %_0.i.i.i.i, i64 48, !dbg !4810
  call void @llvm.dbg.value(metadata i8 1, metadata !4811, metadata !DIExpression()), !dbg !4818
  call void @llvm.dbg.value(metadata ptr %_65.i.i, metadata !4816, metadata !DIExpression()), !dbg !4818
  call void @llvm.dbg.value(metadata ptr %15, metadata !4817, metadata !DIExpression()), !dbg !4818
  store atomic ptr %15, ptr %_65.i.i release, align 8, !dbg !4820, !noalias !4361
  %self40.i.i = getelementptr inbounds i8, ptr %15, i64 40, !dbg !4821, !unsafe_inst !713
  store ptr %ptr.i.i, ptr %self40.i.i, align 8, !dbg !4822, !unsafe_inst !713
  br label %"_ZN12futures_util6stream17futures_unordered27FuturesUnordered$LT$Fut$GT$4push17h1fa38714a60183e8E.exit", !dbg !4823, !unsafe_inst !713

bb6.critedge.i.i:                                 ; preds = %bb9.i
  call void @llvm.dbg.value(metadata i64 %19, metadata !4641, metadata !DIExpression()), !dbg !4797
  call void @llvm.dbg.value(metadata ptr %ptr.i.i, metadata !4798, metadata !DIExpression(DW_OP_plus_uconst, 48, DW_OP_stack_value)), !dbg !4804
  %_61.c.i.i = getelementptr inbounds i8, ptr %_0.i.i.i.i, i64 64, !dbg !4806
  store i64 1, ptr %_61.c.i.i, align 8, !dbg !4807, !noalias !4361, !unsafe_inst !713
  call void @llvm.dbg.value(metadata ptr %ptr.i.i, metadata !4689, metadata !DIExpression(DW_OP_plus_uconst, 32, DW_OP_stack_value)), !dbg !4691
  call void @llvm.dbg.value(metadata ptr %ptr.i.i, metadata !4744, metadata !DIExpression(DW_OP_plus_uconst, 32, DW_OP_stack_value)), !dbg !4808
  %_65.c.i.i = getelementptr inbounds i8, ptr %_0.i.i.i.i, i64 48, !dbg !4810
  call void @llvm.dbg.value(metadata i8 1, metadata !4811, metadata !DIExpression()), !dbg !4824
  call void @llvm.dbg.value(metadata ptr %_65.c.i.i, metadata !4816, metadata !DIExpression()), !dbg !4824
  call void @llvm.dbg.value(metadata ptr %15, metadata !4817, metadata !DIExpression()), !dbg !4824
  store atomic ptr null, ptr %_65.c.i.i release, align 8, !dbg !4826, !noalias !4361
  br label %"_ZN12futures_util6stream17futures_unordered27FuturesUnordered$LT$Fut$GT$4push17h1fa38714a60183e8E.exit", !dbg !4827

terminate.i:                                      ; preds = %bb2.i.i.i
  %20 = landingpad { ptr, i32 }
          filter [0 x ptr] zeroinitializer
; call core::panicking::panic_in_cleanup
  tail call void @_ZN4core9panicking16panic_in_cleanup17h43442956f23e9cbeE() #25, !dbg !4828, !noalias !4361
  unreachable, !dbg !4828

"_ZN12futures_util6stream17futures_unordered27FuturesUnordered$LT$Fut$GT$4push17h1fa38714a60183e8E.exit": ; preds = %bb5.i47.i, %bb6.critedge.i.i
  call void @llvm.dbg.value(metadata ptr %ptr.i.i, metadata !4386, metadata !DIExpression()), !dbg !4829
  call void @llvm.dbg.value(metadata ptr %self, metadata !4418, metadata !DIExpression()), !dbg !4830
  call void @llvm.dbg.value(metadata ptr %self, metadata !4430, metadata !DIExpression()), !dbg !4832
  call void @llvm.dbg.value(metadata ptr %self, metadata !4442, metadata !DIExpression()), !dbg !4834
  %self34.i = load ptr, ptr %self, align 8, !dbg !4836, !noalias !4361, !nonnull !27, !noundef !27
  call void @llvm.dbg.value(metadata ptr null, metadata !4837, metadata !DIExpression()), !dbg !4847
  call void @llvm.dbg.value(metadata i8 0, metadata !4842, metadata !DIExpression()), !dbg !4847
  call void @llvm.dbg.value(metadata i8 3, metadata !4861, metadata !DIExpression()), !dbg !4867
  call void @llvm.dbg.value(metadata i8 3, metadata !4869, metadata !DIExpression()), !dbg !4875
  call void @llvm.dbg.value(metadata i8 1, metadata !4846, metadata !DIExpression()), !dbg !4877
  call void @llvm.dbg.value(metadata ptr %self34.i, metadata !4854, metadata !DIExpression(DW_OP_plus_uconst, 16, DW_OP_stack_value)), !dbg !4879
  call void @llvm.dbg.value(metadata ptr %ptr.i.i, metadata !4855, metadata !DIExpression()), !dbg !4879
  call void @llvm.dbg.value(metadata ptr %ptr.i.i, metadata !4841, metadata !DIExpression(DW_OP_plus_uconst, 56, DW_OP_stack_value)), !dbg !4847
  call void @llvm.dbg.value(metadata ptr %ptr.i.i, metadata !4880, metadata !DIExpression(DW_OP_plus_uconst, 56, DW_OP_stack_value)), !dbg !4888
  %_13.i48.i = getelementptr inbounds i8, ptr %_0.i.i.i.i, i64 72, !dbg !4890
  call void @llvm.dbg.value(metadata i8 0, metadata !4811, metadata !DIExpression()), !dbg !4891
  call void @llvm.dbg.value(metadata ptr %_13.i48.i, metadata !4816, metadata !DIExpression()), !dbg !4891
  call void @llvm.dbg.value(metadata ptr null, metadata !4817, metadata !DIExpression()), !dbg !4891
  store atomic ptr null, ptr %_13.i48.i monotonic, align 8, !dbg !4893, !noalias !4361
  call void @llvm.dbg.value(metadata ptr %ptr.i.i, metadata !4856, metadata !DIExpression()), !dbg !4894
  call void @llvm.dbg.value(metadata ptr %ptr.i.i, metadata !4866, metadata !DIExpression()), !dbg !4867
  call void @llvm.dbg.value(metadata ptr %ptr.i.i, metadata !4874, metadata !DIExpression()), !dbg !4875
  call void @llvm.dbg.value(metadata ptr %ptr.i.i, metadata !4845, metadata !DIExpression()), !dbg !4877
  call void @llvm.dbg.value(metadata ptr %self34.i, metadata !4865, metadata !DIExpression(DW_OP_plus_uconst, 16, DW_OP_plus_uconst, 32, DW_OP_stack_value)), !dbg !4867
  call void @llvm.dbg.value(metadata ptr %self34.i, metadata !4884, metadata !DIExpression(DW_OP_plus_uconst, 16, DW_OP_plus_uconst, 32, DW_OP_stack_value)), !dbg !4895
  %_16.i.i = getelementptr inbounds i8, ptr %self34.i, i64 48, !dbg !4897
  call void @llvm.dbg.value(metadata ptr %_16.i.i, metadata !4873, metadata !DIExpression()), !dbg !4875
  %21 = atomicrmw xchg ptr %_16.i.i, ptr %ptr.i.i acq_rel, align 8, !dbg !4898, !noalias !4361
  call void @llvm.dbg.value(metadata ptr %21, metadata !4858, metadata !DIExpression()), !dbg !4899
  %self14.i.i = getelementptr inbounds i8, ptr %21, i64 56, !dbg !4900, !unsafe_inst !713
  call void @llvm.dbg.value(metadata ptr %self14.i.i, metadata !4843, metadata !DIExpression()), !dbg !4877
  call void @llvm.dbg.value(metadata i8 1, metadata !4811, metadata !DIExpression()), !dbg !4901
  call void @llvm.dbg.value(metadata ptr %self14.i.i, metadata !4816, metadata !DIExpression()), !dbg !4901
  call void @llvm.dbg.value(metadata ptr %ptr.i.i, metadata !4817, metadata !DIExpression()), !dbg !4901
  store atomic ptr %ptr.i.i, ptr %self14.i.i release, align 8, !dbg !4903
  ret i1 false, !dbg !4904
}

; futures_util::lock::mutex::Waiter::register
; Function Attrs: nonlazybind uwtable
define void @_ZN12futures_util4lock5mutex6Waiter8register17h778103b709c13002E(ptr noalias nocapture noundef align 8 dereferenceable(16) %self, ptr noalias nocapture noundef readonly align 8 dereferenceable(16) %waker) unnamed_addr #4 personality ptr @rust_eh_personality !dbg !4905 {
start:
  tail call void @llvm.dbg.value(metadata ptr %self, metadata !4925, metadata !DIExpression()), !dbg !4931
  tail call void @llvm.dbg.value(metadata ptr %waker, metadata !4926, metadata !DIExpression()), !dbg !4931
  tail call void @llvm.dbg.value(metadata ptr %waker, metadata !4932, metadata !DIExpression()), !dbg !4936
  tail call void @llvm.dbg.value(metadata ptr %waker, metadata !4938, metadata !DIExpression()), !dbg !4952
  %0 = load ptr, ptr %self, align 8, !dbg !4954, !noundef !27
  %1 = icmp eq ptr %0, null, !dbg !4954
  %_12.pre = load ptr, ptr %waker, align 8, !dbg !4955
  %.phi.trans.insert = getelementptr inbounds i8, ptr %waker, i64 8
  %_11.pre = load ptr, ptr %.phi.trans.insert, align 8, !dbg !4931
  br i1 %1, label %bb1.thread, label %bb2, !dbg !4956

bb1.thread:                                       ; preds = %start
  %_107 = load ptr, ptr %_12.pre, align 8, !dbg !4955, !nonnull !27, !noundef !27
  %2 = tail call { ptr, ptr } %_107(ptr noundef %_11.pre), !dbg !4955
  %_9.08 = extractvalue { ptr, ptr } %2, 0, !dbg !4955
  %_9.19 = extractvalue { ptr, ptr } %2, 1, !dbg !4955
  %3 = getelementptr inbounds i8, ptr %self, i64 8, !dbg !4957
  call void @llvm.dbg.value(metadata ptr undef, metadata !4958, metadata !DIExpression()), !dbg !4966
  br label %bb5, !dbg !4968

bb2:                                              ; preds = %start
  tail call void @llvm.dbg.value(metadata ptr %self, metadata !4945, metadata !DIExpression()), !dbg !4952
  tail call void @llvm.dbg.value(metadata ptr %_11.pre, metadata !4946, metadata !DIExpression()), !dbg !4969
  tail call void @llvm.dbg.value(metadata ptr %_12.pre, metadata !4948, metadata !DIExpression()), !dbg !4969
  %4 = getelementptr inbounds i8, ptr %self, i64 8, !dbg !4970
  %b_data = load ptr, ptr %4, align 8, !dbg !4970, !noundef !27
  tail call void @llvm.dbg.value(metadata ptr %b_data, metadata !4949, metadata !DIExpression()), !dbg !4971
  tail call void @llvm.dbg.value(metadata ptr %0, metadata !4951, metadata !DIExpression()), !dbg !4971
  %_17 = icmp eq ptr %_11.pre, %b_data, !dbg !4972
  %_6 = icmp eq ptr %_12.pre, %0
  %or.cond = and i1 %_6, %_17, !dbg !4972
  br i1 %or.cond, label %bb7, label %bb2.i, !dbg !4972

bb2.i:                                            ; preds = %bb2
  %_10 = load ptr, ptr %_12.pre, align 8, !dbg !4955, !nonnull !27, !noundef !27
  %5 = tail call { ptr, ptr } %_10(ptr noundef %_11.pre), !dbg !4955
  %_9.0 = extractvalue { ptr, ptr } %5, 0, !dbg !4955
  %_9.1 = extractvalue { ptr, ptr } %5, 1, !dbg !4955
  %6 = getelementptr inbounds i8, ptr %self, i64 8, !dbg !4957
  call void @llvm.dbg.value(metadata ptr undef, metadata !4958, metadata !DIExpression()), !dbg !4966
  %self.val4 = load ptr, ptr %6, align 8, !dbg !4957
  call void @llvm.dbg.value(metadata ptr undef, metadata !3181, metadata !DIExpression()), !dbg !4973
  call void @llvm.dbg.value(metadata ptr undef, metadata !3189, metadata !DIExpression()), !dbg !4975
  %7 = getelementptr inbounds i8, ptr %0, i64 24, !dbg !4977
  %_2.i.i.i = load ptr, ptr %7, align 8, !dbg !4977, !nonnull !27, !noundef !27
  invoke void %_2.i.i.i(ptr noundef %self.val4)
          to label %bb5 unwind label %cleanup, !dbg !4977

bb7:                                              ; preds = %bb2, %bb5
  ret void, !dbg !4978

cleanup:                                          ; preds = %bb2.i
  %8 = landingpad { ptr, i32 }
          cleanup
  store ptr %_9.0, ptr %self, align 8, !dbg !4957
  store ptr %_9.1, ptr %6, align 8, !dbg !4957
  resume { ptr, i32 } %8, !dbg !4979

bb5:                                              ; preds = %bb1.thread, %bb2.i
  %9 = phi ptr [ %3, %bb1.thread ], [ %6, %bb2.i ]
  %_9.111 = phi ptr [ %_9.19, %bb1.thread ], [ %_9.1, %bb2.i ]
  %_9.010 = phi ptr [ %_9.08, %bb1.thread ], [ %_9.0, %bb2.i ]
  store ptr %_9.010, ptr %self, align 8, !dbg !4957
  store ptr %_9.111, ptr %9, align 8, !dbg !4957
  br label %bb7, !dbg !4980
}

; futures_util::lock::mutex::Waiter::wake
; Function Attrs: nonlazybind uwtable
define void @_ZN12futures_util4lock5mutex6Waiter4wake17hddd18f528462a3d2E(ptr noalias nocapture noundef align 8 dereferenceable(16) %self) unnamed_addr #4 !dbg !4981 {
start:
  tail call void @llvm.dbg.value(metadata ptr poison, metadata !4989, metadata !DIExpression(DW_OP_LLVM_fragment, 0, 64)), !dbg !4998
  tail call void @llvm.dbg.value(metadata ptr poison, metadata !4989, metadata !DIExpression(DW_OP_LLVM_fragment, 64, 64)), !dbg !4998
  tail call void @llvm.dbg.value(metadata ptr poison, metadata !5000, metadata !DIExpression(DW_OP_LLVM_fragment, 0, 64)), !dbg !5007
  tail call void @llvm.dbg.value(metadata ptr poison, metadata !5000, metadata !DIExpression(DW_OP_LLVM_fragment, 64, 64)), !dbg !5007
  tail call void @llvm.dbg.value(metadata ptr %self, metadata !4986, metadata !DIExpression()), !dbg !5009
  tail call void @llvm.dbg.value(metadata ptr %self, metadata !4995, metadata !DIExpression()), !dbg !4998
  tail call void @llvm.dbg.value(metadata ptr %self, metadata !5010, metadata !DIExpression()), !dbg !5017
  tail call void @llvm.dbg.value(metadata ptr %self, metadata !5006, metadata !DIExpression()), !dbg !5007
  %0 = load ptr, ptr %self, align 8, !dbg !5019, !align !418, !noundef !27
  %1 = getelementptr inbounds i8, ptr %self, i64 8, !dbg !5019
  %2 = load ptr, ptr %1, align 8, !dbg !5019
  tail call void @llvm.dbg.value(metadata ptr %0, metadata !4996, metadata !DIExpression(DW_OP_LLVM_fragment, 0, 64)), !dbg !5020
  tail call void @llvm.dbg.value(metadata ptr %2, metadata !4996, metadata !DIExpression(DW_OP_LLVM_fragment, 64, 64)), !dbg !5020
  store ptr null, ptr %self, align 8, !dbg !5021
  %3 = icmp eq ptr %0, null, !dbg !4999
  br i1 %3, label %bb3, label %bb2, !dbg !5022

bb2:                                              ; preds = %start
  tail call void @llvm.dbg.value(metadata ptr %0, metadata !4987, metadata !DIExpression(DW_OP_LLVM_fragment, 0, 64)), !dbg !5023
  tail call void @llvm.dbg.value(metadata ptr %0, metadata !5024, metadata !DIExpression(DW_OP_LLVM_fragment, 0, 64)), !dbg !5032
  tail call void @llvm.dbg.value(metadata ptr %2, metadata !4987, metadata !DIExpression(DW_OP_LLVM_fragment, 64, 64)), !dbg !5023
  tail call void @llvm.dbg.value(metadata ptr %2, metadata !5024, metadata !DIExpression(DW_OP_LLVM_fragment, 64, 64)), !dbg !5032
  %4 = getelementptr inbounds i8, ptr %0, i64 8, !dbg !5034
  %wake = load ptr, ptr %4, align 8, !dbg !5034, !nonnull !27, !noundef !27
  tail call void @llvm.dbg.value(metadata ptr %wake, metadata !5028, metadata !DIExpression()), !dbg !5035
  tail call void @llvm.dbg.value(metadata ptr %2, metadata !5030, metadata !DIExpression()), !dbg !5036
  tail call void %wake(ptr noundef %2), !dbg !5037
  br label %bb3, !dbg !5038

bb3:                                              ; preds = %start, %bb2
  ret void, !dbg !5039
}

; futures_util::abortable::AbortRegistration::handle
; Function Attrs: nounwind nonlazybind memory(readwrite, inaccessiblemem: write) uwtable
define noundef nonnull ptr @_ZN12futures_util9abortable17AbortRegistration6handle17h5113d268119363c2E(ptr noalias nocapture noundef readonly align 8 dereferenceable(8) %self) unnamed_addr #8 !dbg !5040 {
start:
  tail call void @llvm.dbg.value(metadata ptr %self, metadata !5078, metadata !DIExpression()), !dbg !5079
  %self.val = load ptr, ptr %self, align 8, !dbg !5080, !nonnull !27, !noundef !27
  call void @llvm.dbg.value(metadata i64 1, metadata !5081, metadata !DIExpression()), !dbg !5088
  call void @llvm.dbg.value(metadata i8 0, metadata !5087, metadata !DIExpression()), !dbg !5088
  call void @llvm.dbg.value(metadata i64 1, metadata !5100, metadata !DIExpression()), !dbg !5106
  call void @llvm.dbg.value(metadata i8 0, metadata !5105, metadata !DIExpression()), !dbg !5106
  call void @llvm.dbg.value(metadata ptr undef, metadata !5096, metadata !DIExpression()), !dbg !5108
  call void @llvm.dbg.value(metadata ptr %self.val, metadata !5086, metadata !DIExpression()), !dbg !5088
  call void @llvm.dbg.value(metadata ptr %self.val, metadata !5104, metadata !DIExpression()), !dbg !5106
  %0 = atomicrmw add ptr %self.val, i64 1 monotonic, align 8, !dbg !5109
  call void @llvm.dbg.value(metadata i64 %0, metadata !5097, metadata !DIExpression()), !dbg !5110
  %_4.i = icmp slt i64 %0, 0, !dbg !5111
  br i1 %_4.i, label %bb1.i, label %"_ZN68_$LT$alloc..sync..Arc$LT$T$C$A$GT$$u20$as$u20$core..clone..Clone$GT$5clone17he8ce559d62a0c4beE.exit", !dbg !5111

bb1.i:                                            ; preds = %start
  tail call void @llvm.trap(), !dbg !5112
  unreachable, !dbg !5112

"_ZN68_$LT$alloc..sync..Arc$LT$T$C$A$GT$$u20$as$u20$core..clone..Clone$GT$5clone17he8ce559d62a0c4beE.exit": ; preds = %start
  ret ptr %self.val, !dbg !5113
}

; futures_util::abortable::AbortHandle::new_pair
; Function Attrs: nonlazybind uwtable
define { ptr, ptr } @_ZN12futures_util9abortable11AbortHandle8new_pair17heb351dd8b2284240E() unnamed_addr #4 personality ptr @rust_eh_personality !dbg !5114 {
start:
  call void @llvm.dbg.declare(metadata ptr poison, metadata !5125, metadata !DIExpression(DW_OP_LLVM_fragment, 328, 56)), !dbg !5131
  call void @llvm.dbg.declare(metadata ptr poison, metadata !5139, metadata !DIExpression(DW_OP_LLVM_fragment, 200, 56)), !dbg !5143
  tail call void @llvm.dbg.value(metadata ptr null, metadata !5139, metadata !DIExpression(DW_OP_LLVM_fragment, 0, 64)), !dbg !5144
  tail call void @llvm.dbg.value(metadata ptr undef, metadata !5139, metadata !DIExpression(DW_OP_LLVM_fragment, 64, 64)), !dbg !5144
  tail call void @llvm.dbg.value(metadata i64 0, metadata !5139, metadata !DIExpression(DW_OP_LLVM_fragment, 128, 64)), !dbg !5144
  tail call void @llvm.dbg.value(metadata i8 0, metadata !5139, metadata !DIExpression(DW_OP_LLVM_fragment, 192, 8)), !dbg !5144
  tail call void @llvm.dbg.value(metadata i64 1, metadata !5125, metadata !DIExpression(DW_OP_LLVM_fragment, 0, 64)), !dbg !5145
  tail call void @llvm.dbg.value(metadata i64 1, metadata !5125, metadata !DIExpression(DW_OP_LLVM_fragment, 64, 64)), !dbg !5145
  tail call void @llvm.dbg.value(metadata ptr null, metadata !5125, metadata !DIExpression(DW_OP_LLVM_fragment, 128, 64)), !dbg !5145
  tail call void @llvm.dbg.value(metadata i64 0, metadata !5125, metadata !DIExpression(DW_OP_LLVM_fragment, 256, 64)), !dbg !5145
  tail call void @llvm.dbg.value(metadata i8 0, metadata !5125, metadata !DIExpression(DW_OP_LLVM_fragment, 320, 8)), !dbg !5145
  call void @llvm.dbg.value(metadata ptr inttoptr (i64 1 to ptr), metadata !1575, metadata !DIExpression()), !dbg !5146
  call void @llvm.dbg.value(metadata i64 48, metadata !1613, metadata !DIExpression()), !dbg !5149
  call void @llvm.dbg.value(metadata i64 8, metadata !1614, metadata !DIExpression()), !dbg !5149
  call void @llvm.dbg.value(metadata i64 8, metadata !1615, metadata !DIExpression(DW_OP_LLVM_fragment, 0, 64)), !dbg !5150
  call void @llvm.dbg.value(metadata i64 8, metadata !1605, metadata !DIExpression(DW_OP_LLVM_fragment, 0, 64)), !dbg !5146
  call void @llvm.dbg.value(metadata i64 48, metadata !1615, metadata !DIExpression(DW_OP_LLVM_fragment, 64, 64)), !dbg !5150
  call void @llvm.dbg.value(metadata i64 48, metadata !1605, metadata !DIExpression(DW_OP_LLVM_fragment, 64, 64)), !dbg !5146
  call void @llvm.dbg.value(metadata i64 8, metadata !1621, metadata !DIExpression(DW_OP_LLVM_fragment, 0, 64)), !dbg !5151
  call void @llvm.dbg.value(metadata i64 48, metadata !1621, metadata !DIExpression(DW_OP_LLVM_fragment, 64, 64)), !dbg !5151
  call void @llvm.dbg.value(metadata ptr undef, metadata !1627, metadata !DIExpression()), !dbg !5151
  call void @llvm.dbg.value(metadata i1 false, metadata !1628, metadata !DIExpression(DW_OP_LLVM_convert, 1, DW_ATE_unsigned, DW_OP_LLVM_convert, 8, DW_ATE_unsigned, DW_OP_stack_value)), !dbg !5151
  call void @llvm.dbg.value(metadata i64 48, metadata !1629, metadata !DIExpression()), !dbg !5153
  call void @llvm.dbg.value(metadata ptr @__rust_no_alloc_shim_is_unstable, metadata !1660, metadata !DIExpression()), !dbg !5154
  call void @llvm.dbg.value(metadata i64 8, metadata !1672, metadata !DIExpression(DW_OP_LLVM_fragment, 0, 64)), !dbg !5157
  call void @llvm.dbg.value(metadata i64 48, metadata !1672, metadata !DIExpression(DW_OP_LLVM_fragment, 64, 64)), !dbg !5157
  %0 = load volatile i8, ptr @__rust_no_alloc_shim_is_unstable, align 1, !dbg !5158, !noalias !5159
  %_0.i.i.i = tail call noalias noundef align 8 dereferenceable_or_null(48) ptr @__rust_alloc(i64 noundef 48, i64 noundef 8) #16, !dbg !5162, !noalias !5159
  %1 = icmp eq ptr %_0.i.i.i, null, !dbg !5163
  br i1 %1, label %bb2.i, label %"_ZN5alloc5boxed12Box$LT$T$GT$3new17h738da1957e46b2b2E.exit", !dbg !5164

bb2.i:                                            ; preds = %start
; call alloc::alloc::handle_alloc_error
  tail call void @_ZN5alloc5alloc18handle_alloc_error17h668ad8a7a2fd77cbE(i64 noundef 8, i64 noundef 48) #24, !dbg !5165
  unreachable, !dbg !5165

"_ZN5alloc5boxed12Box$LT$T$GT$3new17h738da1957e46b2b2E.exit": ; preds = %start
  store i64 1, ptr %_0.i.i.i, align 8, !dbg !5166
  %_12.sroa.4.0._0.i.i.i.sroa_idx = getelementptr inbounds i8, ptr %_0.i.i.i, i64 8, !dbg !5166
  store i64 1, ptr %_12.sroa.4.0._0.i.i.i.sroa_idx, align 8, !dbg !5166
  %_12.sroa.5.0._0.i.i.i.sroa_idx = getelementptr inbounds i8, ptr %_0.i.i.i, i64 16, !dbg !5166
  store ptr null, ptr %_12.sroa.5.0._0.i.i.i.sroa_idx, align 8, !dbg !5166
  %_12.sroa.8.0._0.i.i.i.sroa_idx = getelementptr inbounds i8, ptr %_0.i.i.i, i64 32, !dbg !5166
  store i64 0, ptr %_12.sroa.8.0._0.i.i.i.sroa_idx, align 8, !dbg !5166
  %_12.sroa.9.0._0.i.i.i.sroa_idx = getelementptr inbounds i8, ptr %_0.i.i.i, i64 40, !dbg !5166
  store i8 0, ptr %_12.sroa.9.0._0.i.i.i.sroa_idx, align 8, !dbg !5166
  tail call void @llvm.dbg.value(metadata ptr %_0.i.i.i, metadata !5123, metadata !DIExpression()), !dbg !5167
  call void @llvm.dbg.value(metadata i64 1, metadata !5081, metadata !DIExpression()), !dbg !5168
  call void @llvm.dbg.value(metadata i8 0, metadata !5087, metadata !DIExpression()), !dbg !5168
  call void @llvm.dbg.value(metadata i64 1, metadata !5100, metadata !DIExpression()), !dbg !5171
  call void @llvm.dbg.value(metadata i8 0, metadata !5105, metadata !DIExpression()), !dbg !5171
  call void @llvm.dbg.value(metadata ptr undef, metadata !5096, metadata !DIExpression()), !dbg !5173
  call void @llvm.dbg.value(metadata ptr %_0.i.i.i, metadata !5086, metadata !DIExpression()), !dbg !5168
  call void @llvm.dbg.value(metadata ptr %_0.i.i.i, metadata !5104, metadata !DIExpression()), !dbg !5171
  %2 = atomicrmw add ptr %_0.i.i.i, i64 1 monotonic, align 8, !dbg !5174
  call void @llvm.dbg.value(metadata i64 %2, metadata !5097, metadata !DIExpression()), !dbg !5175
  %_4.i = icmp slt i64 %2, 0, !dbg !5176
  br i1 %_4.i, label %bb1.i, label %bb1, !dbg !5176

bb1.i:                                            ; preds = %"_ZN5alloc5boxed12Box$LT$T$GT$3new17h738da1957e46b2b2E.exit"
  tail call void @llvm.trap(), !dbg !5177
  unreachable, !dbg !5177

bb1:                                              ; preds = %"_ZN5alloc5boxed12Box$LT$T$GT$3new17h738da1957e46b2b2E.exit"
  %3 = insertvalue { ptr, ptr } poison, ptr %_0.i.i.i, 0, !dbg !5178
  %4 = insertvalue { ptr, ptr } %3, ptr %_0.i.i.i, 1, !dbg !5178
  ret { ptr, ptr } %4, !dbg !5178
}

; <futures_util::abortable::Aborted as core::fmt::Display>::fmt
; Function Attrs: nonlazybind uwtable
define noundef zeroext i1 @"_ZN71_$LT$futures_util..abortable..Aborted$u20$as$u20$core..fmt..Display$GT$3fmt17h425add925530c96aE"(ptr noalias nocapture noundef nonnull readonly align 1 %self, ptr noalias nocapture noundef readonly align 8 dereferenceable(64) %f) unnamed_addr #4 !dbg !5179 {
_ZN4core3fmt9Arguments23as_statically_known_str17hb85f1f33b3585dafE.exit.i:
  tail call void @llvm.dbg.value(metadata ptr %self, metadata !5186, metadata !DIExpression()), !dbg !5188
  tail call void @llvm.dbg.value(metadata ptr %f, metadata !5187, metadata !DIExpression()), !dbg !5188
  tail call void @llvm.dbg.value(metadata ptr undef, metadata !5189, metadata !DIExpression()), !dbg !5198
  tail call void @llvm.dbg.value(metadata i64 undef, metadata !5189, metadata !DIExpression()), !dbg !5198
  tail call void @llvm.dbg.value(metadata ptr undef, metadata !5189, metadata !DIExpression()), !dbg !5198
  tail call void @llvm.dbg.value(metadata ptr undef, metadata !5189, metadata !DIExpression()), !dbg !5198
  tail call void @llvm.dbg.value(metadata i64 undef, metadata !5189, metadata !DIExpression()), !dbg !5198
  %0 = getelementptr inbounds i8, ptr %f, i64 32, !dbg !5200
  %f.val = load ptr, ptr %0, align 8, !dbg !5200, !nonnull !27, !noundef !27
  call void @llvm.dbg.value(metadata ptr undef, metadata !5195, metadata !DIExpression()), !dbg !5198
  %1 = getelementptr inbounds i8, ptr %f, i64 40, !dbg !5200
  %f.val1 = load ptr, ptr %1, align 8, !dbg !5200, !nonnull !27, !noundef !27
  call void @llvm.dbg.value(metadata ptr @alloc_023d394817cce2cf3e935c1023202862, metadata !5196, metadata !DIExpression(DW_OP_LLVM_fragment, 0, 64)), !dbg !5201
  call void @llvm.dbg.value(metadata i64 35, metadata !5196, metadata !DIExpression(DW_OP_LLVM_fragment, 64, 64)), !dbg !5201
  %2 = getelementptr inbounds i8, ptr %f.val1, i64 24, !dbg !5202
  %3 = load ptr, ptr %2, align 8, !dbg !5202, !invariant.load !27, !noalias !5203, !nonnull !27
  %4 = tail call noundef zeroext i1 %3(ptr noundef nonnull align 1 %f.val, ptr noalias noundef nonnull readonly align 1 @alloc_023d394817cce2cf3e935c1023202862, i64 noundef 35), !dbg !5202, !noalias !5203
  ret i1 %4, !dbg !5206
}

; futures_util::abortable::AbortHandle::abort
; Function Attrs: nonlazybind uwtable
define void @_ZN12futures_util9abortable11AbortHandle5abort17h0600e30ad6aca943E(ptr noalias nocapture noundef readonly align 8 dereferenceable(8) %self) unnamed_addr #4 !dbg !5207 {
start:
  tail call void @llvm.dbg.value(metadata i8 1, metadata !5214, metadata !DIExpression()), !dbg !5220
  tail call void @llvm.dbg.value(metadata i8 0, metadata !5219, metadata !DIExpression()), !dbg !5220
  tail call void @llvm.dbg.value(metadata ptr %self, metadata !5213, metadata !DIExpression()), !dbg !5222
  tail call void @llvm.dbg.value(metadata ptr %self, metadata !5223, metadata !DIExpression()), !dbg !5232
  tail call void @llvm.dbg.value(metadata ptr %self, metadata !5234, metadata !DIExpression()), !dbg !5244
  tail call void @llvm.dbg.value(metadata ptr %self, metadata !5246, metadata !DIExpression()), !dbg !5256
  %self3 = load ptr, ptr %self, align 8, !dbg !5258, !nonnull !27, !noundef !27
  %0 = getelementptr inbounds i8, ptr %self3, i64 16, !dbg !5233
  tail call void @llvm.dbg.value(metadata ptr %0, metadata !5218, metadata !DIExpression(DW_OP_plus_uconst, 24, DW_OP_stack_value)), !dbg !5220
  tail call void @llvm.dbg.value(metadata ptr %0, metadata !5259, metadata !DIExpression(DW_OP_plus_uconst, 24, DW_OP_stack_value)), !dbg !5263
  %_14 = getelementptr inbounds i8, ptr %self3, i64 40, !dbg !5265
  tail call void @llvm.dbg.value(metadata i8 0, metadata !1286, metadata !DIExpression()), !dbg !5266
  tail call void @llvm.dbg.value(metadata ptr %_14, metadata !1291, metadata !DIExpression()), !dbg !5266
  tail call void @llvm.dbg.value(metadata i8 1, metadata !1292, metadata !DIExpression()), !dbg !5266
  store atomic i8 1, ptr %_14 monotonic, align 1, !dbg !5268
; call futures_core::task::__internal::atomic_waker::AtomicWaker::wake
  tail call void @_ZN12futures_core4task10__internal12atomic_waker11AtomicWaker4wake17h277ca0fccf10913dE(ptr noundef nonnull align 8 %0), !dbg !5269
  ret void, !dbg !5270
}

; futures_util::abortable::AbortHandle::is_aborted
; Function Attrs: mustprogress nofree norecurse nounwind nonlazybind willreturn memory(readwrite, inaccessiblemem: none) uwtable
define noundef zeroext i1 @_ZN12futures_util9abortable11AbortHandle10is_aborted17hc926b06398baff56E(ptr noalias nocapture noundef readonly align 8 dereferenceable(8) %self) unnamed_addr #5 !dbg !5271 {
start:
  tail call void @llvm.dbg.value(metadata i8 0, metadata !5277, metadata !DIExpression()), !dbg !5282
  tail call void @llvm.dbg.value(metadata ptr %self, metadata !5276, metadata !DIExpression()), !dbg !5284
  tail call void @llvm.dbg.value(metadata ptr %self, metadata !5285, metadata !DIExpression()), !dbg !5289
  tail call void @llvm.dbg.value(metadata ptr %self, metadata !5291, metadata !DIExpression()), !dbg !5295
  tail call void @llvm.dbg.value(metadata ptr %self, metadata !5297, metadata !DIExpression()), !dbg !5301
  %self3 = load ptr, ptr %self, align 8, !dbg !5303, !nonnull !27, !noundef !27
  tail call void @llvm.dbg.value(metadata ptr %self3, metadata !5281, metadata !DIExpression(DW_OP_plus_uconst, 16, DW_OP_plus_uconst, 24, DW_OP_stack_value)), !dbg !5282
  tail call void @llvm.dbg.value(metadata ptr %self3, metadata !5304, metadata !DIExpression(DW_OP_plus_uconst, 16, DW_OP_plus_uconst, 24, DW_OP_stack_value)), !dbg !5308
  %_11 = getelementptr inbounds i8, ptr %self3, i64 40, !dbg !5310
  tail call void @llvm.dbg.value(metadata i8 0, metadata !2053, metadata !DIExpression()), !dbg !5311
  tail call void @llvm.dbg.value(metadata ptr %_11, metadata !2058, metadata !DIExpression()), !dbg !5311
  %0 = load atomic i8, ptr %_11 monotonic, align 1, !dbg !5313
  %_0 = icmp ne i8 %0, 0, !dbg !5314
  ret i1 %_0, !dbg !5315
}

; <futures_util::fns::MergeResultFn as core::fmt::Debug>::fmt
; Function Attrs: nonlazybind uwtable
define noundef zeroext i1 @"_ZN69_$LT$futures_util..fns..MergeResultFn$u20$as$u20$core..fmt..Debug$GT$3fmt17hb5ffab0da9d6324aE"(ptr noalias nocapture noundef nonnull readonly align 1 %self, ptr noalias noundef align 8 dereferenceable(64) %f) unnamed_addr #4 !dbg !5316 {
start:
  tail call void @llvm.dbg.value(metadata ptr %self, metadata !5325, metadata !DIExpression()), !dbg !5327
  tail call void @llvm.dbg.value(metadata ptr %f, metadata !5326, metadata !DIExpression()), !dbg !5327
; call core::fmt::Formatter::write_str
  %_0 = tail call noundef zeroext i1 @_ZN4core3fmt9Formatter9write_str17h35be9e09c65db375E(ptr noalias noundef nonnull align 8 dereferenceable(64) %f, ptr noalias noundef nonnull readonly align 1 @alloc_cac792c033a4bf65b5e924cfd5f01ae0, i64 noundef 12), !dbg !5328
  ret i1 %_0, !dbg !5329
}

; Function Attrs: nonlazybind uwtable
declare noundef i32 @rust_eh_personality(i32 noundef, i32 noundef, i64 noundef, ptr noundef, ptr noundef) unnamed_addr #4

; Function Attrs: mustprogress nocallback nofree nosync nounwind speculatable willreturn memory(none)
declare void @llvm.dbg.declare(metadata, metadata, metadata) #9

; Function Attrs: cold noreturn nounwind memory(inaccessiblemem: write)
declare void @llvm.trap() #10

; std::sys::sync::mutex::futex::Mutex::lock_contended
; Function Attrs: cold nonlazybind uwtable
declare void @_ZN3std3sys4sync5mutex5futex5Mutex14lock_contended17h8fd9cbd50b365b92E(ptr noundef nonnull align 4) unnamed_addr #11

; std::panicking::panic_count::is_zero_slow_path
; Function Attrs: cold noinline nonlazybind uwtable
declare noundef zeroext i1 @_ZN3std9panicking11panic_count17is_zero_slow_path17h24de30857bbd803cE() unnamed_addr #12

; std::panicking::rust_panic_with_hook
; Function Attrs: noreturn nonlazybind uwtable
declare void @_ZN3std9panicking20rust_panic_with_hook17h68d2bb7086845887E(ptr noundef nonnull align 1, ptr noalias noundef readonly align 8 dereferenceable(40), ptr noalias noundef readonly align 8 dereferenceable_or_null(48), ptr noalias noundef readonly align 8 dereferenceable(24), i1 noundef zeroext, i1 noundef zeroext) unnamed_addr #7

; <str as core::fmt::Display>::fmt
; Function Attrs: nonlazybind uwtable
declare noundef zeroext i1 @"_ZN42_$LT$str$u20$as$u20$core..fmt..Display$GT$3fmt17h49e1caa39cb6eebbE"(ptr noalias noundef nonnull readonly align 1, i64 noundef, ptr noalias noundef align 8 dereferenceable(64)) unnamed_addr #4

; Function Attrs: mustprogress nocallback nofree nounwind willreturn memory(argmem: readwrite)
declare void @llvm.memcpy.p0.p0.i64(ptr noalias nocapture writeonly, ptr noalias nocapture readonly, i64, i1 immarg) #13

; core::panicking::panic_in_cleanup
; Function Attrs: cold noinline noreturn nounwind nonlazybind uwtable
declare void @_ZN4core9panicking16panic_in_cleanup17h43442956f23e9cbeE() unnamed_addr #14

; core::panicking::panic_fmt
; Function Attrs: cold noinline noreturn nonlazybind uwtable
declare void @_ZN4core9panicking9panic_fmt17h3111a7beccfa68f5E(ptr noalias nocapture noundef readonly align 8 dereferenceable(48), ptr noalias noundef readonly align 8 dereferenceable(24)) unnamed_addr #2

; Function Attrs: mustprogress nocallback nofree nosync nounwind willreturn memory(inaccessiblemem: write)
declare void @llvm.assume(i1 noundef) #15

; core::result::unwrap_failed
; Function Attrs: cold noinline noreturn nonlazybind uwtable
declare void @_ZN4core6result13unwrap_failed17hebd1efddce947a93E(ptr noalias noundef nonnull readonly align 1, i64 noundef, ptr noundef nonnull align 1, ptr noalias noundef readonly align 8 dereferenceable(32), ptr noalias noundef readonly align 8 dereferenceable(24)) unnamed_addr #2

; Function Attrs: nounwind
declare void @llvm.x86.sse2.pause() unnamed_addr #16

; alloc::alloc::handle_alloc_error
; Function Attrs: cold noreturn nonlazybind uwtable
declare void @_ZN5alloc5alloc18handle_alloc_error17h668ad8a7a2fd77cbE(i64 noundef, i64 noundef) unnamed_addr #17

; Function Attrs: nounwind nonlazybind allockind("alloc,uninitialized,aligned") allocsize(0) uwtable
declare noalias noundef ptr @__rust_alloc(i64 noundef, i64 allocalign noundef) unnamed_addr #18

; Function Attrs: nounwind nonlazybind allockind("free") uwtable
declare void @__rust_dealloc(ptr allocptr noundef, i64 noundef, i64 noundef) unnamed_addr #19

; core::fmt::Formatter::debug_struct
; Function Attrs: nonlazybind uwtable
declare void @_ZN4core3fmt9Formatter12debug_struct17hfe55f8660bb7c366E(ptr dead_on_unwind noalias nocapture noundef writable sret([16 x i8]) align 8 dereferenceable(16), ptr noalias noundef align 8 dereferenceable(64), ptr noalias noundef nonnull readonly align 1, i64 noundef) unnamed_addr #4

; core::fmt::builders::DebugStruct::finish_non_exhaustive
; Function Attrs: nonlazybind uwtable
declare noundef zeroext i1 @_ZN4core3fmt8builders11DebugStruct21finish_non_exhaustive17h13844b69093bed9cE(ptr noalias noundef align 8 dereferenceable(16)) unnamed_addr #4

; std::sys::sync::mutex::futex::Mutex::wake
; Function Attrs: cold nonlazybind uwtable
declare void @_ZN3std3sys4sync5mutex5futex5Mutex4wake17hc487312157454c34E(ptr noundef nonnull align 4) unnamed_addr #11

; std::process::abort
; Function Attrs: cold noreturn nonlazybind uwtable
declare void @_ZN3std7process5abort17h302c95d6b8ec09e2E() unnamed_addr #17

; futures_core::task::__internal::atomic_waker::AtomicWaker::wake
; Function Attrs: nonlazybind uwtable
declare void @_ZN12futures_core4task10__internal12atomic_waker11AtomicWaker4wake17h277ca0fccf10913dE(ptr noundef nonnull align 8) unnamed_addr #4

; core::fmt::Formatter::write_str
; Function Attrs: nonlazybind uwtable
declare noundef zeroext i1 @_ZN4core3fmt9Formatter9write_str17h35be9e09c65db375E(ptr noalias noundef align 8 dereferenceable(64), ptr noalias noundef nonnull readonly align 1, i64 noundef) unnamed_addr #4

; Function Attrs: mustprogress nocallback nofree nosync nounwind willreturn memory(argmem: readwrite)
declare void @llvm.lifetime.start.p0(i64 immarg, ptr nocapture) #20

; Function Attrs: mustprogress nocallback nofree nosync nounwind willreturn memory(argmem: readwrite)
declare void @llvm.lifetime.end.p0(i64 immarg, ptr nocapture) #20

; Function Attrs: nocallback nofree nosync nounwind speculatable willreturn memory(none)
declare void @llvm.dbg.value(metadata, metadata, metadata) #21

; Function Attrs: nocallback nofree nosync nounwind willreturn memory(inaccessiblemem: readwrite)
declare void @llvm.experimental.noalias.scope.decl(metadata) #22

; Function Attrs: nocallback nofree nounwind willreturn memory(argmem: write)
declare void @llvm.memset.p0.i64(ptr nocapture writeonly, i8, i64, i1 immarg) #23

attributes #0 = { mustprogress nofree norecurse nosync nounwind nonlazybind willreturn memory(none) uwtable "probe-stack"="inline-asm" "target-cpu"="x86-64" }
attributes #1 = { noinline noreturn nonlazybind uwtable "probe-stack"="inline-asm" "target-cpu"="x86-64" }
attributes #2 = { cold noinline noreturn nonlazybind uwtable "probe-stack"="inline-asm" "target-cpu"="x86-64" }
attributes #3 = { inlinehint noreturn nonlazybind uwtable "probe-stack"="inline-asm" "target-cpu"="x86-64" }
attributes #4 = { nonlazybind uwtable "probe-stack"="inline-asm" "target-cpu"="x86-64" }
attributes #5 = { mustprogress nofree norecurse nounwind nonlazybind willreturn memory(readwrite, inaccessiblemem: none) uwtable "probe-stack"="inline-asm" "target-cpu"="x86-64" }
attributes #6 = { nofree norecurse nounwind nonlazybind memory(readwrite, inaccessiblemem: none) uwtable "probe-stack"="inline-asm" "target-cpu"="x86-64" }
attributes #7 = { noreturn nonlazybind uwtable "probe-stack"="inline-asm" "target-cpu"="x86-64" }
attributes #8 = { nounwind nonlazybind memory(readwrite, inaccessiblemem: write) uwtable "probe-stack"="inline-asm" "target-cpu"="x86-64" }
attributes #9 = { mustprogress nocallback nofree nosync nounwind speculatable willreturn memory(none) }
attributes #10 = { cold noreturn nounwind memory(inaccessiblemem: write) }
attributes #11 = { cold nonlazybind uwtable "probe-stack"="inline-asm" "target-cpu"="x86-64" }
attributes #12 = { cold noinline nonlazybind uwtable "probe-stack"="inline-asm" "target-cpu"="x86-64" }
attributes #13 = { mustprogress nocallback nofree nounwind willreturn memory(argmem: readwrite) }
attributes #14 = { cold noinline noreturn nounwind nonlazybind uwtable "probe-stack"="inline-asm" "target-cpu"="x86-64" }
attributes #15 = { mustprogress nocallback nofree nosync nounwind willreturn memory(inaccessiblemem: write) }
attributes #16 = { nounwind }
attributes #17 = { cold noreturn nonlazybind uwtable "probe-stack"="inline-asm" "target-cpu"="x86-64" }
attributes #18 = { nounwind nonlazybind allockind("alloc,uninitialized,aligned") allocsize(0) uwtable "alloc-family"="__rust_alloc" "probe-stack"="inline-asm" "target-cpu"="x86-64" }
attributes #19 = { nounwind nonlazybind allockind("free") uwtable "alloc-family"="__rust_alloc" "probe-stack"="inline-asm" "target-cpu"="x86-64" }
attributes #20 = { mustprogress nocallback nofree nosync nounwind willreturn memory(argmem: readwrite) }
attributes #21 = { nocallback nofree nosync nounwind speculatable willreturn memory(none) }
attributes #22 = { nocallback nofree nosync nounwind willreturn memory(inaccessiblemem: readwrite) }
attributes #23 = { nocallback nofree nounwind willreturn memory(argmem: write) }
attributes #24 = { noreturn }
attributes #25 = { cold noreturn nounwind }
attributes #26 = { cold }

!llvm.module.flags = !{!220, !221, !222, !223}
!llvm.ident = !{!224}
!llvm.dbg.cu = !{!225}

!0 = !DIGlobalVariableExpression(var: !1, expr: !DIExpression())
!1 = distinct !DIGlobalVariable(name: "<std::panicking::begin_panic::Payload<&str> as core::panic::PanicPayload>::{vtable}", scope: null, file: !2, type: !3, isLocal: true, isDefinition: true)
!2 = !DIFile(filename: "<unknown>", directory: "")
!3 = !DICompositeType(tag: DW_TAG_structure_type, name: "<std::panicking::begin_panic::Payload<&str> as core::panic::PanicPayload>::{vtable_type}", file: !2, size: 320, align: 64, flags: DIFlagArtificial, elements: !4, vtableHolder: !13, templateParams: !27, identifier: "4d8b3c0140605c50495b45d94d6d5a84")
!4 = !{!5, !8, !10, !11, !12}
!5 = !DIDerivedType(tag: DW_TAG_member, name: "drop_in_place", scope: !3, file: !2, baseType: !6, size: 64, align: 64)
!6 = !DIDerivedType(tag: DW_TAG_pointer_type, name: "*const ()", baseType: !7, size: 64, align: 64, dwarfAddressSpace: 0)
!7 = !DIBasicType(name: "()", encoding: DW_ATE_unsigned)
!8 = !DIDerivedType(tag: DW_TAG_member, name: "size", scope: !3, file: !2, baseType: !9, size: 64, align: 64, offset: 64)
!9 = !DIBasicType(name: "usize", size: 64, encoding: DW_ATE_unsigned)
!10 = !DIDerivedType(tag: DW_TAG_member, name: "align", scope: !3, file: !2, baseType: !9, size: 64, align: 64, offset: 128)
!11 = !DIDerivedType(tag: DW_TAG_member, name: "__method3", scope: !3, file: !2, baseType: !6, size: 64, align: 64, offset: 192)
!12 = !DIDerivedType(tag: DW_TAG_member, name: "__method4", scope: !3, file: !2, baseType: !6, size: 64, align: 64, offset: 256)
!13 = !DICompositeType(tag: DW_TAG_structure_type, name: "Payload<&str>", scope: !14, file: !2, size: 128, align: 64, flags: DIFlagProtected, elements: !17, templateParams: !42, identifier: "4d4e0a9d220d367280f5a92851d927cf")
!14 = !DINamespace(name: "begin_panic", scope: !15)
!15 = !DINamespace(name: "panicking", scope: !16)
!16 = !DINamespace(name: "std", scope: null)
!17 = !{!18}
!18 = !DIDerivedType(tag: DW_TAG_member, name: "inner", scope: !13, file: !2, baseType: !19, size: 128, align: 64, flags: DIFlagProtected)
!19 = !DICompositeType(tag: DW_TAG_structure_type, name: "Option<&str>", scope: !20, file: !2, size: 128, align: 64, flags: DIFlagPublic, elements: !22, templateParams: !27, identifier: "c9cc8e2c9bc8d3061e54de437c9b5882")
!20 = !DINamespace(name: "option", scope: !21)
!21 = !DINamespace(name: "core", scope: null)
!22 = !{!23}
!23 = !DICompositeType(tag: DW_TAG_variant_part, scope: !19, file: !2, size: 128, align: 64, elements: !24, templateParams: !27, identifier: "dc91c89dee9d03b772ff0b7d0b60a9cb", discriminator: !40)
!24 = !{!25, !36}
!25 = !DIDerivedType(tag: DW_TAG_member, name: "None", scope: !23, file: !2, baseType: !26, size: 128, align: 64, extraData: i128 0)
!26 = !DICompositeType(tag: DW_TAG_structure_type, name: "None", scope: !19, file: !2, size: 128, align: 64, flags: DIFlagPublic, elements: !27, templateParams: !28, identifier: "20871c480156d021cbbc4b2eec20a35c")
!27 = !{}
!28 = !{!29}
!29 = !DITemplateTypeParameter(name: "T", type: !30)
!30 = !DICompositeType(tag: DW_TAG_structure_type, name: "&str", file: !2, size: 128, align: 64, elements: !31, templateParams: !27, identifier: "9277eecd40495f85161460476aacc992")
!31 = !{!32, !35}
!32 = !DIDerivedType(tag: DW_TAG_member, name: "data_ptr", scope: !30, file: !2, baseType: !33, size: 64, align: 64)
!33 = !DIDerivedType(tag: DW_TAG_pointer_type, baseType: !34, size: 64, align: 64, dwarfAddressSpace: 0)
!34 = !DIBasicType(name: "u8", size: 8, encoding: DW_ATE_unsigned)
!35 = !DIDerivedType(tag: DW_TAG_member, name: "length", scope: !30, file: !2, baseType: !9, size: 64, align: 64, offset: 64)
!36 = !DIDerivedType(tag: DW_TAG_member, name: "Some", scope: !23, file: !2, baseType: !37, size: 128, align: 64)
!37 = !DICompositeType(tag: DW_TAG_structure_type, name: "Some", scope: !19, file: !2, size: 128, align: 64, flags: DIFlagPublic, elements: !38, templateParams: !28, identifier: "2bd48e68865dce7a72b4a9887ea344e7")
!38 = !{!39}
!39 = !DIDerivedType(tag: DW_TAG_member, name: "__0", scope: !37, file: !2, baseType: !30, size: 128, align: 64, flags: DIFlagPublic)
!40 = !DIDerivedType(tag: DW_TAG_member, scope: !19, file: !2, baseType: !41, size: 64, align: 64, flags: DIFlagArtificial)
!41 = !DIBasicType(name: "u64", size: 64, encoding: DW_ATE_unsigned)
!42 = !{!43}
!43 = !DITemplateTypeParameter(name: "A", type: !30)
!44 = !DIGlobalVariableExpression(var: !45, expr: !DIExpression())
!45 = distinct !DIGlobalVariable(name: "<std::sync::poison::PoisonError<std::sync::mutex::MutexGuard<core::option::Option<slab::Slab<core::option::Option<core::task::wake::Waker>>>>> as core::fmt::Debug>::{vtable}", scope: null, file: !2, type: !46, isLocal: true, isDefinition: true)
!46 = !DICompositeType(tag: DW_TAG_structure_type, name: "<std::sync::poison::PoisonError<std::sync::mutex::MutexGuard<core::option::Option<slab::Slab<core::option::Option<core::task::wake::Waker>>>>> as core::fmt::Debug>::{vtable_type}", file: !2, size: 256, align: 64, flags: DIFlagArtificial, elements: !47, vtableHolder: !52, templateParams: !27, identifier: "1e73eee341a91a863d991554f5eb294f")
!47 = !{!48, !49, !50, !51}
!48 = !DIDerivedType(tag: DW_TAG_member, name: "drop_in_place", scope: !46, file: !2, baseType: !6, size: 64, align: 64)
!49 = !DIDerivedType(tag: DW_TAG_member, name: "size", scope: !46, file: !2, baseType: !9, size: 64, align: 64, offset: 64)
!50 = !DIDerivedType(tag: DW_TAG_member, name: "align", scope: !46, file: !2, baseType: !9, size: 64, align: 64, offset: 128)
!51 = !DIDerivedType(tag: DW_TAG_member, name: "__method3", scope: !46, file: !2, baseType: !6, size: 64, align: 64, offset: 192)
!52 = !DICompositeType(tag: DW_TAG_structure_type, name: "PoisonError<std::sync::mutex::MutexGuard<core::option::Option<slab::Slab<core::option::Option<core::task::wake::Waker>>>>>", scope: !53, file: !2, size: 128, align: 64, flags: DIFlagPublic, elements: !55, templateParams: !210, identifier: "d70a328eb1c91c79a680758509db3081")
!53 = !DINamespace(name: "poison", scope: !54)
!54 = !DINamespace(name: "sync", scope: !16)
!55 = !{!56}
!56 = !DIDerivedType(tag: DW_TAG_member, name: "guard", scope: !52, file: !2, baseType: !57, size: 128, align: 64, flags: DIFlagPrivate)
!57 = !DICompositeType(tag: DW_TAG_structure_type, name: "MutexGuard<core::option::Option<slab::Slab<core::option::Option<core::task::wake::Waker>>>>", scope: !58, file: !2, size: 128, align: 64, flags: DIFlagPublic, elements: !59, templateParams: !203, identifier: "86a299b769549eb8a2c4b9b2f027aa1f")
!58 = !DINamespace(name: "mutex", scope: !54)
!59 = !{!60, !205}
!60 = !DIDerivedType(tag: DW_TAG_member, name: "lock", scope: !57, file: !2, baseType: !61, size: 64, align: 64, flags: DIFlagPrivate)
!61 = !DIDerivedType(tag: DW_TAG_pointer_type, name: "&std::sync::mutex::Mutex<core::option::Option<slab::Slab<core::option::Option<core::task::wake::Waker>>>>", baseType: !62, size: 64, align: 64, dwarfAddressSpace: 0)
!62 = !DICompositeType(tag: DW_TAG_structure_type, name: "Mutex<core::option::Option<slab::Slab<core::option::Option<core::task::wake::Waker>>>>", scope: !58, file: !2, size: 384, align: 64, flags: DIFlagPublic, elements: !63, templateParams: !203, identifier: "cd43bea6b15cf511ce3c69df60bde21b")
!63 = !{!64, !84, !96}
!64 = !DIDerivedType(tag: DW_TAG_member, name: "inner", scope: !62, file: !2, baseType: !65, size: 32, align: 32, flags: DIFlagPrivate)
!65 = !DICompositeType(tag: DW_TAG_structure_type, name: "Mutex", scope: !66, file: !2, size: 32, align: 32, flags: DIFlagPublic, elements: !70, templateParams: !27, identifier: "d3cc6cb8dfa2f1c5acff260507e3a423")
!66 = !DINamespace(name: "futex", scope: !67)
!67 = !DINamespace(name: "mutex", scope: !68)
!68 = !DINamespace(name: "sync", scope: !69)
!69 = !DINamespace(name: "sys", scope: !16)
!70 = !{!71}
!71 = !DIDerivedType(tag: DW_TAG_member, name: "futex", scope: !65, file: !2, baseType: !72, size: 32, align: 32, flags: DIFlagPrivate)
!72 = !DICompositeType(tag: DW_TAG_structure_type, name: "AtomicU32", scope: !73, file: !2, size: 32, align: 32, flags: DIFlagPublic, elements: !75, templateParams: !27, identifier: "ee8380a54dbd8a3323fad416b629cb4c")
!73 = !DINamespace(name: "atomic", scope: !74)
!74 = !DINamespace(name: "sync", scope: !21)
!75 = !{!76}
!76 = !DIDerivedType(tag: DW_TAG_member, name: "v", scope: !72, file: !2, baseType: !77, size: 32, align: 32, flags: DIFlagPrivate)
!77 = !DICompositeType(tag: DW_TAG_structure_type, name: "UnsafeCell<u32>", scope: !78, file: !2, size: 32, align: 32, flags: DIFlagPublic, elements: !79, templateParams: !82, identifier: "96b01ddd9a02ff76f2ea3ae35bb7e982")
!78 = !DINamespace(name: "cell", scope: !21)
!79 = !{!80}
!80 = !DIDerivedType(tag: DW_TAG_member, name: "value", scope: !77, file: !2, baseType: !81, size: 32, align: 32, flags: DIFlagPrivate)
!81 = !DIBasicType(name: "u32", size: 32, encoding: DW_ATE_unsigned)
!82 = !{!83}
!83 = !DITemplateTypeParameter(name: "T", type: !81)
!84 = !DIDerivedType(tag: DW_TAG_member, name: "poison", scope: !62, file: !2, baseType: !85, size: 8, align: 8, offset: 32, flags: DIFlagPrivate)
!85 = !DICompositeType(tag: DW_TAG_structure_type, name: "Flag", scope: !53, file: !2, size: 8, align: 8, flags: DIFlagPublic, elements: !86, templateParams: !27, identifier: "f02169750979dbd37c1ab4c868f04f71")
!86 = !{!87}
!87 = !DIDerivedType(tag: DW_TAG_member, name: "failed", scope: !85, file: !2, baseType: !88, size: 8, align: 8, flags: DIFlagPrivate)
!88 = !DICompositeType(tag: DW_TAG_structure_type, name: "AtomicBool", scope: !73, file: !2, size: 8, align: 8, flags: DIFlagPublic, elements: !89, templateParams: !27, identifier: "e355366fff81569ecf8136dc5af7d4f7")
!89 = !{!90}
!90 = !DIDerivedType(tag: DW_TAG_member, name: "v", scope: !88, file: !2, baseType: !91, size: 8, align: 8, flags: DIFlagPrivate)
!91 = !DICompositeType(tag: DW_TAG_structure_type, name: "UnsafeCell<u8>", scope: !78, file: !2, size: 8, align: 8, flags: DIFlagPublic, elements: !92, templateParams: !94, identifier: "3d60124e2ea80f49fea4c31f0e521ce7")
!92 = !{!93}
!93 = !DIDerivedType(tag: DW_TAG_member, name: "value", scope: !91, file: !2, baseType: !34, size: 8, align: 8, flags: DIFlagPrivate)
!94 = !{!95}
!95 = !DITemplateTypeParameter(name: "T", type: !34)
!96 = !DIDerivedType(tag: DW_TAG_member, name: "data", scope: !62, file: !2, baseType: !97, size: 320, align: 64, offset: 64, flags: DIFlagPrivate)
!97 = !DICompositeType(tag: DW_TAG_structure_type, name: "UnsafeCell<core::option::Option<slab::Slab<core::option::Option<core::task::wake::Waker>>>>", scope: !78, file: !2, size: 320, align: 64, flags: DIFlagPublic, elements: !98, templateParams: !203, identifier: "a05eefaaa75c07fed764c2efa0b6083")
!98 = !{!99}
!99 = !DIDerivedType(tag: DW_TAG_member, name: "value", scope: !97, file: !2, baseType: !100, size: 320, align: 64, flags: DIFlagPrivate)
!100 = !DICompositeType(tag: DW_TAG_structure_type, name: "Option<slab::Slab<core::option::Option<core::task::wake::Waker>>>", scope: !20, file: !2, size: 320, align: 64, flags: DIFlagPublic, elements: !101, templateParams: !27, identifier: "5f0bb2c610b2389f650ab4272d454750")
!101 = !{!102}
!102 = !DICompositeType(tag: DW_TAG_variant_part, scope: !100, file: !2, size: 320, align: 64, elements: !103, templateParams: !27, identifier: "48153507bc18a5e66a4592abe2d8f5", discriminator: !202)
!103 = !{!104, !198}
!104 = !DIDerivedType(tag: DW_TAG_member, name: "None", scope: !102, file: !2, baseType: !105, size: 320, align: 64, extraData: i128 9223372036854775808)
!105 = !DICompositeType(tag: DW_TAG_structure_type, name: "None", scope: !100, file: !2, size: 320, align: 64, flags: DIFlagPublic, elements: !27, templateParams: !106, identifier: "2817bb094fc98f7b3fd0842ecd7485c")
!106 = !{!107}
!107 = !DITemplateTypeParameter(name: "T", type: !108)
!108 = !DICompositeType(tag: DW_TAG_structure_type, name: "Slab<core::option::Option<core::task::wake::Waker>>", scope: !109, file: !2, size: 320, align: 64, flags: DIFlagPublic, elements: !110, templateParams: !139, identifier: "164c75fb0fc14a34a102a46612863fda")
!109 = !DINamespace(name: "slab", scope: null)
!110 = !{!111, !196, !197}
!111 = !DIDerivedType(tag: DW_TAG_member, name: "entries", scope: !108, file: !2, baseType: !112, size: 192, align: 64, flags: DIFlagPrivate)
!112 = !DICompositeType(tag: DW_TAG_structure_type, name: "Vec<slab::Entry<core::option::Option<core::task::wake::Waker>>, alloc::alloc::Global>", scope: !113, file: !2, size: 192, align: 64, flags: DIFlagPublic, elements: !115, templateParams: !193, identifier: "2984134d7d3225067f68d45feed19b78")
!113 = !DINamespace(name: "vec", scope: !114)
!114 = !DINamespace(name: "alloc", scope: null)
!115 = !{!116, !195}
!116 = !DIDerivedType(tag: DW_TAG_member, name: "buf", scope: !112, file: !2, baseType: !117, size: 128, align: 64, flags: DIFlagPrivate)
!117 = !DICompositeType(tag: DW_TAG_structure_type, name: "RawVec<slab::Entry<core::option::Option<core::task::wake::Waker>>, alloc::alloc::Global>", scope: !118, file: !2, size: 128, align: 64, flags: DIFlagProtected, elements: !119, templateParams: !193, identifier: "9c5ac50ed7db8e338391a0ce9c167c08")
!118 = !DINamespace(name: "raw_vec", scope: !114)
!119 = !{!120, !186, !190}
!120 = !DIDerivedType(tag: DW_TAG_member, name: "ptr", scope: !117, file: !2, baseType: !121, size: 64, align: 64, offset: 64, flags: DIFlagPrivate)
!121 = !DICompositeType(tag: DW_TAG_structure_type, name: "Unique<slab::Entry<core::option::Option<core::task::wake::Waker>>>", scope: !122, file: !2, size: 64, align: 64, flags: DIFlagPublic, elements: !124, templateParams: !181, identifier: "ef8dd6e846db0f3baa266ebbbd46f9a6")
!122 = !DINamespace(name: "unique", scope: !123)
!123 = !DINamespace(name: "ptr", scope: !21)
!124 = !{!125, !183}
!125 = !DIDerivedType(tag: DW_TAG_member, name: "pointer", scope: !121, file: !2, baseType: !126, size: 64, align: 64, flags: DIFlagPrivate)
!126 = !DICompositeType(tag: DW_TAG_structure_type, name: "NonNull<slab::Entry<core::option::Option<core::task::wake::Waker>>>", scope: !127, file: !2, size: 64, align: 64, flags: DIFlagPublic, elements: !128, templateParams: !181, identifier: "871aa4b73c6492e8c25d6fe6d537ba3c")
!127 = !DINamespace(name: "non_null", scope: !123)
!128 = !{!129}
!129 = !DIDerivedType(tag: DW_TAG_member, name: "pointer", scope: !126, file: !2, baseType: !130, size: 64, align: 64, flags: DIFlagPrivate)
!130 = !DIDerivedType(tag: DW_TAG_pointer_type, name: "*const slab::Entry<core::option::Option<core::task::wake::Waker>>", baseType: !131, size: 64, align: 64, dwarfAddressSpace: 0)
!131 = !DICompositeType(tag: DW_TAG_structure_type, name: "Entry<core::option::Option<core::task::wake::Waker>>", scope: !109, file: !2, size: 192, align: 64, flags: DIFlagPrivate, elements: !132, templateParams: !27, identifier: "dba5a182387037feede16c3779be426")
!132 = !{!133}
!133 = !DICompositeType(tag: DW_TAG_variant_part, scope: !131, file: !2, size: 192, align: 64, elements: !134, templateParams: !27, identifier: "6c8429f9e5d10db842c0b161ee131c19", discriminator: !180)
!134 = !{!135, !176}
!135 = !DIDerivedType(tag: DW_TAG_member, name: "Vacant", scope: !133, file: !2, baseType: !136, size: 192, align: 64, extraData: i128 0)
!136 = !DICompositeType(tag: DW_TAG_structure_type, name: "Vacant", scope: !131, file: !2, size: 192, align: 64, flags: DIFlagPrivate, elements: !137, templateParams: !139, identifier: "7a3fdceafe0308e12447f767b5a53dad")
!137 = !{!138}
!138 = !DIDerivedType(tag: DW_TAG_member, name: "__0", scope: !136, file: !2, baseType: !9, size: 64, align: 64, offset: 64, flags: DIFlagPrivate)
!139 = !{!140}
!140 = !DITemplateTypeParameter(name: "T", type: !141)
!141 = !DICompositeType(tag: DW_TAG_structure_type, name: "Option<core::task::wake::Waker>", scope: !20, file: !2, size: 128, align: 64, flags: DIFlagPublic, elements: !142, templateParams: !27, identifier: "fdf92b2a7f95e10b1f6af3c28f571177")
!142 = !{!143}
!143 = !DICompositeType(tag: DW_TAG_variant_part, scope: !141, file: !2, size: 128, align: 64, elements: !144, templateParams: !27, identifier: "79b709c92f110a7567e6b4260f3fffd1", discriminator: !175)
!144 = !{!145, !171}
!145 = !DIDerivedType(tag: DW_TAG_member, name: "None", scope: !143, file: !2, baseType: !146, size: 128, align: 64, extraData: i128 0)
!146 = !DICompositeType(tag: DW_TAG_structure_type, name: "None", scope: !141, file: !2, size: 128, align: 64, flags: DIFlagPublic, elements: !27, templateParams: !147, identifier: "e3b1b04ced3820bf6ad9a1cf1a84b270")
!147 = !{!148}
!148 = !DITemplateTypeParameter(name: "T", type: !149)
!149 = !DICompositeType(tag: DW_TAG_structure_type, name: "Waker", scope: !150, file: !2, size: 128, align: 64, flags: DIFlagPublic, elements: !152, templateParams: !27, identifier: "ec03eb30528f12f1717f729e65eac0d1")
!150 = !DINamespace(name: "wake", scope: !151)
!151 = !DINamespace(name: "task", scope: !21)
!152 = !{!153}
!153 = !DIDerivedType(tag: DW_TAG_member, name: "waker", scope: !149, file: !2, baseType: !154, size: 128, align: 64, flags: DIFlagPrivate)
!154 = !DICompositeType(tag: DW_TAG_structure_type, name: "RawWaker", scope: !150, file: !2, size: 128, align: 64, flags: DIFlagPublic, elements: !155, templateParams: !27, identifier: "212c6d54ee18011b525ba8a27d92578c")
!155 = !{!156, !157}
!156 = !DIDerivedType(tag: DW_TAG_member, name: "data", scope: !154, file: !2, baseType: !6, size: 64, align: 64, offset: 64, flags: DIFlagPrivate)
!157 = !DIDerivedType(tag: DW_TAG_member, name: "vtable", scope: !154, file: !2, baseType: !158, size: 64, align: 64, flags: DIFlagPrivate)
!158 = !DIDerivedType(tag: DW_TAG_pointer_type, name: "&core::task::wake::RawWakerVTable", baseType: !159, size: 64, align: 64, dwarfAddressSpace: 0)
!159 = !DICompositeType(tag: DW_TAG_structure_type, name: "RawWakerVTable", scope: !150, file: !2, size: 256, align: 64, flags: DIFlagPublic, elements: !160, templateParams: !27, identifier: "f4abbf7758eb3384651691936bf57e5b")
!160 = !{!161, !165, !169, !170}
!161 = !DIDerivedType(tag: DW_TAG_member, name: "clone", scope: !159, file: !2, baseType: !162, size: 64, align: 64, flags: DIFlagPrivate)
!162 = !DIDerivedType(tag: DW_TAG_pointer_type, name: "unsafe fn(*const ()) -> core::task::wake::RawWaker", baseType: !163, size: 64, align: 64, dwarfAddressSpace: 0)
!163 = !DISubroutineType(types: !164)
!164 = !{!154, !6}
!165 = !DIDerivedType(tag: DW_TAG_member, name: "wake", scope: !159, file: !2, baseType: !166, size: 64, align: 64, offset: 64, flags: DIFlagPrivate)
!166 = !DIDerivedType(tag: DW_TAG_pointer_type, name: "unsafe fn(*const ())", baseType: !167, size: 64, align: 64, dwarfAddressSpace: 0)
!167 = !DISubroutineType(types: !168)
!168 = !{null, !6}
!169 = !DIDerivedType(tag: DW_TAG_member, name: "wake_by_ref", scope: !159, file: !2, baseType: !166, size: 64, align: 64, offset: 128, flags: DIFlagPrivate)
!170 = !DIDerivedType(tag: DW_TAG_member, name: "drop", scope: !159, file: !2, baseType: !166, size: 64, align: 64, offset: 192, flags: DIFlagPrivate)
!171 = !DIDerivedType(tag: DW_TAG_member, name: "Some", scope: !143, file: !2, baseType: !172, size: 128, align: 64)
!172 = !DICompositeType(tag: DW_TAG_structure_type, name: "Some", scope: !141, file: !2, size: 128, align: 64, flags: DIFlagPublic, elements: !173, templateParams: !147, identifier: "f45b850959d020985d588404342ce426")
!173 = !{!174}
!174 = !DIDerivedType(tag: DW_TAG_member, name: "__0", scope: !172, file: !2, baseType: !149, size: 128, align: 64, flags: DIFlagPublic)
!175 = !DIDerivedType(tag: DW_TAG_member, scope: !141, file: !2, baseType: !41, size: 64, align: 64, flags: DIFlagArtificial)
!176 = !DIDerivedType(tag: DW_TAG_member, name: "Occupied", scope: !133, file: !2, baseType: !177, size: 192, align: 64, extraData: i128 1)
!177 = !DICompositeType(tag: DW_TAG_structure_type, name: "Occupied", scope: !131, file: !2, size: 192, align: 64, flags: DIFlagPrivate, elements: !178, templateParams: !139, identifier: "44a5481899ff703fc0bc641cc2e5c22a")
!178 = !{!179}
!179 = !DIDerivedType(tag: DW_TAG_member, name: "__0", scope: !177, file: !2, baseType: !141, size: 128, align: 64, offset: 64, flags: DIFlagPrivate)
!180 = !DIDerivedType(tag: DW_TAG_member, scope: !131, file: !2, baseType: !41, size: 64, align: 64, flags: DIFlagArtificial)
!181 = !{!182}
!182 = !DITemplateTypeParameter(name: "T", type: !131)
!183 = !DIDerivedType(tag: DW_TAG_member, name: "_marker", scope: !121, file: !2, baseType: !184, align: 8, offset: 64, flags: DIFlagPrivate)
!184 = !DICompositeType(tag: DW_TAG_structure_type, name: "PhantomData<slab::Entry<core::option::Option<core::task::wake::Waker>>>", scope: !185, file: !2, align: 8, flags: DIFlagPublic, elements: !27, templateParams: !181, identifier: "72a74fdc8618b2746ab5800ff2005f19")
!185 = !DINamespace(name: "marker", scope: !21)
!186 = !DIDerivedType(tag: DW_TAG_member, name: "cap", scope: !117, file: !2, baseType: !187, size: 64, align: 64, flags: DIFlagPrivate)
!187 = !DICompositeType(tag: DW_TAG_structure_type, name: "Cap", scope: !118, file: !2, size: 64, align: 64, flags: DIFlagPrivate, elements: !188, templateParams: !27, identifier: "62de598dd28eaf1c7c0f61ca013e23b")
!188 = !{!189}
!189 = !DIDerivedType(tag: DW_TAG_member, name: "__0", scope: !187, file: !2, baseType: !9, size: 64, align: 64, flags: DIFlagPrivate)
