; ModuleID = 'piper.5e75ad7991b6c340-cgu.0'
source_filename = "piper.5e75ad7991b6c340-cgu.0"
target datalayout = "e-m:e-p270:32:32-p271:32:32-p272:64:64-i64:64-i128:128-f80:128-n8:16:32:64-S128"
target triple = "x86_64-unknown-linux-gnu"

%"std::sys::thread_local::fast_local::lazy::Storage<core::cell::Cell<fastrand::Rng>, !>" = type { %"core::cell::UnsafeCell<std::sys::thread_local::fast_local::lazy::State<core::cell::Cell<fastrand::Rng>, !>>" }
%"core::cell::UnsafeCell<std::sys::thread_local::fast_local::lazy::State<core::cell::Cell<fastrand::Rng>, !>>" = type { %"std::sys::thread_local::fast_local::lazy::State<core::cell::Cell<fastrand::Rng>, !>" }
%"std::sys::thread_local::fast_local::lazy::State<core::cell::Cell<fastrand::Rng>, !>" = type { i64, [1 x i64] }

@vtable.0 = private constant <{ [24 x i8], ptr, ptr }> <{ [24 x i8] c"\00\00\00\00\00\00\00\00\10\00\00\00\00\00\00\00\08\00\00\00\00\00\00\00", ptr @"_ZN91_$LT$std..panicking..begin_panic..Payload$LT$A$GT$$u20$as$u20$core..panic..PanicPayload$GT$8take_box17h7553b8044f95222dE", ptr @"_ZN91_$LT$std..panicking..begin_panic..Payload$LT$A$GT$$u20$as$u20$core..panic..PanicPayload$GT$3get17hf75ad82e2d27d0ebE" }>, align 8, !dbg !0
@__rust_no_alloc_shim_is_unstable = external global i8
@"_ZN8fastrand10global_rng3RNG29_$u7b$$u7b$constant$u7d$$u7d$28_$u7b$$u7b$closure$u7d$$u7d$3VAL17hb02191bd1770c3b2E" = external thread_local local_unnamed_addr global %"std::sys::thread_local::fast_local::lazy::Storage<core::cell::Cell<fastrand::Rng>, !>"
@vtable.2 = private constant <{ [24 x i8], ptr }> <{ [24 x i8] c"\00\00\00\00\00\00\00\00\10\00\00\00\00\00\00\00\08\00\00\00\00\00\00\00", ptr @"_ZN36_$LT$T$u20$as$u20$core..any..Any$GT$7type_id17h9624d7ff18d7be7dE" }>, align 8, !dbg !44
@alloc_a3d77a5b6f69cc366e2f444cb351d032 = private unnamed_addr constant <{ [25 x i8] }> <{ [25 x i8] c"capacity must be positive" }>, align 1
@alloc_494ee05a220f4ffce0311471d486232e = private unnamed_addr constant <{ [89 x i8] }> <{ [89 x i8] c"/home/arsalan/.cargo/registry/src/index.crates.io-1949cf8c6b5b557f/piper-0.2.1/src/lib.rs" }>, align 1
@alloc_5ec0a45a2ed7f212d5b6aff2f033e069 = private unnamed_addr constant <{ ptr, [16 x i8] }> <{ ptr @alloc_494ee05a220f4ffce0311471d486232e, [16 x i8] c"Y\00\00\00\00\00\00\00\DB\00\00\00\05\00\00\00" }>, align 8
@alloc_7716d9dea057a319abce873f741ad62b = private unnamed_addr constant <{ [21 x i8] }> <{ [21 x i8] c"capacity is too large" }>, align 1
@alloc_cd5f09c0a2d76e4b94d43e851791656b = private unnamed_addr constant <{ ptr, [16 x i8] }> <{ ptr @alloc_494ee05a220f4ffce0311471d486232e, [16 x i8] c"Y\00\00\00\00\00\00\00\DC\00\00\00\05\00\00\00" }>, align 8

; <T as core::any::Any>::type_id
; Function Attrs: mustprogress nofree norecurse nosync nounwind nonlazybind willreturn memory(none) uwtable
define internal { i64, i64 } @"_ZN36_$LT$T$u20$as$u20$core..any..Any$GT$7type_id17h9624d7ff18d7be7dE"(ptr noalias nocapture readonly align 8 %self) unnamed_addr #0 !dbg !214 {
start:
  tail call void @llvm.dbg.value(metadata ptr poison, metadata !229, metadata !DIExpression()), !dbg !230
  ret { i64, i64 } { i64 -5076933981314334344, i64 7199936582794304877 }, !dbg !231
}

; std::sys_common::backtrace::__rust_end_short_backtrace
; Function Attrs: noinline noreturn nonlazybind uwtable
define internal fastcc void @_ZN3std10sys_common9backtrace26__rust_end_short_backtrace17hf58c3b6fc3cc0a37E(ptr noalias nocapture noundef readonly align 8 dereferenceable(24) %f) unnamed_addr #1 !dbg !232 {
start:
  call void @llvm.dbg.declare(metadata ptr undef, metadata !259, metadata !DIExpression()), !dbg !269
  call void @llvm.dbg.declare(metadata ptr undef, metadata !253, metadata !DIExpression()), !dbg !271
  call void @llvm.dbg.declare(metadata ptr %f, metadata !252, metadata !DIExpression()), !dbg !272
; call std::panicking::begin_panic::{{closure}}
  tail call fastcc void @"_ZN3std9panicking11begin_panic28_$u7b$$u7b$closure$u7d$$u7d$17h8b768ee1619b480cE"(ptr noalias nocapture noundef nonnull align 8 dereferenceable(24) %f) #22, !dbg !273
  unreachable, !dbg !274
}

; std::panicking::begin_panic
; Function Attrs: cold noinline noreturn nonlazybind uwtable
define internal fastcc void @_ZN3std9panicking11begin_panic17h32bbb967f7fbd188E(ptr noalias noundef nonnull readonly align 1 %msg.0, i64 noundef %msg.1, ptr noalias noundef readonly align 8 dereferenceable(24) %0) unnamed_addr #2 !dbg !275 {
start:
  %_3 = alloca [24 x i8], align 8
  tail call void @llvm.dbg.value(metadata ptr %msg.0, metadata !280, metadata !DIExpression(DW_OP_LLVM_fragment, 0, 64)), !dbg !285
  tail call void @llvm.dbg.value(metadata i64 %msg.1, metadata !280, metadata !DIExpression(DW_OP_LLVM_fragment, 64, 64)), !dbg !285
  tail call void @llvm.dbg.value(metadata ptr %0, metadata !281, metadata !DIExpression()), !dbg !286
  call void @llvm.lifetime.start.p0(i64 24, ptr nonnull %_3), !dbg !287
  store ptr %msg.0, ptr %_3, align 8, !dbg !287
  %1 = getelementptr inbounds i8, ptr %_3, i64 8, !dbg !287
  store i64 %msg.1, ptr %1, align 8, !dbg !287
  %2 = getelementptr inbounds i8, ptr %_3, i64 16, !dbg !287
  store ptr %0, ptr %2, align 8, !dbg !287
; call std::sys_common::backtrace::__rust_end_short_backtrace
  call fastcc void @_ZN3std10sys_common9backtrace26__rust_end_short_backtrace17hf58c3b6fc3cc0a37E(ptr noalias nocapture noundef nonnull align 8 dereferenceable(24) %_3) #22, !dbg !288
  unreachable, !dbg !288
}

; std::panicking::begin_panic::{{closure}}
; Function Attrs: inlinehint noreturn nonlazybind uwtable
define internal fastcc void @"_ZN3std9panicking11begin_panic28_$u7b$$u7b$closure$u7d$$u7d$17h8b768ee1619b480cE"(ptr noalias nocapture noundef readonly align 8 dereferenceable(24) %_1) unnamed_addr #3 personality ptr @rust_eh_personality !dbg !289 {
start:
  %_4 = alloca [16 x i8], align 8
  call void @llvm.dbg.declare(metadata ptr %_1, metadata !291, metadata !DIExpression()), !dbg !293
  call void @llvm.dbg.declare(metadata ptr %_1, metadata !292, metadata !DIExpression(DW_OP_plus_uconst, 16)), !dbg !294
  call void @llvm.lifetime.start.p0(i64 16, ptr nonnull %_4), !dbg !295
  %inner.0 = load ptr, ptr %_1, align 8, !dbg !296, !nonnull !27, !align !297, !noundef !27
  %0 = getelementptr inbounds i8, ptr %_1, i64 8, !dbg !296
  %inner.1 = load i64, ptr %0, align 8, !dbg !296, !noundef !27
  tail call void @llvm.dbg.value(metadata ptr %inner.0, metadata !298, metadata !DIExpression(DW_OP_LLVM_fragment, 0, 64)), !dbg !305
  tail call void @llvm.dbg.value(metadata i64 %inner.1, metadata !298, metadata !DIExpression(DW_OP_LLVM_fragment, 64, 64)), !dbg !305
  store ptr %inner.0, ptr %_4, align 8, !dbg !306
  %1 = getelementptr inbounds i8, ptr %_4, i64 8, !dbg !306
  store i64 %inner.1, ptr %1, align 8, !dbg !306
  %2 = getelementptr inbounds i8, ptr %_1, i64 16, !dbg !307
  %_6 = load ptr, ptr %2, align 8, !dbg !307, !nonnull !27, !align !308, !noundef !27
; call std::panicking::rust_panic_with_hook
  call void @_ZN3std9panicking20rust_panic_with_hook17h68d2bb7086845887E(ptr noundef nonnull align 1 %_4, ptr noalias noundef nonnull readonly align 8 dereferenceable(40) @vtable.0, ptr noalias noundef readonly align 8 dereferenceable_or_null(48) null, ptr noalias noundef nonnull readonly align 8 dereferenceable(24) %_6, i1 noundef zeroext true, i1 noundef zeroext false) #22, !dbg !309
  unreachable
}

; core::ptr::drop_in_place<alloc::sync::ArcInner<piper::Pipe>>
; Function Attrs: nonlazybind uwtable
define internal fastcc void @"_ZN4core3ptr61drop_in_place$LT$alloc..sync..ArcInner$LT$piper..Pipe$GT$$GT$17h7c0d07d5e2d880c5E"(ptr noalias nocapture noundef readonly align 8 dereferenceable(104) %_1) unnamed_addr #4 personality ptr @rust_eh_personality !dbg !310 {
start:
  tail call void @llvm.dbg.value(metadata ptr %_1, metadata !397, metadata !DIExpression()), !dbg !400
  tail call void @llvm.experimental.noalias.scope.decl(metadata !401), !dbg !404
  call void @llvm.dbg.value(metadata ptr %_1, metadata !405, metadata !DIExpression(DW_OP_plus_uconst, 16, DW_OP_stack_value)), !dbg !411
  tail call void @llvm.experimental.noalias.scope.decl(metadata !413), !dbg !416
  call void @llvm.dbg.value(metadata ptr %_1, metadata !417, metadata !DIExpression(DW_OP_plus_uconst, 16, DW_OP_stack_value)), !dbg !425
  %0 = getelementptr inbounds i8, ptr %_1, i64 88, !dbg !427
  %capacity.i.i = load i64, ptr %0, align 8, !dbg !427, !alias.scope !428, !noundef !27, !unsafe_inst !429
  call void @llvm.dbg.value(metadata ptr undef, metadata !430, metadata !DIExpression()), !dbg !467
  call void @llvm.dbg.value(metadata ptr undef, metadata !469, metadata !DIExpression()), !dbg !477
  call void @llvm.dbg.value(metadata ptr undef, metadata !479, metadata !DIExpression()), !dbg !499
  call void @llvm.dbg.value(metadata ptr undef, metadata !501, metadata !DIExpression()), !dbg !531
  %1 = icmp eq i64 %capacity.i.i, 0, !dbg !533
  br i1 %1, label %bb6.i, label %"_ZN63_$LT$alloc..alloc..Global$u20$as$u20$core..alloc..Allocator$GT$10deallocate17h0f2d39528d187dc6E.exit.i.i4.i.i.i", !dbg !533

"_ZN63_$LT$alloc..alloc..Global$u20$as$u20$core..alloc..Allocator$GT$10deallocate17h0f2d39528d187dc6E.exit.i.i4.i.i.i": ; preds = %start
  %2 = getelementptr inbounds i8, ptr %_1, i64 80, !dbg !534
  %ptr.i.i = load ptr, ptr %2, align 8, !dbg !534, !alias.scope !428, !nonnull !27, !noundef !27, !unsafe_inst !429
  call void @llvm.dbg.value(metadata ptr %ptr.i.i, metadata !487, metadata !DIExpression()), !dbg !535
  call void @llvm.dbg.value(metadata i64 1, metadata !489, metadata !DIExpression(DW_OP_LLVM_fragment, 0, 64)), !dbg !535
  call void @llvm.dbg.value(metadata i64 %capacity.i.i, metadata !489, metadata !DIExpression(DW_OP_LLVM_fragment, 64, 64)), !dbg !535
  call void @llvm.dbg.value(metadata i64 1, metadata !536, metadata !DIExpression(DW_OP_LLVM_fragment, 0, 64)), !dbg !546
  call void @llvm.dbg.value(metadata i64 %capacity.i.i, metadata !536, metadata !DIExpression(DW_OP_LLVM_fragment, 64, 64)), !dbg !546
  call void @llvm.dbg.value(metadata ptr undef, metadata !544, metadata !DIExpression()), !dbg !546
  call void @llvm.dbg.value(metadata ptr %ptr.i.i, metadata !545, metadata !DIExpression()), !dbg !546
  call void @llvm.dbg.value(metadata ptr %ptr.i.i, metadata !548, metadata !DIExpression()), !dbg !555
  call void @llvm.dbg.value(metadata i64 1, metadata !554, metadata !DIExpression(DW_OP_LLVM_fragment, 0, 64)), !dbg !555
  call void @llvm.dbg.value(metadata i64 %capacity.i.i, metadata !554, metadata !DIExpression(DW_OP_LLVM_fragment, 64, 64)), !dbg !555
  tail call void @__rust_dealloc(ptr noundef nonnull %ptr.i.i, i64 noundef %capacity.i.i, i64 noundef 1) #23, !dbg !557, !noalias !428
  br label %bb6.i, !dbg !558

bb6.i:                                            ; preds = %"_ZN63_$LT$alloc..alloc..Global$u20$as$u20$core..alloc..Allocator$GT$10deallocate17h0f2d39528d187dc6E.exit.i.i4.i.i.i", %start
  %3 = getelementptr inbounds i8, ptr %_1, i64 32, !dbg !416
  %.val8.i = load ptr, ptr %3, align 8, !dbg !416, !alias.scope !401, !noundef !27
  call void @llvm.dbg.value(metadata ptr undef, metadata !559, metadata !DIExpression()), !dbg !567
  call void @llvm.dbg.value(metadata ptr undef, metadata !569, metadata !DIExpression()), !dbg !577
  call void @llvm.dbg.value(metadata ptr undef, metadata !579, metadata !DIExpression()), !dbg !585
  %4 = icmp eq ptr %.val8.i, null, !dbg !587
  br i1 %4, label %bb5.i, label %bb2.i.i.i10.i, !dbg !587

bb2.i.i.i10.i:                                    ; preds = %bb6.i
  %5 = getelementptr inbounds i8, ptr %_1, i64 40, !dbg !416
  %.val9.i = load ptr, ptr %5, align 8, !dbg !416, !alias.scope !401
  call void @llvm.dbg.value(metadata ptr undef, metadata !588, metadata !DIExpression()), !dbg !594
  call void @llvm.dbg.value(metadata ptr undef, metadata !596, metadata !DIExpression()), !dbg !604
  %6 = getelementptr inbounds i8, ptr %.val8.i, i64 24, !dbg !606
  %_2.i.i.i.i.i11.i = load ptr, ptr %6, align 8, !dbg !606, !noalias !401, !nonnull !27, !noundef !27
  invoke void %_2.i.i.i.i.i11.i(ptr noundef %.val9.i)
          to label %bb5.i unwind label %cleanup1.i, !dbg !606, !noalias !401

bb2.i.i.i14.i:                                    ; preds = %cleanup1.i
  %7 = getelementptr inbounds i8, ptr %_1, i64 64, !dbg !416
  %.val3.i = load ptr, ptr %7, align 8, !dbg !416, !alias.scope !401
  call void @llvm.dbg.value(metadata ptr undef, metadata !588, metadata !DIExpression()), !dbg !607
  call void @llvm.dbg.value(metadata ptr undef, metadata !596, metadata !DIExpression()), !dbg !612
  %8 = getelementptr inbounds i8, ptr %.val.i, i64 24, !dbg !614
  %_2.i.i.i.i.i15.i = load ptr, ptr %8, align 8, !dbg !614, !noalias !401, !nonnull !27, !noundef !27
  invoke void %_2.i.i.i.i.i15.i(ptr noundef %.val3.i)
          to label %bb1.i unwind label %terminate.i, !dbg !614, !noalias !401

cleanup1.i:                                       ; preds = %bb2.i.i.i10.i
  %9 = landingpad { ptr, i32 }
          cleanup
  %10 = getelementptr inbounds i8, ptr %_1, i64 56, !dbg !416
  %.val.i = load ptr, ptr %10, align 8, !dbg !416, !alias.scope !401, !noundef !27
  call void @llvm.dbg.value(metadata ptr undef, metadata !559, metadata !DIExpression()), !dbg !615
  call void @llvm.dbg.value(metadata ptr undef, metadata !569, metadata !DIExpression()), !dbg !616
  call void @llvm.dbg.value(metadata ptr undef, metadata !579, metadata !DIExpression()), !dbg !617
  %11 = icmp eq ptr %.val.i, null, !dbg !618
  br i1 %11, label %bb1.i, label %bb2.i.i.i14.i, !dbg !618

bb5.i:                                            ; preds = %bb2.i.i.i10.i, %bb6.i
  %12 = getelementptr inbounds i8, ptr %_1, i64 56, !dbg !416
  %.val6.i = load ptr, ptr %12, align 8, !dbg !416, !alias.scope !401, !noundef !27
  call void @llvm.dbg.value(metadata ptr undef, metadata !559, metadata !DIExpression()), !dbg !619
  call void @llvm.dbg.value(metadata ptr undef, metadata !569, metadata !DIExpression()), !dbg !621
  call void @llvm.dbg.value(metadata ptr undef, metadata !579, metadata !DIExpression()), !dbg !623
  %13 = icmp eq ptr %.val6.i, null, !dbg !625
  br i1 %13, label %"_ZN4core3ptr32drop_in_place$LT$piper..Pipe$GT$17ha1ac75ca150a3778E.exit", label %bb2.i.i.i18.i, !dbg !625

bb2.i.i.i18.i:                                    ; preds = %bb5.i
  %14 = getelementptr inbounds i8, ptr %_1, i64 64, !dbg !416
  %.val7.i = load ptr, ptr %14, align 8, !dbg !416, !alias.scope !401
  call void @llvm.dbg.value(metadata ptr undef, metadata !588, metadata !DIExpression()), !dbg !626
  call void @llvm.dbg.value(metadata ptr undef, metadata !596, metadata !DIExpression()), !dbg !628
  %15 = getelementptr inbounds i8, ptr %.val6.i, i64 24, !dbg !630
  %_2.i.i.i.i.i19.i = load ptr, ptr %15, align 8, !dbg !630, !noalias !401, !nonnull !27, !noundef !27
  tail call void %_2.i.i.i.i.i19.i(ptr noundef %.val7.i), !dbg !630, !noalias !401
  br label %"_ZN4core3ptr32drop_in_place$LT$piper..Pipe$GT$17ha1ac75ca150a3778E.exit", !dbg !625

terminate.i:                                      ; preds = %bb2.i.i.i14.i
  %16 = landingpad { ptr, i32 }
          filter [0 x ptr] zeroinitializer
; call core::panicking::panic_in_cleanup
  tail call void @_ZN4core9panicking16panic_in_cleanup17h43442956f23e9cbeE() #24, !dbg !416, !noalias !401
  unreachable, !dbg !416

bb1.i:                                            ; preds = %cleanup1.i, %bb2.i.i.i14.i
  resume { ptr, i32 } %9, !dbg !416

"_ZN4core3ptr32drop_in_place$LT$piper..Pipe$GT$17ha1ac75ca150a3778E.exit": ; preds = %bb5.i, %bb2.i.i.i18.i
  ret void, !dbg !404
}

; alloc::sync::Arc<T,A>::drop_slow
; Function Attrs: noinline nonlazybind uwtable
define internal fastcc void @"_ZN5alloc4sync16Arc$LT$T$C$A$GT$9drop_slow17he6dbf25260d4178dE"(ptr noalias nocapture noundef readonly align 8 dereferenceable(8) %self) unnamed_addr #5 personality ptr @rust_eh_personality !dbg !631 {
start:
  tail call void @llvm.dbg.value(metadata ptr %self, metadata !649, metadata !DIExpression()), !dbg !650
  tail call void @llvm.dbg.value(metadata ptr %self, metadata !651, metadata !DIExpression()), !dbg !658
  %self1 = load ptr, ptr %self, align 8, !dbg !660, !nonnull !27, !noundef !27
  tail call void @llvm.experimental.noalias.scope.decl(metadata !661), !dbg !664
  call void @llvm.dbg.value(metadata ptr %self1, metadata !405, metadata !DIExpression(DW_OP_plus_uconst, 16, DW_OP_stack_value)), !dbg !665
  tail call void @llvm.experimental.noalias.scope.decl(metadata !667), !dbg !670
  call void @llvm.dbg.value(metadata ptr %self1, metadata !417, metadata !DIExpression(DW_OP_plus_uconst, 16, DW_OP_stack_value)), !dbg !671
  %0 = getelementptr inbounds i8, ptr %self1, i64 88, !dbg !673
  %capacity.i.i = load i64, ptr %0, align 8, !dbg !673, !alias.scope !674, !noundef !27, !unsafe_inst !429
  call void @llvm.dbg.value(metadata ptr undef, metadata !430, metadata !DIExpression()), !dbg !675
  call void @llvm.dbg.value(metadata ptr undef, metadata !469, metadata !DIExpression()), !dbg !677
  call void @llvm.dbg.value(metadata ptr undef, metadata !479, metadata !DIExpression()), !dbg !679
  call void @llvm.dbg.value(metadata ptr undef, metadata !501, metadata !DIExpression()), !dbg !681
  %1 = icmp eq i64 %capacity.i.i, 0, !dbg !683
  br i1 %1, label %bb6.i, label %"_ZN63_$LT$alloc..alloc..Global$u20$as$u20$core..alloc..Allocator$GT$10deallocate17h0f2d39528d187dc6E.exit.i.i4.i.i.i", !dbg !683

"_ZN63_$LT$alloc..alloc..Global$u20$as$u20$core..alloc..Allocator$GT$10deallocate17h0f2d39528d187dc6E.exit.i.i4.i.i.i": ; preds = %start
  %2 = getelementptr inbounds i8, ptr %self1, i64 80, !dbg !684
  %ptr.i.i = load ptr, ptr %2, align 8, !dbg !684, !alias.scope !674, !nonnull !27, !noundef !27, !unsafe_inst !429
  call void @llvm.dbg.value(metadata ptr %ptr.i.i, metadata !487, metadata !DIExpression()), !dbg !685
  call void @llvm.dbg.value(metadata i64 1, metadata !489, metadata !DIExpression(DW_OP_LLVM_fragment, 0, 64)), !dbg !685
  call void @llvm.dbg.value(metadata i64 %capacity.i.i, metadata !489, metadata !DIExpression(DW_OP_LLVM_fragment, 64, 64)), !dbg !685
  call void @llvm.dbg.value(metadata i64 1, metadata !536, metadata !DIExpression(DW_OP_LLVM_fragment, 0, 64)), !dbg !686
  call void @llvm.dbg.value(metadata i64 %capacity.i.i, metadata !536, metadata !DIExpression(DW_OP_LLVM_fragment, 64, 64)), !dbg !686
  call void @llvm.dbg.value(metadata ptr undef, metadata !544, metadata !DIExpression()), !dbg !686
  call void @llvm.dbg.value(metadata ptr %ptr.i.i, metadata !545, metadata !DIExpression()), !dbg !686
  call void @llvm.dbg.value(metadata ptr %ptr.i.i, metadata !548, metadata !DIExpression()), !dbg !688
  call void @llvm.dbg.value(metadata i64 1, metadata !554, metadata !DIExpression(DW_OP_LLVM_fragment, 0, 64)), !dbg !688
  call void @llvm.dbg.value(metadata i64 %capacity.i.i, metadata !554, metadata !DIExpression(DW_OP_LLVM_fragment, 64, 64)), !dbg !688
  tail call void @__rust_dealloc(ptr noundef nonnull %ptr.i.i, i64 noundef %capacity.i.i, i64 noundef 1) #23, !dbg !690, !noalias !674
  br label %bb6.i, !dbg !691

bb6.i:                                            ; preds = %"_ZN63_$LT$alloc..alloc..Global$u20$as$u20$core..alloc..Allocator$GT$10deallocate17h0f2d39528d187dc6E.exit.i.i4.i.i.i", %start
  %3 = getelementptr inbounds i8, ptr %self1, i64 32, !dbg !670
  %.val8.i = load ptr, ptr %3, align 8, !dbg !670, !alias.scope !661, !noundef !27
  call void @llvm.dbg.value(metadata ptr undef, metadata !559, metadata !DIExpression()), !dbg !692
  call void @llvm.dbg.value(metadata ptr undef, metadata !569, metadata !DIExpression()), !dbg !694
  call void @llvm.dbg.value(metadata ptr undef, metadata !579, metadata !DIExpression()), !dbg !696
  %4 = icmp eq ptr %.val8.i, null, !dbg !698
  br i1 %4, label %bb5.i, label %bb2.i.i.i10.i, !dbg !698

bb2.i.i.i10.i:                                    ; preds = %bb6.i
  %5 = getelementptr inbounds i8, ptr %self1, i64 40, !dbg !670
  %.val9.i = load ptr, ptr %5, align 8, !dbg !670, !alias.scope !661
  call void @llvm.dbg.value(metadata ptr undef, metadata !588, metadata !DIExpression()), !dbg !699
  call void @llvm.dbg.value(metadata ptr undef, metadata !596, metadata !DIExpression()), !dbg !701
  %6 = getelementptr inbounds i8, ptr %.val8.i, i64 24, !dbg !703
  %_2.i.i.i.i.i11.i = load ptr, ptr %6, align 8, !dbg !703, !noalias !661, !nonnull !27, !noundef !27
  invoke void %_2.i.i.i.i.i11.i(ptr noundef %.val9.i)
          to label %bb5.i unwind label %cleanup1.i, !dbg !703, !noalias !661

bb2.i.i.i14.i:                                    ; preds = %cleanup1.i
  %7 = getelementptr inbounds i8, ptr %self1, i64 64, !dbg !670
  %.val3.i = load ptr, ptr %7, align 8, !dbg !670, !alias.scope !661
  call void @llvm.dbg.value(metadata ptr undef, metadata !588, metadata !DIExpression()), !dbg !704
  call void @llvm.dbg.value(metadata ptr undef, metadata !596, metadata !DIExpression()), !dbg !709
  %8 = getelementptr inbounds i8, ptr %.val.i, i64 24, !dbg !711
  %_2.i.i.i.i.i15.i = load ptr, ptr %8, align 8, !dbg !711, !noalias !661, !nonnull !27, !noundef !27
  invoke void %_2.i.i.i.i.i15.i(ptr noundef %.val3.i)
          to label %bb1.i unwind label %terminate.i, !dbg !711, !noalias !661

cleanup1.i:                                       ; preds = %bb2.i.i.i10.i
  %9 = landingpad { ptr, i32 }
          cleanup
  %10 = getelementptr inbounds i8, ptr %self1, i64 56, !dbg !670
  %.val.i = load ptr, ptr %10, align 8, !dbg !670, !alias.scope !661, !noundef !27
  call void @llvm.dbg.value(metadata ptr undef, metadata !559, metadata !DIExpression()), !dbg !712
  call void @llvm.dbg.value(metadata ptr undef, metadata !569, metadata !DIExpression()), !dbg !713
  call void @llvm.dbg.value(metadata ptr undef, metadata !579, metadata !DIExpression()), !dbg !714
  %11 = icmp eq ptr %.val.i, null, !dbg !715
  br i1 %11, label %bb1.i, label %bb2.i.i.i14.i, !dbg !715

bb5.i:                                            ; preds = %bb2.i.i.i10.i, %bb6.i
  %12 = getelementptr inbounds i8, ptr %self1, i64 56, !dbg !670
  %.val6.i = load ptr, ptr %12, align 8, !dbg !670, !alias.scope !661, !noundef !27
  call void @llvm.dbg.value(metadata ptr undef, metadata !559, metadata !DIExpression()), !dbg !716
  call void @llvm.dbg.value(metadata ptr undef, metadata !569, metadata !DIExpression()), !dbg !718
  call void @llvm.dbg.value(metadata ptr undef, metadata !579, metadata !DIExpression()), !dbg !720
  %13 = icmp eq ptr %.val6.i, null, !dbg !722
  br i1 %13, label %"_ZN4core3ptr32drop_in_place$LT$piper..Pipe$GT$17ha1ac75ca150a3778E.exit", label %bb2.i.i.i18.i, !dbg !722

bb2.i.i.i18.i:                                    ; preds = %bb5.i
  %14 = getelementptr inbounds i8, ptr %self1, i64 64, !dbg !670
  %.val7.i = load ptr, ptr %14, align 8, !dbg !670, !alias.scope !661
  call void @llvm.dbg.value(metadata ptr undef, metadata !588, metadata !DIExpression()), !dbg !723
  call void @llvm.dbg.value(metadata ptr undef, metadata !596, metadata !DIExpression()), !dbg !725
  %15 = getelementptr inbounds i8, ptr %.val6.i, i64 24, !dbg !727
  %_2.i.i.i.i.i19.i = load ptr, ptr %15, align 8, !dbg !727, !noalias !661, !nonnull !27, !noundef !27
  tail call void %_2.i.i.i.i.i19.i(ptr noundef %.val7.i), !dbg !727, !noalias !661
  br label %"_ZN4core3ptr32drop_in_place$LT$piper..Pipe$GT$17ha1ac75ca150a3778E.exit", !dbg !722

terminate.i:                                      ; preds = %bb2.i.i.i14.i
  %16 = landingpad { ptr, i32 }
          filter [0 x ptr] zeroinitializer
; call core::panicking::panic_in_cleanup
  tail call void @_ZN4core9panicking16panic_in_cleanup17h43442956f23e9cbeE() #24, !dbg !670, !noalias !661
  unreachable, !dbg !670

bb1.i:                                            ; preds = %cleanup1.i, %bb2.i.i.i14.i
  resume { ptr, i32 } %9, !dbg !670

"_ZN4core3ptr32drop_in_place$LT$piper..Pipe$GT$17ha1ac75ca150a3778E.exit": ; preds = %bb5.i, %bb2.i.i.i18.i
  tail call void @llvm.dbg.value(metadata ptr %self1, metadata !728, metadata !DIExpression(DW_OP_LLVM_fragment, 0, 64)), !dbg !744
  tail call void @llvm.dbg.value(metadata ptr %self, metadata !728, metadata !DIExpression(DW_OP_plus_uconst, 8, DW_OP_stack_value, DW_OP_LLVM_fragment, 64, 64)), !dbg !744
  call void @llvm.dbg.value(metadata ptr undef, metadata !746, metadata !DIExpression()), !dbg !752
  call void @llvm.dbg.value(metadata i64 1, metadata !754, metadata !DIExpression()), !dbg !765
  call void @llvm.dbg.value(metadata i8 1, metadata !764, metadata !DIExpression()), !dbg !765
  call void @llvm.dbg.value(metadata i64 1, metadata !783, metadata !DIExpression()), !dbg !792
  call void @llvm.dbg.value(metadata i8 1, metadata !791, metadata !DIExpression()), !dbg !792
  call void @llvm.dbg.value(metadata i8 2, metadata !794, metadata !DIExpression()), !dbg !800
  call void @llvm.dbg.value(metadata ptr undef, metadata !774, metadata !DIExpression()), !dbg !802
  call void @llvm.dbg.value(metadata ptr undef, metadata !803, metadata !DIExpression()), !dbg !826
  call void @llvm.dbg.value(metadata ptr %self1, metadata !828, metadata !DIExpression()), !dbg !837
  call void @llvm.dbg.value(metadata ptr %self1, metadata !824, metadata !DIExpression()), !dbg !839
  %_15.i.i = icmp eq ptr %self1, inttoptr (i64 -1 to ptr), !dbg !840
  br i1 %_15.i.i, label %"_ZN4core3ptr84drop_in_place$LT$alloc..sync..Weak$LT$piper..Pipe$C$$RF$alloc..alloc..Global$GT$$GT$17h94ab2c0029a64a47E.exit", label %bb7.i.i, !dbg !841

bb7.i.i:                                          ; preds = %"_ZN4core3ptr32drop_in_place$LT$piper..Pipe$GT$17ha1ac75ca150a3778E.exit"
  %_18.i.i = getelementptr inbounds i8, ptr %self1, i64 8, !dbg !842
  call void @llvm.dbg.value(metadata ptr %_18.i.i, metadata !775, metadata !DIExpression(DW_OP_LLVM_fragment, 0, 64)), !dbg !843
  call void @llvm.dbg.value(metadata ptr %_18.i.i, metadata !780, metadata !DIExpression(DW_OP_LLVM_fragment, 0, 64)), !dbg !844
  call void @llvm.dbg.value(metadata ptr %_18.i.i, metadata !763, metadata !DIExpression()), !dbg !765
  call void @llvm.dbg.value(metadata ptr %self1, metadata !775, metadata !DIExpression(DW_OP_LLVM_fragment, 64, 64)), !dbg !843
  call void @llvm.dbg.value(metadata ptr %self1, metadata !780, metadata !DIExpression(DW_OP_LLVM_fragment, 64, 64)), !dbg !844
  call void @llvm.dbg.value(metadata ptr %_18.i.i, metadata !790, metadata !DIExpression()), !dbg !792
  %17 = atomicrmw sub ptr %_18.i.i, i64 1 release, align 8, !dbg !845, !noalias !846
  %18 = icmp eq i64 %17, 1, !dbg !849
  br i1 %18, label %bb1.i.i, label %"_ZN4core3ptr84drop_in_place$LT$alloc..sync..Weak$LT$piper..Pipe$C$$RF$alloc..alloc..Global$GT$$GT$17h94ab2c0029a64a47E.exit", !dbg !849

bb1.i.i:                                          ; preds = %bb7.i.i
  fence acquire, !dbg !850
  call void @llvm.dbg.value(metadata ptr undef, metadata !851, metadata !DIExpression()), !dbg !862
  call void @llvm.dbg.value(metadata ptr %self1, metadata !859, metadata !DIExpression()), !dbg !862
  call void @llvm.dbg.value(metadata i64 8, metadata !860, metadata !DIExpression(DW_OP_LLVM_fragment, 0, 64)), !dbg !862
  call void @llvm.dbg.value(metadata i64 104, metadata !860, metadata !DIExpression(DW_OP_LLVM_fragment, 64, 64)), !dbg !862
  call void @llvm.dbg.value(metadata i64 8, metadata !536, metadata !DIExpression(DW_OP_LLVM_fragment, 0, 64)), !dbg !864
  call void @llvm.dbg.value(metadata i64 104, metadata !536, metadata !DIExpression(DW_OP_LLVM_fragment, 64, 64)), !dbg !864
  call void @llvm.dbg.value(metadata ptr undef, metadata !544, metadata !DIExpression()), !dbg !864
  call void @llvm.dbg.value(metadata ptr %self1, metadata !545, metadata !DIExpression()), !dbg !864
  call void @llvm.dbg.value(metadata ptr %self1, metadata !548, metadata !DIExpression()), !dbg !866
  call void @llvm.dbg.value(metadata i64 8, metadata !554, metadata !DIExpression(DW_OP_LLVM_fragment, 0, 64)), !dbg !866
  call void @llvm.dbg.value(metadata i64 104, metadata !554, metadata !DIExpression(DW_OP_LLVM_fragment, 64, 64)), !dbg !866
  tail call void @__rust_dealloc(ptr noundef nonnull %self1, i64 noundef 104, i64 noundef 8) #23, !dbg !868, !noalias !846
  br label %"_ZN4core3ptr84drop_in_place$LT$alloc..sync..Weak$LT$piper..Pipe$C$$RF$alloc..alloc..Global$GT$$GT$17h94ab2c0029a64a47E.exit", !dbg !869

"_ZN4core3ptr84drop_in_place$LT$alloc..sync..Weak$LT$piper..Pipe$C$$RF$alloc..alloc..Global$GT$$GT$17h94ab2c0029a64a47E.exit": ; preds = %"_ZN4core3ptr32drop_in_place$LT$piper..Pipe$GT$17ha1ac75ca150a3778E.exit", %bb7.i.i, %bb1.i.i
  ret void, !dbg !870
}

; <std::panicking::begin_panic::Payload<A> as core::panic::PanicPayload>::get
; Function Attrs: nonlazybind uwtable
define internal { ptr, ptr } @"_ZN91_$LT$std..panicking..begin_panic..Payload$LT$A$GT$$u20$as$u20$core..panic..PanicPayload$GT$3get17hf75ad82e2d27d0ebE"(ptr noalias noundef align 8 dereferenceable(16) %self) unnamed_addr #4 !dbg !871 {
start:
  tail call void @llvm.dbg.value(metadata ptr %self, metadata !887, metadata !DIExpression()), !dbg !890
  %0 = load ptr, ptr %self, align 8, !dbg !891, !noundef !27
  %1 = icmp eq ptr %0, null, !dbg !891
  br i1 %1, label %bb2, label %bb3, !dbg !892

bb2:                                              ; preds = %start
; call std::process::abort
  tail call void @_ZN3std7process5abort17h302c95d6b8ec09e2E() #22, !dbg !893
  unreachable, !dbg !893

bb3:                                              ; preds = %start
  %2 = insertvalue { ptr, ptr } poison, ptr %self, 0, !dbg !894
  %3 = insertvalue { ptr, ptr } %2, ptr @vtable.2, 1, !dbg !894
  ret { ptr, ptr } %3, !dbg !894
}

; <std::panicking::begin_panic::Payload<A> as core::panic::PanicPayload>::take_box
; Function Attrs: nonlazybind uwtable
define internal { ptr, ptr } @"_ZN91_$LT$std..panicking..begin_panic..Payload$LT$A$GT$$u20$as$u20$core..panic..PanicPayload$GT$8take_box17h7553b8044f95222dE"(ptr noalias nocapture noundef align 8 dereferenceable(16) %self) unnamed_addr #4 personality ptr @rust_eh_personality !dbg !895 {
start:
  tail call void @llvm.dbg.value(metadata ptr %self, metadata !903, metadata !DIExpression()), !dbg !912
  tail call void @llvm.dbg.value(metadata ptr %self, metadata !913, metadata !DIExpression()), !dbg !922
  tail call void @llvm.dbg.value(metadata ptr %self, metadata !924, metadata !DIExpression()), !dbg !935
  tail call void @llvm.dbg.value(metadata ptr %self, metadata !937, metadata !DIExpression()), !dbg !944
  tail call void @llvm.dbg.value(metadata ptr %self, metadata !946, metadata !DIExpression()), !dbg !954
  tail call void @llvm.dbg.value(metadata ptr null, metadata !930, metadata !DIExpression(DW_OP_LLVM_fragment, 0, 64)), !dbg !935
  tail call void @llvm.dbg.value(metadata ptr null, metadata !953, metadata !DIExpression(DW_OP_LLVM_fragment, 0, 64)), !dbg !954
  %0 = load ptr, ptr %self, align 8, !dbg !956, !align !297, !noundef !27
  %1 = getelementptr inbounds i8, ptr %self, i64 8, !dbg !956
  %2 = load i64, ptr %1, align 8, !dbg !956
  tail call void @llvm.dbg.value(metadata ptr %0, metadata !931, metadata !DIExpression(DW_OP_LLVM_fragment, 0, 64)), !dbg !957
  tail call void @llvm.dbg.value(metadata i64 %2, metadata !931, metadata !DIExpression(DW_OP_LLVM_fragment, 64, 64)), !dbg !957
  store ptr null, ptr %self, align 8, !dbg !958
  %3 = icmp eq ptr %0, null, !dbg !959
  br i1 %3, label %bb2, label %bb3, !dbg !960

bb2:                                              ; preds = %start
; call std::process::abort
  tail call void @_ZN3std7process5abort17h302c95d6b8ec09e2E() #22, !dbg !961
  unreachable, !dbg !961

bb3:                                              ; preds = %start
  tail call void @llvm.dbg.value(metadata ptr %0, metadata !910, metadata !DIExpression(DW_OP_LLVM_fragment, 0, 64)), !dbg !962
  tail call void @llvm.dbg.value(metadata i64 %2, metadata !910, metadata !DIExpression(DW_OP_LLVM_fragment, 64, 64)), !dbg !962
  call void @llvm.dbg.value(metadata ptr %0, metadata !963, metadata !DIExpression(DW_OP_LLVM_fragment, 0, 64)), !dbg !972
  call void @llvm.dbg.value(metadata i64 %2, metadata !963, metadata !DIExpression(DW_OP_LLVM_fragment, 64, 64)), !dbg !972
  call void @llvm.dbg.value(metadata ptr inttoptr (i64 1 to ptr), metadata !974, metadata !DIExpression()), !dbg !1006
  call void @llvm.dbg.value(metadata i64 16, metadata !1013, metadata !DIExpression()), !dbg !1019
  call void @llvm.dbg.value(metadata i64 8, metadata !1014, metadata !DIExpression()), !dbg !1019
  call void @llvm.dbg.value(metadata i64 8, metadata !1015, metadata !DIExpression(DW_OP_LLVM_fragment, 0, 64)), !dbg !1020
  call void @llvm.dbg.value(metadata i64 8, metadata !1005, metadata !DIExpression(DW_OP_LLVM_fragment, 0, 64)), !dbg !1006
  call void @llvm.dbg.value(metadata i64 16, metadata !1015, metadata !DIExpression(DW_OP_LLVM_fragment, 64, 64)), !dbg !1020
  call void @llvm.dbg.value(metadata i64 16, metadata !1005, metadata !DIExpression(DW_OP_LLVM_fragment, 64, 64)), !dbg !1006
  call void @llvm.dbg.value(metadata i64 8, metadata !1021, metadata !DIExpression(DW_OP_LLVM_fragment, 0, 64)), !dbg !1057
  call void @llvm.dbg.value(metadata i64 16, metadata !1021, metadata !DIExpression(DW_OP_LLVM_fragment, 64, 64)), !dbg !1057
  call void @llvm.dbg.value(metadata ptr undef, metadata !1027, metadata !DIExpression()), !dbg !1057
  call void @llvm.dbg.value(metadata i1 false, metadata !1028, metadata !DIExpression(DW_OP_LLVM_convert, 1, DW_ATE_unsigned, DW_OP_LLVM_convert, 8, DW_ATE_unsigned, DW_OP_stack_value)), !dbg !1057
  call void @llvm.dbg.value(metadata i64 16, metadata !1029, metadata !DIExpression()), !dbg !1059
  call void @llvm.dbg.value(metadata ptr @__rust_no_alloc_shim_is_unstable, metadata !1060, metadata !DIExpression()), !dbg !1066
  call void @llvm.dbg.value(metadata i64 8, metadata !1072, metadata !DIExpression(DW_OP_LLVM_fragment, 0, 64)), !dbg !1074
  call void @llvm.dbg.value(metadata i64 16, metadata !1072, metadata !DIExpression(DW_OP_LLVM_fragment, 64, 64)), !dbg !1074
  %4 = load volatile i8, ptr @__rust_no_alloc_shim_is_unstable, align 1, !dbg !1075, !noalias !1076
  %_0.i.i.i = tail call noalias noundef align 8 dereferenceable_or_null(16) ptr @__rust_alloc(i64 noundef 16, i64 noundef 8) #23, !dbg !1079, !noalias !1076
  %5 = icmp eq ptr %_0.i.i.i, null, !dbg !1080
  br i1 %5, label %bb2.i, label %_ZN5alloc5alloc15exchange_malloc17h354862c5666a0a2aE.exit, !dbg !1081

bb2.i:                                            ; preds = %bb3
; call alloc::alloc::handle_alloc_error
  tail call void @_ZN5alloc5alloc18handle_alloc_error17h668ad8a7a2fd77cbE(i64 noundef 8, i64 noundef 16) #22, !dbg !1082, !noalias !1076
  unreachable, !dbg !1082

_ZN5alloc5alloc15exchange_malloc17h354862c5666a0a2aE.exit: ; preds = %bb3
  store ptr %0, ptr %_0.i.i.i, align 8, !dbg !1083, !noalias !1076
  %6 = getelementptr inbounds i8, ptr %_0.i.i.i, i64 8, !dbg !1083
  store i64 %2, ptr %6, align 8, !dbg !1083
  %7 = insertvalue { ptr, ptr } poison, ptr %_0.i.i.i, 0, !dbg !1084
  %8 = insertvalue { ptr, ptr } %7, ptr @vtable.2, 1, !dbg !1084
  ret { ptr, ptr } %8, !dbg !1084
}

; piper::pipe
; Function Attrs: nonlazybind uwtable
define void @_ZN5piper4pipe17h95d6db306f1959d2E(ptr dead_on_unwind noalias nocapture noundef writable writeonly sret([72 x i8]) align 8 dereferenceable(72) %_0, i64 noundef %cap) unnamed_addr #4 personality ptr @rust_eh_personality !dbg !1085 {
start:
  %_41 = alloca [104 x i8], align 8
  call void @llvm.dbg.declare(metadata ptr poison, metadata !1123, metadata !DIExpression(DW_OP_LLVM_fragment, 648, 56)), !dbg !1133
  %inner = alloca [8 x i8], align 8
  tail call void @llvm.dbg.value(metadata i64 2, metadata !1135, metadata !DIExpression()), !dbg !1159
  tail call void @llvm.dbg.value(metadata i64 2, metadata !1161, metadata !DIExpression()), !dbg !1175
  call void @llvm.dbg.declare(metadata ptr undef, metadata !1177, metadata !DIExpression()), !dbg !1186
  call void @llvm.dbg.declare(metadata ptr undef, metadata !1196, metadata !DIExpression()), !dbg !1224
  call void @llvm.dbg.declare(metadata ptr undef, metadata !1226, metadata !DIExpression()), !dbg !1234
  call void @llvm.dbg.declare(metadata ptr undef, metadata !1244, metadata !DIExpression()), !dbg !1278
  call void @llvm.dbg.declare(metadata ptr undef, metadata !1289, metadata !DIExpression()), !dbg !1307
  tail call void @llvm.dbg.value(metadata i64 %cap, metadata !1110, metadata !DIExpression()), !dbg !1309
  tail call void @llvm.dbg.value(metadata i64 %cap, metadata !1155, metadata !DIExpression()), !dbg !1159
  tail call void @llvm.dbg.value(metadata i64 %cap, metadata !1171, metadata !DIExpression()), !dbg !1175
  tail call void @llvm.dbg.value(metadata i64 %cap, metadata !1194, metadata !DIExpression()), !dbg !1310
  tail call void @llvm.dbg.value(metadata i64 %cap, metadata !1185, metadata !DIExpression()), !dbg !1311
  tail call void @llvm.dbg.value(metadata i64 %cap, metadata !1203, metadata !DIExpression()), !dbg !1312
  call void @llvm.dbg.declare(metadata ptr %inner, metadata !1115, metadata !DIExpression()), !dbg !1313
  %_2.not = icmp eq i64 %cap, 0, !dbg !1314
  br i1 %_2.not, label %bb2, label %bb1, !dbg !1314

bb2:                                              ; preds = %start
; call std::panicking::begin_panic
  tail call fastcc void @_ZN3std9panicking11begin_panic17h32bbb967f7fbd188E(ptr noalias noundef nonnull readonly align 1 @alloc_a3d77a5b6f69cc366e2f444cb351d032, i64 noundef 25, ptr noalias noundef nonnull readonly align 8 dereferenceable(24) @alloc_5ec0a45a2ed7f212d5b6aff2f033e069) #22, !dbg !1315
  unreachable, !dbg !1315

bb1:                                              ; preds = %start
  %_27.1 = icmp sgt i64 %cap, -1, !dbg !1316
  tail call void @llvm.dbg.value(metadata ptr undef, metadata !1317, metadata !DIExpression()), !dbg !1325
  br i1 %_27.1, label %bb9.i, label %bb10, !dbg !1327

bb9.i:                                            ; preds = %bb1
  call void @llvm.dbg.value(metadata i8 0, metadata !1330, metadata !DIExpression()), !dbg !1365
  call void @llvm.dbg.value(metadata i64 %cap, metadata !1351, metadata !DIExpression()), !dbg !1365
  call void @llvm.dbg.declare(metadata ptr poison, metadata !1352, metadata !DIExpression()), !dbg !1367
  call void @llvm.dbg.value(metadata i64 1, metadata !1353, metadata !DIExpression(DW_OP_LLVM_fragment, 0, 64)), !dbg !1368
  call void @llvm.dbg.value(metadata i64 %cap, metadata !1353, metadata !DIExpression(DW_OP_LLVM_fragment, 64, 64)), !dbg !1368
  call void @llvm.dbg.value(metadata ptr undef, metadata !1369, metadata !DIExpression()), !dbg !1373
  call void @llvm.dbg.value(metadata i64 1, metadata !1372, metadata !DIExpression(DW_OP_LLVM_fragment, 0, 64)), !dbg !1373
  call void @llvm.dbg.value(metadata i64 %cap, metadata !1372, metadata !DIExpression(DW_OP_LLVM_fragment, 64, 64)), !dbg !1373
  call void @llvm.dbg.value(metadata i64 1, metadata !1021, metadata !DIExpression(DW_OP_LLVM_fragment, 0, 64)), !dbg !1375
  call void @llvm.dbg.value(metadata i64 %cap, metadata !1021, metadata !DIExpression(DW_OP_LLVM_fragment, 64, 64)), !dbg !1375
  call void @llvm.dbg.value(metadata ptr undef, metadata !1027, metadata !DIExpression()), !dbg !1375
  call void @llvm.dbg.value(metadata i1 false, metadata !1028, metadata !DIExpression(DW_OP_LLVM_convert, 1, DW_ATE_unsigned, DW_OP_LLVM_convert, 8, DW_ATE_unsigned, DW_OP_stack_value)), !dbg !1375
  call void @llvm.dbg.value(metadata i64 %cap, metadata !1029, metadata !DIExpression()), !dbg !1377
  call void @llvm.dbg.value(metadata ptr @__rust_no_alloc_shim_is_unstable, metadata !1060, metadata !DIExpression()), !dbg !1378
  call void @llvm.dbg.value(metadata i64 1, metadata !1072, metadata !DIExpression(DW_OP_LLVM_fragment, 0, 64)), !dbg !1381
  call void @llvm.dbg.value(metadata i64 %cap, metadata !1072, metadata !DIExpression(DW_OP_LLVM_fragment, 64, 64)), !dbg !1381
  %0 = load volatile i8, ptr @__rust_no_alloc_shim_is_unstable, align 1, !dbg !1382, !noalias !1383
  %_0.i.i.i.i = tail call noalias noundef ptr @__rust_alloc(i64 noundef %cap, i64 noundef 1) #23, !dbg !1386, !noalias !1383
  call void @llvm.dbg.value(metadata i64 poison, metadata !1359, metadata !DIExpression(DW_OP_LLVM_fragment, 64, 64)), !dbg !1387
  call void @llvm.dbg.value(metadata ptr %_0.i.i.i.i, metadata !1359, metadata !DIExpression(DW_OP_LLVM_fragment, 0, 64)), !dbg !1387
  %1 = icmp eq ptr %_0.i.i.i.i, null, !dbg !1388
  br i1 %1, label %bb14, label %bb15, !dbg !1389

bb10:                                             ; preds = %bb1
; call std::panicking::begin_panic
  tail call fastcc void @_ZN3std9panicking11begin_panic17h32bbb967f7fbd188E(ptr noalias noundef nonnull readonly align 1 @alloc_7716d9dea057a319abce873f741ad62b, i64 noundef 21, ptr noalias noundef nonnull readonly align 8 dereferenceable(24) @alloc_cd5f09c0a2d76e4b94d43e851791656b) #22, !dbg !1390
  unreachable, !dbg !1390

bb15:                                             ; preds = %bb9.i
  tail call void @llvm.dbg.value(metadata i64 poison, metadata !1111, metadata !DIExpression(DW_OP_LLVM_fragment, 0, 64)), !dbg !1391
  tail call void @llvm.dbg.value(metadata ptr %_0.i.i.i.i, metadata !1111, metadata !DIExpression(DW_OP_LLVM_fragment, 64, 64)), !dbg !1391
  tail call void @llvm.dbg.value(metadata i64 0, metadata !1111, metadata !DIExpression(DW_OP_LLVM_fragment, 128, 64)), !dbg !1391
  tail call void @llvm.dbg.value(metadata ptr %_0.i.i.i.i, metadata !1113, metadata !DIExpression()), !dbg !1392
  call void @llvm.lifetime.start.p0(i64 8, ptr nonnull %inner), !dbg !1393
  tail call void @llvm.dbg.value(metadata i64 0, metadata !1123, metadata !DIExpression(DW_OP_LLVM_fragment, 0, 64)), !dbg !1394
  tail call void @llvm.dbg.value(metadata i64 0, metadata !1123, metadata !DIExpression(DW_OP_LLVM_fragment, 64, 64)), !dbg !1394
  tail call void @llvm.dbg.value(metadata ptr null, metadata !1123, metadata !DIExpression(DW_OP_LLVM_fragment, 128, 64)), !dbg !1394
  tail call void @llvm.dbg.value(metadata ptr undef, metadata !1123, metadata !DIExpression(DW_OP_LLVM_fragment, 192, 64)), !dbg !1394
  tail call void @llvm.dbg.value(metadata i64 0, metadata !1123, metadata !DIExpression(DW_OP_LLVM_fragment, 256, 64)), !dbg !1394
  tail call void @llvm.dbg.value(metadata ptr null, metadata !1123, metadata !DIExpression(DW_OP_LLVM_fragment, 320, 64)), !dbg !1394
  tail call void @llvm.dbg.value(metadata ptr undef, metadata !1123, metadata !DIExpression(DW_OP_LLVM_fragment, 384, 64)), !dbg !1394
  tail call void @llvm.dbg.value(metadata i64 0, metadata !1123, metadata !DIExpression(DW_OP_LLVM_fragment, 448, 64)), !dbg !1394
  tail call void @llvm.dbg.value(metadata i8 0, metadata !1123, metadata !DIExpression(DW_OP_LLVM_fragment, 640, 8)), !dbg !1394
  tail call void @llvm.dbg.value(metadata ptr %_0.i.i.i.i, metadata !1123, metadata !DIExpression(DW_OP_LLVM_fragment, 512, 64)), !dbg !1394
  tail call void @llvm.dbg.value(metadata i64 %cap, metadata !1123, metadata !DIExpression(DW_OP_LLVM_fragment, 576, 64)), !dbg !1394
  call void @llvm.lifetime.start.p0(i64 104, ptr nonnull %_41), !dbg !1395
  store i64 1, ptr %_41, align 8, !dbg !1395
  %2 = getelementptr inbounds i8, ptr %_41, i64 8, !dbg !1395
  store i64 1, ptr %2, align 8, !dbg !1395
  %3 = getelementptr inbounds i8, ptr %_41, i64 16, !dbg !1395
  %data.sroa.0.sroa.5.sroa.5.0.data.sroa.0.sroa.5.0..sroa_idx.sroa_idx = getelementptr inbounds i8, ptr %_41, i64 48, !dbg !1395
  %data.sroa.0.sroa.6.sroa.5.0.data.sroa.0.sroa.6.0..sroa_idx.sroa_idx = getelementptr inbounds i8, ptr %_41, i64 72, !dbg !1395
  store i64 0, ptr %data.sroa.0.sroa.6.sroa.5.0.data.sroa.0.sroa.6.0..sroa_idx.sroa_idx, align 8, !dbg !1395
  %data.sroa.7.0..sroa_idx = getelementptr inbounds i8, ptr %_41, i64 80, !dbg !1395
  call void @llvm.memset.p0.i64(ptr noundef nonnull align 8 dereferenceable(24) %3, i8 0, i64 24, i1 false), !dbg !1395
  call void @llvm.memset.p0.i64(ptr noundef nonnull align 8 dereferenceable(16) %data.sroa.0.sroa.5.sroa.5.0.data.sroa.0.sroa.5.0..sroa_idx.sroa_idx, i8 0, i64 16, i1 false), !dbg !1395
  store ptr %_0.i.i.i.i, ptr %data.sroa.7.0..sroa_idx, align 8, !dbg !1395
  %data.sroa.8.0..sroa_idx = getelementptr inbounds i8, ptr %_41, i64 88, !dbg !1395
  store i64 %cap, ptr %data.sroa.8.0..sroa_idx, align 8, !dbg !1395
  %data.sroa.9.0..sroa_idx = getelementptr inbounds i8, ptr %_41, i64 96, !dbg !1395
  store i8 0, ptr %data.sroa.9.0..sroa_idx, align 8, !dbg !1395
  call void @llvm.dbg.declare(metadata ptr %_41, metadata !1396, metadata !DIExpression()), !dbg !1401
  call void @llvm.dbg.value(metadata ptr inttoptr (i64 1 to ptr), metadata !974, metadata !DIExpression()), !dbg !1403
  call void @llvm.dbg.value(metadata i64 104, metadata !1013, metadata !DIExpression()), !dbg !1406
  call void @llvm.dbg.value(metadata i64 8, metadata !1014, metadata !DIExpression()), !dbg !1406
  call void @llvm.dbg.value(metadata i64 8, metadata !1015, metadata !DIExpression(DW_OP_LLVM_fragment, 0, 64)), !dbg !1407
  call void @llvm.dbg.value(metadata i64 8, metadata !1005, metadata !DIExpression(DW_OP_LLVM_fragment, 0, 64)), !dbg !1403
  call void @llvm.dbg.value(metadata i64 104, metadata !1015, metadata !DIExpression(DW_OP_LLVM_fragment, 64, 64)), !dbg !1407
  call void @llvm.dbg.value(metadata i64 104, metadata !1005, metadata !DIExpression(DW_OP_LLVM_fragment, 64, 64)), !dbg !1403
  call void @llvm.dbg.value(metadata i64 8, metadata !1021, metadata !DIExpression(DW_OP_LLVM_fragment, 0, 64)), !dbg !1408
  call void @llvm.dbg.value(metadata i64 104, metadata !1021, metadata !DIExpression(DW_OP_LLVM_fragment, 64, 64)), !dbg !1408
  call void @llvm.dbg.value(metadata ptr undef, metadata !1027, metadata !DIExpression()), !dbg !1408
  call void @llvm.dbg.value(metadata i1 false, metadata !1028, metadata !DIExpression(DW_OP_LLVM_convert, 1, DW_ATE_unsigned, DW_OP_LLVM_convert, 8, DW_ATE_unsigned, DW_OP_stack_value)), !dbg !1408
  call void @llvm.dbg.value(metadata i64 104, metadata !1029, metadata !DIExpression()), !dbg !1410
  call void @llvm.dbg.value(metadata ptr @__rust_no_alloc_shim_is_unstable, metadata !1060, metadata !DIExpression()), !dbg !1411
  call void @llvm.dbg.value(metadata i64 8, metadata !1072, metadata !DIExpression(DW_OP_LLVM_fragment, 0, 64)), !dbg !1414
  call void @llvm.dbg.value(metadata i64 104, metadata !1072, metadata !DIExpression(DW_OP_LLVM_fragment, 64, 64)), !dbg !1414
  %4 = load volatile i8, ptr @__rust_no_alloc_shim_is_unstable, align 1, !dbg !1415, !noalias !1416
  %_0.i.i.i = tail call noalias noundef align 8 dereferenceable_or_null(104) ptr @__rust_alloc(i64 noundef 104, i64 noundef 8) #23, !dbg !1419, !noalias !1416
  %5 = icmp eq ptr %_0.i.i.i, null, !dbg !1420
  br i1 %5, label %bb2.i, label %"_ZN5alloc5boxed12Box$LT$T$GT$3new17h1df3c1958a9093e0E.exit", !dbg !1421

bb2.i:                                            ; preds = %bb15
; invoke alloc::alloc::handle_alloc_error
  invoke void @_ZN5alloc5alloc18handle_alloc_error17h668ad8a7a2fd77cbE(i64 noundef 8, i64 noundef 104) #22
          to label %.noexc unwind label %cleanup.i, !dbg !1422

.noexc:                                           ; preds = %bb2.i
  unreachable, !dbg !1422

cleanup.i:                                        ; preds = %bb2.i
  %6 = landingpad { ptr, i32 }
          cleanup
; invoke core::ptr::drop_in_place<alloc::sync::ArcInner<piper::Pipe>>
  invoke fastcc void @"_ZN4core3ptr61drop_in_place$LT$alloc..sync..ArcInner$LT$piper..Pipe$GT$$GT$17h7c0d07d5e2d880c5E"(ptr noalias noundef nonnull align 8 dereferenceable(104) %_41) #25
          to label %common.resume unwind label %terminate.i, !dbg !1423

terminate.i:                                      ; preds = %cleanup.i
  %7 = landingpad { ptr, i32 }
          filter [0 x ptr] zeroinitializer
; call core::panicking::panic_in_cleanup
  tail call void @_ZN4core9panicking16panic_in_cleanup17h43442956f23e9cbeE() #24, !dbg !1424
  unreachable, !dbg !1424

common.resume:                                    ; preds = %bb2.i.i, %cleanup, %cleanup.i
  %common.resume.op = phi { ptr, i32 } [ %6, %cleanup.i ], [ %11, %cleanup ], [ %11, %bb2.i.i ]
  resume { ptr, i32 } %common.resume.op, !dbg !1309

"_ZN5alloc5boxed12Box$LT$T$GT$3new17h1df3c1958a9093e0E.exit": ; preds = %bb15
  call void @llvm.memcpy.p0.p0.i64(ptr noundef nonnull align 8 dereferenceable(104) %_0.i.i.i, ptr noundef nonnull align 8 dereferenceable(104) %_41, i64 104, i1 false), !dbg !1425
  tail call void @llvm.dbg.value(metadata ptr %_0.i.i.i, metadata !1130, metadata !DIExpression()), !dbg !1426
  call void @llvm.lifetime.end.p0(i64 104, ptr nonnull %_41), !dbg !1427
  tail call void @llvm.dbg.value(metadata ptr %_0.i.i.i, metadata !1242, metadata !DIExpression()), !dbg !1428
  tail call void @llvm.dbg.value(metadata ptr %_0.i.i.i, metadata !1233, metadata !DIExpression()), !dbg !1429
  store ptr %_0.i.i.i, ptr %inner, align 8, !dbg !1430
  call void @llvm.dbg.value(metadata !27, metadata !1431, metadata !DIExpression()), !dbg !1507
  call void @llvm.dbg.declare(metadata ptr undef, metadata !1486, metadata !DIExpression()), !dbg !1509
  call void @llvm.dbg.value(metadata ptr null, metadata !1510, metadata !DIExpression()), !dbg !1529
  call void @llvm.dbg.declare(metadata ptr poison, metadata !1522, metadata !DIExpression()), !dbg !1531
  call void @llvm.dbg.value(metadata ptr undef, metadata !1532, metadata !DIExpression()), !dbg !1540
  call void @llvm.dbg.value(metadata ptr null, metadata !1539, metadata !DIExpression()), !dbg !1540
  call void @llvm.dbg.value(metadata ptr @"_ZN8fastrand10global_rng3RNG29_$u7b$$u7b$constant$u7d$$u7d$28_$u7b$$u7b$closure$u7d$$u7d$3VAL17hb02191bd1770c3b2E", metadata !1542, metadata !DIExpression()), !dbg !1591
  call void @llvm.dbg.value(metadata ptr null, metadata !1584, metadata !DIExpression()), !dbg !1591
  call void @llvm.dbg.declare(metadata ptr undef, metadata !1585, metadata !DIExpression()), !dbg !1593
  call void @llvm.dbg.value(metadata ptr @"_ZN8fastrand10global_rng3RNG29_$u7b$$u7b$constant$u7d$$u7d$28_$u7b$$u7b$closure$u7d$$u7d$3VAL17hb02191bd1770c3b2E", metadata !1586, metadata !DIExpression()), !dbg !1594
  %_6.i.i.i.i = load i64, ptr @"_ZN8fastrand10global_rng3RNG29_$u7b$$u7b$constant$u7d$$u7d$28_$u7b$$u7b$closure$u7d$$u7d$3VAL17hb02191bd1770c3b2E", align 8, !dbg !1595, !range !1596, !noalias !1597, !noundef !27
  %trunc.not.i.i.i.i = icmp eq i64 %_6.i.i.i.i, 0, !dbg !1604
  br i1 %trunc.not.i.i.i.i, label %bb2.i.i.i.i, label %start.bb3_crit_edge.i, !dbg !1604

start.bb3_crit_edge.i:                            ; preds = %"_ZN5alloc5boxed12Box$LT$T$GT$3new17h1df3c1958a9093e0E.exit"
  %current.i.pre.i = load i64, ptr getelementptr inbounds (%"std::sys::thread_local::fast_local::lazy::Storage<core::cell::Cell<fastrand::Rng>, !>", ptr @"_ZN8fastrand10global_rng3RNG29_$u7b$$u7b$constant$u7d$$u7d$28_$u7b$$u7b$closure$u7d$$u7d$3VAL17hb02191bd1770c3b2E", i64 0, i32 0, i32 0, i32 1, i64 0), align 8, !dbg !1605
  br label %bb17, !dbg !1604

bb2.i.i.i.i:                                      ; preds = %"_ZN5alloc5boxed12Box$LT$T$GT$3new17h1df3c1958a9093e0E.exit"
  call void @llvm.dbg.value(metadata ptr null, metadata !1650, metadata !DIExpression()), !dbg !1665
  call void @llvm.dbg.value(metadata ptr @"_ZN8fastrand10global_rng3RNG29_$u7b$$u7b$constant$u7d$$u7d$28_$u7b$$u7b$closure$u7d$$u7d$3VAL17hb02191bd1770c3b2E", metadata !1655, metadata !DIExpression()), !dbg !1665
  call void @llvm.dbg.declare(metadata ptr undef, metadata !1656, metadata !DIExpression()), !dbg !1667
  call void @llvm.dbg.declare(metadata ptr undef, metadata !1668, metadata !DIExpression()), !dbg !1680
  call void @llvm.dbg.declare(metadata ptr undef, metadata !1682, metadata !DIExpression()), !dbg !1691
  call void @llvm.dbg.declare(metadata ptr undef, metadata !1687, metadata !DIExpression()), !dbg !1691
  call void @llvm.dbg.value(metadata i64 1078321422319462234, metadata !1693, metadata !DIExpression()), !dbg !1716
; invoke fastrand::global_rng::random_seed
  %8 = invoke { i64, i64 } @_ZN8fastrand10global_rng11random_seed17h07ec393e0435b27bE()
          to label %.noexc57 unwind label %cleanup, !dbg !1721

.noexc57:                                         ; preds = %bb2.i.i.i.i
  %9 = extractvalue { i64, i64 } %8, 0, !dbg !1721
  call void @llvm.dbg.value(metadata i64 %9, metadata !1713, metadata !DIExpression(DW_OP_LLVM_fragment, 0, 64)), !dbg !1716
  call void @llvm.dbg.value(metadata i64 poison, metadata !1713, metadata !DIExpression(DW_OP_LLVM_fragment, 64, 64)), !dbg !1716
  %switch.i.i.i.i = icmp eq i64 %9, 0, !dbg !1722
  %10 = extractvalue { i64, i64 } %8, 1, !dbg !1722
  %_2.sroa.0.0.i.i.i.i = select i1 %switch.i.i.i.i, i64 1078321422319462234, i64 %10, !dbg !1722
  call void @llvm.dbg.value(metadata i64 %_2.sroa.0.0.i.i.i.i, metadata !1657, metadata !DIExpression()), !dbg !1723
  call void @llvm.dbg.value(metadata ptr @"_ZN8fastrand10global_rng3RNG29_$u7b$$u7b$constant$u7d$$u7d$28_$u7b$$u7b$closure$u7d$$u7d$3VAL17hb02191bd1770c3b2E", metadata !1724, metadata !DIExpression()), !dbg !1734
  call void @llvm.dbg.value(metadata ptr @"_ZN8fastrand10global_rng3RNG29_$u7b$$u7b$constant$u7d$$u7d$28_$u7b$$u7b$closure$u7d$$u7d$3VAL17hb02191bd1770c3b2E", metadata !1736, metadata !DIExpression()), !dbg !1741
  call void @llvm.dbg.value(metadata ptr @"_ZN8fastrand10global_rng3RNG29_$u7b$$u7b$constant$u7d$$u7d$28_$u7b$$u7b$closure$u7d$$u7d$3VAL17hb02191bd1770c3b2E", metadata !1743, metadata !DIExpression()), !dbg !1753
  call void @llvm.dbg.value(metadata ptr @"_ZN8fastrand10global_rng3RNG29_$u7b$$u7b$constant$u7d$$u7d$28_$u7b$$u7b$closure$u7d$$u7d$3VAL17hb02191bd1770c3b2E", metadata !1755, metadata !DIExpression()), !dbg !1762
  call void @llvm.dbg.value(metadata i64 %_2.sroa.0.0.i.i.i.i, metadata !1733, metadata !DIExpression(DW_OP_LLVM_fragment, 64, 64)), !dbg !1734
  call void @llvm.dbg.value(metadata i64 %_2.sroa.0.0.i.i.i.i, metadata !1740, metadata !DIExpression(DW_OP_LLVM_fragment, 64, 64)), !dbg !1741
  call void @llvm.dbg.value(metadata i64 %_2.sroa.0.0.i.i.i.i, metadata !1750, metadata !DIExpression(DW_OP_LLVM_fragment, 64, 64)), !dbg !1753
  call void @llvm.dbg.value(metadata i64 %_2.sroa.0.0.i.i.i.i, metadata !1761, metadata !DIExpression(DW_OP_LLVM_fragment, 64, 64)), !dbg !1762
  call void @llvm.dbg.value(metadata i64 1, metadata !1733, metadata !DIExpression(DW_OP_LLVM_fragment, 0, 64)), !dbg !1734
  call void @llvm.dbg.value(metadata i64 1, metadata !1740, metadata !DIExpression(DW_OP_LLVM_fragment, 0, 64)), !dbg !1741
  call void @llvm.dbg.value(metadata i64 1, metadata !1750, metadata !DIExpression(DW_OP_LLVM_fragment, 0, 64)), !dbg !1753
  call void @llvm.dbg.value(metadata i64 1, metadata !1761, metadata !DIExpression(DW_OP_LLVM_fragment, 0, 64)), !dbg !1762
  call void @llvm.dbg.value(metadata i64 poison, metadata !1751, metadata !DIExpression(DW_OP_LLVM_fragment, 0, 64)), !dbg !1764
  call void @llvm.dbg.value(metadata i64 poison, metadata !1751, metadata !DIExpression(DW_OP_LLVM_fragment, 64, 64)), !dbg !1764
  store i64 1, ptr @"_ZN8fastrand10global_rng3RNG29_$u7b$$u7b$constant$u7d$$u7d$28_$u7b$$u7b$closure$u7d$$u7d$3VAL17hb02191bd1770c3b2E", align 8, !dbg !1765, !noalias !1766
  br label %bb17, !dbg !1769

bb14:                                             ; preds = %bb9.i
  tail call void @llvm.dbg.value(metadata i64 1, metadata !1206, metadata !DIExpression(DW_OP_LLVM_fragment, 0, 64)), !dbg !1770
  tail call void @llvm.dbg.value(metadata i64 %cap, metadata !1206, metadata !DIExpression(DW_OP_LLVM_fragment, 64, 64)), !dbg !1770
; call alloc::raw_vec::handle_error
  tail call void @_ZN5alloc7raw_vec12handle_error17hbecd345b13023a3fE(i64 noundef 1, i64 %cap) #22, !dbg !1771
  unreachable, !dbg !1771

cleanup:                                          ; preds = %bb2.i.i.i.i
  %11 = landingpad { ptr, i32 }
          cleanup
  call void @llvm.dbg.value(metadata ptr %inner, metadata !1772, metadata !DIExpression()), !dbg !1780
  call void @llvm.dbg.value(metadata i64 1, metadata !1782, metadata !DIExpression()), !dbg !1788
  call void @llvm.dbg.value(metadata i8 1, metadata !1787, metadata !DIExpression()), !dbg !1788
  call void @llvm.dbg.value(metadata i64 1, metadata !1795, metadata !DIExpression()), !dbg !1801
  call void @llvm.dbg.value(metadata i8 1, metadata !1800, metadata !DIExpression()), !dbg !1801
  call void @llvm.dbg.value(metadata i8 2, metadata !1803, metadata !DIExpression()), !dbg !1807
  call void @llvm.dbg.value(metadata ptr %inner, metadata !1793, metadata !DIExpression()), !dbg !1809
  call void @llvm.dbg.value(metadata ptr %_0.i.i.i, metadata !1786, metadata !DIExpression()), !dbg !1788
  call void @llvm.dbg.value(metadata ptr %_0.i.i.i, metadata !1799, metadata !DIExpression()), !dbg !1801
  %12 = atomicrmw sub ptr %_0.i.i.i, i64 1 release, align 8, !dbg !1810, !noalias !1811
  %13 = icmp eq i64 %12, 1, !dbg !1816
  br i1 %13, label %bb2.i.i, label %common.resume, !dbg !1816

bb2.i.i:                                          ; preds = %cleanup
  fence acquire, !dbg !1817
; invoke alloc::sync::Arc<T,A>::drop_slow
  invoke fastcc void @"_ZN5alloc4sync16Arc$LT$T$C$A$GT$9drop_slow17he6dbf25260d4178dE"(ptr noalias noundef nonnull align 8 dereferenceable(8) %inner)
          to label %common.resume unwind label %terminate, !dbg !1818

bb17:                                             ; preds = %.noexc57, %start.bb3_crit_edge.i
  %current.i.i = phi i64 [ %current.i.pre.i, %start.bb3_crit_edge.i ], [ %_2.sroa.0.0.i.i.i.i, %.noexc57 ], !dbg !1605
  call void @llvm.dbg.value(metadata ptr getelementptr inbounds (%"std::sys::thread_local::fast_local::lazy::Storage<core::cell::Cell<fastrand::Rng>, !>", ptr @"_ZN8fastrand10global_rng3RNG29_$u7b$$u7b$constant$u7d$$u7d$28_$u7b$$u7b$closure$u7d$$u7d$3VAL17hb02191bd1770c3b2E", i64 0, i32 0, i32 0, i32 1, i64 0), metadata !1487, metadata !DIExpression()), !dbg !1819
  call void @llvm.dbg.value(metadata i64 0, metadata !1633, metadata !DIExpression()), !dbg !1820
  call void @llvm.dbg.value(metadata i64 0, metadata !1621, metadata !DIExpression()), !dbg !1821
  call void @llvm.dbg.declare(metadata ptr undef, metadata !1640, metadata !DIExpression()), !dbg !1822
  call void @llvm.dbg.value(metadata ptr getelementptr inbounds (%"std::sys::thread_local::fast_local::lazy::Storage<core::cell::Cell<fastrand::Rng>, !>", ptr @"_ZN8fastrand10global_rng3RNG29_$u7b$$u7b$constant$u7d$$u7d$28_$u7b$$u7b$closure$u7d$$u7d$3VAL17hb02191bd1770c3b2E", i64 0, i32 0, i32 0, i32 1, i64 0), metadata !1639, metadata !DIExpression()), !dbg !1823
  call void @llvm.dbg.value(metadata ptr getelementptr inbounds (%"std::sys::thread_local::fast_local::lazy::Storage<core::cell::Cell<fastrand::Rng>, !>", ptr @"_ZN8fastrand10global_rng3RNG29_$u7b$$u7b$constant$u7d$$u7d$28_$u7b$$u7b$closure$u7d$$u7d$3VAL17hb02191bd1770c3b2E", i64 0, i32 0, i32 0, i32 1, i64 0), metadata !1632, metadata !DIExpression()), !dbg !1820
  call void @llvm.dbg.value(metadata ptr getelementptr inbounds (%"std::sys::thread_local::fast_local::lazy::Storage<core::cell::Cell<fastrand::Rng>, !>", ptr @"_ZN8fastrand10global_rng3RNG29_$u7b$$u7b$constant$u7d$$u7d$28_$u7b$$u7b$closure$u7d$$u7d$3VAL17hb02191bd1770c3b2E", i64 0, i32 0, i32 0, i32 1, i64 0), metadata !1620, metadata !DIExpression()), !dbg !1821
  call void @llvm.dbg.value(metadata ptr getelementptr inbounds (%"std::sys::thread_local::fast_local::lazy::Storage<core::cell::Cell<fastrand::Rng>, !>", ptr @"_ZN8fastrand10global_rng3RNG29_$u7b$$u7b$constant$u7d$$u7d$28_$u7b$$u7b$closure$u7d$$u7d$3VAL17hb02191bd1770c3b2E", i64 0, i32 0, i32 0, i32 1, i64 0), metadata !1612, metadata !DIExpression()), !dbg !1824
  call void @llvm.dbg.value(metadata i64 %current.i.i, metadata !1641, metadata !DIExpression()), !dbg !1825
  call void @llvm.dbg.value(metadata ptr getelementptr inbounds (%"std::sys::thread_local::fast_local::lazy::Storage<core::cell::Cell<fastrand::Rng>, !>", ptr @"_ZN8fastrand10global_rng3RNG29_$u7b$$u7b$constant$u7d$$u7d$28_$u7b$$u7b$closure$u7d$$u7d$3VAL17hb02191bd1770c3b2E", i64 0, i32 0, i32 0, i32 1, i64 0), metadata !1643, metadata !DIExpression(DW_OP_LLVM_fragment, 0, 64)), !dbg !1826
  call void @llvm.dbg.value(metadata i64 %current.i.i, metadata !1643, metadata !DIExpression(DW_OP_LLVM_fragment, 64, 64)), !dbg !1826
  call void @llvm.dbg.value(metadata ptr undef, metadata !1827, metadata !DIExpression()), !dbg !1839
  call void @llvm.dbg.declare(metadata ptr undef, metadata !1832, metadata !DIExpression()), !dbg !1841
  call void @llvm.dbg.value(metadata i64 -6884282663029611473, metadata !1842, metadata !DIExpression()), !dbg !1850
  call void @llvm.dbg.value(metadata ptr undef, metadata !1869, metadata !DIExpression()), !dbg !1871
  call void @llvm.dbg.value(metadata ptr undef, metadata !1859, metadata !DIExpression()), !dbg !1872
  call void @llvm.dbg.value(metadata i64 %current.i.i, metadata !1849, metadata !DIExpression()), !dbg !1850
  %s.i.i.i.i = add i64 %current.i.i, -6884282663029611473, !dbg !1873
  call void @llvm.dbg.value(metadata i64 %s.i.i.i.i, metadata !1860, metadata !DIExpression()), !dbg !1874
  call void @llvm.dbg.value(metadata i64 %s.i.i.i.i, metadata !1875, metadata !DIExpression()), !dbg !1886
  call void @llvm.dbg.value(metadata i64 %s.i.i.i.i, metadata !1643, metadata !DIExpression(DW_OP_LLVM_fragment, 64, 64)), !dbg !1826
  call void @llvm.dbg.value(metadata i64 %s.i.i.i.i, metadata !1884, metadata !DIExpression(DW_OP_constu, 16646288086500911323, DW_OP_xor, DW_OP_stack_value)), !dbg !1888
  call void @llvm.dbg.value(metadata !DIArgList(i64 %s.i.i.i.i, i64 %s.i.i.i.i), metadata !1862, metadata !DIExpression(DW_OP_LLVM_arg, 0, DW_OP_constu, 16646288086500911323, DW_OP_xor, DW_OP_LLVM_convert, 64, DW_ATE_unsigned, DW_OP_LLVM_convert, 128, DW_ATE_unsigned, DW_OP_LLVM_arg, 1, DW_OP_LLVM_convert, 64, DW_ATE_unsigned, DW_OP_LLVM_convert, 128, DW_ATE_unsigned, DW_OP_mul, DW_OP_stack_value)), !dbg !1890
  call void @llvm.dbg.value(metadata ptr undef, metadata !1891, metadata !DIExpression()), !dbg !1899
  call void @llvm.dbg.value(metadata ptr undef, metadata !1901, metadata !DIExpression()), !dbg !1908
  call void @llvm.dbg.value(metadata ptr getelementptr inbounds (%"std::sys::thread_local::fast_local::lazy::Storage<core::cell::Cell<fastrand::Rng>, !>", ptr @"_ZN8fastrand10global_rng3RNG29_$u7b$$u7b$constant$u7d$$u7d$28_$u7b$$u7b$closure$u7d$$u7d$3VAL17hb02191bd1770c3b2E", i64 0, i32 0, i32 0, i32 1, i64 0), metadata !1910, metadata !DIExpression()), !dbg !1918
  call void @llvm.dbg.value(metadata ptr getelementptr inbounds (%"std::sys::thread_local::fast_local::lazy::Storage<core::cell::Cell<fastrand::Rng>, !>", ptr @"_ZN8fastrand10global_rng3RNG29_$u7b$$u7b$constant$u7d$$u7d$28_$u7b$$u7b$closure$u7d$$u7d$3VAL17hb02191bd1770c3b2E", i64 0, i32 0, i32 0, i32 1, i64 0), metadata !1920, metadata !DIExpression()), !dbg !1925
  call void @llvm.dbg.value(metadata i64 %s.i.i.i.i, metadata !1917, metadata !DIExpression()), !dbg !1918
  call void @llvm.dbg.value(metadata i64 %s.i.i.i.i, metadata !1924, metadata !DIExpression()), !dbg !1925
  call void @llvm.dbg.value(metadata i64 %s.i.i.i.i, metadata !1927, metadata !DIExpression()), !dbg !1934
  call void @llvm.dbg.value(metadata i64 %s.i.i.i.i, metadata !1936, metadata !DIExpression()), !dbg !1943
  call void @llvm.dbg.value(metadata ptr getelementptr inbounds (%"std::sys::thread_local::fast_local::lazy::Storage<core::cell::Cell<fastrand::Rng>, !>", ptr @"_ZN8fastrand10global_rng3RNG29_$u7b$$u7b$constant$u7d$$u7d$28_$u7b$$u7b$closure$u7d$$u7d$3VAL17hb02191bd1770c3b2E", i64 0, i32 0, i32 0, i32 1, i64 0), metadata !1931, metadata !DIExpression()), !dbg !1934
  call void @llvm.dbg.value(metadata ptr getelementptr inbounds (%"std::sys::thread_local::fast_local::lazy::Storage<core::cell::Cell<fastrand::Rng>, !>", ptr @"_ZN8fastrand10global_rng3RNG29_$u7b$$u7b$constant$u7d$$u7d$28_$u7b$$u7b$closure$u7d$$u7d$3VAL17hb02191bd1770c3b2E", i64 0, i32 0, i32 0, i32 1, i64 0), metadata !1942, metadata !DIExpression()), !dbg !1943
  call void @llvm.dbg.value(metadata i64 poison, metadata !1932, metadata !DIExpression()), !dbg !1945
  store i64 %s.i.i.i.i, ptr getelementptr inbounds (%"std::sys::thread_local::fast_local::lazy::Storage<core::cell::Cell<fastrand::Rng>, !>", ptr @"_ZN8fastrand10global_rng3RNG29_$u7b$$u7b$constant$u7d$$u7d$28_$u7b$$u7b$closure$u7d$$u7d$3VAL17hb02191bd1770c3b2E", i64 0, i32 0, i32 0, i32 1, i64 0), align 8, !dbg !1946
  tail call void @llvm.dbg.value(metadata i64 0, metadata !1302, metadata !DIExpression(DW_OP_LLVM_fragment, 0, 64)), !dbg !1947
  tail call void @llvm.dbg.value(metadata i64 poison, metadata !1302, metadata !DIExpression(DW_OP_LLVM_fragment, 64, 64)), !dbg !1947
  tail call void @llvm.dbg.value(metadata i64 poison, metadata !1117, metadata !DIExpression()), !dbg !1948
  call void @llvm.dbg.value(metadata i64 1, metadata !1949, metadata !DIExpression()), !dbg !1956
  call void @llvm.dbg.value(metadata i8 0, metadata !1955, metadata !DIExpression()), !dbg !1956
  call void @llvm.dbg.value(metadata i64 1, metadata !1968, metadata !DIExpression()), !dbg !1974
  call void @llvm.dbg.value(metadata i8 0, metadata !1973, metadata !DIExpression()), !dbg !1974
  call void @llvm.dbg.value(metadata ptr undef, metadata !1964, metadata !DIExpression()), !dbg !1976
  call void @llvm.dbg.value(metadata ptr %_0.i.i.i, metadata !1954, metadata !DIExpression()), !dbg !1956
  call void @llvm.dbg.value(metadata ptr %_0.i.i.i, metadata !1972, metadata !DIExpression()), !dbg !1974
  %14 = atomicrmw add ptr %_0.i.i.i, i64 1 monotonic, align 8, !dbg !1977
  call void @llvm.dbg.value(metadata i64 %14, metadata !1965, metadata !DIExpression()), !dbg !1978
  %_4.i = icmp slt i64 %14, 0, !dbg !1979
  br i1 %_4.i, label %bb1.i, label %bb3, !dbg !1979

bb1.i:                                            ; preds = %bb17
  tail call void @llvm.trap(), !dbg !1980
  unreachable, !dbg !1980

bb3:                                              ; preds = %bb17
  %small.i.i.i.i = xor i64 %s.i.i.i.i, -1800455987208640293, !dbg !1981
  call void @llvm.dbg.value(metadata i64 %small.i.i.i.i, metadata !1884, metadata !DIExpression()), !dbg !1888
  call void @llvm.dbg.value(metadata !DIArgList(i64 %small.i.i.i.i, i64 %s.i.i.i.i), metadata !1862, metadata !DIExpression(DW_OP_LLVM_arg, 0, DW_OP_LLVM_convert, 64, DW_ATE_unsigned, DW_OP_LLVM_convert, 128, DW_ATE_unsigned, DW_OP_LLVM_arg, 1, DW_OP_LLVM_convert, 64, DW_ATE_unsigned, DW_OP_LLVM_convert, 128, DW_ATE_unsigned, DW_OP_mul, DW_OP_stack_value)), !dbg !1890
  %_7.i.i.i.i = zext i64 %small.i.i.i.i to i128, !dbg !1982
  call void @llvm.dbg.value(metadata !DIArgList(i128 %_7.i.i.i.i, i64 %s.i.i.i.i), metadata !1862, metadata !DIExpression(DW_OP_LLVM_arg, 0, DW_OP_LLVM_arg, 1, DW_OP_LLVM_convert, 64, DW_ATE_unsigned, DW_OP_LLVM_convert, 128, DW_ATE_unsigned, DW_OP_mul, DW_OP_stack_value)), !dbg !1890
  %_6.i.i.i9.i = zext i64 %s.i.i.i.i to i128, !dbg !1983
  call void @llvm.dbg.value(metadata !DIArgList(i128 %_7.i.i.i.i, i128 %_6.i.i.i9.i), metadata !1862, metadata !DIExpression(DW_OP_LLVM_arg, 0, DW_OP_LLVM_arg, 1, DW_OP_mul, DW_OP_stack_value)), !dbg !1890
  %t.i.i.i.i = mul nuw i128 %_7.i.i.i.i, %_6.i.i.i9.i, !dbg !1984
  call void @llvm.dbg.value(metadata i128 %t.i.i.i.i, metadata !1862, metadata !DIExpression()), !dbg !1890
  %_11.i.i.i.i = lshr i128 %t.i.i.i.i, 64, !dbg !1985
  %seed4.i.i.i.i = xor i128 %_11.i.i.i.i, %t.i.i.i.i, !dbg !1986
  %seed.i.i.i.i = trunc i128 %seed4.i.i.i.i to i64, !dbg !1986
  %15 = add i64 %seed.i.i.i.i, -6884282663029611473, !dbg !1987
  tail call void @llvm.dbg.value(metadata i64 %15, metadata !1117, metadata !DIExpression()), !dbg !1948
  tail call void @llvm.dbg.value(metadata ptr undef, metadata !1988, metadata !DIExpression()), !dbg !1992
  tail call void @llvm.dbg.value(metadata ptr undef, metadata !1994, metadata !DIExpression()), !dbg !2002
  tail call void @llvm.dbg.value(metadata i64 %15, metadata !1998, metadata !DIExpression()), !dbg !2004
  tail call void @llvm.dbg.value(metadata i64 %15, metadata !2005, metadata !DIExpression()), !dbg !2011
  tail call void @llvm.dbg.value(metadata i64 %15, metadata !1117, metadata !DIExpression()), !dbg !1948
  %_61 = zext i64 %15 to i128, !dbg !2013
  %small = xor i64 %15, -1800455987208640293, !dbg !2014
  tail call void @llvm.dbg.value(metadata i64 %small, metadata !2009, metadata !DIExpression()), !dbg !2015
  %_62 = zext i64 %small to i128, !dbg !2017
  %t41 = mul nuw i128 %_62, %_61, !dbg !2012
  tail call void @llvm.dbg.value(metadata i128 %t41, metadata !2000, metadata !DIExpression()), !dbg !2018
  %_66 = lshr i128 %t41, 64, !dbg !2019
  %seed52 = xor i128 %_66, %t41, !dbg !2020
  %seed = trunc i128 %seed52 to i64, !dbg !2020
  tail call void @llvm.dbg.value(metadata ptr %_0.i.i.i, metadata !1119, metadata !DIExpression(DW_OP_LLVM_fragment, 0, 64)), !dbg !2021
  tail call void @llvm.dbg.value(metadata i64 0, metadata !1119, metadata !DIExpression(DW_OP_LLVM_fragment, 64, 64)), !dbg !2021
  tail call void @llvm.dbg.value(metadata i64 0, metadata !1119, metadata !DIExpression(DW_OP_LLVM_fragment, 128, 64)), !dbg !2021
  tail call void @llvm.dbg.value(metadata i64 %seed, metadata !1119, metadata !DIExpression(DW_OP_LLVM_fragment, 192, 64)), !dbg !2021
  tail call void @llvm.dbg.value(metadata ptr %_0.i.i.i, metadata !1121, metadata !DIExpression(DW_OP_LLVM_fragment, 0, 64)), !dbg !2022
  tail call void @llvm.dbg.value(metadata i64 0, metadata !1121, metadata !DIExpression(DW_OP_LLVM_fragment, 64, 64)), !dbg !2022
  tail call void @llvm.dbg.value(metadata i64 0, metadata !1121, metadata !DIExpression(DW_OP_LLVM_fragment, 128, 64)), !dbg !2022
  tail call void @llvm.dbg.value(metadata i64 0, metadata !1121, metadata !DIExpression(DW_OP_LLVM_fragment, 192, 64)), !dbg !2022
  tail call void @llvm.dbg.value(metadata i64 %15, metadata !1121, metadata !DIExpression(DW_OP_LLVM_fragment, 256, 64)), !dbg !2022
  store ptr %_0.i.i.i, ptr %_0, align 8, !dbg !2023
  %r.sroa.2.0._0.sroa_idx = getelementptr inbounds i8, ptr %_0, i64 8, !dbg !2023
  %r.sroa.4.0._0.sroa_idx = getelementptr inbounds i8, ptr %_0, i64 24, !dbg !2023
  tail call void @llvm.memset.p0.i64(ptr noundef nonnull align 8 dereferenceable(16) %r.sroa.2.0._0.sroa_idx, i8 0, i64 16, i1 false), !dbg !2023
  store i64 %seed, ptr %r.sroa.4.0._0.sroa_idx, align 8, !dbg !2023
  %16 = getelementptr inbounds i8, ptr %_0, i64 32, !dbg !2023
  store ptr %_0.i.i.i, ptr %16, align 8, !dbg !2023
  %w.sroa.2.0..sroa_idx = getelementptr inbounds i8, ptr %_0, i64 40, !dbg !2023
  %w.sroa.5.0..sroa_idx = getelementptr inbounds i8, ptr %_0, i64 64, !dbg !2023
  tail call void @llvm.memset.p0.i64(ptr noundef nonnull align 8 dereferenceable(24) %w.sroa.2.0..sroa_idx, i8 0, i64 24, i1 false), !dbg !2023
  store i64 %15, ptr %w.sroa.5.0..sroa_idx, align 8, !dbg !2023
  call void @llvm.lifetime.end.p0(i64 8, ptr nonnull %inner), !dbg !2024
  ret void, !dbg !2025

terminate:                                        ; preds = %bb2.i.i
  %17 = landingpad { ptr, i32 }
          filter [0 x ptr] zeroinitializer
; call core::panicking::panic_in_cleanup
  tail call void @_ZN4core9panicking16panic_in_cleanup17h43442956f23e9cbeE() #24, !dbg !2026
  unreachable, !dbg !2026
}

; <piper::Pipe as core::ops::drop::Drop>::drop
; Function Attrs: nounwind nonlazybind uwtable
define void @"_ZN53_$LT$piper..Pipe$u20$as$u20$core..ops..drop..Drop$GT$4drop17ha5da67a328e97ae3E"(ptr noalias nocapture noundef readonly align 8 dereferenceable(88) %self) unnamed_addr #6 personality ptr @rust_eh_personality !dbg !418 {
start:
  tail call void @llvm.dbg.value(metadata ptr %self, metadata !417, metadata !DIExpression()), !dbg !2027
  %0 = getelementptr inbounds i8, ptr %self, i64 72, !dbg !2028, !unsafe_inst !429
  %capacity = load i64, ptr %0, align 8, !dbg !2028, !noundef !27, !unsafe_inst !429
  call void @llvm.dbg.value(metadata ptr undef, metadata !430, metadata !DIExpression()), !dbg !2029
  call void @llvm.dbg.value(metadata ptr undef, metadata !469, metadata !DIExpression()), !dbg !2031
  call void @llvm.dbg.value(metadata ptr undef, metadata !479, metadata !DIExpression()), !dbg !2033
  call void @llvm.dbg.value(metadata ptr undef, metadata !501, metadata !DIExpression()), !dbg !2035
  %1 = icmp eq i64 %capacity, 0, !dbg !2037
  br i1 %1, label %"_ZN4core3ptr46drop_in_place$LT$alloc..vec..Vec$LT$u8$GT$$GT$17h702d288ebba7bd1bE.exit", label %"_ZN63_$LT$alloc..alloc..Global$u20$as$u20$core..alloc..Allocator$GT$10deallocate17h0f2d39528d187dc6E.exit.i.i4.i", !dbg !2037

"_ZN63_$LT$alloc..alloc..Global$u20$as$u20$core..alloc..Allocator$GT$10deallocate17h0f2d39528d187dc6E.exit.i.i4.i": ; preds = %start
  %2 = getelementptr inbounds i8, ptr %self, i64 64, !dbg !2038, !unsafe_inst !429
  %ptr = load ptr, ptr %2, align 8, !dbg !2038, !nonnull !27, !noundef !27, !unsafe_inst !429
  call void @llvm.dbg.value(metadata ptr %ptr, metadata !487, metadata !DIExpression()), !dbg !2039
  call void @llvm.dbg.value(metadata i64 1, metadata !489, metadata !DIExpression(DW_OP_LLVM_fragment, 0, 64)), !dbg !2039
  call void @llvm.dbg.value(metadata i64 %capacity, metadata !489, metadata !DIExpression(DW_OP_LLVM_fragment, 64, 64)), !dbg !2039
  call void @llvm.dbg.value(metadata i64 1, metadata !536, metadata !DIExpression(DW_OP_LLVM_fragment, 0, 64)), !dbg !2040
  call void @llvm.dbg.value(metadata i64 %capacity, metadata !536, metadata !DIExpression(DW_OP_LLVM_fragment, 64, 64)), !dbg !2040
  call void @llvm.dbg.value(metadata ptr undef, metadata !544, metadata !DIExpression()), !dbg !2040
  call void @llvm.dbg.value(metadata ptr %ptr, metadata !545, metadata !DIExpression()), !dbg !2040
  call void @llvm.dbg.value(metadata ptr %ptr, metadata !548, metadata !DIExpression()), !dbg !2042
  call void @llvm.dbg.value(metadata i64 1, metadata !554, metadata !DIExpression(DW_OP_LLVM_fragment, 0, 64)), !dbg !2042
  call void @llvm.dbg.value(metadata i64 %capacity, metadata !554, metadata !DIExpression(DW_OP_LLVM_fragment, 64, 64)), !dbg !2042
  tail call void @__rust_dealloc(ptr noundef nonnull %ptr, i64 noundef %capacity, i64 noundef 1) #23, !dbg !2044
  br label %"_ZN4core3ptr46drop_in_place$LT$alloc..vec..Vec$LT$u8$GT$$GT$17h702d288ebba7bd1bE.exit", !dbg !2045

"_ZN4core3ptr46drop_in_place$LT$alloc..vec..Vec$LT$u8$GT$$GT$17h702d288ebba7bd1bE.exit": ; preds = %start, %"_ZN63_$LT$alloc..alloc..Global$u20$as$u20$core..alloc..Allocator$GT$10deallocate17h0f2d39528d187dc6E.exit.i.i4.i"
  ret void, !dbg !2046
}

; <piper::Reader as core::ops::drop::Drop>::drop
; Function Attrs: nonlazybind uwtable
define void @"_ZN55_$LT$piper..Reader$u20$as$u20$core..ops..drop..Drop$GT$4drop17h7d3877380d02bc96E"(ptr noalias nocapture noundef readonly align 8 dereferenceable(32) %self) unnamed_addr #4 !dbg !2047 {
start:
  tail call void @llvm.dbg.value(metadata i8 1, metadata !2054, metadata !DIExpression()), !dbg !2064
  tail call void @llvm.dbg.value(metadata i8 4, metadata !2063, metadata !DIExpression()), !dbg !2064
  tail call void @llvm.dbg.value(metadata ptr %self, metadata !2053, metadata !DIExpression()), !dbg !2066
  tail call void @llvm.dbg.value(metadata ptr %self, metadata !2067, metadata !DIExpression()), !dbg !2077
  tail call void @llvm.dbg.value(metadata ptr %self, metadata !2079, metadata !DIExpression()), !dbg !2089
  tail call void @llvm.dbg.value(metadata ptr %self, metadata !2091, metadata !DIExpression()), !dbg !2102
  %self3 = load ptr, ptr %self, align 8, !dbg !2104, !nonnull !27, !noundef !27
  tail call void @llvm.dbg.value(metadata ptr %self3, metadata !2062, metadata !DIExpression(DW_OP_plus_uconst, 16, DW_OP_plus_uconst, 80, DW_OP_stack_value)), !dbg !2064
  tail call void @llvm.dbg.value(metadata ptr %self3, metadata !2105, metadata !DIExpression(DW_OP_plus_uconst, 16, DW_OP_plus_uconst, 80, DW_OP_stack_value)), !dbg !2113
  %_14 = getelementptr inbounds i8, ptr %self3, i64 96, !dbg !2115
  tail call void @llvm.dbg.value(metadata i8 4, metadata !2116, metadata !DIExpression()), !dbg !2123
  tail call void @llvm.dbg.value(metadata ptr %_14, metadata !2121, metadata !DIExpression()), !dbg !2123
  tail call void @llvm.dbg.value(metadata i8 1, metadata !2122, metadata !DIExpression()), !dbg !2123
  store atomic i8 1, ptr %_14 seq_cst, align 1, !dbg !2125
  %_5 = getelementptr inbounds i8, ptr %self3, i64 56, !dbg !2126
; call atomic_waker::AtomicWaker::wake
  tail call void @_ZN12atomic_waker11AtomicWaker4wake17h00aa0b01cd3f4617E(ptr noundef nonnull align 8 %_5), !dbg !2126
  ret void, !dbg !2127
}

; <piper::Writer as core::ops::drop::Drop>::drop
; Function Attrs: nonlazybind uwtable
define void @"_ZN55_$LT$piper..Writer$u20$as$u20$core..ops..drop..Drop$GT$4drop17hbe32c13ce8376ea1E"(ptr noalias nocapture noundef readonly align 8 dereferenceable(40) %self) unnamed_addr #4 !dbg !2128 {
start:
  tail call void @llvm.dbg.value(metadata i8 1, metadata !2135, metadata !DIExpression()), !dbg !2141
  tail call void @llvm.dbg.value(metadata i8 4, metadata !2140, metadata !DIExpression()), !dbg !2141
  tail call void @llvm.dbg.value(metadata ptr %self, metadata !2134, metadata !DIExpression()), !dbg !2143
  tail call void @llvm.dbg.value(metadata ptr %self, metadata !2144, metadata !DIExpression()), !dbg !2150
  tail call void @llvm.dbg.value(metadata ptr %self, metadata !2152, metadata !DIExpression()), !dbg !2158
  tail call void @llvm.dbg.value(metadata ptr %self, metadata !2160, metadata !DIExpression()), !dbg !2166
  %self3 = load ptr, ptr %self, align 8, !dbg !2168, !nonnull !27, !noundef !27
  tail call void @llvm.dbg.value(metadata ptr %self3, metadata !2139, metadata !DIExpression(DW_OP_plus_uconst, 16, DW_OP_plus_uconst, 80, DW_OP_stack_value)), !dbg !2141
  tail call void @llvm.dbg.value(metadata ptr %self3, metadata !2169, metadata !DIExpression(DW_OP_plus_uconst, 16, DW_OP_plus_uconst, 80, DW_OP_stack_value)), !dbg !2173
  %_14 = getelementptr inbounds i8, ptr %self3, i64 96, !dbg !2175
  tail call void @llvm.dbg.value(metadata i8 4, metadata !2116, metadata !DIExpression()), !dbg !2176
  tail call void @llvm.dbg.value(metadata ptr %_14, metadata !2121, metadata !DIExpression()), !dbg !2176
  tail call void @llvm.dbg.value(metadata i8 1, metadata !2122, metadata !DIExpression()), !dbg !2176
  store atomic i8 1, ptr %_14 seq_cst, align 1, !dbg !2178
  %_5 = getelementptr inbounds i8, ptr %self3, i64 32, !dbg !2179
; call atomic_waker::AtomicWaker::wake
  tail call void @_ZN12atomic_waker11AtomicWaker4wake17h00aa0b01cd3f4617E(ptr noundef nonnull align 8 %_5), !dbg !2179
  ret void, !dbg !2180
}

; piper::Reader::len
; Function Attrs: mustprogress nofree norecurse nounwind nonlazybind willreturn memory(readwrite, inaccessiblemem: none) uwtable
define noundef i64 @_ZN5piper6Reader3len17hed1c472431c4564bE(ptr noalias nocapture noundef readonly align 8 dereferenceable(32) %self) unnamed_addr #7 !dbg !2181 {
start:
  tail call void @llvm.dbg.value(metadata ptr %self, metadata !2187, metadata !DIExpression()), !dbg !2188
  tail call void @llvm.dbg.value(metadata ptr %self, metadata !2189, metadata !DIExpression()), !dbg !2193
  tail call void @llvm.dbg.value(metadata ptr %self, metadata !2195, metadata !DIExpression()), !dbg !2199
  tail call void @llvm.dbg.value(metadata ptr %self, metadata !2201, metadata !DIExpression()), !dbg !2205
  %self3 = load ptr, ptr %self, align 8, !dbg !2207, !nonnull !27, !noundef !27
  %_2 = getelementptr inbounds i8, ptr %self3, i64 16, !dbg !2194
  tail call void @llvm.dbg.value(metadata i8 2, metadata !2208, metadata !DIExpression()), !dbg !2219
  tail call void @llvm.dbg.value(metadata i8 2, metadata !2218, metadata !DIExpression()), !dbg !2232
  tail call void @llvm.dbg.value(metadata ptr %_2, metadata !2226, metadata !DIExpression()), !dbg !2234
  tail call void @llvm.dbg.value(metadata ptr %_2, metadata !2215, metadata !DIExpression()), !dbg !2219
  tail call void @llvm.dbg.value(metadata i8 2, metadata !2235, metadata !DIExpression()), !dbg !2242
  tail call void @llvm.dbg.value(metadata ptr %_2, metadata !2241, metadata !DIExpression()), !dbg !2242
  %0 = load atomic i64, ptr %_2 acquire, align 8, !dbg !2244
  tail call void @llvm.dbg.value(metadata i64 %0, metadata !2227, metadata !DIExpression()), !dbg !2245
  tail call void @llvm.dbg.value(metadata ptr %_2, metadata !2216, metadata !DIExpression(DW_OP_plus_uconst, 8, DW_OP_stack_value)), !dbg !2232
  tail call void @llvm.dbg.value(metadata ptr %_2, metadata !2246, metadata !DIExpression(DW_OP_plus_uconst, 8, DW_OP_stack_value)), !dbg !2256
  %_15.i = getelementptr inbounds i8, ptr %self3, i64 24, !dbg !2258
  tail call void @llvm.dbg.value(metadata i8 2, metadata !2235, metadata !DIExpression()), !dbg !2259
  tail call void @llvm.dbg.value(metadata ptr %_15.i, metadata !2241, metadata !DIExpression()), !dbg !2259
  %1 = load atomic i64, ptr %_15.i acquire, align 8, !dbg !2261
  tail call void @llvm.dbg.value(metadata i64 %1, metadata !2229, metadata !DIExpression()), !dbg !2262
  %_6.not.i = icmp ugt i64 %0, %1, !dbg !2263
  br i1 %_6.not.i, label %bb2.i, label %bb1.i, !dbg !2263

bb2.i:                                            ; preds = %start
  %2 = getelementptr inbounds i8, ptr %self3, i64 88, !dbg !2264
  %_8.i = load i64, ptr %2, align 8, !dbg !2264, !noundef !27
  %_7.i = shl i64 %_8.i, 1, !dbg !2265
  %_9.neg.i = sub i64 %1, %0, !dbg !2266
  %3 = add i64 %_9.neg.i, %_7.i, !dbg !2265
  br label %_ZN5piper4Pipe3len17h0a7b64a8c92444e4E.exit, !dbg !2267

bb1.i:                                            ; preds = %start
  %4 = sub i64 %1, %0, !dbg !2268
  br label %_ZN5piper4Pipe3len17h0a7b64a8c92444e4E.exit, !dbg !2267

_ZN5piper4Pipe3len17h0a7b64a8c92444e4E.exit:      ; preds = %bb2.i, %bb1.i
  %_0.sroa.0.0.i = phi i64 [ %4, %bb1.i ], [ %3, %bb2.i ], !dbg !2262
  ret i64 %_0.sroa.0.0.i, !dbg !2269
}

; piper::Reader::is_empty
; Function Attrs: mustprogress nofree norecurse nounwind nonlazybind willreturn memory(readwrite, inaccessiblemem: none) uwtable
define noundef zeroext i1 @_ZN5piper6Reader8is_empty17hc22bf283136dd231E(ptr noalias nocapture noundef readonly align 8 dereferenceable(32) %self) unnamed_addr #7 !dbg !2270 {
start:
  tail call void @llvm.dbg.value(metadata ptr %self, metadata !2275, metadata !DIExpression()), !dbg !2276
  tail call void @llvm.dbg.value(metadata ptr %self, metadata !2277, metadata !DIExpression()), !dbg !2281
  tail call void @llvm.dbg.value(metadata ptr %self, metadata !2283, metadata !DIExpression()), !dbg !2287
  tail call void @llvm.dbg.value(metadata ptr %self, metadata !2289, metadata !DIExpression()), !dbg !2293
  %self3 = load ptr, ptr %self, align 8, !dbg !2295, !nonnull !27, !noundef !27
  %_3 = getelementptr inbounds i8, ptr %self3, i64 16, !dbg !2282
  tail call void @llvm.dbg.value(metadata i8 2, metadata !2208, metadata !DIExpression()), !dbg !2296
  tail call void @llvm.dbg.value(metadata i8 2, metadata !2218, metadata !DIExpression()), !dbg !2299
  tail call void @llvm.dbg.value(metadata ptr %_3, metadata !2226, metadata !DIExpression()), !dbg !2301
  tail call void @llvm.dbg.value(metadata ptr %_3, metadata !2215, metadata !DIExpression()), !dbg !2296
  tail call void @llvm.dbg.value(metadata i8 2, metadata !2235, metadata !DIExpression()), !dbg !2302
  tail call void @llvm.dbg.value(metadata ptr %_3, metadata !2241, metadata !DIExpression()), !dbg !2302
  %0 = load atomic i64, ptr %_3 acquire, align 8, !dbg !2304
  tail call void @llvm.dbg.value(metadata i64 %0, metadata !2227, metadata !DIExpression()), !dbg !2305
  tail call void @llvm.dbg.value(metadata ptr %_3, metadata !2216, metadata !DIExpression(DW_OP_plus_uconst, 8, DW_OP_stack_value)), !dbg !2299
  tail call void @llvm.dbg.value(metadata ptr %_3, metadata !2246, metadata !DIExpression(DW_OP_plus_uconst, 8, DW_OP_stack_value)), !dbg !2306
  %_15.i = getelementptr inbounds i8, ptr %self3, i64 24, !dbg !2308
  tail call void @llvm.dbg.value(metadata i8 2, metadata !2235, metadata !DIExpression()), !dbg !2309
  tail call void @llvm.dbg.value(metadata ptr %_15.i, metadata !2241, metadata !DIExpression()), !dbg !2309
  %1 = load atomic i64, ptr %_15.i acquire, align 8, !dbg !2311
  tail call void @llvm.dbg.value(metadata i64 %1, metadata !2229, metadata !DIExpression()), !dbg !2312
  %_6.not.i = icmp ugt i64 %0, %1, !dbg !2313
  br i1 %_6.not.i, label %bb2.i, label %bb1.i, !dbg !2313

bb2.i:                                            ; preds = %start
  %2 = getelementptr inbounds i8, ptr %self3, i64 88, !dbg !2314
  %_8.i = load i64, ptr %2, align 8, !dbg !2314, !noundef !27
  %_7.i = shl i64 %_8.i, 1, !dbg !2315
  %_9.neg.i = sub i64 %1, %0, !dbg !2316
  %3 = add i64 %_9.neg.i, %_7.i, !dbg !2315
  br label %_ZN5piper4Pipe3len17h0a7b64a8c92444e4E.exit, !dbg !2317

bb1.i:                                            ; preds = %start
  %4 = sub i64 %1, %0, !dbg !2318
  br label %_ZN5piper4Pipe3len17h0a7b64a8c92444e4E.exit, !dbg !2317

_ZN5piper4Pipe3len17h0a7b64a8c92444e4E.exit:      ; preds = %bb2.i, %bb1.i
  %_0.sroa.0.0.i = phi i64 [ %4, %bb1.i ], [ %3, %bb2.i ], !dbg !2312
  %_0 = icmp eq i64 %_0.sroa.0.0.i, 0, !dbg !2282
  ret i1 %_0, !dbg !2319
}

; piper::Reader::is_full
; Function Attrs: mustprogress nofree norecurse nounwind nonlazybind willreturn memory(readwrite, inaccessiblemem: none) uwtable
define noundef zeroext i1 @_ZN5piper6Reader7is_full17haad3738a1d8e989aE(ptr noalias nocapture noundef readonly align 8 dereferenceable(32) %self) unnamed_addr #7 !dbg !2320 {
start:
  tail call void @llvm.dbg.value(metadata ptr %self, metadata !2323, metadata !DIExpression()), !dbg !2324
  tail call void @llvm.dbg.value(metadata ptr %self, metadata !2325, metadata !DIExpression()), !dbg !2331
  tail call void @llvm.dbg.value(metadata ptr %self, metadata !2333, metadata !DIExpression()), !dbg !2339
  tail call void @llvm.dbg.value(metadata ptr %self, metadata !2341, metadata !DIExpression()), !dbg !2347
  %self3 = load ptr, ptr %self, align 8, !dbg !2349, !nonnull !27, !noundef !27
  %_3 = getelementptr inbounds i8, ptr %self3, i64 16, !dbg !2332
  tail call void @llvm.dbg.value(metadata i8 2, metadata !2208, metadata !DIExpression()), !dbg !2350
  tail call void @llvm.dbg.value(metadata i8 2, metadata !2218, metadata !DIExpression()), !dbg !2353
  tail call void @llvm.dbg.value(metadata ptr %_3, metadata !2226, metadata !DIExpression()), !dbg !2355
  tail call void @llvm.dbg.value(metadata ptr %_3, metadata !2215, metadata !DIExpression()), !dbg !2350
  tail call void @llvm.dbg.value(metadata i8 2, metadata !2235, metadata !DIExpression()), !dbg !2356
  tail call void @llvm.dbg.value(metadata ptr %_3, metadata !2241, metadata !DIExpression()), !dbg !2356
  %0 = load atomic i64, ptr %_3 acquire, align 8, !dbg !2358
  tail call void @llvm.dbg.value(metadata i64 %0, metadata !2227, metadata !DIExpression()), !dbg !2359
  tail call void @llvm.dbg.value(metadata ptr %_3, metadata !2216, metadata !DIExpression(DW_OP_plus_uconst, 8, DW_OP_stack_value)), !dbg !2353
  tail call void @llvm.dbg.value(metadata ptr %_3, metadata !2246, metadata !DIExpression(DW_OP_plus_uconst, 8, DW_OP_stack_value)), !dbg !2360
  %_15.i = getelementptr inbounds i8, ptr %self3, i64 24, !dbg !2362
  tail call void @llvm.dbg.value(metadata i8 2, metadata !2235, metadata !DIExpression()), !dbg !2363
  tail call void @llvm.dbg.value(metadata ptr %_15.i, metadata !2241, metadata !DIExpression()), !dbg !2363
  %1 = load atomic i64, ptr %_15.i acquire, align 8, !dbg !2365
  tail call void @llvm.dbg.value(metadata i64 %1, metadata !2229, metadata !DIExpression()), !dbg !2366
  %_6.not.i = icmp ugt i64 %0, %1, !dbg !2367
  br i1 %_6.not.i, label %bb2.i, label %bb1.i, !dbg !2367

bb2.i:                                            ; preds = %start
  %2 = getelementptr inbounds i8, ptr %self3, i64 88, !dbg !2368
  %_8.i = load i64, ptr %2, align 8, !dbg !2368, !noundef !27
  %_7.i = shl i64 %_8.i, 1, !dbg !2369
  %_9.neg.i = sub i64 %1, %0, !dbg !2370
  %3 = add i64 %_9.neg.i, %_7.i, !dbg !2369
  br label %_ZN5piper4Pipe3len17h0a7b64a8c92444e4E.exit, !dbg !2371

bb1.i:                                            ; preds = %start
  %4 = sub i64 %1, %0, !dbg !2372
  %.phi.trans.insert = getelementptr inbounds i8, ptr %self3, i64 88
  %_5.pre = load i64, ptr %.phi.trans.insert, align 8, !dbg !2373
  br label %_ZN5piper4Pipe3len17h0a7b64a8c92444e4E.exit, !dbg !2371

_ZN5piper4Pipe3len17h0a7b64a8c92444e4E.exit:      ; preds = %bb2.i, %bb1.i
  %_5 = phi i64 [ %_5.pre, %bb1.i ], [ %_8.i, %bb2.i ], !dbg !2373
  %_0.sroa.0.0.i = phi i64 [ %4, %bb1.i ], [ %3, %bb2.i ], !dbg !2366
  %_0 = icmp eq i64 %_0.sroa.0.0.i, %_5, !dbg !2332
  ret i1 %_0, !dbg !2374
}

; piper::Reader::is_closed
; Function Attrs: mustprogress nofree norecurse nounwind nonlazybind willreturn memory(readwrite, inaccessiblemem: none) uwtable
define noundef zeroext i1 @_ZN5piper6Reader9is_closed17h7dc3f435945988d0E(ptr noalias nocapture noundef readonly align 8 dereferenceable(32) %self) unnamed_addr #7 !dbg !2375 {
start:
  tail call void @llvm.dbg.value(metadata i8 4, metadata !2379, metadata !DIExpression()), !dbg !2387
  tail call void @llvm.dbg.value(metadata ptr %self, metadata !2378, metadata !DIExpression()), !dbg !2389
  tail call void @llvm.dbg.value(metadata ptr %self, metadata !2390, metadata !DIExpression()), !dbg !2394
  tail call void @llvm.dbg.value(metadata ptr %self, metadata !2396, metadata !DIExpression()), !dbg !2400
  tail call void @llvm.dbg.value(metadata ptr %self, metadata !2402, metadata !DIExpression()), !dbg !2406
  %self3 = load ptr, ptr %self, align 8, !dbg !2408, !nonnull !27, !noundef !27
  tail call void @llvm.dbg.value(metadata ptr %self3, metadata !2386, metadata !DIExpression(DW_OP_plus_uconst, 16, DW_OP_plus_uconst, 80, DW_OP_stack_value)), !dbg !2387
  tail call void @llvm.dbg.value(metadata ptr %self3, metadata !2409, metadata !DIExpression(DW_OP_plus_uconst, 16, DW_OP_plus_uconst, 80, DW_OP_stack_value)), !dbg !2413
  %_11 = getelementptr inbounds i8, ptr %self3, i64 96, !dbg !2415
  tail call void @llvm.dbg.value(metadata i8 4, metadata !2416, metadata !DIExpression()), !dbg !2422
  tail call void @llvm.dbg.value(metadata ptr %_11, metadata !2421, metadata !DIExpression()), !dbg !2422
  %0 = load atomic i8, ptr %_11 seq_cst, align 1, !dbg !2424
  %_0 = icmp ne i8 %0, 0, !dbg !2425
  ret i1 %_0, !dbg !2426
}

; piper::Reader::poll_drain_bytes
; Function Attrs: nonlazybind uwtable
define { i64, i64 } @_ZN5piper6Reader16poll_drain_bytes17h436b85a02aa123efE(ptr noalias nocapture noundef align 8 dereferenceable(32) %self, ptr noalias nocapture noundef readonly align 8 dereferenceable(32) %cx, ptr noalias nocapture noundef nonnull writeonly align 1 %dest.0, i64 noundef %dest.1) unnamed_addr #4 !dbg !2427 {
start:
  tail call void @llvm.dbg.value(metadata ptr %self, metadata !2497, metadata !DIExpression()), !dbg !2504
  tail call void @llvm.dbg.value(metadata ptr %cx, metadata !2498, metadata !DIExpression()), !dbg !2504
  tail call void @llvm.dbg.value(metadata ptr %dest.0, metadata !2499, metadata !DIExpression(DW_OP_LLVM_fragment, 0, 64)), !dbg !2504
  tail call void @llvm.dbg.value(metadata i64 %dest.1, metadata !2499, metadata !DIExpression(DW_OP_LLVM_fragment, 64, 64)), !dbg !2504
; call piper::Reader::drain_inner
  %0 = tail call fastcc { i64, i64 } @_ZN5piper6Reader11drain_inner17he013291dbf9de137E(ptr noalias noundef nonnull align 8 dereferenceable(32) %self, ptr noalias noundef nonnull align 8 dereferenceable_or_null(32) %cx, ptr noalias noundef nonnull align 1 %dest.0, i64 noundef %dest.1), !dbg !2505
  %1 = extractvalue { i64, i64 } %0, 0, !dbg !2505
  %switch = icmp eq i64 %1, 0, !dbg !2506
  %2 = extractvalue { i64, i64 } %0, 1, !dbg !2506
  %_0.sroa.3.0 = select i1 %switch, i64 %2, i64 undef, !dbg !2506
  %3 = insertvalue { i64, i64 } %0, i64 %_0.sroa.3.0, 1, !dbg !2507
  ret { i64, i64 } %3, !dbg !2507
}

; piper::Reader::try_drain
; Function Attrs: nonlazybind uwtable
define noundef i64 @_ZN5piper6Reader9try_drain17h636d001c512885a9E(ptr noalias nocapture noundef align 8 dereferenceable(32) %self, ptr noalias nocapture noundef nonnull writeonly align 1 %dest.0, i64 noundef %dest.1) unnamed_addr #4 !dbg !2508 {
start:
  tail call void @llvm.dbg.value(metadata ptr %self, metadata !2513, metadata !DIExpression()), !dbg !2519
  tail call void @llvm.dbg.value(metadata ptr %dest.0, metadata !2514, metadata !DIExpression(DW_OP_LLVM_fragment, 0, 64)), !dbg !2519
  tail call void @llvm.dbg.value(metadata i64 %dest.1, metadata !2514, metadata !DIExpression(DW_OP_LLVM_fragment, 64, 64)), !dbg !2519
; call piper::Reader::drain_inner
  %0 = tail call fastcc { i64, i64 } @_ZN5piper6Reader11drain_inner17he013291dbf9de137E(ptr noalias noundef nonnull align 8 dereferenceable(32) %self, ptr noalias noundef align 8 dereferenceable_or_null(32) null, ptr noalias noundef nonnull align 1 %dest.0, i64 noundef %dest.1), !dbg !2520
  %1 = extractvalue { i64, i64 } %0, 0, !dbg !2520
  %switch = icmp eq i64 %1, 0, !dbg !2521
  %2 = extractvalue { i64, i64 } %0, 1, !dbg !2521
  %_0.sroa.0.0 = select i1 %switch, i64 %2, i64 0, !dbg !2521
  ret i64 %_0.sroa.0.0, !dbg !2522
}

; piper::Reader::drain_inner
; Function Attrs: inlinehint nonlazybind uwtable
define internal fastcc { i64, i64 } @_ZN5piper6Reader11drain_inner17he013291dbf9de137E(ptr noalias nocapture noundef align 8 dereferenceable(32) %self, ptr noalias nocapture noundef readonly align 8 dereferenceable_or_null(32) %0, ptr noalias nocapture noundef nonnull writeonly align 1 %1, i64 noundef %2) unnamed_addr #8 personality ptr @rust_eh_personality !dbg !2523 {
start:
  tail call void @llvm.dbg.value(metadata i8 2, metadata !2622, metadata !DIExpression()), !dbg !2630
  tail call void @llvm.dbg.value(metadata i8 4, metadata !2632, metadata !DIExpression()), !dbg !2636
  tail call void @llvm.dbg.value(metadata i8 2, metadata !2629, metadata !DIExpression()), !dbg !2638
  tail call void @llvm.dbg.value(metadata i8 0, metadata !2640, metadata !DIExpression()), !dbg !2645
  tail call void @llvm.dbg.value(metadata i8 1, metadata !2647, metadata !DIExpression()), !dbg !2656
  tail call void @llvm.dbg.value(metadata ptr %0, metadata !2574, metadata !DIExpression()), !dbg !2658
  tail call void @llvm.dbg.value(metadata ptr %1, metadata !2575, metadata !DIExpression(DW_OP_LLVM_fragment, 0, 64)), !dbg !2658
  tail call void @llvm.dbg.value(metadata i64 %2, metadata !2575, metadata !DIExpression(DW_OP_LLVM_fragment, 64, 64)), !dbg !2658
  tail call void @llvm.dbg.value(metadata ptr %self, metadata !2573, metadata !DIExpression()), !dbg !2658
  tail call void @llvm.dbg.value(metadata ptr %self, metadata !2659, metadata !DIExpression()), !dbg !2679
  tail call void @llvm.dbg.value(metadata ptr %self, metadata !2681, metadata !DIExpression()), !dbg !2701
  tail call void @llvm.dbg.value(metadata ptr %self, metadata !2703, metadata !DIExpression()), !dbg !2723
  %self11 = load ptr, ptr %self, align 8, !dbg !2725, !nonnull !27, !noundef !27
  %3 = getelementptr inbounds i8, ptr %self11, i64 88, !dbg !2680
  %4 = load i64, ptr %3, align 8, !dbg !2680, !noundef !27
  tail call void @llvm.dbg.value(metadata i64 %4, metadata !2576, metadata !DIExpression()), !dbg !2726
  tail call void @llvm.dbg.value(metadata ptr undef, metadata !2578, metadata !DIExpression()), !dbg !2727
  tail call void @llvm.dbg.value(metadata ptr undef, metadata !2728, metadata !DIExpression(DW_OP_deref)), !dbg !2749
  tail call void @llvm.dbg.value(metadata ptr undef, metadata !2740, metadata !DIExpression(DW_OP_deref)), !dbg !2751
  tail call void @llvm.dbg.value(metadata ptr undef, metadata !2744, metadata !DIExpression(DW_OP_deref)), !dbg !2753
  tail call void @llvm.dbg.value(metadata ptr undef, metadata !2748, metadata !DIExpression(DW_OP_deref)), !dbg !2755
  %5 = getelementptr inbounds i8, ptr %self, i64 8, !dbg !2757
  %a = load i64, ptr %5, align 8, !dbg !2757, !noundef !27
  tail call void @llvm.dbg.value(metadata i64 %a, metadata !2735, metadata !DIExpression()), !dbg !2749
  %6 = getelementptr inbounds i8, ptr %self, i64 16, !dbg !2758
  %b = load i64, ptr %6, align 8, !dbg !2758, !noundef !27
  tail call void @llvm.dbg.value(metadata i64 %b, metadata !2736, metadata !DIExpression()), !dbg !2749
  %_80.not = icmp ugt i64 %a, %b, !dbg !2759
  %7 = sub i64 %b, %a, !dbg !2759
  %_81 = shl i64 %4, 1, !dbg !2759
  %8 = select i1 %_80.not, i64 %_81, i64 0, !dbg !2759
  %_7.sroa.0.0 = sub i64 0, %8, !dbg !2750
  %9 = icmp eq i64 %7, %_7.sroa.0.0, !dbg !2750
  br i1 %9, label %bb1, label %bb12, !dbg !2750

bb1:                                              ; preds = %start
  tail call void @llvm.dbg.value(metadata ptr %self11, metadata !2626, metadata !DIExpression(DW_OP_plus_uconst, 16, DW_OP_plus_uconst, 8, DW_OP_stack_value)), !dbg !2630
  tail call void @llvm.dbg.value(metadata ptr %self11, metadata !2760, metadata !DIExpression(DW_OP_plus_uconst, 16, DW_OP_plus_uconst, 8, DW_OP_stack_value)), !dbg !2768
  %_89 = getelementptr inbounds i8, ptr %self11, i64 24, !dbg !2770
  tail call void @llvm.dbg.value(metadata i8 2, metadata !2235, metadata !DIExpression()), !dbg !2771
  tail call void @llvm.dbg.value(metadata ptr %_89, metadata !2241, metadata !DIExpression()), !dbg !2771
  %10 = load atomic i64, ptr %_89 acquire, align 8, !dbg !2773
  store i64 %10, ptr %6, align 8, !dbg !2774
  %a23 = load i64, ptr %5, align 8, !dbg !2775, !noundef !27
  tail call void @llvm.dbg.value(metadata i64 %a23, metadata !2737, metadata !DIExpression()), !dbg !2751
  tail call void @llvm.dbg.value(metadata i64 %10, metadata !2739, metadata !DIExpression()), !dbg !2751
  %_90.not = icmp ugt i64 %a23, %10, !dbg !2776
  %11 = sub i64 %10, %a23, !dbg !2776
  %12 = select i1 %_90.not, i64 %_81, i64 0, !dbg !2776
  %_13.sroa.0.0 = sub i64 0, %12, !dbg !2752
  %13 = icmp eq i64 %11, %_13.sroa.0.0, !dbg !2752
  br i1 %13, label %bb2, label %bb1.bb12_crit_edge, !dbg !2752

bb1.bb12_crit_edge:                               ; preds = %bb1
  %self60.pre = load ptr, ptr %self, align 8, !dbg !2777
  br label %bb12, !dbg !2752

bb2:                                              ; preds = %bb1
  tail call void @llvm.dbg.value(metadata ptr undef, metadata !2781, metadata !DIExpression()), !dbg !2804
  %14 = icmp eq ptr %0, null, !dbg !2806
  br i1 %14, label %bb4, label %bb43, !dbg !2807

bb43:                                             ; preds = %bb2
  tail call void @llvm.dbg.value(metadata ptr undef, metadata !2585, metadata !DIExpression()), !dbg !2808
  tail call void @llvm.dbg.value(metadata ptr %self, metadata !2665, metadata !DIExpression()), !dbg !2809
  tail call void @llvm.dbg.value(metadata ptr %self, metadata !2687, metadata !DIExpression()), !dbg !2811
  tail call void @llvm.dbg.value(metadata ptr %self, metadata !2709, metadata !DIExpression()), !dbg !2813
  %self31 = load ptr, ptr %self, align 8, !dbg !2815, !nonnull !27, !noundef !27
  %_20 = getelementptr inbounds i8, ptr %self31, i64 32, !dbg !2810
  tail call void @llvm.dbg.value(metadata ptr %0, metadata !2816, metadata !DIExpression()), !dbg !2824
  %_22 = load ptr, ptr %0, align 8, !dbg !2826, !nonnull !27, !align !308, !noundef !27
; call atomic_waker::AtomicWaker::register
  tail call void @_ZN12atomic_waker11AtomicWaker8register17h40fbb4b52d85719dE(ptr noundef nonnull align 8 %_20, ptr noalias noundef nonnull readonly align 8 dereferenceable(16) %_22), !dbg !2810
  br label %bb4

bb4:                                              ; preds = %bb43, %bb2
  fence seq_cst, !dbg !2827
  tail call void @llvm.dbg.value(metadata ptr %self, metadata !2667, metadata !DIExpression()), !dbg !2828
  tail call void @llvm.dbg.value(metadata ptr %self, metadata !2689, metadata !DIExpression()), !dbg !2830
  tail call void @llvm.dbg.value(metadata ptr %self, metadata !2711, metadata !DIExpression()), !dbg !2832
  %self38 = load ptr, ptr %self, align 8, !dbg !2834, !nonnull !27, !noundef !27
  tail call void @llvm.dbg.value(metadata ptr %self38, metadata !2627, metadata !DIExpression(DW_OP_plus_uconst, 16, DW_OP_plus_uconst, 8, DW_OP_stack_value)), !dbg !2638
  tail call void @llvm.dbg.value(metadata ptr %self38, metadata !2764, metadata !DIExpression(DW_OP_plus_uconst, 16, DW_OP_plus_uconst, 8, DW_OP_stack_value)), !dbg !2835
  %_106 = getelementptr inbounds i8, ptr %self38, i64 24, !dbg !2837
  tail call void @llvm.dbg.value(metadata i8 2, metadata !2235, metadata !DIExpression()), !dbg !2838
  tail call void @llvm.dbg.value(metadata ptr %_106, metadata !2241, metadata !DIExpression()), !dbg !2838
  %15 = load atomic i64, ptr %_106 acquire, align 8, !dbg !2840
  store i64 %15, ptr %6, align 8, !dbg !2841
  %a45 = load i64, ptr %5, align 8, !dbg !2842, !noundef !27
  tail call void @llvm.dbg.value(metadata i64 %a45, metadata !2741, metadata !DIExpression()), !dbg !2753
  tail call void @llvm.dbg.value(metadata i64 %15, metadata !2743, metadata !DIExpression()), !dbg !2753
  %_107.not = icmp ugt i64 %a45, %15, !dbg !2843
  %16 = sub i64 %15, %a45, !dbg !2843
  %17 = select i1 %_107.not, i64 %_81, i64 0, !dbg !2843
  %_27.sroa.0.0 = sub i64 0, %17, !dbg !2754
  %18 = icmp eq i64 %16, %_27.sroa.0.0, !dbg !2754
  %self60.pre114 = load ptr, ptr %self, align 8, !dbg !2777
  br i1 %18, label %bb5, label %bb12, !dbg !2754

bb5:                                              ; preds = %bb4
  tail call void @llvm.dbg.value(metadata ptr %self60.pre114, metadata !2644, metadata !DIExpression(DW_OP_plus_uconst, 16, DW_OP_plus_uconst, 80, DW_OP_stack_value)), !dbg !2645
  tail call void @llvm.dbg.value(metadata ptr %self60.pre114, metadata !2844, metadata !DIExpression(DW_OP_plus_uconst, 16, DW_OP_plus_uconst, 80, DW_OP_stack_value)), !dbg !2848
  %_117 = getelementptr inbounds i8, ptr %self60.pre114, i64 96, !dbg !2850
  tail call void @llvm.dbg.value(metadata i8 0, metadata !2416, metadata !DIExpression()), !dbg !2851
  tail call void @llvm.dbg.value(metadata ptr %_117, metadata !2421, metadata !DIExpression()), !dbg !2851
  %19 = load atomic i8, ptr %_117 monotonic, align 1, !dbg !2853
  %20 = icmp eq i8 %19, 0, !dbg !2854
  %spec.select109 = zext i1 %20 to i64, !dbg !2854
  br label %bb31, !dbg !2854

bb31:                                             ; preds = %bb21, %_ZN5piper11maybe_yield17h43489937512e392bE.exit, %bb5
  %_0.sroa.5.0 = phi i64 [ undef, %_ZN5piper11maybe_yield17h43489937512e392bE.exit ], [ 0, %bb5 ], [ %40, %bb21 ]
  %_0.sroa.0.0 = phi i64 [ 1, %_ZN5piper11maybe_yield17h43489937512e392bE.exit ], [ %spec.select109, %bb5 ], [ 0, %bb21 ], !dbg !2727
  %21 = insertvalue { i64, i64 } poison, i64 %_0.sroa.0.0, 0, !dbg !2855
  %22 = insertvalue { i64, i64 } %21, i64 %_0.sroa.5.0, 1, !dbg !2855
  ret { i64, i64 } %22, !dbg !2855

bb12:                                             ; preds = %bb1.bb12_crit_edge, %bb4, %start
  %self60 = phi ptr [ %self60.pre, %bb1.bb12_crit_edge ], [ %self60.pre114, %bb4 ], [ %self11, %start ], !dbg !2777
  tail call void @llvm.dbg.value(metadata ptr %self, metadata !2671, metadata !DIExpression()), !dbg !2856
  tail call void @llvm.dbg.value(metadata ptr %self, metadata !2693, metadata !DIExpression()), !dbg !2857
  tail call void @llvm.dbg.value(metadata ptr %self, metadata !2715, metadata !DIExpression()), !dbg !2858
  %_34 = getelementptr inbounds i8, ptr %self60, i64 32, !dbg !2780
; call atomic_waker::AtomicWaker::take
  %23 = tail call { ptr, ptr } @_ZN12atomic_waker11AtomicWaker4take17hc1baab410379bc86E(ptr noundef nonnull align 8 %_34), !dbg !2780
  %24 = extractvalue { ptr, ptr } %23, 0, !dbg !2780
  call void @llvm.dbg.value(metadata ptr undef, metadata !579, metadata !DIExpression()), !dbg !2859
  %25 = icmp eq ptr %24, null, !dbg !2861
  br i1 %25, label %"_ZN4core3ptr72drop_in_place$LT$core..option..Option$LT$core..task..wake..Waker$GT$$GT$17h4eda3adaad99d5b1E.exit", label %bb2.i, !dbg !2861

bb2.i:                                            ; preds = %bb12
  %26 = extractvalue { ptr, ptr } %23, 1, !dbg !2780
  call void @llvm.dbg.value(metadata ptr undef, metadata !588, metadata !DIExpression()), !dbg !2862
  call void @llvm.dbg.value(metadata ptr undef, metadata !596, metadata !DIExpression()), !dbg !2864
  %27 = getelementptr inbounds i8, ptr %24, i64 24, !dbg !2866
  %_2.i.i.i = load ptr, ptr %27, align 8, !dbg !2866, !nonnull !27, !noundef !27
  tail call void %_2.i.i.i(ptr noundef %26), !dbg !2866
  br label %"_ZN4core3ptr72drop_in_place$LT$core..option..Option$LT$core..task..wake..Waker$GT$$GT$17h4eda3adaad99d5b1E.exit", !dbg !2861

"_ZN4core3ptr72drop_in_place$LT$core..option..Option$LT$core..task..wake..Waker$GT$$GT$17h4eda3adaad99d5b1E.exit": ; preds = %bb12, %bb2.i
  %28 = icmp eq ptr %0, null, !dbg !2867
  br i1 %28, label %bb20, label %bb15, !dbg !2867

bb15:                                             ; preds = %"_ZN4core3ptr72drop_in_place$LT$core..option..Option$LT$core..task..wake..Waker$GT$$GT$17h4eda3adaad99d5b1E.exit"
  tail call void @llvm.dbg.value(metadata ptr %0, metadata !2588, metadata !DIExpression()), !dbg !2868
  %_39 = getelementptr inbounds i8, ptr %self, i64 24, !dbg !2869
  tail call void @llvm.experimental.noalias.scope.decl(metadata !2870), !dbg !2873
  tail call void @llvm.experimental.noalias.scope.decl(metadata !2874), !dbg !2873
  call void @llvm.dbg.value(metadata ptr %_39, metadata !2876, metadata !DIExpression()), !dbg !2893
  call void @llvm.dbg.value(metadata ptr %0, metadata !2892, metadata !DIExpression()), !dbg !2893
  call void @llvm.dbg.value(metadata ptr %0, metadata !2895, metadata !DIExpression()), !dbg !2899
  call void @llvm.dbg.value(metadata i64 100, metadata !2901, metadata !DIExpression()), !dbg !2938
  call void @llvm.dbg.value(metadata ptr %_39, metadata !2915, metadata !DIExpression()), !dbg !2938
  call void @llvm.dbg.value(metadata ptr poison, metadata !2916, metadata !DIExpression()), !dbg !2940
  call void @llvm.dbg.value(metadata i64 0, metadata !2924, metadata !DIExpression()), !dbg !2941
  call void @llvm.dbg.value(metadata i64 100, metadata !2930, metadata !DIExpression()), !dbg !2942
  call void @llvm.dbg.value(metadata i64 100, metadata !2936, metadata !DIExpression()), !dbg !2943
  call void @llvm.dbg.value(metadata i64 -6884282663029611473, metadata !2944, metadata !DIExpression()), !dbg !2952
  call void @llvm.dbg.value(metadata i64 -6884282663029611473, metadata !2951, metadata !DIExpression()), !dbg !2985
  call void @llvm.dbg.value(metadata ptr %_39, metadata !2974, metadata !DIExpression()), !dbg !2988
  call void @llvm.dbg.value(metadata ptr %_39, metadata !2957, metadata !DIExpression()), !dbg !2989
  call void @llvm.dbg.value(metadata ptr %_39, metadata !2962, metadata !DIExpression()), !dbg !2990
  call void @llvm.dbg.value(metadata i64 100, metadata !2975, metadata !DIExpression()), !dbg !2988
  call void @llvm.dbg.value(metadata i64 100, metadata !2991, metadata !DIExpression()), !dbg !2999
  call void @llvm.dbg.value(metadata i64 100, metadata !3001, metadata !DIExpression()), !dbg !3009
  call void @llvm.dbg.value(metadata i64 100, metadata !3008, metadata !DIExpression()), !dbg !3011
  %self3.i.i.i = load i64, ptr %_39, align 8, !dbg !3013, !alias.scope !3014, !noalias !2874, !noundef !27
  call void @llvm.dbg.value(metadata i64 %self3.i.i.i, metadata !2948, metadata !DIExpression()), !dbg !2952
  %s.i.i.i = add i64 %self3.i.i.i, -6884282663029611473, !dbg !3019
  call void @llvm.dbg.value(metadata i64 %s.i.i.i, metadata !2958, metadata !DIExpression()), !dbg !3020
  call void @llvm.dbg.value(metadata i64 %s.i.i.i, metadata !3021, metadata !DIExpression()), !dbg !3031
  store i64 %s.i.i.i, ptr %_39, align 8, !dbg !3033, !alias.scope !3014, !noalias !2874
  %_23.i.i.i = zext i64 %s.i.i.i to i128, !dbg !3034
  %small.i.i.i = xor i64 %s.i.i.i, -1800455987208640293, !dbg !3035
  call void @llvm.dbg.value(metadata i64 %small.i.i.i, metadata !3025, metadata !DIExpression()), !dbg !3036
  %_24.i.i.i = zext i64 %small.i.i.i to i128, !dbg !3038
  %t.i.i.i = mul nuw i128 %_24.i.i.i, %_23.i.i.i, !dbg !3039
  call void @llvm.dbg.value(metadata i128 %t.i.i.i, metadata !2960, metadata !DIExpression()), !dbg !3040
  %_28.i.i.i = lshr i128 %t.i.i.i, 64, !dbg !3041
  %29 = xor i128 %_28.i.i.i, %t.i.i.i, !dbg !3042
  %30 = trunc i128 %29 to i64, !dbg !3042
  call void @llvm.dbg.value(metadata i64 %30, metadata !2976, metadata !DIExpression()), !dbg !3043
  call void @llvm.dbg.value(metadata i64 %30, metadata !2995, metadata !DIExpression()), !dbg !2999
  %_31.i.i.i = and i128 %29, 18446744073709551615, !dbg !3044
  %_30.i.i.i = mul nuw nsw i128 %_31.i.i.i, 100, !dbg !3045
  %_29.i.i.i = lshr i128 %_30.i.i.i, 64, !dbg !3046
  %31 = trunc i128 %_29.i.i.i to i64, !dbg !3046
  call void @llvm.dbg.value(metadata i64 %31, metadata !2978, metadata !DIExpression()), !dbg !3047
  call void @llvm.dbg.value(metadata i64 %30, metadata !3005, metadata !DIExpression()), !dbg !3009
  %32 = mul i64 %30, 100, !dbg !3048
  call void @llvm.dbg.value(metadata i64 16, metadata !2982, metadata !DIExpression()), !dbg !3049
  call void @llvm.dbg.value(metadata i64 %32, metadata !2980, metadata !DIExpression()), !dbg !3050
  %_1327.i.i.i = icmp ult i64 %32, 16
  br i1 %_1327.i.i.i, label %bb4.i.i.i, label %_ZN8fastrand3Rng5usize17h4d21b934db248c15E.exit.i, !dbg !3051

bb3.bb7.loopexit_crit_edge.i.i.i:                 ; preds = %bb4.i.i.i
  store i64 %s11.i.i.i, ptr %_39, align 8, !dbg !3052, !alias.scope !3014, !noalias !2874
  %_44.le.i.i.i = and i128 %_1525.i.i.i, 18446744073709551615
  %_43.le.i.i.i = mul nuw nsw i128 %_44.le.i.i.i, 100
  %_42.le.i.i.i = lshr i128 %_43.le.i.i.i, 64
  %_16.le.i.i.i = trunc i128 %_42.le.i.i.i to i64
  br label %_ZN8fastrand3Rng5usize17h4d21b934db248c15E.exit.i, !dbg !3053

bb4.i.i.i:                                        ; preds = %bb15, %bb4.i.i.i
  %s112628.i.i.i = phi i64 [ %s11.i.i.i, %bb4.i.i.i ], [ %s.i.i.i, %bb15 ]
  call void @llvm.dbg.value(metadata i64 %s112628.i.i.i, metadata !2949, metadata !DIExpression()), !dbg !2985
  %s11.i.i.i = add i64 %s112628.i.i.i, -6884282663029611473, !dbg !3054
  call void @llvm.dbg.value(metadata i64 %s11.i.i.i, metadata !2964, metadata !DIExpression()), !dbg !3055
  call void @llvm.dbg.value(metadata i64 %s11.i.i.i, metadata !3027, metadata !DIExpression()), !dbg !3056
  %_36.i.i.i = zext i64 %s11.i.i.i to i128, !dbg !3058
  %small13.i.i.i = xor i64 %s11.i.i.i, -1800455987208640293, !dbg !3059
  call void @llvm.dbg.value(metadata i64 %small13.i.i.i, metadata !3029, metadata !DIExpression()), !dbg !3060
  %_37.i.i.i = zext i64 %small13.i.i.i to i128, !dbg !3062
  %t15.i.i.i = mul nuw i128 %_37.i.i.i, %_36.i.i.i, !dbg !3063
  call void @llvm.dbg.value(metadata i128 %t15.i.i.i, metadata !2966, metadata !DIExpression()), !dbg !3064
  %_41.i.i.i = lshr i128 %t15.i.i.i, 64, !dbg !3065
  %_1525.i.i.i = xor i128 %_41.i.i.i, %t15.i.i.i, !dbg !3066
  %_15.i.i.i = trunc i128 %_1525.i.i.i to i64, !dbg !3066
  call void @llvm.dbg.value(metadata i64 %_15.i.i.i, metadata !2976, metadata !DIExpression()), !dbg !3043
  call void @llvm.dbg.value(metadata i128 poison, metadata !2978, metadata !DIExpression(DW_OP_LLVM_convert, 128, DW_ATE_unsigned, DW_OP_LLVM_convert, 64, DW_ATE_unsigned, DW_OP_stack_value)), !dbg !3047
  call void @llvm.dbg.value(metadata i64 %_15.i.i.i, metadata !3006, metadata !DIExpression()), !dbg !3011
  %_18.i.i.i = mul i64 %_15.i.i.i, 100, !dbg !3067
  call void @llvm.dbg.value(metadata i64 %_18.i.i.i, metadata !2980, metadata !DIExpression()), !dbg !3050
  %_13.i.i.i = icmp ult i64 %_18.i.i.i, 16, !dbg !3053
  br i1 %_13.i.i.i, label %bb4.i.i.i, label %bb3.bb7.loopexit_crit_edge.i.i.i, !dbg !3053

_ZN8fastrand3Rng5usize17h4d21b934db248c15E.exit.i: ; preds = %bb3.bb7.loopexit_crit_edge.i.i.i, %bb15
  %hi.sroa.0.0.i.i.i = phi i64 [ %31, %bb15 ], [ %_16.le.i.i.i, %bb3.bb7.loopexit_crit_edge.i.i.i ], !dbg !3046
  call void @llvm.dbg.value(metadata i64 %hi.sroa.0.0.i.i.i, metadata !2978, metadata !DIExpression()), !dbg !3047
  %33 = icmp eq i64 %hi.sroa.0.0.i.i.i, 0, !dbg !3068
  br i1 %33, label %_ZN5piper11maybe_yield17h43489937512e392bE.exit, label %bb20, !dbg !3068

_ZN5piper11maybe_yield17h43489937512e392bE.exit:  ; preds = %_ZN8fastrand3Rng5usize17h4d21b934db248c15E.exit.i
  %self.i = load ptr, ptr %0, align 8, !dbg !3069, !alias.scope !2874, !noalias !2870, !nonnull !27, !align !308, !noundef !27
  call void @llvm.dbg.value(metadata ptr %self.i, metadata !3070, metadata !DIExpression()), !dbg !3077
  %_8.i = load ptr, ptr %self.i, align 8, !dbg !3079, !noalias !3080, !nonnull !27, !align !308, !noundef !27
  %34 = getelementptr inbounds i8, ptr %_8.i, i64 16, !dbg !3079
  %_6.i = load ptr, ptr %34, align 8, !dbg !3079, !noalias !3080, !nonnull !27, !noundef !27
  %35 = getelementptr inbounds i8, ptr %self.i, i64 8, !dbg !3081
  %_7.i = load ptr, ptr %35, align 8, !dbg !3081, !noalias !3080, !noundef !27
  tail call void %_6.i(ptr noundef %_7.i), !dbg !3079, !noalias !3080
  br label %bb31, !dbg !3082

bb20:                                             ; preds = %_ZN8fastrand3Rng5usize17h4d21b934db248c15E.exit.i, %"_ZN4core3ptr72drop_in_place$LT$core..option..Option$LT$core..task..wake..Waker$GT$$GT$17h4eda3adaad99d5b1E.exit"
  tail call void @llvm.dbg.value(metadata ptr undef, metadata !2592, metadata !DIExpression()), !dbg !3083
  tail call void @llvm.dbg.value(metadata ptr undef, metadata !3084, metadata !DIExpression(DW_OP_deref)), !dbg !3095
  tail call void @llvm.dbg.value(metadata i64 0, metadata !2597, metadata !DIExpression()), !dbg !3097
  %a65.pre = load i64, ptr %5, align 8, !dbg !3098
  %b67.pre = load i64, ptr %6, align 8, !dbg !3099
  %self74.pre = load ptr, ptr %self, align 8, !dbg !3100
  %36 = getelementptr inbounds i8, ptr %self74.pre, i64 80
  %_145 = getelementptr inbounds i8, ptr %self74.pre, i64 16
  %_73 = getelementptr inbounds i8, ptr %self74.pre, i64 56
  br label %bb21, !dbg !3104

bb21:                                             ; preds = %bb24, %bb20
  %a65 = phi i64 [ %a65.pre, %bb20 ], [ %_66., %bb24 ], !dbg !3098
  %dest.sroa.3.0 = phi i64 [ %2, %bb20 ], [ %new_len.i.i.i, %bb24 ], !dbg !3105
  %dest.sroa.0.0 = phi ptr [ %1, %bb20 ], [ %data.i.i.i, %bb24 ], !dbg !3105
  %count.sroa.0.0 = phi i64 [ 0, %bb20 ], [ %40, %bb24 ], !dbg !3083
  tail call void @llvm.dbg.value(metadata ptr %dest.sroa.0.0, metadata !2575, metadata !DIExpression(DW_OP_LLVM_fragment, 0, 64)), !dbg !2658
  tail call void @llvm.dbg.value(metadata i64 %dest.sroa.3.0, metadata !2575, metadata !DIExpression(DW_OP_LLVM_fragment, 64, 64)), !dbg !2658
  tail call void @llvm.dbg.value(metadata i64 %count.sroa.0.0, metadata !2597, metadata !DIExpression()), !dbg !3097
  tail call void @llvm.dbg.value(metadata i64 %a65, metadata !2745, metadata !DIExpression()), !dbg !2755
  tail call void @llvm.dbg.value(metadata i64 %b67.pre, metadata !2747, metadata !DIExpression()), !dbg !2755
  %_122.not = icmp ugt i64 %a65, %b67.pre, !dbg !3106
  %37 = sub i64 %b67.pre, %a65, !dbg !3106
  %38 = select i1 %_122.not, i64 %_81, i64 0, !dbg !3106
  %other.sroa.0.0 = add i64 %37, %38, !dbg !3106
  call void @llvm.dbg.value(metadata i64 131072, metadata !3107, metadata !DIExpression()), !dbg !3120
  call void @llvm.dbg.value(metadata i64 %other.sroa.0.0, metadata !3116, metadata !DIExpression()), !dbg !3120
  call void @llvm.dbg.declare(metadata ptr undef, metadata !3117, metadata !DIExpression()), !dbg !3136
  tail call void @llvm.dbg.value(metadata i64 poison, metadata !3130, metadata !DIExpression()), !dbg !3137
  tail call void @llvm.dbg.value(metadata i64 %a65, metadata !3091, metadata !DIExpression()), !dbg !3095
  %_125 = icmp ult i64 %a65, %4, !dbg !3139
  %39 = select i1 %_125, i64 0, i64 %4, !dbg !3139
  %_49.sroa.0.0 = sub i64 %a65, %39, !dbg !3139
  %other71 = sub i64 %4, %_49.sroa.0.0, !dbg !3140
  tail call void @llvm.dbg.value(metadata i64 %other71, metadata !3132, metadata !DIExpression()), !dbg !3137
  call void @llvm.dbg.value(metadata i64 poison, metadata !3107, metadata !DIExpression()), !dbg !3141
  call void @llvm.dbg.value(metadata i64 %other71, metadata !3116, metadata !DIExpression()), !dbg !3141
  call void @llvm.dbg.declare(metadata ptr undef, metadata !3117, metadata !DIExpression()), !dbg !3143
  %_0.sroa.0.0.sroa.speculated.i = tail call i64 @llvm.umin.i64(i64 %other.sroa.0.0, i64 %other71), !dbg !3141
  tail call void @llvm.dbg.value(metadata i64 poison, metadata !2599, metadata !DIExpression()), !dbg !3144
  tail call void @llvm.dbg.value(metadata ptr %self, metadata !2673, metadata !DIExpression()), !dbg !3145
  tail call void @llvm.dbg.value(metadata ptr %self, metadata !2695, metadata !DIExpression()), !dbg !3146
  tail call void @llvm.dbg.value(metadata ptr %self, metadata !2717, metadata !DIExpression()), !dbg !3147
  %self77 = load ptr, ptr %36, align 8, !dbg !3103, !noundef !27, !unsafe_inst !429
  tail call void @llvm.dbg.value(metadata ptr %self77, metadata !3148, metadata !DIExpression()), !dbg !3155
  tail call void @llvm.dbg.value(metadata i64 %_49.sroa.0.0, metadata !3154, metadata !DIExpression()), !dbg !3155
  %_52 = getelementptr inbounds i8, ptr %self77, i64 %_49.sroa.0.0, !dbg !3157, !unsafe_inst !429
  tail call void @llvm.dbg.value(metadata ptr %_52, metadata !2601, metadata !DIExpression(DW_OP_LLVM_fragment, 0, 64)), !dbg !3105
  tail call void @llvm.dbg.value(metadata i64 poison, metadata !2601, metadata !DIExpression(DW_OP_LLVM_fragment, 64, 64)), !dbg !3105
  call void @llvm.dbg.value(metadata ptr undef, metadata !3158, metadata !DIExpression()), !dbg !3174
  call void @llvm.dbg.value(metadata ptr %_52, metadata !3169, metadata !DIExpression(DW_OP_LLVM_fragment, 0, 64)), !dbg !3174
  call void @llvm.dbg.value(metadata i64 poison, metadata !3169, metadata !DIExpression(DW_OP_LLVM_fragment, 64, 64)), !dbg !3174
  call void @llvm.dbg.value(metadata i64 %dest.sroa.3.0, metadata !3176, metadata !DIExpression()), !dbg !3181
  call void @llvm.dbg.value(metadata i64 poison, metadata !3180, metadata !DIExpression()), !dbg !3181
  call void @llvm.dbg.value(metadata i64 %dest.sroa.3.0, metadata !3107, metadata !DIExpression()), !dbg !3183
  call void @llvm.dbg.value(metadata i64 poison, metadata !3116, metadata !DIExpression()), !dbg !3183
  call void @llvm.dbg.declare(metadata ptr undef, metadata !3117, metadata !DIExpression()), !dbg !3185
  %_0.sroa.0.0.sroa.speculated.i112 = tail call i64 @llvm.umin.i64(i64 %_0.sroa.0.0.sroa.speculated.i, i64 %dest.sroa.3.0), !dbg !3183
  %_0.sroa.0.0.sroa.speculated.i.i = tail call i64 @llvm.umin.i64(i64 %_0.sroa.0.0.sroa.speculated.i112, i64 131072), !dbg !3183
  call void @llvm.dbg.value(metadata i64 %_0.sroa.0.0.sroa.speculated.i.i, metadata !3170, metadata !DIExpression()), !dbg !3186
  call void @llvm.dbg.value(metadata i64 0, metadata !3187, metadata !DIExpression(DW_OP_LLVM_fragment, 0, 64)), !dbg !3207
  call void @llvm.dbg.value(metadata i64 %_0.sroa.0.0.sroa.speculated.i.i, metadata !3187, metadata !DIExpression(DW_OP_LLVM_fragment, 64, 64)), !dbg !3207
  call void @llvm.dbg.value(metadata ptr %dest.sroa.0.0, metadata !3204, metadata !DIExpression(DW_OP_LLVM_fragment, 0, 64)), !dbg !3207
  call void @llvm.dbg.value(metadata i64 %dest.sroa.3.0, metadata !3204, metadata !DIExpression(DW_OP_LLVM_fragment, 64, 64)), !dbg !3207
  call void @llvm.dbg.value(metadata ptr %dest.sroa.0.0, metadata !3236, metadata !DIExpression(DW_OP_LLVM_fragment, 0, 64)), !dbg !3244
  call void @llvm.dbg.value(metadata i64 %_0.sroa.0.0.sroa.speculated.i.i, metadata !3236, metadata !DIExpression(DW_OP_LLVM_fragment, 64, 64)), !dbg !3244
  call void @llvm.dbg.value(metadata ptr %_52, metadata !3243, metadata !DIExpression(DW_OP_LLVM_fragment, 0, 64)), !dbg !3244
  call void @llvm.dbg.value(metadata i64 %_0.sroa.0.0.sroa.speculated.i.i, metadata !3243, metadata !DIExpression(DW_OP_LLVM_fragment, 64, 64)), !dbg !3244
  call void @llvm.dbg.value(metadata ptr %_52, metadata !3246, metadata !DIExpression()), !dbg !3256
  call void @llvm.dbg.value(metadata ptr %dest.sroa.0.0, metadata !3254, metadata !DIExpression()), !dbg !3256
  call void @llvm.dbg.value(metadata i64 %_0.sroa.0.0.sroa.speculated.i.i, metadata !3255, metadata !DIExpression()), !dbg !3256
  tail call void @llvm.memcpy.p0.p0.i64(ptr nonnull align 1 %dest.sroa.0.0, ptr nonnull align 1 %_52, i64 %_0.sroa.0.0.sroa.speculated.i.i, i1 false), !dbg !3258, !alias.scope !3259, !noalias !3263
  call void @llvm.dbg.value(metadata ptr %dest.sroa.0.0, metadata !3172, metadata !DIExpression(DW_OP_LLVM_fragment, 0, 64)), !dbg !3267
  call void @llvm.dbg.value(metadata ptr %dest.sroa.0.0, metadata !3268, metadata !DIExpression(DW_OP_LLVM_fragment, 0, 64)), !dbg !3280
  call void @llvm.dbg.value(metadata i64 %dest.sroa.3.0, metadata !3172, metadata !DIExpression(DW_OP_LLVM_fragment, 64, 64)), !dbg !3267
  call void @llvm.dbg.value(metadata i64 %dest.sroa.3.0, metadata !3268, metadata !DIExpression(DW_OP_LLVM_fragment, 64, 64)), !dbg !3280
  call void @llvm.dbg.value(metadata i64 %_0.sroa.0.0.sroa.speculated.i.i, metadata !3277, metadata !DIExpression()), !dbg !3280
  call void @llvm.dbg.value(metadata i64 %_0.sroa.0.0.sroa.speculated.i.i, metadata !3282, metadata !DIExpression()), !dbg !3289
  call void @llvm.dbg.value(metadata ptr %dest.sroa.0.0, metadata !3288, metadata !DIExpression(DW_OP_LLVM_fragment, 0, 64)), !dbg !3289
  call void @llvm.dbg.value(metadata i64 %dest.sroa.3.0, metadata !3288, metadata !DIExpression(DW_OP_LLVM_fragment, 64, 64)), !dbg !3289
  call void @llvm.dbg.value(metadata i64 %_0.sroa.0.0.sroa.speculated.i.i, metadata !3291, metadata !DIExpression()), !dbg !3298
  call void @llvm.dbg.value(metadata ptr %dest.sroa.0.0, metadata !3297, metadata !DIExpression(DW_OP_LLVM_fragment, 0, 64)), !dbg !3298
  call void @llvm.dbg.value(metadata i64 %dest.sroa.3.0, metadata !3297, metadata !DIExpression(DW_OP_LLVM_fragment, 64, 64)), !dbg !3298
  call void @llvm.dbg.value(metadata i64 %_0.sroa.0.0.sroa.speculated.i.i, metadata !3187, metadata !DIExpression(DW_OP_LLVM_fragment, 0, 64)), !dbg !3300
  call void @llvm.dbg.value(metadata i64 %dest.sroa.3.0, metadata !3187, metadata !DIExpression(DW_OP_LLVM_fragment, 64, 64)), !dbg !3300
  call void @llvm.dbg.value(metadata ptr %dest.sroa.0.0, metadata !3204, metadata !DIExpression(DW_OP_LLVM_fragment, 0, 64)), !dbg !3300
  call void @llvm.dbg.value(metadata i64 %dest.sroa.3.0, metadata !3204, metadata !DIExpression(DW_OP_LLVM_fragment, 64, 64)), !dbg !3300
  call void @llvm.dbg.value(metadata i64 %dest.sroa.3.0, metadata !3302, metadata !DIExpression()), !dbg !3307
  call void @llvm.dbg.value(metadata i64 %_0.sroa.0.0.sroa.speculated.i.i, metadata !3306, metadata !DIExpression()), !dbg !3307
  call void @llvm.dbg.value(metadata !DIArgList(i64 %dest.sroa.3.0, i64 %_0.sroa.0.0.sroa.speculated.i.i), metadata !3205, metadata !DIExpression(DW_OP_LLVM_arg, 0, DW_OP_LLVM_arg, 1, DW_OP_minus, DW_OP_stack_value)), !dbg !3309
  call void @llvm.dbg.value(metadata ptr %dest.sroa.0.0, metadata !3310, metadata !DIExpression()), !dbg !3315
  call void @llvm.dbg.value(metadata i64 %_0.sroa.0.0.sroa.speculated.i.i, metadata !3314, metadata !DIExpression()), !dbg !3315
  tail call void @llvm.dbg.value(metadata !DIArgList(ptr %dest.sroa.0.0, i64 %_0.sroa.0.0.sroa.speculated.i.i), metadata !2575, metadata !DIExpression(DW_OP_LLVM_arg, 0, DW_OP_LLVM_arg, 1, DW_OP_constu, 1, DW_OP_mul, DW_OP_plus, DW_OP_stack_value, DW_OP_LLVM_fragment, 0, 64)), !dbg !2658
  tail call void @llvm.dbg.value(metadata !DIArgList(i64 %dest.sroa.3.0, i64 %_0.sroa.0.0.sroa.speculated.i.i), metadata !2575, metadata !DIExpression(DW_OP_LLVM_arg, 0, DW_OP_LLVM_arg, 1, DW_OP_minus, DW_OP_stack_value, DW_OP_LLVM_fragment, 64, 64)), !dbg !2658
  tail call void @llvm.dbg.value(metadata i64 %_0.sroa.0.0.sroa.speculated.i.i, metadata !2603, metadata !DIExpression()), !dbg !3317
  %40 = add i64 %_0.sroa.0.0.sroa.speculated.i.i, %count.sroa.0.0, !dbg !3318
  tail call void @llvm.dbg.value(metadata i64 %40, metadata !2597, metadata !DIExpression()), !dbg !3097
  %41 = icmp eq i64 %_0.sroa.0.0.sroa.speculated.i112, 0, !dbg !3319
  br i1 %41, label %bb31, label %bb24, !dbg !3319

bb24:                                             ; preds = %bb21
  %data.i.i.i = getelementptr inbounds i8, ptr %dest.sroa.0.0, i64 %_0.sroa.0.0.sroa.speculated.i.i, !dbg !3320
  tail call void @llvm.dbg.value(metadata ptr %data.i.i.i, metadata !2575, metadata !DIExpression(DW_OP_LLVM_fragment, 0, 64)), !dbg !2658
  %new_len.i.i.i = sub nuw i64 %dest.sroa.3.0, %_0.sroa.0.0.sroa.speculated.i.i, !dbg !3321
  call void @llvm.dbg.value(metadata i64 %new_len.i.i.i, metadata !3205, metadata !DIExpression()), !dbg !3309
  tail call void @llvm.dbg.value(metadata i64 %new_len.i.i.i, metadata !2575, metadata !DIExpression(DW_OP_LLVM_fragment, 64, 64)), !dbg !2658
  %_66 = add i64 %_0.sroa.0.0.sroa.speculated.i.i, %a65, !dbg !3322
  %_65 = icmp ult i64 %_66, %_81, !dbg !3322
  %_66. = select i1 %_65, i64 %_66, i64 0, !dbg !3323
  store i64 %_66., ptr %5, align 8, !dbg !3317
  tail call void @llvm.dbg.value(metadata ptr %self74.pre, metadata !2654, metadata !DIExpression(DW_OP_plus_uconst, 16, DW_OP_stack_value)), !dbg !2656
  tail call void @llvm.dbg.value(metadata i64 %_66., metadata !2655, metadata !DIExpression()), !dbg !2656
  tail call void @llvm.dbg.value(metadata ptr %self74.pre, metadata !2766, metadata !DIExpression(DW_OP_plus_uconst, 16, DW_OP_stack_value)), !dbg !3324
  tail call void @llvm.dbg.value(metadata i8 1, metadata !3326, metadata !DIExpression()), !dbg !3333
  tail call void @llvm.dbg.value(metadata ptr %_145, metadata !3331, metadata !DIExpression()), !dbg !3333
  tail call void @llvm.dbg.value(metadata i64 %_66., metadata !3332, metadata !DIExpression()), !dbg !3333
  store atomic i64 %_66., ptr %_145 release, align 8, !dbg !3335
; call atomic_waker::AtomicWaker::wake
  tail call void @_ZN12atomic_waker11AtomicWaker4wake17h00aa0b01cd3f4617E(ptr noundef nonnull align 8 %_73), !dbg !3336
  br label %bb21
}

; <piper::Reader as futures_io::if_std::AsyncRead>::poll_read
; Function Attrs: nonlazybind uwtable
define { i64, ptr } @"_ZN63_$LT$piper..Reader$u20$as$u20$futures_io..if_std..AsyncRead$GT$9poll_read17h04379fdcd98ca146E"(ptr noalias nocapture noundef align 8 dereferenceable(32) %0, ptr noalias nocapture noundef readonly align 8 dereferenceable(32) %cx, ptr noalias nocapture noundef nonnull writeonly align 1 %buf.0, i64 noundef %buf.1) unnamed_addr #4 !dbg !3337 {
start:
  call void @llvm.dbg.declare(metadata ptr undef, metadata !3437, metadata !DIExpression()), !dbg !3454
  tail call void @llvm.dbg.value(metadata ptr %0, metadata !3434, metadata !DIExpression()), !dbg !3456
  tail call void @llvm.dbg.value(metadata ptr %cx, metadata !3435, metadata !DIExpression()), !dbg !3456
  tail call void @llvm.dbg.value(metadata ptr %buf.0, metadata !3436, metadata !DIExpression(DW_OP_LLVM_fragment, 0, 64)), !dbg !3456
  tail call void @llvm.dbg.value(metadata i64 %buf.1, metadata !3436, metadata !DIExpression(DW_OP_LLVM_fragment, 64, 64)), !dbg !3456
  call void @llvm.dbg.value(metadata ptr %0, metadata !2497, metadata !DIExpression()), !dbg !3457
  call void @llvm.dbg.value(metadata ptr %cx, metadata !2498, metadata !DIExpression()), !dbg !3457
  call void @llvm.dbg.value(metadata ptr %buf.0, metadata !2499, metadata !DIExpression(DW_OP_LLVM_fragment, 0, 64)), !dbg !3457
  call void @llvm.dbg.value(metadata i64 %buf.1, metadata !2499, metadata !DIExpression(DW_OP_LLVM_fragment, 64, 64)), !dbg !3457
; call piper::Reader::drain_inner
  %1 = tail call fastcc { i64, i64 } @_ZN5piper6Reader11drain_inner17he013291dbf9de137E(ptr noalias noundef nonnull align 8 dereferenceable(32) %0, ptr noalias noundef nonnull align 8 dereferenceable_or_null(32) %cx, ptr noalias noundef nonnull align 1 %buf.0, i64 noundef %buf.1), !dbg !3459
  %2 = extractvalue { i64, i64 } %1, 0, !dbg !3459
  %switch.i = icmp eq i64 %2, 0, !dbg !3460
  %3 = extractvalue { i64, i64 } %1, 1, !dbg !3460
  %_0.sroa.3.0.i = select i1 %switch.i, i64 %3, i64 undef, !dbg !3460
  tail call void @llvm.dbg.value(metadata i64 %2, metadata !3451, metadata !DIExpression(DW_OP_LLVM_fragment, 0, 64)), !dbg !3461
  tail call void @llvm.dbg.value(metadata i64 poison, metadata !3451, metadata !DIExpression(DW_OP_LLVM_fragment, 64, 64)), !dbg !3461
  %4 = inttoptr i64 %_0.sroa.3.0.i to ptr
  %spec.select = select i1 %switch.i, ptr %4, ptr undef, !dbg !3462
  %spec.select4 = select i1 %switch.i, i64 0, i64 2, !dbg !3462
  %5 = insertvalue { i64, ptr } poison, i64 %spec.select4, 0, !dbg !3463
  %6 = insertvalue { i64, ptr } %5, ptr %spec.select, 1, !dbg !3463
  ret { i64, ptr } %6, !dbg !3463
}

; piper::Writer::len
; Function Attrs: mustprogress nofree norecurse nounwind nonlazybind willreturn memory(readwrite, inaccessiblemem: none) uwtable
define noundef i64 @_ZN5piper6Writer3len17hd77f398b310ef2eaE(ptr noalias nocapture noundef readonly align 8 dereferenceable(40) %self) unnamed_addr #7 !dbg !3464 {
start:
  tail call void @llvm.dbg.value(metadata ptr %self, metadata !3470, metadata !DIExpression()), !dbg !3471
  tail call void @llvm.dbg.value(metadata ptr %self, metadata !3472, metadata !DIExpression()), !dbg !3476
  tail call void @llvm.dbg.value(metadata ptr %self, metadata !3478, metadata !DIExpression()), !dbg !3482
  tail call void @llvm.dbg.value(metadata ptr %self, metadata !3484, metadata !DIExpression()), !dbg !3488
  %self3 = load ptr, ptr %self, align 8, !dbg !3490, !nonnull !27, !noundef !27
  %_2 = getelementptr inbounds i8, ptr %self3, i64 16, !dbg !3477
  tail call void @llvm.dbg.value(metadata i8 2, metadata !2208, metadata !DIExpression()), !dbg !3491
  tail call void @llvm.dbg.value(metadata i8 2, metadata !2218, metadata !DIExpression()), !dbg !3494
  tail call void @llvm.dbg.value(metadata ptr %_2, metadata !2226, metadata !DIExpression()), !dbg !3496
  tail call void @llvm.dbg.value(metadata ptr %_2, metadata !2215, metadata !DIExpression()), !dbg !3491
  tail call void @llvm.dbg.value(metadata i8 2, metadata !2235, metadata !DIExpression()), !dbg !3497
  tail call void @llvm.dbg.value(metadata ptr %_2, metadata !2241, metadata !DIExpression()), !dbg !3497
  %0 = load atomic i64, ptr %_2 acquire, align 8, !dbg !3499
  tail call void @llvm.dbg.value(metadata i64 %0, metadata !2227, metadata !DIExpression()), !dbg !3500
  tail call void @llvm.dbg.value(metadata ptr %_2, metadata !2216, metadata !DIExpression(DW_OP_plus_uconst, 8, DW_OP_stack_value)), !dbg !3494
  tail call void @llvm.dbg.value(metadata ptr %_2, metadata !2246, metadata !DIExpression(DW_OP_plus_uconst, 8, DW_OP_stack_value)), !dbg !3501
  %_15.i = getelementptr inbounds i8, ptr %self3, i64 24, !dbg !3503
  tail call void @llvm.dbg.value(metadata i8 2, metadata !2235, metadata !DIExpression()), !dbg !3504
  tail call void @llvm.dbg.value(metadata ptr %_15.i, metadata !2241, metadata !DIExpression()), !dbg !3504
  %1 = load atomic i64, ptr %_15.i acquire, align 8, !dbg !3506
  tail call void @llvm.dbg.value(metadata i64 %1, metadata !2229, metadata !DIExpression()), !dbg !3507
  %_6.not.i = icmp ugt i64 %0, %1, !dbg !3508
  br i1 %_6.not.i, label %bb2.i, label %bb1.i, !dbg !3508

bb2.i:                                            ; preds = %start
  %2 = getelementptr inbounds i8, ptr %self3, i64 88, !dbg !3509
  %_8.i = load i64, ptr %2, align 8, !dbg !3509, !noundef !27
  %_7.i = shl i64 %_8.i, 1, !dbg !3510
  %_9.neg.i = sub i64 %1, %0, !dbg !3511
  %3 = add i64 %_9.neg.i, %_7.i, !dbg !3510
  br label %_ZN5piper4Pipe3len17h0a7b64a8c92444e4E.exit, !dbg !3512

bb1.i:                                            ; preds = %start
  %4 = sub i64 %1, %0, !dbg !3513
  br label %_ZN5piper4Pipe3len17h0a7b64a8c92444e4E.exit, !dbg !3512

_ZN5piper4Pipe3len17h0a7b64a8c92444e4E.exit:      ; preds = %bb2.i, %bb1.i
  %_0.sroa.0.0.i = phi i64 [ %4, %bb1.i ], [ %3, %bb2.i ], !dbg !3507
  ret i64 %_0.sroa.0.0.i, !dbg !3514
}

; piper::Writer::is_empty
; Function Attrs: mustprogress nofree norecurse nounwind nonlazybind willreturn memory(readwrite, inaccessiblemem: none) uwtable
define noundef zeroext i1 @_ZN5piper6Writer8is_empty17ha78ba1972d0aaa71E(ptr noalias nocapture noundef readonly align 8 dereferenceable(40) %self) unnamed_addr #7 !dbg !3515 {
start:
  tail call void @llvm.dbg.value(metadata ptr %self, metadata !3520, metadata !DIExpression()), !dbg !3521
  tail call void @llvm.dbg.value(metadata ptr %self, metadata !3522, metadata !DIExpression()), !dbg !3526
  tail call void @llvm.dbg.value(metadata ptr %self, metadata !3528, metadata !DIExpression()), !dbg !3532
  tail call void @llvm.dbg.value(metadata ptr %self, metadata !3534, metadata !DIExpression()), !dbg !3538
  %self3 = load ptr, ptr %self, align 8, !dbg !3540, !nonnull !27, !noundef !27
  %_3 = getelementptr inbounds i8, ptr %self3, i64 16, !dbg !3527
  tail call void @llvm.dbg.value(metadata i8 2, metadata !2208, metadata !DIExpression()), !dbg !3541
  tail call void @llvm.dbg.value(metadata i8 2, metadata !2218, metadata !DIExpression()), !dbg !3544
  tail call void @llvm.dbg.value(metadata ptr %_3, metadata !2226, metadata !DIExpression()), !dbg !3546
  tail call void @llvm.dbg.value(metadata ptr %_3, metadata !2215, metadata !DIExpression()), !dbg !3541
  tail call void @llvm.dbg.value(metadata i8 2, metadata !2235, metadata !DIExpression()), !dbg !3547
  tail call void @llvm.dbg.value(metadata ptr %_3, metadata !2241, metadata !DIExpression()), !dbg !3547
  %0 = load atomic i64, ptr %_3 acquire, align 8, !dbg !3549
  tail call void @llvm.dbg.value(metadata i64 %0, metadata !2227, metadata !DIExpression()), !dbg !3550
  tail call void @llvm.dbg.value(metadata ptr %_3, metadata !2216, metadata !DIExpression(DW_OP_plus_uconst, 8, DW_OP_stack_value)), !dbg !3544
  tail call void @llvm.dbg.value(metadata ptr %_3, metadata !2246, metadata !DIExpression(DW_OP_plus_uconst, 8, DW_OP_stack_value)), !dbg !3551
  %_15.i = getelementptr inbounds i8, ptr %self3, i64 24, !dbg !3553
  tail call void @llvm.dbg.value(metadata i8 2, metadata !2235, metadata !DIExpression()), !dbg !3554
  tail call void @llvm.dbg.value(metadata ptr %_15.i, metadata !2241, metadata !DIExpression()), !dbg !3554
  %1 = load atomic i64, ptr %_15.i acquire, align 8, !dbg !3556
  tail call void @llvm.dbg.value(metadata i64 %1, metadata !2229, metadata !DIExpression()), !dbg !3557
  %_6.not.i = icmp ugt i64 %0, %1, !dbg !3558
  br i1 %_6.not.i, label %bb2.i, label %bb1.i, !dbg !3558

bb2.i:                                            ; preds = %start
  %2 = getelementptr inbounds i8, ptr %self3, i64 88, !dbg !3559
  %_8.i = load i64, ptr %2, align 8, !dbg !3559, !noundef !27
  %_7.i = shl i64 %_8.i, 1, !dbg !3560
  %_9.neg.i = sub i64 %1, %0, !dbg !3561
  %3 = add i64 %_9.neg.i, %_7.i, !dbg !3560
  br label %_ZN5piper4Pipe3len17h0a7b64a8c92444e4E.exit, !dbg !3562

bb1.i:                                            ; preds = %start
  %4 = sub i64 %1, %0, !dbg !3563
  br label %_ZN5piper4Pipe3len17h0a7b64a8c92444e4E.exit, !dbg !3562

_ZN5piper4Pipe3len17h0a7b64a8c92444e4E.exit:      ; preds = %bb2.i, %bb1.i
  %_0.sroa.0.0.i = phi i64 [ %4, %bb1.i ], [ %3, %bb2.i ], !dbg !3557
  %_0 = icmp eq i64 %_0.sroa.0.0.i, 0, !dbg !3527
  ret i1 %_0, !dbg !3564
}

; piper::Writer::is_full
; Function Attrs: mustprogress nofree norecurse nounwind nonlazybind willreturn memory(readwrite, inaccessiblemem: none) uwtable
define noundef zeroext i1 @_ZN5piper6Writer7is_full17h2498cc35ae55026cE(ptr noalias nocapture noundef readonly align 8 dereferenceable(40) %self) unnamed_addr #7 !dbg !3565 {
start:
  tail call void @llvm.dbg.value(metadata ptr %self, metadata !3568, metadata !DIExpression()), !dbg !3569
  tail call void @llvm.dbg.value(metadata ptr %self, metadata !3570, metadata !DIExpression()), !dbg !3576
  tail call void @llvm.dbg.value(metadata ptr %self, metadata !3578, metadata !DIExpression()), !dbg !3584
  tail call void @llvm.dbg.value(metadata ptr %self, metadata !3586, metadata !DIExpression()), !dbg !3592
  %self3 = load ptr, ptr %self, align 8, !dbg !3594, !nonnull !27, !noundef !27
  %_3 = getelementptr inbounds i8, ptr %self3, i64 16, !dbg !3577
  tail call void @llvm.dbg.value(metadata i8 2, metadata !2208, metadata !DIExpression()), !dbg !3595
  tail call void @llvm.dbg.value(metadata i8 2, metadata !2218, metadata !DIExpression()), !dbg !3598
  tail call void @llvm.dbg.value(metadata ptr %_3, metadata !2226, metadata !DIExpression()), !dbg !3600
  tail call void @llvm.dbg.value(metadata ptr %_3, metadata !2215, metadata !DIExpression()), !dbg !3595
  tail call void @llvm.dbg.value(metadata i8 2, metadata !2235, metadata !DIExpression()), !dbg !3601
  tail call void @llvm.dbg.value(metadata ptr %_3, metadata !2241, metadata !DIExpression()), !dbg !3601
  %0 = load atomic i64, ptr %_3 acquire, align 8, !dbg !3603
  tail call void @llvm.dbg.value(metadata i64 %0, metadata !2227, metadata !DIExpression()), !dbg !3604
  tail call void @llvm.dbg.value(metadata ptr %_3, metadata !2216, metadata !DIExpression(DW_OP_plus_uconst, 8, DW_OP_stack_value)), !dbg !3598
  tail call void @llvm.dbg.value(metadata ptr %_3, metadata !2246, metadata !DIExpression(DW_OP_plus_uconst, 8, DW_OP_stack_value)), !dbg !3605
  %_15.i = getelementptr inbounds i8, ptr %self3, i64 24, !dbg !3607
  tail call void @llvm.dbg.value(metadata i8 2, metadata !2235, metadata !DIExpression()), !dbg !3608
  tail call void @llvm.dbg.value(metadata ptr %_15.i, metadata !2241, metadata !DIExpression()), !dbg !3608
  %1 = load atomic i64, ptr %_15.i acquire, align 8, !dbg !3610
  tail call void @llvm.dbg.value(metadata i64 %1, metadata !2229, metadata !DIExpression()), !dbg !3611
  %_6.not.i = icmp ugt i64 %0, %1, !dbg !3612
  br i1 %_6.not.i, label %bb2.i, label %bb1.i, !dbg !3612

bb2.i:                                            ; preds = %start
  %2 = getelementptr inbounds i8, ptr %self3, i64 88, !dbg !3613
  %_8.i = load i64, ptr %2, align 8, !dbg !3613, !noundef !27
  %_7.i = shl i64 %_8.i, 1, !dbg !3614
  %_9.neg.i = sub i64 %1, %0, !dbg !3615
  %3 = add i64 %_9.neg.i, %_7.i, !dbg !3614
  br label %_ZN5piper4Pipe3len17h0a7b64a8c92444e4E.exit, !dbg !3616

bb1.i:                                            ; preds = %start
  %4 = sub i64 %1, %0, !dbg !3617
  %.phi.trans.insert = getelementptr inbounds i8, ptr %self3, i64 88
  %_5.pre = load i64, ptr %.phi.trans.insert, align 8, !dbg !3618
  br label %_ZN5piper4Pipe3len17h0a7b64a8c92444e4E.exit, !dbg !3616

_ZN5piper4Pipe3len17h0a7b64a8c92444e4E.exit:      ; preds = %bb2.i, %bb1.i
  %_5 = phi i64 [ %_5.pre, %bb1.i ], [ %_8.i, %bb2.i ], !dbg !3618
  %_0.sroa.0.0.i = phi i64 [ %4, %bb1.i ], [ %3, %bb2.i ], !dbg !3611
  %_0 = icmp eq i64 %_0.sroa.0.0.i, %_5, !dbg !3577
  ret i1 %_0, !dbg !3619
}

; piper::Writer::is_closed
; Function Attrs: mustprogress nofree norecurse nounwind nonlazybind willreturn memory(readwrite, inaccessiblemem: none) uwtable
define noundef zeroext i1 @_ZN5piper6Writer9is_closed17ha392d485a1909e65E(ptr noalias nocapture noundef readonly align 8 dereferenceable(40) %self) unnamed_addr #7 !dbg !3620 {
start:
  tail call void @llvm.dbg.value(metadata i8 4, metadata !3624, metadata !DIExpression()), !dbg !3629
  tail call void @llvm.dbg.value(metadata ptr %self, metadata !3623, metadata !DIExpression()), !dbg !3631
  tail call void @llvm.dbg.value(metadata ptr %self, metadata !3632, metadata !DIExpression()), !dbg !3636
  tail call void @llvm.dbg.value(metadata ptr %self, metadata !3638, metadata !DIExpression()), !dbg !3642
  tail call void @llvm.dbg.value(metadata ptr %self, metadata !3644, metadata !DIExpression()), !dbg !3648
  %self3 = load ptr, ptr %self, align 8, !dbg !3650, !nonnull !27, !noundef !27
  tail call void @llvm.dbg.value(metadata ptr %self3, metadata !3628, metadata !DIExpression(DW_OP_plus_uconst, 16, DW_OP_plus_uconst, 80, DW_OP_stack_value)), !dbg !3629
  tail call void @llvm.dbg.value(metadata ptr %self3, metadata !3651, metadata !DIExpression(DW_OP_plus_uconst, 16, DW_OP_plus_uconst, 80, DW_OP_stack_value)), !dbg !3655
  %_11 = getelementptr inbounds i8, ptr %self3, i64 96, !dbg !3657
  tail call void @llvm.dbg.value(metadata i8 4, metadata !2416, metadata !DIExpression()), !dbg !3658
  tail call void @llvm.dbg.value(metadata ptr %_11, metadata !2421, metadata !DIExpression()), !dbg !3658
  %0 = load atomic i8, ptr %_11 seq_cst, align 1, !dbg !3660
  %_0 = icmp ne i8 %0, 0, !dbg !3661
  ret i1 %_0, !dbg !3662
}

; piper::Writer::poll_fill_bytes
; Function Attrs: nonlazybind uwtable
define { i64, i64 } @_ZN5piper6Writer15poll_fill_bytes17h7f066a7879c4b681E(ptr noalias nocapture noundef align 8 dereferenceable(40) %self, ptr noalias nocapture noundef readonly align 8 dereferenceable(32) %cx, ptr noalias nocapture noundef nonnull readonly align 1 %bytes.0, i64 noundef %bytes.1) unnamed_addr #4 !dbg !3663 {
start:
  tail call void @llvm.dbg.value(metadata ptr %self, metadata !3668, metadata !DIExpression()), !dbg !3675
  tail call void @llvm.dbg.value(metadata ptr %cx, metadata !3669, metadata !DIExpression()), !dbg !3675
  tail call void @llvm.dbg.value(metadata ptr %bytes.0, metadata !3670, metadata !DIExpression(DW_OP_LLVM_fragment, 0, 64)), !dbg !3675
  tail call void @llvm.dbg.value(metadata i64 %bytes.1, metadata !3670, metadata !DIExpression(DW_OP_LLVM_fragment, 64, 64)), !dbg !3675
; call piper::Writer::fill_inner
  %0 = tail call fastcc { i64, i64 } @_ZN5piper6Writer10fill_inner17h8b539aa315408844E(ptr noalias noundef nonnull align 8 dereferenceable(40) %self, ptr noalias noundef nonnull align 8 dereferenceable_or_null(32) %cx, ptr noalias noundef nonnull readonly align 1 %bytes.0, i64 noundef %bytes.1), !dbg !3676
  %1 = extractvalue { i64, i64 } %0, 0, !dbg !3676
  %switch = icmp eq i64 %1, 0, !dbg !3677
  %2 = extractvalue { i64, i64 } %0, 1, !dbg !3677
  %_0.sroa.3.0 = select i1 %switch, i64 %2, i64 undef, !dbg !3677
  %3 = insertvalue { i64, i64 } %0, i64 %_0.sroa.3.0, 1, !dbg !3678
  ret { i64, i64 } %3, !dbg !3678
}

; piper::Writer::try_fill
; Function Attrs: nonlazybind uwtable
define noundef i64 @_ZN5piper6Writer8try_fill17h3e1e1619cf001bb2E(ptr noalias nocapture noundef align 8 dereferenceable(40) %self, ptr noalias nocapture noundef nonnull readonly align 1 %dest.0, i64 noundef %dest.1) unnamed_addr #4 !dbg !3679 {
start:
  tail call void @llvm.dbg.value(metadata ptr %self, metadata !3684, metadata !DIExpression()), !dbg !3690
  tail call void @llvm.dbg.value(metadata ptr %dest.0, metadata !3685, metadata !DIExpression(DW_OP_LLVM_fragment, 0, 64)), !dbg !3690
  tail call void @llvm.dbg.value(metadata i64 %dest.1, metadata !3685, metadata !DIExpression(DW_OP_LLVM_fragment, 64, 64)), !dbg !3690
; call piper::Writer::fill_inner
  %0 = tail call fastcc { i64, i64 } @_ZN5piper6Writer10fill_inner17h8b539aa315408844E(ptr noalias noundef nonnull align 8 dereferenceable(40) %self, ptr noalias noundef align 8 dereferenceable_or_null(32) null, ptr noalias noundef nonnull readonly align 1 %dest.0, i64 noundef %dest.1), !dbg !3691
  %1 = extractvalue { i64, i64 } %0, 0, !dbg !3691
  %switch = icmp eq i64 %1, 0, !dbg !3692
  %2 = extractvalue { i64, i64 } %0, 1, !dbg !3692
  %_0.sroa.0.0 = select i1 %switch, i64 %2, i64 0, !dbg !3692
  ret i64 %_0.sroa.0.0, !dbg !3693
}

; piper::Writer::fill_inner
; Function Attrs: inlinehint nonlazybind uwtable
define internal fastcc { i64, i64 } @_ZN5piper6Writer10fill_inner17h8b539aa315408844E(ptr noalias nocapture noundef align 8 dereferenceable(40) %self, ptr noalias nocapture noundef readonly align 8 dereferenceable_or_null(32) %0, ptr noalias nocapture noundef nonnull readonly align 1 %1, i64 noundef %2) unnamed_addr #8 personality ptr @rust_eh_personality !dbg !3694 {
start:
  tail call void @llvm.dbg.value(metadata i8 0, metadata !3743, metadata !DIExpression()), !dbg !3754
  tail call void @llvm.dbg.value(metadata i8 2, metadata !3756, metadata !DIExpression()), !dbg !3764
  tail call void @llvm.dbg.value(metadata i8 4, metadata !3766, metadata !DIExpression()), !dbg !3770
  tail call void @llvm.dbg.value(metadata i8 2, metadata !3763, metadata !DIExpression()), !dbg !3772
  tail call void @llvm.dbg.value(metadata i8 0, metadata !3750, metadata !DIExpression()), !dbg !3774
  tail call void @llvm.dbg.value(metadata i8 0, metadata !3776, metadata !DIExpression()), !dbg !3784
  tail call void @llvm.dbg.value(metadata i8 0, metadata !3786, metadata !DIExpression()), !dbg !3792
  tail call void @llvm.dbg.value(metadata i8 0, metadata !3753, metadata !DIExpression()), !dbg !3794
  tail call void @llvm.dbg.value(metadata i8 1, metadata !3796, metadata !DIExpression()), !dbg !3802
  tail call void @llvm.dbg.value(metadata ptr %0, metadata !3705, metadata !DIExpression()), !dbg !3804
  tail call void @llvm.dbg.value(metadata ptr %1, metadata !3706, metadata !DIExpression(DW_OP_LLVM_fragment, 0, 64)), !dbg !3804
  tail call void @llvm.dbg.value(metadata i64 %2, metadata !3706, metadata !DIExpression(DW_OP_LLVM_fragment, 64, 64)), !dbg !3804
  tail call void @llvm.dbg.value(metadata ptr %self, metadata !3704, metadata !DIExpression()), !dbg !3804
  tail call void @llvm.dbg.value(metadata ptr %self, metadata !3805, metadata !DIExpression()), !dbg !3831
  tail call void @llvm.dbg.value(metadata ptr %self, metadata !3833, metadata !DIExpression()), !dbg !3859
  tail call void @llvm.dbg.value(metadata ptr %self, metadata !3861, metadata !DIExpression()), !dbg !3887
  %self13 = load ptr, ptr %self, align 8, !dbg !3889, !nonnull !27, !noundef !27
  tail call void @llvm.dbg.value(metadata ptr %self13, metadata !3747, metadata !DIExpression(DW_OP_plus_uconst, 16, DW_OP_plus_uconst, 80, DW_OP_stack_value)), !dbg !3754
  tail call void @llvm.dbg.value(metadata ptr %self13, metadata !3890, metadata !DIExpression(DW_OP_plus_uconst, 16, DW_OP_plus_uconst, 80, DW_OP_stack_value)), !dbg !3898
  %_107 = getelementptr inbounds i8, ptr %self13, i64 96, !dbg !3900
  tail call void @llvm.dbg.value(metadata i8 0, metadata !2416, metadata !DIExpression()), !dbg !3901
  tail call void @llvm.dbg.value(metadata ptr %_107, metadata !2421, metadata !DIExpression()), !dbg !3901
  %3 = load atomic i8, ptr %_107 monotonic, align 1, !dbg !3903
  %4 = icmp eq i8 %3, 0, !dbg !3832
  br i1 %4, label %bb2, label %bb39, !dbg !3832

bb2:                                              ; preds = %start
  %5 = getelementptr inbounds i8, ptr %self13, i64 88, !dbg !3904
  %6 = load i64, ptr %5, align 8, !dbg !3904, !noundef !27
  tail call void @llvm.dbg.value(metadata i64 %6, metadata !3707, metadata !DIExpression()), !dbg !3905
  tail call void @llvm.dbg.value(metadata ptr undef, metadata !3709, metadata !DIExpression()), !dbg !3906
  tail call void @llvm.dbg.value(metadata ptr undef, metadata !3907, metadata !DIExpression(DW_OP_deref)), !dbg !3928
  tail call void @llvm.dbg.value(metadata ptr undef, metadata !3919, metadata !DIExpression(DW_OP_deref)), !dbg !3930
  tail call void @llvm.dbg.value(metadata ptr undef, metadata !3923, metadata !DIExpression(DW_OP_deref)), !dbg !3932
  tail call void @llvm.dbg.value(metadata ptr undef, metadata !3927, metadata !DIExpression(DW_OP_deref)), !dbg !3934
  %7 = getelementptr inbounds i8, ptr %self, i64 8, !dbg !3936
  %a = load i64, ptr %7, align 8, !dbg !3936, !noundef !27
  tail call void @llvm.dbg.value(metadata i64 %a, metadata !3914, metadata !DIExpression()), !dbg !3928
  %8 = getelementptr inbounds i8, ptr %self, i64 16, !dbg !3937
  %b = load i64, ptr %8, align 8, !dbg !3937, !noundef !27
  tail call void @llvm.dbg.value(metadata i64 %b, metadata !3915, metadata !DIExpression()), !dbg !3928
  %_112.not = icmp ugt i64 %a, %b, !dbg !3938
  %9 = sub i64 %b, %a, !dbg !3938
  %_113 = shl i64 %6, 1, !dbg !3938
  %10 = select i1 %_112.not, i64 %_113, i64 0, !dbg !3938
  %_11.sroa.0.0 = add i64 %9, %10, !dbg !3938
  %_10 = icmp eq i64 %_11.sroa.0.0, %6, !dbg !3929
  br i1 %_10, label %bb3, label %bb14, !dbg !3929

bb3:                                              ; preds = %bb2
  tail call void @llvm.dbg.value(metadata ptr %self13, metadata !3760, metadata !DIExpression(DW_OP_plus_uconst, 16, DW_OP_stack_value)), !dbg !3764
  tail call void @llvm.dbg.value(metadata ptr %self13, metadata !3939, metadata !DIExpression(DW_OP_plus_uconst, 16, DW_OP_stack_value)), !dbg !3947
  %_121 = getelementptr inbounds i8, ptr %self13, i64 16, !dbg !3949
  tail call void @llvm.dbg.value(metadata i8 2, metadata !2235, metadata !DIExpression()), !dbg !3950
  tail call void @llvm.dbg.value(metadata ptr %_121, metadata !2241, metadata !DIExpression()), !dbg !3950
  %11 = load atomic i64, ptr %_121 acquire, align 8, !dbg !3952
  store i64 %11, ptr %7, align 8, !dbg !3953
  tail call void @llvm.dbg.value(metadata i64 %11, metadata !3916, metadata !DIExpression()), !dbg !3930
  %b36 = load i64, ptr %8, align 8, !dbg !3954, !noundef !27
  tail call void @llvm.dbg.value(metadata i64 %b36, metadata !3918, metadata !DIExpression()), !dbg !3930
  %_122.not = icmp ugt i64 %11, %b36, !dbg !3955
  %12 = sub i64 %b36, %11, !dbg !3955
  %13 = select i1 %_122.not, i64 %_113, i64 0, !dbg !3955
  %_18.sroa.0.0 = add i64 %12, %13, !dbg !3955
  %_17 = icmp eq i64 %_18.sroa.0.0, %6, !dbg !3931
  br i1 %_17, label %bb4, label %bb3.bb14_crit_edge, !dbg !3931

bb3.bb14_crit_edge:                               ; preds = %bb3
  %self62.pre = load ptr, ptr %self, align 8, !dbg !3956
  br label %bb14, !dbg !3931

bb14:                                             ; preds = %bb3.bb14_crit_edge, %bb6, %bb2
  %self62 = phi ptr [ %self62.pre, %bb3.bb14_crit_edge ], [ %self62.pre164, %bb6 ], [ %self13, %bb2 ], !dbg !3956
  tail call void @llvm.dbg.value(metadata ptr %self, metadata !3819, metadata !DIExpression()), !dbg !3960
  tail call void @llvm.dbg.value(metadata ptr %self, metadata !3847, metadata !DIExpression()), !dbg !3961
  tail call void @llvm.dbg.value(metadata ptr %self, metadata !3875, metadata !DIExpression()), !dbg !3962
  %_40 = getelementptr inbounds i8, ptr %self62, i64 56, !dbg !3959
; call atomic_waker::AtomicWaker::take
  %14 = tail call { ptr, ptr } @_ZN12atomic_waker11AtomicWaker4take17hc1baab410379bc86E(ptr noundef nonnull align 8 %_40), !dbg !3959
  %15 = extractvalue { ptr, ptr } %14, 0, !dbg !3959
  call void @llvm.dbg.value(metadata ptr undef, metadata !579, metadata !DIExpression()), !dbg !3963
  %16 = icmp eq ptr %15, null, !dbg !3965
  br i1 %16, label %"_ZN4core3ptr72drop_in_place$LT$core..option..Option$LT$core..task..wake..Waker$GT$$GT$17h4eda3adaad99d5b1E.exit", label %bb2.i, !dbg !3965

bb2.i:                                            ; preds = %bb14
  %17 = extractvalue { ptr, ptr } %14, 1, !dbg !3959
  call void @llvm.dbg.value(metadata ptr undef, metadata !588, metadata !DIExpression()), !dbg !3966
  call void @llvm.dbg.value(metadata ptr undef, metadata !596, metadata !DIExpression()), !dbg !3968
  %18 = getelementptr inbounds i8, ptr %15, i64 24, !dbg !3970
  %_2.i.i.i = load ptr, ptr %18, align 8, !dbg !3970, !nonnull !27, !noundef !27
  tail call void %_2.i.i.i(ptr noundef %17), !dbg !3970
  br label %"_ZN4core3ptr72drop_in_place$LT$core..option..Option$LT$core..task..wake..Waker$GT$$GT$17h4eda3adaad99d5b1E.exit", !dbg !3965

"_ZN4core3ptr72drop_in_place$LT$core..option..Option$LT$core..task..wake..Waker$GT$$GT$17h4eda3adaad99d5b1E.exit": ; preds = %bb14, %bb2.i
  %19 = icmp eq ptr %0, null, !dbg !3971
  br i1 %19, label %bb22, label %bb17, !dbg !3971

bb4:                                              ; preds = %bb3
  tail call void @llvm.dbg.value(metadata ptr undef, metadata !3972, metadata !DIExpression()), !dbg !3978
  %20 = icmp eq ptr %0, null, !dbg !3980
  br i1 %20, label %bb6, label %bb52, !dbg !3981

bb52:                                             ; preds = %bb4
  tail call void @llvm.dbg.value(metadata ptr undef, metadata !3716, metadata !DIExpression()), !dbg !3982
  tail call void @llvm.dbg.value(metadata ptr %self, metadata !3813, metadata !DIExpression()), !dbg !3983
  tail call void @llvm.dbg.value(metadata ptr %self, metadata !3841, metadata !DIExpression()), !dbg !3985
  tail call void @llvm.dbg.value(metadata ptr %self, metadata !3869, metadata !DIExpression()), !dbg !3987
  %self42 = load ptr, ptr %self, align 8, !dbg !3989, !nonnull !27, !noundef !27
  %_25 = getelementptr inbounds i8, ptr %self42, i64 56, !dbg !3984
  tail call void @llvm.dbg.value(metadata ptr %0, metadata !3990, metadata !DIExpression()), !dbg !3994
  %_27 = load ptr, ptr %0, align 8, !dbg !3996, !nonnull !27, !align !308, !noundef !27
; call atomic_waker::AtomicWaker::register
  tail call void @_ZN12atomic_waker11AtomicWaker8register17h40fbb4b52d85719dE(ptr noundef nonnull align 8 %_25, ptr noalias noundef nonnull readonly align 8 dereferenceable(16) %_27), !dbg !3984
  br label %bb6

bb6:                                              ; preds = %bb52, %bb4
  fence seq_cst, !dbg !3997
  tail call void @llvm.dbg.value(metadata ptr %self, metadata !3815, metadata !DIExpression()), !dbg !3998
  tail call void @llvm.dbg.value(metadata ptr %self, metadata !3843, metadata !DIExpression()), !dbg !4000
  tail call void @llvm.dbg.value(metadata ptr %self, metadata !3871, metadata !DIExpression()), !dbg !4002
  %self49 = load ptr, ptr %self, align 8, !dbg !4004, !nonnull !27, !noundef !27
  tail call void @llvm.dbg.value(metadata ptr %self49, metadata !3761, metadata !DIExpression(DW_OP_plus_uconst, 16, DW_OP_stack_value)), !dbg !3772
  tail call void @llvm.dbg.value(metadata ptr %self49, metadata !3943, metadata !DIExpression(DW_OP_plus_uconst, 16, DW_OP_stack_value)), !dbg !4005
  %_138 = getelementptr inbounds i8, ptr %self49, i64 16, !dbg !4007
  tail call void @llvm.dbg.value(metadata i8 2, metadata !2235, metadata !DIExpression()), !dbg !4008
  tail call void @llvm.dbg.value(metadata ptr %_138, metadata !2241, metadata !DIExpression()), !dbg !4008
  %21 = load atomic i64, ptr %_138 acquire, align 8, !dbg !4010
  store i64 %21, ptr %7, align 8, !dbg !4011
  tail call void @llvm.dbg.value(metadata i64 %21, metadata !3920, metadata !DIExpression()), !dbg !3932
  %b58 = load i64, ptr %8, align 8, !dbg !4012, !noundef !27
  tail call void @llvm.dbg.value(metadata i64 %b58, metadata !3922, metadata !DIExpression()), !dbg !3932
  %_139.not = icmp ugt i64 %21, %b58, !dbg !4013
  %22 = sub i64 %b58, %21, !dbg !4013
  %23 = select i1 %_139.not, i64 %_113, i64 0, !dbg !4013
  %_33.sroa.0.0 = add i64 %22, %23, !dbg !4013
  %_32 = icmp eq i64 %_33.sroa.0.0, %6, !dbg !3933
  %self62.pre164 = load ptr, ptr %self, align 8, !dbg !3956
  br i1 %_32, label %bb7, label %bb14, !dbg !3933

bb7:                                              ; preds = %bb6
  tail call void @llvm.dbg.value(metadata ptr %self62.pre164, metadata !3748, metadata !DIExpression(DW_OP_plus_uconst, 16, DW_OP_plus_uconst, 80, DW_OP_stack_value)), !dbg !3774
  tail call void @llvm.dbg.value(metadata ptr %self62.pre164, metadata !3894, metadata !DIExpression(DW_OP_plus_uconst, 16, DW_OP_plus_uconst, 80, DW_OP_stack_value)), !dbg !4014
  %_149 = getelementptr inbounds i8, ptr %self62.pre164, i64 96, !dbg !4016
  tail call void @llvm.dbg.value(metadata i8 0, metadata !2416, metadata !DIExpression()), !dbg !4017
  tail call void @llvm.dbg.value(metadata ptr %_149, metadata !2421, metadata !DIExpression()), !dbg !4017
  %24 = load atomic i8, ptr %_149 monotonic, align 1, !dbg !4019
  %25 = icmp eq i8 %24, 0, !dbg !4020
  %spec.select = zext i1 %25 to i64, !dbg !4020
  br label %bb39, !dbg !4020

bb17:                                             ; preds = %"_ZN4core3ptr72drop_in_place$LT$core..option..Option$LT$core..task..wake..Waker$GT$$GT$17h4eda3adaad99d5b1E.exit"
  tail call void @llvm.dbg.value(metadata ptr %0, metadata !3718, metadata !DIExpression()), !dbg !4021
  %_45 = getelementptr inbounds i8, ptr %self, i64 32, !dbg !4022
  tail call void @llvm.experimental.noalias.scope.decl(metadata !4023), !dbg !4026
  tail call void @llvm.experimental.noalias.scope.decl(metadata !4027), !dbg !4026
  call void @llvm.dbg.value(metadata ptr %_45, metadata !2876, metadata !DIExpression()), !dbg !4029
  call void @llvm.dbg.value(metadata ptr %0, metadata !2892, metadata !DIExpression()), !dbg !4029
  call void @llvm.dbg.value(metadata ptr %0, metadata !2895, metadata !DIExpression()), !dbg !4031
  call void @llvm.dbg.value(metadata i64 100, metadata !2901, metadata !DIExpression()), !dbg !4033
  call void @llvm.dbg.value(metadata ptr %_45, metadata !2915, metadata !DIExpression()), !dbg !4033
  call void @llvm.dbg.value(metadata ptr poison, metadata !2916, metadata !DIExpression()), !dbg !4035
  call void @llvm.dbg.value(metadata i64 0, metadata !2924, metadata !DIExpression()), !dbg !4036
  call void @llvm.dbg.value(metadata i64 100, metadata !2930, metadata !DIExpression()), !dbg !4037
  call void @llvm.dbg.value(metadata i64 100, metadata !2936, metadata !DIExpression()), !dbg !4038
  call void @llvm.dbg.value(metadata i64 -6884282663029611473, metadata !2944, metadata !DIExpression()), !dbg !4039
  call void @llvm.dbg.value(metadata i64 -6884282663029611473, metadata !2951, metadata !DIExpression()), !dbg !4043
  call void @llvm.dbg.value(metadata ptr %_45, metadata !2974, metadata !DIExpression()), !dbg !4046
  call void @llvm.dbg.value(metadata ptr %_45, metadata !2957, metadata !DIExpression()), !dbg !4047
  call void @llvm.dbg.value(metadata ptr %_45, metadata !2962, metadata !DIExpression()), !dbg !4048
  call void @llvm.dbg.value(metadata i64 100, metadata !2975, metadata !DIExpression()), !dbg !4046
  call void @llvm.dbg.value(metadata i64 100, metadata !2991, metadata !DIExpression()), !dbg !4049
  call void @llvm.dbg.value(metadata i64 100, metadata !3001, metadata !DIExpression()), !dbg !4051
  call void @llvm.dbg.value(metadata i64 100, metadata !3008, metadata !DIExpression()), !dbg !4053
  %self3.i.i.i = load i64, ptr %_45, align 8, !dbg !4055, !alias.scope !4056, !noalias !4027, !noundef !27
  call void @llvm.dbg.value(metadata i64 %self3.i.i.i, metadata !2948, metadata !DIExpression()), !dbg !4039
  %s.i.i.i = add i64 %self3.i.i.i, -6884282663029611473, !dbg !4061
  call void @llvm.dbg.value(metadata i64 %s.i.i.i, metadata !2958, metadata !DIExpression()), !dbg !4062
  call void @llvm.dbg.value(metadata i64 %s.i.i.i, metadata !3021, metadata !DIExpression()), !dbg !4063
  store i64 %s.i.i.i, ptr %_45, align 8, !dbg !4065, !alias.scope !4056, !noalias !4027
  %_23.i.i.i = zext i64 %s.i.i.i to i128, !dbg !4066
  %small.i.i.i = xor i64 %s.i.i.i, -1800455987208640293, !dbg !4067
  call void @llvm.dbg.value(metadata i64 %small.i.i.i, metadata !3025, metadata !DIExpression()), !dbg !4068
  %_24.i.i.i = zext i64 %small.i.i.i to i128, !dbg !4070
  %t.i.i.i = mul nuw i128 %_24.i.i.i, %_23.i.i.i, !dbg !4071
  call void @llvm.dbg.value(metadata i128 %t.i.i.i, metadata !2960, metadata !DIExpression()), !dbg !4072
  %_28.i.i.i = lshr i128 %t.i.i.i, 64, !dbg !4073
  %26 = xor i128 %_28.i.i.i, %t.i.i.i, !dbg !4074
  %27 = trunc i128 %26 to i64, !dbg !4074
  call void @llvm.dbg.value(metadata i64 %27, metadata !2976, metadata !DIExpression()), !dbg !4075
  call void @llvm.dbg.value(metadata i64 %27, metadata !2995, metadata !DIExpression()), !dbg !4049
  %_31.i.i.i = and i128 %26, 18446744073709551615, !dbg !4076
  %_30.i.i.i = mul nuw nsw i128 %_31.i.i.i, 100, !dbg !4077
  %_29.i.i.i = lshr i128 %_30.i.i.i, 64, !dbg !4078
  %28 = trunc i128 %_29.i.i.i to i64, !dbg !4078
  call void @llvm.dbg.value(metadata i64 %28, metadata !2978, metadata !DIExpression()), !dbg !4079
  call void @llvm.dbg.value(metadata i64 %27, metadata !3005, metadata !DIExpression()), !dbg !4051
  %29 = mul i64 %27, 100, !dbg !4080
  call void @llvm.dbg.value(metadata i64 %29, metadata !2980, metadata !DIExpression()), !dbg !4081
  call void @llvm.dbg.value(metadata i64 16, metadata !2982, metadata !DIExpression()), !dbg !4082
  call void @llvm.dbg.value(metadata i64 %29, metadata !2980, metadata !DIExpression()), !dbg !4081
  call void @llvm.dbg.value(metadata i64 %28, metadata !2978, metadata !DIExpression()), !dbg !4079
  %_1327.i.i.i = icmp ult i64 %29, 16
  br i1 %_1327.i.i.i, label %bb4.i.i.i, label %_ZN8fastrand3Rng5usize17h4d21b934db248c15E.exit.i, !dbg !4083

bb3.bb7.loopexit_crit_edge.i.i.i:                 ; preds = %bb4.i.i.i
  store i64 %s11.i.i.i, ptr %_45, align 8, !dbg !4084, !alias.scope !4056, !noalias !4027
  %_44.le.i.i.i = and i128 %_1525.i.i.i, 18446744073709551615
  %_43.le.i.i.i = mul nuw nsw i128 %_44.le.i.i.i, 100
  %_42.le.i.i.i = lshr i128 %_43.le.i.i.i, 64
  %_16.le.i.i.i = trunc i128 %_42.le.i.i.i to i64
  br label %_ZN8fastrand3Rng5usize17h4d21b934db248c15E.exit.i, !dbg !4085

bb4.i.i.i:                                        ; preds = %bb17, %bb4.i.i.i
  %s112628.i.i.i = phi i64 [ %s11.i.i.i, %bb4.i.i.i ], [ %s.i.i.i, %bb17 ]
  call void @llvm.dbg.value(metadata i64 %s112628.i.i.i, metadata !2949, metadata !DIExpression()), !dbg !4043
  %s11.i.i.i = add i64 %s112628.i.i.i, -6884282663029611473, !dbg !4086
  call void @llvm.dbg.value(metadata i64 %s11.i.i.i, metadata !2964, metadata !DIExpression()), !dbg !4087
  call void @llvm.dbg.value(metadata i64 %s11.i.i.i, metadata !3027, metadata !DIExpression()), !dbg !4088
  %_36.i.i.i = zext i64 %s11.i.i.i to i128, !dbg !4090
  %small13.i.i.i = xor i64 %s11.i.i.i, -1800455987208640293, !dbg !4091
  call void @llvm.dbg.value(metadata i64 %small13.i.i.i, metadata !3029, metadata !DIExpression()), !dbg !4092
  %_37.i.i.i = zext i64 %small13.i.i.i to i128, !dbg !4094
  %t15.i.i.i = mul nuw i128 %_37.i.i.i, %_36.i.i.i, !dbg !4095
  call void @llvm.dbg.value(metadata i128 %t15.i.i.i, metadata !2966, metadata !DIExpression()), !dbg !4096
  %_41.i.i.i = lshr i128 %t15.i.i.i, 64, !dbg !4097
  %_1525.i.i.i = xor i128 %_41.i.i.i, %t15.i.i.i, !dbg !4098
  %_15.i.i.i = trunc i128 %_1525.i.i.i to i64, !dbg !4098
  call void @llvm.dbg.value(metadata i64 %_15.i.i.i, metadata !2976, metadata !DIExpression()), !dbg !4075
  call void @llvm.dbg.value(metadata i128 poison, metadata !2978, metadata !DIExpression(DW_OP_LLVM_convert, 128, DW_ATE_unsigned, DW_OP_LLVM_convert, 64, DW_ATE_unsigned, DW_OP_stack_value)), !dbg !4079
  call void @llvm.dbg.value(metadata i64 %_15.i.i.i, metadata !3006, metadata !DIExpression()), !dbg !4053
  %_18.i.i.i = mul i64 %_15.i.i.i, 100, !dbg !4099
  call void @llvm.dbg.value(metadata i64 %_18.i.i.i, metadata !2980, metadata !DIExpression()), !dbg !4081
  %_13.i.i.i = icmp ult i64 %_18.i.i.i, 16, !dbg !4085
  br i1 %_13.i.i.i, label %bb4.i.i.i, label %bb3.bb7.loopexit_crit_edge.i.i.i, !dbg !4085

_ZN8fastrand3Rng5usize17h4d21b934db248c15E.exit.i: ; preds = %bb3.bb7.loopexit_crit_edge.i.i.i, %bb17
  %hi.sroa.0.0.i.i.i = phi i64 [ %28, %bb17 ], [ %_16.le.i.i.i, %bb3.bb7.loopexit_crit_edge.i.i.i ], !dbg !4078
  call void @llvm.dbg.value(metadata i64 %hi.sroa.0.0.i.i.i, metadata !2978, metadata !DIExpression()), !dbg !4079
  %30 = icmp eq i64 %hi.sroa.0.0.i.i.i, 0, !dbg !4100
  br i1 %30, label %_ZN5piper11maybe_yield17h43489937512e392bE.exit, label %bb22, !dbg !4100

_ZN5piper11maybe_yield17h43489937512e392bE.exit:  ; preds = %_ZN8fastrand3Rng5usize17h4d21b934db248c15E.exit.i
  %self.i = load ptr, ptr %0, align 8, !dbg !4101, !alias.scope !4027, !noalias !4023, !nonnull !27, !align !308, !noundef !27
  call void @llvm.dbg.value(metadata ptr %self.i, metadata !3070, metadata !DIExpression()), !dbg !4102
  %_8.i = load ptr, ptr %self.i, align 8, !dbg !4104, !noalias !4105, !nonnull !27, !align !308, !noundef !27
  %31 = getelementptr inbounds i8, ptr %_8.i, i64 16, !dbg !4104
  %_6.i = load ptr, ptr %31, align 8, !dbg !4104, !noalias !4105, !nonnull !27, !noundef !27
  %32 = getelementptr inbounds i8, ptr %self.i, i64 8, !dbg !4106
  %_7.i = load ptr, ptr %32, align 8, !dbg !4106, !noalias !4105, !noundef !27
  tail call void %_6.i(ptr noundef %_7.i), !dbg !4104, !noalias !4105
  br label %bb39, !dbg !4107

bb22:                                             ; preds = %_ZN8fastrand3Rng5usize17h4d21b934db248c15E.exit.i, %"_ZN4core3ptr72drop_in_place$LT$core..option..Option$LT$core..task..wake..Waker$GT$$GT$17h4eda3adaad99d5b1E.exit"
  tail call void @llvm.dbg.value(metadata ptr undef, metadata !3722, metadata !DIExpression()), !dbg !4108
  tail call void @llvm.dbg.value(metadata ptr undef, metadata !4109, metadata !DIExpression(DW_OP_deref)), !dbg !4120
  tail call void @llvm.dbg.value(metadata i64 0, metadata !3727, metadata !DIExpression()), !dbg !4122
  %33 = getelementptr inbounds i8, ptr %self, i64 24
  %_54.pre = load i64, ptr %33, align 8, !dbg !4123
  %a69.pre = load i64, ptr %7, align 8, !dbg !4124
  %b71.pre = load i64, ptr %8, align 8, !dbg !4125
  %self95.pre.pre = load ptr, ptr %self, align 8, !dbg !4126
  %_181 = getelementptr inbounds i8, ptr %self95.pre.pre, i64 96, !dbg !4130
  %.neg162 = add i64 %a69.pre, %6
  %34 = getelementptr inbounds i8, ptr %self95.pre.pre, i64 80
  %35 = getelementptr inbounds i8, ptr %self95.pre.pre, i64 80
  %_189 = getelementptr inbounds i8, ptr %self95.pre.pre, i64 24
  %_97 = getelementptr inbounds i8, ptr %self95.pre.pre, i64 32
  br label %bb23, !dbg !4132

bb23:                                             ; preds = %bb31, %bb22
  %b71 = phi i64 [ %b71.pre, %bb22 ], [ %_90., %bb31 ], !dbg !4125
  %_54 = phi i64 [ %_54.pre, %bb22 ], [ %_54166, %bb31 ], !dbg !4123
  %src.sroa.3.0 = phi i64 [ %2, %bb22 ], [ %new_len.i.i, %bb31 ], !dbg !4133
  %src.sroa.0.0 = phi ptr [ %1, %bb22 ], [ %data.i.i, %bb31 ], !dbg !4133
  %count.sroa.0.0 = phi i64 [ 0, %bb22 ], [ %39, %bb31 ], !dbg !4108
  tail call void @llvm.dbg.value(metadata ptr %src.sroa.0.0, metadata !3706, metadata !DIExpression(DW_OP_LLVM_fragment, 0, 64)), !dbg !3804
  tail call void @llvm.dbg.value(metadata i64 %src.sroa.3.0, metadata !3706, metadata !DIExpression(DW_OP_LLVM_fragment, 64, 64)), !dbg !3804
  tail call void @llvm.dbg.value(metadata i64 %count.sroa.0.0, metadata !3727, metadata !DIExpression()), !dbg !4122
  %_53 = shl i64 %_54, 1, !dbg !4123
  %other = add i64 %_53, 4096, !dbg !4123
  call void @llvm.dbg.value(metadata i64 131072, metadata !3107, metadata !DIExpression()), !dbg !4134
  call void @llvm.dbg.value(metadata i64 %other, metadata !3116, metadata !DIExpression()), !dbg !4134
  call void @llvm.dbg.declare(metadata ptr undef, metadata !3117, metadata !DIExpression()), !dbg !4148
  tail call void @llvm.dbg.value(metadata i64 poison, metadata !4141, metadata !DIExpression()), !dbg !4149
  tail call void @llvm.dbg.value(metadata i64 %a69.pre, metadata !3924, metadata !DIExpression()), !dbg !3934
  tail call void @llvm.dbg.value(metadata i64 %b71, metadata !3926, metadata !DIExpression()), !dbg !3934
  %_154.not = icmp ugt i64 %a69.pre, %b71, !dbg !4151
  %36 = select i1 %_154.not, i64 %_113, i64 0, !dbg !4151
  %37 = add i64 %b71, %36, !dbg !4152
  %other73 = sub i64 %.neg162, %37, !dbg !4152
  tail call void @llvm.dbg.value(metadata i64 %other73, metadata !4143, metadata !DIExpression()), !dbg !4149
  call void @llvm.dbg.value(metadata i64 poison, metadata !3107, metadata !DIExpression()), !dbg !4153
  call void @llvm.dbg.value(metadata i64 %other73, metadata !3116, metadata !DIExpression()), !dbg !4153
  call void @llvm.dbg.declare(metadata ptr undef, metadata !3117, metadata !DIExpression()), !dbg !4155
  %_0.sroa.0.0.sroa.speculated.i = tail call i64 @llvm.umin.i64(i64 %other, i64 %other73), !dbg !4153
  tail call void @llvm.dbg.value(metadata i64 poison, metadata !4144, metadata !DIExpression()), !dbg !4156
  tail call void @llvm.dbg.value(metadata i64 %b71, metadata !4116, metadata !DIExpression()), !dbg !4120
  %_157 = icmp ult i64 %b71, %6, !dbg !4158
  %38 = select i1 %_157, i64 0, i64 %6, !dbg !4158
  %_60.sroa.0.0 = sub i64 %b71, %38, !dbg !4158
  %other77 = sub i64 %6, %_60.sroa.0.0, !dbg !4159
  tail call void @llvm.dbg.value(metadata i64 %other77, metadata !4146, metadata !DIExpression()), !dbg !4156
  call void @llvm.dbg.value(metadata i64 poison, metadata !3107, metadata !DIExpression()), !dbg !4160
  call void @llvm.dbg.value(metadata i64 %other77, metadata !3116, metadata !DIExpression()), !dbg !4160
  call void @llvm.dbg.declare(metadata ptr undef, metadata !3117, metadata !DIExpression()), !dbg !4162
  %_0.sroa.0.0.sroa.speculated.i157 = tail call i64 @llvm.umin.i64(i64 %_0.sroa.0.0.sroa.speculated.i, i64 %other77), !dbg !4160
  %_0.sroa.0.0.sroa.speculated.i158 = tail call i64 @llvm.umin.i64(i64 %_0.sroa.0.0.sroa.speculated.i157, i64 131072), !dbg !4160
  tail call void @llvm.dbg.value(metadata i64 %_0.sroa.0.0.sroa.speculated.i158, metadata !3729, metadata !DIExpression()), !dbg !4163
  tail call void @llvm.dbg.value(metadata i64 %_60.sroa.0.0, metadata !3733, metadata !DIExpression()), !dbg !4164
  %to = add i64 %_0.sroa.0.0.sroa.speculated.i158, %_60.sroa.0.0, !dbg !4165, !unsafe_inst !429
  tail call void @llvm.dbg.value(metadata i64 %to, metadata !3735, metadata !DIExpression()), !dbg !4166
  %_66 = icmp ult i64 %_54, %to, !dbg !4167, !unsafe_inst !429
  br i1 %_66, label %bb24, label %bb26, !dbg !4167, !unsafe_inst !429

bb24:                                             ; preds = %bb23
  %self86 = load ptr, ptr %34, align 8, !dbg !4168, !noundef !27, !unsafe_inst !429
  tail call void @llvm.dbg.value(metadata ptr %self86, metadata !4169, metadata !DIExpression()), !dbg !4177
  tail call void @llvm.dbg.value(metadata i64 %_54, metadata !4173, metadata !DIExpression()), !dbg !4177
  %self89 = getelementptr inbounds i8, ptr %self86, i64 %_54, !dbg !4179
  tail call void @llvm.dbg.value(metadata ptr %self89, metadata !3782, metadata !DIExpression()), !dbg !3784
  tail call void @llvm.dbg.value(metadata ptr %self89, metadata !3790, metadata !DIExpression()), !dbg !3792
  %count91 = sub i64 %to, %_54, !dbg !4180, !unsafe_inst !429
  tail call void @llvm.dbg.value(metadata i64 %count91, metadata !3783, metadata !DIExpression()), !dbg !3784
  tail call void @llvm.dbg.value(metadata i64 %count91, metadata !3791, metadata !DIExpression()), !dbg !3792
  tail call void @llvm.memset.p0.i64(ptr align 1 %self89, i8 0, i64 %count91, i1 false), !dbg !4181
  store i64 %to, ptr %33, align 8, !dbg !4182, !unsafe_inst !429
  br label %bb26, !dbg !4183, !unsafe_inst !429

bb26:                                             ; preds = %bb23, %bb24
  %_54166 = phi i64 [ %_54, %bb23 ], [ %to, %bb24 ]
  tail call void @llvm.dbg.value(metadata ptr %self, metadata !3823, metadata !DIExpression()), !dbg !4184
  tail call void @llvm.dbg.value(metadata ptr %self, metadata !3851, metadata !DIExpression()), !dbg !4185
  tail call void @llvm.dbg.value(metadata ptr %self, metadata !3879, metadata !DIExpression()), !dbg !4186
  %self98 = load ptr, ptr %35, align 8, !dbg !4129, !noundef !27, !unsafe_inst !429
  tail call void @llvm.dbg.value(metadata ptr %self98, metadata !4174, metadata !DIExpression()), !dbg !4187
  tail call void @llvm.dbg.value(metadata i64 %_60.sroa.0.0, metadata !4176, metadata !DIExpression()), !dbg !4187
  %data = getelementptr inbounds i8, ptr %self98, i64 %_60.sroa.0.0, !dbg !4189
  tail call void @llvm.dbg.value(metadata ptr %data, metadata !3731, metadata !DIExpression(DW_OP_LLVM_fragment, 0, 64)), !dbg !4133
  tail call void @llvm.dbg.value(metadata i64 %_0.sroa.0.0.sroa.speculated.i158, metadata !3731, metadata !DIExpression(DW_OP_LLVM_fragment, 64, 64)), !dbg !4133
  call void @llvm.dbg.value(metadata ptr undef, metadata !4190, metadata !DIExpression()), !dbg !4200
  call void @llvm.dbg.value(metadata ptr %data, metadata !4197, metadata !DIExpression(DW_OP_LLVM_fragment, 0, 64)), !dbg !4200
  call void @llvm.dbg.value(metadata i64 %_0.sroa.0.0.sroa.speculated.i158, metadata !4197, metadata !DIExpression(DW_OP_LLVM_fragment, 64, 64)), !dbg !4200
  call void @llvm.dbg.value(metadata i64 %src.sroa.3.0, metadata !4202, metadata !DIExpression()), !dbg !4207
  call void @llvm.dbg.value(metadata i64 %_0.sroa.0.0.sroa.speculated.i158, metadata !4206, metadata !DIExpression()), !dbg !4207
  call void @llvm.dbg.value(metadata i64 %src.sroa.3.0, metadata !3107, metadata !DIExpression()), !dbg !4209
  call void @llvm.dbg.value(metadata i64 %_0.sroa.0.0.sroa.speculated.i158, metadata !3116, metadata !DIExpression()), !dbg !4209
  call void @llvm.dbg.declare(metadata ptr undef, metadata !3117, metadata !DIExpression()), !dbg !4211
  %_0.sroa.0.0.sroa.speculated.i.i = tail call noundef i64 @llvm.umin.i64(i64 %src.sroa.3.0, i64 %_0.sroa.0.0.sroa.speculated.i158), !dbg !4209
  call void @llvm.dbg.value(metadata i64 %_0.sroa.0.0.sroa.speculated.i.i, metadata !4198, metadata !DIExpression()), !dbg !4212
  call void @llvm.dbg.value(metadata i64 %_0.sroa.0.0.sroa.speculated.i.i, metadata !4213, metadata !DIExpression()), !dbg !4221
  call void @llvm.dbg.value(metadata i64 %_0.sroa.0.0.sroa.speculated.i.i, metadata !4223, metadata !DIExpression()), !dbg !4230
  call void @llvm.dbg.value(metadata i64 %_0.sroa.0.0.sroa.speculated.i.i, metadata !4232, metadata !DIExpression()), !dbg !4239
  call void @llvm.dbg.value(metadata i64 0, metadata !4241, metadata !DIExpression(DW_OP_LLVM_fragment, 0, 64)), !dbg !4249
  call void @llvm.dbg.value(metadata i64 %_0.sroa.0.0.sroa.speculated.i.i, metadata !4241, metadata !DIExpression(DW_OP_LLVM_fragment, 64, 64)), !dbg !4249
  call void @llvm.dbg.value(metadata ptr %src.sroa.0.0, metadata !4246, metadata !DIExpression(DW_OP_LLVM_fragment, 0, 64)), !dbg !4249
  call void @llvm.dbg.value(metadata i64 %src.sroa.3.0, metadata !4246, metadata !DIExpression(DW_OP_LLVM_fragment, 64, 64)), !dbg !4249
  call void @llvm.dbg.value(metadata i64 %_0.sroa.0.0.sroa.speculated.i.i, metadata !4274, metadata !DIExpression()), !dbg !4279
  call void @llvm.dbg.value(metadata i64 0, metadata !4278, metadata !DIExpression()), !dbg !4279
  call void @llvm.dbg.value(metadata i64 %_0.sroa.0.0.sroa.speculated.i.i, metadata !4247, metadata !DIExpression()), !dbg !4281
  call void @llvm.dbg.value(metadata ptr %src.sroa.0.0, metadata !4282, metadata !DIExpression()), !dbg !4292
  call void @llvm.dbg.value(metadata i64 0, metadata !4291, metadata !DIExpression()), !dbg !4292
  call void @llvm.dbg.value(metadata ptr %data, metadata !3236, metadata !DIExpression(DW_OP_LLVM_fragment, 0, 64)), !dbg !4294
  call void @llvm.dbg.value(metadata i64 %_0.sroa.0.0.sroa.speculated.i.i, metadata !3236, metadata !DIExpression(DW_OP_LLVM_fragment, 64, 64)), !dbg !4294
  call void @llvm.dbg.value(metadata ptr %src.sroa.0.0, metadata !3243, metadata !DIExpression(DW_OP_LLVM_fragment, 0, 64)), !dbg !4294
  call void @llvm.dbg.value(metadata i64 %_0.sroa.0.0.sroa.speculated.i.i, metadata !3243, metadata !DIExpression(DW_OP_LLVM_fragment, 64, 64)), !dbg !4294
  call void @llvm.dbg.value(metadata ptr %src.sroa.0.0, metadata !3246, metadata !DIExpression()), !dbg !4296
  call void @llvm.dbg.value(metadata ptr %data, metadata !3254, metadata !DIExpression()), !dbg !4296
  call void @llvm.dbg.value(metadata i64 %_0.sroa.0.0.sroa.speculated.i.i, metadata !3255, metadata !DIExpression()), !dbg !4296
  tail call void @llvm.memcpy.p0.p0.i64(ptr nonnull align 1 %data, ptr nonnull align 1 %src.sroa.0.0, i64 %_0.sroa.0.0.sroa.speculated.i.i, i1 false), !dbg !4298, !alias.scope !4299, !noalias !4303
  call void @llvm.dbg.value(metadata i64 %src.sroa.3.0, metadata !4220, metadata !DIExpression(DW_OP_LLVM_fragment, 64, 64)), !dbg !4221
  call void @llvm.dbg.value(metadata i64 %src.sroa.3.0, metadata !4229, metadata !DIExpression(DW_OP_LLVM_fragment, 64, 64)), !dbg !4230
  call void @llvm.dbg.value(metadata i64 %src.sroa.3.0, metadata !4238, metadata !DIExpression(DW_OP_LLVM_fragment, 64, 64)), !dbg !4239
  call void @llvm.dbg.value(metadata ptr %src.sroa.0.0, metadata !4220, metadata !DIExpression(DW_OP_LLVM_fragment, 0, 64)), !dbg !4221
  call void @llvm.dbg.value(metadata ptr %src.sroa.0.0, metadata !4229, metadata !DIExpression(DW_OP_LLVM_fragment, 0, 64)), !dbg !4230
  call void @llvm.dbg.value(metadata ptr %src.sroa.0.0, metadata !4238, metadata !DIExpression(DW_OP_LLVM_fragment, 0, 64)), !dbg !4239
  call void @llvm.dbg.value(metadata i64 %_0.sroa.0.0.sroa.speculated.i.i, metadata !4241, metadata !DIExpression(DW_OP_LLVM_fragment, 0, 64)), !dbg !4307
  call void @llvm.dbg.value(metadata i64 %src.sroa.3.0, metadata !4241, metadata !DIExpression(DW_OP_LLVM_fragment, 64, 64)), !dbg !4307
  call void @llvm.dbg.value(metadata ptr %src.sroa.0.0, metadata !4246, metadata !DIExpression(DW_OP_LLVM_fragment, 0, 64)), !dbg !4307
  call void @llvm.dbg.value(metadata i64 %src.sroa.3.0, metadata !4246, metadata !DIExpression(DW_OP_LLVM_fragment, 64, 64)), !dbg !4307
  call void @llvm.dbg.value(metadata i64 %src.sroa.3.0, metadata !4274, metadata !DIExpression()), !dbg !4309
  call void @llvm.dbg.value(metadata i64 %_0.sroa.0.0.sroa.speculated.i.i, metadata !4278, metadata !DIExpression()), !dbg !4309
  %new_len.i.i = sub nuw i64 %src.sroa.3.0, %_0.sroa.0.0.sroa.speculated.i.i, !dbg !4311
  call void @llvm.dbg.value(metadata i64 %new_len.i.i, metadata !4247, metadata !DIExpression()), !dbg !4312
  call void @llvm.dbg.value(metadata ptr %src.sroa.0.0, metadata !4282, metadata !DIExpression()), !dbg !4313
  call void @llvm.dbg.value(metadata i64 %_0.sroa.0.0.sroa.speculated.i.i, metadata !4291, metadata !DIExpression()), !dbg !4313
  %data.i.i = getelementptr inbounds i8, ptr %src.sroa.0.0, i64 %_0.sroa.0.0.sroa.speculated.i.i, !dbg !4315
  tail call void @llvm.dbg.value(metadata ptr %data.i.i, metadata !3706, metadata !DIExpression(DW_OP_LLVM_fragment, 0, 64)), !dbg !3804
  tail call void @llvm.dbg.value(metadata i64 %new_len.i.i, metadata !3706, metadata !DIExpression(DW_OP_LLVM_fragment, 64, 64)), !dbg !3804
  tail call void @llvm.dbg.value(metadata i64 %_0.sroa.0.0.sroa.speculated.i.i, metadata !3737, metadata !DIExpression()), !dbg !4316
  %39 = add i64 %_0.sroa.0.0.sroa.speculated.i.i, %count.sroa.0.0, !dbg !4317
  tail call void @llvm.dbg.value(metadata i64 %39, metadata !3727, metadata !DIExpression()), !dbg !4122
  %40 = icmp eq i64 %_0.sroa.0.0.sroa.speculated.i.i, 0, !dbg !4318
  br i1 %40, label %bb39, label %bb28, !dbg !4318

bb28:                                             ; preds = %bb26
  tail call void @llvm.dbg.value(metadata ptr %self95.pre.pre, metadata !3751, metadata !DIExpression(DW_OP_plus_uconst, 16, DW_OP_plus_uconst, 80, DW_OP_stack_value)), !dbg !3794
  tail call void @llvm.dbg.value(metadata ptr %self95.pre.pre, metadata !3896, metadata !DIExpression(DW_OP_plus_uconst, 16, DW_OP_plus_uconst, 80, DW_OP_stack_value)), !dbg !4319
  tail call void @llvm.dbg.value(metadata i8 0, metadata !2416, metadata !DIExpression()), !dbg !4320
  tail call void @llvm.dbg.value(metadata ptr %_181, metadata !2421, metadata !DIExpression()), !dbg !4320
  %41 = load atomic i8, ptr %_181 monotonic, align 1, !dbg !4322
  %42 = icmp eq i8 %41, 0, !dbg !4323
  br i1 %42, label %bb31, label %bb39, !dbg !4323

bb31:                                             ; preds = %bb28
  %_90 = add i64 %_0.sroa.0.0.sroa.speculated.i.i, %b71, !dbg !4324
  %_89 = icmp ult i64 %_90, %_113, !dbg !4324
  %_90. = select i1 %_89, i64 %_90, i64 0, !dbg !4325
  store i64 %_90., ptr %8, align 8, !dbg !4316
  tail call void @llvm.dbg.value(metadata ptr %self95.pre.pre, metadata !3800, metadata !DIExpression(DW_OP_plus_uconst, 16, DW_OP_plus_uconst, 8, DW_OP_stack_value)), !dbg !3802
  tail call void @llvm.dbg.value(metadata i64 %_90., metadata !3801, metadata !DIExpression()), !dbg !3802
  tail call void @llvm.dbg.value(metadata ptr %self95.pre.pre, metadata !3945, metadata !DIExpression(DW_OP_plus_uconst, 16, DW_OP_plus_uconst, 8, DW_OP_stack_value)), !dbg !4326
  tail call void @llvm.dbg.value(metadata i8 1, metadata !3326, metadata !DIExpression()), !dbg !4328
  tail call void @llvm.dbg.value(metadata ptr %_189, metadata !3331, metadata !DIExpression()), !dbg !4328
  tail call void @llvm.dbg.value(metadata i64 %_90., metadata !3332, metadata !DIExpression()), !dbg !4328
  store atomic i64 %_90., ptr %_189 release, align 8, !dbg !4330
; call atomic_waker::AtomicWaker::wake
  tail call void @_ZN12atomic_waker11AtomicWaker4wake17h00aa0b01cd3f4617E(ptr noundef nonnull align 8 %_97), !dbg !4331
  br label %bb23

bb39:                                             ; preds = %bb26, %bb28, %_ZN5piper11maybe_yield17h43489937512e392bE.exit, %bb7, %start
  %_0.sroa.0.0 = phi i64 [ 0, %start ], [ 1, %_ZN5piper11maybe_yield17h43489937512e392bE.exit ], [ %spec.select, %bb7 ], [ 0, %bb28 ], [ 0, %bb26 ], !dbg !3804
  %_0.sroa.6.0 = phi i64 [ 0, %start ], [ undef, %_ZN5piper11maybe_yield17h43489937512e392bE.exit ], [ 0, %bb7 ], [ %39, %bb28 ], [ %39, %bb26 ]
  %43 = insertvalue { i64, i64 } poison, i64 %_0.sroa.0.0, 0, !dbg !4332
  %44 = insertvalue { i64, i64 } %43, i64 %_0.sroa.6.0, 1, !dbg !4332
  ret { i64, i64 } %44, !dbg !4332
}

; <piper::Writer as futures_io::if_std::AsyncWrite>::poll_write
; Function Attrs: nonlazybind uwtable
define { i64, ptr } @"_ZN64_$LT$piper..Writer$u20$as$u20$futures_io..if_std..AsyncWrite$GT$10poll_write17h01f8e1616617e373E"(ptr noalias nocapture noundef align 8 dereferenceable(40) %0, ptr noalias nocapture noundef readonly align 8 dereferenceable(32) %cx, ptr noalias nocapture noundef nonnull readonly align 1 %buf.0, i64 noundef %buf.1) unnamed_addr #4 !dbg !4333 {
start:
  call void @llvm.dbg.declare(metadata ptr undef, metadata !4346, metadata !DIExpression()), !dbg !4353
  tail call void @llvm.dbg.value(metadata ptr %0, metadata !4343, metadata !DIExpression()), !dbg !4355
  tail call void @llvm.dbg.value(metadata ptr %cx, metadata !4344, metadata !DIExpression()), !dbg !4355
  tail call void @llvm.dbg.value(metadata ptr %buf.0, metadata !4345, metadata !DIExpression(DW_OP_LLVM_fragment, 0, 64)), !dbg !4355
  tail call void @llvm.dbg.value(metadata i64 %buf.1, metadata !4345, metadata !DIExpression(DW_OP_LLVM_fragment, 64, 64)), !dbg !4355
  call void @llvm.dbg.value(metadata ptr %0, metadata !3668, metadata !DIExpression()), !dbg !4356
  call void @llvm.dbg.value(metadata ptr %cx, metadata !3669, metadata !DIExpression()), !dbg !4356
  call void @llvm.dbg.value(metadata ptr %buf.0, metadata !3670, metadata !DIExpression(DW_OP_LLVM_fragment, 0, 64)), !dbg !4356
  call void @llvm.dbg.value(metadata i64 %buf.1, metadata !3670, metadata !DIExpression(DW_OP_LLVM_fragment, 64, 64)), !dbg !4356
; call piper::Writer::fill_inner
  %1 = tail call fastcc { i64, i64 } @_ZN5piper6Writer10fill_inner17h8b539aa315408844E(ptr noalias noundef nonnull align 8 dereferenceable(40) %0, ptr noalias noundef nonnull align 8 dereferenceable_or_null(32) %cx, ptr noalias noundef nonnull readonly align 1 %buf.0, i64 noundef %buf.1), !dbg !4358
  %2 = extractvalue { i64, i64 } %1, 0, !dbg !4358
  %switch.i = icmp eq i64 %2, 0, !dbg !4359
  %3 = extractvalue { i64, i64 } %1, 1, !dbg !4359
  %_0.sroa.3.0.i = select i1 %switch.i, i64 %3, i64 undef, !dbg !4359
  tail call void @llvm.dbg.value(metadata i64 %2, metadata !4350, metadata !DIExpression(DW_OP_LLVM_fragment, 0, 64)), !dbg !4360
  tail call void @llvm.dbg.value(metadata i64 poison, metadata !4350, metadata !DIExpression(DW_OP_LLVM_fragment, 64, 64)), !dbg !4360
  %4 = inttoptr i64 %_0.sroa.3.0.i to ptr
  %spec.select = select i1 %switch.i, ptr %4, ptr undef, !dbg !4361
  %spec.select4 = select i1 %switch.i, i64 0, i64 2, !dbg !4361
  %5 = insertvalue { i64, ptr } poison, i64 %spec.select4, 0, !dbg !4362
  %6 = insertvalue { i64, ptr } %5, ptr %spec.select, 1, !dbg !4362
  ret { i64, ptr } %6, !dbg !4362
}

; <piper::Writer as futures_io::if_std::AsyncWrite>::poll_close
; Function Attrs: nonlazybind uwtable
define { i64, ptr } @"_ZN64_$LT$piper..Writer$u20$as$u20$futures_io..if_std..AsyncWrite$GT$10poll_close17h4b77a4ea6d9e5e75E"(ptr noalias nocapture noundef readonly align 8 dereferenceable(40) %0, ptr noalias nocapture noundef readnone align 8 dereferenceable(32) %_cx) unnamed_addr #4 !dbg !4363 {
start:
  tail call void @llvm.dbg.value(metadata i8 1, metadata !4396, metadata !DIExpression()), !dbg !4402
  tail call void @llvm.dbg.value(metadata i8 1, metadata !4401, metadata !DIExpression()), !dbg !4402
  tail call void @llvm.dbg.value(metadata ptr %0, metadata !4394, metadata !DIExpression()), !dbg !4404
  tail call void @llvm.dbg.value(metadata ptr %_cx, metadata !4395, metadata !DIExpression()), !dbg !4404
  tail call void @llvm.dbg.value(metadata ptr %0, metadata !4405, metadata !DIExpression()), !dbg !4413
  tail call void @llvm.dbg.value(metadata ptr %0, metadata !4415, metadata !DIExpression()), !dbg !4423
  tail call void @llvm.dbg.value(metadata ptr %0, metadata !4425, metadata !DIExpression()), !dbg !4433
  %self5 = load ptr, ptr %0, align 8, !dbg !4435, !nonnull !27, !noundef !27
  tail call void @llvm.dbg.value(metadata ptr %self5, metadata !4400, metadata !DIExpression(DW_OP_plus_uconst, 16, DW_OP_plus_uconst, 80, DW_OP_stack_value)), !dbg !4402
  tail call void @llvm.dbg.value(metadata ptr %self5, metadata !4436, metadata !DIExpression(DW_OP_plus_uconst, 16, DW_OP_plus_uconst, 80, DW_OP_stack_value)), !dbg !4440
  %_27 = getelementptr inbounds i8, ptr %self5, i64 96, !dbg !4442
  tail call void @llvm.dbg.value(metadata i8 1, metadata !2116, metadata !DIExpression()), !dbg !4443
  tail call void @llvm.dbg.value(metadata ptr %_27, metadata !2121, metadata !DIExpression()), !dbg !4443
  tail call void @llvm.dbg.value(metadata i8 1, metadata !2122, metadata !DIExpression()), !dbg !4443
  store atomic i8 1, ptr %_27 release, align 1, !dbg !4445
  %_8 = getelementptr inbounds i8, ptr %self5, i64 32, !dbg !4446
; call atomic_waker::AtomicWaker::wake
  tail call void @_ZN12atomic_waker11AtomicWaker4wake17h00aa0b01cd3f4617E(ptr noundef nonnull align 8 %_8), !dbg !4446
  %_13 = getelementptr inbounds i8, ptr %self5, i64 56, !dbg !4447
; call atomic_waker::AtomicWaker::wake
  tail call void @_ZN12atomic_waker11AtomicWaker4wake17h00aa0b01cd3f4617E(ptr noundef nonnull align 8 %_13), !dbg !4447
  ret { i64, ptr } zeroinitializer, !dbg !4448
}

; <piper::ReadBytes as piper::ReadLike>::read
; Function Attrs: mustprogress nofree norecurse nosync nounwind nonlazybind willreturn memory(readwrite, inaccessiblemem: none) uwtable
define noundef i64 @"_ZN52_$LT$piper..ReadBytes$u20$as$u20$piper..ReadLike$GT$4read17h2590b022706eb1a5E"(ptr noalias nocapture noundef align 8 dereferenceable(16) %self, ptr noalias nocapture noundef nonnull writeonly align 1 %buf.0, i64 noundef %buf.1) unnamed_addr #9 personality ptr @rust_eh_personality !dbg !4191 {
bb6:
  tail call void @llvm.dbg.value(metadata ptr %self, metadata !4190, metadata !DIExpression()), !dbg !4449
  tail call void @llvm.dbg.value(metadata ptr %buf.0, metadata !4197, metadata !DIExpression(DW_OP_LLVM_fragment, 0, 64)), !dbg !4449
  tail call void @llvm.dbg.value(metadata i64 %buf.1, metadata !4197, metadata !DIExpression(DW_OP_LLVM_fragment, 64, 64)), !dbg !4449
  %0 = getelementptr inbounds i8, ptr %self, i64 8, !dbg !4450
  %_10.1 = load i64, ptr %0, align 8, !dbg !4450, !noundef !27
  tail call void @llvm.dbg.value(metadata i64 %_10.1, metadata !4202, metadata !DIExpression()), !dbg !4451
  tail call void @llvm.dbg.value(metadata i64 %buf.1, metadata !4206, metadata !DIExpression()), !dbg !4451
  call void @llvm.dbg.value(metadata i64 %_10.1, metadata !3107, metadata !DIExpression()), !dbg !4453
  call void @llvm.dbg.value(metadata i64 %buf.1, metadata !3116, metadata !DIExpression()), !dbg !4453
  call void @llvm.dbg.declare(metadata ptr undef, metadata !3117, metadata !DIExpression()), !dbg !4455
  %_0.sroa.0.0.sroa.speculated.i = tail call noundef i64 @llvm.umin.i64(i64 %_10.1, i64 %buf.1), !dbg !4453
  tail call void @llvm.dbg.value(metadata i64 %_0.sroa.0.0.sroa.speculated.i, metadata !4198, metadata !DIExpression()), !dbg !4456
  tail call void @llvm.dbg.value(metadata i64 %_0.sroa.0.0.sroa.speculated.i, metadata !4213, metadata !DIExpression()), !dbg !4457
  tail call void @llvm.dbg.value(metadata i64 %_0.sroa.0.0.sroa.speculated.i, metadata !4223, metadata !DIExpression()), !dbg !4459
  tail call void @llvm.dbg.value(metadata i64 %_0.sroa.0.0.sroa.speculated.i, metadata !4232, metadata !DIExpression()), !dbg !4461
  %self.0 = load ptr, ptr %self, align 8, !dbg !4463, !nonnull !27, !align !297, !noundef !27
  tail call void @llvm.dbg.value(metadata i64 0, metadata !4241, metadata !DIExpression(DW_OP_LLVM_fragment, 0, 64)), !dbg !4464
  tail call void @llvm.dbg.value(metadata i64 %_0.sroa.0.0.sroa.speculated.i, metadata !4241, metadata !DIExpression(DW_OP_LLVM_fragment, 64, 64)), !dbg !4464
  tail call void @llvm.dbg.value(metadata ptr %self.0, metadata !4246, metadata !DIExpression(DW_OP_LLVM_fragment, 0, 64)), !dbg !4464
  tail call void @llvm.dbg.value(metadata i64 %_10.1, metadata !4246, metadata !DIExpression(DW_OP_LLVM_fragment, 64, 64)), !dbg !4464
  tail call void @llvm.dbg.value(metadata i64 %_0.sroa.0.0.sroa.speculated.i, metadata !4274, metadata !DIExpression()), !dbg !4469
  tail call void @llvm.dbg.value(metadata i64 0, metadata !4278, metadata !DIExpression()), !dbg !4469
  tail call void @llvm.dbg.value(metadata i64 %_0.sroa.0.0.sroa.speculated.i, metadata !4247, metadata !DIExpression()), !dbg !4471
  tail call void @llvm.dbg.value(metadata ptr %self.0, metadata !4282, metadata !DIExpression()), !dbg !4472
  tail call void @llvm.dbg.value(metadata i64 0, metadata !4291, metadata !DIExpression()), !dbg !4472
  call void @llvm.dbg.value(metadata ptr %buf.0, metadata !3236, metadata !DIExpression(DW_OP_LLVM_fragment, 0, 64)), !dbg !4474
  call void @llvm.dbg.value(metadata i64 %_0.sroa.0.0.sroa.speculated.i, metadata !3236, metadata !DIExpression(DW_OP_LLVM_fragment, 64, 64)), !dbg !4474
  call void @llvm.dbg.value(metadata ptr %self.0, metadata !3243, metadata !DIExpression(DW_OP_LLVM_fragment, 0, 64)), !dbg !4474
  call void @llvm.dbg.value(metadata i64 %_0.sroa.0.0.sroa.speculated.i, metadata !3243, metadata !DIExpression(DW_OP_LLVM_fragment, 64, 64)), !dbg !4474
  call void @llvm.dbg.value(metadata ptr %self.0, metadata !3246, metadata !DIExpression()), !dbg !4476
  call void @llvm.dbg.value(metadata ptr %buf.0, metadata !3254, metadata !DIExpression()), !dbg !4476
  call void @llvm.dbg.value(metadata i64 %_0.sroa.0.0.sroa.speculated.i, metadata !3255, metadata !DIExpression()), !dbg !4476
  tail call void @llvm.memcpy.p0.p0.i64(ptr nonnull align 1 %buf.0, ptr nonnull align 1 %self.0, i64 %_0.sroa.0.0.sroa.speculated.i, i1 false), !dbg !4478, !alias.scope !4479, !noalias !4483
  tail call void @llvm.dbg.value(metadata i64 %_10.1, metadata !4220, metadata !DIExpression(DW_OP_LLVM_fragment, 64, 64)), !dbg !4457
  tail call void @llvm.dbg.value(metadata i64 %_10.1, metadata !4229, metadata !DIExpression(DW_OP_LLVM_fragment, 64, 64)), !dbg !4459
  tail call void @llvm.dbg.value(metadata i64 %_10.1, metadata !4238, metadata !DIExpression(DW_OP_LLVM_fragment, 64, 64)), !dbg !4461
  tail call void @llvm.dbg.value(metadata ptr %self.0, metadata !4220, metadata !DIExpression(DW_OP_LLVM_fragment, 0, 64)), !dbg !4457
  tail call void @llvm.dbg.value(metadata ptr %self.0, metadata !4229, metadata !DIExpression(DW_OP_LLVM_fragment, 0, 64)), !dbg !4459
  tail call void @llvm.dbg.value(metadata ptr %self.0, metadata !4238, metadata !DIExpression(DW_OP_LLVM_fragment, 0, 64)), !dbg !4461
  tail call void @llvm.dbg.value(metadata i64 %_0.sroa.0.0.sroa.speculated.i, metadata !4241, metadata !DIExpression(DW_OP_LLVM_fragment, 0, 64)), !dbg !4485
  tail call void @llvm.dbg.value(metadata i64 %_10.1, metadata !4241, metadata !DIExpression(DW_OP_LLVM_fragment, 64, 64)), !dbg !4485
  tail call void @llvm.dbg.value(metadata ptr %self.0, metadata !4246, metadata !DIExpression(DW_OP_LLVM_fragment, 0, 64)), !dbg !4485
  tail call void @llvm.dbg.value(metadata i64 %_10.1, metadata !4246, metadata !DIExpression(DW_OP_LLVM_fragment, 64, 64)), !dbg !4485
  tail call void @llvm.dbg.value(metadata i64 %_10.1, metadata !4274, metadata !DIExpression()), !dbg !4487
  tail call void @llvm.dbg.value(metadata i64 %_0.sroa.0.0.sroa.speculated.i, metadata !4278, metadata !DIExpression()), !dbg !4487
  %new_len.i = sub nuw i64 %_10.1, %_0.sroa.0.0.sroa.speculated.i, !dbg !4489
  tail call void @llvm.dbg.value(metadata i64 %new_len.i, metadata !4247, metadata !DIExpression()), !dbg !4490
  tail call void @llvm.dbg.value(metadata ptr %self.0, metadata !4282, metadata !DIExpression()), !dbg !4491
  tail call void @llvm.dbg.value(metadata i64 %_0.sroa.0.0.sroa.speculated.i, metadata !4291, metadata !DIExpression()), !dbg !4491
  %data.i = getelementptr inbounds i8, ptr %self.0, i64 %_0.sroa.0.0.sroa.speculated.i, !dbg !4493
  store ptr %data.i, ptr %self, align 8, !dbg !4494
  store i64 %new_len.i, ptr %0, align 8, !dbg !4494
  ret i64 %_0.sroa.0.0.sroa.speculated.i, !dbg !4495
}

; <piper::WriteBytes as piper::WriteLike>::write
; Function Attrs: mustprogress nofree norecurse nosync nounwind nonlazybind willreturn memory(readwrite, inaccessiblemem: none) uwtable
define noundef i64 @"_ZN54_$LT$piper..WriteBytes$u20$as$u20$piper..WriteLike$GT$5write17h472d71177f01a181E"(ptr noalias nocapture noundef align 8 dereferenceable(16) %self, ptr noalias nocapture noundef nonnull readonly align 1 %buf.0, i64 noundef %buf.1) unnamed_addr #9 personality ptr @rust_eh_personality !dbg !3159 {
"_ZN110_$LT$core..ops..range..RangeFrom$LT$usize$GT$$u20$as$u20$core..slice..index..SliceIndex$LT$$u5b$T$u5d$$GT$$GT$9index_mut17h46c6760794db944cE.exit":
  tail call void @llvm.dbg.value(metadata ptr %self, metadata !3158, metadata !DIExpression()), !dbg !4496
  tail call void @llvm.dbg.value(metadata ptr %buf.0, metadata !3169, metadata !DIExpression(DW_OP_LLVM_fragment, 0, 64)), !dbg !4496
  tail call void @llvm.dbg.value(metadata i64 %buf.1, metadata !3169, metadata !DIExpression(DW_OP_LLVM_fragment, 64, 64)), !dbg !4496
  %0 = getelementptr inbounds i8, ptr %self, i64 8, !dbg !4497
  %_14.1 = load i64, ptr %0, align 8, !dbg !4497, !noundef !27
  tail call void @llvm.dbg.value(metadata i64 %_14.1, metadata !3176, metadata !DIExpression()), !dbg !4498
  tail call void @llvm.dbg.value(metadata i64 %buf.1, metadata !3180, metadata !DIExpression()), !dbg !4498
  call void @llvm.dbg.value(metadata i64 %_14.1, metadata !3107, metadata !DIExpression()), !dbg !4500
  call void @llvm.dbg.value(metadata i64 %buf.1, metadata !3116, metadata !DIExpression()), !dbg !4500
  call void @llvm.dbg.declare(metadata ptr undef, metadata !3117, metadata !DIExpression()), !dbg !4502
  %_0.sroa.0.0.sroa.speculated.i = tail call noundef i64 @llvm.umin.i64(i64 %_14.1, i64 %buf.1), !dbg !4500
  tail call void @llvm.dbg.value(metadata i64 %_0.sroa.0.0.sroa.speculated.i, metadata !3170, metadata !DIExpression()), !dbg !4503
  %self.0 = load ptr, ptr %self, align 8, !dbg !4504, !nonnull !27, !align !297, !noundef !27
  tail call void @llvm.dbg.value(metadata i64 0, metadata !3187, metadata !DIExpression(DW_OP_LLVM_fragment, 0, 64)), !dbg !4505
  tail call void @llvm.dbg.value(metadata i64 %_0.sroa.0.0.sroa.speculated.i, metadata !3187, metadata !DIExpression(DW_OP_LLVM_fragment, 64, 64)), !dbg !4505
  tail call void @llvm.dbg.value(metadata ptr %self.0, metadata !3204, metadata !DIExpression(DW_OP_LLVM_fragment, 0, 64)), !dbg !4505
  tail call void @llvm.dbg.value(metadata i64 %_14.1, metadata !3204, metadata !DIExpression(DW_OP_LLVM_fragment, 64, 64)), !dbg !4505
  call void @llvm.dbg.value(metadata ptr %self.0, metadata !3236, metadata !DIExpression(DW_OP_LLVM_fragment, 0, 64)), !dbg !4510
  call void @llvm.dbg.value(metadata i64 %_0.sroa.0.0.sroa.speculated.i, metadata !3236, metadata !DIExpression(DW_OP_LLVM_fragment, 64, 64)), !dbg !4510
  call void @llvm.dbg.value(metadata ptr %buf.0, metadata !3243, metadata !DIExpression(DW_OP_LLVM_fragment, 0, 64)), !dbg !4510
  call void @llvm.dbg.value(metadata i64 %_0.sroa.0.0.sroa.speculated.i, metadata !3243, metadata !DIExpression(DW_OP_LLVM_fragment, 64, 64)), !dbg !4510
  call void @llvm.dbg.value(metadata ptr %buf.0, metadata !3246, metadata !DIExpression()), !dbg !4512
  call void @llvm.dbg.value(metadata ptr %self.0, metadata !3254, metadata !DIExpression()), !dbg !4512
  call void @llvm.dbg.value(metadata i64 %_0.sroa.0.0.sroa.speculated.i, metadata !3255, metadata !DIExpression()), !dbg !4512
  tail call void @llvm.memcpy.p0.p0.i64(ptr nonnull align 1 %self.0, ptr nonnull align 1 %buf.0, i64 %_0.sroa.0.0.sroa.speculated.i, i1 false), !dbg !4514, !alias.scope !4515, !noalias !4519
  tail call void @llvm.dbg.value(metadata ptr %self, metadata !4521, metadata !DIExpression()), !dbg !4533
  tail call void @llvm.dbg.value(metadata ptr %self, metadata !4535, metadata !DIExpression()), !dbg !4543
  tail call void @llvm.dbg.value(metadata ptr inttoptr (i64 1 to ptr), metadata !4528, metadata !DIExpression(DW_OP_LLVM_fragment, 0, 64)), !dbg !4533
  tail call void @llvm.dbg.value(metadata ptr inttoptr (i64 1 to ptr), metadata !4542, metadata !DIExpression(DW_OP_LLVM_fragment, 0, 64)), !dbg !4543
  tail call void @llvm.dbg.value(metadata i64 0, metadata !4528, metadata !DIExpression(DW_OP_LLVM_fragment, 64, 64)), !dbg !4533
  tail call void @llvm.dbg.value(metadata i64 0, metadata !4542, metadata !DIExpression(DW_OP_LLVM_fragment, 64, 64)), !dbg !4543
  tail call void @llvm.dbg.value(metadata ptr %self.0, metadata !3172, metadata !DIExpression(DW_OP_LLVM_fragment, 0, 64)), !dbg !4545
  tail call void @llvm.dbg.value(metadata ptr %self.0, metadata !4529, metadata !DIExpression(DW_OP_LLVM_fragment, 0, 64)), !dbg !4546
  tail call void @llvm.dbg.value(metadata ptr %self.0, metadata !3268, metadata !DIExpression(DW_OP_LLVM_fragment, 0, 64)), !dbg !4547
  tail call void @llvm.dbg.value(metadata i64 %_14.1, metadata !3172, metadata !DIExpression(DW_OP_LLVM_fragment, 64, 64)), !dbg !4545
  tail call void @llvm.dbg.value(metadata i64 %_14.1, metadata !4529, metadata !DIExpression(DW_OP_LLVM_fragment, 64, 64)), !dbg !4546
  tail call void @llvm.dbg.value(metadata i64 %_14.1, metadata !3268, metadata !DIExpression(DW_OP_LLVM_fragment, 64, 64)), !dbg !4547
  tail call void @llvm.dbg.value(metadata i64 %_0.sroa.0.0.sroa.speculated.i, metadata !3277, metadata !DIExpression()), !dbg !4547
  call void @llvm.dbg.value(metadata i64 %_0.sroa.0.0.sroa.speculated.i, metadata !3282, metadata !DIExpression()), !dbg !4549
  call void @llvm.dbg.value(metadata ptr %self.0, metadata !3288, metadata !DIExpression(DW_OP_LLVM_fragment, 0, 64)), !dbg !4549
  call void @llvm.dbg.value(metadata i64 %_14.1, metadata !3288, metadata !DIExpression(DW_OP_LLVM_fragment, 64, 64)), !dbg !4549
  call void @llvm.dbg.value(metadata i64 %_0.sroa.0.0.sroa.speculated.i, metadata !3291, metadata !DIExpression()), !dbg !4551
  call void @llvm.dbg.value(metadata ptr %self.0, metadata !3297, metadata !DIExpression(DW_OP_LLVM_fragment, 0, 64)), !dbg !4551
  call void @llvm.dbg.value(metadata i64 %_14.1, metadata !3297, metadata !DIExpression(DW_OP_LLVM_fragment, 64, 64)), !dbg !4551
  call void @llvm.dbg.value(metadata i64 %_0.sroa.0.0.sroa.speculated.i, metadata !3187, metadata !DIExpression(DW_OP_LLVM_fragment, 0, 64)), !dbg !4553
  call void @llvm.dbg.value(metadata i64 %_14.1, metadata !3187, metadata !DIExpression(DW_OP_LLVM_fragment, 64, 64)), !dbg !4553
  call void @llvm.dbg.value(metadata ptr %self.0, metadata !3204, metadata !DIExpression(DW_OP_LLVM_fragment, 0, 64)), !dbg !4553
  call void @llvm.dbg.value(metadata i64 %_14.1, metadata !3204, metadata !DIExpression(DW_OP_LLVM_fragment, 64, 64)), !dbg !4553
  call void @llvm.dbg.value(metadata i64 %_14.1, metadata !3302, metadata !DIExpression()), !dbg !4555
  call void @llvm.dbg.value(metadata i64 %_0.sroa.0.0.sroa.speculated.i, metadata !3306, metadata !DIExpression()), !dbg !4555
  %new_len.i.i = sub nuw i64 %_14.1, %_0.sroa.0.0.sroa.speculated.i, !dbg !4557
  call void @llvm.dbg.value(metadata i64 %new_len.i.i, metadata !3205, metadata !DIExpression()), !dbg !4558
  call void @llvm.dbg.value(metadata ptr %self.0, metadata !3310, metadata !DIExpression()), !dbg !4559
  call void @llvm.dbg.value(metadata i64 %_0.sroa.0.0.sroa.speculated.i, metadata !3314, metadata !DIExpression()), !dbg !4559
  %data.i.i = getelementptr inbounds i8, ptr %self.0, i64 %_0.sroa.0.0.sroa.speculated.i, !dbg !4561
  store ptr %data.i.i, ptr %self, align 8, !dbg !4562
  store i64 %new_len.i.i, ptr %0, align 8, !dbg !4562
  ret i64 %_0.sroa.0.0.sroa.speculated.i, !dbg !4563
}

; piper::maybe_yield
; Function Attrs: nonlazybind uwtable
define noundef zeroext i1 @_ZN5piper11maybe_yield17h43489937512e392bE(ptr noalias nocapture noundef align 8 dereferenceable(8) %rng, ptr noalias nocapture noundef readonly align 8 dereferenceable(32) %cx) unnamed_addr #4 personality ptr @rust_eh_personality !dbg !2877 {
start:
  tail call void @llvm.dbg.value(metadata ptr %rng, metadata !2876, metadata !DIExpression()), !dbg !4564
  tail call void @llvm.dbg.value(metadata ptr %cx, metadata !2892, metadata !DIExpression()), !dbg !4564
  tail call void @llvm.dbg.value(metadata ptr %cx, metadata !2895, metadata !DIExpression()), !dbg !4565
  tail call void @llvm.dbg.value(metadata i64 100, metadata !2901, metadata !DIExpression()), !dbg !4567
  tail call void @llvm.dbg.value(metadata ptr %rng, metadata !2915, metadata !DIExpression()), !dbg !4567
  tail call void @llvm.dbg.value(metadata ptr poison, metadata !2916, metadata !DIExpression()), !dbg !4569
  tail call void @llvm.dbg.value(metadata i64 0, metadata !2924, metadata !DIExpression()), !dbg !4570
  tail call void @llvm.dbg.value(metadata i64 100, metadata !2930, metadata !DIExpression()), !dbg !4571
  tail call void @llvm.dbg.value(metadata i64 100, metadata !2936, metadata !DIExpression()), !dbg !4572
  tail call void @llvm.dbg.value(metadata i64 -6884282663029611473, metadata !2944, metadata !DIExpression()), !dbg !4573
  tail call void @llvm.dbg.value(metadata i64 -6884282663029611473, metadata !2951, metadata !DIExpression()), !dbg !4577
  tail call void @llvm.dbg.value(metadata ptr %rng, metadata !2974, metadata !DIExpression()), !dbg !4580
  tail call void @llvm.dbg.value(metadata ptr %rng, metadata !2957, metadata !DIExpression()), !dbg !4581
  tail call void @llvm.dbg.value(metadata ptr %rng, metadata !2962, metadata !DIExpression()), !dbg !4582
  tail call void @llvm.dbg.value(metadata i64 100, metadata !2975, metadata !DIExpression()), !dbg !4580
  tail call void @llvm.dbg.value(metadata i64 100, metadata !2991, metadata !DIExpression()), !dbg !4583
  tail call void @llvm.dbg.value(metadata i64 100, metadata !3001, metadata !DIExpression()), !dbg !4585
  tail call void @llvm.dbg.value(metadata i64 100, metadata !3008, metadata !DIExpression()), !dbg !4587
  %self3.i.i = load i64, ptr %rng, align 8, !dbg !4589, !alias.scope !4590, !noundef !27
  tail call void @llvm.dbg.value(metadata i64 %self3.i.i, metadata !2948, metadata !DIExpression()), !dbg !4573
  %s.i.i = add i64 %self3.i.i, -6884282663029611473, !dbg !4595
  tail call void @llvm.dbg.value(metadata i64 %s.i.i, metadata !2958, metadata !DIExpression()), !dbg !4596
  tail call void @llvm.dbg.value(metadata i64 %s.i.i, metadata !3021, metadata !DIExpression()), !dbg !4597
  store i64 %s.i.i, ptr %rng, align 8, !dbg !4599, !alias.scope !4590
  %_23.i.i = zext i64 %s.i.i to i128, !dbg !4600
  %small.i.i = xor i64 %s.i.i, -1800455987208640293, !dbg !4601
  tail call void @llvm.dbg.value(metadata i64 %small.i.i, metadata !3025, metadata !DIExpression()), !dbg !4602
  %_24.i.i = zext i64 %small.i.i to i128, !dbg !4604
  %t.i.i = mul nuw i128 %_24.i.i, %_23.i.i, !dbg !4605
  tail call void @llvm.dbg.value(metadata i128 %t.i.i, metadata !2960, metadata !DIExpression()), !dbg !4606
  %_28.i.i = lshr i128 %t.i.i, 64, !dbg !4607
  %0 = xor i128 %_28.i.i, %t.i.i, !dbg !4608
  %1 = trunc i128 %0 to i64, !dbg !4608
  tail call void @llvm.dbg.value(metadata i64 %1, metadata !2976, metadata !DIExpression()), !dbg !4609
  tail call void @llvm.dbg.value(metadata i64 %1, metadata !2995, metadata !DIExpression()), !dbg !4583
  %_31.i.i = and i128 %0, 18446744073709551615, !dbg !4610
  %_30.i.i = mul nuw nsw i128 %_31.i.i, 100, !dbg !4611
  %_29.i.i = lshr i128 %_30.i.i, 64, !dbg !4612
  %2 = trunc i128 %_29.i.i to i64, !dbg !4612
  tail call void @llvm.dbg.value(metadata i64 %2, metadata !2978, metadata !DIExpression()), !dbg !4613
  tail call void @llvm.dbg.value(metadata i64 %1, metadata !3005, metadata !DIExpression()), !dbg !4585
  %3 = mul i64 %1, 100, !dbg !4614
  tail call void @llvm.dbg.value(metadata i64 %3, metadata !2980, metadata !DIExpression()), !dbg !4615
  tail call void @llvm.dbg.value(metadata i64 16, metadata !2982, metadata !DIExpression()), !dbg !4616
  tail call void @llvm.dbg.value(metadata i64 %3, metadata !2980, metadata !DIExpression()), !dbg !4615
  tail call void @llvm.dbg.value(metadata i64 %2, metadata !2978, metadata !DIExpression()), !dbg !4613
  %_1327.i.i = icmp ult i64 %3, 16
  br i1 %_1327.i.i, label %bb4.i.i, label %_ZN8fastrand3Rng5usize17h4d21b934db248c15E.exit, !dbg !4617

bb3.bb7.loopexit_crit_edge.i.i:                   ; preds = %bb4.i.i
  store i64 %s11.i.i, ptr %rng, align 8, !dbg !4618, !alias.scope !4590
  %_44.le.i.i = and i128 %_1525.i.i, 18446744073709551615
  %_43.le.i.i = mul nuw nsw i128 %_44.le.i.i, 100
  %_42.le.i.i = lshr i128 %_43.le.i.i, 64
  %_16.le.i.i = trunc i128 %_42.le.i.i to i64
  br label %_ZN8fastrand3Rng5usize17h4d21b934db248c15E.exit, !dbg !4619

bb4.i.i:                                          ; preds = %start, %bb4.i.i
  %s112628.i.i = phi i64 [ %s11.i.i, %bb4.i.i ], [ %s.i.i, %start ]
  tail call void @llvm.dbg.value(metadata i64 %s112628.i.i, metadata !2949, metadata !DIExpression()), !dbg !4577
  %s11.i.i = add i64 %s112628.i.i, -6884282663029611473, !dbg !4620
  tail call void @llvm.dbg.value(metadata i64 %s11.i.i, metadata !2964, metadata !DIExpression()), !dbg !4621
  tail call void @llvm.dbg.value(metadata i64 %s11.i.i, metadata !3027, metadata !DIExpression()), !dbg !4622
  %_36.i.i = zext i64 %s11.i.i to i128, !dbg !4624
  %small13.i.i = xor i64 %s11.i.i, -1800455987208640293, !dbg !4625
  tail call void @llvm.dbg.value(metadata i64 %small13.i.i, metadata !3029, metadata !DIExpression()), !dbg !4626
  %_37.i.i = zext i64 %small13.i.i to i128, !dbg !4628
  %t15.i.i = mul nuw i128 %_37.i.i, %_36.i.i, !dbg !4629
  tail call void @llvm.dbg.value(metadata i128 %t15.i.i, metadata !2966, metadata !DIExpression()), !dbg !4630
  %_41.i.i = lshr i128 %t15.i.i, 64, !dbg !4631
  %_1525.i.i = xor i128 %_41.i.i, %t15.i.i, !dbg !4632
  %_15.i.i = trunc i128 %_1525.i.i to i64, !dbg !4632
  tail call void @llvm.dbg.value(metadata i64 %_15.i.i, metadata !2976, metadata !DIExpression()), !dbg !4609
  tail call void @llvm.dbg.value(metadata i128 poison, metadata !2978, metadata !DIExpression(DW_OP_LLVM_convert, 128, DW_ATE_unsigned, DW_OP_LLVM_convert, 64, DW_ATE_unsigned, DW_OP_stack_value)), !dbg !4613
  tail call void @llvm.dbg.value(metadata i64 %_15.i.i, metadata !3006, metadata !DIExpression()), !dbg !4587
  %_18.i.i = mul i64 %_15.i.i, 100, !dbg !4633
  tail call void @llvm.dbg.value(metadata i64 %_18.i.i, metadata !2980, metadata !DIExpression()), !dbg !4615
  %_13.i.i = icmp ult i64 %_18.i.i, 16, !dbg !4619
  br i1 %_13.i.i, label %bb4.i.i, label %bb3.bb7.loopexit_crit_edge.i.i, !dbg !4619

_ZN8fastrand3Rng5usize17h4d21b934db248c15E.exit:  ; preds = %start, %bb3.bb7.loopexit_crit_edge.i.i
  %hi.sroa.0.0.i.i = phi i64 [ %2, %start ], [ %_16.le.i.i, %bb3.bb7.loopexit_crit_edge.i.i ], !dbg !4612
  tail call void @llvm.dbg.value(metadata i64 %hi.sroa.0.0.i.i, metadata !2978, metadata !DIExpression()), !dbg !4613
  %4 = icmp eq i64 %hi.sroa.0.0.i.i, 0, !dbg !4634
  br i1 %4, label %bb2, label %bb4, !dbg !4634

bb2:                                              ; preds = %_ZN8fastrand3Rng5usize17h4d21b934db248c15E.exit
  %self = load ptr, ptr %cx, align 8, !dbg !4635, !nonnull !27, !align !308, !noundef !27
  tail call void @llvm.dbg.value(metadata ptr %self, metadata !3070, metadata !DIExpression()), !dbg !4636
  %_8 = load ptr, ptr %self, align 8, !dbg !4638, !nonnull !27, !align !308, !noundef !27
  %5 = getelementptr inbounds i8, ptr %_8, i64 16, !dbg !4638
  %_6 = load ptr, ptr %5, align 8, !dbg !4638, !nonnull !27, !noundef !27
  %6 = getelementptr inbounds i8, ptr %self, i64 8, !dbg !4639
  %_7 = load ptr, ptr %6, align 8, !dbg !4639, !noundef !27
  tail call void %_6(ptr noundef %_7), !dbg !4638
  br label %bb4, !dbg !4640

bb4:                                              ; preds = %_ZN8fastrand3Rng5usize17h4d21b934db248c15E.exit, %bb2
  ret i1 %4, !dbg !4641
}

; Function Attrs: mustprogress nocallback nofree nosync nounwind speculatable willreturn memory(none)
declare void @llvm.dbg.declare(metadata, metadata, metadata) #10

; Function Attrs: cold noreturn nounwind memory(inaccessiblemem: write)
declare void @llvm.trap() #11

; Function Attrs: nonlazybind uwtable
declare noundef i32 @rust_eh_personality(i32 noundef, i32 noundef, i64 noundef, ptr noundef, ptr noundef) unnamed_addr #4

; std::panicking::rust_panic_with_hook
; Function Attrs: noreturn nonlazybind uwtable
declare void @_ZN3std9panicking20rust_panic_with_hook17h68d2bb7086845887E(ptr noundef nonnull align 1, ptr noalias noundef readonly align 8 dereferenceable(40), ptr noalias noundef readonly align 8 dereferenceable_or_null(48), ptr noalias noundef readonly align 8 dereferenceable(24), i1 noundef zeroext, i1 noundef zeroext) unnamed_addr #12

; core::panicking::panic_in_cleanup
; Function Attrs: cold noinline noreturn nounwind nonlazybind uwtable
declare void @_ZN4core9panicking16panic_in_cleanup17h43442956f23e9cbeE() unnamed_addr #13

; Function Attrs: mustprogress nocallback nofree nounwind willreturn memory(argmem: readwrite)
declare void @llvm.memcpy.p0.p0.i64(ptr noalias nocapture writeonly, ptr noalias nocapture readonly, i64, i1 immarg) #14

; alloc::alloc::handle_alloc_error
; Function Attrs: cold noreturn nonlazybind uwtable
declare void @_ZN5alloc5alloc18handle_alloc_error17h668ad8a7a2fd77cbE(i64 noundef, i64 noundef) unnamed_addr #15

; Function Attrs: nounwind nonlazybind allockind("alloc,uninitialized,aligned") allocsize(0) uwtable
declare noalias noundef ptr @__rust_alloc(i64 noundef, i64 allocalign noundef) unnamed_addr #16

; Function Attrs: nounwind nonlazybind allockind("free") uwtable
declare void @__rust_dealloc(ptr allocptr noundef, i64 noundef, i64 noundef) unnamed_addr #17

; fastrand::global_rng::random_seed
; Function Attrs: nonlazybind uwtable
declare { i64, i64 } @_ZN8fastrand10global_rng11random_seed17h07ec393e0435b27bE() unnamed_addr #4

; std::process::abort
; Function Attrs: cold noreturn nonlazybind uwtable
declare void @_ZN3std7process5abort17h302c95d6b8ec09e2E() unnamed_addr #15

; alloc::raw_vec::handle_error
; Function Attrs: cold noreturn nonlazybind uwtable
declare void @_ZN5alloc7raw_vec12handle_error17hbecd345b13023a3fE(i64 noundef, i64) unnamed_addr #15

; atomic_waker::AtomicWaker::wake
; Function Attrs: nonlazybind uwtable
declare void @_ZN12atomic_waker11AtomicWaker4wake17h00aa0b01cd3f4617E(ptr noundef nonnull align 8) unnamed_addr #4

; atomic_waker::AtomicWaker::register
; Function Attrs: nonlazybind uwtable
declare void @_ZN12atomic_waker11AtomicWaker8register17h40fbb4b52d85719dE(ptr noundef nonnull align 8, ptr noalias noundef readonly align 8 dereferenceable(16)) unnamed_addr #4

; atomic_waker::AtomicWaker::take
; Function Attrs: nonlazybind uwtable
declare { ptr, ptr } @_ZN12atomic_waker11AtomicWaker4take17hc1baab410379bc86E(ptr noundef nonnull align 8) unnamed_addr #4

; Function Attrs: mustprogress nocallback nofree nounwind willreturn memory(argmem: write)
declare void @llvm.memset.p0.i64(ptr nocapture writeonly, i8, i64, i1 immarg) #18

; Function Attrs: mustprogress nocallback nofree nosync nounwind willreturn memory(argmem: readwrite)
declare void @llvm.lifetime.start.p0(i64 immarg, ptr nocapture) #19

; Function Attrs: mustprogress nocallback nofree nosync nounwind willreturn memory(argmem: readwrite)
declare void @llvm.lifetime.end.p0(i64 immarg, ptr nocapture) #19

; Function Attrs: nocallback nofree nosync nounwind speculatable willreturn memory(none)
declare void @llvm.dbg.value(metadata, metadata, metadata) #20

; Function Attrs: nocallback nofree nosync nounwind willreturn memory(inaccessiblemem: readwrite)
declare void @llvm.experimental.noalias.scope.decl(metadata) #21

; Function Attrs: nocallback nofree nosync nounwind speculatable willreturn memory(none)
declare i64 @llvm.umin.i64(i64, i64) #20

attributes #0 = { mustprogress nofree norecurse nosync nounwind nonlazybind willreturn memory(none) uwtable "probe-stack"="inline-asm" "target-cpu"="x86-64" }
attributes #1 = { noinline noreturn nonlazybind uwtable "probe-stack"="inline-asm" "target-cpu"="x86-64" }
attributes #2 = { cold noinline noreturn nonlazybind uwtable "probe-stack"="inline-asm" "target-cpu"="x86-64" }
attributes #3 = { inlinehint noreturn nonlazybind uwtable "probe-stack"="inline-asm" "target-cpu"="x86-64" }
attributes #4 = { nonlazybind uwtable "probe-stack"="inline-asm" "target-cpu"="x86-64" }
attributes #5 = { noinline nonlazybind uwtable "probe-stack"="inline-asm" "target-cpu"="x86-64" }
attributes #6 = { nounwind nonlazybind uwtable "probe-stack"="inline-asm" "target-cpu"="x86-64" }
attributes #7 = { mustprogress nofree norecurse nounwind nonlazybind willreturn memory(readwrite, inaccessiblemem: none) uwtable "probe-stack"="inline-asm" "target-cpu"="x86-64" }
attributes #8 = { inlinehint nonlazybind uwtable "probe-stack"="inline-asm" "target-cpu"="x86-64" }
attributes #9 = { mustprogress nofree norecurse nosync nounwind nonlazybind willreturn memory(readwrite, inaccessiblemem: none) uwtable "probe-stack"="inline-asm" "target-cpu"="x86-64" }
attributes #10 = { mustprogress nocallback nofree nosync nounwind speculatable willreturn memory(none) }
attributes #11 = { cold noreturn nounwind memory(inaccessiblemem: write) }
attributes #12 = { noreturn nonlazybind uwtable "probe-stack"="inline-asm" "target-cpu"="x86-64" }
attributes #13 = { cold noinline noreturn nounwind nonlazybind uwtable "probe-stack"="inline-asm" "target-cpu"="x86-64" }
attributes #14 = { mustprogress nocallback nofree nounwind willreturn memory(argmem: readwrite) }
attributes #15 = { cold noreturn nonlazybind uwtable "probe-stack"="inline-asm" "target-cpu"="x86-64" }
attributes #16 = { nounwind nonlazybind allockind("alloc,uninitialized,aligned") allocsize(0) uwtable "alloc-family"="__rust_alloc" "probe-stack"="inline-asm" "target-cpu"="x86-64" }
attributes #17 = { nounwind nonlazybind allockind("free") uwtable "alloc-family"="__rust_alloc" "probe-stack"="inline-asm" "target-cpu"="x86-64" }
attributes #18 = { mustprogress nocallback nofree nounwind willreturn memory(argmem: write) }
attributes #19 = { mustprogress nocallback nofree nosync nounwind willreturn memory(argmem: readwrite) }
attributes #20 = { nocallback nofree nosync nounwind speculatable willreturn memory(none) }
attributes #21 = { nocallback nofree nosync nounwind willreturn memory(inaccessiblemem: readwrite) }
attributes #22 = { noreturn }
attributes #23 = { nounwind }
attributes #24 = { cold noreturn nounwind }
attributes #25 = { cold }

!llvm.module.flags = !{!52, !53, !54, !55}
!llvm.ident = !{!56}
!llvm.dbg.cu = !{!57}

!0 = !DIGlobalVariableExpression(var: !1, expr: !DIExpression())
!1 = distinct !DIGlobalVariable(name: "<std::panicking::begin_panic::Payload<&str> as core::panic::PanicPayload>::{vtable}", scope: null, file: !2, type: !3, isLocal: true, isDefinition: true)
!2 = !DIFile(filename: "<unknown>", directory: "")
!3 = !DICompositeType(tag: DW_TAG_structure_type, name: "<std::panicking::begin_panic::Payload<&str> as core::panic::PanicPayload>::{vtable_type}", file: !2, size: 320, align: 64, flags: DIFlagArtificial, elements: !4, vtableHolder: !13, templateParams: !27, identifier: "4d8b3c0140605c50495b45d94d6d5a84")
!4 = !{!5, !8, !10, !11, !12}
!5 = !DIDerivedType(tag: DW_TAG_member, name: "drop_in_place", scope: !3, file: !2, baseType: !6, size: 64, align: 64)
!6 = !DIDerivedType(tag: DW_TAG_pointer_type, name: "*const ()", baseType: !7, size: 64, align: 64, dwarfAddressSpace: 0)
!7 = !DIBasicType(name: "()", encoding: DW_ATE_unsigned)
!8 = !DIDerivedType(tag: DW_TAG_member, name: "size", scope: !3, file: !2, baseType: !9, size: 64, align: 64, offset: 64)
!9 = !DIBasicType(name: "usize", size: 64, encoding: DW_ATE_unsigned)
!10 = !DIDerivedType(tag: DW_TAG_member, name: "align", scope: !3, file: !2, baseType: !9, size: 64, align: 64, offset: 128)
!11 = !DIDerivedType(tag: DW_TAG_member, name: "__method3", scope: !3, file: !2, baseType: !6, size: 64, align: 64, offset: 192)
!12 = !DIDerivedType(tag: DW_TAG_member, name: "__method4", scope: !3, file: !2, baseType: !6, size: 64, align: 64, offset: 256)
!13 = !DICompositeType(tag: DW_TAG_structure_type, name: "Payload<&str>", scope: !14, file: !2, size: 128, align: 64, flags: DIFlagProtected, elements: !17, templateParams: !42, identifier: "4d4e0a9d220d367280f5a92851d927cf")
!14 = !DINamespace(name: "begin_panic", scope: !15)
!15 = !DINamespace(name: "panicking", scope: !16)
!16 = !DINamespace(name: "std", scope: null)
!17 = !{!18}
!18 = !DIDerivedType(tag: DW_TAG_member, name: "inner", scope: !13, file: !2, baseType: !19, size: 128, align: 64, flags: DIFlagProtected)
!19 = !DICompositeType(tag: DW_TAG_structure_type, name: "Option<&str>", scope: !20, file: !2, size: 128, align: 64, flags: DIFlagPublic, elements: !22, templateParams: !27, identifier: "c9cc8e2c9bc8d3061e54de437c9b5882")
!20 = !DINamespace(name: "option", scope: !21)
!21 = !DINamespace(name: "core", scope: null)
!22 = !{!23}
!23 = !DICompositeType(tag: DW_TAG_variant_part, scope: !19, file: !2, size: 128, align: 64, elements: !24, templateParams: !27, identifier: "dc91c89dee9d03b772ff0b7d0b60a9cb", discriminator: !40)
!24 = !{!25, !36}
!25 = !DIDerivedType(tag: DW_TAG_member, name: "None", scope: !23, file: !2, baseType: !26, size: 128, align: 64, extraData: i128 0)
!26 = !DICompositeType(tag: DW_TAG_structure_type, name: "None", scope: !19, file: !2, size: 128, align: 64, flags: DIFlagPublic, elements: !27, templateParams: !28, identifier: "20871c480156d021cbbc4b2eec20a35c")
!27 = !{}
!28 = !{!29}
!29 = !DITemplateTypeParameter(name: "T", type: !30)
!30 = !DICompositeType(tag: DW_TAG_structure_type, name: "&str", file: !2, size: 128, align: 64, elements: !31, templateParams: !27, identifier: "9277eecd40495f85161460476aacc992")
!31 = !{!32, !35}
!32 = !DIDerivedType(tag: DW_TAG_member, name: "data_ptr", scope: !30, file: !2, baseType: !33, size: 64, align: 64)
!33 = !DIDerivedType(tag: DW_TAG_pointer_type, baseType: !34, size: 64, align: 64, dwarfAddressSpace: 0)
!34 = !DIBasicType(name: "u8", size: 8, encoding: DW_ATE_unsigned)
!35 = !DIDerivedType(tag: DW_TAG_member, name: "length", scope: !30, file: !2, baseType: !9, size: 64, align: 64, offset: 64)
!36 = !DIDerivedType(tag: DW_TAG_member, name: "Some", scope: !23, file: !2, baseType: !37, size: 128, align: 64)
!37 = !DICompositeType(tag: DW_TAG_structure_type, name: "Some", scope: !19, file: !2, size: 128, align: 64, flags: DIFlagPublic, elements: !38, templateParams: !28, identifier: "2bd48e68865dce7a72b4a9887ea344e7")
!38 = !{!39}
!39 = !DIDerivedType(tag: DW_TAG_member, name: "__0", scope: !37, file: !2, baseType: !30, size: 128, align: 64, flags: DIFlagPublic)
!40 = !DIDerivedType(tag: DW_TAG_member, scope: !19, file: !2, baseType: !41, size: 64, align: 64, flags: DIFlagArtificial)
!41 = !DIBasicType(name: "u64", size: 64, encoding: DW_ATE_unsigned)
!42 = !{!43}
!43 = !DITemplateTypeParameter(name: "A", type: !30)
!44 = !DIGlobalVariableExpression(var: !45, expr: !DIExpression())
!45 = distinct !DIGlobalVariable(name: "<&str as core::any::Any>::{vtable}", scope: null, file: !2, type: !46, isLocal: true, isDefinition: true)
!46 = !DICompositeType(tag: DW_TAG_structure_type, name: "<&str as core::any::Any>::{vtable_type}", file: !2, size: 256, align: 64, flags: DIFlagArtificial, elements: !47, vtableHolder: !30, templateParams: !27, identifier: "5adec2b5c980c23f6b7a3d8e04860d6")
!47 = !{!48, !49, !50, !51}
!48 = !DIDerivedType(tag: DW_TAG_member, name: "drop_in_place", scope: !46, file: !2, baseType: !6, size: 64, align: 64)
!49 = !DIDerivedType(tag: DW_TAG_member, name: "size", scope: !46, file: !2, baseType: !9, size: 64, align: 64, offset: 64)
!50 = !DIDerivedType(tag: DW_TAG_member, name: "align", scope: !46, file: !2, baseType: !9, size: 64, align: 64, offset: 128)
!51 = !DIDerivedType(tag: DW_TAG_member, name: "__method3", scope: !46, file: !2, baseType: !6, size: 64, align: 64, offset: 192)
!52 = !{i32 8, !"PIC Level", i32 2}
!53 = !{i32 2, !"RtLibUseGOT", i32 1}
!54 = !{i32 2, !"Dwarf Version", i32 4}
!55 = !{i32 2, !"Debug Info Version", i32 3}
!56 = !{!"rustc version 1.80.0-dev"}
!57 = distinct !DICompileUnit(language: DW_LANG_Rust, file: !58, producer: "clang LLVM (rustc version 1.80.0-dev)", isOptimized: true, runtimeVersion: 0, emissionKind: FullDebug, enums: !59, globals: !203, splitDebugInlining: false, nameTableKind: None)
!58 = !DIFile(filename: "/home/arsalan/.cargo/registry/src/index.crates.io-1949cf8c6b5b557f/piper-0.2.1/src/lib.rs/@/piper.5e75ad7991b6c340-cgu.0", directory: "/home/arsalan/.cargo/registry/src/index.crates.io-1949cf8c6b5b557f/piper-0.2.1")
!59 = !{!60, !68, !136, !143, !188, !197}
!60 = !DICompositeType(tag: DW_TAG_enumeration_type, name: "Alignment", scope: !61, file: !2, baseType: !34, size: 8, align: 8, flags: DIFlagEnumClass, elements: !63)
!61 = !DINamespace(name: "rt", scope: !62)
!62 = !DINamespace(name: "fmt", scope: !21)
!63 = !{!64, !65, !66, !67}
!64 = !DIEnumerator(name: "Left", value: 0, isUnsigned: true)
!65 = !DIEnumerator(name: "Right", value: 1, isUnsigned: true)
!66 = !DIEnumerator(name: "Center", value: 2, isUnsigned: true)
!67 = !DIEnumerator(name: "Unknown", value: 3, isUnsigned: true)
!68 = !DICompositeType(tag: DW_TAG_enumeration_type, name: "AlignmentEnum", scope: !69, file: !2, baseType: !41, size: 64, align: 64, flags: DIFlagEnumClass, elements: !71)
!69 = !DINamespace(name: "alignment", scope: !70)
!70 = !DINamespace(name: "ptr", scope: !21)
!71 = !{!72, !73, !74, !75, !76, !77, !78, !79, !80, !81, !82, !83, !84, !85, !86, !87, !88, !89, !90, !91, !92, !93, !94, !95, !96, !97, !98, !99, !100, !101, !102, !103, !104, !105, !106, !107, !108, !109, !110, !111, !112, !113, !114, !115, !116, !117, !118, !119, !120, !121, !122, !123, !124, !125, !126, !127, !128, !129, !130, !131, !132, !133, !134, !135}
!72 = !DIEnumerator(name: "_Align1Shl0", value: 1, isUnsigned: true)
!73 = !DIEnumerator(name: "_Align1Shl1", value: 2, isUnsigned: true)
!74 = !DIEnumerator(name: "_Align1Shl2", value: 4, isUnsigned: true)
!75 = !DIEnumerator(name: "_Align1Shl3", value: 8, isUnsigned: true)
!76 = !DIEnumerator(name: "_Align1Shl4", value: 16, isUnsigned: true)
!77 = !DIEnumerator(name: "_Align1Shl5", value: 32, isUnsigned: true)
!78 = !DIEnumerator(name: "_Align1Shl6", value: 64, isUnsigned: true)
!79 = !DIEnumerator(name: "_Align1Shl7", value: 128, isUnsigned: true)
!80 = !DIEnumerator(name: "_Align1Shl8", value: 256, isUnsigned: true)
!81 = !DIEnumerator(name: "_Align1Shl9", value: 512, isUnsigned: true)
!82 = !DIEnumerator(name: "_Align1Shl10", value: 1024, isUnsigned: true)
!83 = !DIEnumerator(name: "_Align1Shl11", value: 2048, isUnsigned: true)
!84 = !DIEnumerator(name: "_Align1Shl12", value: 4096, isUnsigned: true)
!85 = !DIEnumerator(name: "_Align1Shl13", value: 8192, isUnsigned: true)
!86 = !DIEnumerator(name: "_Align1Shl14", value: 16384, isUnsigned: true)
!87 = !DIEnumerator(name: "_Align1Shl15", value: 32768, isUnsigned: true)
!88 = !DIEnumerator(name: "_Align1Shl16", value: 65536, isUnsigned: true)
!89 = !DIEnumerator(name: "_Align1Shl17", value: 131072, isUnsigned: true)
!90 = !DIEnumerator(name: "_Align1Shl18", value: 262144, isUnsigned: true)
!91 = !DIEnumerator(name: "_Align1Shl19", value: 524288, isUnsigned: true)
!92 = !DIEnumerator(name: "_Align1Shl20", value: 1048576, isUnsigned: true)
!93 = !DIEnumerator(name: "_Align1Shl21", value: 2097152, isUnsigned: true)
!94 = !DIEnumerator(name: "_Align1Shl22", value: 4194304, isUnsigned: true)
!95 = !DIEnumerator(name: "_Align1Shl23", value: 8388608, isUnsigned: true)
!96 = !DIEnumerator(name: "_Align1Shl24", value: 16777216, isUnsigned: true)
!97 = !DIEnumerator(name: "_Align1Shl25", value: 33554432, isUnsigned: true)
!98 = !DIEnumerator(name: "_Align1Shl26", value: 67108864, isUnsigned: true)
!99 = !DIEnumerator(name: "_Align1Shl27", value: 134217728, isUnsigned: true)
!100 = !DIEnumerator(name: "_Align1Shl28", value: 268435456, isUnsigned: true)
!101 = !DIEnumerator(name: "_Align1Shl29", value: 536870912, isUnsigned: true)
!102 = !DIEnumerator(name: "_Align1Shl30", value: 1073741824, isUnsigned: true)
!103 = !DIEnumerator(name: "_Align1Shl31", value: 2147483648, isUnsigned: true)
!104 = !DIEnumerator(name: "_Align1Shl32", value: 4294967296, isUnsigned: true)
!105 = !DIEnumerator(name: "_Align1Shl33", value: 8589934592, isUnsigned: true)
!106 = !DIEnumerator(name: "_Align1Shl34", value: 17179869184, isUnsigned: true)
!107 = !DIEnumerator(name: "_Align1Shl35", value: 34359738368, isUnsigned: true)
!108 = !DIEnumerator(name: "_Align1Shl36", value: 68719476736, isUnsigned: true)
!109 = !DIEnumerator(name: "_Align1Shl37", value: 137438953472, isUnsigned: true)
!110 = !DIEnumerator(name: "_Align1Shl38", value: 274877906944, isUnsigned: true)
!111 = !DIEnumerator(name: "_Align1Shl39", value: 549755813888, isUnsigned: true)
!112 = !DIEnumerator(name: "_Align1Shl40", value: 1099511627776, isUnsigned: true)
!113 = !DIEnumerator(name: "_Align1Shl41", value: 2199023255552, isUnsigned: true)
!114 = !DIEnumerator(name: "_Align1Shl42", value: 4398046511104, isUnsigned: true)
!115 = !DIEnumerator(name: "_Align1Shl43", value: 8796093022208, isUnsigned: true)
!116 = !DIEnumerator(name: "_Align1Shl44", value: 17592186044416, isUnsigned: true)
!117 = !DIEnumerator(name: "_Align1Shl45", value: 35184372088832, isUnsigned: true)
!118 = !DIEnumerator(name: "_Align1Shl46", value: 70368744177664, isUnsigned: true)
!119 = !DIEnumerator(name: "_Align1Shl47", value: 140737488355328, isUnsigned: true)
!120 = !DIEnumerator(name: "_Align1Shl48", value: 281474976710656, isUnsigned: true)
!121 = !DIEnumerator(name: "_Align1Shl49", value: 562949953421312, isUnsigned: true)
!122 = !DIEnumerator(name: "_Align1Shl50", value: 1125899906842624, isUnsigned: true)
!123 = !DIEnumerator(name: "_Align1Shl51", value: 2251799813685248, isUnsigned: true)
!124 = !DIEnumerator(name: "_Align1Shl52", value: 4503599627370496, isUnsigned: true)
!125 = !DIEnumerator(name: "_Align1Shl53", value: 9007199254740992, isUnsigned: true)
!126 = !DIEnumerator(name: "_Align1Shl54", value: 18014398509481984, isUnsigned: true)
!127 = !DIEnumerator(name: "_Align1Shl55", value: 36028797018963968, isUnsigned: true)
!128 = !DIEnumerator(name: "_Align1Shl56", value: 72057594037927936, isUnsigned: true)
!129 = !DIEnumerator(name: "_Align1Shl57", value: 144115188075855872, isUnsigned: true)
!130 = !DIEnumerator(name: "_Align1Shl58", value: 288230376151711744, isUnsigned: true)
!131 = !DIEnumerator(name: "_Align1Shl59", value: 576460752303423488, isUnsigned: true)
!132 = !DIEnumerator(name: "_Align1Shl60", value: 1152921504606846976, isUnsigned: true)
!133 = !DIEnumerator(name: "_Align1Shl61", value: 2305843009213693952, isUnsigned: true)
!134 = !DIEnumerator(name: "_Align1Shl62", value: 4611686018427387904, isUnsigned: true)
!135 = !DIEnumerator(name: "_Align1Shl63", value: 9223372036854775808, isUnsigned: true)
!136 = !DICompositeType(tag: DW_TAG_enumeration_type, name: "Ordering", scope: !137, file: !2, baseType: !138, size: 8, align: 8, flags: DIFlagEnumClass, elements: !139)
!137 = !DINamespace(name: "cmp", scope: !21)
!138 = !DIBasicType(name: "i8", size: 8, encoding: DW_ATE_signed)
!139 = !{!140, !141, !142}
!140 = !DIEnumerator(name: "Less", value: -1)
!141 = !DIEnumerator(name: "Equal", value: 0)
!142 = !DIEnumerator(name: "Greater", value: 1)
!143 = !DICompositeType(tag: DW_TAG_enumeration_type, name: "ErrorKind", scope: !144, file: !2, baseType: !34, size: 8, align: 8, flags: DIFlagEnumClass, elements: !146)
!144 = !DINamespace(name: "error", scope: !145)
!145 = !DINamespace(name: "io", scope: !16)
!146 = !{!147, !148, !149, !150, !151, !152, !153, !154, !155, !156, !157, !158, !159, !160, !161, !162, !163, !164, !165, !166, !167, !168, !169, !170, !171, !172, !173, !174, !175, !176, !177, !178, !179, !180, !181, !182, !183, !184, !185, !186, !187}
!147 = !DIEnumerator(name: "NotFound", value: 0, isUnsigned: true)
!148 = !DIEnumerator(name: "PermissionDenied", value: 1, isUnsigned: true)
!149 = !DIEnumerator(name: "ConnectionRefused", value: 2, isUnsigned: true)
!150 = !DIEnumerator(name: "ConnectionReset", value: 3, isUnsigned: true)
!151 = !DIEnumerator(name: "HostUnreachable", value: 4, isUnsigned: true)
!152 = !DIEnumerator(name: "NetworkUnreachable", value: 5, isUnsigned: true)
!153 = !DIEnumerator(name: "ConnectionAborted", value: 6, isUnsigned: true)
!154 = !DIEnumerator(name: "NotConnected", value: 7, isUnsigned: true)
!155 = !DIEnumerator(name: "AddrInUse", value: 8, isUnsigned: true)
!156 = !DIEnumerator(name: "AddrNotAvailable", value: 9, isUnsigned: true)
!157 = !DIEnumerator(name: "NetworkDown", value: 10, isUnsigned: true)
!158 = !DIEnumerator(name: "BrokenPipe", value: 11, isUnsigned: true)
!159 = !DIEnumerator(name: "AlreadyExists", value: 12, isUnsigned: true)
!160 = !DIEnumerator(name: "WouldBlock", value: 13, isUnsigned: true)
!161 = !DIEnumerator(name: "NotADirectory", value: 14, isUnsigned: true)
!162 = !DIEnumerator(name: "IsADirectory", value: 15, isUnsigned: true)
!163 = !DIEnumerator(name: "DirectoryNotEmpty", value: 16, isUnsigned: true)
!164 = !DIEnumerator(name: "ReadOnlyFilesystem", value: 17, isUnsigned: true)
!165 = !DIEnumerator(name: "FilesystemLoop", value: 18, isUnsigned: true)
!166 = !DIEnumerator(name: "StaleNetworkFileHandle", value: 19, isUnsigned: true)
!167 = !DIEnumerator(name: "InvalidInput", value: 20, isUnsigned: true)
!168 = !DIEnumerator(name: "InvalidData", value: 21, isUnsigned: true)
!169 = !DIEnumerator(name: "TimedOut", value: 22, isUnsigned: true)
!170 = !DIEnumerator(name: "WriteZero", value: 23, isUnsigned: true)
!171 = !DIEnumerator(name: "StorageFull", value: 24, isUnsigned: true)
!172 = !DIEnumerator(name: "NotSeekable", value: 25, isUnsigned: true)
!173 = !DIEnumerator(name: "FilesystemQuotaExceeded", value: 26, isUnsigned: true)
!174 = !DIEnumerator(name: "FileTooLarge", value: 27, isUnsigned: true)
!175 = !DIEnumerator(name: "ResourceBusy", value: 28, isUnsigned: true)
!176 = !DIEnumerator(name: "ExecutableFileBusy", value: 29, isUnsigned: true)
!177 = !DIEnumerator(name: "Deadlock", value: 30, isUnsigned: true)
!178 = !DIEnumerator(name: "CrossesDevices", value: 31, isUnsigned: true)
!179 = !DIEnumerator(name: "TooManyLinks", value: 32, isUnsigned: true)
!180 = !DIEnumerator(name: "InvalidFilename", value: 33, isUnsigned: true)
!181 = !DIEnumerator(name: "ArgumentListTooLong", value: 34, isUnsigned: true)
!182 = !DIEnumerator(name: "Interrupted", value: 35, isUnsigned: true)
!183 = !DIEnumerator(name: "Unsupported", value: 36, isUnsigned: true)
!184 = !DIEnumerator(name: "UnexpectedEof", value: 37, isUnsigned: true)
!185 = !DIEnumerator(name: "OutOfMemory", value: 38, isUnsigned: true)
!186 = !DIEnumerator(name: "Other", value: 39, isUnsigned: true)
!187 = !DIEnumerator(name: "Uncategorized", value: 40, isUnsigned: true)
!188 = !DICompositeType(tag: DW_TAG_enumeration_type, name: "Ordering", scope: !189, file: !2, baseType: !34, size: 8, align: 8, flags: DIFlagEnumClass, elements: !191)
!189 = !DINamespace(name: "atomic", scope: !190)
!190 = !DINamespace(name: "sync", scope: !21)
!191 = !{!192, !193, !194, !195, !196}
!192 = !DIEnumerator(name: "Relaxed", value: 0, isUnsigned: true)
!193 = !DIEnumerator(name: "Release", value: 1, isUnsigned: true)
!194 = !DIEnumerator(name: "Acquire", value: 2, isUnsigned: true)
!195 = !DIEnumerator(name: "AcqRel", value: 3, isUnsigned: true)
!196 = !DIEnumerator(name: "SeqCst", value: 4, isUnsigned: true)
!197 = !DICompositeType(tag: DW_TAG_enumeration_type, name: "AllocInit", scope: !198, file: !2, baseType: !34, size: 8, align: 8, flags: DIFlagEnumClass, elements: !200)
!198 = !DINamespace(name: "raw_vec", scope: !199)
!199 = !DINamespace(name: "alloc", scope: null)
!200 = !{!201, !202}
!201 = !DIEnumerator(name: "Uninitialized", value: 0, isUnsigned: true)
!202 = !DIEnumerator(name: "Zeroed", value: 1, isUnsigned: true)
!203 = !{!0, !204, !44}
!204 = !DIGlobalVariableExpression(var: !205, expr: !DIExpression())
!205 = distinct !DIGlobalVariable(name: "<&&usize as core::fmt::Debug>::{vtable}", scope: null, file: !2, type: !206, isLocal: true, isDefinition: true)
!206 = !DICompositeType(tag: DW_TAG_structure_type, name: "<&&usize as core::fmt::Debug>::{vtable_type}", file: !2, size: 256, align: 64, flags: DIFlagArtificial, elements: !207, vtableHolder: !212, templateParams: !27, identifier: "b78a3b13c5dd97583fdb974d21dbb74f")
!207 = !{!208, !209, !210, !211}
!208 = !DIDerivedType(tag: DW_TAG_member, name: "drop_in_place", scope: !206, file: !2, baseType: !6, size: 64, align: 64)
!209 = !DIDerivedType(tag: DW_TAG_member, name: "size", scope: !206, file: !2, baseType: !9, size: 64, align: 64, offset: 64)
!210 = !DIDerivedType(tag: DW_TAG_member, name: "align", scope: !206, file: !2, baseType: !9, size: 64, align: 64, offset: 128)
!211 = !DIDerivedType(tag: DW_TAG_member, name: "__method3", scope: !206, file: !2, baseType: !6, size: 64, align: 64, offset: 192)
!212 = !DIDerivedType(tag: DW_TAG_pointer_type, name: "&&usize", baseType: !213, size: 64, align: 64, dwarfAddressSpace: 0)
!213 = !DIDerivedType(tag: DW_TAG_pointer_type, name: "&usize", baseType: !9, size: 64, align: 64, dwarfAddressSpace: 0)
!214 = distinct !DISubprogram(name: "type_id<&str>", linkageName: "_ZN36_$LT$T$u20$as$u20$core..any..Any$GT$7type_id17h9624d7ff18d7be7dE", scope: !216, file: !215, line: 141, type: !218, scopeLine: 141, flags: DIFlagPrototyped, spFlags: DISPFlagLocalToUnit | DISPFlagDefinition | DISPFlagOptimized, unit: !57, templateParams: !28, retainedNodes: !228)
!215 = !DIFile(filename: "/home/arsalan/Documents/Github/unsafe-rust-benchmark/library/core/src/any.rs", directory: "", checksumkind: CSK_MD5, checksum: "00055574bf7465cae7be22ab5c9966c5")
!216 = !DINamespace(name: "{impl#0}", scope: !217)
!217 = !DINamespace(name: "any", scope: !21)
!218 = !DISubroutineType(types: !219)
!219 = !{!220, !227}
!220 = !DICompositeType(tag: DW_TAG_structure_type, name: "TypeId", scope: !217, file: !2, size: 128, align: 64, flags: DIFlagPublic, elements: !221, templateParams: !27, identifier: "1f815785d12164cd5cc5e245629d60e2")
!221 = !{!222}
!222 = !DIDerivedType(tag: DW_TAG_member, name: "t", scope: !220, file: !2, baseType: !223, size: 128, align: 64, flags: DIFlagPrivate)
!223 = !DICompositeType(tag: DW_TAG_structure_type, name: "(u64, u64)", file: !2, size: 128, align: 64, elements: !224, templateParams: !27, identifier: "19e9be5b2400f26b5a124525aae10cbb")
!224 = !{!225, !226}
!225 = !DIDerivedType(tag: DW_TAG_member, name: "__0", scope: !223, file: !2, baseType: !41, size: 64, align: 64)
!226 = !DIDerivedType(tag: DW_TAG_member, name: "__1", scope: !223, file: !2, baseType: !41, size: 64, align: 64, offset: 64)
!227 = !DIDerivedType(tag: DW_TAG_pointer_type, name: "&&str", baseType: !30, size: 64, align: 64, dwarfAddressSpace: 0)
!228 = !{!229}
!229 = !DILocalVariable(name: "self", arg: 1, scope: !214, file: !215, line: 141, type: !227)
!230 = !DILocation(line: 0, scope: !214)
!231 = !DILocation(line: 143, column: 6, scope: !214)
!232 = distinct !DISubprogram(name: "__rust_end_short_backtrace<std::panicking::begin_panic::{closure_env#0}<&str>, !>", linkageName: "_ZN3std10sys_common9backtrace26__rust_end_short_backtrace17hf58c3b6fc3cc0a37E", scope: !234, file: !233, line: 167, type: !236, scopeLine: 167, flags: DIFlagPrototyped | DIFlagNoReturn, spFlags: DISPFlagLocalToUnit | DISPFlagDefinition | DISPFlagOptimized, unit: !57, templateParams: !256, retainedNodes: !251)
!233 = !DIFile(filename: "/home/arsalan/Documents/Github/unsafe-rust-benchmark/library/std/src/sys_common/backtrace.rs", directory: "", checksumkind: CSK_MD5, checksum: "9a938a0945aa66d12453850743d3bf49")
!234 = !DINamespace(name: "backtrace", scope: !235)
!235 = !DINamespace(name: "sys_common", scope: !16)
!236 = !DISubroutineType(types: !237)
!237 = !{null, !238}
!238 = !DICompositeType(tag: DW_TAG_structure_type, name: "{closure_env#0}<&str>", scope: !14, file: !2, size: 192, align: 64, elements: !239, templateParams: !27, identifier: "f3822d9e1f5641f0bb85d124a293d87")
!239 = !{!240, !241}
!240 = !DIDerivedType(tag: DW_TAG_member, name: "msg", scope: !238, file: !2, baseType: !30, size: 128, align: 64)
!241 = !DIDerivedType(tag: DW_TAG_member, name: "loc", scope: !238, file: !2, baseType: !242, size: 64, align: 64, offset: 128)
!242 = !DIDerivedType(tag: DW_TAG_pointer_type, name: "&core::panic::location::Location", baseType: !243, size: 64, align: 64, dwarfAddressSpace: 0)
!243 = !DICompositeType(tag: DW_TAG_structure_type, name: "Location", scope: !244, file: !2, size: 192, align: 64, flags: DIFlagPublic, elements: !246, templateParams: !27, identifier: "83f60b789274e9dfe5288fdb9ee764d1")
!244 = !DINamespace(name: "location", scope: !245)
!245 = !DINamespace(name: "panic", scope: !21)
!246 = !{!247, !248, !250}
!247 = !DIDerivedType(tag: DW_TAG_member, name: "file", scope: !243, file: !2, baseType: !30, size: 128, align: 64, flags: DIFlagPrivate)
!248 = !DIDerivedType(tag: DW_TAG_member, name: "line", scope: !243, file: !2, baseType: !249, size: 32, align: 32, offset: 128, flags: DIFlagPrivate)
!249 = !DIBasicType(name: "u32", size: 32, encoding: DW_ATE_unsigned)
!250 = !DIDerivedType(tag: DW_TAG_member, name: "col", scope: !243, file: !2, baseType: !249, size: 32, align: 32, offset: 160, flags: DIFlagPrivate)
!251 = !{!252, !253}
!252 = !DILocalVariable(name: "f", arg: 1, scope: !232, file: !233, line: 167, type: !238)
!253 = !DILocalVariable(name: "result", scope: !254, file: !233, line: 171, type: !255, align: 1)
!254 = distinct !DILexicalBlock(scope: !232, file: !233, line: 171, column: 5)
!255 = !DIBasicType(name: "!", encoding: DW_ATE_unsigned)
!256 = !{!257, !258}
!257 = !DITemplateTypeParameter(name: "F", type: !238)
!258 = !DITemplateTypeParameter(name: "T", type: !255)
!259 = !DILocalVariable(name: "dummy", scope: !260, file: !261, line: 337, type: !7, align: 1)
!260 = distinct !DILexicalBlock(scope: !262, file: !261, line: 337, column: 1)
!261 = !DIFile(filename: "/home/arsalan/Documents/Github/unsafe-rust-benchmark/library/core/src/hint.rs", directory: "", checksumkind: CSK_MD5, checksum: "36624a7f44e0e372094a9874489ad080")
!262 = distinct !DISubprogram(name: "black_box<()>", linkageName: "_ZN4core4hint9black_box17h657a4218c9c492fbE", scope: !263, file: !261, line: 337, type: !264, scopeLine: 337, flags: DIFlagPrototyped, spFlags: DISPFlagLocalToUnit | DISPFlagDefinition | DISPFlagOptimized, unit: !57, templateParams: !267, retainedNodes: !266)
!263 = !DINamespace(name: "hint", scope: !21)
!264 = !DISubroutineType(types: !265)
!265 = !{null, !7}
!266 = !{!259}
!267 = !{!268}
!268 = !DITemplateTypeParameter(name: "T", type: !7)
!269 = !DILocation(line: 337, column: 27, scope: !260, inlinedAt: !270)
!270 = !DILocation(line: 174, column: 5, scope: !254)
!271 = !DILocation(line: 171, column: 9, scope: !254)
!272 = !DILocation(line: 167, column: 41, scope: !232)
!273 = !DILocation(line: 171, column: 18, scope: !232)
!274 = !DILocation(line: 338, column: 5, scope: !260, inlinedAt: !270)
!275 = distinct !DISubprogram(name: "begin_panic<&str>", linkageName: "_ZN3std9panicking11begin_panic17h32bbb967f7fbd188E", scope: !15, file: !276, line: 687, type: !277, scopeLine: 687, flags: DIFlagPrototyped | DIFlagNoReturn, spFlags: DISPFlagLocalToUnit | DISPFlagDefinition | DISPFlagOptimized, unit: !57, templateParams: !283, retainedNodes: !279)
!276 = !DIFile(filename: "/home/arsalan/Documents/Github/unsafe-rust-benchmark/library/std/src/panicking.rs", directory: "", checksumkind: CSK_MD5, checksum: "60082975e1fd1fd79a46cc5d235d7ad0")
!277 = !DISubroutineType(types: !278)
!278 = !{null, !30, !242}
!279 = !{!280, !281}
!280 = !DILocalVariable(name: "msg", arg: 1, scope: !275, file: !276, line: 687, type: !30)
!281 = !DILocalVariable(name: "loc", scope: !282, file: !276, line: 692, type: !242, align: 8)
!282 = distinct !DILexicalBlock(scope: !275, file: !276, line: 692, column: 5)
!283 = !{!284}
!284 = !DITemplateTypeParameter(name: "M", type: !30)
!285 = !DILocation(line: 0, scope: !275)
!286 = !DILocation(line: 0, scope: !282)
!287 = !DILocation(line: 693, column: 69, scope: !282)
!288 = !DILocation(line: 693, column: 12, scope: !282)
!289 = distinct !DISubprogram(name: "{closure#0}<&str>", linkageName: "_ZN3std9panicking11begin_panic28_$u7b$$u7b$closure$u7d$$u7d$17h8b768ee1619b480cE", scope: !14, file: !276, line: 693, type: !236, scopeLine: 693, flags: DIFlagPrototyped | DIFlagNoReturn, spFlags: DISPFlagLocalToUnit | DISPFlagDefinition | DISPFlagOptimized, unit: !57, templateParams: !283, retainedNodes: !290)
!290 = !{!291, !292}
!291 = !DILocalVariable(name: "msg", scope: !289, file: !276, line: 687, type: !30, align: 8)
!292 = !DILocalVariable(name: "loc", scope: !289, file: !276, line: 692, type: !242, align: 8)
!293 = !DILocation(line: 687, column: 41, scope: !289)
!294 = !DILocation(line: 692, column: 9, scope: !289)
!295 = !DILocation(line: 695, column: 18, scope: !289)
!296 = !DILocation(line: 695, column: 31, scope: !289)
!297 = !{i64 1}
!298 = !DILocalVariable(name: "inner", arg: 1, scope: !299, file: !276, line: 708, type: !30)
!299 = distinct !DILexicalBlock(scope: !300, file: !276, line: 708, column: 9)
!300 = distinct !DISubprogram(name: "new<&str>", linkageName: "_ZN3std9panicking11begin_panic16Payload$LT$A$GT$3new17h7be564764b695fe4E", scope: !13, file: !276, line: 708, type: !301, scopeLine: 708, flags: DIFlagPrototyped, spFlags: DISPFlagLocalToUnit | DISPFlagDefinition | DISPFlagOptimized, unit: !57, templateParams: !42, declaration: !303, retainedNodes: !304)
!301 = !DISubroutineType(types: !302)
!302 = !{!13, !30}
!303 = !DISubprogram(name: "new<&str>", linkageName: "_ZN3std9panicking11begin_panic16Payload$LT$A$GT$3new17h7be564764b695fe4E", scope: !13, file: !276, line: 708, type: !301, scopeLine: 708, flags: DIFlagPrototyped, spFlags: DISPFlagLocalToUnit | DISPFlagOptimized, templateParams: !42)
!304 = !{!298}
!305 = !DILocation(line: 0, scope: !299, inlinedAt: !295)
!306 = !DILocation(line: 709, column: 13, scope: !299, inlinedAt: !295)
!307 = !DILocation(line: 697, column: 13, scope: !289)
!308 = !{i64 8}
!309 = !DILocation(line: 694, column: 9, scope: !289)
!310 = distinct !DISubprogram(name: "drop_in_place<alloc::sync::ArcInner<piper::Pipe>>", linkageName: "_ZN4core3ptr61drop_in_place$LT$alloc..sync..ArcInner$LT$piper..Pipe$GT$$GT$17h7c0d07d5e2d880c5E", scope: !70, file: !311, line: 542, type: !312, scopeLine: 542, flags: DIFlagPrototyped, spFlags: DISPFlagLocalToUnit | DISPFlagDefinition | DISPFlagOptimized, unit: !57, templateParams: !398, retainedNodes: !396)
!311 = !DIFile(filename: "/home/arsalan/Documents/Github/unsafe-rust-benchmark/library/core/src/ptr/mod.rs", directory: "", checksumkind: CSK_MD5, checksum: "a85d519116fde26821981e2ebfa0ecba")
!312 = !DISubroutineType(types: !313)
!313 = !{null, !314}
!314 = !DIDerivedType(tag: DW_TAG_pointer_type, name: "*mut alloc::sync::ArcInner<piper::Pipe>", baseType: !315, size: 64, align: 64, dwarfAddressSpace: 0)
!315 = !DICompositeType(tag: DW_TAG_structure_type, name: "ArcInner<piper::Pipe>", scope: !316, file: !2, size: 832, align: 64, flags: DIFlagPrivate, elements: !317, templateParams: !394, identifier: "67ed9fade4a5e988cede3779dd23f7b2")
!316 = !DINamespace(name: "sync", scope: !199)
!317 = !{!318, !328, !329}
!318 = !DIDerivedType(tag: DW_TAG_member, name: "strong", scope: !315, file: !2, baseType: !319, size: 64, align: 64, flags: DIFlagPrivate)
!319 = !DICompositeType(tag: DW_TAG_structure_type, name: "AtomicUsize", scope: !189, file: !2, size: 64, align: 64, flags: DIFlagPublic, elements: !320, templateParams: !27, identifier: "5e2d2bd30b2255a1bb7bbacbfa3cfa79")
!320 = !{!321}
!321 = !DIDerivedType(tag: DW_TAG_member, name: "v", scope: !319, file: !2, baseType: !322, size: 64, align: 64, flags: DIFlagPrivate)
!322 = !DICompositeType(tag: DW_TAG_structure_type, name: "UnsafeCell<usize>", scope: !323, file: !2, size: 64, align: 64, flags: DIFlagPublic, elements: !324, templateParams: !326, identifier: "739795389d327d6873469e3d89b8c60e")
!323 = !DINamespace(name: "cell", scope: !21)
!324 = !{!325}
!325 = !DIDerivedType(tag: DW_TAG_member, name: "value", scope: !322, file: !2, baseType: !9, size: 64, align: 64, flags: DIFlagPrivate)
!326 = !{!327}
!327 = !DITemplateTypeParameter(name: "T", type: !9)
!328 = !DIDerivedType(tag: DW_TAG_member, name: "weak", scope: !315, file: !2, baseType: !319, size: 64, align: 64, offset: 64, flags: DIFlagPrivate)
!329 = !DIDerivedType(tag: DW_TAG_member, name: "data", scope: !315, file: !2, baseType: !330, size: 704, align: 64, offset: 128, flags: DIFlagPrivate)
!330 = !DICompositeType(tag: DW_TAG_structure_type, name: "Pipe", scope: !331, file: !2, size: 704, align: 64, flags: DIFlagPrivate, elements: !332, templateParams: !27, identifier: "7d5e82718793f391339764653a7e5182")
!331 = !DINamespace(name: "piper", scope: null)
!332 = !{!333, !334, !335, !381, !382, !391, !393}
!333 = !DIDerivedType(tag: DW_TAG_member, name: "head", scope: !330, file: !2, baseType: !319, size: 64, align: 64, flags: DIFlagPrivate)
!334 = !DIDerivedType(tag: DW_TAG_member, name: "tail", scope: !330, file: !2, baseType: !319, size: 64, align: 64, offset: 64, flags: DIFlagPrivate)
!335 = !DIDerivedType(tag: DW_TAG_member, name: "reader", scope: !330, file: !2, baseType: !336, size: 192, align: 64, offset: 128, flags: DIFlagPrivate)
!336 = !DICompositeType(tag: DW_TAG_structure_type, name: "AtomicWaker", scope: !337, file: !2, size: 192, align: 64, flags: DIFlagPublic, elements: !338, templateParams: !27, identifier: "89f9cb10a8a65874aecec8e6798e8c4f")
!337 = !DINamespace(name: "atomic_waker", scope: null)
!338 = !{!339, !340}
!339 = !DIDerivedType(tag: DW_TAG_member, name: "state", scope: !336, file: !2, baseType: !319, size: 64, align: 64, offset: 128, flags: DIFlagPrivate)
!340 = !DIDerivedType(tag: DW_TAG_member, name: "waker", scope: !336, file: !2, baseType: !341, size: 128, align: 64, flags: DIFlagPrivate)
!341 = !DICompositeType(tag: DW_TAG_structure_type, name: "UnsafeCell<core::option::Option<core::task::wake::Waker>>", scope: !323, file: !2, size: 128, align: 64, flags: DIFlagPublic, elements: !342, templateParams: !379, identifier: "402882feea895d88487f598fd3781d2f")
!342 = !{!343}
!343 = !DIDerivedType(tag: DW_TAG_member, name: "value", scope: !341, file: !2, baseType: !344, size: 128, align: 64, flags: DIFlagPrivate)
!344 = !DICompositeType(tag: DW_TAG_structure_type, name: "Option<core::task::wake::Waker>", scope: !20, file: !2, size: 128, align: 64, flags: DIFlagPublic, elements: !345, templateParams: !27, identifier: "fdf92b2a7f95e10b1f6af3c28f571177")
!345 = !{!346}
!346 = !DICompositeType(tag: DW_TAG_variant_part, scope: !344, file: !2, size: 128, align: 64, elements: !347, templateParams: !27, identifier: "79b709c92f110a7567e6b4260f3fffd1", discriminator: !378)
!347 = !{!348, !374}
!348 = !DIDerivedType(tag: DW_TAG_member, name: "None", scope: !346, file: !2, baseType: !349, size: 128, align: 64, extraData: i128 0)
!349 = !DICompositeType(tag: DW_TAG_structure_type, name: "None", scope: !344, file: !2, size: 128, align: 64, flags: DIFlagPublic, elements: !27, templateParams: !350, identifier: "e3b1b04ced3820bf6ad9a1cf1a84b270")
!350 = !{!351}
!351 = !DITemplateTypeParameter(name: "T", type: !352)
!352 = !DICompositeType(tag: DW_TAG_structure_type, name: "Waker", scope: !353, file: !2, size: 128, align: 64, flags: DIFlagPublic, elements: !355, templateParams: !27, identifier: "ec03eb30528f12f1717f729e65eac0d1")
!353 = !DINamespace(name: "wake", scope: !354)
!354 = !DINamespace(name: "task", scope: !21)
!355 = !{!356}
!356 = !DIDerivedType(tag: DW_TAG_member, name: "waker", scope: !352, file: !2, baseType: !357, size: 128, align: 64, flags: DIFlagPrivate)
!357 = !DICompositeType(tag: DW_TAG_structure_type, name: "RawWaker", scope: !353, file: !2, size: 128, align: 64, flags: DIFlagPublic, elements: !358, templateParams: !27, identifier: "212c6d54ee18011b525ba8a27d92578c")
!358 = !{!359, !360}
!359 = !DIDerivedType(tag: DW_TAG_member, name: "data", scope: !357, file: !2, baseType: !6, size: 64, align: 64, offset: 64, flags: DIFlagPrivate)
!360 = !DIDerivedType(tag: DW_TAG_member, name: "vtable", scope: !357, file: !2, baseType: !361, size: 64, align: 64, flags: DIFlagPrivate)
!361 = !DIDerivedType(tag: DW_TAG_pointer_type, name: "&core::task::wake::RawWakerVTable", baseType: !362, size: 64, align: 64, dwarfAddressSpace: 0)
!362 = !DICompositeType(tag: DW_TAG_structure_type, name: "RawWakerVTable", scope: !353, file: !2, size: 256, align: 64, flags: DIFlagPublic, elements: !363, templateParams: !27, identifier: "f4abbf7758eb3384651691936bf57e5b")
!363 = !{!364, !368, !372, !373}
!364 = !DIDerivedType(tag: DW_TAG_member, name: "clone", scope: !362, file: !2, baseType: !365, size: 64, align: 64, flags: DIFlagPrivate)
!365 = !DIDerivedType(tag: DW_TAG_pointer_type, name: "unsafe fn(*const ()) -> core::task::wake::RawWaker", baseType: !366, size: 64, align: 64, dwarfAddressSpace: 0)
!366 = !DISubroutineType(types: !367)
!367 = !{!357, !6}
