; ModuleID = 'polling.a101f00402e4d7f3-cgu.0'
source_filename = "polling.a101f00402e4d7f3-cgu.0"
target datalayout = "e-m:e-p270:32:32-p271:32:32-p272:64:64-i64:64-i128:128-f80:128-n8:16:32:64-S128"
target triple = "x86_64-unknown-linux-gnu"

%"core::sync::atomic::AtomicUsize" = type { i64 }
%"core::option::Option<&dyn tracing_core::field::Value>" = type { ptr, [1 x i64] }
%"rustix::backend::event::epoll::Event" = type <{ i32, %"rustix::backend::event::epoll::EventData" }>
%"rustix::backend::event::epoll::EventData" = type { [1 x i64] }

@_ZN12tracing_core8metadata9MAX_LEVEL17h2def28f3c9fb9790E = external local_unnamed_addr global %"core::sync::atomic::AtomicUsize"
@_ZN3std9panicking11panic_count18GLOBAL_PANIC_COUNT17h00e7dcd913cdfbe0E = external local_unnamed_addr global %"core::sync::atomic::AtomicUsize"
@vtable.0 = private constant <{ [24 x i8], ptr }> <{ [24 x i8] c"\00\00\00\00\00\00\00\00\08\00\00\00\00\00\00\00\08\00\00\00\00\00\00\00", ptr @"_ZN42_$LT$$RF$T$u20$as$u20$core..fmt..Debug$GT$3fmt17h121b9f8992263bf2E" }>, align 8, !dbg !0
@__rust_no_alloc_shim_is_unstable = external global i8
@alloc_37d2e53432a03a1f90b3e7253015eaf9 = private unnamed_addr constant <{ [4 x i8] }> <{ [4 x i8] c"None" }>, align 1
@alloc_9535bf4c204f3eb9b19ec2c83e446e52 = private unnamed_addr constant <{ [4 x i8] }> <{ [4 x i8] c"Some" }>, align 1
@vtable.1 = private constant <{ [24 x i8], ptr }> <{ [24 x i8] c"\00\00\00\00\00\00\00\00\08\00\00\00\00\00\00\00\08\00\00\00\00\00\00\00", ptr @"_ZN42_$LT$$RF$T$u20$as$u20$core..fmt..Debug$GT$3fmt17hcd4179cd8323050bE" }>, align 8, !dbg !15
@vtable.2 = private constant <{ [24 x i8], ptr }> <{ [24 x i8] c"\00\00\00\00\00\00\00\00\08\00\00\00\00\00\00\00\08\00\00\00\00\00\00\00", ptr @"_ZN42_$LT$$RF$T$u20$as$u20$core..fmt..Debug$GT$3fmt17ha9d82afe4ccd85a2E" }>, align 8, !dbg !35
@alloc_47c8330ffe7a09bc00d165d03facdeb6 = private unnamed_addr constant <{ [4 x i8] }> <{ [4 x i8] c"\FF\FF\FF\FF" }>, align 4
@alloc_418abd4c898daf4778988e984237b246 = private unnamed_addr constant <{ [83 x i8] }> <{ [83 x i8] c"/home/arsalan/Documents/Github/unsafe-rust-benchmark/library/std/src/os/fd/owned.rs" }>, align 1
@alloc_da0820939ff558a45ac6d46c38a142a7 = private unnamed_addr constant <{ ptr, [16 x i8] }> <{ ptr @alloc_418abd4c898daf4778988e984237b246, [16 x i8] c"S\00\00\00\00\00\00\00\A2\00\00\00\09\00\00\00" }>, align 8
@alloc_49f4817395fcc69bced82142970a6e73 = private unnamed_addr constant <{ [41 x i8] }> <{ [41 x i8] c"assertion failed: fd != u32::MAX as RawFd" }>, align 1
@alloc_b98e9120f17dd505a01e9607eccfa1a4 = private unnamed_addr constant <{ ptr, [16 x i8] }> <{ ptr @alloc_418abd4c898daf4778988e984237b246, [16 x i8] c"S\00\00\00\00\00\00\00L\00\00\00\09\00\00\00" }>, align 8
@alloc_b04903d7cd9e2dff9a9288f598922742 = private unnamed_addr constant <{ [10 x i8] }> <{ [10 x i8] c"EventFlags" }>, align 1
@vtable.3 = private constant <{ [24 x i8], ptr }> <{ [24 x i8] c"\00\00\00\00\00\00\00\00\08\00\00\00\00\00\00\00\08\00\00\00\00\00\00\00", ptr @"_ZN42_$LT$$RF$T$u20$as$u20$core..fmt..Debug$GT$3fmt17h6c20c42e2e552489E" }>, align 8, !dbg !51
@vtable.4 = private constant <{ [24 x i8], ptr }> <{ [24 x i8] c"\00\00\00\00\00\00\00\00\08\00\00\00\00\00\00\00\08\00\00\00\00\00\00\00", ptr @"_ZN42_$LT$$RF$T$u20$as$u20$core..fmt..Debug$GT$3fmt17h6c4eff6fa81bb906E" }>, align 8, !dbg !68
@vtable.5 = private constant <{ [24 x i8], ptr }> <{ [24 x i8] c"\00\00\00\00\00\00\00\00\08\00\00\00\00\00\00\00\08\00\00\00\00\00\00\00", ptr @"_ZN42_$LT$$RF$T$u20$as$u20$core..fmt..Debug$GT$3fmt17hc5ce8799807e53fbE" }>, align 8, !dbg !93
@vtable.6 = private constant <{ [24 x i8], ptr }> <{ [24 x i8] c"\00\00\00\00\00\00\00\00\08\00\00\00\00\00\00\00\08\00\00\00\00\00\00\00", ptr @"_ZN42_$LT$$RF$T$u20$as$u20$core..fmt..Debug$GT$3fmt17hca3f899ab101c7aaE" }>, align 8, !dbg !116
@vtable.7 = private constant <{ [24 x i8], ptr }> <{ [24 x i8] c"\00\00\00\00\00\00\00\00\08\00\00\00\00\00\00\00\08\00\00\00\00\00\00\00", ptr @"_ZN42_$LT$$RF$T$u20$as$u20$core..fmt..Debug$GT$3fmt17h645f31b5cfd172b4E" }>, align 8, !dbg !138
@vtable.8 = private constant <{ [24 x i8], ptr }> <{ [24 x i8] c"\00\00\00\00\00\00\00\00\08\00\00\00\00\00\00\00\08\00\00\00\00\00\00\00", ptr @"_ZN42_$LT$$RF$T$u20$as$u20$core..fmt..Debug$GT$3fmt17h64db2ae511f4d435E" }>, align 8, !dbg !155
@vtable.9 = private constant <{ [24 x i8], ptr }> <{ [24 x i8] c"\00\00\00\00\00\00\00\00\08\00\00\00\00\00\00\00\08\00\00\00\00\00\00\00", ptr @"_ZN42_$LT$$RF$T$u20$as$u20$core..fmt..Debug$GT$3fmt17h8d12b2b8255beb02E" }>, align 8, !dbg !177
@alloc_f60ee9d3a28ecf6e14a79771b3c5296b = private unnamed_addr constant <{ [34 x i8] }> <{ [34 x i8] c"FieldSet corrupted (this is a bug)" }>, align 1
@alloc_8c7b5345a4dad04a3f1fd0c07330a493 = private unnamed_addr constant <{ [63 x i8] }> <{ [63 x i8] c"wait: skipping because another thread is already waiting on I/O" }>, align 1
@alloc_aac366a90fe83413c7c3dd1cfca1f912 = private unnamed_addr constant <{ ptr, [8 x i8] }> <{ ptr @alloc_8c7b5345a4dad04a3f1fd0c07330a493, [8 x i8] c"?\00\00\00\00\00\00\00" }>, align 8
@alloc_aa8b383dc202f4dbf1cf47ff5e9eaef5 = private unnamed_addr constant <{ [91 x i8] }> <{ [91 x i8] c"/home/arsalan/.cargo/registry/src/index.crates.io-1949cf8c6b5b557f/polling-3.3.1/src/lib.rs" }>, align 1
@alloc_1d538debac7c436943753ee4a0d46757 = private unnamed_addr constant <{ ptr, [16 x i8] }> <{ ptr @alloc_aa8b383dc202f4dbf1cf47ff5e9eaef5, [16 x i8] c"[\00\00\00\00\00\00\00\8A\02\00\00\14\00\00\00" }>, align 8
@vtable.a = private constant <{ [24 x i8], ptr }> <{ [24 x i8] c"\00\00\00\00\00\00\00\00\08\00\00\00\00\00\00\00\08\00\00\00\00\00\00\00", ptr @"_ZN87_$LT$tracing_core..field..DebugValue$LT$T$GT$$u20$as$u20$tracing_core..field..Value$GT$6record17h516ac35d922b4f59E" }>, align 8, !dbg !186
@alloc_472231e098c1ac8b3cda4a446d05cbe2 = private unnamed_addr constant <{ ptr, [16 x i8] }> <{ ptr @alloc_aa8b383dc202f4dbf1cf47ff5e9eaef5, [16 x i8] c"[\00\00\00\00\00\00\00\A7\02\00\00\0D\00\00\00" }>, align 8
@vtable.b = private constant <{ [24 x i8], ptr }> <{ [24 x i8] c"\00\00\00\00\00\00\00\000\00\00\00\00\00\00\00\08\00\00\00\00\00\00\00", ptr @"_ZN67_$LT$core..fmt..Arguments$u20$as$u20$tracing_core..field..Value$GT$6record17h8350c97cea358179E" }>, align 8, !dbg !201
@alloc_0afa83205f139275848646d872fb5496 = private unnamed_addr constant <{ [13 x i8] }> <{ [13 x i8] c"Events { .. }" }>, align 1
@alloc_b193aa16727a139573db31cbb3d3ddc6 = private unnamed_addr constant <{ [6 x i8] }> <{ [6 x i8] c"Poller" }>, align 1
@alloc_ffe35a43a96b4b78dfc5c6f522c632b1 = private unnamed_addr constant <{ [8 x i8] }> <{ [8 x i8] c"epoll_fd" }>, align 1
@vtable.c = private constant <{ ptr, [16 x i8], ptr }> <{ ptr @"_ZN4core3ptr48drop_in_place$LT$std..os..fd..owned..OwnedFd$GT$17h112a5a7820aa4dc4E", [16 x i8] c"\04\00\00\00\00\00\00\00\04\00\00\00\00\00\00\00", ptr @"_ZN64_$LT$std..os..fd..owned..OwnedFd$u20$as$u20$core..fmt..Debug$GT$3fmt17hfc3f065e593247d1E" }>, align 8, !dbg !353
@alloc_cd601671f88ccc08a48d5dc725e43406 = private unnamed_addr constant <{ [8 x i8] }> <{ [8 x i8] c"notifier" }>, align 1
@vtable.d = private constant <{ ptr, [16 x i8], ptr }> <{ ptr @"_ZN4core3ptr45drop_in_place$LT$polling..epoll..Notifier$GT$17h4ddb63129a88edfcE", [16 x i8] c"\08\00\00\00\00\00\00\00\04\00\00\00\00\00\00\00", ptr @"_ZN61_$LT$polling..epoll..Notifier$u20$as$u20$core..fmt..Debug$GT$3fmt17h6c07331f039a4299E" }>, align 8, !dbg !361
@alloc_0d459c4cf57918be5c7bf18ec6ac4be7 = private unnamed_addr constant <{ [8 x i8] }> <{ [8 x i8] c"timer_fd" }>, align 1
@alloc_0686ccf25c0b72058902e9fc110d4ec6 = private unnamed_addr constant <{ [3 x i8] }> <{ [3 x i8] c"new" }>, align 1
@alloc_a3c23a344898b79699efbef98779dd1f = private unnamed_addr constant <{ ptr, [8 x i8] }> <{ ptr @alloc_0686ccf25c0b72058902e9fc110d4ec6, [8 x i8] c"\03\00\00\00\00\00\00\00" }>, align 8
@alloc_ddc8d2443ca4add6d72cb2520e09fd45 = private unnamed_addr constant <{ [93 x i8] }> <{ [93 x i8] c"/home/arsalan/.cargo/registry/src/index.crates.io-1949cf8c6b5b557f/polling-3.3.1/src/epoll.rs" }>, align 1
@alloc_4375fc2e85b243b79a5811ae65f90462 = private unnamed_addr constant <{ ptr, [16 x i8] }> <{ ptr @alloc_ddc8d2443ca4add6d72cb2520e09fd45, [16 x i8] c"]\00\00\00\00\00\00\00F\00\00\00\09\00\00\00" }>, align 8
@vtable.e = private constant <{ [24 x i8], ptr }> <{ [24 x i8] c"\00\00\00\00\00\00\00\00\08\00\00\00\00\00\00\00\08\00\00\00\00\00\00\00", ptr @"_ZN87_$LT$tracing_core..field..DebugValue$LT$T$GT$$u20$as$u20$tracing_core..field..Value$GT$6record17h501a71c08ecd72deE" }>, align 8, !dbg !369
@vtable.f = private constant <{ [24 x i8], ptr }> <{ [24 x i8] c"\00\00\00\00\00\00\00\00\08\00\00\00\00\00\00\00\08\00\00\00\00\00\00\00", ptr @"_ZN87_$LT$tracing_core..field..DebugValue$LT$T$GT$$u20$as$u20$tracing_core..field..Value$GT$6record17h206e5b040e0807a3E" }>, align 8, !dbg !382
@vtable.g = private constant <{ [24 x i8], ptr }> <{ [24 x i8] c"\00\00\00\00\00\00\00\00\08\00\00\00\00\00\00\00\08\00\00\00\00\00\00\00", ptr @"_ZN87_$LT$tracing_core..field..DebugValue$LT$T$GT$$u20$as$u20$tracing_core..field..Value$GT$6record17hb2aa03ca58ad2804E" }>, align 8, !dbg !395
@alloc_37ff6c90074a6165d9641e217041d833 = private unnamed_addr constant <{ ptr, [16 x i8] }> <{ ptr @alloc_ddc8d2443ca4add6d72cb2520e09fd45, [16 x i8] c"]\00\00\00\00\00\00\00`\00\00\00\14\00\00\00" }>, align 8
@vtable.h = private constant <{ [24 x i8], ptr }> <{ [24 x i8] c"\00\00\00\00\00\00\00\00\08\00\00\00\00\00\00\00\08\00\00\00\00\00\00\00", ptr @"_ZN87_$LT$tracing_core..field..DebugValue$LT$T$GT$$u20$as$u20$tracing_core..field..Value$GT$6record17h6b2f4533934f407bE" }>, align 8, !dbg !408
@alloc_1b2ec0b9393e976e5b97bc297b0a2446 = private unnamed_addr constant <{ ptr, [16 x i8] }> <{ ptr @alloc_ddc8d2443ca4add6d72cb2520e09fd45, [16 x i8] c"]\00\00\00\00\00\00\00t\00\00\00\14\00\00\00" }>, align 8
@vtable.i = private constant <{ [24 x i8], ptr }> <{ [24 x i8] c"\00\00\00\00\00\00\00\00\08\00\00\00\00\00\00\00\08\00\00\00\00\00\00\00", ptr @"_ZN87_$LT$tracing_core..field..DebugValue$LT$T$GT$$u20$as$u20$tracing_core..field..Value$GT$6record17haa36af325d9e6944E" }>, align 8, !dbg !421
@alloc_d411a384c946d04ac0a9a4bcf8a04175 = private unnamed_addr constant <{ ptr, [16 x i8] }> <{ ptr @alloc_ddc8d2443ca4add6d72cb2520e09fd45, [16 x i8] c"]\00\00\00\00\00\00\00\88\00\00\00\14\00\00\00" }>, align 8
@alloc_95e92f83731178ae33d93bf452781900 = private unnamed_addr constant <{ [10 x i8] }> <{ [10 x i8] c"new events" }>, align 1
@alloc_0ef5cc2612932fe75c1c0fcfc66197a3 = private unnamed_addr constant <{ ptr, [8 x i8] }> <{ ptr @alloc_95e92f83731178ae33d93bf452781900, [8 x i8] c"\0A\00\00\00\00\00\00\00" }>, align 8
@alloc_752ad612a72ec3352f88273b8ae65856 = private unnamed_addr constant <{ ptr, [16 x i8] }> <{ ptr @alloc_ddc8d2443ca4add6d72cb2520e09fd45, [16 x i8] c"]\00\00\00\00\00\00\00\97\00\00\00\14\00\00\00" }>, align 8
@alloc_7aae1e32b5d9898c81075d3336275b65 = private unnamed_addr constant <{ ptr, [16 x i8] }> <{ ptr @alloc_ddc8d2443ca4add6d72cb2520e09fd45, [16 x i8] c"]\00\00\00\00\00\00\00\C8\00\00\00\09\00\00\00" }>, align 8
@vtable.j = private constant <{ [24 x i8], ptr }> <{ [24 x i8] c"\00\00\00\00\00\00\00\00\08\00\00\00\00\00\00\00\08\00\00\00\00\00\00\00", ptr @"_ZN87_$LT$tracing_core..field..DebugValue$LT$T$GT$$u20$as$u20$tracing_core..field..Value$GT$6record17hf3444064221f45caE" }>, align 8, !dbg !434
@alloc_020b8fa1d9efe2155976db85269e8c04 = private unnamed_addr constant <{ ptr, [16 x i8] }> <{ ptr @alloc_ddc8d2443ca4add6d72cb2520e09fd45, [16 x i8] c"]\00\00\00\00\00\00\00\DA\00\00\00\14\00\00\00" }>, align 8
@alloc_f5b72dc172282f2441bd69b236f6b145 = private unnamed_addr constant <{ ptr, [16 x i8] }> <{ ptr @alloc_ddc8d2443ca4add6d72cb2520e09fd45, [16 x i8] c"]\00\00\00\00\00\00\00\F4\00\00\00\14\00\00\00" }>, align 8
@alloc_9cc6a537247d50e5d2eaa3029fc1c590 = private unnamed_addr constant <{ [28 x i8] }> <{ [28 x i8] c"created eventfd for notifier" }>, align 1
@alloc_78d7ccbe3518eccf46d2a4c2fc0df13a = private unnamed_addr constant <{ ptr, [8 x i8] }> <{ ptr @alloc_9cc6a537247d50e5d2eaa3029fc1c590, [8 x i8] c"\1C\00\00\00\00\00\00\00" }>, align 8
@alloc_503e50696728187df3d251538a824896 = private unnamed_addr constant <{ [29 x i8] }> <{ [29 x i8] c"eventfd() failed with error (" }>, align 1
@alloc_082d8192188425fea10bdb6d7477a5aa = private unnamed_addr constant <{ [23 x i8] }> <{ [23 x i8] c"), falling back to pipe" }>, align 1
@alloc_8712fcc692c6c004559a17619fffbff1 = private unnamed_addr constant <{ ptr, [8 x i8], ptr, [8 x i8] }> <{ ptr @alloc_503e50696728187df3d251538a824896, [8 x i8] c"\1D\00\00\00\00\00\00\00", ptr @alloc_082d8192188425fea10bdb6d7477a5aa, [8 x i8] c"\17\00\00\00\00\00\00\00" }>, align 8
@alloc_ab2287ec06c9e063f585fce81c8dee28 = private unnamed_addr constant <{ ptr, [16 x i8] }> <{ ptr @alloc_ddc8d2443ca4add6d72cb2520e09fd45, [16 x i8] c"]\00\00\00\00\00\00\00\90\01\00\00\15\00\00\00" }>, align 8
@alloc_29bf9fb9195b06f6e22193fcca449617 = private unnamed_addr constant <{ ptr, [16 x i8] }> <{ ptr @alloc_ddc8d2443ca4add6d72cb2520e09fd45, [16 x i8] c"]\00\00\00\00\00\00\00\95\01\00\00\15\00\00\00" }>, align 8
@alloc_914b2c69d7eca30497b9feaf15ac92f1 = private unnamed_addr constant <{ [1 x i8] }> zeroinitializer, align 1
@_ZN7polling5epoll6Poller3new10__CALLSITE17hec36334e3b9ca9dbE = internal global <{ ptr, [10 x i8], [6 x i8] }> <{ ptr @_ZN7polling5epoll6Poller3new10__CALLSITE4META17h08de216c26f3d795E, [10 x i8] c"\00\00\00\00\00\00\00\00\FF\00", [6 x i8] undef }>, align 8, !dbg !447
@alloc_3540ea2bca92d4e1e5ded1e17ad495b1 = private unnamed_addr constant <{ [102 x i8] }> <{ [102 x i8] c"event /home/arsalan/.cargo/registry/src/index.crates.io-1949cf8c6b5b557f/polling-3.3.1/src/epoll.rs:70" }>, align 1
@alloc_d3b15a9b9c7f5cf14654781cfa830b76 = private unnamed_addr constant <{ [14 x i8] }> <{ [14 x i8] c"polling::epoll" }>, align 1
@alloc_96af468510ea8f5f9cb1c5ccd138c101 = private unnamed_addr constant <{ [7 x i8] }> <{ [7 x i8] c"message" }>, align 1
@alloc_ab2012c6d029dd37ad3e6438fab9e1f4 = private unnamed_addr constant <{ ptr, [8 x i8], ptr, [8 x i8], ptr, [8 x i8], ptr, [8 x i8] }> <{ ptr @alloc_96af468510ea8f5f9cb1c5ccd138c101, [8 x i8] c"\07\00\00\00\00\00\00\00", ptr @alloc_ffe35a43a96b4b78dfc5c6f522c632b1, [8 x i8] c"\08\00\00\00\00\00\00\00", ptr @alloc_cd601671f88ccc08a48d5dc725e43406, [8 x i8] c"\08\00\00\00\00\00\00\00", ptr @alloc_0d459c4cf57918be5c7bf18ec6ac4be7, [8 x i8] c"\08\00\00\00\00\00\00\00" }>, align 8
@0 = private unnamed_addr constant <{ [24 x i8], ptr, ptr, ptr }> <{ [24 x i8] c"\00\00\00\00\00\00\00\00\18\00\00\00\00\00\00\00\08\00\00\00\00\00\00\00", ptr @"_ZN92_$LT$tracing_core..callsite..DefaultCallsite$u20$as$u20$tracing_core..callsite..Callsite$GT$12set_interest17h1c1c1012ea2e3978E", ptr @"_ZN92_$LT$tracing_core..callsite..DefaultCallsite$u20$as$u20$tracing_core..callsite..Callsite$GT$8metadata17hb799fd052c98709bE", ptr @_ZN12tracing_core8callsite8Callsite15private_type_id17he95e1da1da6afd5bE }>, align 8
@_ZN7polling5epoll6Poller3new10__CALLSITE4META17h08de216c26f3d795E = internal constant <{ [16 x i8], ptr, [8 x i8], ptr, [8 x i8], ptr, [8 x i8], ptr, ptr, ptr, [8 x i8], ptr, [9 x i8], [7 x i8] }> <{ [16 x i8] c"\00\00\00\00\00\00\00\00\01\00\00\00F\00\00\00", ptr @alloc_3540ea2bca92d4e1e5ded1e17ad495b1, [8 x i8] c"f\00\00\00\00\00\00\00", ptr @alloc_d3b15a9b9c7f5cf14654781cfa830b76, [8 x i8] c"\0E\00\00\00\00\00\00\00", ptr @alloc_ab2012c6d029dd37ad3e6438fab9e1f4, [8 x i8] c"\04\00\00\00\00\00\00\00", ptr @_ZN7polling5epoll6Poller3new10__CALLSITE17hec36334e3b9ca9dbE, ptr @0, ptr @alloc_d3b15a9b9c7f5cf14654781cfa830b76, [8 x i8] c"\0E\00\00\00\00\00\00\00", ptr @alloc_ddc8d2443ca4add6d72cb2520e09fd45, [9 x i8] c"]\00\00\00\00\00\00\00\01", [7 x i8] undef }>, align 8, !dbg !545
@_ZN7polling5epoll6Poller3add10__CALLSITE17h37b8384db6931546E = internal global <{ ptr, [10 x i8], [6 x i8] }> <{ ptr @_ZN7polling5epoll6Poller3add10__CALLSITE4META17hebb619e5dd9d641eE, [10 x i8] c"\00\00\00\00\00\00\00\00\FF\00", [6 x i8] undef }>, align 8, !dbg !548
@alloc_570d9fe4b5961862179f7942a2cbdd3e = private unnamed_addr constant <{ [3 x i8] }> <{ [3 x i8] c"add" }>, align 1
@alloc_257d8ea0f3427c64d15496bdbcd9b9b8 = private unnamed_addr constant <{ [2 x i8] }> <{ [2 x i8] c"fd" }>, align 1
@alloc_2d99f767c1f1ce2e02eeca03cc717102 = private unnamed_addr constant <{ [2 x i8] }> <{ [2 x i8] c"ev" }>, align 1
@alloc_6bdaa29cd1f0d090bbb6601c906fa0a7 = private unnamed_addr constant <{ ptr, [8 x i8], ptr, [8 x i8], ptr, [8 x i8] }> <{ ptr @alloc_ffe35a43a96b4b78dfc5c6f522c632b1, [8 x i8] c"\08\00\00\00\00\00\00\00", ptr @alloc_257d8ea0f3427c64d15496bdbcd9b9b8, [8 x i8] c"\02\00\00\00\00\00\00\00", ptr @alloc_2d99f767c1f1ce2e02eeca03cc717102, [8 x i8] c"\02\00\00\00\00\00\00\00" }>, align 8
@_ZN7polling5epoll6Poller3add10__CALLSITE4META17hebb619e5dd9d641eE = internal constant <{ [16 x i8], ptr, [8 x i8], ptr, [8 x i8], ptr, [8 x i8], ptr, ptr, ptr, [8 x i8], ptr, [9 x i8], [7 x i8] }> <{ [16 x i8] c"\00\00\00\00\00\00\00\00\01\00\00\00`\00\00\00", ptr @alloc_570d9fe4b5961862179f7942a2cbdd3e, [8 x i8] c"\03\00\00\00\00\00\00\00", ptr @alloc_d3b15a9b9c7f5cf14654781cfa830b76, [8 x i8] c"\0E\00\00\00\00\00\00\00", ptr @alloc_6bdaa29cd1f0d090bbb6601c906fa0a7, [8 x i8] c"\03\00\00\00\00\00\00\00", ptr @_ZN7polling5epoll6Poller3add10__CALLSITE17h37b8384db6931546E, ptr @0, ptr @alloc_d3b15a9b9c7f5cf14654781cfa830b76, [8 x i8] c"\0E\00\00\00\00\00\00\00", ptr @alloc_ddc8d2443ca4add6d72cb2520e09fd45, [9 x i8] c"]\00\00\00\00\00\00\00\02", [7 x i8] undef }>, align 8, !dbg !551
@_ZN7polling5epoll6Poller6modify10__CALLSITE17hc86c8170a05943afE = internal global <{ ptr, [10 x i8], [6 x i8] }> <{ ptr @_ZN7polling5epoll6Poller6modify10__CALLSITE4META17hff28d8b06f6b3e4fE, [10 x i8] c"\00\00\00\00\00\00\00\00\FF\00", [6 x i8] undef }>, align 8, !dbg !554
@alloc_af90522ee9b0e13627e3b79939a4ea3a = private unnamed_addr constant <{ [6 x i8] }> <{ [6 x i8] c"modify" }>, align 1
@_ZN7polling5epoll6Poller6modify10__CALLSITE4META17hff28d8b06f6b3e4fE = internal constant <{ [16 x i8], ptr, [8 x i8], ptr, [8 x i8], ptr, [8 x i8], ptr, ptr, ptr, [8 x i8], ptr, [9 x i8], [7 x i8] }> <{ [16 x i8] c"\00\00\00\00\00\00\00\00\01\00\00\00t\00\00\00", ptr @alloc_af90522ee9b0e13627e3b79939a4ea3a, [8 x i8] c"\06\00\00\00\00\00\00\00", ptr @alloc_d3b15a9b9c7f5cf14654781cfa830b76, [8 x i8] c"\0E\00\00\00\00\00\00\00", ptr @alloc_6bdaa29cd1f0d090bbb6601c906fa0a7, [8 x i8] c"\03\00\00\00\00\00\00\00", ptr @_ZN7polling5epoll6Poller6modify10__CALLSITE17hc86c8170a05943afE, ptr @0, ptr @alloc_d3b15a9b9c7f5cf14654781cfa830b76, [8 x i8] c"\0E\00\00\00\00\00\00\00", ptr @alloc_ddc8d2443ca4add6d72cb2520e09fd45, [9 x i8] c"]\00\00\00\00\00\00\00\02", [7 x i8] undef }>, align 8, !dbg !557
@_ZN7polling5epoll6Poller6delete10__CALLSITE17h0f0feff83fb1a812E = internal global <{ ptr, [10 x i8], [6 x i8] }> <{ ptr @_ZN7polling5epoll6Poller6delete10__CALLSITE4META17h476a1aff59261d2eE, [10 x i8] c"\00\00\00\00\00\00\00\00\FF\00", [6 x i8] undef }>, align 8, !dbg !560
@alloc_f760419cd46432671727dbfb96a26d5f = private unnamed_addr constant <{ [6 x i8] }> <{ [6 x i8] c"delete" }>, align 1
@alloc_67c85fe08045d6ef8be02c222cff9ae9 = private unnamed_addr constant <{ ptr, [8 x i8], ptr, [8 x i8] }> <{ ptr @alloc_ffe35a43a96b4b78dfc5c6f522c632b1, [8 x i8] c"\08\00\00\00\00\00\00\00", ptr @alloc_257d8ea0f3427c64d15496bdbcd9b9b8, [8 x i8] c"\02\00\00\00\00\00\00\00" }>, align 8
@_ZN7polling5epoll6Poller6delete10__CALLSITE4META17h476a1aff59261d2eE = internal constant <{ [16 x i8], ptr, [8 x i8], ptr, [8 x i8], ptr, [8 x i8], ptr, ptr, ptr, [8 x i8], ptr, [9 x i8], [7 x i8] }> <{ [16 x i8] c"\00\00\00\00\00\00\00\00\01\00\00\00\88\00\00\00", ptr @alloc_f760419cd46432671727dbfb96a26d5f, [8 x i8] c"\06\00\00\00\00\00\00\00", ptr @alloc_d3b15a9b9c7f5cf14654781cfa830b76, [8 x i8] c"\0E\00\00\00\00\00\00\00", ptr @alloc_67c85fe08045d6ef8be02c222cff9ae9, [8 x i8] c"\02\00\00\00\00\00\00\00", ptr @_ZN7polling5epoll6Poller6delete10__CALLSITE17h0f0feff83fb1a812E, ptr @0, ptr @alloc_d3b15a9b9c7f5cf14654781cfa830b76, [8 x i8] c"\0E\00\00\00\00\00\00\00", ptr @alloc_ddc8d2443ca4add6d72cb2520e09fd45, [9 x i8] c"]\00\00\00\00\00\00\00\02", [7 x i8] undef }>, align 8, !dbg !563
@_ZN7polling5epoll6Poller4wait10__CALLSITE17h47f04eb2909634b5E = internal global <{ ptr, [10 x i8], [6 x i8] }> <{ ptr @_ZN7polling5epoll6Poller4wait10__CALLSITE4META17h7c7b56eeaf624c9bE, [10 x i8] c"\00\00\00\00\00\00\00\00\FF\00", [6 x i8] undef }>, align 8, !dbg !566
@alloc_a3d069ed22d9fea7746e2364ccef54c9 = private unnamed_addr constant <{ [4 x i8] }> <{ [4 x i8] c"wait" }>, align 1
@alloc_6414126aefaf2932c45c6caed9a60b88 = private unnamed_addr constant <{ [7 x i8] }> <{ [7 x i8] c"timeout" }>, align 1
@alloc_aeda65cbf8dd39a975e3ff70d373e8e6 = private unnamed_addr constant <{ ptr, [8 x i8], ptr, [8 x i8] }> <{ ptr @alloc_ffe35a43a96b4b78dfc5c6f522c632b1, [8 x i8] c"\08\00\00\00\00\00\00\00", ptr @alloc_6414126aefaf2932c45c6caed9a60b88, [8 x i8] c"\07\00\00\00\00\00\00\00" }>, align 8
@_ZN7polling5epoll6Poller4wait10__CALLSITE4META17h7c7b56eeaf624c9bE = internal constant <{ [16 x i8], ptr, [8 x i8], ptr, [8 x i8], ptr, [8 x i8], ptr, ptr, ptr, [8 x i8], ptr, [9 x i8], [7 x i8] }> <{ [16 x i8] c"\00\00\00\00\00\00\00\00\01\00\00\00\97\00\00\00", ptr @alloc_a3d069ed22d9fea7746e2364ccef54c9, [8 x i8] c"\04\00\00\00\00\00\00\00", ptr @alloc_d3b15a9b9c7f5cf14654781cfa830b76, [8 x i8] c"\0E\00\00\00\00\00\00\00", ptr @alloc_aeda65cbf8dd39a975e3ff70d373e8e6, [8 x i8] c"\02\00\00\00\00\00\00\00", ptr @_ZN7polling5epoll6Poller4wait10__CALLSITE17h47f04eb2909634b5E, ptr @0, ptr @alloc_d3b15a9b9c7f5cf14654781cfa830b76, [8 x i8] c"\0E\00\00\00\00\00\00\00", ptr @alloc_ddc8d2443ca4add6d72cb2520e09fd45, [9 x i8] c"]\00\00\00\00\00\00\00\02", [7 x i8] undef }>, align 8, !dbg !569
@_ZN7polling5epoll6Poller4wait10__CALLSITE17h7453f744fe2b907bE = internal global <{ ptr, [10 x i8], [6 x i8] }> <{ ptr @_ZN7polling5epoll6Poller4wait10__CALLSITE4META17h06f28c7bf42b67f5E, [10 x i8] c"\00\00\00\00\00\00\00\00\FF\00", [6 x i8] undef }>, align 8, !dbg !572
@alloc_8b21cf7a3ae3170955d5762b4da86e74 = private unnamed_addr constant <{ [103 x i8] }> <{ [103 x i8] c"event /home/arsalan/.cargo/registry/src/index.crates.io-1949cf8c6b5b557f/polling-3.3.1/src/epoll.rs:200" }>, align 1
@alloc_c3e892a06b3dd07d0668dfad61cea6fa = private unnamed_addr constant <{ [3 x i8] }> <{ [3 x i8] c"res" }>, align 1
@alloc_9a5c87415d8d087f560bcda91e8497ba = private unnamed_addr constant <{ ptr, [8 x i8], ptr, [8 x i8], ptr, [8 x i8] }> <{ ptr @alloc_96af468510ea8f5f9cb1c5ccd138c101, [8 x i8] c"\07\00\00\00\00\00\00\00", ptr @alloc_ffe35a43a96b4b78dfc5c6f522c632b1, [8 x i8] c"\08\00\00\00\00\00\00\00", ptr @alloc_c3e892a06b3dd07d0668dfad61cea6fa, [8 x i8] c"\03\00\00\00\00\00\00\00" }>, align 8
@_ZN7polling5epoll6Poller4wait10__CALLSITE4META17h06f28c7bf42b67f5E = internal constant <{ [16 x i8], ptr, [8 x i8], ptr, [8 x i8], ptr, [8 x i8], ptr, ptr, ptr, [8 x i8], ptr, [9 x i8], [7 x i8] }> <{ [16 x i8] c"\00\00\00\00\00\00\00\00\01\00\00\00\C8\00\00\00", ptr @alloc_8b21cf7a3ae3170955d5762b4da86e74, [8 x i8] c"g\00\00\00\00\00\00\00", ptr @alloc_d3b15a9b9c7f5cf14654781cfa830b76, [8 x i8] c"\0E\00\00\00\00\00\00\00", ptr @alloc_9a5c87415d8d087f560bcda91e8497ba, [8 x i8] c"\03\00\00\00\00\00\00\00", ptr @_ZN7polling5epoll6Poller4wait10__CALLSITE17h7453f744fe2b907bE, ptr @0, ptr @alloc_d3b15a9b9c7f5cf14654781cfa830b76, [8 x i8] c"\0E\00\00\00\00\00\00\00", ptr @alloc_ddc8d2443ca4add6d72cb2520e09fd45, [9 x i8] c"]\00\00\00\00\00\00\00\01", [7 x i8] undef }>, align 8, !dbg !574
@_ZN7polling5epoll6Poller6notify10__CALLSITE17h522be93396b29ed0E = internal global <{ ptr, [10 x i8], [6 x i8] }> <{ ptr @_ZN7polling5epoll6Poller6notify10__CALLSITE4META17h039b9d0d49887895E, [10 x i8] c"\00\00\00\00\00\00\00\00\FF\00", [6 x i8] undef }>, align 8, !dbg !576
@alloc_b8f04413f491ecb0919faae141054279 = private unnamed_addr constant <{ [6 x i8] }> <{ [6 x i8] c"notify" }>, align 1
@alloc_fe6a969c6614179ef40ed071a385635c = private unnamed_addr constant <{ ptr, [8 x i8], ptr, [8 x i8] }> <{ ptr @alloc_ffe35a43a96b4b78dfc5c6f522c632b1, [8 x i8] c"\08\00\00\00\00\00\00\00", ptr @alloc_cd601671f88ccc08a48d5dc725e43406, [8 x i8] c"\08\00\00\00\00\00\00\00" }>, align 8
@_ZN7polling5epoll6Poller6notify10__CALLSITE4META17h039b9d0d49887895E = internal constant <{ [16 x i8], ptr, [8 x i8], ptr, [8 x i8], ptr, [8 x i8], ptr, ptr, ptr, [8 x i8], ptr, [9 x i8], [7 x i8] }> <{ [16 x i8] c"\00\00\00\00\00\00\00\00\01\00\00\00\DA\00\00\00", ptr @alloc_b8f04413f491ecb0919faae141054279, [8 x i8] c"\06\00\00\00\00\00\00\00", ptr @alloc_d3b15a9b9c7f5cf14654781cfa830b76, [8 x i8] c"\0E\00\00\00\00\00\00\00", ptr @alloc_fe6a969c6614179ef40ed071a385635c, [8 x i8] c"\02\00\00\00\00\00\00\00", ptr @_ZN7polling5epoll6Poller6notify10__CALLSITE17h522be93396b29ed0E, ptr @0, ptr @alloc_d3b15a9b9c7f5cf14654781cfa830b76, [8 x i8] c"\0E\00\00\00\00\00\00\00", ptr @alloc_ddc8d2443ca4add6d72cb2520e09fd45, [9 x i8] c"]\00\00\00\00\00\00\00\02", [7 x i8] undef }>, align 8, !dbg !579
@"_ZN64_$LT$polling..epoll..Poller$u20$as$u20$core..ops..drop..Drop$GT$4drop10__CALLSITE17h97c28092cdbf48b9E" = internal global <{ ptr, [10 x i8], [6 x i8] }> <{ ptr @"_ZN64_$LT$polling..epoll..Poller$u20$as$u20$core..ops..drop..Drop$GT$4drop10__CALLSITE4META17hb6538cadac2b1853E", [10 x i8] c"\00\00\00\00\00\00\00\00\FF\00", [6 x i8] undef }>, align 8, !dbg !582
@alloc_bae392b842f752aea5f08c681783b48b = private unnamed_addr constant <{ [4 x i8] }> <{ [4 x i8] c"drop" }>, align 1
@alloc_51aab2d05c9ca3c1e3e29f9b2e2f5f22 = private unnamed_addr constant <{ ptr, [8 x i8], ptr, [8 x i8], ptr, [8 x i8] }> <{ ptr @alloc_ffe35a43a96b4b78dfc5c6f522c632b1, [8 x i8] c"\08\00\00\00\00\00\00\00", ptr @alloc_cd601671f88ccc08a48d5dc725e43406, [8 x i8] c"\08\00\00\00\00\00\00\00", ptr @alloc_0d459c4cf57918be5c7bf18ec6ac4be7, [8 x i8] c"\08\00\00\00\00\00\00\00" }>, align 8
@"_ZN64_$LT$polling..epoll..Poller$u20$as$u20$core..ops..drop..Drop$GT$4drop10__CALLSITE4META17hb6538cadac2b1853E" = internal constant <{ [16 x i8], ptr, [8 x i8], ptr, [8 x i8], ptr, [8 x i8], ptr, ptr, ptr, [8 x i8], ptr, [9 x i8], [7 x i8] }> <{ [16 x i8] c"\00\00\00\00\00\00\00\00\01\00\00\00\F4\00\00\00", ptr @alloc_bae392b842f752aea5f08c681783b48b, [8 x i8] c"\04\00\00\00\00\00\00\00", ptr @alloc_d3b15a9b9c7f5cf14654781cfa830b76, [8 x i8] c"\0E\00\00\00\00\00\00\00", ptr @alloc_51aab2d05c9ca3c1e3e29f9b2e2f5f22, [8 x i8] c"\03\00\00\00\00\00\00\00", ptr @"_ZN64_$LT$polling..epoll..Poller$u20$as$u20$core..ops..drop..Drop$GT$4drop10__CALLSITE17h97c28092cdbf48b9E", ptr @0, ptr @alloc_d3b15a9b9c7f5cf14654781cfa830b76, [8 x i8] c"\0E\00\00\00\00\00\00\00", ptr @alloc_ddc8d2443ca4add6d72cb2520e09fd45, [9 x i8] c"]\00\00\00\00\00\00\00\02", [7 x i8] undef }>, align 8, !dbg !586
@alloc_f612403e0056a522ece63314df8bb7d1 = private unnamed_addr constant <{ [10 x i8] }> <{ [10 x i8] c"EventExtra" }>, align 1
@alloc_33b38ed17f811d2d9c0ae72269382e55 = private unnamed_addr constant <{ [5 x i8] }> <{ [5 x i8] c"flags" }>, align 1
@vtable.k = private constant <{ [24 x i8], ptr }> <{ [24 x i8] c"\00\00\00\00\00\00\00\00\08\00\00\00\00\00\00\00\08\00\00\00\00\00\00\00", ptr @"_ZN42_$LT$$RF$T$u20$as$u20$core..fmt..Debug$GT$3fmt17h783194bd0d6151b4E" }>, align 8, !dbg !589
@alloc_a41d0b4b3d8d794ca84950c963d149a7 = private unnamed_addr constant <{ [7 x i8] }> <{ [7 x i8] c"EventFd" }>, align 1
@alloc_9ea687ed38ed2de89e671cda62d01258 = private unnamed_addr constant <{ [4 x i8] }> <{ [4 x i8] c"Pipe" }>, align 1
@alloc_616d65357465a138b4d75167e7b31d8a = private unnamed_addr constant <{ [9 x i8] }> <{ [9 x i8] c"read_pipe" }>, align 1
@alloc_275986536d8cf218581cbea6323418cb = private unnamed_addr constant <{ [10 x i8] }> <{ [10 x i8] c"write_pipe" }>, align 1
@_ZN7polling5epoll8Notifier3new10__CALLSITE17h4b92554da2d095ebE = internal global <{ ptr, [10 x i8], [6 x i8] }> <{ ptr @_ZN7polling5epoll8Notifier3new10__CALLSITE4META17h666d9223853b8bc3E, [10 x i8] c"\00\00\00\00\00\00\00\00\FF\00", [6 x i8] undef }>, align 8, !dbg !598
@alloc_bb4638fcbb82b9bf715923c6f96dc8bb = private unnamed_addr constant <{ [103 x i8] }> <{ [103 x i8] c"event /home/arsalan/.cargo/registry/src/index.crates.io-1949cf8c6b5b557f/polling-3.3.1/src/epoll.rs:400" }>, align 1
@alloc_6f945744a05743cf0c7513d605ac6eaa = private unnamed_addr constant <{ ptr, [8 x i8] }> <{ ptr @alloc_96af468510ea8f5f9cb1c5ccd138c101, [8 x i8] c"\07\00\00\00\00\00\00\00" }>, align 8
@_ZN7polling5epoll8Notifier3new10__CALLSITE4META17h666d9223853b8bc3E = internal constant <{ [16 x i8], ptr, [8 x i8], ptr, [8 x i8], ptr, [8 x i8], ptr, ptr, ptr, [8 x i8], ptr, [9 x i8], [7 x i8] }> <{ [16 x i8] c"\00\00\00\00\00\00\00\00\01\00\00\00\90\01\00\00", ptr @alloc_bb4638fcbb82b9bf715923c6f96dc8bb, [8 x i8] c"g\00\00\00\00\00\00\00", ptr @alloc_d3b15a9b9c7f5cf14654781cfa830b76, [8 x i8] c"\0E\00\00\00\00\00\00\00", ptr @alloc_6f945744a05743cf0c7513d605ac6eaa, [8 x i8] c"\01\00\00\00\00\00\00\00", ptr @_ZN7polling5epoll8Notifier3new10__CALLSITE17h4b92554da2d095ebE, ptr @0, ptr @alloc_d3b15a9b9c7f5cf14654781cfa830b76, [8 x i8] c"\0E\00\00\00\00\00\00\00", ptr @alloc_ddc8d2443ca4add6d72cb2520e09fd45, [9 x i8] c"]\00\00\00\00\00\00\00\01", [7 x i8] undef }>, align 8, !dbg !602
@_ZN7polling5epoll8Notifier3new10__CALLSITE17h264b12b1c2376d77E = internal global <{ ptr, [10 x i8], [6 x i8] }> <{ ptr @_ZN7polling5epoll8Notifier3new10__CALLSITE4META17h83bf2172330e6193E, [10 x i8] c"\00\00\00\00\00\00\00\00\FF\00", [6 x i8] undef }>, align 8, !dbg !605
@alloc_99f98b90ed12e026d069f36dc43954c9 = private unnamed_addr constant <{ [103 x i8] }> <{ [103 x i8] c"event /home/arsalan/.cargo/registry/src/index.crates.io-1949cf8c6b5b557f/polling-3.3.1/src/epoll.rs:405" }>, align 1
@_ZN7polling5epoll8Notifier3new10__CALLSITE4META17h83bf2172330e6193E = internal constant <{ [16 x i8], ptr, [8 x i8], ptr, [8 x i8], ptr, [8 x i8], ptr, ptr, ptr, [8 x i8], ptr, [9 x i8], [7 x i8] }> <{ [16 x i8] c"\03\00\00\00\00\00\00\00\01\00\00\00\95\01\00\00", ptr @alloc_99f98b90ed12e026d069f36dc43954c9, [8 x i8] c"g\00\00\00\00\00\00\00", ptr @alloc_d3b15a9b9c7f5cf14654781cfa830b76, [8 x i8] c"\0E\00\00\00\00\00\00\00", ptr @alloc_6f945744a05743cf0c7513d605ac6eaa, [8 x i8] c"\01\00\00\00\00\00\00\00", ptr @_ZN7polling5epoll8Notifier3new10__CALLSITE17h264b12b1c2376d77E, ptr @0, ptr @alloc_d3b15a9b9c7f5cf14654781cfa830b76, [8 x i8] c"\0E\00\00\00\00\00\00\00", ptr @alloc_ddc8d2443ca4add6d72cb2520e09fd45, [9 x i8] c"]\00\00\00\00\00\00\00\01", [7 x i8] undef }>, align 8, !dbg !607
@alloc_965588a8515eecb105f80d4ec5fbda68 = private unnamed_addr constant <{ [5 x i8] }> <{ [5 x i8] c"Event" }>, align 1
@alloc_25e0d7e970dcb58d756f6f40f94c4cb8 = private unnamed_addr constant <{ [3 x i8] }> <{ [3 x i8] c"key" }>, align 1
@vtable.l = private constant <{ [24 x i8], ptr }> <{ [24 x i8] c"\00\00\00\00\00\00\00\00\08\00\00\00\00\00\00\00\08\00\00\00\00\00\00\00", ptr @"_ZN4core3fmt3num52_$LT$impl$u20$core..fmt..Debug$u20$for$u20$usize$GT$3fmt17ha3731fb0f809905cE" }>, align 8, !dbg !609
@alloc_c0d7ef12a63b0670e34406e6bd0d324b = private unnamed_addr constant <{ [8 x i8] }> <{ [8 x i8] c"readable" }>, align 1
@vtable.m = private constant <{ [24 x i8], ptr }> <{ [24 x i8] c"\00\00\00\00\00\00\00\00\01\00\00\00\00\00\00\00\01\00\00\00\00\00\00\00", ptr @"_ZN41_$LT$bool$u20$as$u20$core..fmt..Debug$GT$3fmt17h40eba7a03f944241E" }>, align 8, !dbg !617
@alloc_2c21ed98b6c8e32799e39878c35ad137 = private unnamed_addr constant <{ [8 x i8] }> <{ [8 x i8] c"writable" }>, align 1
@alloc_8e52f04d982aeb3257f0196ab7de3e5e = private unnamed_addr constant <{ [5 x i8] }> <{ [5 x i8] c"extra" }>, align 1
@vtable.n = private constant <{ [24 x i8], ptr }> <{ [24 x i8] c"\00\00\00\00\00\00\00\00\08\00\00\00\00\00\00\00\08\00\00\00\00\00\00\00", ptr @"_ZN42_$LT$$RF$T$u20$as$u20$core..fmt..Debug$GT$3fmt17hee3073df58186855E" }>, align 8, !dbg !625
@_ZN7polling6Poller4wait10__CALLSITE17hfff4fb7d3cc58575E = internal global <{ ptr, [10 x i8], [6 x i8] }> <{ ptr @_ZN7polling6Poller4wait10__CALLSITE4META17h55cdb23235fb2250E, [10 x i8] c"\00\00\00\00\00\00\00\00\FF\00", [6 x i8] undef }>, align 8, !dbg !634
@alloc_11ac73ce06cc86f845d955fe2cf07905 = private unnamed_addr constant <{ [12 x i8] }> <{ [12 x i8] c"Poller::wait" }>, align 1
@alloc_7be1965edd534d0c56d3a19530f675b8 = private unnamed_addr constant <{ [7 x i8] }> <{ [7 x i8] c"polling" }>, align 1
@alloc_76073fb18b46a1970f44a5348cc841d1 = private unnamed_addr constant <{ ptr, [8 x i8] }> <{ ptr @alloc_6414126aefaf2932c45c6caed9a60b88, [8 x i8] c"\07\00\00\00\00\00\00\00" }>, align 8
@_ZN7polling6Poller4wait10__CALLSITE4META17h55cdb23235fb2250E = internal constant <{ [16 x i8], ptr, [8 x i8], ptr, [8 x i8], ptr, [8 x i8], ptr, ptr, ptr, [8 x i8], ptr, [9 x i8], [7 x i8] }> <{ [16 x i8] c"\00\00\00\00\00\00\00\00\01\00\00\00\8A\02\00\00", ptr @alloc_11ac73ce06cc86f845d955fe2cf07905, [8 x i8] c"\0C\00\00\00\00\00\00\00", ptr @alloc_7be1965edd534d0c56d3a19530f675b8, [8 x i8] c"\07\00\00\00\00\00\00\00", ptr @alloc_76073fb18b46a1970f44a5348cc841d1, [8 x i8] c"\01\00\00\00\00\00\00\00", ptr @_ZN7polling6Poller4wait10__CALLSITE17hfff4fb7d3cc58575E, ptr @0, ptr @alloc_7be1965edd534d0c56d3a19530f675b8, [8 x i8] c"\07\00\00\00\00\00\00\00", ptr @alloc_aa8b383dc202f4dbf1cf47ff5e9eaef5, [9 x i8] c"[\00\00\00\00\00\00\00\02", [7 x i8] undef }>, align 8, !dbg !638
@_ZN7polling6Poller4wait10__CALLSITE17h8b9b028e75e7462aE = internal global <{ ptr, [10 x i8], [6 x i8] }> <{ ptr @_ZN7polling6Poller4wait10__CALLSITE4META17h6bd8b1026a32c8bdE, [10 x i8] c"\00\00\00\00\00\00\00\00\FF\00", [6 x i8] undef }>, align 8, !dbg !641
@alloc_900ee1fae882a350b6b2c3b0185d268d = private unnamed_addr constant <{ [101 x i8] }> <{ [101 x i8] c"event /home/arsalan/.cargo/registry/src/index.crates.io-1949cf8c6b5b557f/polling-3.3.1/src/lib.rs:679" }>, align 1
@_ZN7polling6Poller4wait10__CALLSITE4META17h6bd8b1026a32c8bdE = internal constant <{ [16 x i8], ptr, [8 x i8], ptr, [8 x i8], ptr, [8 x i8], ptr, ptr, ptr, [8 x i8], ptr, [9 x i8], [7 x i8] }> <{ [16 x i8] c"\00\00\00\00\00\00\00\00\01\00\00\00\A7\02\00\00", ptr @alloc_900ee1fae882a350b6b2c3b0185d268d, [8 x i8] c"e\00\00\00\00\00\00\00", ptr @alloc_7be1965edd534d0c56d3a19530f675b8, [8 x i8] c"\07\00\00\00\00\00\00\00", ptr @alloc_6f945744a05743cf0c7513d605ac6eaa, [8 x i8] c"\01\00\00\00\00\00\00\00", ptr @_ZN7polling6Poller4wait10__CALLSITE17h8b9b028e75e7462aE, ptr @0, ptr @alloc_7be1965edd534d0c56d3a19530f675b8, [8 x i8] c"\07\00\00\00\00\00\00\00", ptr @alloc_aa8b383dc202f4dbf1cf47ff5e9eaef5, [9 x i8] c"[\00\00\00\00\00\00\00\01", [7 x i8] undef }>, align 8, !dbg !643
@_ZN7polling6Poller6notify10__CALLSITE17h20222309140bd817E = internal global <{ ptr, [10 x i8], [6 x i8] }> <{ ptr @_ZN7polling6Poller6notify10__CALLSITE4META17h9d41877697a67af8E, [10 x i8] c"\00\00\00\00\00\00\00\00\FF\00", [6 x i8] undef }>, align 8, !dbg !645
@alloc_056c04cf79726246ebd08b0965b52edb = private unnamed_addr constant <{ [14 x i8] }> <{ [14 x i8] c"Poller::notify" }>, align 1
@_ZN7polling6Poller6notify10__CALLSITE4META17h9d41877697a67af8E = internal constant <{ [16 x i8], ptr, [8 x i8], ptr, [8 x i8], ptr, [8 x i8], ptr, ptr, ptr, [8 x i8], ptr, [9 x i8], [7 x i8] }> <{ [16 x i8] c"\00\00\00\00\00\00\00\00\01\00\00\00\C3\02\00\00", ptr @alloc_056c04cf79726246ebd08b0965b52edb, [8 x i8] c"\0E\00\00\00\00\00\00\00", ptr @alloc_7be1965edd534d0c56d3a19530f675b8, [8 x i8] c"\07\00\00\00\00\00\00\00", ptr inttoptr (i64 8 to ptr), [8 x i8] zeroinitializer, ptr @_ZN7polling6Poller6notify10__CALLSITE17h20222309140bd817E, ptr @0, ptr @alloc_7be1965edd534d0c56d3a19530f675b8, [8 x i8] c"\07\00\00\00\00\00\00\00", ptr @alloc_aa8b383dc202f4dbf1cf47ff5e9eaef5, [9 x i8] c"[\00\00\00\00\00\00\00\02", [7 x i8] undef }>, align 8, !dbg !648
@switch.table._ZN7polling5epoll6Poller6modify17h75a70e398b8cee53E = private unnamed_addr constant [4 x i32] [i32 1073741824, i32 0, i32 -2147483648, i32 -1073741824], align 4

; tracing_core::callsite::Callsite::private_type_id
; Function Attrs: inlinehint mustprogress nofree norecurse nosync nounwind nonlazybind willreturn memory(none) uwtable
define internal { i64, i64 } @_ZN12tracing_core8callsite8Callsite15private_type_id17he95e1da1da6afd5bE(ptr nocapture nonnull readnone align 8 %self) unnamed_addr #0 !dbg !825 {
start:
  tail call void @llvm.dbg.value(metadata ptr poison, metadata !850, metadata !DIExpression()), !dbg !854
  call void @llvm.dbg.declare(metadata ptr undef, metadata !851, metadata !DIExpression()), !dbg !855
  ret { i64, i64 } { i64 -6046748299848140927, i64 -1328586242009975340 }, !dbg !856
}

; <bool as core::fmt::Debug>::fmt
; Function Attrs: inlinehint nonlazybind uwtable
define internal noundef zeroext i1 @"_ZN41_$LT$bool$u20$as$u20$core..fmt..Debug$GT$3fmt17h40eba7a03f944241E"(ptr noalias noundef readonly align 1 dereferenceable(1) %self, ptr noalias noundef align 8 dereferenceable(64) %f) unnamed_addr #1 !dbg !857 {
start:
  tail call void @llvm.dbg.value(metadata ptr %self, metadata !864, metadata !DIExpression()), !dbg !866
  tail call void @llvm.dbg.value(metadata ptr %f, metadata !865, metadata !DIExpression()), !dbg !866
; call <bool as core::fmt::Display>::fmt
  %_0 = tail call noundef zeroext i1 @"_ZN43_$LT$bool$u20$as$u20$core..fmt..Display$GT$3fmt17he691df9786a4e217E"(ptr noalias noundef nonnull readonly align 1 dereferenceable(1) %self, ptr noalias noundef nonnull align 8 dereferenceable(64) %f), !dbg !867
  ret i1 %_0, !dbg !868
}

; <&T as core::fmt::Debug>::fmt
; Function Attrs: nonlazybind uwtable
define internal noundef zeroext i1 @"_ZN42_$LT$$RF$T$u20$as$u20$core..fmt..Debug$GT$3fmt17h121b9f8992263bf2E"(ptr noalias nocapture noundef readonly align 8 dereferenceable(8) %self, ptr noalias noundef align 8 dereferenceable(64) %f) unnamed_addr #2 !dbg !869 {
start:
  tail call void @llvm.dbg.value(metadata ptr %self, metadata !875, metadata !DIExpression()), !dbg !879
  tail call void @llvm.dbg.value(metadata ptr %f, metadata !876, metadata !DIExpression()), !dbg !879
  %_3 = load ptr, ptr %self, align 8, !dbg !880, !nonnull !14, !align !881, !noundef !14
  call void @llvm.dbg.value(metadata ptr %_3, metadata !882, metadata !DIExpression()), !dbg !891
  call void @llvm.dbg.value(metadata ptr %f, metadata !890, metadata !DIExpression()), !dbg !891
  call void @llvm.dbg.value(metadata ptr %f, metadata !893, metadata !DIExpression()), !dbg !901
  call void @llvm.dbg.value(metadata ptr %f, metadata !903, metadata !DIExpression()), !dbg !908
  %0 = getelementptr inbounds i8, ptr %f, i64 52, !dbg !910
  %_4.i = load i32, ptr %0, align 4, !dbg !910, !alias.scope !911, !noalias !914, !noundef !14
  %_3.i = and i32 %_4.i, 16, !dbg !910
  %1 = icmp eq i32 %_3.i, 0, !dbg !916
  br i1 %1, label %bb2.i, label %bb1.i, !dbg !916

bb2.i:                                            ; preds = %start
  %_5.i = and i32 %_4.i, 32, !dbg !917
  %2 = icmp eq i32 %_5.i, 0, !dbg !918
  br i1 %2, label %bb4.i, label %bb3.i, !dbg !918

bb1.i:                                            ; preds = %start
; call core::fmt::num::<impl core::fmt::LowerHex for i32>::fmt
  %3 = tail call noundef zeroext i1 @"_ZN4core3fmt3num53_$LT$impl$u20$core..fmt..LowerHex$u20$for$u20$i32$GT$3fmt17hff1a7c21bf7fe7a8E"(ptr noalias noundef nonnull readonly align 4 dereferenceable(4) %_3, ptr noalias noundef nonnull align 8 dereferenceable(64) %f), !dbg !919
  br label %"_ZN4core3fmt3num50_$LT$impl$u20$core..fmt..Debug$u20$for$u20$i32$GT$3fmt17hc803126657500a98E.exit", !dbg !919

bb4.i:                                            ; preds = %bb2.i
; call core::fmt::num::imp::<impl core::fmt::Display for i32>::fmt
  %4 = tail call noundef zeroext i1 @"_ZN4core3fmt3num3imp52_$LT$impl$u20$core..fmt..Display$u20$for$u20$i32$GT$3fmt17h83d00f149ba150d3E"(ptr noalias noundef nonnull readonly align 4 dereferenceable(4) %_3, ptr noalias noundef nonnull align 8 dereferenceable(64) %f), !dbg !920
  br label %"_ZN4core3fmt3num50_$LT$impl$u20$core..fmt..Debug$u20$for$u20$i32$GT$3fmt17hc803126657500a98E.exit", !dbg !920

bb3.i:                                            ; preds = %bb2.i
; call core::fmt::num::<impl core::fmt::UpperHex for i32>::fmt
  %5 = tail call noundef zeroext i1 @"_ZN4core3fmt3num53_$LT$impl$u20$core..fmt..UpperHex$u20$for$u20$i32$GT$3fmt17h316af39cea97df5bE"(ptr noalias noundef nonnull readonly align 4 dereferenceable(4) %_3, ptr noalias noundef nonnull align 8 dereferenceable(64) %f), !dbg !921
  br label %"_ZN4core3fmt3num50_$LT$impl$u20$core..fmt..Debug$u20$for$u20$i32$GT$3fmt17hc803126657500a98E.exit", !dbg !921

"_ZN4core3fmt3num50_$LT$impl$u20$core..fmt..Debug$u20$for$u20$i32$GT$3fmt17hc803126657500a98E.exit": ; preds = %bb1.i, %bb4.i, %bb3.i
  %_0.sroa.0.0.in.i = phi i1 [ %4, %bb4.i ], [ %5, %bb3.i ], [ %3, %bb1.i ]
  ret i1 %_0.sroa.0.0.in.i, !dbg !922
}

; <&T as core::fmt::Debug>::fmt
; Function Attrs: nonlazybind uwtable
define internal noundef zeroext i1 @"_ZN42_$LT$$RF$T$u20$as$u20$core..fmt..Debug$GT$3fmt17h645f31b5cfd172b4E"(ptr noalias nocapture noundef readonly align 8 dereferenceable(8) %self, ptr noalias noundef align 8 dereferenceable(64) %f) unnamed_addr #2 !dbg !923 {
start:
  tail call void @llvm.dbg.value(metadata ptr %self, metadata !928, metadata !DIExpression()), !dbg !932
  tail call void @llvm.dbg.value(metadata ptr %f, metadata !929, metadata !DIExpression()), !dbg !932
  %_3 = load ptr, ptr %self, align 8, !dbg !933, !nonnull !14, !align !881, !noundef !14
; call <std::os::fd::owned::BorrowedFd as core::fmt::Debug>::fmt
  %_0 = tail call noundef zeroext i1 @"_ZN67_$LT$std..os..fd..owned..BorrowedFd$u20$as$u20$core..fmt..Debug$GT$3fmt17hc072d5c02ec37ca3E"(ptr noalias noundef nonnull readonly align 4 dereferenceable(4) %_3, ptr noalias noundef nonnull align 8 dereferenceable(64) %f), !dbg !934
  ret i1 %_0, !dbg !935
}

; <&T as core::fmt::Debug>::fmt
; Function Attrs: nonlazybind uwtable
define internal noundef zeroext i1 @"_ZN42_$LT$$RF$T$u20$as$u20$core..fmt..Debug$GT$3fmt17h64db2ae511f4d435E"(ptr noalias nocapture noundef readonly align 8 dereferenceable(8) %self, ptr noalias noundef align 8 dereferenceable(64) %f) unnamed_addr #2 !dbg !936 {
start:
  %__self_0.i = alloca [8 x i8], align 8
  tail call void @llvm.dbg.value(metadata ptr %self, metadata !941, metadata !DIExpression()), !dbg !945
  tail call void @llvm.dbg.value(metadata ptr %f, metadata !942, metadata !DIExpression()), !dbg !945
  %_3 = load ptr, ptr %self, align 8, !dbg !946, !nonnull !14, !align !881, !noundef !14
  tail call void @llvm.experimental.noalias.scope.decl(metadata !947), !dbg !950
  call void @llvm.dbg.value(metadata ptr %_3, metadata !951, metadata !DIExpression()), !dbg !961
  call void @llvm.dbg.value(metadata ptr %f, metadata !958, metadata !DIExpression()), !dbg !961
  call void @llvm.dbg.declare(metadata ptr %__self_0.i, metadata !959, metadata !DIExpression()), !dbg !963
  %0 = load i32, ptr %_3, align 4, !dbg !964, !alias.scope !947, !noalias !965, !noundef !14
  %1 = icmp eq i32 %0, -1, !dbg !964
  br i1 %1, label %bb3.i, label %bb2.i, !dbg !964

bb3.i:                                            ; preds = %start
; call core::fmt::Formatter::write_str
  %2 = tail call noundef zeroext i1 @_ZN4core3fmt9Formatter9write_str17h35be9e09c65db375E(ptr noalias noundef nonnull align 8 dereferenceable(64) %f, ptr noalias noundef nonnull readonly align 1 @alloc_37d2e53432a03a1f90b3e7253015eaf9, i64 noundef 4), !dbg !964, !noalias !947
  br label %"_ZN66_$LT$core..option..Option$LT$T$GT$$u20$as$u20$core..fmt..Debug$GT$3fmt17h9be01e0a8c097af6E.exit", !dbg !964

bb2.i:                                            ; preds = %start
  call void @llvm.lifetime.start.p0(i64 8, ptr nonnull %__self_0.i), !dbg !967, !noalias !968
  store ptr %_3, ptr %__self_0.i, align 8, !dbg !967, !noalias !968
; call core::fmt::Formatter::debug_tuple_field1_finish
  %3 = call noundef zeroext i1 @_ZN4core3fmt9Formatter25debug_tuple_field1_finish17hda02114f9a9fecb7E(ptr noalias noundef nonnull align 8 dereferenceable(64) %f, ptr noalias noundef nonnull readonly align 1 @alloc_9535bf4c204f3eb9b19ec2c83e446e52, i64 noundef 4, ptr noundef nonnull align 1 %__self_0.i, ptr noalias noundef nonnull readonly align 8 dereferenceable(32) @vtable.2), !dbg !969
  call void @llvm.lifetime.end.p0(i64 8, ptr nonnull %__self_0.i), !dbg !970, !noalias !968
  br label %"_ZN66_$LT$core..option..Option$LT$T$GT$$u20$as$u20$core..fmt..Debug$GT$3fmt17h9be01e0a8c097af6E.exit", !dbg !970

"_ZN66_$LT$core..option..Option$LT$T$GT$$u20$as$u20$core..fmt..Debug$GT$3fmt17h9be01e0a8c097af6E.exit": ; preds = %bb3.i, %bb2.i
  %_0.sroa.0.0.in.i = phi i1 [ %2, %bb3.i ], [ %3, %bb2.i ]
  ret i1 %_0.sroa.0.0.in.i, !dbg !971
}

; <&T as core::fmt::Debug>::fmt
; Function Attrs: nonlazybind uwtable
define internal noundef zeroext i1 @"_ZN42_$LT$$RF$T$u20$as$u20$core..fmt..Debug$GT$3fmt17h6c20c42e2e552489E"(ptr noalias nocapture noundef readonly align 8 dereferenceable(8) %self, ptr noalias noundef align 8 dereferenceable(64) %f) unnamed_addr #2 !dbg !972 {
start:
  tail call void @llvm.dbg.value(metadata ptr %self, metadata !977, metadata !DIExpression()), !dbg !981
  tail call void @llvm.dbg.value(metadata ptr %f, metadata !978, metadata !DIExpression()), !dbg !981
  %_3 = load ptr, ptr %self, align 8, !dbg !982, !nonnull !14, !align !881, !noundef !14
; call <rustix::backend::event::epoll::_::InternalBitFlags as core::fmt::Debug>::fmt
  %_0 = tail call noundef zeroext i1 @"_ZN87_$LT$rustix..backend..event..epoll.._..InternalBitFlags$u20$as$u20$core..fmt..Debug$GT$3fmt17he2d75468728a80d8E"(ptr noalias noundef nonnull readonly align 4 dereferenceable(4) %_3, ptr noalias noundef nonnull align 8 dereferenceable(64) %f), !dbg !983
  ret i1 %_0, !dbg !984
}

; <&T as core::fmt::Debug>::fmt
; Function Attrs: nonlazybind uwtable
define internal noundef zeroext i1 @"_ZN42_$LT$$RF$T$u20$as$u20$core..fmt..Debug$GT$3fmt17h6c4eff6fa81bb906E"(ptr noalias nocapture noundef readonly align 8 dereferenceable(8) %self, ptr noalias noundef align 8 dereferenceable(64) %f) unnamed_addr #2 !dbg !985 {
start:
  %__self_1.i = alloca [8 x i8], align 8
  %__self_0.i = alloca [8 x i8], align 8
  tail call void @llvm.dbg.value(metadata ptr %self, metadata !990, metadata !DIExpression()), !dbg !994
  tail call void @llvm.dbg.value(metadata ptr %f, metadata !991, metadata !DIExpression()), !dbg !994
  %_3 = load ptr, ptr %self, align 8, !dbg !995, !nonnull !14, !align !881, !noundef !14
  tail call void @llvm.experimental.noalias.scope.decl(metadata !996), !dbg !999
  call void @llvm.dbg.value(metadata ptr %_3, metadata !1000, metadata !DIExpression()), !dbg !1013
  call void @llvm.dbg.value(metadata ptr %f, metadata !1007, metadata !DIExpression()), !dbg !1013
  call void @llvm.dbg.declare(metadata ptr %__self_0.i, metadata !1008, metadata !DIExpression()), !dbg !1015
  call void @llvm.dbg.declare(metadata ptr %__self_1.i, metadata !1012, metadata !DIExpression()), !dbg !1016
  %0 = getelementptr inbounds i8, ptr %_3, i64 4, !dbg !1017
  %1 = load i32, ptr %0, align 4, !dbg !1017, !alias.scope !996, !noalias !1018, !noundef !14
  %2 = icmp eq i32 %1, -1, !dbg !1017
  br i1 %2, label %bb3.i, label %bb2.i, !dbg !1017

bb3.i:                                            ; preds = %start
  call void @llvm.lifetime.start.p0(i64 8, ptr nonnull %__self_0.i), !dbg !1020, !noalias !1021
  store ptr %_3, ptr %__self_0.i, align 8, !dbg !1020, !noalias !1021
; call core::fmt::Formatter::debug_tuple_field1_finish
  %3 = call noundef zeroext i1 @_ZN4core3fmt9Formatter25debug_tuple_field1_finish17hda02114f9a9fecb7E(ptr noalias noundef nonnull align 8 dereferenceable(64) %f, ptr noalias noundef nonnull readonly align 1 @alloc_a41d0b4b3d8d794ca84950c963d149a7, i64 noundef 7, ptr noundef nonnull align 1 %__self_0.i, ptr noalias noundef nonnull readonly align 8 dereferenceable(32) @vtable.2), !dbg !1022
  call void @llvm.lifetime.end.p0(i64 8, ptr nonnull %__self_0.i), !dbg !1023, !noalias !1021
  br label %"_ZN61_$LT$polling..epoll..Notifier$u20$as$u20$core..fmt..Debug$GT$3fmt17h6c07331f039a4299E.exit", !dbg !1023

bb2.i:                                            ; preds = %start
  call void @llvm.dbg.value(metadata ptr %_3, metadata !1010, metadata !DIExpression()), !dbg !1024
  call void @llvm.lifetime.start.p0(i64 8, ptr nonnull %__self_1.i), !dbg !1025, !noalias !1021
  store ptr %0, ptr %__self_1.i, align 8, !dbg !1025, !noalias !1021
; call core::fmt::Formatter::debug_struct_field2_finish
  %4 = call noundef zeroext i1 @_ZN4core3fmt9Formatter26debug_struct_field2_finish17hf213de27bcce7889E(ptr noalias noundef nonnull align 8 dereferenceable(64) %f, ptr noalias noundef nonnull readonly align 1 @alloc_9ea687ed38ed2de89e671cda62d01258, i64 noundef 4, ptr noalias noundef nonnull readonly align 1 @alloc_616d65357465a138b4d75167e7b31d8a, i64 noundef 9, ptr noundef nonnull align 1 %_3, ptr noalias noundef nonnull readonly align 8 dereferenceable(32) @vtable.c, ptr noalias noundef nonnull readonly align 1 @alloc_275986536d8cf218581cbea6323418cb, i64 noundef 10, ptr noundef nonnull align 1 %__self_1.i, ptr noalias noundef nonnull readonly align 8 dereferenceable(32) @vtable.2), !dbg !1026
  call void @llvm.lifetime.end.p0(i64 8, ptr nonnull %__self_1.i), !dbg !1023, !noalias !1021
  br label %"_ZN61_$LT$polling..epoll..Notifier$u20$as$u20$core..fmt..Debug$GT$3fmt17h6c07331f039a4299E.exit", !dbg !1023

"_ZN61_$LT$polling..epoll..Notifier$u20$as$u20$core..fmt..Debug$GT$3fmt17h6c07331f039a4299E.exit": ; preds = %bb3.i, %bb2.i
  %_0.sroa.0.0.in.i = phi i1 [ %3, %bb3.i ], [ %4, %bb2.i ]
  ret i1 %_0.sroa.0.0.in.i, !dbg !1027
}

; <&T as core::fmt::Debug>::fmt
; Function Attrs: nonlazybind uwtable
define internal noundef zeroext i1 @"_ZN42_$LT$$RF$T$u20$as$u20$core..fmt..Debug$GT$3fmt17h783194bd0d6151b4E"(ptr noalias nocapture noundef readonly align 8 dereferenceable(8) %self, ptr noalias noundef align 8 dereferenceable(64) %f) unnamed_addr #2 !dbg !1028 {
start:
  %_6.i = alloca [8 x i8], align 8
  tail call void @llvm.dbg.value(metadata ptr %self, metadata !1033, metadata !DIExpression()), !dbg !1037
  tail call void @llvm.dbg.value(metadata ptr %f, metadata !1034, metadata !DIExpression()), !dbg !1037
  %_3 = load ptr, ptr %self, align 8, !dbg !1038, !nonnull !14, !align !881, !noundef !14
  call void @llvm.dbg.value(metadata ptr %_3, metadata !1039, metadata !DIExpression()), !dbg !1047
  call void @llvm.dbg.value(metadata ptr %f, metadata !1046, metadata !DIExpression()), !dbg !1047
  call void @llvm.lifetime.start.p0(i64 8, ptr nonnull %_6.i), !dbg !1049, !noalias !1052
  store ptr %_3, ptr %_6.i, align 8, !dbg !1049, !noalias !1052
; call core::fmt::Formatter::debug_tuple_field1_finish
  %_0.i = call noundef zeroext i1 @_ZN4core3fmt9Formatter25debug_tuple_field1_finish17hda02114f9a9fecb7E(ptr noalias noundef nonnull align 8 dereferenceable(64) %f, ptr noalias noundef nonnull readonly align 1 @alloc_b04903d7cd9e2dff9a9288f598922742, i64 noundef 10, ptr noundef nonnull align 1 %_6.i, ptr noalias noundef nonnull readonly align 8 dereferenceable(32) @vtable.3), !dbg !1056
  call void @llvm.lifetime.end.p0(i64 8, ptr nonnull %_6.i), !dbg !1057, !noalias !1052
  ret i1 %_0.i, !dbg !1058
}

; <&T as core::fmt::Debug>::fmt
; Function Attrs: nonlazybind uwtable
define internal noundef zeroext i1 @"_ZN42_$LT$$RF$T$u20$as$u20$core..fmt..Debug$GT$3fmt17h8d12b2b8255beb02E"(ptr noalias nocapture noundef readonly align 8 dereferenceable(8) %self, ptr noalias noundef align 8 dereferenceable(64) %f) unnamed_addr #2 !dbg !1059 {
start:
  tail call void @llvm.dbg.value(metadata ptr %self, metadata !1064, metadata !DIExpression()), !dbg !1066
  tail call void @llvm.dbg.value(metadata ptr %f, metadata !1065, metadata !DIExpression()), !dbg !1066
  %_3 = load ptr, ptr %self, align 8, !dbg !1067, !nonnull !14, !align !1068, !noundef !14
  call void @llvm.dbg.value(metadata ptr %_3, metadata !1069, metadata !DIExpression()), !dbg !1076
  call void @llvm.dbg.value(metadata ptr %f, metadata !1075, metadata !DIExpression()), !dbg !1076
  call void @llvm.dbg.value(metadata ptr %f, metadata !1078, metadata !DIExpression()), !dbg !1082
  call void @llvm.dbg.value(metadata ptr %f, metadata !1084, metadata !DIExpression()), !dbg !1088
  %0 = getelementptr inbounds i8, ptr %f, i64 52, !dbg !1090
  %_4.i = load i32, ptr %0, align 4, !dbg !1090, !alias.scope !1091, !noalias !1094, !noundef !14
  %_3.i = and i32 %_4.i, 16, !dbg !1090
  %1 = icmp eq i32 %_3.i, 0, !dbg !1096
  br i1 %1, label %bb2.i, label %bb1.i, !dbg !1096

bb2.i:                                            ; preds = %start
  %_5.i = and i32 %_4.i, 32, !dbg !1097
  %2 = icmp eq i32 %_5.i, 0, !dbg !1098
  br i1 %2, label %bb4.i, label %bb3.i, !dbg !1098

bb1.i:                                            ; preds = %start
; call core::fmt::num::<impl core::fmt::LowerHex for usize>::fmt
  %3 = tail call noundef zeroext i1 @"_ZN4core3fmt3num55_$LT$impl$u20$core..fmt..LowerHex$u20$for$u20$usize$GT$3fmt17hb89b543945fdac37E"(ptr noalias noundef nonnull readonly align 8 dereferenceable(8) %_3, ptr noalias noundef nonnull align 8 dereferenceable(64) %f), !dbg !1099
  br label %"_ZN4core3fmt3num52_$LT$impl$u20$core..fmt..Debug$u20$for$u20$usize$GT$3fmt17ha3731fb0f809905cE.exit", !dbg !1099

bb4.i:                                            ; preds = %bb2.i
; call core::fmt::num::imp::<impl core::fmt::Display for usize>::fmt
  %4 = tail call noundef zeroext i1 @"_ZN4core3fmt3num3imp54_$LT$impl$u20$core..fmt..Display$u20$for$u20$usize$GT$3fmt17hdabfc7932e5a3df0E"(ptr noalias noundef nonnull readonly align 8 dereferenceable(8) %_3, ptr noalias noundef nonnull align 8 dereferenceable(64) %f), !dbg !1100
  br label %"_ZN4core3fmt3num52_$LT$impl$u20$core..fmt..Debug$u20$for$u20$usize$GT$3fmt17ha3731fb0f809905cE.exit", !dbg !1100

bb3.i:                                            ; preds = %bb2.i
; call core::fmt::num::<impl core::fmt::UpperHex for usize>::fmt
  %5 = tail call noundef zeroext i1 @"_ZN4core3fmt3num55_$LT$impl$u20$core..fmt..UpperHex$u20$for$u20$usize$GT$3fmt17hb258a21f77c3d954E"(ptr noalias noundef nonnull readonly align 8 dereferenceable(8) %_3, ptr noalias noundef nonnull align 8 dereferenceable(64) %f), !dbg !1101
  br label %"_ZN4core3fmt3num52_$LT$impl$u20$core..fmt..Debug$u20$for$u20$usize$GT$3fmt17ha3731fb0f809905cE.exit", !dbg !1101

"_ZN4core3fmt3num52_$LT$impl$u20$core..fmt..Debug$u20$for$u20$usize$GT$3fmt17ha3731fb0f809905cE.exit": ; preds = %bb1.i, %bb4.i, %bb3.i
  %_0.sroa.0.0.in.i = phi i1 [ %4, %bb4.i ], [ %5, %bb3.i ], [ %3, %bb1.i ]
  ret i1 %_0.sroa.0.0.in.i, !dbg !1102
}

; <&T as core::fmt::Debug>::fmt
; Function Attrs: nonlazybind uwtable
define internal noundef zeroext i1 @"_ZN42_$LT$$RF$T$u20$as$u20$core..fmt..Debug$GT$3fmt17ha9d82afe4ccd85a2E"(ptr noalias nocapture noundef readonly align 8 dereferenceable(8) %self, ptr noalias noundef align 8 dereferenceable(64) %f) unnamed_addr #2 !dbg !1103 {
start:
  tail call void @llvm.dbg.value(metadata ptr %self, metadata !1108, metadata !DIExpression()), !dbg !1110
  tail call void @llvm.dbg.value(metadata ptr %f, metadata !1109, metadata !DIExpression()), !dbg !1110
  %_3 = load ptr, ptr %self, align 8, !dbg !1111, !nonnull !14, !align !881, !noundef !14
; call <std::os::fd::owned::OwnedFd as core::fmt::Debug>::fmt
  %_0 = tail call noundef zeroext i1 @"_ZN64_$LT$std..os..fd..owned..OwnedFd$u20$as$u20$core..fmt..Debug$GT$3fmt17hfc3f065e593247d1E"(ptr noalias noundef nonnull readonly align 4 dereferenceable(4) %_3, ptr noalias noundef nonnull align 8 dereferenceable(64) %f), !dbg !1112
  ret i1 %_0, !dbg !1113
}

; <&T as core::fmt::Debug>::fmt
; Function Attrs: nonlazybind uwtable
define internal noundef zeroext i1 @"_ZN42_$LT$$RF$T$u20$as$u20$core..fmt..Debug$GT$3fmt17hc5ce8799807e53fbE"(ptr noalias nocapture noundef readonly align 8 dereferenceable(8) %self, ptr noalias noundef align 8 dereferenceable(64) %f) unnamed_addr #2 !dbg !1114 {
start:
  %__self_0.i = alloca [8 x i8], align 8
  tail call void @llvm.dbg.value(metadata ptr %self, metadata !1119, metadata !DIExpression()), !dbg !1123
  tail call void @llvm.dbg.value(metadata ptr %f, metadata !1120, metadata !DIExpression()), !dbg !1123
  %_3 = load ptr, ptr %self, align 8, !dbg !1124, !nonnull !14, !align !1068, !noundef !14
  tail call void @llvm.experimental.noalias.scope.decl(metadata !1125), !dbg !1128
  call void @llvm.dbg.value(metadata ptr %_3, metadata !1129, metadata !DIExpression()), !dbg !1137
  call void @llvm.dbg.value(metadata ptr %f, metadata !1134, metadata !DIExpression()), !dbg !1137
  call void @llvm.dbg.declare(metadata ptr %__self_0.i, metadata !1135, metadata !DIExpression()), !dbg !1139
  %0 = getelementptr inbounds i8, ptr %_3, i64 8, !dbg !1140
  %1 = load i32, ptr %0, align 8, !dbg !1140, !range !1141, !alias.scope !1125, !noalias !1142, !noundef !14
  %2 = icmp eq i32 %1, 1000000000, !dbg !1140
  br i1 %2, label %bb3.i, label %bb2.i, !dbg !1140

bb3.i:                                            ; preds = %start
; call core::fmt::Formatter::write_str
  %3 = tail call noundef zeroext i1 @_ZN4core3fmt9Formatter9write_str17h35be9e09c65db375E(ptr noalias noundef nonnull align 8 dereferenceable(64) %f, ptr noalias noundef nonnull readonly align 1 @alloc_37d2e53432a03a1f90b3e7253015eaf9, i64 noundef 4), !dbg !1140, !noalias !1125
  br label %"_ZN66_$LT$core..option..Option$LT$T$GT$$u20$as$u20$core..fmt..Debug$GT$3fmt17h8a570096ee61bbfdE.exit", !dbg !1140

bb2.i:                                            ; preds = %start
  call void @llvm.lifetime.start.p0(i64 8, ptr nonnull %__self_0.i), !dbg !1144, !noalias !1145
  store ptr %_3, ptr %__self_0.i, align 8, !dbg !1144, !noalias !1145
; call core::fmt::Formatter::debug_tuple_field1_finish
  %4 = call noundef zeroext i1 @_ZN4core3fmt9Formatter25debug_tuple_field1_finish17hda02114f9a9fecb7E(ptr noalias noundef nonnull align 8 dereferenceable(64) %f, ptr noalias noundef nonnull readonly align 1 @alloc_9535bf4c204f3eb9b19ec2c83e446e52, i64 noundef 4, ptr noundef nonnull align 1 %__self_0.i, ptr noalias noundef nonnull readonly align 8 dereferenceable(32) @vtable.1), !dbg !1146
  call void @llvm.lifetime.end.p0(i64 8, ptr nonnull %__self_0.i), !dbg !1147, !noalias !1145
  br label %"_ZN66_$LT$core..option..Option$LT$T$GT$$u20$as$u20$core..fmt..Debug$GT$3fmt17h8a570096ee61bbfdE.exit", !dbg !1147

"_ZN66_$LT$core..option..Option$LT$T$GT$$u20$as$u20$core..fmt..Debug$GT$3fmt17h8a570096ee61bbfdE.exit": ; preds = %bb3.i, %bb2.i
  %_0.sroa.0.0.in.i = phi i1 [ %3, %bb3.i ], [ %4, %bb2.i ]
  ret i1 %_0.sroa.0.0.in.i, !dbg !1148
}

; <&T as core::fmt::Debug>::fmt
; Function Attrs: nonlazybind uwtable
define internal noundef zeroext i1 @"_ZN42_$LT$$RF$T$u20$as$u20$core..fmt..Debug$GT$3fmt17hca3f899ab101c7aaE"(ptr noalias nocapture noundef readonly align 8 dereferenceable(8) %self, ptr noalias noundef align 8 dereferenceable(64) %f) unnamed_addr #2 !dbg !1149 {
start:
  %_16.i = alloca [8 x i8], align 8
  tail call void @llvm.dbg.value(metadata ptr %self, metadata !1154, metadata !DIExpression()), !dbg !1158
  tail call void @llvm.dbg.value(metadata ptr %f, metadata !1155, metadata !DIExpression()), !dbg !1158
  %_3 = load ptr, ptr %self, align 8, !dbg !1159, !nonnull !14, !align !1068, !noundef !14
  call void @llvm.dbg.value(metadata ptr %_3, metadata !1160, metadata !DIExpression()), !dbg !1168
  call void @llvm.dbg.value(metadata ptr %f, metadata !1167, metadata !DIExpression()), !dbg !1168
  %_9.i = getelementptr inbounds i8, ptr %_3, i64 12, !dbg !1170
  %_12.i = getelementptr inbounds i8, ptr %_3, i64 13, !dbg !1171
  call void @llvm.lifetime.start.p0(i64 8, ptr nonnull %_16.i), !dbg !1172, !noalias !1173
  %0 = getelementptr inbounds i8, ptr %_3, i64 8, !dbg !1172
  store ptr %0, ptr %_16.i, align 8, !dbg !1172, !noalias !1173
; call core::fmt::Formatter::debug_struct_field4_finish
  %_0.i = call noundef zeroext i1 @_ZN4core3fmt9Formatter26debug_struct_field4_finish17h7a3782a83f1f9ce9E(ptr noalias noundef nonnull align 8 dereferenceable(64) %f, ptr noalias noundef nonnull readonly align 1 @alloc_965588a8515eecb105f80d4ec5fbda68, i64 noundef 5, ptr noalias noundef nonnull readonly align 1 @alloc_25e0d7e970dcb58d756f6f40f94c4cb8, i64 noundef 3, ptr noundef nonnull align 1 %_3, ptr noalias noundef nonnull readonly align 8 dereferenceable(32) @vtable.l, ptr noalias noundef nonnull readonly align 1 @alloc_c0d7ef12a63b0670e34406e6bd0d324b, i64 noundef 8, ptr noundef nonnull align 1 %_9.i, ptr noalias noundef nonnull readonly align 8 dereferenceable(32) @vtable.m, ptr noalias noundef nonnull readonly align 1 @alloc_2c21ed98b6c8e32799e39878c35ad137, i64 noundef 8, ptr noundef nonnull align 1 %_12.i, ptr noalias noundef nonnull readonly align 8 dereferenceable(32) @vtable.m, ptr noalias noundef nonnull readonly align 1 @alloc_8e52f04d982aeb3257f0196ab7de3e5e, i64 noundef 5, ptr noundef nonnull align 1 %_16.i, ptr noalias noundef nonnull readonly align 8 dereferenceable(32) @vtable.n), !dbg !1177
  call void @llvm.lifetime.end.p0(i64 8, ptr nonnull %_16.i), !dbg !1178, !noalias !1173
  ret i1 %_0.i, !dbg !1179
}

; <&T as core::fmt::Debug>::fmt
; Function Attrs: nonlazybind uwtable
define internal noundef zeroext i1 @"_ZN42_$LT$$RF$T$u20$as$u20$core..fmt..Debug$GT$3fmt17hcd4179cd8323050bE"(ptr noalias nocapture noundef readonly align 8 dereferenceable(8) %self, ptr noalias noundef align 8 dereferenceable(64) %f) unnamed_addr #2 !dbg !1180 {
start:
  tail call void @llvm.dbg.value(metadata ptr %self, metadata !1185, metadata !DIExpression()), !dbg !1187
  tail call void @llvm.dbg.value(metadata ptr %f, metadata !1186, metadata !DIExpression()), !dbg !1187
  %_3 = load ptr, ptr %self, align 8, !dbg !1188, !nonnull !14, !align !1068, !noundef !14
; call <core::time::Duration as core::fmt::Debug>::fmt
  %_0 = tail call noundef zeroext i1 @"_ZN57_$LT$core..time..Duration$u20$as$u20$core..fmt..Debug$GT$3fmt17h26b0ad6d52fd911aE"(ptr noalias noundef nonnull readonly align 8 dereferenceable(16) %_3, ptr noalias noundef nonnull align 8 dereferenceable(64) %f), !dbg !1189
  ret i1 %_0, !dbg !1190
}

; <&T as core::fmt::Debug>::fmt
; Function Attrs: nonlazybind uwtable
define internal noundef zeroext i1 @"_ZN42_$LT$$RF$T$u20$as$u20$core..fmt..Debug$GT$3fmt17hee3073df58186855E"(ptr noalias nocapture noundef readonly align 8 dereferenceable(8) %self, ptr noalias noundef align 8 dereferenceable(64) %f) unnamed_addr #2 !dbg !1191 {
start:
  %_7.i = alloca [8 x i8], align 8
  tail call void @llvm.dbg.value(metadata ptr %self, metadata !1196, metadata !DIExpression()), !dbg !1200
  tail call void @llvm.dbg.value(metadata ptr %f, metadata !1197, metadata !DIExpression()), !dbg !1200
  %_3 = load ptr, ptr %self, align 8, !dbg !1201, !nonnull !14, !align !881, !noundef !14
  call void @llvm.dbg.value(metadata ptr %_3, metadata !1202, metadata !DIExpression()), !dbg !1209
  call void @llvm.dbg.value(metadata ptr %f, metadata !1208, metadata !DIExpression()), !dbg !1209
  call void @llvm.lifetime.start.p0(i64 8, ptr nonnull %_7.i), !dbg !1211, !noalias !1212
  store ptr %_3, ptr %_7.i, align 8, !dbg !1211, !noalias !1212
; call core::fmt::Formatter::debug_struct_field1_finish
  %_0.i = call noundef zeroext i1 @_ZN4core3fmt9Formatter26debug_struct_field1_finish17hded23900b22a6615E(ptr noalias noundef nonnull align 8 dereferenceable(64) %f, ptr noalias noundef nonnull readonly align 1 @alloc_f612403e0056a522ece63314df8bb7d1, i64 noundef 10, ptr noalias noundef nonnull readonly align 1 @alloc_33b38ed17f811d2d9c0ae72269382e55, i64 noundef 5, ptr noundef nonnull align 1 %_7.i, ptr noalias noundef nonnull readonly align 8 dereferenceable(32) @vtable.k), !dbg !1216
  call void @llvm.lifetime.end.p0(i64 8, ptr nonnull %_7.i), !dbg !1217, !noalias !1212
  ret i1 %_0.i, !dbg !1218
}

; core::fmt::num::<impl core::fmt::Debug for usize>::fmt
; Function Attrs: inlinehint nonlazybind uwtable
define internal noundef zeroext i1 @"_ZN4core3fmt3num52_$LT$impl$u20$core..fmt..Debug$u20$for$u20$usize$GT$3fmt17ha3731fb0f809905cE"(ptr noalias noundef readonly align 8 dereferenceable(8) %self, ptr noalias noundef align 8 dereferenceable(64) %f) unnamed_addr #1 !dbg !1070 {
start:
  tail call void @llvm.dbg.value(metadata ptr %self, metadata !1069, metadata !DIExpression()), !dbg !1219
  tail call void @llvm.dbg.value(metadata ptr %f, metadata !1075, metadata !DIExpression()), !dbg !1219
  tail call void @llvm.dbg.value(metadata ptr %f, metadata !1078, metadata !DIExpression()), !dbg !1220
  tail call void @llvm.dbg.value(metadata ptr %f, metadata !1084, metadata !DIExpression()), !dbg !1222
  %0 = getelementptr inbounds i8, ptr %f, i64 52, !dbg !1224
  %_4 = load i32, ptr %0, align 4, !dbg !1224, !noundef !14
  %_3 = and i32 %_4, 16, !dbg !1224
  %1 = icmp eq i32 %_3, 0, !dbg !1225
  br i1 %1, label %bb2, label %bb1, !dbg !1225

bb2:                                              ; preds = %start
  %_5 = and i32 %_4, 32, !dbg !1226
  %2 = icmp eq i32 %_5, 0, !dbg !1227
  br i1 %2, label %bb4, label %bb3, !dbg !1227

bb1:                                              ; preds = %start
; call core::fmt::num::<impl core::fmt::LowerHex for usize>::fmt
  %3 = tail call noundef zeroext i1 @"_ZN4core3fmt3num55_$LT$impl$u20$core..fmt..LowerHex$u20$for$u20$usize$GT$3fmt17hb89b543945fdac37E"(ptr noalias noundef nonnull readonly align 8 dereferenceable(8) %self, ptr noalias noundef nonnull align 8 dereferenceable(64) %f), !dbg !1228
  br label %bb6, !dbg !1228

bb4:                                              ; preds = %bb2
; call core::fmt::num::imp::<impl core::fmt::Display for usize>::fmt
  %4 = tail call noundef zeroext i1 @"_ZN4core3fmt3num3imp54_$LT$impl$u20$core..fmt..Display$u20$for$u20$usize$GT$3fmt17hdabfc7932e5a3df0E"(ptr noalias noundef nonnull readonly align 8 dereferenceable(8) %self, ptr noalias noundef nonnull align 8 dereferenceable(64) %f), !dbg !1229
  br label %bb6, !dbg !1229

bb3:                                              ; preds = %bb2
; call core::fmt::num::<impl core::fmt::UpperHex for usize>::fmt
  %5 = tail call noundef zeroext i1 @"_ZN4core3fmt3num55_$LT$impl$u20$core..fmt..UpperHex$u20$for$u20$usize$GT$3fmt17hb258a21f77c3d954E"(ptr noalias noundef nonnull readonly align 8 dereferenceable(8) %self, ptr noalias noundef nonnull align 8 dereferenceable(64) %f), !dbg !1230
  br label %bb6, !dbg !1230

bb6:                                              ; preds = %bb4, %bb3, %bb1
  %_0.sroa.0.0.in = phi i1 [ %4, %bb4 ], [ %5, %bb3 ], [ %3, %bb1 ]
  ret i1 %_0.sroa.0.0.in, !dbg !1231
}

; core::ptr::drop_in_place<core::result::Result<std::sync::mutex::MutexGuard<()>,std::sync::poison::TryLockError<std::sync::mutex::MutexGuard<()>>>>
; Function Attrs: nonlazybind uwtable
define internal fastcc void @"_ZN4core3ptr179drop_in_place$LT$core..result..Result$LT$std..sync..mutex..MutexGuard$LT$$LP$$RP$$GT$$C$std..sync..poison..TryLockError$LT$std..sync..mutex..MutexGuard$LT$$LP$$RP$$GT$$GT$$GT$$GT$17h113e14ffb3a8c612E"(ptr noalias nocapture noundef readonly align 8 dereferenceable(24) %_1) unnamed_addr #2 !dbg !1232 {
start:
  tail call void @llvm.dbg.value(metadata ptr %_1, metadata !1307, metadata !DIExpression()), !dbg !1310
  %_2 = load i64, ptr %_1, align 8, !dbg !1311, !range !1312, !noundef !14
  %0 = icmp eq i64 %_2, 0, !dbg !1311
  %1 = getelementptr inbounds i8, ptr %_1, i64 8, !dbg !1311
  %.val = load ptr, ptr %1, align 8, !dbg !1311
  %2 = getelementptr inbounds i8, ptr %_1, i64 16, !dbg !1311
  %.val1 = load i8, ptr %2, align 8, !dbg !1311, !range !1313, !noundef !14
  br i1 %0, label %bb2, label %bb3, !dbg !1311

bb2:                                              ; preds = %start
  call void @llvm.dbg.value(metadata ptr undef, metadata !1314, metadata !DIExpression()), !dbg !1320
  call void @llvm.dbg.value(metadata i32 0, metadata !1322, metadata !DIExpression()), !dbg !1333
  call void @llvm.dbg.value(metadata i8 1, metadata !1332, metadata !DIExpression()), !dbg !1333
  call void @llvm.dbg.value(metadata i32 0, metadata !1354, metadata !DIExpression()), !dbg !1363
  call void @llvm.dbg.value(metadata i8 1, metadata !1362, metadata !DIExpression()), !dbg !1363
  call void @llvm.dbg.value(metadata ptr undef, metadata !1352, metadata !DIExpression()), !dbg !1365
  %_3.i.i = getelementptr inbounds i8, ptr %.val, i64 4, !dbg !1366
  call void @llvm.dbg.value(metadata ptr @_ZN3std9panicking11panic_count18GLOBAL_PANIC_COUNT17h00e7dcd913cdfbe0E, metadata !1367, metadata !DIExpression()), !dbg !1382
  call void @llvm.dbg.value(metadata i8 0, metadata !1381, metadata !DIExpression()), !dbg !1382
  call void @llvm.dbg.value(metadata i8 1, metadata !1411, metadata !DIExpression()), !dbg !1421
  call void @llvm.dbg.value(metadata i8 0, metadata !1420, metadata !DIExpression()), !dbg !1421
  call void @llvm.dbg.value(metadata ptr %_3.i.i, metadata !1408, metadata !DIExpression()), !dbg !1423
  call void @llvm.dbg.value(metadata ptr undef, metadata !1409, metadata !DIExpression()), !dbg !1423
  %_3.not.i.i.i = icmp eq i8 %.val1, 0, !dbg !1424
  br i1 %_3.not.i.i.i, label %bb1.i.i.i, label %_ZN3std4sync6poison4Flag4done17h6b62417d8d60c5ceE.exit.i.i, !dbg !1424

bb1.i.i.i:                                        ; preds = %bb2
  call void @llvm.dbg.value(metadata i8 0, metadata !1425, metadata !DIExpression()), !dbg !1432
  call void @llvm.dbg.value(metadata ptr @_ZN3std9panicking11panic_count18GLOBAL_PANIC_COUNT17h00e7dcd913cdfbe0E, metadata !1431, metadata !DIExpression()), !dbg !1432
  %3 = load atomic i64, ptr @_ZN3std9panicking11panic_count18GLOBAL_PANIC_COUNT17h00e7dcd913cdfbe0E monotonic, align 8, !dbg !1434, !noalias !1435
  %_7.i.i.i = and i64 %3, 9223372036854775807, !dbg !1438
  %4 = icmp eq i64 %_7.i.i.i, 0, !dbg !1438
  br i1 %4, label %_ZN3std4sync6poison4Flag4done17h6b62417d8d60c5ceE.exit.i.i, label %bb6.i.i.i, !dbg !1438

bb6.i.i.i:                                        ; preds = %bb1.i.i.i
; call std::panicking::panic_count::is_zero_slow_path
  %_6.i.i.i = tail call noundef zeroext i1 @_ZN3std9panicking11panic_count17is_zero_slow_path17h24de30857bbd803cE(), !dbg !1439, !noalias !1435
  br i1 %_6.i.i.i, label %_ZN3std4sync6poison4Flag4done17h6b62417d8d60c5ceE.exit.i.i, label %bb2.i.i.i, !dbg !1440

bb2.i.i.i:                                        ; preds = %bb6.i.i.i
  call void @llvm.dbg.value(metadata ptr %_3.i.i, metadata !1419, metadata !DIExpression()), !dbg !1421
  call void @llvm.dbg.value(metadata i8 0, metadata !1441, metadata !DIExpression()), !dbg !1449
  call void @llvm.dbg.value(metadata ptr %_3.i.i, metadata !1447, metadata !DIExpression()), !dbg !1449
  call void @llvm.dbg.value(metadata i8 1, metadata !1448, metadata !DIExpression()), !dbg !1449
  store atomic i8 1, ptr %_3.i.i monotonic, align 1, !dbg !1451, !noalias !1435
  br label %_ZN3std4sync6poison4Flag4done17h6b62417d8d60c5ceE.exit.i.i, !dbg !1452

_ZN3std4sync6poison4Flag4done17h6b62417d8d60c5ceE.exit.i.i: ; preds = %bb2.i.i.i, %bb6.i.i.i, %bb1.i.i.i, %bb2
  call void @llvm.dbg.value(metadata ptr %.val, metadata !1343, metadata !DIExpression()), !dbg !1453
  call void @llvm.dbg.value(metadata ptr %.val, metadata !1331, metadata !DIExpression()), !dbg !1333
  call void @llvm.dbg.value(metadata ptr %.val, metadata !1361, metadata !DIExpression()), !dbg !1363
  %5 = atomicrmw xchg ptr %.val, i32 0 release, align 4, !dbg !1454, !noalias !1435
  %_8.i.i = icmp eq i32 %5, 2, !dbg !1455
  br i1 %_8.i.i, label %bb1.sink.split, label %bb1, !dbg !1455

bb3:                                              ; preds = %start
  call void @llvm.dbg.value(metadata ptr undef, metadata !1456, metadata !DIExpression()), !dbg !1464
  %.not.i = icmp eq i8 %.val1, 2, !dbg !1466
  br i1 %.not.i, label %bb1, label %bb2.i, !dbg !1466

bb2.i:                                            ; preds = %bb3
  %6 = icmp ne ptr %.val, null
  tail call void @llvm.assume(i1 %6)
  call void @llvm.dbg.value(metadata ptr undef, metadata !1467, metadata !DIExpression()), !dbg !1475
  call void @llvm.dbg.value(metadata ptr undef, metadata !1314, metadata !DIExpression()), !dbg !1477
  call void @llvm.dbg.value(metadata i32 0, metadata !1322, metadata !DIExpression()), !dbg !1479
  call void @llvm.dbg.value(metadata i8 1, metadata !1332, metadata !DIExpression()), !dbg !1479
  call void @llvm.dbg.value(metadata i32 0, metadata !1354, metadata !DIExpression()), !dbg !1483
  call void @llvm.dbg.value(metadata i8 1, metadata !1362, metadata !DIExpression()), !dbg !1483
  call void @llvm.dbg.value(metadata ptr undef, metadata !1352, metadata !DIExpression()), !dbg !1485
  %_3.i.i.i.i = getelementptr inbounds i8, ptr %.val, i64 4, !dbg !1486
  call void @llvm.dbg.value(metadata ptr @_ZN3std9panicking11panic_count18GLOBAL_PANIC_COUNT17h00e7dcd913cdfbe0E, metadata !1367, metadata !DIExpression()), !dbg !1487
  call void @llvm.dbg.value(metadata i8 0, metadata !1381, metadata !DIExpression()), !dbg !1487
  call void @llvm.dbg.value(metadata i8 1, metadata !1411, metadata !DIExpression()), !dbg !1493
  call void @llvm.dbg.value(metadata i8 0, metadata !1420, metadata !DIExpression()), !dbg !1493
  call void @llvm.dbg.value(metadata ptr %_3.i.i.i.i, metadata !1408, metadata !DIExpression()), !dbg !1495
  call void @llvm.dbg.value(metadata ptr undef, metadata !1409, metadata !DIExpression()), !dbg !1495
  %_3.not.i.i.i.i.i = icmp eq i8 %.val1, 0, !dbg !1496
  br i1 %_3.not.i.i.i.i.i, label %bb1.i.i.i.i.i, label %_ZN3std4sync6poison4Flag4done17h6b62417d8d60c5ceE.exit.i.i.i.i, !dbg !1496

bb1.i.i.i.i.i:                                    ; preds = %bb2.i
  call void @llvm.dbg.value(metadata i8 0, metadata !1425, metadata !DIExpression()), !dbg !1497
  call void @llvm.dbg.value(metadata ptr @_ZN3std9panicking11panic_count18GLOBAL_PANIC_COUNT17h00e7dcd913cdfbe0E, metadata !1431, metadata !DIExpression()), !dbg !1497
  %7 = load atomic i64, ptr @_ZN3std9panicking11panic_count18GLOBAL_PANIC_COUNT17h00e7dcd913cdfbe0E monotonic, align 8, !dbg !1499, !noalias !1500
  %_7.i.i.i.i.i = and i64 %7, 9223372036854775807, !dbg !1503
  %8 = icmp eq i64 %_7.i.i.i.i.i, 0, !dbg !1503
  br i1 %8, label %_ZN3std4sync6poison4Flag4done17h6b62417d8d60c5ceE.exit.i.i.i.i, label %bb6.i.i.i.i.i, !dbg !1503

bb6.i.i.i.i.i:                                    ; preds = %bb1.i.i.i.i.i
; call std::panicking::panic_count::is_zero_slow_path
  %_6.i.i.i.i.i = tail call noundef zeroext i1 @_ZN3std9panicking11panic_count17is_zero_slow_path17h24de30857bbd803cE(), !dbg !1504, !noalias !1500
  br i1 %_6.i.i.i.i.i, label %_ZN3std4sync6poison4Flag4done17h6b62417d8d60c5ceE.exit.i.i.i.i, label %bb2.i.i.i.i.i, !dbg !1505

bb2.i.i.i.i.i:                                    ; preds = %bb6.i.i.i.i.i
  call void @llvm.dbg.value(metadata ptr %_3.i.i.i.i, metadata !1419, metadata !DIExpression()), !dbg !1493
  call void @llvm.dbg.value(metadata i8 0, metadata !1441, metadata !DIExpression()), !dbg !1506
  call void @llvm.dbg.value(metadata ptr %_3.i.i.i.i, metadata !1447, metadata !DIExpression()), !dbg !1506
  call void @llvm.dbg.value(metadata i8 1, metadata !1448, metadata !DIExpression()), !dbg !1506
  store atomic i8 1, ptr %_3.i.i.i.i monotonic, align 1, !dbg !1508, !noalias !1500
  br label %_ZN3std4sync6poison4Flag4done17h6b62417d8d60c5ceE.exit.i.i.i.i, !dbg !1509

_ZN3std4sync6poison4Flag4done17h6b62417d8d60c5ceE.exit.i.i.i.i: ; preds = %bb2.i.i.i.i.i, %bb6.i.i.i.i.i, %bb1.i.i.i.i.i, %bb2.i
  call void @llvm.dbg.value(metadata ptr %.val, metadata !1343, metadata !DIExpression()), !dbg !1510
  call void @llvm.dbg.value(metadata ptr %.val, metadata !1331, metadata !DIExpression()), !dbg !1479
  call void @llvm.dbg.value(metadata ptr %.val, metadata !1361, metadata !DIExpression()), !dbg !1483
  %9 = atomicrmw xchg ptr %.val, i32 0 release, align 4, !dbg !1511, !noalias !1500
  %_8.i.i.i.i = icmp eq i32 %9, 2, !dbg !1512
  br i1 %_8.i.i.i.i, label %bb1.sink.split, label %bb1, !dbg !1512

bb1.sink.split:                                   ; preds = %_ZN3std4sync6poison4Flag4done17h6b62417d8d60c5ceE.exit.i.i.i.i, %_ZN3std4sync6poison4Flag4done17h6b62417d8d60c5ceE.exit.i.i
; call std::sys::sync::mutex::futex::Mutex::wake
  tail call void @_ZN3std3sys4sync5mutex5futex5Mutex4wake17hc487312157454c34E(ptr noundef nonnull align 4 %.val), !dbg !1311, !noalias !14
  br label %bb1, !dbg !1311

bb1:                                              ; preds = %bb1.sink.split, %_ZN3std4sync6poison4Flag4done17h6b62417d8d60c5ceE.exit.i.i.i.i, %bb3, %_ZN3std4sync6poison4Flag4done17h6b62417d8d60c5ceE.exit.i.i
  ret void, !dbg !1311
}

; core::ptr::drop_in_place<tracing::span::Span>
; Function Attrs: nonlazybind uwtable
define internal fastcc void @"_ZN4core3ptr40drop_in_place$LT$tracing..span..Span$GT$17hd1856b98369d3d7bE"(ptr noalias noundef align 8 dereferenceable(40) %_1) unnamed_addr #2 personality ptr @rust_eh_personality !dbg !1513 {
start:
  tail call void @llvm.dbg.value(metadata ptr %_1, metadata !1627, metadata !DIExpression()), !dbg !1630
  call void @llvm.dbg.value(metadata ptr %_1, metadata !1631, metadata !DIExpression()), !dbg !1644
  %0 = load i64, ptr %_1, align 8, !dbg !1646, !range !1647, !noundef !14
  %1 = icmp eq i64 %0, 2, !dbg !1646
  br i1 %1, label %"_ZN4core3ptr69drop_in_place$LT$core..option..Option$LT$tracing..span..Inner$GT$$GT$17h4689cab8b5dc9053E.exit", label %bb1.i, !dbg !1646

bb1.i:                                            ; preds = %start
  call void @llvm.dbg.value(metadata ptr %_1, metadata !1639, metadata !DIExpression(DW_OP_plus_uconst, 24, DW_OP_stack_value)), !dbg !1648
  call void @llvm.dbg.value(metadata ptr %_1, metadata !1642, metadata !DIExpression()), !dbg !1648
  call void @llvm.dbg.value(metadata ptr %_1, metadata !1649, metadata !DIExpression(DW_OP_plus_uconst, 24, DW_OP_stack_value)), !dbg !1657
  call void @llvm.dbg.value(metadata ptr %_1, metadata !1659, metadata !DIExpression(DW_OP_plus_uconst, 24, DW_OP_stack_value)), !dbg !1668
  %2 = getelementptr inbounds i8, ptr %_1, i64 24, !dbg !1670
  %_11.i = load i64, ptr %2, align 8, !dbg !1670, !range !1671, !alias.scope !1672, !noundef !14
; invoke tracing_core::dispatcher::Dispatch::try_close
  %_5.i1 = invoke noundef zeroext i1 @_ZN12tracing_core10dispatcher8Dispatch9try_close17h696bcd9c55eb65b8E(ptr noalias noundef nonnull readonly align 8 dereferenceable(24) %_1, i64 noundef %_11.i)
          to label %bb2.i unwind label %cleanup, !dbg !1675

cleanup:                                          ; preds = %bb1.i
  %3 = landingpad { ptr, i32 }
          cleanup
; invoke core::ptr::drop_in_place<core::option::Option<tracing::span::Inner>>
  invoke fastcc void @"_ZN4core3ptr69drop_in_place$LT$core..option..Option$LT$tracing..span..Inner$GT$$GT$17h4689cab8b5dc9053E"(ptr noalias noundef nonnull align 8 dereferenceable(32) %_1) #20
          to label %bb1 unwind label %terminate, !dbg !1676

bb2.i:                                            ; preds = %bb1.i
  tail call void @llvm.experimental.noalias.scope.decl(metadata !1677), !dbg !1676
  call void @llvm.dbg.value(metadata ptr %_1, metadata !1680, metadata !DIExpression()), !dbg !1688
  tail call void @llvm.experimental.noalias.scope.decl(metadata !1690), !dbg !1693
  call void @llvm.dbg.value(metadata ptr %_1, metadata !1694, metadata !DIExpression()), !dbg !1700
  tail call void @llvm.experimental.noalias.scope.decl(metadata !1702), !dbg !1705
  call void @llvm.dbg.value(metadata ptr %_1, metadata !1706, metadata !DIExpression()), !dbg !1714
  tail call void @llvm.experimental.noalias.scope.decl(metadata !1716), !dbg !1719
  call void @llvm.dbg.value(metadata ptr %_1, metadata !1720, metadata !DIExpression()), !dbg !1728
  %4 = icmp eq i64 %0, 0, !dbg !1730
  br i1 %4, label %"_ZN4core3ptr69drop_in_place$LT$core..option..Option$LT$tracing..span..Inner$GT$$GT$17h4689cab8b5dc9053E.exit", label %bb2.i.i.i.i, !dbg !1730

bb2.i.i.i.i:                                      ; preds = %bb2.i
  %5 = getelementptr inbounds i8, ptr %_1, i64 8, !dbg !1730
  tail call void @llvm.experimental.noalias.scope.decl(metadata !1731), !dbg !1730
  call void @llvm.dbg.value(metadata ptr %5, metadata !1734, metadata !DIExpression()), !dbg !1740
  tail call void @llvm.experimental.noalias.scope.decl(metadata !1742), !dbg !1745
  call void @llvm.dbg.value(metadata i64 1, metadata !1746, metadata !DIExpression()), !dbg !1755
  call void @llvm.dbg.value(metadata i8 1, metadata !1754, metadata !DIExpression()), !dbg !1755
  call void @llvm.dbg.value(metadata i64 1, metadata !1766, metadata !DIExpression()), !dbg !1775
  call void @llvm.dbg.value(metadata i8 1, metadata !1774, metadata !DIExpression()), !dbg !1775
  call void @llvm.dbg.value(metadata i8 2, metadata !1777, metadata !DIExpression()), !dbg !1783
  call void @llvm.dbg.value(metadata ptr %5, metadata !1764, metadata !DIExpression()), !dbg !1785
  call void @llvm.dbg.value(metadata ptr %5, metadata !1786, metadata !DIExpression()), !dbg !1798
  call void @llvm.dbg.value(metadata ptr %5, metadata !1800, metadata !DIExpression()), !dbg !1809
  %self.0.i.i.i.i.i.i = load ptr, ptr %5, align 8, !dbg !1811, !alias.scope !1812, !nonnull !14, !noundef !14
  call void @llvm.dbg.value(metadata ptr %self.0.i.i.i.i.i.i, metadata !1753, metadata !DIExpression()), !dbg !1755
  call void @llvm.dbg.value(metadata ptr %self.0.i.i.i.i.i.i, metadata !1773, metadata !DIExpression()), !dbg !1775
  %6 = atomicrmw sub ptr %self.0.i.i.i.i.i.i, i64 1 release, align 8, !dbg !1813, !noalias !1812
  %7 = icmp eq i64 %6, 1, !dbg !1814
  br i1 %7, label %bb2.i.i.i.i.i.i, label %"_ZN4core3ptr69drop_in_place$LT$core..option..Option$LT$tracing..span..Inner$GT$$GT$17h4689cab8b5dc9053E.exit", !dbg !1814

bb2.i.i.i.i.i.i:                                  ; preds = %bb2.i.i.i.i
  fence acquire, !dbg !1815
; call alloc::sync::Arc<T,A>::drop_slow
  tail call fastcc void @"_ZN5alloc4sync16Arc$LT$T$C$A$GT$9drop_slow17he19ee5bb64486b67E"(ptr noalias noundef nonnull align 8 dereferenceable(16) %5), !dbg !1816
  br label %"_ZN4core3ptr69drop_in_place$LT$core..option..Option$LT$tracing..span..Inner$GT$$GT$17h4689cab8b5dc9053E.exit", !dbg !1816

"_ZN4core3ptr69drop_in_place$LT$core..option..Option$LT$tracing..span..Inner$GT$$GT$17h4689cab8b5dc9053E.exit": ; preds = %start, %bb2.i, %bb2.i.i.i.i, %bb2.i.i.i.i.i.i
  ret void, !dbg !1676

terminate:                                        ; preds = %cleanup
  %8 = landingpad { ptr, i32 }
          filter [0 x ptr] zeroinitializer
; call core::panicking::panic_in_cleanup
  tail call void @_ZN4core9panicking16panic_in_cleanup17h43442956f23e9cbeE() #21, !dbg !1676
  unreachable, !dbg !1676

bb1:                                              ; preds = %cleanup
  resume { ptr, i32 } %3, !dbg !1676
}

; core::ptr::drop_in_place<std::io::error::Error>
; Function Attrs: nonlazybind uwtable
define internal fastcc void @"_ZN4core3ptr42drop_in_place$LT$std..io..error..Error$GT$17h945cd2955dc5c8a0E"(ptr %_1.0.val) unnamed_addr #2 personality ptr @rust_eh_personality !dbg !1817 {
start:
  tail call void @llvm.dbg.value(metadata ptr undef, metadata !1879, metadata !DIExpression()), !dbg !1882
  %0 = icmp ne ptr %_1.0.val, null
  tail call void @llvm.assume(i1 %0)
  call void @llvm.dbg.value(metadata ptr undef, metadata !1883, metadata !DIExpression()), !dbg !1891
  call void @llvm.dbg.value(metadata ptr undef, metadata !1893, metadata !DIExpression()), !dbg !1901
  call void @llvm.dbg.value(metadata i64 1, metadata !1903, metadata !DIExpression()), !dbg !1914
  call void @llvm.dbg.value(metadata i64 1, metadata !1938, metadata !DIExpression()), !dbg !1945
  call void @llvm.dbg.value(metadata i64 -1, metadata !1947, metadata !DIExpression()), !dbg !1955
  call void @llvm.dbg.value(metadata ptr %_1.0.val, metadata !1923, metadata !DIExpression()), !dbg !1957
  call void @llvm.dbg.declare(metadata ptr undef, metadata !1924, metadata !DIExpression()), !dbg !1958
  call void @llvm.dbg.value(metadata ptr %_1.0.val, metadata !1959, metadata !DIExpression()), !dbg !1965
  call void @llvm.dbg.value(metadata ptr %_1.0.val, metadata !1913, metadata !DIExpression()), !dbg !1914
  %1 = ptrtoint ptr %_1.0.val to i64, !dbg !1967
  call void @llvm.dbg.value(metadata i64 %1, metadata !1925, metadata !DIExpression()), !dbg !1968
  %_5.i.i.i = and i64 %1, 3, !dbg !1969
  switch i64 %_5.i.i.i, label %default.unreachable [
    i64 2, label %"_ZN4core3ptr57drop_in_place$LT$std..io..error..repr_bitpacked..Repr$GT$17hfed201f033be5874E.exit"
    i64 3, label %bb3.i.i.i
    i64 0, label %"_ZN4core3ptr57drop_in_place$LT$std..io..error..repr_bitpacked..Repr$GT$17hfed201f033be5874E.exit"
    i64 1, label %bb2.i2.i.i
  ], !dbg !1970

default.unreachable:                              ; preds = %start
  unreachable

bb3.i.i.i:                                        ; preds = %start
  %_10.i.i.i = lshr i64 %1, 32, !dbg !1971
  %kind_bits.i.i.i = trunc i64 %_10.i.i.i to i32, !dbg !1971
  call void @llvm.dbg.value(metadata i32 %kind_bits.i.i.i, metadata !1928, metadata !DIExpression()), !dbg !1972
  call void @llvm.dbg.value(metadata i32 %kind_bits.i.i.i, metadata !1973, metadata !DIExpression()), !dbg !2115
  %switch.i.i = icmp ult i32 %kind_bits.i.i.i, 41, !dbg !2117
  call void @llvm.dbg.value(metadata i8 poison, metadata !2118, metadata !DIExpression()), !dbg !2142
  call void @llvm.dbg.value(metadata ptr undef, metadata !2139, metadata !DIExpression()), !dbg !2142
  tail call void @llvm.assume(i1 %switch.i.i), !dbg !2144
  br label %"_ZN4core3ptr57drop_in_place$LT$std..io..error..repr_bitpacked..Repr$GT$17hfed201f033be5874E.exit", !dbg !2145

bb2.i2.i.i:                                       ; preds = %start
  call void @llvm.dbg.value(metadata ptr %_1.0.val, metadata !1944, metadata !DIExpression()), !dbg !1945
  call void @llvm.dbg.value(metadata ptr %_1.0.val, metadata !1954, metadata !DIExpression()), !dbg !1955
  %2 = getelementptr i8, ptr %_1.0.val, i64 -1, !dbg !2146
  call void @llvm.dbg.value(metadata ptr undef, metadata !2147, metadata !DIExpression()), !dbg !2153
  call void @llvm.dbg.value(metadata ptr undef, metadata !2155, metadata !DIExpression()), !dbg !2163
  %_6.val.i.i.i.i = load ptr, ptr %2, align 8, !dbg !2165
  %3 = getelementptr i8, ptr %_1.0.val, i64 7, !dbg !2165
  %_6.val1.i.i.i.i = load ptr, ptr %3, align 8, !dbg !2165, !nonnull !14, !align !1068, !noundef !14
  call void @llvm.dbg.value(metadata ptr undef, metadata !2166, metadata !DIExpression()), !dbg !2173
  call void @llvm.dbg.value(metadata ptr undef, metadata !2175, metadata !DIExpression()), !dbg !2183
  %4 = load ptr, ptr %_6.val1.i.i.i.i, align 8, !dbg !2185, !invariant.load !14
  %.not.i.i.i.i.i.i = icmp eq ptr %4, null, !dbg !2185
  br i1 %.not.i.i.i.i.i.i, label %bb3.i.i.i.i.i.i, label %is_not_null.i.i.i.i.i.i, !dbg !2185

is_not_null.i.i.i.i.i.i:                          ; preds = %bb2.i2.i.i
  invoke void %4(ptr noundef nonnull align 1 %_6.val.i.i.i.i)
          to label %bb3.i.i.i.i.i.i unwind label %cleanup.i.i.i.i.i.i, !dbg !2185

bb3.i.i.i.i.i.i:                                  ; preds = %is_not_null.i.i.i.i.i.i, %bb2.i2.i.i
  %5 = icmp ne ptr %_6.val.i.i.i.i, null
  tail call void @llvm.assume(i1 %5)
  call void @llvm.dbg.value(metadata ptr undef, metadata !2186, metadata !DIExpression()), !dbg !2224
  call void @llvm.dbg.value(metadata ptr %_6.val.i.i.i.i, metadata !2195, metadata !DIExpression(DW_OP_LLVM_fragment, 0, 64)), !dbg !2226
  call void @llvm.dbg.value(metadata ptr %_6.val1.i.i.i.i, metadata !2195, metadata !DIExpression(DW_OP_LLVM_fragment, 64, 64)), !dbg !2226
  call void @llvm.dbg.value(metadata ptr %_6.val.i.i.i.i, metadata !2227, metadata !DIExpression(DW_OP_LLVM_fragment, 0, 64)), !dbg !2238
  call void @llvm.dbg.value(metadata ptr %_6.val.i.i.i.i, metadata !2240, metadata !DIExpression(DW_OP_LLVM_fragment, 0, 64)), !dbg !2248
  call void @llvm.dbg.value(metadata ptr %_6.val.i.i.i.i, metadata !2250, metadata !DIExpression(DW_OP_LLVM_fragment, 0, 64)), !dbg !2254
  call void @llvm.dbg.value(metadata ptr %_6.val1.i.i.i.i, metadata !2227, metadata !DIExpression(DW_OP_LLVM_fragment, 64, 64)), !dbg !2238
  call void @llvm.dbg.value(metadata ptr %_6.val1.i.i.i.i, metadata !2240, metadata !DIExpression(DW_OP_LLVM_fragment, 64, 64)), !dbg !2248
  call void @llvm.dbg.value(metadata ptr %_6.val1.i.i.i.i, metadata !2250, metadata !DIExpression(DW_OP_LLVM_fragment, 64, 64)), !dbg !2254
  %6 = getelementptr inbounds i8, ptr %_6.val1.i.i.i.i, i64 8, !dbg !2256
  %7 = load i64, ptr %6, align 8, !dbg !2256, !range !2257, !invariant.load !14
  %8 = getelementptr inbounds i8, ptr %_6.val1.i.i.i.i, i64 16, !dbg !2256
  call void @llvm.dbg.value(metadata i64 %7, metadata !2235, metadata !DIExpression()), !dbg !2258
  call void @llvm.dbg.value(metadata i64 %7, metadata !2259, metadata !DIExpression()), !dbg !2267
  %9 = load i64, ptr %8, align 8, !dbg !2269, !range !1671, !invariant.load !14
  call void @llvm.dbg.value(metadata i64 %9, metadata !2237, metadata !DIExpression()), !dbg !2258
  call void @llvm.dbg.value(metadata i64 %9, metadata !2266, metadata !DIExpression()), !dbg !2267
  call void @llvm.dbg.value(metadata i64 %9, metadata !2270, metadata !DIExpression()), !dbg !2278
  %10 = icmp ult i64 %9, -9223372036854775807, !dbg !2280
  tail call void @llvm.assume(i1 %10), !dbg !2280
  call void @llvm.dbg.value(metadata i64 %7, metadata !2212, metadata !DIExpression(DW_OP_LLVM_fragment, 64, 64)), !dbg !2281
  call void @llvm.dbg.value(metadata i64 %9, metadata !2212, metadata !DIExpression(DW_OP_LLVM_fragment, 0, 64)), !dbg !2281
  %11 = icmp eq i64 %7, 0, !dbg !2282
  br i1 %11, label %"_ZN4core3ptr68drop_in_place$LT$alloc..boxed..Box$LT$std..io..error..Custom$GT$$GT$17h862aeba667f8905dE.exit.i.i.i", label %"_ZN63_$LT$alloc..alloc..Global$u20$as$u20$core..alloc..Allocator$GT$10deallocate17h0f2d39528d187dc6E.exit.i.i.i.i.i.i.i", !dbg !2282

"_ZN63_$LT$alloc..alloc..Global$u20$as$u20$core..alloc..Allocator$GT$10deallocate17h0f2d39528d187dc6E.exit.i.i.i.i.i.i.i": ; preds = %bb3.i.i.i.i.i.i
  call void @llvm.dbg.value(metadata i64 %9, metadata !2283, metadata !DIExpression(DW_OP_LLVM_fragment, 0, 64)), !dbg !2297
  call void @llvm.dbg.value(metadata i64 %7, metadata !2283, metadata !DIExpression(DW_OP_LLVM_fragment, 64, 64)), !dbg !2297
  call void @llvm.dbg.value(metadata ptr undef, metadata !2295, metadata !DIExpression()), !dbg !2297
  call void @llvm.dbg.value(metadata ptr %_6.val.i.i.i.i, metadata !2296, metadata !DIExpression()), !dbg !2297
  call void @llvm.dbg.value(metadata ptr %_6.val.i.i.i.i, metadata !2299, metadata !DIExpression()), !dbg !2306
  call void @llvm.dbg.value(metadata i64 %9, metadata !2305, metadata !DIExpression(DW_OP_LLVM_fragment, 0, 64)), !dbg !2306
  call void @llvm.dbg.value(metadata i64 %7, metadata !2305, metadata !DIExpression(DW_OP_LLVM_fragment, 64, 64)), !dbg !2306
  tail call void @__rust_dealloc(ptr noundef nonnull %_6.val.i.i.i.i, i64 noundef %7, i64 noundef %9) #22, !dbg !2308
  br label %"_ZN4core3ptr68drop_in_place$LT$alloc..boxed..Box$LT$std..io..error..Custom$GT$$GT$17h862aeba667f8905dE.exit.i.i.i", !dbg !2309

cleanup.i.i.i.i.i.i:                              ; preds = %is_not_null.i.i.i.i.i.i
  %12 = landingpad { ptr, i32 }
          cleanup
  %13 = icmp ne ptr %_6.val.i.i.i.i, null
  tail call void @llvm.assume(i1 %13)
  call void @llvm.dbg.value(metadata ptr undef, metadata !2186, metadata !DIExpression()), !dbg !2310
  call void @llvm.dbg.value(metadata ptr %_6.val.i.i.i.i, metadata !2195, metadata !DIExpression(DW_OP_LLVM_fragment, 0, 64)), !dbg !2312
  call void @llvm.dbg.value(metadata ptr %_6.val1.i.i.i.i, metadata !2195, metadata !DIExpression(DW_OP_LLVM_fragment, 64, 64)), !dbg !2312
  call void @llvm.dbg.value(metadata ptr %_6.val.i.i.i.i, metadata !2227, metadata !DIExpression(DW_OP_LLVM_fragment, 0, 64)), !dbg !2313
  call void @llvm.dbg.value(metadata ptr %_6.val.i.i.i.i, metadata !2240, metadata !DIExpression(DW_OP_LLVM_fragment, 0, 64)), !dbg !2315
  call void @llvm.dbg.value(metadata ptr %_6.val.i.i.i.i, metadata !2250, metadata !DIExpression(DW_OP_LLVM_fragment, 0, 64)), !dbg !2317
  call void @llvm.dbg.value(metadata ptr %_6.val1.i.i.i.i, metadata !2227, metadata !DIExpression(DW_OP_LLVM_fragment, 64, 64)), !dbg !2313
  call void @llvm.dbg.value(metadata ptr %_6.val1.i.i.i.i, metadata !2240, metadata !DIExpression(DW_OP_LLVM_fragment, 64, 64)), !dbg !2315
  call void @llvm.dbg.value(metadata ptr %_6.val1.i.i.i.i, metadata !2250, metadata !DIExpression(DW_OP_LLVM_fragment, 64, 64)), !dbg !2317
  %14 = getelementptr inbounds i8, ptr %_6.val1.i.i.i.i, i64 8, !dbg !2319
  %15 = load i64, ptr %14, align 8, !dbg !2319, !range !2257, !invariant.load !14
  %16 = getelementptr inbounds i8, ptr %_6.val1.i.i.i.i, i64 16, !dbg !2319
  call void @llvm.dbg.value(metadata i64 %15, metadata !2235, metadata !DIExpression()), !dbg !2320
  call void @llvm.dbg.value(metadata i64 %15, metadata !2259, metadata !DIExpression()), !dbg !2321
  %17 = load i64, ptr %16, align 8, !dbg !2323, !range !1671, !invariant.load !14
  call void @llvm.dbg.value(metadata i64 %17, metadata !2237, metadata !DIExpression()), !dbg !2320
  call void @llvm.dbg.value(metadata i64 %17, metadata !2266, metadata !DIExpression()), !dbg !2321
  call void @llvm.dbg.value(metadata i64 %17, metadata !2270, metadata !DIExpression()), !dbg !2324
  %18 = icmp ult i64 %17, -9223372036854775807, !dbg !2326
  tail call void @llvm.assume(i1 %18), !dbg !2326
  call void @llvm.dbg.value(metadata i64 %15, metadata !2212, metadata !DIExpression(DW_OP_LLVM_fragment, 64, 64)), !dbg !2327
  call void @llvm.dbg.value(metadata i64 %17, metadata !2212, metadata !DIExpression(DW_OP_LLVM_fragment, 0, 64)), !dbg !2327
  %19 = icmp eq i64 %15, 0, !dbg !2328
  br i1 %19, label %bb1.i.i.i.i, label %"_ZN63_$LT$alloc..alloc..Global$u20$as$u20$core..alloc..Allocator$GT$10deallocate17h0f2d39528d187dc6E.exit.i4.i.i.i.i.i.i", !dbg !2328

"_ZN63_$LT$alloc..alloc..Global$u20$as$u20$core..alloc..Allocator$GT$10deallocate17h0f2d39528d187dc6E.exit.i4.i.i.i.i.i.i": ; preds = %cleanup.i.i.i.i.i.i
  call void @llvm.dbg.value(metadata i64 %17, metadata !2283, metadata !DIExpression(DW_OP_LLVM_fragment, 0, 64)), !dbg !2329
  call void @llvm.dbg.value(metadata i64 %15, metadata !2283, metadata !DIExpression(DW_OP_LLVM_fragment, 64, 64)), !dbg !2329
  call void @llvm.dbg.value(metadata ptr undef, metadata !2295, metadata !DIExpression()), !dbg !2329
  call void @llvm.dbg.value(metadata ptr %_6.val.i.i.i.i, metadata !2296, metadata !DIExpression()), !dbg !2329
  call void @llvm.dbg.value(metadata ptr %_6.val.i.i.i.i, metadata !2299, metadata !DIExpression()), !dbg !2331
  call void @llvm.dbg.value(metadata i64 %17, metadata !2305, metadata !DIExpression(DW_OP_LLVM_fragment, 0, 64)), !dbg !2331
  call void @llvm.dbg.value(metadata i64 %15, metadata !2305, metadata !DIExpression(DW_OP_LLVM_fragment, 64, 64)), !dbg !2331
  tail call void @__rust_dealloc(ptr noundef nonnull %_6.val.i.i.i.i, i64 noundef %15, i64 noundef %17) #22, !dbg !2333
  br label %bb1.i.i.i.i, !dbg !2334

bb1.i.i.i.i:                                      ; preds = %"_ZN63_$LT$alloc..alloc..Global$u20$as$u20$core..alloc..Allocator$GT$10deallocate17h0f2d39528d187dc6E.exit.i4.i.i.i.i.i.i", %cleanup.i.i.i.i.i.i
  call void @llvm.dbg.value(metadata ptr undef, metadata !2335, metadata !DIExpression()), !dbg !2355
  call void @llvm.dbg.value(metadata i64 24, metadata !2352, metadata !DIExpression(DW_OP_LLVM_fragment, 64, 64)), !dbg !2357
  call void @llvm.dbg.value(metadata i64 8, metadata !2352, metadata !DIExpression(DW_OP_LLVM_fragment, 0, 64)), !dbg !2357
  call void @llvm.dbg.value(metadata ptr %2, metadata !2341, metadata !DIExpression()), !dbg !2358
  call void @llvm.dbg.value(metadata i64 8, metadata !2283, metadata !DIExpression(DW_OP_LLVM_fragment, 0, 64)), !dbg !2359
  call void @llvm.dbg.value(metadata i64 24, metadata !2283, metadata !DIExpression(DW_OP_LLVM_fragment, 64, 64)), !dbg !2359
  call void @llvm.dbg.value(metadata ptr undef, metadata !2295, metadata !DIExpression()), !dbg !2359
  call void @llvm.dbg.value(metadata ptr %2, metadata !2296, metadata !DIExpression()), !dbg !2359
  call void @llvm.dbg.value(metadata ptr %2, metadata !2299, metadata !DIExpression()), !dbg !2361
  call void @llvm.dbg.value(metadata i64 8, metadata !2305, metadata !DIExpression(DW_OP_LLVM_fragment, 0, 64)), !dbg !2361
  call void @llvm.dbg.value(metadata i64 24, metadata !2305, metadata !DIExpression(DW_OP_LLVM_fragment, 64, 64)), !dbg !2361
  tail call void @__rust_dealloc(ptr noundef nonnull %2, i64 noundef 24, i64 noundef 8) #22, !dbg !2363
  resume { ptr, i32 } %12, !dbg !2165

"_ZN4core3ptr68drop_in_place$LT$alloc..boxed..Box$LT$std..io..error..Custom$GT$$GT$17h862aeba667f8905dE.exit.i.i.i": ; preds = %"_ZN63_$LT$alloc..alloc..Global$u20$as$u20$core..alloc..Allocator$GT$10deallocate17h0f2d39528d187dc6E.exit.i.i.i.i.i.i.i", %bb3.i.i.i.i.i.i
  call void @llvm.dbg.value(metadata ptr undef, metadata !2335, metadata !DIExpression()), !dbg !2364
  call void @llvm.dbg.value(metadata i64 24, metadata !2352, metadata !DIExpression(DW_OP_LLVM_fragment, 64, 64)), !dbg !2366
  call void @llvm.dbg.value(metadata i64 8, metadata !2352, metadata !DIExpression(DW_OP_LLVM_fragment, 0, 64)), !dbg !2366
  call void @llvm.dbg.value(metadata ptr %2, metadata !2341, metadata !DIExpression()), !dbg !2367
  call void @llvm.dbg.value(metadata i64 8, metadata !2283, metadata !DIExpression(DW_OP_LLVM_fragment, 0, 64)), !dbg !2368
  call void @llvm.dbg.value(metadata i64 24, metadata !2283, metadata !DIExpression(DW_OP_LLVM_fragment, 64, 64)), !dbg !2368
  call void @llvm.dbg.value(metadata ptr undef, metadata !2295, metadata !DIExpression()), !dbg !2368
  call void @llvm.dbg.value(metadata ptr %2, metadata !2296, metadata !DIExpression()), !dbg !2368
  call void @llvm.dbg.value(metadata ptr %2, metadata !2299, metadata !DIExpression()), !dbg !2370
  call void @llvm.dbg.value(metadata i64 8, metadata !2305, metadata !DIExpression(DW_OP_LLVM_fragment, 0, 64)), !dbg !2370
  call void @llvm.dbg.value(metadata i64 24, metadata !2305, metadata !DIExpression(DW_OP_LLVM_fragment, 64, 64)), !dbg !2370
  tail call void @__rust_dealloc(ptr noundef nonnull %2, i64 noundef 24, i64 noundef 8) #22, !dbg !2372
  br label %"_ZN4core3ptr57drop_in_place$LT$std..io..error..repr_bitpacked..Repr$GT$17hfed201f033be5874E.exit", !dbg !2373

"_ZN4core3ptr57drop_in_place$LT$std..io..error..repr_bitpacked..Repr$GT$17hfed201f033be5874E.exit": ; preds = %start, %start, %bb3.i.i.i, %"_ZN4core3ptr68drop_in_place$LT$alloc..boxed..Box$LT$std..io..error..Custom$GT$$GT$17h862aeba667f8905dE.exit.i.i.i"
  ret void, !dbg !2374
}

; core::ptr::drop_in_place<polling::epoll::Poller>
; Function Attrs: nonlazybind uwtable
define internal fastcc void @"_ZN4core3ptr43drop_in_place$LT$polling..epoll..Poller$GT$17h6652d9b1bd13456bE"(ptr noalias noundef align 4 dereferenceable(16) %_1) unnamed_addr #2 personality ptr @rust_eh_personality !dbg !2375 {
start:
  tail call void @llvm.dbg.value(metadata ptr %_1, metadata !2385, metadata !DIExpression()), !dbg !2388
; invoke <polling::epoll::Poller as core::ops::drop::Drop>::drop
  invoke void @"_ZN64_$LT$polling..epoll..Poller$u20$as$u20$core..ops..drop..Drop$GT$4drop17h728af9203d44a687E"(ptr noalias noundef nonnull align 4 dereferenceable(16) %_1)
          to label %bb8 unwind label %cleanup, !dbg !2389

cleanup:                                          ; preds = %start
  %0 = landingpad { ptr, i32 }
          cleanup
  call void @llvm.dbg.value(metadata ptr %_1, metadata !2390, metadata !DIExpression()), !dbg !2396
  %_1.val.i = load i32, ptr %_1, align 4, !dbg !2398, !alias.scope !2399, !noundef !14
  call void @llvm.dbg.value(metadata ptr undef, metadata !2402, metadata !DIExpression()), !dbg !2410
  %_4.i.i7 = invoke noundef i32 @close(i32 noundef %_1.val.i)
          to label %bb4 unwind label %terminate, !dbg !2412

bb8:                                              ; preds = %start
  call void @llvm.dbg.value(metadata ptr %_1, metadata !2390, metadata !DIExpression()), !dbg !2413
  %_1.val.i8 = load i32, ptr %_1, align 4, !dbg !2415, !alias.scope !2416, !noundef !14
  call void @llvm.dbg.value(metadata ptr undef, metadata !2402, metadata !DIExpression()), !dbg !2419
  %_4.i.i9 = invoke noundef i32 @close(i32 noundef %_1.val.i8)
          to label %bb7 unwind label %cleanup1, !dbg !2421

bb4:                                              ; preds = %cleanup, %cleanup1
  %.pn = phi { ptr, i32 } [ %2, %cleanup1 ], [ %0, %cleanup ]
  %1 = getelementptr inbounds i8, ptr %_1, i64 4, !dbg !2389
; invoke core::ptr::drop_in_place<polling::epoll::Notifier>
  invoke void @"_ZN4core3ptr45drop_in_place$LT$polling..epoll..Notifier$GT$17h4ddb63129a88edfcE"(ptr noalias noundef nonnull align 4 dereferenceable(8) %1) #20
          to label %bb3 unwind label %terminate, !dbg !2389

cleanup1:                                         ; preds = %bb8
  %2 = landingpad { ptr, i32 }
          cleanup
  br label %bb4

bb7:                                              ; preds = %bb8
  %3 = getelementptr inbounds i8, ptr %_1, i64 4, !dbg !2389
  tail call void @llvm.experimental.noalias.scope.decl(metadata !2422), !dbg !2389
  call void @llvm.dbg.value(metadata ptr %3, metadata !2425, metadata !DIExpression()), !dbg !2431
  %4 = getelementptr inbounds i8, ptr %_1, i64 8, !dbg !2433
  %5 = load i32, ptr %4, align 4, !dbg !2433, !alias.scope !2422, !noundef !14
  %6 = icmp eq i32 %5, -1, !dbg !2433
  call void @llvm.dbg.value(metadata ptr %3, metadata !2390, metadata !DIExpression()), !dbg !2434
  call void @llvm.dbg.value(metadata ptr %3, metadata !2390, metadata !DIExpression()), !dbg !2436
  %_1.val.i.i = load i32, ptr %3, align 4, !dbg !2438, !alias.scope !2422, !noundef !14
  call void @llvm.dbg.value(metadata ptr undef, metadata !2402, metadata !DIExpression()), !dbg !2439
  call void @llvm.dbg.value(metadata ptr undef, metadata !2402, metadata !DIExpression()), !dbg !2441
  br i1 %6, label %bb2.i, label %bb6.i, !dbg !2433

bb6.i:                                            ; preds = %bb7
  %_4.i.i23.i = invoke noundef i32 @close(i32 noundef %_1.val.i.i)
          to label %bb2.i unwind label %cleanup.i, !dbg !2443, !noalias !2422

bb2.i:                                            ; preds = %bb7, %bb6.i
  %.sink.i = phi i32 [ %5, %bb6.i ], [ %_1.val.i.i, %bb7 ]
  %_4.i.i9.i11 = invoke noundef i32 @close(i32 noundef %.sink.i)
          to label %bb6 unwind label %cleanup2, !dbg !2444

cleanup.i:                                        ; preds = %bb6.i
  %7 = landingpad { ptr, i32 }
          cleanup
  call void @llvm.dbg.value(metadata ptr %4, metadata !2390, metadata !DIExpression()), !dbg !2447
  call void @llvm.dbg.value(metadata ptr undef, metadata !2402, metadata !DIExpression()), !dbg !2449
  %_4.i.i56.i = invoke noundef i32 @close(i32 noundef %5)
          to label %bb3 unwind label %terminate.i, !dbg !2451, !noalias !2422

terminate.i:                                      ; preds = %cleanup.i
  %8 = landingpad { ptr, i32 }
          filter [0 x ptr] zeroinitializer
; call core::panicking::panic_in_cleanup
  tail call void @_ZN4core9panicking16panic_in_cleanup17h43442956f23e9cbeE() #21, !dbg !2433, !noalias !2422
  unreachable, !dbg !2433

bb3:                                              ; preds = %cleanup2, %cleanup.i, %bb4
  %.pn4 = phi { ptr, i32 } [ %.pn, %bb4 ], [ %11, %cleanup2 ], [ %7, %cleanup.i ]
  %9 = getelementptr inbounds i8, ptr %_1, i64 12, !dbg !2389
  %.val = load i32, ptr %9, align 4, !dbg !2389, !noundef !14
  call void @llvm.dbg.value(metadata ptr undef, metadata !2452, metadata !DIExpression()), !dbg !2458
  %10 = icmp eq i32 %.val, -1, !dbg !2460
  br i1 %10, label %bb1, label %bb2.i12, !dbg !2460

bb2.i12:                                          ; preds = %bb3
  call void @llvm.dbg.value(metadata ptr undef, metadata !2390, metadata !DIExpression()), !dbg !2461
  call void @llvm.dbg.value(metadata ptr undef, metadata !2402, metadata !DIExpression()), !dbg !2463
  %_4.i.i.i14 = invoke noundef i32 @close(i32 noundef %.val)
          to label %bb1 unwind label %terminate, !dbg !2465

cleanup2:                                         ; preds = %bb2.i
  %11 = landingpad { ptr, i32 }
          cleanup
  br label %bb3

bb6:                                              ; preds = %bb2.i
  %12 = getelementptr inbounds i8, ptr %_1, i64 12, !dbg !2389
  %.val6 = load i32, ptr %12, align 4, !dbg !2389, !noundef !14
  call void @llvm.dbg.value(metadata ptr undef, metadata !2452, metadata !DIExpression()), !dbg !2466
  %13 = icmp eq i32 %.val6, -1, !dbg !2468
  br i1 %13, label %"_ZN4core3ptr76drop_in_place$LT$core..option..Option$LT$std..os..fd..owned..OwnedFd$GT$$GT$17h24cc50681f81ef2bE.exit17", label %bb2.i15, !dbg !2468

bb2.i15:                                          ; preds = %bb6
  call void @llvm.dbg.value(metadata ptr undef, metadata !2390, metadata !DIExpression()), !dbg !2469
  call void @llvm.dbg.value(metadata ptr undef, metadata !2402, metadata !DIExpression()), !dbg !2471
  %_4.i.i.i = tail call noundef i32 @close(i32 noundef %.val6), !dbg !2473, !noalias !2474
  br label %"_ZN4core3ptr76drop_in_place$LT$core..option..Option$LT$std..os..fd..owned..OwnedFd$GT$$GT$17h24cc50681f81ef2bE.exit17", !dbg !2468

"_ZN4core3ptr76drop_in_place$LT$core..option..Option$LT$std..os..fd..owned..OwnedFd$GT$$GT$17h24cc50681f81ef2bE.exit17": ; preds = %bb6, %bb2.i15
  ret void, !dbg !2389

terminate:                                        ; preds = %bb2.i12, %cleanup, %bb4
  %14 = landingpad { ptr, i32 }
          filter [0 x ptr] zeroinitializer
; call core::panicking::panic_in_cleanup
  tail call void @_ZN4core9panicking16panic_in_cleanup17h43442956f23e9cbeE() #21, !dbg !2389
  unreachable, !dbg !2389

bb1:                                              ; preds = %bb3, %bb2.i12
  resume { ptr, i32 } %.pn4, !dbg !2389
}

; core::ptr::drop_in_place<polling::epoll::Notifier>
; Function Attrs: nonlazybind uwtable
define internal void @"_ZN4core3ptr45drop_in_place$LT$polling..epoll..Notifier$GT$17h4ddb63129a88edfcE"(ptr noalias nocapture noundef readonly align 4 dereferenceable(8) %_1) unnamed_addr #2 personality ptr @rust_eh_personality !dbg !2426 {
start:
  tail call void @llvm.dbg.value(metadata ptr %_1, metadata !2425, metadata !DIExpression()), !dbg !2477
  %0 = getelementptr inbounds i8, ptr %_1, i64 4, !dbg !2478
  %1 = load i32, ptr %0, align 4, !dbg !2478, !noundef !14
  %2 = icmp eq i32 %1, -1, !dbg !2478
  call void @llvm.dbg.value(metadata ptr %_1, metadata !2390, metadata !DIExpression()), !dbg !2479
  call void @llvm.dbg.value(metadata ptr %_1, metadata !2390, metadata !DIExpression()), !dbg !2481
  %_1.val.i = load i32, ptr %_1, align 4, !dbg !2483, !noundef !14
  call void @llvm.dbg.value(metadata ptr undef, metadata !2402, metadata !DIExpression()), !dbg !2484
  call void @llvm.dbg.value(metadata ptr undef, metadata !2402, metadata !DIExpression()), !dbg !2486
  br i1 %2, label %bb2, label %bb6, !dbg !2478

bb6:                                              ; preds = %start
  %_4.i.i23 = invoke noundef i32 @close(i32 noundef %_1.val.i)
          to label %bb2 unwind label %cleanup, !dbg !2488

bb2:                                              ; preds = %start, %bb6
  %.sink = phi i32 [ %1, %bb6 ], [ %_1.val.i, %start ]
  %_4.i.i9 = tail call noundef i32 @close(i32 noundef %.sink), !dbg !2489, !noalias !14
  ret void, !dbg !2478

cleanup:                                          ; preds = %bb6
  %3 = landingpad { ptr, i32 }
          cleanup
  call void @llvm.dbg.value(metadata ptr %0, metadata !2390, metadata !DIExpression()), !dbg !2490
  call void @llvm.dbg.value(metadata ptr undef, metadata !2402, metadata !DIExpression()), !dbg !2492
  %_4.i.i56 = invoke noundef i32 @close(i32 noundef %1)
          to label %bb1 unwind label %terminate, !dbg !2494

terminate:                                        ; preds = %cleanup
  %4 = landingpad { ptr, i32 }
          filter [0 x ptr] zeroinitializer
; call core::panicking::panic_in_cleanup
  tail call void @_ZN4core9panicking16panic_in_cleanup17h43442956f23e9cbeE() #21, !dbg !2478
  unreachable, !dbg !2478

bb1:                                              ; preds = %cleanup
  resume { ptr, i32 } %3, !dbg !2478
}

; core::ptr::drop_in_place<std::os::fd::owned::OwnedFd>
; Function Attrs: nonlazybind uwtable
define internal void @"_ZN4core3ptr48drop_in_place$LT$std..os..fd..owned..OwnedFd$GT$17h112a5a7820aa4dc4E"(ptr noalias nocapture noundef readonly align 4 dereferenceable(4) %_1) unnamed_addr #2 !dbg !2391 {
start:
  tail call void @llvm.dbg.value(metadata ptr %_1, metadata !2390, metadata !DIExpression()), !dbg !2495
  %_1.val = load i32, ptr %_1, align 4, !dbg !2496, !noundef !14
  call void @llvm.dbg.value(metadata ptr undef, metadata !2402, metadata !DIExpression()), !dbg !2497
  %_4.i = tail call noundef i32 @close(i32 noundef %_1.val), !dbg !2499
  ret void, !dbg !2496
}

; core::ptr::drop_in_place<std::sync::mutex::MutexGuard<()>>
; Function Attrs: nonlazybind uwtable
define internal fastcc void @"_ZN4core3ptr65drop_in_place$LT$std..sync..mutex..MutexGuard$LT$$LP$$RP$$GT$$GT$17hdc2f2785b9b50ed0E"(ptr %_1.0.val, i8 %_1.8.val) unnamed_addr #2 !dbg !1315 {
start:
  tail call void @llvm.dbg.value(metadata ptr undef, metadata !1314, metadata !DIExpression()), !dbg !2500
  call void @llvm.dbg.value(metadata i32 0, metadata !1322, metadata !DIExpression()), !dbg !2501
  call void @llvm.dbg.value(metadata i8 1, metadata !1332, metadata !DIExpression()), !dbg !2501
  call void @llvm.dbg.value(metadata i32 0, metadata !1354, metadata !DIExpression()), !dbg !2505
  call void @llvm.dbg.value(metadata i8 1, metadata !1362, metadata !DIExpression()), !dbg !2505
  call void @llvm.dbg.value(metadata ptr undef, metadata !1352, metadata !DIExpression()), !dbg !2507
  %0 = icmp ne ptr %_1.0.val, null
  tail call void @llvm.assume(i1 %0)
  %_3.i = getelementptr inbounds i8, ptr %_1.0.val, i64 4, !dbg !2508
  call void @llvm.dbg.value(metadata ptr @_ZN3std9panicking11panic_count18GLOBAL_PANIC_COUNT17h00e7dcd913cdfbe0E, metadata !1367, metadata !DIExpression()), !dbg !2509
  call void @llvm.dbg.value(metadata i8 0, metadata !1381, metadata !DIExpression()), !dbg !2509
  call void @llvm.dbg.value(metadata i8 1, metadata !1411, metadata !DIExpression()), !dbg !2515
  call void @llvm.dbg.value(metadata i8 0, metadata !1420, metadata !DIExpression()), !dbg !2515
  call void @llvm.dbg.value(metadata ptr %_3.i, metadata !1408, metadata !DIExpression()), !dbg !2517
  call void @llvm.dbg.value(metadata ptr undef, metadata !1409, metadata !DIExpression()), !dbg !2517
  %_3.not.i.i = icmp eq i8 %_1.8.val, 0, !dbg !2518
  br i1 %_3.not.i.i, label %bb1.i.i, label %_ZN3std4sync6poison4Flag4done17h6b62417d8d60c5ceE.exit.i, !dbg !2518

bb1.i.i:                                          ; preds = %start
  call void @llvm.dbg.value(metadata i8 0, metadata !1425, metadata !DIExpression()), !dbg !2519
  call void @llvm.dbg.value(metadata ptr @_ZN3std9panicking11panic_count18GLOBAL_PANIC_COUNT17h00e7dcd913cdfbe0E, metadata !1431, metadata !DIExpression()), !dbg !2519
  %1 = load atomic i64, ptr @_ZN3std9panicking11panic_count18GLOBAL_PANIC_COUNT17h00e7dcd913cdfbe0E monotonic, align 8, !dbg !2521, !noalias !2522
  %_7.i.i = and i64 %1, 9223372036854775807, !dbg !2525
  %2 = icmp eq i64 %_7.i.i, 0, !dbg !2525
  br i1 %2, label %_ZN3std4sync6poison4Flag4done17h6b62417d8d60c5ceE.exit.i, label %bb6.i.i, !dbg !2525

bb6.i.i:                                          ; preds = %bb1.i.i
; call std::panicking::panic_count::is_zero_slow_path
  %_6.i.i = tail call noundef zeroext i1 @_ZN3std9panicking11panic_count17is_zero_slow_path17h24de30857bbd803cE(), !dbg !2526, !noalias !2522
  br i1 %_6.i.i, label %_ZN3std4sync6poison4Flag4done17h6b62417d8d60c5ceE.exit.i, label %bb2.i.i, !dbg !2527

bb2.i.i:                                          ; preds = %bb6.i.i
  call void @llvm.dbg.value(metadata ptr %_3.i, metadata !1419, metadata !DIExpression()), !dbg !2515
  call void @llvm.dbg.value(metadata i8 0, metadata !1441, metadata !DIExpression()), !dbg !2528
  call void @llvm.dbg.value(metadata ptr %_3.i, metadata !1447, metadata !DIExpression()), !dbg !2528
  call void @llvm.dbg.value(metadata i8 1, metadata !1448, metadata !DIExpression()), !dbg !2528
  store atomic i8 1, ptr %_3.i monotonic, align 1, !dbg !2530, !noalias !2522
  br label %_ZN3std4sync6poison4Flag4done17h6b62417d8d60c5ceE.exit.i, !dbg !2531

_ZN3std4sync6poison4Flag4done17h6b62417d8d60c5ceE.exit.i: ; preds = %bb2.i.i, %bb6.i.i, %bb1.i.i, %start
  call void @llvm.dbg.value(metadata ptr %_1.0.val, metadata !1343, metadata !DIExpression()), !dbg !2532
  call void @llvm.dbg.value(metadata ptr %_1.0.val, metadata !1331, metadata !DIExpression()), !dbg !2501
  call void @llvm.dbg.value(metadata ptr %_1.0.val, metadata !1361, metadata !DIExpression()), !dbg !2505
  %3 = atomicrmw xchg ptr %_1.0.val, i32 0 release, align 4, !dbg !2533, !noalias !2522
  %_8.i = icmp eq i32 %3, 2, !dbg !2534
  br i1 %_8.i, label %bb2.i, label %"_ZN79_$LT$std..sync..mutex..MutexGuard$LT$T$GT$$u20$as$u20$core..ops..drop..Drop$GT$4drop17h9cb31cd231383dd6E.exit", !dbg !2534

bb2.i:                                            ; preds = %_ZN3std4sync6poison4Flag4done17h6b62417d8d60c5ceE.exit.i
; call std::sys::sync::mutex::futex::Mutex::wake
  tail call void @_ZN3std3sys4sync5mutex5futex5Mutex4wake17hc487312157454c34E(ptr noundef nonnull align 4 %_1.0.val), !dbg !2535, !noalias !2522
  br label %"_ZN79_$LT$std..sync..mutex..MutexGuard$LT$T$GT$$u20$as$u20$core..ops..drop..Drop$GT$4drop17h9cb31cd231383dd6E.exit", !dbg !2535

"_ZN79_$LT$std..sync..mutex..MutexGuard$LT$T$GT$$u20$as$u20$core..ops..drop..Drop$GT$4drop17h9cb31cd231383dd6E.exit": ; preds = %_ZN3std4sync6poison4Flag4done17h6b62417d8d60c5ceE.exit.i, %bb2.i
  ret void, !dbg !2536
}

; core::ptr::drop_in_place<core::option::Option<tracing::span::Inner>>
; Function Attrs: nonlazybind uwtable
define internal fastcc void @"_ZN4core3ptr69drop_in_place$LT$core..option..Option$LT$tracing..span..Inner$GT$$GT$17h4689cab8b5dc9053E"(ptr noalias nocapture noundef readonly align 8 dereferenceable(32) %_1) unnamed_addr #2 !dbg !1681 {
start:
  tail call void @llvm.dbg.value(metadata ptr %_1, metadata !1680, metadata !DIExpression()), !dbg !2537
  %0 = load i64, ptr %_1, align 8, !dbg !2538, !range !1647, !noundef !14
  %1 = icmp eq i64 %0, 2, !dbg !2538
  br i1 %1, label %bb1, label %bb2, !dbg !2538

bb1:                                              ; preds = %bb2.i.i.i.i.i, %bb2.i.i.i, %bb2, %start
  ret void, !dbg !2538

bb2:                                              ; preds = %start
  tail call void @llvm.experimental.noalias.scope.decl(metadata !2539), !dbg !2538
  call void @llvm.dbg.value(metadata ptr %_1, metadata !1694, metadata !DIExpression()), !dbg !2542
  tail call void @llvm.experimental.noalias.scope.decl(metadata !2544), !dbg !2547
  call void @llvm.dbg.value(metadata ptr %_1, metadata !1706, metadata !DIExpression()), !dbg !2548
  tail call void @llvm.experimental.noalias.scope.decl(metadata !2550), !dbg !2553
  call void @llvm.dbg.value(metadata ptr %_1, metadata !1720, metadata !DIExpression()), !dbg !2554
  %2 = icmp eq i64 %0, 0, !dbg !2556
  br i1 %2, label %bb1, label %bb2.i.i.i, !dbg !2556

bb2.i.i.i:                                        ; preds = %bb2
  %3 = getelementptr inbounds i8, ptr %_1, i64 8, !dbg !2556
  tail call void @llvm.experimental.noalias.scope.decl(metadata !2557), !dbg !2556
  call void @llvm.dbg.value(metadata ptr %3, metadata !1734, metadata !DIExpression()), !dbg !2560
  tail call void @llvm.experimental.noalias.scope.decl(metadata !2562), !dbg !2565
  call void @llvm.dbg.value(metadata i64 1, metadata !1746, metadata !DIExpression()), !dbg !2566
  call void @llvm.dbg.value(metadata i8 1, metadata !1754, metadata !DIExpression()), !dbg !2566
  call void @llvm.dbg.value(metadata i64 1, metadata !1766, metadata !DIExpression()), !dbg !2569
  call void @llvm.dbg.value(metadata i8 1, metadata !1774, metadata !DIExpression()), !dbg !2569
  call void @llvm.dbg.value(metadata i8 2, metadata !1777, metadata !DIExpression()), !dbg !2571
  call void @llvm.dbg.value(metadata ptr %3, metadata !1764, metadata !DIExpression()), !dbg !2573
  call void @llvm.dbg.value(metadata ptr %3, metadata !1786, metadata !DIExpression()), !dbg !2574
  call void @llvm.dbg.value(metadata ptr %3, metadata !1800, metadata !DIExpression()), !dbg !2576
  %self.0.i.i.i.i.i = load ptr, ptr %3, align 8, !dbg !2578, !alias.scope !2579, !nonnull !14, !noundef !14
  call void @llvm.dbg.value(metadata ptr %self.0.i.i.i.i.i, metadata !1753, metadata !DIExpression()), !dbg !2566
  call void @llvm.dbg.value(metadata ptr %self.0.i.i.i.i.i, metadata !1773, metadata !DIExpression()), !dbg !2569
  %4 = atomicrmw sub ptr %self.0.i.i.i.i.i, i64 1 release, align 8, !dbg !2580, !noalias !2579
  %5 = icmp eq i64 %4, 1, !dbg !2581
  br i1 %5, label %bb2.i.i.i.i.i, label %bb1, !dbg !2581

bb2.i.i.i.i.i:                                    ; preds = %bb2.i.i.i
  fence acquire, !dbg !2582
; call alloc::sync::Arc<T,A>::drop_slow
  tail call fastcc void @"_ZN5alloc4sync16Arc$LT$T$C$A$GT$9drop_slow17he19ee5bb64486b67E"(ptr noalias noundef nonnull align 8 dereferenceable(16) %3), !dbg !2583
  br label %bb1, !dbg !2583
}

; core::panicking::assert_failed
; Function Attrs: cold noinline noreturn nonlazybind uwtable
define internal fastcc void @_ZN4core9panicking13assert_failed17h00ca91c24782b13eE(ptr noalias noundef readonly align 4 dereferenceable(4) %0, ptr noalias nocapture noundef readonly align 8 dereferenceable(48) %args) unnamed_addr #3 !dbg !2584 {
start:
  %right = alloca [8 x i8], align 8
  %left = alloca [8 x i8], align 8
  store ptr %0, ptr %left, align 8
  store ptr @alloc_47c8330ffe7a09bc00d165d03facdeb6, ptr %right, align 8
  tail call void @llvm.dbg.value(metadata i8 1, metadata !2602, metadata !DIExpression()), !dbg !2608
  call void @llvm.dbg.declare(metadata ptr %left, metadata !2603, metadata !DIExpression()), !dbg !2609
  call void @llvm.dbg.declare(metadata ptr %right, metadata !2604, metadata !DIExpression()), !dbg !2610
  call void @llvm.dbg.declare(metadata ptr %args, metadata !2605, metadata !DIExpression()), !dbg !2611
; call core::panicking::assert_failed_inner
  call void @_ZN4core9panicking19assert_failed_inner17h1275fc7deb7ee94bE(i8 noundef 1, ptr noundef nonnull align 1 %left, ptr noalias noundef nonnull readonly align 8 dereferenceable(32) @vtable.0, ptr noundef nonnull align 1 %right, ptr noalias noundef nonnull readonly align 8 dereferenceable(32) @vtable.0, ptr noalias nocapture noundef nonnull readonly align 8 dereferenceable(48) %args, ptr noalias noundef nonnull readonly align 8 dereferenceable(24) @alloc_da0820939ff558a45ac6d46c38a142a7) #23, !dbg !2612
  unreachable, !dbg !2612
}

; alloc::sync::Arc<T,A>::drop_slow
; Function Attrs: noinline nonlazybind uwtable
define internal fastcc void @"_ZN5alloc4sync16Arc$LT$T$C$A$GT$9drop_slow17he19ee5bb64486b67E"(ptr noalias nocapture noundef readonly align 8 dereferenceable(16) %self) unnamed_addr #4 !dbg !2613 {
start:
  tail call void @llvm.dbg.value(metadata ptr %self, metadata !2616, metadata !DIExpression()), !dbg !2617
  tail call void @llvm.dbg.value(metadata ptr %self, metadata !2618, metadata !DIExpression()), !dbg !2629
  %self.0 = load ptr, ptr %self, align 8, !dbg !2631, !nonnull !14, !noundef !14
  %0 = getelementptr inbounds i8, ptr %self, i64 8, !dbg !2631
  %self.1 = load ptr, ptr %0, align 8, !dbg !2631, !nonnull !14, !align !1068, !noundef !14
  %1 = getelementptr inbounds i8, ptr %self.1, i64 16, !dbg !2630
  %2 = load i64, ptr %1, align 8, !dbg !2630, !range !1671, !invariant.load !14
  %self.1.val = load ptr, ptr %self.1, align 8, !dbg !2632
  call void @llvm.dbg.value(metadata !DIArgList(ptr %self.0, i64 %2), metadata !2633, metadata !DIExpression(DW_OP_LLVM_arg, 0, DW_OP_LLVM_arg, 1, DW_OP_constu, 1, DW_OP_minus, DW_OP_constu, 18446744073709551600, DW_OP_and, DW_OP_constu, 1, DW_OP_mul, DW_OP_plus, DW_OP_plus_uconst, 16, DW_OP_stack_value, DW_OP_LLVM_fragment, 0, 64)), !dbg !2642
  call void @llvm.dbg.value(metadata ptr undef, metadata !2633, metadata !DIExpression(DW_OP_LLVM_fragment, 64, 64)), !dbg !2642
  %.not.i = icmp eq ptr %self.1.val, null, !dbg !2644
  br i1 %.not.i, label %"_ZN4core3ptr111drop_in_place$LT$dyn$u20$tracing_core..subscriber..Subscriber$u2b$core..marker..Send$u2b$core..marker..Sync$GT$17ha4e97ba488392296E.exit", label %is_not_null.i, !dbg !2644

is_not_null.i:                                    ; preds = %start
  %3 = add i64 %2, -1, !dbg !2630
  call void @llvm.dbg.value(metadata !DIArgList(ptr %self.0, i64 %3), metadata !2633, metadata !DIExpression(DW_OP_LLVM_arg, 0, DW_OP_LLVM_arg, 1, DW_OP_constu, 18446744073709551600, DW_OP_and, DW_OP_constu, 1, DW_OP_mul, DW_OP_plus, DW_OP_plus_uconst, 16, DW_OP_stack_value, DW_OP_LLVM_fragment, 0, 64)), !dbg !2642
  %4 = and i64 %3, -16, !dbg !2630
  call void @llvm.dbg.value(metadata !DIArgList(ptr %self.0, i64 %4), metadata !2633, metadata !DIExpression(DW_OP_LLVM_arg, 0, DW_OP_LLVM_arg, 1, DW_OP_constu, 1, DW_OP_mul, DW_OP_plus, DW_OP_plus_uconst, 16, DW_OP_stack_value, DW_OP_LLVM_fragment, 0, 64)), !dbg !2642
  %5 = getelementptr i8, ptr %self.0, i64 %4, !dbg !2630
  call void @llvm.dbg.value(metadata ptr %5, metadata !2633, metadata !DIExpression(DW_OP_plus_uconst, 16, DW_OP_stack_value, DW_OP_LLVM_fragment, 0, 64)), !dbg !2642
  %_3.0 = getelementptr i8, ptr %5, i64 16, !dbg !2630
  call void @llvm.dbg.value(metadata ptr %_3.0, metadata !2633, metadata !DIExpression(DW_OP_LLVM_fragment, 0, 64)), !dbg !2642
  tail call void %self.1.val(ptr noundef nonnull align 1 %_3.0), !dbg !2644
  br label %"_ZN4core3ptr111drop_in_place$LT$dyn$u20$tracing_core..subscriber..Subscriber$u2b$core..marker..Send$u2b$core..marker..Sync$GT$17ha4e97ba488392296E.exit", !dbg !2644

"_ZN4core3ptr111drop_in_place$LT$dyn$u20$tracing_core..subscriber..Subscriber$u2b$core..marker..Send$u2b$core..marker..Sync$GT$17ha4e97ba488392296E.exit": ; preds = %start, %is_not_null.i
  tail call void @llvm.dbg.value(metadata ptr %self.0, metadata !2645, metadata !DIExpression(DW_OP_LLVM_fragment, 0, 64)), !dbg !2659
  tail call void @llvm.dbg.value(metadata ptr %self.1, metadata !2645, metadata !DIExpression(DW_OP_LLVM_fragment, 64, 64)), !dbg !2659
  tail call void @llvm.dbg.value(metadata ptr %self, metadata !2645, metadata !DIExpression(DW_OP_plus_uconst, 16, DW_OP_stack_value, DW_OP_LLVM_fragment, 128, 64)), !dbg !2659
  call void @llvm.dbg.value(metadata ptr undef, metadata !2661, metadata !DIExpression()), !dbg !2667
  call void @llvm.dbg.value(metadata i64 1, metadata !2669, metadata !DIExpression()), !dbg !2675
  call void @llvm.dbg.value(metadata i8 1, metadata !2674, metadata !DIExpression()), !dbg !2675
  call void @llvm.dbg.value(metadata i64 1, metadata !2693, metadata !DIExpression()), !dbg !2699
  call void @llvm.dbg.value(metadata i8 1, metadata !2698, metadata !DIExpression()), !dbg !2699
  call void @llvm.dbg.value(metadata i8 2, metadata !2701, metadata !DIExpression()), !dbg !2705
  call void @llvm.dbg.value(metadata ptr undef, metadata !2684, metadata !DIExpression()), !dbg !2707
  call void @llvm.dbg.value(metadata ptr undef, metadata !2708, metadata !DIExpression()), !dbg !2735
  call void @llvm.dbg.value(metadata ptr %self.0, metadata !2737, metadata !DIExpression(DW_OP_LLVM_fragment, 0, 64)), !dbg !2745
  call void @llvm.dbg.value(metadata ptr poison, metadata !2737, metadata !DIExpression(DW_OP_LLVM_fragment, 64, 64)), !dbg !2745
  call void @llvm.dbg.value(metadata ptr %self.0, metadata !2729, metadata !DIExpression(DW_OP_LLVM_fragment, 0, 64)), !dbg !2747
  call void @llvm.dbg.value(metadata ptr poison, metadata !2729, metadata !DIExpression(DW_OP_LLVM_fragment, 64, 64)), !dbg !2747
  %_15.i.i = icmp eq ptr %self.0, inttoptr (i64 -1 to ptr), !dbg !2748
  br i1 %_15.i.i, label %"_ZN4core3ptr163drop_in_place$LT$alloc..sync..Weak$LT$dyn$u20$tracing_core..subscriber..Subscriber$u2b$core..marker..Send$u2b$core..marker..Sync$C$$RF$alloc..alloc..Global$GT$$GT$17hc2cdd49cfbfc75beE.exit", label %bb7.i.i, !dbg !2749

bb7.i.i:                                          ; preds = %"_ZN4core3ptr111drop_in_place$LT$dyn$u20$tracing_core..subscriber..Subscriber$u2b$core..marker..Send$u2b$core..marker..Sync$GT$17ha4e97ba488392296E.exit"
  %_18.i.i = getelementptr inbounds i8, ptr %self.0, i64 8, !dbg !2750
  call void @llvm.dbg.value(metadata ptr %_18.i.i, metadata !2685, metadata !DIExpression(DW_OP_LLVM_fragment, 0, 64)), !dbg !2751
  call void @llvm.dbg.value(metadata ptr %_18.i.i, metadata !2690, metadata !DIExpression(DW_OP_LLVM_fragment, 0, 64)), !dbg !2752
  call void @llvm.dbg.value(metadata ptr %_18.i.i, metadata !2673, metadata !DIExpression()), !dbg !2675
  call void @llvm.dbg.value(metadata ptr %self.0, metadata !2685, metadata !DIExpression(DW_OP_LLVM_fragment, 64, 64)), !dbg !2751
  call void @llvm.dbg.value(metadata ptr %self.0, metadata !2690, metadata !DIExpression(DW_OP_LLVM_fragment, 64, 64)), !dbg !2752
  call void @llvm.dbg.value(metadata ptr %_18.i.i, metadata !2697, metadata !DIExpression()), !dbg !2699
  %6 = atomicrmw sub ptr %_18.i.i, i64 1 release, align 8, !dbg !2753, !noalias !2754
  %7 = icmp eq i64 %6, 1, !dbg !2759
  br i1 %7, label %bb1.i.i, label %"_ZN4core3ptr163drop_in_place$LT$alloc..sync..Weak$LT$dyn$u20$tracing_core..subscriber..Subscriber$u2b$core..marker..Send$u2b$core..marker..Sync$C$$RF$alloc..alloc..Global$GT$$GT$17hc2cdd49cfbfc75beE.exit", !dbg !2759

bb1.i.i:                                          ; preds = %bb7.i.i
  fence acquire, !dbg !2760
  call void @llvm.dbg.value(metadata ptr poison, metadata !2761, metadata !DIExpression(DW_OP_LLVM_fragment, 0, 64)), !dbg !2771
  call void @llvm.dbg.value(metadata ptr poison, metadata !2773, metadata !DIExpression(DW_OP_LLVM_fragment, 0, 64)), !dbg !2779
  call void @llvm.dbg.value(metadata ptr %self.1, metadata !2761, metadata !DIExpression(DW_OP_LLVM_fragment, 64, 64)), !dbg !2771
  call void @llvm.dbg.value(metadata ptr %self.1, metadata !2773, metadata !DIExpression(DW_OP_LLVM_fragment, 64, 64)), !dbg !2779
  %8 = getelementptr inbounds i8, ptr %self.1, i64 8, !dbg !2781
  %9 = load i64, ptr %8, align 8, !dbg !2781, !range !2257, !invariant.load !14, !noalias !2754
  %10 = tail call i64 @llvm.umax.i64(i64 %2, i64 8), !dbg !2781
  %11 = add nuw i64 %10, 15, !dbg !2781
  %12 = add i64 %11, %9, !dbg !2781
  %13 = sub i64 0, %10, !dbg !2781
  %14 = and i64 %12, %13, !dbg !2781
  call void @llvm.dbg.value(metadata i64 %14, metadata !2768, metadata !DIExpression()), !dbg !2782
  call void @llvm.dbg.value(metadata i64 %14, metadata !2783, metadata !DIExpression()), !dbg !2788
  call void @llvm.dbg.value(metadata i64 %10, metadata !2770, metadata !DIExpression()), !dbg !2782
  call void @llvm.dbg.value(metadata i64 %10, metadata !2787, metadata !DIExpression()), !dbg !2788
  call void @llvm.dbg.value(metadata i64 %10, metadata !2790, metadata !DIExpression()), !dbg !2794
  %15 = icmp ult i64 %2, -9223372036854775807, !dbg !2796
  tail call void @llvm.assume(i1 %15), !dbg !2796
  call void @llvm.dbg.value(metadata ptr undef, metadata !2797, metadata !DIExpression()), !dbg !2808
  call void @llvm.dbg.value(metadata ptr %self.0, metadata !2805, metadata !DIExpression()), !dbg !2808
  call void @llvm.dbg.value(metadata i64 %10, metadata !2806, metadata !DIExpression(DW_OP_LLVM_fragment, 0, 64)), !dbg !2808
  call void @llvm.dbg.value(metadata i64 %14, metadata !2806, metadata !DIExpression(DW_OP_LLVM_fragment, 64, 64)), !dbg !2808
  call void @llvm.dbg.value(metadata i64 %10, metadata !2283, metadata !DIExpression(DW_OP_LLVM_fragment, 0, 64)), !dbg !2810
  call void @llvm.dbg.value(metadata i64 %14, metadata !2283, metadata !DIExpression(DW_OP_LLVM_fragment, 64, 64)), !dbg !2810
  call void @llvm.dbg.value(metadata ptr undef, metadata !2295, metadata !DIExpression()), !dbg !2810
  call void @llvm.dbg.value(metadata ptr %self.0, metadata !2296, metadata !DIExpression()), !dbg !2810
  %16 = icmp eq i64 %14, 0, !dbg !2812
  br i1 %16, label %"_ZN4core3ptr163drop_in_place$LT$alloc..sync..Weak$LT$dyn$u20$tracing_core..subscriber..Subscriber$u2b$core..marker..Send$u2b$core..marker..Sync$C$$RF$alloc..alloc..Global$GT$$GT$17hc2cdd49cfbfc75beE.exit", label %bb1.i.i.i.i, !dbg !2812

bb1.i.i.i.i:                                      ; preds = %bb1.i.i
  call void @llvm.dbg.value(metadata ptr %self.0, metadata !2299, metadata !DIExpression()), !dbg !2813
  call void @llvm.dbg.value(metadata i64 %10, metadata !2305, metadata !DIExpression(DW_OP_LLVM_fragment, 0, 64)), !dbg !2813
  call void @llvm.dbg.value(metadata i64 %14, metadata !2305, metadata !DIExpression(DW_OP_LLVM_fragment, 64, 64)), !dbg !2813
  tail call void @__rust_dealloc(ptr noundef nonnull %self.0, i64 noundef %14, i64 noundef %10) #22, !dbg !2815, !noalias !2754
  br label %"_ZN4core3ptr163drop_in_place$LT$alloc..sync..Weak$LT$dyn$u20$tracing_core..subscriber..Subscriber$u2b$core..marker..Send$u2b$core..marker..Sync$C$$RF$alloc..alloc..Global$GT$$GT$17hc2cdd49cfbfc75beE.exit", !dbg !2816

"_ZN4core3ptr163drop_in_place$LT$alloc..sync..Weak$LT$dyn$u20$tracing_core..subscriber..Subscriber$u2b$core..marker..Send$u2b$core..marker..Sync$C$$RF$alloc..alloc..Global$GT$$GT$17hc2cdd49cfbfc75beE.exit": ; preds = %"_ZN4core3ptr111drop_in_place$LT$dyn$u20$tracing_core..subscriber..Subscriber$u2b$core..marker..Send$u2b$core..marker..Sync$GT$17ha4e97ba488392296E.exit", %bb7.i.i, %bb1.i.i, %bb1.i.i.i.i
  ret void, !dbg !2817
}

; <tracing_core::field::DebugValue<T> as tracing_core::field::Value>::record
; Function Attrs: nonlazybind uwtable
define internal void @"_ZN87_$LT$tracing_core..field..DebugValue$LT$T$GT$$u20$as$u20$tracing_core..field..Value$GT$6record17h206e5b040e0807a3E"(ptr noalias noundef readonly align 8 dereferenceable(8) %self, ptr noalias noundef readonly align 8 dereferenceable(40) %key, ptr noundef nonnull align 1 %visitor.0, ptr noalias nocapture noundef readonly align 8 dereferenceable(88) %visitor.1) unnamed_addr #2 !dbg !2818 {
start:
  tail call void @llvm.dbg.value(metadata ptr %self, metadata !2840, metadata !DIExpression()), !dbg !2843
  tail call void @llvm.dbg.value(metadata ptr %key, metadata !2841, metadata !DIExpression()), !dbg !2843
  tail call void @llvm.dbg.value(metadata ptr %visitor.0, metadata !2842, metadata !DIExpression(DW_OP_LLVM_fragment, 0, 64)), !dbg !2843
  tail call void @llvm.dbg.value(metadata ptr %visitor.1, metadata !2842, metadata !DIExpression(DW_OP_LLVM_fragment, 64, 64)), !dbg !2843
  %0 = getelementptr inbounds i8, ptr %visitor.1, i64 80, !dbg !2844
  %1 = load ptr, ptr %0, align 8, !dbg !2844, !invariant.load !14, !nonnull !14
  tail call void %1(ptr noundef nonnull align 1 %visitor.0, ptr noalias noundef nonnull readonly align 8 dereferenceable(40) %key, ptr noundef nonnull align 1 %self, ptr noalias noundef nonnull readonly align 8 dereferenceable(32) @vtable.4), !dbg !2844
  ret void, !dbg !2845
}

; <tracing_core::field::DebugValue<T> as tracing_core::field::Value>::record
; Function Attrs: nonlazybind uwtable
define internal void @"_ZN87_$LT$tracing_core..field..DebugValue$LT$T$GT$$u20$as$u20$tracing_core..field..Value$GT$6record17h501a71c08ecd72deE"(ptr noalias noundef readonly align 8 dereferenceable(8) %self, ptr noalias noundef readonly align 8 dereferenceable(40) %key, ptr noundef nonnull align 1 %visitor.0, ptr noalias nocapture noundef readonly align 8 dereferenceable(88) %visitor.1) unnamed_addr #2 !dbg !2846 {
start:
  tail call void @llvm.dbg.value(metadata ptr %self, metadata !2851, metadata !DIExpression()), !dbg !2854
  tail call void @llvm.dbg.value(metadata ptr %key, metadata !2852, metadata !DIExpression()), !dbg !2854
  tail call void @llvm.dbg.value(metadata ptr %visitor.0, metadata !2853, metadata !DIExpression(DW_OP_LLVM_fragment, 0, 64)), !dbg !2854
  tail call void @llvm.dbg.value(metadata ptr %visitor.1, metadata !2853, metadata !DIExpression(DW_OP_LLVM_fragment, 64, 64)), !dbg !2854
  %0 = getelementptr inbounds i8, ptr %visitor.1, i64 80, !dbg !2855
  %1 = load ptr, ptr %0, align 8, !dbg !2855, !invariant.load !14, !nonnull !14
  tail call void %1(ptr noundef nonnull align 1 %visitor.0, ptr noalias noundef nonnull readonly align 8 dereferenceable(40) %key, ptr noundef nonnull align 1 %self, ptr noalias noundef nonnull readonly align 8 dereferenceable(32) @vtable.0), !dbg !2855
  ret void, !dbg !2856
}

; <tracing_core::field::DebugValue<T> as tracing_core::field::Value>::record
; Function Attrs: nonlazybind uwtable
define internal void @"_ZN87_$LT$tracing_core..field..DebugValue$LT$T$GT$$u20$as$u20$tracing_core..field..Value$GT$6record17h516ac35d922b4f59E"(ptr noalias noundef readonly align 8 dereferenceable(8) %self, ptr noalias noundef readonly align 8 dereferenceable(40) %key, ptr noundef nonnull align 1 %visitor.0, ptr noalias nocapture noundef readonly align 8 dereferenceable(88) %visitor.1) unnamed_addr #2 !dbg !2857 {
start:
  tail call void @llvm.dbg.value(metadata ptr %self, metadata !2862, metadata !DIExpression()), !dbg !2865
  tail call void @llvm.dbg.value(metadata ptr %key, metadata !2863, metadata !DIExpression()), !dbg !2865
  tail call void @llvm.dbg.value(metadata ptr %visitor.0, metadata !2864, metadata !DIExpression(DW_OP_LLVM_fragment, 0, 64)), !dbg !2865
  tail call void @llvm.dbg.value(metadata ptr %visitor.1, metadata !2864, metadata !DIExpression(DW_OP_LLVM_fragment, 64, 64)), !dbg !2865
  %0 = getelementptr inbounds i8, ptr %visitor.1, i64 80, !dbg !2866
  %1 = load ptr, ptr %0, align 8, !dbg !2866, !invariant.load !14, !nonnull !14
  tail call void %1(ptr noundef nonnull align 1 %visitor.0, ptr noalias noundef nonnull readonly align 8 dereferenceable(40) %key, ptr noundef nonnull align 1 %self, ptr noalias noundef nonnull readonly align 8 dereferenceable(32) @vtable.5), !dbg !2866
  ret void, !dbg !2867
}

; <tracing_core::field::DebugValue<T> as tracing_core::field::Value>::record
; Function Attrs: nonlazybind uwtable
define internal void @"_ZN87_$LT$tracing_core..field..DebugValue$LT$T$GT$$u20$as$u20$tracing_core..field..Value$GT$6record17h6b2f4533934f407bE"(ptr noalias noundef readonly align 8 dereferenceable(8) %self, ptr noalias noundef readonly align 8 dereferenceable(40) %key, ptr noundef nonnull align 1 %visitor.0, ptr noalias nocapture noundef readonly align 8 dereferenceable(88) %visitor.1) unnamed_addr #2 !dbg !2868 {
start:
  tail call void @llvm.dbg.value(metadata ptr %self, metadata !2873, metadata !DIExpression()), !dbg !2876
  tail call void @llvm.dbg.value(metadata ptr %key, metadata !2874, metadata !DIExpression()), !dbg !2876
  tail call void @llvm.dbg.value(metadata ptr %visitor.0, metadata !2875, metadata !DIExpression(DW_OP_LLVM_fragment, 0, 64)), !dbg !2876
  tail call void @llvm.dbg.value(metadata ptr %visitor.1, metadata !2875, metadata !DIExpression(DW_OP_LLVM_fragment, 64, 64)), !dbg !2876
  %0 = getelementptr inbounds i8, ptr %visitor.1, i64 80, !dbg !2877
  %1 = load ptr, ptr %0, align 8, !dbg !2877, !invariant.load !14, !nonnull !14
  tail call void %1(ptr noundef nonnull align 1 %visitor.0, ptr noalias noundef nonnull readonly align 8 dereferenceable(40) %key, ptr noundef nonnull align 1 %self, ptr noalias noundef nonnull readonly align 8 dereferenceable(32) @vtable.6), !dbg !2877
  ret void, !dbg !2878
}

; <tracing_core::field::DebugValue<T> as tracing_core::field::Value>::record
; Function Attrs: nonlazybind uwtable
define internal void @"_ZN87_$LT$tracing_core..field..DebugValue$LT$T$GT$$u20$as$u20$tracing_core..field..Value$GT$6record17haa36af325d9e6944E"(ptr noalias noundef readonly align 8 dereferenceable(8) %self, ptr noalias noundef readonly align 8 dereferenceable(40) %key, ptr noundef nonnull align 1 %visitor.0, ptr noalias nocapture noundef readonly align 8 dereferenceable(88) %visitor.1) unnamed_addr #2 !dbg !2879 {
start:
  tail call void @llvm.dbg.value(metadata ptr %self, metadata !2884, metadata !DIExpression()), !dbg !2887
  tail call void @llvm.dbg.value(metadata ptr %key, metadata !2885, metadata !DIExpression()), !dbg !2887
  tail call void @llvm.dbg.value(metadata ptr %visitor.0, metadata !2886, metadata !DIExpression(DW_OP_LLVM_fragment, 0, 64)), !dbg !2887
  tail call void @llvm.dbg.value(metadata ptr %visitor.1, metadata !2886, metadata !DIExpression(DW_OP_LLVM_fragment, 64, 64)), !dbg !2887
  %0 = getelementptr inbounds i8, ptr %visitor.1, i64 80, !dbg !2888
  %1 = load ptr, ptr %0, align 8, !dbg !2888, !invariant.load !14, !nonnull !14
  tail call void %1(ptr noundef nonnull align 1 %visitor.0, ptr noalias noundef nonnull readonly align 8 dereferenceable(40) %key, ptr noundef nonnull align 1 %self, ptr noalias noundef nonnull readonly align 8 dereferenceable(32) @vtable.7), !dbg !2888
  ret void, !dbg !2889
}

; <tracing_core::field::DebugValue<T> as tracing_core::field::Value>::record
; Function Attrs: nonlazybind uwtable
define internal void @"_ZN87_$LT$tracing_core..field..DebugValue$LT$T$GT$$u20$as$u20$tracing_core..field..Value$GT$6record17hb2aa03ca58ad2804E"(ptr noalias noundef readonly align 8 dereferenceable(8) %self, ptr noalias noundef readonly align 8 dereferenceable(40) %key, ptr noundef nonnull align 1 %visitor.0, ptr noalias nocapture noundef readonly align 8 dereferenceable(88) %visitor.1) unnamed_addr #2 !dbg !2890 {
start:
  tail call void @llvm.dbg.value(metadata ptr %self, metadata !2895, metadata !DIExpression()), !dbg !2898
  tail call void @llvm.dbg.value(metadata ptr %key, metadata !2896, metadata !DIExpression()), !dbg !2898
  tail call void @llvm.dbg.value(metadata ptr %visitor.0, metadata !2897, metadata !DIExpression(DW_OP_LLVM_fragment, 0, 64)), !dbg !2898
  tail call void @llvm.dbg.value(metadata ptr %visitor.1, metadata !2897, metadata !DIExpression(DW_OP_LLVM_fragment, 64, 64)), !dbg !2898
  %0 = getelementptr inbounds i8, ptr %visitor.1, i64 80, !dbg !2899
  %1 = load ptr, ptr %0, align 8, !dbg !2899, !invariant.load !14, !nonnull !14
  tail call void %1(ptr noundef nonnull align 1 %visitor.0, ptr noalias noundef nonnull readonly align 8 dereferenceable(40) %key, ptr noundef nonnull align 1 %self, ptr noalias noundef nonnull readonly align 8 dereferenceable(32) @vtable.8), !dbg !2899
  ret void, !dbg !2900
}

; <tracing_core::field::DebugValue<T> as tracing_core::field::Value>::record
; Function Attrs: nonlazybind uwtable
define internal void @"_ZN87_$LT$tracing_core..field..DebugValue$LT$T$GT$$u20$as$u20$tracing_core..field..Value$GT$6record17hf3444064221f45caE"(ptr noalias noundef readonly align 8 dereferenceable(8) %self, ptr noalias noundef readonly align 8 dereferenceable(40) %key, ptr noundef nonnull align 1 %visitor.0, ptr noalias nocapture noundef readonly align 8 dereferenceable(88) %visitor.1) unnamed_addr #2 !dbg !2901 {
start:
  tail call void @llvm.dbg.value(metadata ptr %self, metadata !2906, metadata !DIExpression()), !dbg !2909
  tail call void @llvm.dbg.value(metadata ptr %key, metadata !2907, metadata !DIExpression()), !dbg !2909
  tail call void @llvm.dbg.value(metadata ptr %visitor.0, metadata !2908, metadata !DIExpression(DW_OP_LLVM_fragment, 0, 64)), !dbg !2909
  tail call void @llvm.dbg.value(metadata ptr %visitor.1, metadata !2908, metadata !DIExpression(DW_OP_LLVM_fragment, 64, 64)), !dbg !2909
  %0 = getelementptr inbounds i8, ptr %visitor.1, i64 80, !dbg !2910
  %1 = load ptr, ptr %0, align 8, !dbg !2910, !invariant.load !14, !nonnull !14
  tail call void %1(ptr noundef nonnull align 1 %visitor.0, ptr noalias noundef nonnull readonly align 8 dereferenceable(40) %key, ptr noundef nonnull align 1 %self, ptr noalias noundef nonnull readonly align 8 dereferenceable(32) @vtable.9), !dbg !2910
  ret void, !dbg !2911
}

; <tracing_core::callsite::DefaultCallsite as tracing_core::callsite::Callsite>::metadata
; Function Attrs: alwaysinline mustprogress nofree norecurse nosync nounwind nonlazybind willreturn memory(argmem: read) uwtable
define internal noundef nonnull align 8 dereferenceable(120) ptr @"_ZN92_$LT$tracing_core..callsite..DefaultCallsite$u20$as$u20$tracing_core..callsite..Callsite$GT$8metadata17hb799fd052c98709bE"(ptr nocapture noundef nonnull readonly align 8 %self) unnamed_addr #5 !dbg !2912 {
start:
  tail call void @llvm.dbg.value(metadata ptr %self, metadata !2917, metadata !DIExpression()), !dbg !2918
  %_0 = load ptr, ptr %self, align 8, !dbg !2919, !nonnull !14, !align !1068, !noundef !14
  ret ptr %_0, !dbg !2920
}

; polling::Poller::new
; Function Attrs: nonlazybind uwtable
define void @_ZN7polling6Poller3new17h60847e9918cb2d25E(ptr dead_on_unwind noalias nocapture noundef writable writeonly sret([32 x i8]) align 8 dereferenceable(32) %_0) unnamed_addr #2 personality ptr @rust_eh_personality !dbg !2921 {
start:
  %_30.i134.i = alloca [48 x i8], align 8
  %fd.i135.i = alloca [4 x i8], align 4
  %result.i.i.i.i = alloca [8 x i8], align 8
  %result.i.i.i = alloca [8 x i8], align 8
  %_30.i.i.i = alloca [48 x i8], align 8
  %fd.i.i.i = alloca [4 x i8], align 4
  %value_set48.i.i = alloca [24 x i8], align 8
  %value_set.i.i = alloca [24 x i8], align 8
  %_66.i.i = alloca [16 x i8], align 8
  %_64.i.i = alloca [48 x i8], align 8
  %val40.i.i = alloca [40 x i8], align 8
  %_54.i.i = alloca [24 x i8], align 8
  %err.i.i = alloca [2 x i8], align 2
  %_32.i.i = alloca [48 x i8], align 8
  %val.i.i = alloca [40 x i8], align 8
  %_22.i.i = alloca [24 x i8], align 8
  %_30.i.i = alloca [48 x i8], align 8
  %fd.i.i = alloca [4 x i8], align 4
  %value_set.i = alloca [24 x i8], align 8
  %_97.i = alloca [8 x i8], align 8
  %val56.i = alloca [40 x i8], align 8
  %_86.i = alloca [8 x i8], align 8
  %val54.i = alloca [40 x i8], align 8
  %_75.i = alloca [4 x i8], align 4
  %_73.i = alloca [8 x i8], align 8
  %val52.i = alloca [40 x i8], align 8
  %_63.i = alloca [48 x i8], align 8
  %val50.i = alloca [40 x i8], align 8
  %_53.i = alloca [96 x i8], align 8
  %_33.i = alloca [16 x i8], align 8
  %_24.i = alloca [16 x i8], align 8
  %poller.i = alloca [16 x i8], align 4
  %notifier.i = alloca [8 x i8], align 8
  %_1.sroa.9 = alloca [3 x i8], align 1
  call void @llvm.lifetime.start.p0(i64 3, ptr nonnull %_1.sroa.9), !dbg !2969
  call void @llvm.dbg.value(metadata i32 524288, metadata !2970, metadata !DIExpression()), !dbg !3003
  call void @llvm.dbg.value(metadata i32 524288, metadata !3088, metadata !DIExpression()), !dbg !3094
  call void @llvm.dbg.value(metadata i64 291, metadata !3096, metadata !DIExpression()), !dbg !3149
  call void @llvm.dbg.value(metadata i32 0, metadata !3153, metadata !DIExpression()), !dbg !3162
  call void @llvm.dbg.value(metadata i32 1, metadata !3204, metadata !DIExpression()), !dbg !3221
  call void @llvm.dbg.value(metadata i32 526336, metadata !3220, metadata !DIExpression()), !dbg !3221
  call void @llvm.dbg.value(metadata i32 1, metadata !3223, metadata !DIExpression()), !dbg !3230
  call void @llvm.dbg.value(metadata i32 526336, metadata !3229, metadata !DIExpression()), !dbg !3230
  call void @llvm.dbg.value(metadata i64 283, metadata !3232, metadata !DIExpression()), !dbg !3258
  call void @llvm.dbg.value(metadata i64 -1, metadata !3261, metadata !DIExpression()), !dbg !3268
  call void @llvm.dbg.value(metadata i64 -1, metadata !3270, metadata !DIExpression()), !dbg !3283
  call void @llvm.dbg.value(metadata i8 0, metadata !3277, metadata !DIExpression()), !dbg !3283
  call void @llvm.dbg.value(metadata i8 0, metadata !3278, metadata !DIExpression()), !dbg !3283
  call void @llvm.dbg.value(metadata i64 -1, metadata !3285, metadata !DIExpression()), !dbg !3290
  call void @llvm.dbg.value(metadata i64 -1, metadata !3279, metadata !DIExpression()), !dbg !3292
  call void @llvm.dbg.value(metadata i8 1, metadata !3281, metadata !DIExpression()), !dbg !3292
  call void @llvm.dbg.value(metadata i8 0, metadata !3282, metadata !DIExpression()), !dbg !3292
  call void @llvm.dbg.value(metadata ptr @_ZN7polling5epoll6Poller3new10__CALLSITE17hec36334e3b9ca9dbE, metadata !3294, metadata !DIExpression()), !dbg !3304
  call void @llvm.dbg.value(metadata ptr @_ZN7polling5epoll6Poller3new10__CALLSITE17hec36334e3b9ca9dbE, metadata !3298, metadata !DIExpression()), !dbg !3306
  call void @llvm.dbg.value(metadata ptr @alloc_f60ee9d3a28ecf6e14a79771b3c5296b, metadata !3308, metadata !DIExpression(DW_OP_LLVM_fragment, 0, 64)), !dbg !3346
  call void @llvm.dbg.value(metadata i64 34, metadata !3308, metadata !DIExpression(DW_OP_LLVM_fragment, 64, 64)), !dbg !3346
  call void @llvm.dbg.value(metadata ptr @alloc_a3c23a344898b79699efbef98779dd1f, metadata !3348, metadata !DIExpression()), !dbg !3359
  call void @llvm.dbg.value(metadata ptr @alloc_f60ee9d3a28ecf6e14a79771b3c5296b, metadata !3333, metadata !DIExpression(DW_OP_LLVM_fragment, 0, 64)), !dbg !3361
  call void @llvm.dbg.value(metadata i64 34, metadata !3333, metadata !DIExpression(DW_OP_LLVM_fragment, 64, 64)), !dbg !3361
  call void @llvm.dbg.value(metadata ptr @alloc_f60ee9d3a28ecf6e14a79771b3c5296b, metadata !3338, metadata !DIExpression(DW_OP_LLVM_fragment, 0, 64)), !dbg !3362
  call void @llvm.dbg.value(metadata i64 34, metadata !3338, metadata !DIExpression(DW_OP_LLVM_fragment, 64, 64)), !dbg !3362
  call void @llvm.dbg.value(metadata ptr @alloc_f60ee9d3a28ecf6e14a79771b3c5296b, metadata !3343, metadata !DIExpression(DW_OP_LLVM_fragment, 0, 64)), !dbg !3363
  call void @llvm.dbg.value(metadata i64 34, metadata !3343, metadata !DIExpression(DW_OP_LLVM_fragment, 64, 64)), !dbg !3363
  call void @llvm.dbg.declare(metadata ptr %notifier.i, metadata !3043, metadata !DIExpression()), !dbg !3364
  call void @llvm.dbg.declare(metadata ptr %poller.i, metadata !3051, metadata !DIExpression()), !dbg !3365
  call void @llvm.dbg.value(metadata ptr inttoptr (i64 524288 to ptr), metadata !3146, metadata !DIExpression()), !dbg !3149
  %0 = tail call { ptr, i32, i32 } asm sideeffect inteldialect "syscall", "={ax},={cx},={r11},{ax},{di},~{memory}"(ptr nonnull inttoptr (i64 291 to ptr), ptr nonnull inttoptr (i64 524288 to ptr)) #22, !dbg !3366, !noalias !3367, !srcloc !3370
  %1 = extractvalue { ptr, i32, i32 } %0, 0, !dbg !3366
  call void @llvm.dbg.value(metadata ptr %1, metadata !3147, metadata !DIExpression()), !dbg !3371
  call void @llvm.dbg.value(metadata ptr @alloc_47c8330ffe7a09bc00d165d03facdeb6, metadata !3372, metadata !DIExpression()), !dbg !3387
  call void @llvm.dbg.value(metadata i8 1, metadata !3384, metadata !DIExpression()), !dbg !3403
  call void @llvm.dbg.value(metadata ptr %1, metadata !3396, metadata !DIExpression()), !dbg !3404
  call void @llvm.dbg.declare(metadata ptr %fd.i.i, metadata !3382, metadata !DIExpression()), !dbg !3405
  call void @llvm.dbg.value(metadata ptr %1, metadata !3406, metadata !DIExpression()), !dbg !3426
  call void @llvm.dbg.value(metadata ptr undef, metadata !3428, metadata !DIExpression()), !dbg !3437
  call void @llvm.dbg.value(metadata ptr %1, metadata !3439, metadata !DIExpression()), !dbg !3457
  %_15.i.i = ptrtoint ptr %1 to i64, !dbg !3459, !unsafe_inst !3460
  %_9.i.not.i = icmp slt ptr %1, null, !dbg !3459
  %_15.i.tr.i = trunc i64 %_15.i.i to i32, !dbg !3461
  br i1 %_9.i.not.i, label %bb38.i, label %bb3.i.i, !dbg !3462, !unsafe_inst !3460

bb3.i.i:                                          ; preds = %start
  call void @llvm.dbg.value(metadata i64 %_15.i.i, metadata !3446, metadata !DIExpression()), !dbg !3463
  call void @llvm.dbg.value(metadata i32 %_15.i.tr.i, metadata !3397, metadata !DIExpression()), !dbg !3464
  call void @llvm.lifetime.start.p0(i64 4, ptr nonnull %fd.i.i), !dbg !3465, !noalias !3367, !unsafe_inst !3460
  store i32 %_15.i.tr.i, ptr %fd.i.i, align 4, !dbg !3465, !noalias !3367, !unsafe_inst !3460
  call void @llvm.dbg.value(metadata ptr %fd.i.i, metadata !3383, metadata !DIExpression()), !dbg !3387
  %2 = icmp eq i32 %_15.i.tr.i, -1, !dbg !3466, !unsafe_inst !3460
  br i1 %2, label %bb4.i.i, label %bb39.i, !dbg !3466, !unsafe_inst !3460

bb4.i.i:                                          ; preds = %bb3.i.i
  call void @llvm.lifetime.start.p0(i64 48, ptr nonnull %_30.i.i), !dbg !3467, !noalias !3367, !unsafe_inst !3460
  store ptr null, ptr %_30.i.i, align 8, !dbg !3467, !noalias !3367, !unsafe_inst !3460
; call core::panicking::assert_failed
  call fastcc void @_ZN4core9panicking13assert_failed17h00ca91c24782b13eE(ptr noalias noundef nonnull readonly align 4 dereferenceable(4) %fd.i.i, ptr noalias nocapture noundef nonnull align 8 dereferenceable(48) %_30.i.i) #23, !dbg !3467
  unreachable, !dbg !3467

bb39.i:                                           ; preds = %bb3.i.i
  call void @llvm.lifetime.end.p0(i64 4, ptr nonnull %fd.i.i), !dbg !3468, !noalias !3367, !unsafe_inst !3460
  call void @llvm.dbg.value(metadata i32 %_15.i.tr.i, metadata !3024, metadata !DIExpression()), !dbg !3469
  call void @llvm.lifetime.start.p0(i64 8, ptr nonnull %notifier.i), !dbg !3470, !noalias !3367
  call void @llvm.dbg.value(metadata i32 0, metadata !3471, metadata !DIExpression()), !dbg !3489
  call void @llvm.dbg.value(metadata i32 526336, metadata !3488, metadata !DIExpression()), !dbg !3489
  call void @llvm.dbg.value(metadata i32 0, metadata !3561, metadata !DIExpression()), !dbg !3566
  call void @llvm.dbg.value(metadata i32 526336, metadata !3565, metadata !DIExpression()), !dbg !3566
  call void @llvm.dbg.value(metadata i64 290, metadata !3568, metadata !DIExpression()), !dbg !3576
  call void @llvm.dbg.value(metadata ptr @_ZN7polling5epoll8Notifier3new10__CALLSITE17h4b92554da2d095ebE, metadata !3579, metadata !DIExpression()), !dbg !3597
  call void @llvm.dbg.value(metadata ptr @_ZN7polling5epoll8Notifier3new10__CALLSITE17h4b92554da2d095ebE, metadata !3583, metadata !DIExpression()), !dbg !3599
  call void @llvm.dbg.value(metadata ptr @alloc_f60ee9d3a28ecf6e14a79771b3c5296b, metadata !3601, metadata !DIExpression(DW_OP_LLVM_fragment, 0, 64)), !dbg !3613
  call void @llvm.dbg.value(metadata i64 34, metadata !3601, metadata !DIExpression(DW_OP_LLVM_fragment, 64, 64)), !dbg !3613
  call void @llvm.dbg.value(metadata ptr @alloc_78d7ccbe3518eccf46d2a4c2fc0df13a, metadata !3615, metadata !DIExpression()), !dbg !3619
  call void @llvm.dbg.value(metadata ptr @_ZN7polling5epoll8Notifier3new10__CALLSITE17h264b12b1c2376d77E, metadata !3589, metadata !DIExpression()), !dbg !3621
  call void @llvm.dbg.value(metadata ptr @_ZN7polling5epoll8Notifier3new10__CALLSITE17h264b12b1c2376d77E, metadata !3591, metadata !DIExpression()), !dbg !3623
  call void @llvm.dbg.value(metadata ptr @alloc_f60ee9d3a28ecf6e14a79771b3c5296b, metadata !3610, metadata !DIExpression(DW_OP_LLVM_fragment, 0, 64)), !dbg !3625
  call void @llvm.dbg.value(metadata i64 34, metadata !3610, metadata !DIExpression(DW_OP_LLVM_fragment, 64, 64)), !dbg !3625
  call void @llvm.dbg.value(metadata ptr @alloc_8712fcc692c6c004559a17619fffbff1, metadata !3627, metadata !DIExpression()), !dbg !3641
  call void @llvm.dbg.value(metadata i32 524288, metadata !3643, metadata !DIExpression()), !dbg !3675
  call void @llvm.dbg.declare(metadata ptr undef, metadata !3677, metadata !DIExpression()), !dbg !3706
  call void @llvm.dbg.value(metadata i32 0, metadata !3708, metadata !DIExpression()), !dbg !3716
  call void @llvm.dbg.declare(metadata ptr %err.i.i, metadata !3521, metadata !DIExpression()), !dbg !3753
  call void @llvm.dbg.value(metadata ptr null, metadata !3572, metadata !DIExpression()), !dbg !3576
  call void @llvm.dbg.value(metadata ptr inttoptr (i64 526336 to ptr), metadata !3573, metadata !DIExpression()), !dbg !3576
  %3 = tail call { ptr, i32, i32 } asm sideeffect inteldialect "syscall", "={ax},={cx},={r11},{ax},{di},{si},~{memory}"(ptr nonnull inttoptr (i64 290 to ptr), ptr null, ptr nonnull inttoptr (i64 526336 to ptr)) #22, !dbg !3754, !noalias !3755, !srcloc !3758
  %4 = extractvalue { ptr, i32, i32 } %3, 0, !dbg !3754
  call void @llvm.dbg.value(metadata ptr %4, metadata !3574, metadata !DIExpression()), !dbg !3759
  call void @llvm.dbg.value(metadata ptr @alloc_47c8330ffe7a09bc00d165d03facdeb6, metadata !3372, metadata !DIExpression()), !dbg !3760
  call void @llvm.dbg.value(metadata i8 1, metadata !3384, metadata !DIExpression()), !dbg !3763
  call void @llvm.dbg.value(metadata ptr %4, metadata !3396, metadata !DIExpression()), !dbg !3764
  call void @llvm.dbg.declare(metadata ptr %fd.i.i.i, metadata !3382, metadata !DIExpression()), !dbg !3765
  call void @llvm.dbg.value(metadata ptr %4, metadata !3406, metadata !DIExpression()), !dbg !3766
  call void @llvm.dbg.value(metadata ptr undef, metadata !3428, metadata !DIExpression()), !dbg !3768
  call void @llvm.dbg.value(metadata ptr %4, metadata !3439, metadata !DIExpression()), !dbg !3770
  %_15.i.i.i = ptrtoint ptr %4 to i64, !dbg !3772, !unsafe_inst !3460
  %_9.i.not.i.i = icmp slt ptr %4, null, !dbg !3772
  br i1 %_9.i.not.i.i, label %bb19.i.i, label %bb3.i.i.i, !dbg !3773, !unsafe_inst !3460

bb3.i.i.i:                                        ; preds = %bb39.i
  call void @llvm.dbg.value(metadata i64 %_15.i.i.i, metadata !3446, metadata !DIExpression()), !dbg !3774
  %raw_fd.i.i.i = trunc i64 %_15.i.i.i to i32, !dbg !3775, !unsafe_inst !3460
  call void @llvm.dbg.value(metadata i32 %raw_fd.i.i.i, metadata !3397, metadata !DIExpression()), !dbg !3776
  call void @llvm.lifetime.start.p0(i64 4, ptr nonnull %fd.i.i.i), !dbg !3777, !noalias !3755, !unsafe_inst !3460
  store i32 %raw_fd.i.i.i, ptr %fd.i.i.i, align 4, !dbg !3777, !noalias !3755, !unsafe_inst !3460
  call void @llvm.dbg.value(metadata ptr %fd.i.i.i, metadata !3383, metadata !DIExpression()), !dbg !3760
  %5 = icmp eq i32 %raw_fd.i.i.i, -1, !dbg !3778, !unsafe_inst !3460
  br i1 %5, label %bb4.i.i.i, label %bb7.i.i, !dbg !3778, !unsafe_inst !3460

bb4.i.i.i:                                        ; preds = %bb3.i.i.i
  call void @llvm.lifetime.start.p0(i64 48, ptr nonnull %_30.i.i.i), !dbg !3779, !noalias !3755, !unsafe_inst !3460
  store ptr null, ptr %_30.i.i.i, align 8, !dbg !3779, !noalias !3755, !unsafe_inst !3460
; invoke core::panicking::assert_failed
  invoke fastcc void @_ZN4core9panicking13assert_failed17h00ca91c24782b13eE(ptr noalias noundef nonnull readonly align 4 dereferenceable(4) %fd.i.i.i, ptr noalias nocapture noundef nonnull align 8 dereferenceable(48) %_30.i.i.i) #23
          to label %.noexc.i unwind label %cleanup.i, !dbg !3779

.noexc.i:                                         ; preds = %bb4.i.i.i
  unreachable, !dbg !3779

cleanup.i.i:                                      ; preds = %bb45.i.i, %bb44.i.i, %bb13.i.i, %bb1.i.i.i
  %6 = landingpad { ptr, i32 }
          cleanup
  call void @llvm.dbg.value(metadata ptr undef, metadata !2390, metadata !DIExpression()), !dbg !3780
  call void @llvm.dbg.value(metadata ptr undef, metadata !2402, metadata !DIExpression()), !dbg !3782
  %_4.i.i134.i.i = invoke noundef i32 @close(i32 noundef %raw_fd.i.i.i)
          to label %bb34.i unwind label %terminate.i.i, !dbg !3784, !noalias !3755

bb7.i.i:                                          ; preds = %bb3.i.i.i
  call void @llvm.lifetime.end.p0(i64 4, ptr nonnull %fd.i.i.i), !dbg !3785, !noalias !3755, !unsafe_inst !3460
  call void @llvm.dbg.value(metadata i32 %raw_fd.i.i.i, metadata !3510, metadata !DIExpression()), !dbg !3786
  call void @llvm.dbg.value(metadata !14, metadata !3787, metadata !DIExpression()), !dbg !3813
  call void @llvm.dbg.value(metadata !14, metadata !3812, metadata !DIExpression()), !dbg !3813
  call void @llvm.dbg.value(metadata ptr @_ZN12tracing_core8metadata9MAX_LEVEL17h2def28f3c9fb9790E, metadata !3815, metadata !DIExpression()), !dbg !3820
  call void @llvm.dbg.value(metadata i8 0, metadata !3819, metadata !DIExpression()), !dbg !3820
  call void @llvm.dbg.value(metadata i8 0, metadata !1425, metadata !DIExpression()), !dbg !3827
  call void @llvm.dbg.value(metadata ptr @_ZN12tracing_core8metadata9MAX_LEVEL17h2def28f3c9fb9790E, metadata !1431, metadata !DIExpression()), !dbg !3827
  %7 = load atomic i64, ptr @_ZN12tracing_core8metadata9MAX_LEVEL17h2def28f3c9fb9790E monotonic, align 8, !dbg !3829, !noalias !3755
  call void @llvm.dbg.value(metadata !14, metadata !3787, metadata !DIExpression()), !dbg !3830
  call void @llvm.dbg.value(metadata ptr undef, metadata !3812, metadata !DIExpression()), !dbg !3830
  %_0.i131.i.i = icmp eq i64 %7, 0, !dbg !3832
  br i1 %_0.i131.i.i, label %bb8.i.i, label %bb41.i, !dbg !3833

bb8.i.i:                                          ; preds = %bb7.i.i
  call void @llvm.dbg.value(metadata i8 0, metadata !3834, metadata !DIExpression()), !dbg !3843
  call void @llvm.dbg.value(metadata ptr @_ZN7polling5epoll8Notifier3new10__CALLSITE17h4b92554da2d095ebE, metadata !3850, metadata !DIExpression()), !dbg !3852
  call void @llvm.dbg.value(metadata ptr @_ZN7polling5epoll8Notifier3new10__CALLSITE17h4b92554da2d095ebE, metadata !3842, metadata !DIExpression(DW_OP_plus_uconst, 16, DW_OP_stack_value)), !dbg !3843
  call void @llvm.dbg.value(metadata i8 0, metadata !3853, metadata !DIExpression()), !dbg !3859
  call void @llvm.dbg.value(metadata ptr getelementptr inbounds (<{ ptr, [10 x i8], [6 x i8] }>, ptr @_ZN7polling5epoll8Notifier3new10__CALLSITE17h4b92554da2d095ebE, i64 0, i32 1, i64 8), metadata !3858, metadata !DIExpression()), !dbg !3859
  %8 = load atomic i8, ptr getelementptr inbounds (<{ ptr, [10 x i8], [6 x i8] }>, ptr @_ZN7polling5epoll8Notifier3new10__CALLSITE17h4b92554da2d095ebE, i64 0, i32 1, i64 8) monotonic, align 8, !dbg !3861, !noalias !3755
  switch i8 %8, label %bb1.i.i.i [
    i8 0, label %bb41.i
    i8 1, label %bb13.i.i
    i8 2, label %bb6.i.i.i
  ], !dbg !3862

bb1.i.i.i:                                        ; preds = %bb8.i.i
; invoke tracing_core::callsite::DefaultCallsite::register
  %9 = invoke noundef i8 @_ZN12tracing_core8callsite15DefaultCallsite8register17h1f01c6d2d83987b0E(ptr noundef nonnull align 8 @_ZN7polling5epoll8Notifier3new10__CALLSITE17h4b92554da2d095ebE)
          to label %bb11.i.i unwind label %cleanup.i.i, !dbg !3863, !noalias !3755

bb6.i.i.i:                                        ; preds = %bb8.i.i
  br label %bb13.i.i, !dbg !3864

bb11.i.i:                                         ; preds = %bb1.i.i.i
  call void @llvm.dbg.value(metadata i8 %9, metadata !3515, metadata !DIExpression()), !dbg !3867
  %10 = icmp eq i8 %9, 0, !dbg !3868
  br i1 %10, label %bb41.i, label %bb13.i.i, !dbg !3868

bb13.i.i:                                         ; preds = %bb11.i.i, %bb6.i.i.i, %bb8.i.i
  %_0.sroa.0.0.i136198.i.i = phi i8 [ %9, %bb11.i.i ], [ 2, %bb6.i.i.i ], [ %8, %bb8.i.i ]
  %_12.i.i = load ptr, ptr @_ZN7polling5epoll8Notifier3new10__CALLSITE17h4b92554da2d095ebE, align 8, !dbg !3869, !noalias !3755, !nonnull !14, !align !1068, !noundef !14
; invoke tracing::__macro_support::__is_enabled
  %11 = invoke noundef zeroext i1 @_ZN7tracing15__macro_support12__is_enabled17h74586a1e8af97b13E(ptr noalias noundef nonnull readonly align 8 dereferenceable(120) %_12.i.i, i8 noundef %_0.sroa.0.0.i136198.i.i)
          to label %bb14.i.i unwind label %cleanup.i.i, !dbg !3868, !noalias !3755

bb14.i.i:                                         ; preds = %bb13.i.i
  call void @llvm.dbg.value(metadata i1 %11, metadata !3512, metadata !DIExpression(DW_OP_LLVM_convert, 1, DW_ATE_unsigned, DW_OP_LLVM_convert, 8, DW_ATE_unsigned, DW_OP_stack_value)), !dbg !3870
  br i1 %11, label %bb15.i.i, label %bb41.i, !dbg !3871

bb15.i.i:                                         ; preds = %bb14.i.i
  %self56.i.i = load ptr, ptr @_ZN7polling5epoll8Notifier3new10__CALLSITE17h4b92554da2d095ebE, align 8, !dbg !3872, !noalias !3755, !nonnull !14, !align !1068, !noundef !14
  call void @llvm.dbg.value(metadata ptr %self56.i.i, metadata !3873, metadata !DIExpression(DW_OP_plus_uconst, 48, DW_OP_stack_value)), !dbg !3887
  call void @llvm.dbg.value(metadata ptr %self56.i.i, metadata !3889, metadata !DIExpression(DW_OP_plus_uconst, 48, DW_OP_stack_value)), !dbg !3898
  call void @llvm.dbg.value(metadata ptr %self56.i.i, metadata !3900, metadata !DIExpression(DW_OP_plus_uconst, 48, DW_OP_stack_value)), !dbg !3909
  %12 = getelementptr inbounds i8, ptr %self56.i.i, i64 48, !dbg !3911
  %_105.0.i.i = load ptr, ptr %12, align 8, !dbg !3911, !noalias !3755, !nonnull !14, !align !1068, !noundef !14
  %13 = getelementptr inbounds i8, ptr %self56.i.i, i64 56, !dbg !3911
  %_105.1.i.i = load i64, ptr %13, align 8, !dbg !3911, !noalias !3755, !noundef !14
  call void @llvm.dbg.value(metadata i64 0, metadata !3881, metadata !DIExpression(DW_OP_LLVM_fragment, 0, 64)), !dbg !3912
  call void @llvm.dbg.value(metadata i64 %_105.1.i.i, metadata !3881, metadata !DIExpression(DW_OP_LLVM_fragment, 64, 64)), !dbg !3912
  %14 = getelementptr inbounds i8, ptr %self56.i.i, i64 64, !dbg !3913
  %15 = load <2 x ptr>, ptr %14, align 8, !dbg !3913, !noalias !3755
  call void @llvm.dbg.value(metadata i64 0, metadata !3518, metadata !DIExpression(DW_OP_LLVM_fragment, 256, 64)), !dbg !3914
  call void @llvm.dbg.value(metadata i64 %_105.1.i.i, metadata !3518, metadata !DIExpression(DW_OP_LLVM_fragment, 320, 64)), !dbg !3914
  call void @llvm.dbg.value(metadata ptr %_105.0.i.i, metadata !3518, metadata !DIExpression(DW_OP_LLVM_fragment, 0, 64)), !dbg !3914
  call void @llvm.dbg.value(metadata i64 %_105.1.i.i, metadata !3518, metadata !DIExpression(DW_OP_LLVM_fragment, 64, 64)), !dbg !3914
  call void @llvm.dbg.value(metadata ptr undef, metadata !3518, metadata !DIExpression(DW_OP_LLVM_fragment, 128, 64)), !dbg !3914
  call void @llvm.dbg.value(metadata ptr undef, metadata !3518, metadata !DIExpression(DW_OP_LLVM_fragment, 192, 64)), !dbg !3914
  call void @llvm.lifetime.start.p0(i64 24, ptr nonnull %_22.i.i), !dbg !3915, !noalias !3755
  call void @llvm.lifetime.start.p0(i64 40, ptr nonnull %val.i.i), !dbg !3915, !noalias !3755
  call void @llvm.dbg.value(metadata ptr undef, metadata !3916, metadata !DIExpression()), !dbg !3940
  call void @llvm.dbg.value(metadata ptr undef, metadata !3942, metadata !DIExpression(DW_OP_plus_uconst, 32, DW_OP_stack_value)), !dbg !3955
  call void @llvm.dbg.value(metadata ptr undef, metadata !3957, metadata !DIExpression(DW_OP_plus_uconst, 32, DW_OP_stack_value)), !dbg !3964
  call void @llvm.dbg.value(metadata ptr undef, metadata !3966, metadata !DIExpression(DW_OP_plus_uconst, 32, DW_OP_stack_value)), !dbg !3976
  call void @llvm.dbg.value(metadata ptr undef, metadata !3975, metadata !DIExpression(DW_OP_plus_uconst, 8, DW_OP_stack_value)), !dbg !3976
  %_11.i.not.i.i = icmp eq i64 %_105.1.i.i, 0, !dbg !3978
  br i1 %_11.i.not.i.i, label %bb44.i.i, label %bb45.i.i, !dbg !3979

bb44.i.i:                                         ; preds = %bb15.i.i
  call void @llvm.dbg.value(metadata i64 %_105.1.i.i, metadata !3605, metadata !DIExpression(DW_OP_LLVM_fragment, 64, 64)), !dbg !3613
  call void @llvm.dbg.value(metadata ptr undef, metadata !3605, metadata !DIExpression(DW_OP_LLVM_fragment, 128, 64)), !dbg !3613
  call void @llvm.dbg.value(metadata ptr undef, metadata !3605, metadata !DIExpression(DW_OP_LLVM_fragment, 192, 64)), !dbg !3613
  call void @llvm.dbg.value(metadata i64 0, metadata !3605, metadata !DIExpression(DW_OP_LLVM_fragment, 256, 64)), !dbg !3613
  call void @llvm.dbg.value(metadata ptr null, metadata !3605, metadata !DIExpression(DW_OP_LLVM_fragment, 0, 64)), !dbg !3613
; invoke core::option::expect_failed
  invoke void @_ZN4core6option13expect_failed17h28cbd671da1a9710E(ptr noalias noundef nonnull readonly align 1 @alloc_f60ee9d3a28ecf6e14a79771b3c5296b, i64 noundef 34, ptr noalias noundef nonnull readonly align 8 dereferenceable(24) @alloc_ab2287ec06c9e063f585fce81c8dee28) #23
          to label %unreachable.i.i unwind label %cleanup.i.i, !dbg !3980, !noalias !3755

bb45.i.i:                                         ; preds = %bb15.i.i
  call void @llvm.dbg.value(metadata i64 0, metadata !3518, metadata !DIExpression(DW_OP_plus_uconst, 1, DW_OP_stack_value, DW_OP_LLVM_fragment, 256, 64)), !dbg !3914
  call void @llvm.dbg.value(metadata i64 %_105.1.i.i, metadata !3605, metadata !DIExpression(DW_OP_LLVM_fragment, 64, 64)), !dbg !3613
  call void @llvm.dbg.value(metadata ptr undef, metadata !3605, metadata !DIExpression(DW_OP_LLVM_fragment, 128, 64)), !dbg !3613
  call void @llvm.dbg.value(metadata ptr undef, metadata !3605, metadata !DIExpression(DW_OP_LLVM_fragment, 192, 64)), !dbg !3613
  call void @llvm.dbg.value(metadata i64 0, metadata !3605, metadata !DIExpression(DW_OP_LLVM_fragment, 256, 64)), !dbg !3613
  call void @llvm.dbg.value(metadata ptr %_105.0.i.i, metadata !3605, metadata !DIExpression(DW_OP_LLVM_fragment, 0, 64)), !dbg !3613
  store ptr %_105.0.i.i, ptr %val.i.i, align 8, !dbg !3981, !noalias !3755
  %self.sroa.5.0.val.sroa_idx.i.i = getelementptr inbounds i8, ptr %val.i.i, i64 8, !dbg !3981
  store i64 %_105.1.i.i, ptr %self.sroa.5.0.val.sroa_idx.i.i, align 8, !dbg !3981, !noalias !3755
  %self.sroa.6.0.val.sroa_idx.i.i = getelementptr inbounds i8, ptr %val.i.i, i64 16, !dbg !3981
  store <2 x ptr> %15, ptr %self.sroa.6.0.val.sroa_idx.i.i, align 8, !dbg !3981, !noalias !3755
  %self.sroa.8.0.val.sroa_idx.i.i = getelementptr inbounds i8, ptr %val.i.i, i64 32, !dbg !3981
  store i64 0, ptr %self.sroa.8.0.val.sroa_idx.i.i, align 8, !dbg !3981, !noalias !3755
  call void @llvm.lifetime.start.p0(i64 48, ptr nonnull %_32.i.i), !dbg !3915, !noalias !3755
  store ptr @alloc_78d7ccbe3518eccf46d2a4c2fc0df13a, ptr %_32.i.i, align 8, !dbg !3982, !noalias !3755
  %16 = getelementptr inbounds i8, ptr %_32.i.i, i64 8, !dbg !3982
  store i64 1, ptr %16, align 8, !dbg !3982, !noalias !3755
  %17 = getelementptr inbounds i8, ptr %_32.i.i, i64 32, !dbg !3982
  store ptr null, ptr %17, align 8, !dbg !3982, !noalias !3755
  %18 = getelementptr inbounds i8, ptr %_32.i.i, i64 16, !dbg !3982
  store ptr inttoptr (i64 8 to ptr), ptr %18, align 8, !dbg !3982, !noalias !3755
  %19 = getelementptr inbounds i8, ptr %_32.i.i, i64 24, !dbg !3982
  store i64 0, ptr %19, align 8, !dbg !3982, !noalias !3755
  store ptr %val.i.i, ptr %_22.i.i, align 8, !dbg !3915, !noalias !3755
  %_23.sroa.4.0..sroa_idx.i.i = getelementptr inbounds i8, ptr %_22.i.i, i64 8, !dbg !3915
  store ptr %_32.i.i, ptr %_23.sroa.4.0..sroa_idx.i.i, align 8, !dbg !3915, !noalias !3755
  %_23.sroa.5.0..sroa_idx.i.i = getelementptr inbounds i8, ptr %_22.i.i, i64 16, !dbg !3915
  store ptr @vtable.b, ptr %_23.sroa.5.0..sroa_idx.i.i, align 8, !dbg !3915, !noalias !3755
  call void @llvm.lifetime.start.p0(i64 24, ptr nonnull %value_set.i.i), !dbg !3871, !noalias !3755
  store ptr %_22.i.i, ptr %value_set.i.i, align 8, !dbg !3871, !noalias !3755
  %_14.sroa.2.0.value_set.sroa_idx.i.i = getelementptr inbounds i8, ptr %value_set.i.i, i64 8, !dbg !3871
  store i64 1, ptr %_14.sroa.2.0.value_set.sroa_idx.i.i, align 8, !dbg !3871, !noalias !3755
  %_14.sroa.3.0.value_set.sroa_idx.i.i = getelementptr inbounds i8, ptr %value_set.i.i, i64 16, !dbg !3871
  store ptr %12, ptr %_14.sroa.3.0.value_set.sroa_idx.i.i, align 8, !dbg !3871, !noalias !3755
  call void @llvm.dbg.value(metadata ptr %self56.i.i, metadata !3983, metadata !DIExpression()), !dbg !4031
; invoke tracing_core::event::Event::dispatch
  invoke void @_ZN12tracing_core5event5Event8dispatch17h4b67a6f17dc31741E(ptr noalias noundef nonnull readonly align 8 dereferenceable(120) %self56.i.i, ptr noalias noundef nonnull readonly align 8 dereferenceable(24) %value_set.i.i)
          to label %bb46.i.i unwind label %cleanup.i.i, !dbg !4033, !noalias !3755

unreachable.i.i:                                  ; preds = %bb44.i.i
  unreachable

bb46.i.i:                                         ; preds = %bb45.i.i
  call void @llvm.lifetime.end.p0(i64 24, ptr nonnull %value_set.i.i), !dbg !3871, !noalias !3755
  call void @llvm.lifetime.end.p0(i64 48, ptr nonnull %_32.i.i), !dbg !3871, !noalias !3755
  call void @llvm.lifetime.end.p0(i64 40, ptr nonnull %val.i.i), !dbg !3871, !noalias !3755
  call void @llvm.lifetime.end.p0(i64 24, ptr nonnull %_22.i.i), !dbg !3871, !noalias !3755
  br label %bb41.i, !dbg !3871

terminate.i.i:                                    ; preds = %bb39.i.i, %cleanup.i.i
  %20 = landingpad { ptr, i32 }
          filter [0 x ptr] zeroinitializer
; call core::panicking::panic_in_cleanup
  call void @_ZN4core9panicking16panic_in_cleanup17h43442956f23e9cbeE() #21, !dbg !4034, !noalias !3755
  unreachable, !dbg !4034

bb19.i.i:                                         ; preds = %bb39.i
  %.sroa.4.0.extract.trunc.i.i = trunc i64 %_15.i.i.i to i16, !dbg !4035
  call void @llvm.lifetime.start.p0(i64 2, ptr nonnull %err.i.i), !dbg !4036, !noalias !3755
  store i16 %.sroa.4.0.extract.trunc.i.i, ptr %err.i.i, align 2, !dbg !4036, !noalias !3755
  call void @llvm.dbg.value(metadata !14, metadata !3787, metadata !DIExpression()), !dbg !4037
  call void @llvm.dbg.value(metadata !14, metadata !3812, metadata !DIExpression()), !dbg !4037
  call void @llvm.dbg.value(metadata ptr @_ZN12tracing_core8metadata9MAX_LEVEL17h2def28f3c9fb9790E, metadata !3815, metadata !DIExpression()), !dbg !4039
  call void @llvm.dbg.value(metadata i8 0, metadata !3819, metadata !DIExpression()), !dbg !4039
  call void @llvm.dbg.value(metadata i8 0, metadata !1425, metadata !DIExpression()), !dbg !4042
  call void @llvm.dbg.value(metadata ptr @_ZN12tracing_core8metadata9MAX_LEVEL17h2def28f3c9fb9790E, metadata !1431, metadata !DIExpression()), !dbg !4042
  %21 = load atomic i64, ptr @_ZN12tracing_core8metadata9MAX_LEVEL17h2def28f3c9fb9790E monotonic, align 8, !dbg !4044, !noalias !3755
  call void @llvm.dbg.value(metadata !14, metadata !3787, metadata !DIExpression()), !dbg !4045
  call void @llvm.dbg.value(metadata ptr undef, metadata !3812, metadata !DIExpression()), !dbg !4045
  %_0.i.i.i = icmp ult i64 %21, 4, !dbg !4047
  br i1 %_0.i.i.i, label %bb22.i.i, label %bb31.i.i, !dbg !4048

bb22.i.i:                                         ; preds = %bb19.i.i
  call void @llvm.dbg.value(metadata i8 0, metadata !3834, metadata !DIExpression()), !dbg !4049
  call void @llvm.dbg.value(metadata ptr @_ZN7polling5epoll8Notifier3new10__CALLSITE17h264b12b1c2376d77E, metadata !3850, metadata !DIExpression()), !dbg !4052
  call void @llvm.dbg.value(metadata ptr @_ZN7polling5epoll8Notifier3new10__CALLSITE17h264b12b1c2376d77E, metadata !3842, metadata !DIExpression(DW_OP_plus_uconst, 16, DW_OP_stack_value)), !dbg !4049
  call void @llvm.dbg.value(metadata i8 0, metadata !3853, metadata !DIExpression()), !dbg !4053
  call void @llvm.dbg.value(metadata ptr getelementptr inbounds (<{ ptr, [10 x i8], [6 x i8] }>, ptr @_ZN7polling5epoll8Notifier3new10__CALLSITE17h264b12b1c2376d77E, i64 0, i32 1, i64 8), metadata !3858, metadata !DIExpression()), !dbg !4053
  %22 = load atomic i8, ptr getelementptr inbounds (<{ ptr, [10 x i8], [6 x i8] }>, ptr @_ZN7polling5epoll8Notifier3new10__CALLSITE17h264b12b1c2376d77E, i64 0, i32 1, i64 8) monotonic, align 8, !dbg !4055, !noalias !3755
  switch i8 %22, label %_ZN12tracing_core8callsite15DefaultCallsite8interest17h7e55a3acd5f3d2c8E.exit145.i.i [
    i8 0, label %bb31.i.i
    i8 1, label %bb27.i.i
    i8 2, label %bb6.i140.i.i
  ], !dbg !4056

bb6.i140.i.i:                                     ; preds = %bb22.i.i
  br label %bb27.i.i, !dbg !4057

_ZN12tracing_core8callsite15DefaultCallsite8interest17h7e55a3acd5f3d2c8E.exit145.i.i: ; preds = %bb22.i.i
; invoke tracing_core::callsite::DefaultCallsite::register
  %23 = invoke noundef i8 @_ZN12tracing_core8callsite15DefaultCallsite8register17h1f01c6d2d83987b0E(ptr noundef nonnull align 8 @_ZN7polling5epoll8Notifier3new10__CALLSITE17h264b12b1c2376d77E)
          to label %.noexc128.i unwind label %cleanup.i, !dbg !4058, !noalias !3367

.noexc128.i:                                      ; preds = %_ZN12tracing_core8callsite15DefaultCallsite8interest17h7e55a3acd5f3d2c8E.exit145.i.i
  call void @llvm.dbg.value(metadata i8 %23, metadata !3526, metadata !DIExpression()), !dbg !4059
  %24 = icmp eq i8 %23, 0, !dbg !4060
  br i1 %24, label %bb31.i.i, label %bb27.i.i, !dbg !4060

bb31.i.i:                                         ; preds = %.noexc131.i, %.noexc129.i, %.noexc128.i, %bb22.i.i, %bb19.i.i
  call void @llvm.lifetime.end.p0(i64 2, ptr nonnull %err.i.i), !dbg !4061, !noalias !3755
  call void @llvm.dbg.value(metadata i64 293, metadata !4062, metadata !DIExpression()), !dbg !4070
  call void @llvm.dbg.value(metadata i32 524288, metadata !4078, metadata !DIExpression()), !dbg !4100
  call void @llvm.dbg.declare(metadata ptr %result.i.i.i, metadata !4079, metadata !DIExpression()), !dbg !4101
  call void @llvm.lifetime.start.p0(i64 8, ptr nonnull %result.i.i.i), !dbg !4102, !noalias !3755, !unsafe_inst !3460
  call void @llvm.dbg.value(metadata ptr %result.i.i.i, metadata !4066, metadata !DIExpression()), !dbg !4070
  call void @llvm.dbg.value(metadata ptr inttoptr (i64 524288 to ptr), metadata !4067, metadata !DIExpression()), !dbg !4070
  %25 = call { ptr, i32, i32 } asm sideeffect inteldialect "syscall", "={ax},={cx},={r11},{ax},{di},{si},~{memory}"(ptr nonnull inttoptr (i64 293 to ptr), ptr nonnull %result.i.i.i, ptr nonnull inttoptr (i64 524288 to ptr)) #22, !dbg !4103, !noalias !3755, !srcloc !4104
  %26 = extractvalue { ptr, i32, i32 } %25, 0, !dbg !4103
  call void @llvm.dbg.value(metadata ptr %26, metadata !4068, metadata !DIExpression()), !dbg !4105
  call void @llvm.dbg.value(metadata ptr %26, metadata !4106, metadata !DIExpression()), !dbg !4114
  call void @llvm.dbg.value(metadata ptr %26, metadata !4146, metadata !DIExpression()), !dbg !4148
  call void @llvm.dbg.value(metadata ptr %26, metadata !4141, metadata !DIExpression()), !dbg !4149
  call void @llvm.dbg.value(metadata ptr undef, metadata !4120, metadata !DIExpression()), !dbg !4150
  call void @llvm.dbg.value(metadata ptr %26, metadata !4151, metadata !DIExpression()), !dbg !4158
  %_31.not.i.i.i = icmp eq ptr %26, null, !dbg !4160
  br i1 %_31.not.i.i.i, label %_ZN6rustix7backend4pipe8syscalls9pipe_with17h9d50eea7430f8995E.exit.i.i, label %_ZN6rustix7backend4pipe8syscalls9pipe_with17h9d50eea7430f8995E.exit.thread.i.i, !dbg !4161

_ZN6rustix7backend4pipe8syscalls9pipe_with17h9d50eea7430f8995E.exit.thread.i.i: ; preds = %bb31.i.i
  call void @llvm.lifetime.end.p0(i64 8, ptr nonnull %result.i.i.i), !dbg !4162, !noalias !3755, !unsafe_inst !3460
  call void @llvm.dbg.value(metadata i64 4294967295, metadata !3701, metadata !DIExpression(DW_OP_LLVM_convert, 64, DW_ATE_unsigned, DW_OP_LLVM_convert, 32, DW_ATE_unsigned, DW_OP_stack_value, DW_OP_LLVM_fragment, 0, 32)), !dbg !4163
  call void @llvm.dbg.value(metadata !DIArgList(i64 poison, i64 poison), metadata !3701, metadata !DIExpression(DW_OP_LLVM_arg, 0, DW_OP_LLVM_arg, 1, DW_OP_constu, 65535, DW_OP_and, DW_OP_or, DW_OP_LLVM_convert, 64, DW_ATE_unsigned, DW_OP_LLVM_convert, 32, DW_ATE_unsigned, DW_OP_stack_value, DW_OP_LLVM_fragment, 32, 32)), !dbg !4163
  br label %bb51.i.i, !dbg !4164

_ZN6rustix7backend4pipe8syscalls9pipe_with17h9d50eea7430f8995E.exit.i.i: ; preds = %bb31.i.i
  %self5.sroa.0.0.copyload.i.i.i = load i64, ptr %result.i.i.i, align 8, !dbg !4165, !noalias !3755
  call void @llvm.dbg.value(metadata i64 %self5.sroa.0.0.copyload.i.i.i, metadata !4166, metadata !DIExpression()), !dbg !4174
  call void @llvm.lifetime.end.p0(i64 8, ptr nonnull %result.i.i.i), !dbg !4162, !noalias !3755, !unsafe_inst !3460
  %.sroa.0117.0.extract.trunc.i.i = trunc i64 %self5.sroa.0.0.copyload.i.i.i to i32, !dbg !4176
  call void @llvm.dbg.value(metadata i32 %.sroa.0117.0.extract.trunc.i.i, metadata !3701, metadata !DIExpression(DW_OP_LLVM_fragment, 0, 32)), !dbg !4163
  call void @llvm.dbg.value(metadata !DIArgList(i64 %self5.sroa.0.0.copyload.i.i.i, i64 %self5.sroa.0.0.copyload.i.i.i), metadata !3701, metadata !DIExpression(DW_OP_LLVM_arg, 0, DW_OP_constu, 32, DW_OP_shr, DW_OP_constu, 4294901760, DW_OP_and, DW_OP_LLVM_arg, 1, DW_OP_constu, 32, DW_OP_shr, DW_OP_constu, 65535, DW_OP_and, DW_OP_or, DW_OP_LLVM_convert, 64, DW_ATE_unsigned, DW_OP_LLVM_convert, 32, DW_ATE_unsigned, DW_OP_stack_value, DW_OP_LLVM_fragment, 32, 32)), !dbg !4163
  %27 = icmp eq i32 %.sroa.0117.0.extract.trunc.i.i, -1, !dbg !4177
  br i1 %27, label %bb51.i.i, label %bb52.i.i, !dbg !4164

bb27.i.i:                                         ; preds = %.noexc128.i, %bb6.i140.i.i, %bb22.i.i
  %_0.sroa.0.0.i142203.i.i = phi i8 [ %23, %.noexc128.i ], [ 2, %bb6.i140.i.i ], [ %22, %bb22.i.i ]
  %_44.i.i = load ptr, ptr @_ZN7polling5epoll8Notifier3new10__CALLSITE17h264b12b1c2376d77E, align 8, !dbg !4178, !noalias !3755, !nonnull !14, !align !1068, !noundef !14
; invoke tracing::__macro_support::__is_enabled
  %28 = invoke noundef zeroext i1 @_ZN7tracing15__macro_support12__is_enabled17h74586a1e8af97b13E(ptr noalias noundef nonnull readonly align 8 dereferenceable(120) %_44.i.i, i8 noundef %_0.sroa.0.0.i142203.i.i)
          to label %.noexc129.i unwind label %cleanup.i, !dbg !4060, !noalias !3367

.noexc129.i:                                      ; preds = %bb27.i.i
  call void @llvm.dbg.value(metadata i1 %28, metadata !3523, metadata !DIExpression(DW_OP_LLVM_convert, 1, DW_ATE_unsigned, DW_OP_LLVM_convert, 8, DW_ATE_unsigned, DW_OP_stack_value)), !dbg !4179
  br i1 %28, label %bb29.i.i, label %bb31.i.i, !dbg !4180

bb29.i.i:                                         ; preds = %.noexc129.i
  %self65.i.i = load ptr, ptr @_ZN7polling5epoll8Notifier3new10__CALLSITE17h264b12b1c2376d77E, align 8, !dbg !4181, !noalias !3755, !nonnull !14, !align !1068, !noundef !14
  call void @llvm.dbg.value(metadata ptr %self65.i.i, metadata !3883, metadata !DIExpression(DW_OP_plus_uconst, 48, DW_OP_stack_value)), !dbg !4182
  call void @llvm.dbg.value(metadata ptr %self65.i.i, metadata !3896, metadata !DIExpression(DW_OP_plus_uconst, 48, DW_OP_stack_value)), !dbg !4184
  call void @llvm.dbg.value(metadata ptr %self65.i.i, metadata !3907, metadata !DIExpression(DW_OP_plus_uconst, 48, DW_OP_stack_value)), !dbg !4186
  %29 = getelementptr inbounds i8, ptr %self65.i.i, i64 48, !dbg !4188
  %_121.0.i.i = load ptr, ptr %29, align 8, !dbg !4188, !noalias !3755, !nonnull !14, !align !1068, !noundef !14
  %30 = getelementptr inbounds i8, ptr %self65.i.i, i64 56, !dbg !4188
  %_121.1.i.i = load i64, ptr %30, align 8, !dbg !4188, !noalias !3755, !noundef !14
  call void @llvm.dbg.value(metadata i64 0, metadata !3885, metadata !DIExpression(DW_OP_LLVM_fragment, 0, 64)), !dbg !4189
  call void @llvm.dbg.value(metadata i64 %_121.1.i.i, metadata !3885, metadata !DIExpression(DW_OP_LLVM_fragment, 64, 64)), !dbg !4189
  %31 = getelementptr inbounds i8, ptr %self65.i.i, i64 64, !dbg !4190
  %32 = load <2 x ptr>, ptr %31, align 8, !dbg !4190, !noalias !3755
  call void @llvm.dbg.value(metadata i64 0, metadata !3529, metadata !DIExpression(DW_OP_LLVM_fragment, 256, 64)), !dbg !4191
  call void @llvm.dbg.value(metadata i64 %_121.1.i.i, metadata !3529, metadata !DIExpression(DW_OP_LLVM_fragment, 320, 64)), !dbg !4191
  call void @llvm.dbg.value(metadata ptr %_121.0.i.i, metadata !3529, metadata !DIExpression(DW_OP_LLVM_fragment, 0, 64)), !dbg !4191
  call void @llvm.dbg.value(metadata i64 %_121.1.i.i, metadata !3529, metadata !DIExpression(DW_OP_LLVM_fragment, 64, 64)), !dbg !4191
  call void @llvm.dbg.value(metadata ptr undef, metadata !3529, metadata !DIExpression(DW_OP_LLVM_fragment, 128, 64)), !dbg !4191
  call void @llvm.dbg.value(metadata ptr undef, metadata !3529, metadata !DIExpression(DW_OP_LLVM_fragment, 192, 64)), !dbg !4191
  call void @llvm.lifetime.start.p0(i64 24, ptr nonnull %_54.i.i), !dbg !4192, !noalias !3755
  call void @llvm.lifetime.start.p0(i64 40, ptr nonnull %val40.i.i), !dbg !4192, !noalias !3755
  call void @llvm.dbg.value(metadata ptr undef, metadata !3916, metadata !DIExpression()), !dbg !4193
  call void @llvm.dbg.value(metadata ptr undef, metadata !3942, metadata !DIExpression(DW_OP_plus_uconst, 32, DW_OP_stack_value)), !dbg !4195
  call void @llvm.dbg.value(metadata ptr undef, metadata !3957, metadata !DIExpression(DW_OP_plus_uconst, 32, DW_OP_stack_value)), !dbg !4197
  call void @llvm.dbg.value(metadata ptr undef, metadata !3966, metadata !DIExpression(DW_OP_plus_uconst, 32, DW_OP_stack_value)), !dbg !4199
  call void @llvm.dbg.value(metadata ptr undef, metadata !3975, metadata !DIExpression(DW_OP_plus_uconst, 8, DW_OP_stack_value)), !dbg !4199
  %_11.i153.not.i.i = icmp eq i64 %_121.1.i.i, 0, !dbg !4201
  br i1 %_11.i153.not.i.i, label %bb47.i.i, label %bb48.i.i, !dbg !4202

bb47.i.i:                                         ; preds = %bb29.i.i
  call void @llvm.dbg.value(metadata i64 0, metadata !3608, metadata !DIExpression(DW_OP_LLVM_fragment, 256, 64)), !dbg !3625
  call void @llvm.dbg.value(metadata ptr undef, metadata !3608, metadata !DIExpression(DW_OP_LLVM_fragment, 192, 64)), !dbg !3625
  call void @llvm.dbg.value(metadata ptr undef, metadata !3608, metadata !DIExpression(DW_OP_LLVM_fragment, 128, 64)), !dbg !3625
  call void @llvm.dbg.value(metadata i64 %_121.1.i.i, metadata !3608, metadata !DIExpression(DW_OP_LLVM_fragment, 64, 64)), !dbg !3625
  call void @llvm.dbg.value(metadata ptr null, metadata !3608, metadata !DIExpression(DW_OP_LLVM_fragment, 0, 64)), !dbg !3625
; invoke core::option::expect_failed
  invoke void @_ZN4core6option13expect_failed17h28cbd671da1a9710E(ptr noalias noundef nonnull readonly align 1 @alloc_f60ee9d3a28ecf6e14a79771b3c5296b, i64 noundef 34, ptr noalias noundef nonnull readonly align 8 dereferenceable(24) @alloc_29bf9fb9195b06f6e22193fcca449617) #23
          to label %.noexc130.i unwind label %cleanup.i, !dbg !4203, !noalias !3367

.noexc130.i:                                      ; preds = %bb47.i.i
  unreachable, !dbg !4203

bb48.i.i:                                         ; preds = %bb29.i.i
  call void @llvm.dbg.value(metadata i64 0, metadata !3529, metadata !DIExpression(DW_OP_plus_uconst, 1, DW_OP_stack_value, DW_OP_LLVM_fragment, 256, 64)), !dbg !4191
  call void @llvm.dbg.value(metadata i64 0, metadata !3608, metadata !DIExpression(DW_OP_LLVM_fragment, 256, 64)), !dbg !3625
  call void @llvm.dbg.value(metadata ptr undef, metadata !3608, metadata !DIExpression(DW_OP_LLVM_fragment, 192, 64)), !dbg !3625
  call void @llvm.dbg.value(metadata ptr undef, metadata !3608, metadata !DIExpression(DW_OP_LLVM_fragment, 128, 64)), !dbg !3625
  call void @llvm.dbg.value(metadata i64 %_121.1.i.i, metadata !3608, metadata !DIExpression(DW_OP_LLVM_fragment, 64, 64)), !dbg !3625
  call void @llvm.dbg.value(metadata ptr %_121.0.i.i, metadata !3608, metadata !DIExpression(DW_OP_LLVM_fragment, 0, 64)), !dbg !3625
  store ptr %_121.0.i.i, ptr %val40.i.i, align 8, !dbg !4204, !noalias !3755
  %self41.sroa.5.0.val40.sroa_idx.i.i = getelementptr inbounds i8, ptr %val40.i.i, i64 8, !dbg !4204
  store i64 %_121.1.i.i, ptr %self41.sroa.5.0.val40.sroa_idx.i.i, align 8, !dbg !4204, !noalias !3755
  %self41.sroa.6.0.val40.sroa_idx.i.i = getelementptr inbounds i8, ptr %val40.i.i, i64 16, !dbg !4204
  store <2 x ptr> %32, ptr %self41.sroa.6.0.val40.sroa_idx.i.i, align 8, !dbg !4204, !noalias !3755
  %self41.sroa.8.0.val40.sroa_idx.i.i = getelementptr inbounds i8, ptr %val40.i.i, i64 32, !dbg !4204
  store i64 0, ptr %self41.sroa.8.0.val40.sroa_idx.i.i, align 8, !dbg !4204, !noalias !3755
  call void @llvm.lifetime.start.p0(i64 48, ptr nonnull %_64.i.i), !dbg !4192, !noalias !3755
  call void @llvm.lifetime.start.p0(i64 16, ptr nonnull %_66.i.i), !dbg !4192, !noalias !3755
  store ptr %err.i.i, ptr %_66.i.i, align 8, !dbg !4192, !noalias !3755
  %_67.sroa.4.0..sroa_idx.i.i = getelementptr inbounds i8, ptr %_66.i.i, i64 8, !dbg !4192
  store ptr @"_ZN6rustix2io5errno82_$LT$impl$u20$core..fmt..Display$u20$for$u20$rustix..backend..io..errno..Errno$GT$3fmt17ha3470fea82d8a5eaE", ptr %_67.sroa.4.0..sroa_idx.i.i, align 8, !dbg !4192, !noalias !3755
  call void @llvm.dbg.value(metadata ptr %_66.i.i, metadata !3640, metadata !DIExpression()), !dbg !3641
  store ptr @alloc_8712fcc692c6c004559a17619fffbff1, ptr %_64.i.i, align 8, !dbg !4205, !noalias !3755
  %33 = getelementptr inbounds i8, ptr %_64.i.i, i64 8, !dbg !4205
  store i64 2, ptr %33, align 8, !dbg !4205, !noalias !3755
  %34 = getelementptr inbounds i8, ptr %_64.i.i, i64 32, !dbg !4205
  store ptr null, ptr %34, align 8, !dbg !4205, !noalias !3755
  %35 = getelementptr inbounds i8, ptr %_64.i.i, i64 16, !dbg !4205
  store ptr %_66.i.i, ptr %35, align 8, !dbg !4205, !noalias !3755
  %36 = getelementptr inbounds i8, ptr %_64.i.i, i64 24, !dbg !4205
  store i64 1, ptr %36, align 8, !dbg !4205, !noalias !3755
  store ptr %val40.i.i, ptr %_54.i.i, align 8, !dbg !4192, !noalias !3755
  %_55.sroa.4.0..sroa_idx.i.i = getelementptr inbounds i8, ptr %_54.i.i, i64 8, !dbg !4192
  store ptr %_64.i.i, ptr %_55.sroa.4.0..sroa_idx.i.i, align 8, !dbg !4192, !noalias !3755
  %_55.sroa.5.0..sroa_idx.i.i = getelementptr inbounds i8, ptr %_54.i.i, i64 16, !dbg !4192
  store ptr @vtable.b, ptr %_55.sroa.5.0..sroa_idx.i.i, align 8, !dbg !4192, !noalias !3755
  call void @llvm.lifetime.start.p0(i64 24, ptr nonnull %value_set48.i.i), !dbg !4180, !noalias !3755
  store ptr %_54.i.i, ptr %value_set48.i.i, align 8, !dbg !4180, !noalias !3755
  %_46.sroa.2.0.value_set48.sroa_idx.i.i = getelementptr inbounds i8, ptr %value_set48.i.i, i64 8, !dbg !4180
  store i64 1, ptr %_46.sroa.2.0.value_set48.sroa_idx.i.i, align 8, !dbg !4180, !noalias !3755
  %_46.sroa.3.0.value_set48.sroa_idx.i.i = getelementptr inbounds i8, ptr %value_set48.i.i, i64 16, !dbg !4180
  store ptr %29, ptr %_46.sroa.3.0.value_set48.sroa_idx.i.i, align 8, !dbg !4180, !noalias !3755
  call void @llvm.dbg.value(metadata ptr %self65.i.i, metadata !4206, metadata !DIExpression()), !dbg !4218
; invoke tracing_core::event::Event::dispatch
  invoke void @_ZN12tracing_core5event5Event8dispatch17h4b67a6f17dc31741E(ptr noalias noundef nonnull readonly align 8 dereferenceable(120) %self65.i.i, ptr noalias noundef nonnull readonly align 8 dereferenceable(24) %value_set48.i.i)
          to label %.noexc131.i unwind label %cleanup.i, !dbg !4220, !noalias !3367

.noexc131.i:                                      ; preds = %bb48.i.i
  call void @llvm.lifetime.end.p0(i64 24, ptr nonnull %value_set48.i.i), !dbg !4180, !noalias !3755
  call void @llvm.lifetime.end.p0(i64 16, ptr nonnull %_66.i.i), !dbg !4180, !noalias !3755
  call void @llvm.lifetime.end.p0(i64 48, ptr nonnull %_64.i.i), !dbg !4180, !noalias !3755
  call void @llvm.lifetime.end.p0(i64 40, ptr nonnull %val40.i.i), !dbg !4180, !noalias !3755
  call void @llvm.lifetime.end.p0(i64 24, ptr nonnull %_54.i.i), !dbg !4180, !noalias !3755
  br label %bb31.i.i, !dbg !4180

bb52.i.i:                                         ; preds = %_ZN6rustix7backend4pipe8syscalls9pipe_with17h9d50eea7430f8995E.exit.i.i
  %slot.sroa.4.0.extract.shift.i.i.i = lshr i64 %self5.sroa.0.0.copyload.i.i.i, 32, !dbg !4221
  call void @llvm.dbg.value(metadata i32 %.sroa.0117.0.extract.trunc.i.i, metadata !4222, metadata !DIExpression(DW_OP_LLVM_fragment, 32, 32)), !dbg !4250
  call void @llvm.dbg.value(metadata i64 %slot.sroa.4.0.extract.shift.i.i.i, metadata !3701, metadata !DIExpression(DW_OP_LLVM_fragment, 32, 32)), !dbg !4163
  call void @llvm.dbg.value(metadata i64 %slot.sroa.4.0.extract.shift.i.i.i, metadata !4222, metadata !DIExpression(DW_OP_LLVM_fragment, 64, 64)), !dbg !4250
  call void @llvm.dbg.value(metadata i32 0, metadata !4222, metadata !DIExpression(DW_OP_LLVM_fragment, 0, 32)), !dbg !4250
  %.pre.i.i = trunc i64 %slot.sroa.4.0.extract.shift.i.i.i to i32, !dbg !4251
  br label %bb32.i.i, !dbg !4252

bb51.i.i:                                         ; preds = %_ZN6rustix7backend4pipe8syscalls9pipe_with17h9d50eea7430f8995E.exit.i.i, %_ZN6rustix7backend4pipe8syscalls9pipe_with17h9d50eea7430f8995E.exit.thread.i.i
  call void @llvm.dbg.value(metadata !DIArgList(i64 poison, i64 poison), metadata !3704, metadata !DIExpression(DW_OP_LLVM_arg, 0, DW_OP_LLVM_arg, 1, DW_OP_constu, 65535, DW_OP_and, DW_OP_or, DW_OP_LLVM_convert, 64, DW_ATE_unsigned, DW_OP_LLVM_convert, 16, DW_ATE_unsigned, DW_OP_stack_value)), !dbg !4253
  call void @llvm.dbg.value(metadata i32 0, metadata !4254, metadata !DIExpression()), !dbg !4271
  call void @llvm.dbg.value(metadata i32 1, metadata !4376, metadata !DIExpression()), !dbg !4403
  call void @llvm.dbg.value(metadata i32 0, metadata !4259, metadata !DIExpression()), !dbg !4444
  call void @llvm.dbg.value(metadata i32 1, metadata !4400, metadata !DIExpression()), !dbg !4450
  call void @llvm.dbg.value(metadata i32 0, metadata !4265, metadata !DIExpression()), !dbg !4455
  call void @llvm.dbg.declare(metadata ptr undef, metadata !4373, metadata !DIExpression()), !dbg !4461
  call void @llvm.dbg.value(metadata !DIArgList(i64 poison, i64 poison), metadata !4374, metadata !DIExpression(DW_OP_LLVM_arg, 0, DW_OP_LLVM_arg, 1, DW_OP_constu, 65535, DW_OP_and, DW_OP_or, DW_OP_LLVM_convert, 64, DW_ATE_unsigned, DW_OP_LLVM_convert, 16, DW_ATE_unsigned, DW_OP_stack_value)), !dbg !4462
  call void @llvm.dbg.value(metadata i64 22, metadata !4463, metadata !DIExpression()), !dbg !4470
  call void @llvm.dbg.declare(metadata ptr %result.i.i.i.i, metadata !4478, metadata !DIExpression()), !dbg !4490
  call void @llvm.lifetime.start.p0(i64 8, ptr nonnull %result.i.i.i.i), !dbg !4491, !noalias !4492, !unsafe_inst !3460
  call void @llvm.dbg.value(metadata ptr %result.i.i.i.i, metadata !4467, metadata !DIExpression()), !dbg !4470
  %37 = call { ptr, i32, i32 } asm sideeffect inteldialect "syscall", "={ax},={cx},={r11},{ax},{di},~{memory}"(ptr nonnull inttoptr (i64 22 to ptr), ptr nonnull %result.i.i.i.i) #22, !dbg !4495, !noalias !4492, !srcloc !4496
  %38 = extractvalue { ptr, i32, i32 } %37, 0, !dbg !4495
  call void @llvm.dbg.value(metadata ptr %38, metadata !4468, metadata !DIExpression()), !dbg !4497
  call void @llvm.dbg.value(metadata ptr %38, metadata !4498, metadata !DIExpression()), !dbg !4502
  call void @llvm.dbg.value(metadata ptr %38, metadata !4517, metadata !DIExpression()), !dbg !4519
  call void @llvm.dbg.value(metadata ptr %38, metadata !4512, metadata !DIExpression()), !dbg !4520
  call void @llvm.dbg.value(metadata ptr undef, metadata !4507, metadata !DIExpression()), !dbg !4521
  call void @llvm.dbg.value(metadata ptr %38, metadata !4522, metadata !DIExpression()), !dbg !4526
  call void @llvm.dbg.value(metadata ptr %38, metadata !4528, metadata !DIExpression()), !dbg !4534
  %_24.not.i.i.i.i = icmp eq ptr %38, null, !dbg !4536
  br i1 %_24.not.i.i.i.i, label %_ZN6rustix7backend4pipe8syscalls4pipe17h08df8d219e852bcaE.exit.i.i.i, label %_ZN6rustix7backend4pipe8syscalls4pipe17h08df8d219e852bcaE.exit.thread.i.i.i, !dbg !4537

_ZN6rustix7backend4pipe8syscalls4pipe17h08df8d219e852bcaE.exit.thread.i.i.i: ; preds = %bb51.i.i
  %_26.i.i.i.i = ptrtoint ptr %38 to i64, !dbg !4538
  call void @llvm.lifetime.end.p0(i64 8, ptr nonnull %result.i.i.i.i), !dbg !4539, !noalias !4492, !unsafe_inst !3460
  call void @llvm.dbg.value(metadata i32 -1, metadata !4540, metadata !DIExpression(DW_OP_LLVM_fragment, 0, 32)), !dbg !4565
  call void @llvm.dbg.value(metadata !DIArgList(i64 0, i64 %_26.i.i.i.i), metadata !4540, metadata !DIExpression(DW_OP_LLVM_arg, 0, DW_OP_LLVM_arg, 1, DW_OP_constu, 65535, DW_OP_and, DW_OP_or, DW_OP_LLVM_convert, 64, DW_ATE_unsigned, DW_OP_LLVM_convert, 32, DW_ATE_unsigned, DW_OP_stack_value, DW_OP_LLVM_fragment, 32, 32)), !dbg !4565
  br label %bb16.i.i.i, !dbg !4566

_ZN6rustix7backend4pipe8syscalls4pipe17h08df8d219e852bcaE.exit.i.i.i: ; preds = %bb51.i.i
  %self4.sroa.0.0.copyload.i.i.i.i = load i64, ptr %result.i.i.i.i, align 8, !dbg !4567, !noalias !4492
  call void @llvm.dbg.value(metadata i64 %self4.sroa.0.0.copyload.i.i.i.i, metadata !4568, metadata !DIExpression()), !dbg !4572
  %slot.sroa.4.0.extract.shift.i.i.i.i = lshr i64 %self4.sroa.0.0.copyload.i.i.i.i, 32, !dbg !4574
  call void @llvm.lifetime.end.p0(i64 8, ptr nonnull %result.i.i.i.i), !dbg !4539, !noalias !4492, !unsafe_inst !3460
  %39 = trunc i64 %self4.sroa.0.0.copyload.i.i.i.i to i32, !dbg !4575
  call void @llvm.dbg.value(metadata i32 %39, metadata !4540, metadata !DIExpression(DW_OP_LLVM_fragment, 0, 32)), !dbg !4565
  call void @llvm.dbg.value(metadata !DIArgList(i64 %slot.sroa.4.0.extract.shift.i.i.i.i, i64 %slot.sroa.4.0.extract.shift.i.i.i.i), metadata !4540, metadata !DIExpression(DW_OP_LLVM_arg, 0, DW_OP_constu, 4294901760, DW_OP_and, DW_OP_LLVM_arg, 1, DW_OP_constu, 65535, DW_OP_and, DW_OP_or, DW_OP_LLVM_convert, 64, DW_ATE_unsigned, DW_OP_LLVM_convert, 32, DW_ATE_unsigned, DW_OP_stack_value, DW_OP_LLVM_fragment, 32, 32)), !dbg !4565
  %40 = icmp eq i32 %39, -1, !dbg !4576
  br i1 %40, label %bb16.i.i.i, label %bb2.i167.i.i, !dbg !4566

bb16.i.i.i:                                       ; preds = %_ZN6rustix7backend4pipe8syscalls4pipe17h08df8d219e852bcaE.exit.i.i.i, %_ZN6rustix7backend4pipe8syscalls4pipe17h08df8d219e852bcaE.exit.thread.i.i.i
  %_0.sroa.3.sroa.0.0.in.i170.i.i.i = phi i64 [ %_26.i.i.i.i, %_ZN6rustix7backend4pipe8syscalls4pipe17h08df8d219e852bcaE.exit.thread.i.i.i ], [ %slot.sroa.4.0.extract.shift.i.i.i.i, %_ZN6rustix7backend4pipe8syscalls4pipe17h08df8d219e852bcaE.exit.i.i.i ]
  %self.sroa.6.4.extract.trunc.i.i.i = trunc i64 %_0.sroa.3.sroa.0.0.in.i170.i.i.i to i32, !dbg !4577
  call void @llvm.dbg.value(metadata !DIArgList(i64 poison, i64 poison), metadata !4346, metadata !DIExpression(DW_OP_LLVM_arg, 0, DW_OP_LLVM_arg, 1, DW_OP_constu, 65535, DW_OP_and, DW_OP_or, DW_OP_LLVM_convert, 64, DW_ATE_unsigned, DW_OP_LLVM_convert, 16, DW_ATE_unsigned, DW_OP_stack_value)), !dbg !4578
  call void @llvm.dbg.value(metadata !DIArgList(i64 poison, i64 poison), metadata !4318, metadata !DIExpression(DW_OP_LLVM_arg, 0, DW_OP_LLVM_arg, 1, DW_OP_constu, 65535, DW_OP_and, DW_OP_or, DW_OP_LLVM_convert, 64, DW_ATE_unsigned, DW_OP_LLVM_convert, 16, DW_ATE_unsigned, DW_OP_stack_value)), !dbg !4579
  call void @llvm.dbg.value(metadata !DIArgList(i64 poison, i64 poison), metadata !4319, metadata !DIExpression(DW_OP_LLVM_arg, 0, DW_OP_LLVM_arg, 1, DW_OP_constu, 65535, DW_OP_and, DW_OP_or, DW_OP_LLVM_convert, 64, DW_ATE_unsigned, DW_OP_LLVM_convert, 16, DW_ATE_unsigned, DW_OP_stack_value)), !dbg !4580
  call void @llvm.dbg.value(metadata !DIArgList(i64 poison, i64 poison), metadata !4302, metadata !DIExpression(DW_OP_LLVM_arg, 0, DW_OP_LLVM_arg, 1, DW_OP_constu, 65535, DW_OP_and, DW_OP_or, DW_OP_LLVM_convert, 64, DW_ATE_unsigned, DW_OP_LLVM_convert, 16, DW_ATE_unsigned, DW_OP_stack_value)), !dbg !4581
  call void @llvm.dbg.value(metadata !DIArgList(i64 poison, i64 poison), metadata !4289, metadata !DIExpression(DW_OP_LLVM_arg, 0, DW_OP_LLVM_arg, 1, DW_OP_constu, 65535, DW_OP_and, DW_OP_or, DW_OP_LLVM_convert, 64, DW_ATE_unsigned, DW_OP_LLVM_convert, 16, DW_ATE_unsigned, DW_OP_stack_value)), !dbg !4582
  %sext.i.i.i = shl i32 %self.sroa.6.4.extract.trunc.i.i.i, 16, !dbg !4583
  %self94.i.i.i = ashr exact i32 %sext.i.i.i, 16, !dbg !4583
  call void @llvm.dbg.value(metadata i32 %self94.i.i.i, metadata !4276, metadata !DIExpression()), !dbg !4584
  call void @llvm.dbg.value(metadata i32 %self94.i.i.i, metadata !4258, metadata !DIExpression()), !dbg !4271
  %code96.i.i.i = sub nsw i32 0, %self94.i.i.i, !dbg !4585
  call void @llvm.dbg.value(metadata i32 %code96.i.i.i, metadata !4586, metadata !DIExpression()), !dbg !4602
  call void @llvm.dbg.value(metadata i32 %code96.i.i.i, metadata !4604, metadata !DIExpression()), !dbg !4659
  %_40.i.i.i = sext i32 %code96.i.i.i to i64, !dbg !4661
  %_39.i.i.i = shl nsw i64 %_40.i.i.i, 32, !dbg !4662
  call void @llvm.dbg.value(metadata !DIArgList(ptr null, i64 %_39.i.i.i), metadata !4222, metadata !DIExpression(DW_OP_LLVM_arg, 0, DW_OP_LLVM_arg, 1, DW_OP_constu, 2, DW_OP_or, DW_OP_constu, 1, DW_OP_mul, DW_OP_plus, DW_OP_stack_value, DW_OP_LLVM_fragment, 64, 64)), !dbg !4250
  call void @llvm.dbg.value(metadata i32 1, metadata !4222, metadata !DIExpression(DW_OP_LLVM_fragment, 0, 32)), !dbg !4250
  br label %bb40.i, !dbg !4663

cleanup.i.i.i:                                    ; preds = %bb2.i.i.i132.i.i.i
  %41 = landingpad { ptr, i32 }
          cleanup
  call void @llvm.dbg.value(metadata ptr undef, metadata !2390, metadata !DIExpression()), !dbg !4665
  call void @llvm.dbg.value(metadata ptr undef, metadata !2402, metadata !DIExpression()), !dbg !4667
  %_4.i.i117.i.i.i = invoke noundef i32 @close(i32 noundef -1)
          to label %bb13.i.i.i unwind label %terminate.i.i.i, !dbg !4669, !noalias !4492

bb2.i167.i.i:                                     ; preds = %_ZN6rustix7backend4pipe8syscalls4pipe17h08df8d219e852bcaE.exit.i.i.i
  %.sroa.4.0.extract.trunc.i.i.i = trunc i64 %slot.sroa.4.0.extract.shift.i.i.i.i to i32, !dbg !4575
  call void @llvm.dbg.value(metadata i32 %.sroa.4.0.extract.trunc.i.i.i, metadata !4540, metadata !DIExpression(DW_OP_LLVM_fragment, 32, 32)), !dbg !4565
  call void @llvm.dbg.value(metadata i32 %39, metadata !4343, metadata !DIExpression()), !dbg !4670
  call void @llvm.dbg.value(metadata i32 %.sroa.4.0.extract.trunc.i.i.i, metadata !4345, metadata !DIExpression()), !dbg !4670
  call void @llvm.dbg.value(metadata ptr undef, metadata !4671, metadata !DIExpression()), !dbg !4695
  call void @llvm.dbg.value(metadata ptr undef, metadata !4697, metadata !DIExpression()), !dbg !4703
  call void @llvm.dbg.value(metadata ptr undef, metadata !4705, metadata !DIExpression()), !dbg !4711
  call void @llvm.dbg.value(metadata i32 %39, metadata !4713, metadata !DIExpression()), !dbg !4720
  call void @llvm.dbg.value(metadata i64 72, metadata !4722, metadata !DIExpression()), !dbg !4730
  call void @llvm.dbg.value(metadata i32 %39, metadata !4739, metadata !DIExpression()), !dbg !4741
  call void @llvm.dbg.value(metadata i32 %39, metadata !4742, metadata !DIExpression()), !dbg !4752
  call void @llvm.dbg.value(metadata i32 %39, metadata !4754, metadata !DIExpression()), !dbg !4761
  call void @llvm.dbg.value(metadata i32 %39, metadata !4763, metadata !DIExpression()), !dbg !4771
  call void @llvm.dbg.value(metadata i32 %39, metadata !4769, metadata !DIExpression()), !dbg !4773
  %t.i.i.i.i.i = and i64 %self4.sroa.0.0.copyload.i.i.i.i, 4294967295, !dbg !4774
  call void @llvm.dbg.value(metadata i64 %t.i.i.i.i.i, metadata !4775, metadata !DIExpression()), !dbg !4781
  %raw.i.i.i.i.i = inttoptr i64 %t.i.i.i.i.i to ptr, !dbg !4783
  call void @llvm.dbg.value(metadata ptr %raw.i.i.i.i.i, metadata !4726, metadata !DIExpression()), !dbg !4730
  call void @llvm.dbg.value(metadata ptr inttoptr (i64 1 to ptr), metadata !4727, metadata !DIExpression()), !dbg !4730
  %42 = call { ptr, i32, i32 } asm sideeffect inteldialect "syscall", "={ax},={cx},={r11},{ax},{di},{si},~{memory}"(ptr nonnull inttoptr (i64 72 to ptr), ptr %raw.i.i.i.i.i, ptr nonnull inttoptr (i64 1 to ptr)) #22, !dbg !4784, !noalias !4785, !srcloc !3758
  %43 = extractvalue { ptr, i32, i32 } %42, 0, !dbg !4784
  call void @llvm.dbg.value(metadata ptr %43, metadata !4728, metadata !DIExpression()), !dbg !4788
  call void @llvm.dbg.value(metadata ptr %43, metadata !4789, metadata !DIExpression()), !dbg !4809
  call void @llvm.dbg.value(metadata i64 -4095, metadata !4811, metadata !DIExpression(DW_OP_LLVM_fragment, 0, 64)), !dbg !4825
  call void @llvm.dbg.value(metadata i64 0, metadata !4811, metadata !DIExpression(DW_OP_LLVM_fragment, 64, 64)), !dbg !4825
  call void @llvm.dbg.value(metadata ptr %43, metadata !4829, metadata !DIExpression()), !dbg !4831
  call void @llvm.dbg.value(metadata ptr undef, metadata !4824, metadata !DIExpression()), !dbg !4825
  call void @llvm.dbg.value(metadata ptr undef, metadata !4832, metadata !DIExpression()), !dbg !4851
  %44 = ptrtoint ptr %43 to i64, !dbg !4853
  call void @llvm.dbg.value(metadata ptr undef, metadata !4844, metadata !DIExpression()), !dbg !4851
  call void @llvm.dbg.value(metadata ptr undef, metadata !4854, metadata !DIExpression()), !dbg !4870
  call void @llvm.dbg.value(metadata ptr undef, metadata !4858, metadata !DIExpression()), !dbg !4870
  call void @llvm.dbg.value(metadata ptr undef, metadata !4859, metadata !DIExpression()), !dbg !4872
  call void @llvm.dbg.value(metadata ptr undef, metadata !4873, metadata !DIExpression()), !dbg !4888
  call void @llvm.dbg.value(metadata ptr undef, metadata !4881, metadata !DIExpression()), !dbg !4888
  call void @llvm.dbg.value(metadata ptr undef, metadata !4890, metadata !DIExpression()), !dbg !4897
  call void @llvm.dbg.value(metadata ptr undef, metadata !4896, metadata !DIExpression()), !dbg !4897
  %_0.i.not.i.i.i.i.i.i.i = icmp sgt ptr %43, inttoptr (i64 -4096 to ptr), !dbg !4899
  %_0.i20.i.i.i.i.i.i.i = icmp slt ptr %43, null, !dbg !4900
  %_0.sroa.0.0.i.i.i.i.i.i.i = and i1 %_0.i.not.i.i.i.i.i.i.i, %_0.i20.i.i.i.i.i.i.i, !dbg !4900
  call void @llvm.dbg.value(metadata !DIArgList(i64 poison, i64 poison, i64 poison), metadata !4901, metadata !DIExpression(DW_OP_LLVM_arg, 0, DW_OP_LLVM_arg, 2, DW_OP_or, DW_OP_LLVM_arg, 1, DW_OP_or, DW_OP_constu, 16, DW_OP_shr, DW_OP_LLVM_convert, 64, DW_ATE_unsigned, DW_OP_LLVM_convert, 16, DW_ATE_unsigned, DW_OP_stack_value, DW_OP_LLVM_fragment, 16, 16)), !dbg !4932
  call void @llvm.dbg.value(metadata !DIArgList(i64 poison, i64 poison, i64 poison), metadata !4901, metadata !DIExpression(DW_OP_LLVM_arg, 0, DW_OP_LLVM_arg, 2, DW_OP_or, DW_OP_LLVM_arg, 1, DW_OP_or, DW_OP_constu, 32, DW_OP_shr, DW_OP_LLVM_convert, 64, DW_ATE_unsigned, DW_OP_LLVM_convert, 32, DW_ATE_unsigned, DW_OP_stack_value, DW_OP_LLVM_fragment, 32, 32)), !dbg !4932
  call void @llvm.dbg.value(metadata !DIArgList(i64 poison, i64 poison, i64 poison), metadata !4901, metadata !DIExpression(DW_OP_LLVM_arg, 0, DW_OP_LLVM_arg, 2, DW_OP_or, DW_OP_LLVM_arg, 1, DW_OP_or, DW_OP_stack_value, DW_OP_LLVM_fragment, 0, 16)), !dbg !4932
  br i1 %_0.sroa.0.0.i.i.i.i.i.i.i, label %bb18.i.i.i, label %bb3.i168.i.i, !dbg !4933

bb18.i.i.i:                                       ; preds = %bb2.i167.i.i
  call void @llvm.dbg.value(metadata !DIArgList(i64 poison, i64 poison, i64 poison), metadata !4901, metadata !DIExpression(DW_OP_LLVM_arg, 0, DW_OP_LLVM_arg, 2, DW_OP_or, DW_OP_LLVM_arg, 1, DW_OP_or, DW_OP_constu, 16, DW_OP_shr, DW_OP_LLVM_convert, 64, DW_ATE_unsigned, DW_OP_LLVM_convert, 16, DW_ATE_unsigned, DW_OP_stack_value, DW_OP_LLVM_fragment, 16, 16)), !dbg !4932
  %.tr171.i.i.i = trunc i64 %44 to i32, !dbg !4934
  %45 = shl i32 %.tr171.i.i.i, 16, !dbg !4934
  call void @llvm.dbg.value(metadata !DIArgList(i64 poison, i64 poison, i64 poison), metadata !4349, metadata !DIExpression(DW_OP_LLVM_arg, 0, DW_OP_LLVM_arg, 2, DW_OP_or, DW_OP_LLVM_arg, 1, DW_OP_or, DW_OP_constu, 16, DW_OP_shr, DW_OP_LLVM_convert, 64, DW_ATE_unsigned, DW_OP_LLVM_convert, 16, DW_ATE_unsigned, DW_OP_stack_value)), !dbg !4935
  call void @llvm.dbg.value(metadata !DIArgList(i64 poison, i64 poison, i64 poison), metadata !4320, metadata !DIExpression(DW_OP_LLVM_arg, 0, DW_OP_LLVM_arg, 2, DW_OP_or, DW_OP_LLVM_arg, 1, DW_OP_or, DW_OP_constu, 16, DW_OP_shr, DW_OP_LLVM_convert, 64, DW_ATE_unsigned, DW_OP_LLVM_convert, 16, DW_ATE_unsigned, DW_OP_stack_value)), !dbg !4936
  call void @llvm.dbg.value(metadata !DIArgList(i64 poison, i64 poison, i64 poison), metadata !4322, metadata !DIExpression(DW_OP_LLVM_arg, 0, DW_OP_LLVM_arg, 2, DW_OP_or, DW_OP_LLVM_arg, 1, DW_OP_or, DW_OP_constu, 16, DW_OP_shr, DW_OP_LLVM_convert, 64, DW_ATE_unsigned, DW_OP_LLVM_convert, 16, DW_ATE_unsigned, DW_OP_stack_value)), !dbg !4937
  call void @llvm.dbg.value(metadata !DIArgList(i64 poison, i64 poison, i64 poison), metadata !4303, metadata !DIExpression(DW_OP_LLVM_arg, 0, DW_OP_LLVM_arg, 2, DW_OP_or, DW_OP_LLVM_arg, 1, DW_OP_or, DW_OP_constu, 16, DW_OP_shr, DW_OP_LLVM_convert, 64, DW_ATE_unsigned, DW_OP_LLVM_convert, 16, DW_ATE_unsigned, DW_OP_stack_value)), !dbg !4938
  call void @llvm.dbg.value(metadata !DIArgList(i64 poison, i64 poison, i64 poison), metadata !4290, metadata !DIExpression(DW_OP_LLVM_arg, 0, DW_OP_LLVM_arg, 2, DW_OP_or, DW_OP_LLVM_arg, 1, DW_OP_or, DW_OP_constu, 16, DW_OP_shr, DW_OP_LLVM_convert, 64, DW_ATE_unsigned, DW_OP_LLVM_convert, 16, DW_ATE_unsigned, DW_OP_stack_value)), !dbg !4939
  %self80.i.i.i = ashr exact i32 %45, 16, !dbg !4940
  call void @llvm.dbg.value(metadata i32 %self80.i.i.i, metadata !4277, metadata !DIExpression()), !dbg !4941
  call void @llvm.dbg.value(metadata i32 %self80.i.i.i, metadata !4261, metadata !DIExpression()), !dbg !4444
  %code82.i.i.i = sub nsw i32 0, %self80.i.i.i, !dbg !4942
  call void @llvm.dbg.value(metadata i32 %code82.i.i.i, metadata !4594, metadata !DIExpression()), !dbg !4943
  call void @llvm.dbg.value(metadata i32 %code82.i.i.i, metadata !4619, metadata !DIExpression()), !dbg !4945
  %_68.i.i.i = sext i32 %code82.i.i.i to i64, !dbg !4947
  %_67.i.i.i = shl nsw i64 %_68.i.i.i, 32, !dbg !4948
  br label %bb8.i.i.i, !dbg !4949

bb3.i168.i.i:                                     ; preds = %bb2.i167.i.i
  %.sroa.5.0.extract.shift.i.i.i = and i64 %44, 4294967294, !dbg !4934
  call void @llvm.dbg.value(metadata i64 %44, metadata !4901, metadata !DIExpression(DW_OP_constu, 4294967294, DW_OP_and, DW_OP_LLVM_convert, 64, DW_ATE_unsigned, DW_OP_LLVM_convert, 32, DW_ATE_unsigned, DW_OP_stack_value, DW_OP_LLVM_fragment, 32, 32)), !dbg !4932
  %bits.i.i.i = or disjoint i64 %.sroa.5.0.extract.shift.i.i.i, 1, !dbg !4951
  call void @llvm.dbg.value(metadata ptr undef, metadata !4952, metadata !DIExpression()), !dbg !4958
  call void @llvm.dbg.value(metadata ptr undef, metadata !4697, metadata !DIExpression()), !dbg !4960
  call void @llvm.dbg.value(metadata ptr undef, metadata !4705, metadata !DIExpression()), !dbg !4962
  call void @llvm.dbg.value(metadata i32 %39, metadata !4713, metadata !DIExpression()), !dbg !4964
  call void @llvm.dbg.value(metadata i64 72, metadata !4966, metadata !DIExpression()), !dbg !4993
  call void @llvm.dbg.value(metadata i32 %39, metadata !5000, metadata !DIExpression()), !dbg !5003
  call void @llvm.dbg.value(metadata ptr %raw.i.i.i.i.i, metadata !4988, metadata !DIExpression()), !dbg !4993
  call void @llvm.dbg.value(metadata ptr inttoptr (i64 2 to ptr), metadata !4989, metadata !DIExpression()), !dbg !4993
  call void @llvm.dbg.value(metadata i64 %bits.i.i.i, metadata !4957, metadata !DIExpression()), !dbg !4958
  call void @llvm.dbg.value(metadata i64 %bits.i.i.i, metadata !5001, metadata !DIExpression()), !dbg !5003
  call void @llvm.dbg.value(metadata i64 %bits.i.i.i, metadata !5004, metadata !DIExpression()), !dbg !5012
  call void @llvm.dbg.value(metadata i64 %bits.i.i.i, metadata !5014, metadata !DIExpression()), !dbg !5021
  call void @llvm.dbg.value(metadata i64 %bits.i.i.i, metadata !5023, metadata !DIExpression()), !dbg !5029
  call void @llvm.dbg.value(metadata i64 %bits.i.i.i, metadata !5031, metadata !DIExpression()), !dbg !5037
  %raw16.i.i.i.i.i = inttoptr i64 %bits.i.i.i to ptr, !dbg !5039
  call void @llvm.dbg.value(metadata ptr %raw16.i.i.i.i.i, metadata !4990, metadata !DIExpression()), !dbg !4993
  %46 = call { ptr, i32, i32 } asm sideeffect inteldialect "syscall", "={ax},={cx},={r11},{ax},{di},{si},{dx},~{memory}"(ptr nonnull inttoptr (i64 72 to ptr), ptr %raw.i.i.i.i.i, ptr nonnull inttoptr (i64 2 to ptr), ptr nonnull %raw16.i.i.i.i.i) #22, !dbg !5040, !noalias !5041, !srcloc !5044
  %47 = extractvalue { ptr, i32, i32 } %46, 0, !dbg !5040
  call void @llvm.dbg.value(metadata ptr %47, metadata !4991, metadata !DIExpression()), !dbg !5045
  call void @llvm.dbg.value(metadata ptr %47, metadata !5046, metadata !DIExpression()), !dbg !5050
  call void @llvm.dbg.value(metadata ptr %47, metadata !5065, metadata !DIExpression()), !dbg !5067
  call void @llvm.dbg.value(metadata ptr %47, metadata !5060, metadata !DIExpression()), !dbg !5068
  call void @llvm.dbg.value(metadata ptr undef, metadata !5055, metadata !DIExpression()), !dbg !5069
  call void @llvm.dbg.value(metadata ptr %47, metadata !5070, metadata !DIExpression()), !dbg !5074
  %_26.not.i.i.not.i.i.i = icmp eq ptr %47, null, !dbg !5076
  call void @llvm.dbg.value(metadata i1 %_26.not.i.i.not.i.i.i, metadata !5077, metadata !DIExpression(DW_OP_LLVM_convert, 1, DW_ATE_unsigned, DW_OP_LLVM_convert, 16, DW_ATE_unsigned, DW_OP_stack_value, DW_OP_LLVM_fragment, 0, 16)), !dbg !5108
  call void @llvm.dbg.value(metadata i16 poison, metadata !5077, metadata !DIExpression(DW_OP_LLVM_fragment, 16, 16)), !dbg !5108
  br i1 %_26.not.i.i.not.i.i.i, label %bb21.i.i.i, label %bb20.i.i.i, !dbg !5110

bb21.i.i.i:                                       ; preds = %bb3.i168.i.i
  call void @llvm.dbg.value(metadata ptr undef, metadata !4671, metadata !DIExpression()), !dbg !5111
  call void @llvm.dbg.value(metadata ptr undef, metadata !4697, metadata !DIExpression()), !dbg !5113
  call void @llvm.dbg.value(metadata ptr undef, metadata !4705, metadata !DIExpression()), !dbg !5115
  call void @llvm.dbg.value(metadata i32 %.sroa.4.0.extract.trunc.i.i.i, metadata !4713, metadata !DIExpression()), !dbg !5117
  %48 = icmp eq i32 %.sroa.4.0.extract.trunc.i.i.i, -1, !dbg !5119
  br i1 %48, label %bb2.i.i.i132.i.i.i, label %bb4.i169.i.i, !dbg !5119

bb2.i.i.i132.i.i.i:                               ; preds = %bb21.i.i.i
; invoke core::panicking::panic
  invoke void @_ZN4core9panicking5panic17hdc606204151d5569E(ptr noalias noundef nonnull readonly align 1 @alloc_49f4817395fcc69bced82142970a6e73, i64 noundef 41, ptr noalias noundef nonnull readonly align 8 dereferenceable(24) @alloc_b98e9120f17dd505a01e9607eccfa1a4) #23
          to label %.noexc133.i.i.i unwind label %cleanup.i.i.i, !dbg !5120, !noalias !4492

.noexc133.i.i.i:                                  ; preds = %bb2.i.i.i132.i.i.i
  unreachable, !dbg !5120

bb20.i.i.i:                                       ; preds = %bb3.i168.i.i
  %_28.i.i.i.i.i = ptrtoint ptr %47 to i64, !dbg !5121
  call void @llvm.dbg.value(metadata i64 %_28.i.i.i.i.i, metadata !5077, metadata !DIExpression(DW_OP_LLVM_convert, 64, DW_ATE_unsigned, DW_OP_LLVM_convert, 16, DW_ATE_unsigned, DW_OP_stack_value, DW_OP_LLVM_fragment, 16, 16)), !dbg !5108
  call void @llvm.dbg.value(metadata i64 %_28.i.i.i.i.i, metadata !4361, metadata !DIExpression(DW_OP_LLVM_convert, 64, DW_ATE_unsigned, DW_OP_LLVM_convert, 16, DW_ATE_unsigned, DW_OP_stack_value)), !dbg !5122
  call void @llvm.dbg.value(metadata i64 %_28.i.i.i.i.i, metadata !4324, metadata !DIExpression(DW_OP_LLVM_convert, 64, DW_ATE_unsigned, DW_OP_LLVM_convert, 16, DW_ATE_unsigned, DW_OP_stack_value)), !dbg !5123
  call void @llvm.dbg.value(metadata i64 %_28.i.i.i.i.i, metadata !4326, metadata !DIExpression(DW_OP_LLVM_convert, 64, DW_ATE_unsigned, DW_OP_LLVM_convert, 16, DW_ATE_unsigned, DW_OP_stack_value)), !dbg !5125
  call void @llvm.dbg.value(metadata i64 %_28.i.i.i.i.i, metadata !4305, metadata !DIExpression(DW_OP_LLVM_convert, 64, DW_ATE_unsigned, DW_OP_LLVM_convert, 16, DW_ATE_unsigned, DW_OP_stack_value)), !dbg !5126
  call void @llvm.dbg.value(metadata i64 %_28.i.i.i.i.i, metadata !4292, metadata !DIExpression(DW_OP_LLVM_convert, 64, DW_ATE_unsigned, DW_OP_LLVM_convert, 16, DW_ATE_unsigned, DW_OP_stack_value)), !dbg !5128
  %sext162.i.i.i = shl i64 %_28.i.i.i.i.i, 48, !dbg !5130
  %self67.i.i.i = ashr exact i64 %sext162.i.i.i, 48, !dbg !5130
  call void @llvm.dbg.value(metadata !DIArgList(i32 0, i64 %_28.i.i.i.i.i), metadata !4596, metadata !DIExpression(DW_OP_LLVM_arg, 0, DW_OP_LLVM_arg, 1, DW_OP_LLVM_convert, 64, DW_ATE_unsigned, DW_OP_LLVM_convert, 16, DW_ATE_unsigned, DW_OP_LLVM_convert, 16, DW_ATE_signed, DW_OP_LLVM_convert, 32, DW_ATE_signed, DW_OP_minus, DW_OP_stack_value)), !dbg !5131
  call void @llvm.dbg.value(metadata !DIArgList(i32 0, i64 %_28.i.i.i.i.i), metadata !4629, metadata !DIExpression(DW_OP_LLVM_arg, 0, DW_OP_LLVM_arg, 1, DW_OP_LLVM_convert, 64, DW_ATE_unsigned, DW_OP_LLVM_convert, 16, DW_ATE_unsigned, DW_OP_LLVM_convert, 16, DW_ATE_signed, DW_OP_LLVM_convert, 32, DW_ATE_signed, DW_OP_minus, DW_OP_stack_value)), !dbg !5133
  %.neg.i.i.i = mul nsw i64 %self67.i.i.i, -4294967296, !dbg !5135
  br label %bb8.i.i.i, !dbg !4949

bb4.i169.i.i:                                     ; preds = %bb21.i.i.i
  call void @llvm.dbg.value(metadata i64 72, metadata !4722, metadata !DIExpression()), !dbg !5136
  call void @llvm.dbg.value(metadata i32 %.sroa.4.0.extract.trunc.i.i.i, metadata !4739, metadata !DIExpression()), !dbg !5139
  call void @llvm.dbg.value(metadata i32 %.sroa.4.0.extract.trunc.i.i.i, metadata !4742, metadata !DIExpression()), !dbg !5140
  call void @llvm.dbg.value(metadata i32 %.sroa.4.0.extract.trunc.i.i.i, metadata !4754, metadata !DIExpression()), !dbg !5142
  call void @llvm.dbg.value(metadata i32 %.sroa.4.0.extract.trunc.i.i.i, metadata !4763, metadata !DIExpression()), !dbg !5144
  call void @llvm.dbg.value(metadata i32 %.sroa.4.0.extract.trunc.i.i.i, metadata !4769, metadata !DIExpression()), !dbg !5146
  call void @llvm.dbg.value(metadata !DIArgList(i64 poison, i64 poison), metadata !4775, metadata !DIExpression(DW_OP_LLVM_arg, 0, DW_OP_LLVM_arg, 1, DW_OP_constu, 65535, DW_OP_and, DW_OP_or, DW_OP_stack_value)), !dbg !5147
  %raw.i.i124.i.i.i = inttoptr i64 %slot.sroa.4.0.extract.shift.i.i.i.i to ptr, !dbg !5149
  call void @llvm.dbg.value(metadata ptr %raw.i.i124.i.i.i, metadata !4726, metadata !DIExpression()), !dbg !5136
  call void @llvm.dbg.value(metadata ptr inttoptr (i64 1 to ptr), metadata !4727, metadata !DIExpression()), !dbg !5136
  %49 = call { ptr, i32, i32 } asm sideeffect inteldialect "syscall", "={ax},={cx},={r11},{ax},{di},{si},~{memory}"(ptr nonnull inttoptr (i64 72 to ptr), ptr %raw.i.i124.i.i.i, ptr nonnull inttoptr (i64 1 to ptr)) #22, !dbg !5150, !noalias !5151, !srcloc !3758
  %50 = extractvalue { ptr, i32, i32 } %49, 0, !dbg !5150
  call void @llvm.dbg.value(metadata ptr %50, metadata !4728, metadata !DIExpression()), !dbg !5154
  call void @llvm.dbg.value(metadata ptr %50, metadata !4789, metadata !DIExpression()), !dbg !5155
  call void @llvm.dbg.value(metadata i64 -4095, metadata !4811, metadata !DIExpression(DW_OP_LLVM_fragment, 0, 64)), !dbg !5157
  call void @llvm.dbg.value(metadata i64 0, metadata !4811, metadata !DIExpression(DW_OP_LLVM_fragment, 64, 64)), !dbg !5157
  call void @llvm.dbg.value(metadata ptr %50, metadata !4829, metadata !DIExpression()), !dbg !5160
  call void @llvm.dbg.value(metadata ptr undef, metadata !4824, metadata !DIExpression()), !dbg !5157
  call void @llvm.dbg.value(metadata ptr undef, metadata !4832, metadata !DIExpression()), !dbg !5161
  %51 = ptrtoint ptr %50 to i64, !dbg !5163
  call void @llvm.dbg.value(metadata ptr undef, metadata !4844, metadata !DIExpression()), !dbg !5161
  call void @llvm.dbg.value(metadata ptr undef, metadata !4854, metadata !DIExpression()), !dbg !5164
  call void @llvm.dbg.value(metadata ptr undef, metadata !4858, metadata !DIExpression()), !dbg !5164
  call void @llvm.dbg.value(metadata ptr undef, metadata !4859, metadata !DIExpression()), !dbg !5166
  call void @llvm.dbg.value(metadata ptr undef, metadata !4873, metadata !DIExpression()), !dbg !5167
  call void @llvm.dbg.value(metadata ptr undef, metadata !4881, metadata !DIExpression()), !dbg !5167
  call void @llvm.dbg.value(metadata ptr undef, metadata !4890, metadata !DIExpression()), !dbg !5169
  call void @llvm.dbg.value(metadata ptr undef, metadata !4896, metadata !DIExpression()), !dbg !5169
  %_0.i.not.i.i.i.i125.i.i.i = icmp sgt ptr %50, inttoptr (i64 -4096 to ptr), !dbg !5171
  %_0.i20.i.i.i.i126.i.i.i = icmp slt ptr %50, null, !dbg !5172
  %_0.sroa.0.0.i.i.i.i127.i.i.i = and i1 %_0.i.not.i.i.i.i125.i.i.i, %_0.i20.i.i.i.i126.i.i.i, !dbg !5172
  call void @llvm.dbg.value(metadata !DIArgList(i64 poison, i64 poison, i64 poison), metadata !4926, metadata !DIExpression(DW_OP_LLVM_arg, 0, DW_OP_LLVM_arg, 2, DW_OP_or, DW_OP_LLVM_arg, 1, DW_OP_or, DW_OP_constu, 16, DW_OP_shr, DW_OP_LLVM_convert, 64, DW_ATE_unsigned, DW_OP_LLVM_convert, 16, DW_ATE_unsigned, DW_OP_stack_value, DW_OP_LLVM_fragment, 16, 16)), !dbg !5173
  call void @llvm.dbg.value(metadata !DIArgList(i64 poison, i64 poison, i64 poison), metadata !4926, metadata !DIExpression(DW_OP_LLVM_arg, 0, DW_OP_LLVM_arg, 2, DW_OP_or, DW_OP_LLVM_arg, 1, DW_OP_or, DW_OP_constu, 32, DW_OP_shr, DW_OP_LLVM_convert, 64, DW_ATE_unsigned, DW_OP_LLVM_convert, 32, DW_ATE_unsigned, DW_OP_stack_value, DW_OP_LLVM_fragment, 32, 32)), !dbg !5173
  call void @llvm.dbg.value(metadata !DIArgList(i64 poison, i64 poison, i64 poison), metadata !4926, metadata !DIExpression(DW_OP_LLVM_arg, 0, DW_OP_LLVM_arg, 2, DW_OP_or, DW_OP_LLVM_arg, 1, DW_OP_or, DW_OP_stack_value, DW_OP_LLVM_fragment, 0, 16)), !dbg !5173
  br i1 %_0.sroa.0.0.i.i.i.i127.i.i.i, label %bb22.i.i.i, label %bb5.i170.i.i, !dbg !5174

bb22.i.i.i:                                       ; preds = %bb4.i169.i.i
  call void @llvm.dbg.value(metadata !DIArgList(i64 poison, i64 poison, i64 poison), metadata !4926, metadata !DIExpression(DW_OP_LLVM_arg, 0, DW_OP_LLVM_arg, 2, DW_OP_or, DW_OP_LLVM_arg, 1, DW_OP_or, DW_OP_constu, 16, DW_OP_shr, DW_OP_LLVM_convert, 64, DW_ATE_unsigned, DW_OP_LLVM_convert, 16, DW_ATE_unsigned, DW_OP_stack_value, DW_OP_LLVM_fragment, 16, 16)), !dbg !5173
  %.tr.i.i.i = trunc i64 %51 to i32, !dbg !5175
  %52 = shl i32 %.tr.i.i.i, 16, !dbg !5175
  call void @llvm.dbg.value(metadata !DIArgList(i64 poison, i64 poison, i64 poison), metadata !4365, metadata !DIExpression(DW_OP_LLVM_arg, 0, DW_OP_LLVM_arg, 2, DW_OP_or, DW_OP_LLVM_arg, 1, DW_OP_or, DW_OP_constu, 16, DW_OP_shr, DW_OP_LLVM_convert, 64, DW_ATE_unsigned, DW_OP_LLVM_convert, 16, DW_ATE_unsigned, DW_OP_stack_value)), !dbg !5176
  call void @llvm.dbg.value(metadata !DIArgList(i64 poison, i64 poison, i64 poison), metadata !4328, metadata !DIExpression(DW_OP_LLVM_arg, 0, DW_OP_LLVM_arg, 2, DW_OP_or, DW_OP_LLVM_arg, 1, DW_OP_or, DW_OP_constu, 16, DW_OP_shr, DW_OP_LLVM_convert, 64, DW_ATE_unsigned, DW_OP_LLVM_convert, 16, DW_ATE_unsigned, DW_OP_stack_value)), !dbg !5177
  call void @llvm.dbg.value(metadata !DIArgList(i64 poison, i64 poison, i64 poison), metadata !4330, metadata !DIExpression(DW_OP_LLVM_arg, 0, DW_OP_LLVM_arg, 2, DW_OP_or, DW_OP_LLVM_arg, 1, DW_OP_or, DW_OP_constu, 16, DW_OP_shr, DW_OP_LLVM_convert, 64, DW_ATE_unsigned, DW_OP_LLVM_convert, 16, DW_ATE_unsigned, DW_OP_stack_value)), !dbg !5178
  call void @llvm.dbg.value(metadata !DIArgList(i64 poison, i64 poison, i64 poison), metadata !4307, metadata !DIExpression(DW_OP_LLVM_arg, 0, DW_OP_LLVM_arg, 2, DW_OP_or, DW_OP_LLVM_arg, 1, DW_OP_or, DW_OP_constu, 16, DW_OP_shr, DW_OP_LLVM_convert, 64, DW_ATE_unsigned, DW_OP_LLVM_convert, 16, DW_ATE_unsigned, DW_OP_stack_value)), !dbg !5179
  call void @llvm.dbg.value(metadata !DIArgList(i64 poison, i64 poison, i64 poison), metadata !4294, metadata !DIExpression(DW_OP_LLVM_arg, 0, DW_OP_LLVM_arg, 2, DW_OP_or, DW_OP_LLVM_arg, 1, DW_OP_or, DW_OP_constu, 16, DW_OP_shr, DW_OP_LLVM_convert, 64, DW_ATE_unsigned, DW_OP_LLVM_convert, 16, DW_ATE_unsigned, DW_OP_stack_value)), !dbg !5180
  %self54.i.i.i = ashr exact i32 %52, 16, !dbg !5181
  call void @llvm.dbg.value(metadata i32 %self54.i.i.i, metadata !4281, metadata !DIExpression()), !dbg !5182
  call void @llvm.dbg.value(metadata i32 %self54.i.i.i, metadata !4267, metadata !DIExpression()), !dbg !4455
  %code56.i.i.i = sub nsw i32 0, %self54.i.i.i, !dbg !5183
  call void @llvm.dbg.value(metadata i32 %code56.i.i.i, metadata !4598, metadata !DIExpression()), !dbg !5184
  call void @llvm.dbg.value(metadata i32 %code56.i.i.i, metadata !4639, metadata !DIExpression()), !dbg !5186
  %_116.i.i.i = sext i32 %code56.i.i.i to i64, !dbg !5188
  %_115.i.i.i = shl nsw i64 %_116.i.i.i, 32, !dbg !5189
  br label %bb8.i.i.i, !dbg !4949

bb5.i170.i.i:                                     ; preds = %bb4.i169.i.i
  %.sroa.5110.0.extract.shift.i.i.i = and i64 %51, 4294967294, !dbg !5175
  call void @llvm.dbg.value(metadata i64 %51, metadata !4926, metadata !DIExpression(DW_OP_constu, 4294967294, DW_OP_and, DW_OP_LLVM_convert, 64, DW_ATE_unsigned, DW_OP_LLVM_convert, 32, DW_ATE_unsigned, DW_OP_stack_value, DW_OP_LLVM_fragment, 32, 32)), !dbg !5173
  %bits44.i.i.i = or disjoint i64 %.sroa.5110.0.extract.shift.i.i.i, 1, !dbg !5190
  call void @llvm.dbg.value(metadata ptr undef, metadata !4952, metadata !DIExpression()), !dbg !5191
  call void @llvm.dbg.value(metadata ptr undef, metadata !4697, metadata !DIExpression()), !dbg !5193
  call void @llvm.dbg.value(metadata ptr undef, metadata !4705, metadata !DIExpression()), !dbg !5195
  call void @llvm.dbg.value(metadata i32 %.sroa.4.0.extract.trunc.i.i.i, metadata !4713, metadata !DIExpression()), !dbg !5197
  call void @llvm.dbg.value(metadata i64 72, metadata !4966, metadata !DIExpression()), !dbg !5199
  call void @llvm.dbg.value(metadata i32 %.sroa.4.0.extract.trunc.i.i.i, metadata !5000, metadata !DIExpression()), !dbg !5202
  call void @llvm.dbg.value(metadata ptr %raw.i.i124.i.i.i, metadata !4988, metadata !DIExpression()), !dbg !5199
  call void @llvm.dbg.value(metadata ptr inttoptr (i64 2 to ptr), metadata !4989, metadata !DIExpression()), !dbg !5199
  call void @llvm.dbg.value(metadata i64 %bits44.i.i.i, metadata !4957, metadata !DIExpression()), !dbg !5191
  call void @llvm.dbg.value(metadata i64 %bits44.i.i.i, metadata !5001, metadata !DIExpression()), !dbg !5202
  call void @llvm.dbg.value(metadata i64 %bits44.i.i.i, metadata !5004, metadata !DIExpression()), !dbg !5203
  call void @llvm.dbg.value(metadata i64 %bits44.i.i.i, metadata !5014, metadata !DIExpression()), !dbg !5205
  call void @llvm.dbg.value(metadata i64 %bits44.i.i.i, metadata !5023, metadata !DIExpression()), !dbg !5207
  call void @llvm.dbg.value(metadata i64 %bits44.i.i.i, metadata !5031, metadata !DIExpression()), !dbg !5209
  %raw16.i.i139.i.i.i = inttoptr i64 %bits44.i.i.i to ptr, !dbg !5211
  call void @llvm.dbg.value(metadata ptr %raw16.i.i139.i.i.i, metadata !4990, metadata !DIExpression()), !dbg !5199
  %53 = call { ptr, i32, i32 } asm sideeffect inteldialect "syscall", "={ax},={cx},={r11},{ax},{di},{si},{dx},~{memory}"(ptr nonnull inttoptr (i64 72 to ptr), ptr %raw.i.i124.i.i.i, ptr nonnull inttoptr (i64 2 to ptr), ptr nonnull %raw16.i.i139.i.i.i) #22, !dbg !5212, !noalias !5213, !srcloc !5044
  %54 = extractvalue { ptr, i32, i32 } %53, 0, !dbg !5212
  call void @llvm.dbg.value(metadata ptr %54, metadata !4991, metadata !DIExpression()), !dbg !5216
  call void @llvm.dbg.value(metadata ptr %54, metadata !5046, metadata !DIExpression()), !dbg !5217
  call void @llvm.dbg.value(metadata ptr %54, metadata !5065, metadata !DIExpression()), !dbg !5222
  call void @llvm.dbg.value(metadata ptr %54, metadata !5060, metadata !DIExpression()), !dbg !5223
  call void @llvm.dbg.value(metadata ptr undef, metadata !5055, metadata !DIExpression()), !dbg !5224
  call void @llvm.dbg.value(metadata ptr %54, metadata !5070, metadata !DIExpression()), !dbg !5225
  %_26.not.i.i140.not.i.i.i = icmp eq ptr %54, null, !dbg !5227
  call void @llvm.dbg.value(metadata i1 %_26.not.i.i140.not.i.i.i, metadata !5102, metadata !DIExpression(DW_OP_LLVM_convert, 1, DW_ATE_unsigned, DW_OP_LLVM_convert, 16, DW_ATE_unsigned, DW_OP_stack_value, DW_OP_LLVM_fragment, 0, 16)), !dbg !5228
  call void @llvm.dbg.value(metadata i16 poison, metadata !5102, metadata !DIExpression(DW_OP_LLVM_fragment, 16, 16)), !dbg !5228
  br i1 %_26.not.i.i140.not.i.i.i, label %bb32.i.i, label %bb24.i.i.i, !dbg !5230

bb24.i.i.i:                                       ; preds = %bb5.i170.i.i
  %_28.i.i141.i.i.i = ptrtoint ptr %54 to i64, !dbg !5231
  call void @llvm.dbg.value(metadata i64 %_28.i.i141.i.i.i, metadata !5102, metadata !DIExpression(DW_OP_LLVM_convert, 64, DW_ATE_unsigned, DW_OP_LLVM_convert, 16, DW_ATE_unsigned, DW_OP_stack_value, DW_OP_LLVM_fragment, 16, 16)), !dbg !5228
  call void @llvm.dbg.value(metadata i64 %_28.i.i141.i.i.i, metadata !4369, metadata !DIExpression(DW_OP_LLVM_convert, 64, DW_ATE_unsigned, DW_OP_LLVM_convert, 16, DW_ATE_unsigned, DW_OP_stack_value)), !dbg !5232
  call void @llvm.dbg.value(metadata i64 %_28.i.i141.i.i.i, metadata !4332, metadata !DIExpression(DW_OP_LLVM_convert, 64, DW_ATE_unsigned, DW_OP_LLVM_convert, 16, DW_ATE_unsigned, DW_OP_stack_value)), !dbg !5233
  call void @llvm.dbg.value(metadata i64 %_28.i.i141.i.i.i, metadata !4334, metadata !DIExpression(DW_OP_LLVM_convert, 64, DW_ATE_unsigned, DW_OP_LLVM_convert, 16, DW_ATE_unsigned, DW_OP_stack_value)), !dbg !5235
  call void @llvm.dbg.value(metadata i64 %_28.i.i141.i.i.i, metadata !4309, metadata !DIExpression(DW_OP_LLVM_convert, 64, DW_ATE_unsigned, DW_OP_LLVM_convert, 16, DW_ATE_unsigned, DW_OP_stack_value)), !dbg !5236
  call void @llvm.dbg.value(metadata i64 %_28.i.i141.i.i.i, metadata !4296, metadata !DIExpression(DW_OP_LLVM_convert, 64, DW_ATE_unsigned, DW_OP_LLVM_convert, 16, DW_ATE_unsigned, DW_OP_stack_value)), !dbg !5238
  %sext163.i.i.i = shl i64 %_28.i.i141.i.i.i, 48, !dbg !5240
  %self48.i.i.i = ashr exact i64 %sext163.i.i.i, 48, !dbg !5240
  call void @llvm.dbg.value(metadata !DIArgList(i32 0, i64 %_28.i.i141.i.i.i), metadata !4600, metadata !DIExpression(DW_OP_LLVM_arg, 0, DW_OP_LLVM_arg, 1, DW_OP_LLVM_convert, 64, DW_ATE_unsigned, DW_OP_LLVM_convert, 16, DW_ATE_unsigned, DW_OP_LLVM_convert, 16, DW_ATE_signed, DW_OP_LLVM_convert, 32, DW_ATE_signed, DW_OP_minus, DW_OP_stack_value)), !dbg !5241
  call void @llvm.dbg.value(metadata !DIArgList(i32 0, i64 %_28.i.i141.i.i.i), metadata !4649, metadata !DIExpression(DW_OP_LLVM_arg, 0, DW_OP_LLVM_arg, 1, DW_OP_LLVM_convert, 64, DW_ATE_unsigned, DW_OP_LLVM_convert, 16, DW_ATE_unsigned, DW_OP_LLVM_convert, 16, DW_ATE_signed, DW_OP_LLVM_convert, 32, DW_ATE_signed, DW_OP_minus, DW_OP_stack_value)), !dbg !5243
  %.neg112.i.i.i = mul nsw i64 %self48.i.i.i, -4294967296, !dbg !5245
  br label %bb8.i.i.i, !dbg !4949

bb8.i.i.i:                                        ; preds = %bb24.i.i.i, %bb22.i.i.i, %bb20.i.i.i, %bb18.i.i.i
  %.neg.sink.i.i.i = phi i64 [ %.neg.i.i.i, %bb20.i.i.i ], [ %_67.i.i.i, %bb18.i.i.i ], [ %.neg112.i.i.i, %bb24.i.i.i ], [ %_115.i.i.i, %bb22.i.i.i ]
  call void @llvm.dbg.value(metadata !DIArgList(ptr null, i64 %.neg.sink.i.i.i), metadata !4222, metadata !DIExpression(DW_OP_LLVM_arg, 0, DW_OP_LLVM_arg, 1, DW_OP_constu, 2, DW_OP_or, DW_OP_constu, 1, DW_OP_mul, DW_OP_plus, DW_OP_stack_value, DW_OP_LLVM_fragment, 64, 64)), !dbg !4250
  call void @llvm.dbg.value(metadata i32 1, metadata !4222, metadata !DIExpression(DW_OP_LLVM_fragment, 0, 32)), !dbg !4250
  call void @llvm.dbg.value(metadata ptr undef, metadata !2390, metadata !DIExpression()), !dbg !5246
  call void @llvm.dbg.value(metadata ptr undef, metadata !2402, metadata !DIExpression()), !dbg !5248
  %_4.i.i148.i.i.i = invoke noundef i32 @close(i32 noundef %.sroa.4.0.extract.trunc.i.i.i)
          to label %bb9.i.i.i unwind label %cleanup89.i.i.i, !dbg !5250, !noalias !4492

bb13.i.i.i:                                       ; preds = %cleanup89.i.i.i, %cleanup.i.i.i
  %.pn.i.i.i = phi { ptr, i32 } [ %55, %cleanup89.i.i.i ], [ %41, %cleanup.i.i.i ]
  call void @llvm.dbg.value(metadata ptr undef, metadata !2390, metadata !DIExpression()), !dbg !5251
  call void @llvm.dbg.value(metadata ptr undef, metadata !2402, metadata !DIExpression()), !dbg !5253
  %_4.i.i151.i.i.i = invoke noundef i32 @close(i32 noundef %39)
          to label %bb34.i unwind label %terminate.i.i.i, !dbg !5255, !noalias !4492

cleanup89.i.i.i:                                  ; preds = %bb8.i.i.i
  %55 = landingpad { ptr, i32 }
          cleanup
  br label %bb13.i.i.i

bb9.i.i.i:                                        ; preds = %bb8.i.i.i
  call void @llvm.dbg.value(metadata !DIArgList(ptr null, i64 %.neg.sink.i.i.i), metadata !4222, metadata !DIExpression(DW_OP_LLVM_arg, 0, DW_OP_LLVM_arg, 1, DW_OP_constu, 2, DW_OP_or, DW_OP_constu, 1, DW_OP_mul, DW_OP_plus, DW_OP_stack_value, DW_OP_LLVM_fragment, 64, 64)), !dbg !4250
  call void @llvm.dbg.value(metadata ptr undef, metadata !2390, metadata !DIExpression()), !dbg !5256
  call void @llvm.dbg.value(metadata ptr undef, metadata !2402, metadata !DIExpression()), !dbg !5258
  %_4.i.i.i.i132.i = invoke noundef i32 @close(i32 noundef %39)
          to label %bb40.i unwind label %cleanup.i, !dbg !5260, !noalias !3367

terminate.i.i.i:                                  ; preds = %bb13.i.i.i, %cleanup.i.i.i
  %56 = landingpad { ptr, i32 }
          filter [0 x ptr] zeroinitializer
; call core::panicking::panic_in_cleanup
  call void @_ZN4core9panicking16panic_in_cleanup17h43442956f23e9cbeE() #21, !dbg !4461, !noalias !4492
  unreachable, !dbg !4461

bb32.i.i:                                         ; preds = %bb5.i170.i.i, %bb52.i.i
  %self42.sroa.11.8.extract.trunc.pre-phi.i.i = phi i32 [ %.sroa.4.0.extract.trunc.i.i.i, %bb5.i170.i.i ], [ %.pre.i.i, %bb52.i.i ], !dbg !4251
  %self42.sroa.8.1.i.i = phi i32 [ %39, %bb5.i170.i.i ], [ %.sroa.0117.0.extract.trunc.i.i, %bb52.i.i ]
  call void @llvm.dbg.value(metadata i32 %self42.sroa.8.1.i.i, metadata !4222, metadata !DIExpression(DW_OP_LLVM_fragment, 32, 32)), !dbg !4250
  call void @llvm.dbg.value(metadata i64 poison, metadata !4222, metadata !DIExpression(DW_OP_LLVM_fragment, 64, 64)), !dbg !4250
  call void @llvm.dbg.value(metadata i32 %self42.sroa.8.1.i.i, metadata !3532, metadata !DIExpression()), !dbg !5261
  call void @llvm.dbg.value(metadata i32 %self42.sroa.11.8.extract.trunc.pre-phi.i.i, metadata !3534, metadata !DIExpression()), !dbg !5261
  call void @llvm.dbg.value(metadata ptr undef, metadata !5262, metadata !DIExpression()), !dbg !5285
  call void @llvm.dbg.value(metadata ptr undef, metadata !4697, metadata !DIExpression()), !dbg !5287
  call void @llvm.dbg.value(metadata ptr undef, metadata !4705, metadata !DIExpression()), !dbg !5289
  call void @llvm.dbg.value(metadata i32 %self42.sroa.8.1.i.i, metadata !4713, metadata !DIExpression()), !dbg !5291
  call void @llvm.dbg.value(metadata i64 72, metadata !5293, metadata !DIExpression()), !dbg !5301
  call void @llvm.dbg.value(metadata i32 %self42.sroa.8.1.i.i, metadata !5310, metadata !DIExpression()), !dbg !5312
  call void @llvm.dbg.value(metadata i32 %self42.sroa.8.1.i.i, metadata !5313, metadata !DIExpression()), !dbg !5317
  call void @llvm.dbg.value(metadata i32 %self42.sroa.8.1.i.i, metadata !5319, metadata !DIExpression()), !dbg !5323
  call void @llvm.dbg.value(metadata i32 %self42.sroa.8.1.i.i, metadata !5325, metadata !DIExpression()), !dbg !5331
  call void @llvm.dbg.value(metadata i32 %self42.sroa.8.1.i.i, metadata !5329, metadata !DIExpression()), !dbg !5333
  %t.i.i.i.i = zext i32 %self42.sroa.8.1.i.i to i64, !dbg !5334
  call void @llvm.dbg.value(metadata i64 %t.i.i.i.i, metadata !5335, metadata !DIExpression()), !dbg !5339
  %raw.i.i.i.i = inttoptr i64 %t.i.i.i.i to ptr, !dbg !5341
  call void @llvm.dbg.value(metadata ptr %raw.i.i.i.i, metadata !5297, metadata !DIExpression()), !dbg !5301
  call void @llvm.dbg.value(metadata ptr inttoptr (i64 3 to ptr), metadata !5298, metadata !DIExpression()), !dbg !5301
  %57 = call { ptr, i32, i32 } asm sideeffect inteldialect "syscall", "={ax},={cx},={r11},{ax},{di},{si},~{memory}"(ptr nonnull inttoptr (i64 72 to ptr), ptr %raw.i.i.i.i, ptr nonnull inttoptr (i64 3 to ptr)) #22, !dbg !5342, !noalias !5343, !srcloc !3758
  %58 = extractvalue { ptr, i32, i32 } %57, 0, !dbg !5342
  call void @llvm.dbg.value(metadata ptr %58, metadata !5299, metadata !DIExpression()), !dbg !5346
  call void @llvm.dbg.value(metadata ptr %58, metadata !5347, metadata !DIExpression()), !dbg !5351
  call void @llvm.dbg.value(metadata i64 -4095, metadata !4811, metadata !DIExpression(DW_OP_LLVM_fragment, 0, 64)), !dbg !5353
  call void @llvm.dbg.value(metadata i64 0, metadata !4811, metadata !DIExpression(DW_OP_LLVM_fragment, 64, 64)), !dbg !5353
  call void @llvm.dbg.value(metadata ptr %58, metadata !4829, metadata !DIExpression()), !dbg !5356
  call void @llvm.dbg.value(metadata ptr undef, metadata !4824, metadata !DIExpression()), !dbg !5353
  call void @llvm.dbg.value(metadata ptr undef, metadata !4832, metadata !DIExpression()), !dbg !5357
  %59 = ptrtoint ptr %58 to i64, !dbg !5359
  call void @llvm.dbg.value(metadata ptr undef, metadata !4844, metadata !DIExpression()), !dbg !5357
  call void @llvm.dbg.value(metadata ptr undef, metadata !4854, metadata !DIExpression()), !dbg !5360
  call void @llvm.dbg.value(metadata ptr undef, metadata !4858, metadata !DIExpression()), !dbg !5360
  call void @llvm.dbg.value(metadata ptr undef, metadata !4859, metadata !DIExpression()), !dbg !5362
  call void @llvm.dbg.value(metadata ptr undef, metadata !4873, metadata !DIExpression()), !dbg !5363
  call void @llvm.dbg.value(metadata ptr undef, metadata !4881, metadata !DIExpression()), !dbg !5363
  call void @llvm.dbg.value(metadata ptr undef, metadata !4890, metadata !DIExpression()), !dbg !5365
  call void @llvm.dbg.value(metadata ptr undef, metadata !4896, metadata !DIExpression()), !dbg !5365
  %_0.i.not.i.i.i.i.i.i = icmp sgt ptr %58, inttoptr (i64 -4096 to ptr), !dbg !5367
  %_0.i20.i.i.i.i.i.i = icmp slt ptr %58, null, !dbg !5368
  %_0.sroa.0.0.i.i.i.i.i.i = and i1 %_0.i.not.i.i.i.i.i.i, %_0.i20.i.i.i.i.i.i, !dbg !5368
  call void @llvm.dbg.value(metadata !DIArgList(i64 poison, i64 poison, i64 poison), metadata !5369, metadata !DIExpression(DW_OP_LLVM_arg, 0, DW_OP_LLVM_arg, 2, DW_OP_or, DW_OP_LLVM_arg, 1, DW_OP_or, DW_OP_constu, 16, DW_OP_shr, DW_OP_LLVM_convert, 64, DW_ATE_unsigned, DW_OP_LLVM_convert, 16, DW_ATE_unsigned, DW_OP_stack_value, DW_OP_LLVM_fragment, 16, 16)), !dbg !5394
  call void @llvm.dbg.value(metadata !DIArgList(i64 poison, i64 poison, i64 poison), metadata !5369, metadata !DIExpression(DW_OP_LLVM_arg, 0, DW_OP_LLVM_arg, 2, DW_OP_or, DW_OP_LLVM_arg, 1, DW_OP_or, DW_OP_constu, 32, DW_OP_shr, DW_OP_LLVM_convert, 64, DW_ATE_unsigned, DW_OP_LLVM_convert, 32, DW_ATE_unsigned, DW_OP_stack_value, DW_OP_LLVM_fragment, 32, 32)), !dbg !5394
  call void @llvm.dbg.value(metadata !DIArgList(i64 poison, i64 poison, i64 poison), metadata !5369, metadata !DIExpression(DW_OP_LLVM_arg, 0, DW_OP_LLVM_arg, 2, DW_OP_or, DW_OP_LLVM_arg, 1, DW_OP_or, DW_OP_stack_value, DW_OP_LLVM_fragment, 0, 16)), !dbg !5394
  br i1 %_0.sroa.0.0.i.i.i.i.i.i, label %bb56.i.i, label %bb33.i.i, !dbg !5396

bb56.i.i:                                         ; preds = %bb32.i.i
  call void @llvm.dbg.value(metadata !DIArgList(i64 poison, i64 poison, i64 poison), metadata !5369, metadata !DIExpression(DW_OP_LLVM_arg, 0, DW_OP_LLVM_arg, 2, DW_OP_or, DW_OP_LLVM_arg, 1, DW_OP_or, DW_OP_constu, 16, DW_OP_shr, DW_OP_LLVM_convert, 64, DW_ATE_unsigned, DW_OP_LLVM_convert, 16, DW_ATE_unsigned, DW_OP_stack_value, DW_OP_LLVM_fragment, 16, 16)), !dbg !5394
  %.tr.i.i = trunc i64 %59 to i32, !dbg !5397
  %60 = shl i32 %.tr.i.i, 16, !dbg !5397
  call void @llvm.dbg.value(metadata !DIArgList(i64 poison, i64 poison, i64 poison), metadata !3543, metadata !DIExpression(DW_OP_LLVM_arg, 0, DW_OP_LLVM_arg, 2, DW_OP_or, DW_OP_LLVM_arg, 1, DW_OP_or, DW_OP_constu, 16, DW_OP_shr, DW_OP_LLVM_convert, 64, DW_ATE_unsigned, DW_OP_LLVM_convert, 16, DW_ATE_unsigned, DW_OP_stack_value)), !dbg !5398
  call void @llvm.dbg.value(metadata !DIArgList(i64 poison, i64 poison, i64 poison), metadata !3745, metadata !DIExpression(DW_OP_LLVM_arg, 0, DW_OP_LLVM_arg, 2, DW_OP_or, DW_OP_LLVM_arg, 1, DW_OP_or, DW_OP_constu, 16, DW_OP_shr, DW_OP_LLVM_convert, 64, DW_ATE_unsigned, DW_OP_LLVM_convert, 16, DW_ATE_unsigned, DW_OP_stack_value)), !dbg !5399
  call void @llvm.dbg.value(metadata !DIArgList(i64 poison, i64 poison, i64 poison), metadata !3746, metadata !DIExpression(DW_OP_LLVM_arg, 0, DW_OP_LLVM_arg, 2, DW_OP_or, DW_OP_LLVM_arg, 1, DW_OP_or, DW_OP_constu, 16, DW_OP_shr, DW_OP_LLVM_convert, 64, DW_ATE_unsigned, DW_OP_LLVM_convert, 16, DW_ATE_unsigned, DW_OP_stack_value)), !dbg !5400
  call void @llvm.dbg.value(metadata !DIArgList(i64 poison, i64 poison, i64 poison), metadata !3735, metadata !DIExpression(DW_OP_LLVM_arg, 0, DW_OP_LLVM_arg, 2, DW_OP_or, DW_OP_LLVM_arg, 1, DW_OP_or, DW_OP_constu, 16, DW_OP_shr, DW_OP_LLVM_convert, 64, DW_ATE_unsigned, DW_OP_LLVM_convert, 16, DW_ATE_unsigned, DW_OP_stack_value)), !dbg !5401
  call void @llvm.dbg.value(metadata !DIArgList(i64 poison, i64 poison, i64 poison), metadata !3728, metadata !DIExpression(DW_OP_LLVM_arg, 0, DW_OP_LLVM_arg, 2, DW_OP_or, DW_OP_LLVM_arg, 1, DW_OP_or, DW_OP_constu, 16, DW_OP_shr, DW_OP_LLVM_convert, 64, DW_ATE_unsigned, DW_OP_LLVM_convert, 16, DW_ATE_unsigned, DW_OP_stack_value)), !dbg !5402
  %self101.i.i = ashr exact i32 %60, 16, !dbg !5403
  call void @llvm.dbg.value(metadata i32 %self101.i.i, metadata !3721, metadata !DIExpression()), !dbg !5404
  call void @llvm.dbg.value(metadata i32 %self101.i.i, metadata !3712, metadata !DIExpression()), !dbg !3716
  %code103.i.i = sub nsw i32 0, %self101.i.i, !dbg !5405
  call void @llvm.dbg.value(metadata i32 %code103.i.i, metadata !5406, metadata !DIExpression()), !dbg !5412
  call void @llvm.dbg.value(metadata i32 %code103.i.i, metadata !5414, metadata !DIExpression()), !dbg !5436
  %_163.i.i = sext i32 %code103.i.i to i64, !dbg !5438
  %_162.i.i = shl nsw i64 %_163.i.i, 32, !dbg !5439
  br label %bb34.i.i, !dbg !5440

bb33.i.i:                                         ; preds = %bb32.i.i
  %.sroa.5121.0.extract.shift.i.i = and i64 %59, 4294932479, !dbg !5397
  call void @llvm.dbg.value(metadata i64 %59, metadata !5369, metadata !DIExpression(DW_OP_constu, 4294932479, DW_OP_and, DW_OP_LLVM_convert, 64, DW_ATE_unsigned, DW_OP_LLVM_convert, 32, DW_ATE_unsigned, DW_OP_stack_value, DW_OP_LLVM_fragment, 32, 32)), !dbg !5394
  call void @llvm.dbg.value(metadata ptr undef, metadata !5442, metadata !DIExpression()), !dbg !5448
  call void @llvm.dbg.value(metadata i64 %59, metadata !5447, metadata !DIExpression(DW_OP_constu, 4294932479, DW_OP_and, DW_OP_LLVM_convert, 64, DW_ATE_unsigned, DW_OP_LLVM_convert, 32, DW_ATE_unsigned, DW_OP_constu, 2048, DW_OP_or, DW_OP_stack_value)), !dbg !5448
  call void @llvm.dbg.value(metadata ptr undef, metadata !4697, metadata !DIExpression()), !dbg !5450
  call void @llvm.dbg.value(metadata ptr undef, metadata !4705, metadata !DIExpression()), !dbg !5452
  call void @llvm.dbg.value(metadata i32 %self42.sroa.8.1.i.i, metadata !4713, metadata !DIExpression()), !dbg !5454
  call void @llvm.dbg.value(metadata i32 32768, metadata !5456, metadata !DIExpression()), !dbg !5472
  call void @llvm.dbg.value(metadata i64 72, metadata !5508, metadata !DIExpression()), !dbg !5517
  call void @llvm.dbg.value(metadata i32 %self42.sroa.8.1.i.i, metadata !5503, metadata !DIExpression()), !dbg !5520
  call void @llvm.dbg.value(metadata i64 %59, metadata !5504, metadata !DIExpression(DW_OP_constu, 4294932479, DW_OP_and, DW_OP_LLVM_convert, 64, DW_ATE_unsigned, DW_OP_LLVM_convert, 32, DW_ATE_unsigned, DW_OP_constu, 2048, DW_OP_or, DW_OP_stack_value)), !dbg !5520
  %bits.i.i.i.i = or disjoint i64 %.sroa.5121.0.extract.shift.i.i, 34816, !dbg !5521
  call void @llvm.dbg.value(metadata ptr %raw.i.i.i.i, metadata !5512, metadata !DIExpression()), !dbg !5517
  call void @llvm.dbg.value(metadata ptr inttoptr (i64 4 to ptr), metadata !5513, metadata !DIExpression()), !dbg !5517
  call void @llvm.dbg.value(metadata i64 %bits.i.i.i.i, metadata !5505, metadata !DIExpression()), !dbg !5522
  call void @llvm.dbg.value(metadata i64 %bits.i.i.i.i, metadata !5523, metadata !DIExpression()), !dbg !5530
  call void @llvm.dbg.value(metadata i64 %bits.i.i.i.i, metadata !5532, metadata !DIExpression()), !dbg !5540
  call void @llvm.dbg.value(metadata i64 %bits.i.i.i.i, metadata !5542, metadata !DIExpression()), !dbg !5546
  %raw26.i.i.i.i = inttoptr i64 %bits.i.i.i.i to ptr, !dbg !5548
  call void @llvm.dbg.value(metadata ptr %raw26.i.i.i.i, metadata !5514, metadata !DIExpression()), !dbg !5517
  %61 = call { ptr, i32, i32 } asm sideeffect inteldialect "syscall", "={ax},={cx},={r11},{ax},{di},{si},{dx},~{memory}"(ptr nonnull inttoptr (i64 72 to ptr), ptr %raw.i.i.i.i, ptr nonnull inttoptr (i64 4 to ptr), ptr nonnull %raw26.i.i.i.i) #22, !dbg !5549, !noalias !5550, !srcloc !5044
  %62 = extractvalue { ptr, i32, i32 } %61, 0, !dbg !5549
  call void @llvm.dbg.value(metadata ptr %62, metadata !5515, metadata !DIExpression()), !dbg !5553
  call void @llvm.dbg.value(metadata ptr %62, metadata !5554, metadata !DIExpression()), !dbg !5558
  call void @llvm.dbg.value(metadata ptr %62, metadata !5573, metadata !DIExpression()), !dbg !5575
  call void @llvm.dbg.value(metadata ptr %62, metadata !5568, metadata !DIExpression()), !dbg !5576
  call void @llvm.dbg.value(metadata ptr undef, metadata !5563, metadata !DIExpression()), !dbg !5577
  call void @llvm.dbg.value(metadata ptr %62, metadata !5578, metadata !DIExpression()), !dbg !5582
  %_33.not.i.i.not.i.i = icmp eq ptr %62, null, !dbg !5584
  call void @llvm.dbg.value(metadata i1 %_33.not.i.i.not.i.i, metadata !5585, metadata !DIExpression(DW_OP_LLVM_convert, 1, DW_ATE_unsigned, DW_OP_LLVM_convert, 16, DW_ATE_unsigned, DW_OP_stack_value, DW_OP_LLVM_fragment, 0, 16)), !dbg !5593
  call void @llvm.dbg.value(metadata i16 poison, metadata !5585, metadata !DIExpression(DW_OP_LLVM_fragment, 16, 16)), !dbg !5593
  br i1 %_33.not.i.i.not.i.i, label %bb41.i, label %bb58.i.i, !dbg !5595

bb58.i.i:                                         ; preds = %bb33.i.i
  %_35.i.i.i.i = ptrtoint ptr %62 to i64, !dbg !5596
  call void @llvm.dbg.value(metadata i64 %_35.i.i.i.i, metadata !5585, metadata !DIExpression(DW_OP_LLVM_convert, 64, DW_ATE_unsigned, DW_OP_LLVM_convert, 16, DW_ATE_unsigned, DW_OP_stack_value, DW_OP_LLVM_fragment, 16, 16)), !dbg !5593
  call void @llvm.dbg.value(metadata i64 %_35.i.i.i.i, metadata !3556, metadata !DIExpression(DW_OP_LLVM_convert, 64, DW_ATE_unsigned, DW_OP_LLVM_convert, 16, DW_ATE_unsigned, DW_OP_stack_value)), !dbg !5597
  call void @llvm.dbg.value(metadata i64 %_35.i.i.i.i, metadata !3747, metadata !DIExpression(DW_OP_LLVM_convert, 64, DW_ATE_unsigned, DW_OP_LLVM_convert, 16, DW_ATE_unsigned, DW_OP_stack_value)), !dbg !5598
  call void @llvm.dbg.value(metadata i64 %_35.i.i.i.i, metadata !3749, metadata !DIExpression(DW_OP_LLVM_convert, 64, DW_ATE_unsigned, DW_OP_LLVM_convert, 16, DW_ATE_unsigned, DW_OP_stack_value)), !dbg !5600
  call void @llvm.dbg.value(metadata i64 %_35.i.i.i.i, metadata !3736, metadata !DIExpression(DW_OP_LLVM_convert, 64, DW_ATE_unsigned, DW_OP_LLVM_convert, 16, DW_ATE_unsigned, DW_OP_stack_value)), !dbg !5601
  call void @llvm.dbg.value(metadata i64 %_35.i.i.i.i, metadata !3729, metadata !DIExpression(DW_OP_LLVM_convert, 64, DW_ATE_unsigned, DW_OP_LLVM_convert, 16, DW_ATE_unsigned, DW_OP_stack_value)), !dbg !5603
  %sext.i.i = shl i64 %_35.i.i.i.i, 48, !dbg !5605
  %self95.i.i = ashr exact i64 %sext.i.i, 48, !dbg !5605
  call void @llvm.dbg.value(metadata !DIArgList(i32 0, i64 %_35.i.i.i.i), metadata !5410, metadata !DIExpression(DW_OP_LLVM_arg, 0, DW_OP_LLVM_arg, 1, DW_OP_LLVM_convert, 64, DW_ATE_unsigned, DW_OP_LLVM_convert, 16, DW_ATE_unsigned, DW_OP_LLVM_convert, 16, DW_ATE_signed, DW_OP_LLVM_convert, 32, DW_ATE_signed, DW_OP_minus, DW_OP_stack_value)), !dbg !5606
  call void @llvm.dbg.value(metadata !DIArgList(i32 0, i64 %_35.i.i.i.i), metadata !5426, metadata !DIExpression(DW_OP_LLVM_arg, 0, DW_OP_LLVM_arg, 1, DW_OP_LLVM_convert, 64, DW_ATE_unsigned, DW_OP_LLVM_convert, 16, DW_ATE_unsigned, DW_OP_LLVM_convert, 16, DW_ATE_signed, DW_OP_LLVM_convert, 32, DW_ATE_signed, DW_OP_minus, DW_OP_stack_value)), !dbg !5608
  %.neg.i.i = mul nsw i64 %self95.i.i, -4294967296, !dbg !5610
  br label %bb34.i.i, !dbg !5440

bb34.i.i:                                         ; preds = %bb58.i.i, %bb56.i.i
  %_162.sink.i.i = phi i64 [ %_162.i.i, %bb56.i.i ], [ %.neg.i.i, %bb58.i.i ]
  call void @llvm.dbg.value(metadata ptr undef, metadata !2390, metadata !DIExpression()), !dbg !5611
  call void @llvm.dbg.value(metadata ptr undef, metadata !2402, metadata !DIExpression()), !dbg !5613
  %_4.i.i180.i.i = invoke noundef i32 @close(i32 noundef %self42.sroa.11.8.extract.trunc.pre-phi.i.i)
          to label %bb35.i.i unwind label %bb39.i.i, !dbg !5615, !noalias !3755

bb39.i.i:                                         ; preds = %bb34.i.i
  %63 = landingpad { ptr, i32 }
          cleanup
  call void @llvm.dbg.value(metadata ptr undef, metadata !2390, metadata !DIExpression()), !dbg !5616
  call void @llvm.dbg.value(metadata ptr undef, metadata !2402, metadata !DIExpression()), !dbg !5618
  %_4.i.i183.i.i = invoke noundef i32 @close(i32 noundef %self42.sroa.8.1.i.i)
          to label %bb34.i unwind label %terminate.i.i, !dbg !5620, !noalias !3755

bb35.i.i:                                         ; preds = %bb34.i.i
  call void @llvm.dbg.value(metadata ptr undef, metadata !2390, metadata !DIExpression()), !dbg !5621
  call void @llvm.dbg.value(metadata ptr undef, metadata !2402, metadata !DIExpression()), !dbg !5623
  %_4.i.i.i133.i = invoke noundef i32 @close(i32 noundef %self42.sroa.8.1.i.i)
          to label %bb40.i unwind label %cleanup.i, !dbg !5625, !noalias !3367

bb38.i:                                           ; preds = %start
  %64 = shl i32 %_15.i.tr.i, 16, !dbg !3461
  call void @llvm.dbg.value(metadata !DIArgList(i64 poison, i64 poison), metadata !3026, metadata !DIExpression(DW_OP_LLVM_arg, 0, DW_OP_LLVM_arg, 1, DW_OP_or, DW_OP_constu, 16, DW_OP_shr, DW_OP_LLVM_convert, 64, DW_ATE_unsigned, DW_OP_LLVM_convert, 16, DW_ATE_unsigned, DW_OP_stack_value)), !dbg !5626
  call void @llvm.dbg.value(metadata !DIArgList(i64 poison, i64 poison), metadata !3199, metadata !DIExpression(DW_OP_LLVM_arg, 0, DW_OP_LLVM_arg, 1, DW_OP_or, DW_OP_constu, 16, DW_OP_shr, DW_OP_LLVM_convert, 64, DW_ATE_unsigned, DW_OP_LLVM_convert, 16, DW_ATE_unsigned, DW_OP_stack_value)), !dbg !5627
  call void @llvm.dbg.value(metadata !DIArgList(i64 poison, i64 poison), metadata !3200, metadata !DIExpression(DW_OP_LLVM_arg, 0, DW_OP_LLVM_arg, 1, DW_OP_or, DW_OP_constu, 16, DW_OP_shr, DW_OP_LLVM_convert, 64, DW_ATE_unsigned, DW_OP_LLVM_convert, 16, DW_ATE_unsigned, DW_OP_stack_value)), !dbg !5628
  call void @llvm.dbg.value(metadata !DIArgList(i64 poison, i64 poison), metadata !3189, metadata !DIExpression(DW_OP_LLVM_arg, 0, DW_OP_LLVM_arg, 1, DW_OP_or, DW_OP_constu, 16, DW_OP_shr, DW_OP_LLVM_convert, 64, DW_ATE_unsigned, DW_OP_LLVM_convert, 16, DW_ATE_unsigned, DW_OP_stack_value)), !dbg !5629
  call void @llvm.dbg.value(metadata !DIArgList(i64 poison, i64 poison), metadata !3178, metadata !DIExpression(DW_OP_LLVM_arg, 0, DW_OP_LLVM_arg, 1, DW_OP_or, DW_OP_constu, 16, DW_OP_shr, DW_OP_LLVM_convert, 64, DW_ATE_unsigned, DW_OP_LLVM_convert, 16, DW_ATE_unsigned, DW_OP_stack_value)), !dbg !5630
  %self108.i = ashr exact i32 %64, 16, !dbg !5631
  call void @llvm.dbg.value(metadata i32 %self108.i, metadata !3169, metadata !DIExpression()), !dbg !5632
  call void @llvm.dbg.value(metadata i32 %self108.i, metadata !3161, metadata !DIExpression()), !dbg !3162
  %code.i = sub nsw i32 0, %self108.i, !dbg !5633
  call void @llvm.dbg.value(metadata i32 %code.i, metadata !5634, metadata !DIExpression()), !dbg !5638
  call void @llvm.dbg.value(metadata i32 %code.i, metadata !5640, metadata !DIExpression()), !dbg !5652
  %_121.i = sext i32 %code.i to i64, !dbg !5654
  %_120.i = shl nsw i64 %_121.i, 32, !dbg !5655
  %utagged.i = or disjoint i64 %_120.i, 2, !dbg !5655
  call void @llvm.dbg.value(metadata i64 %utagged.i, metadata !5644, metadata !DIExpression()), !dbg !5656
  call void @llvm.dbg.value(metadata i64 %utagged.i, metadata !5657, metadata !DIExpression()), !dbg !5663
  %ptr.i = getelementptr i8, ptr null, i64 %utagged.i, !dbg !5665
  tail call void @llvm.dbg.value(metadata ptr %ptr.i, metadata !5666, metadata !DIExpression(DW_OP_LLVM_fragment, 64, 64)), !dbg !5691
  tail call void @llvm.dbg.value(metadata i32 -1, metadata !5666, metadata !DIExpression(DW_OP_LLVM_fragment, 0, 32)), !dbg !5691
  br label %bb4, !dbg !5693

cleanup.i:                                        ; preds = %bb4.i.i.i, %bb35.i.i, %bb9.i.i.i, %bb48.i.i, %bb47.i.i, %bb27.i.i, %_ZN12tracing_core8callsite15DefaultCallsite8interest17h7e55a3acd5f3d2c8E.exit145.i.i
  %65 = landingpad { ptr, i32 }
          cleanup
  br label %bb34.i

bb41.i:                                           ; preds = %bb33.i.i, %bb46.i.i, %bb14.i.i, %bb11.i.i, %bb8.i.i, %bb7.i.i
  %self43.sroa.11.0.ph.i = phi i32 [ -1, %bb7.i.i ], [ -1, %bb8.i.i ], [ -1, %bb11.i.i ], [ -1, %bb14.i.i ], [ -1, %bb46.i.i ], [ %self42.sroa.11.8.extract.trunc.pre-phi.i.i, %bb33.i.i ]
  %self43.sroa.8.0.ph.i = phi i32 [ %raw_fd.i.i.i, %bb7.i.i ], [ %raw_fd.i.i.i, %bb8.i.i ], [ %raw_fd.i.i.i, %bb11.i.i ], [ %raw_fd.i.i.i, %bb14.i.i ], [ %raw_fd.i.i.i, %bb46.i.i ], [ %self42.sroa.8.1.i.i, %bb33.i.i ]
  call void @llvm.dbg.value(metadata i32 %self43.sroa.8.0.ph.i, metadata !3047, metadata !DIExpression(DW_OP_LLVM_fragment, 0, 32)), !dbg !5695
  call void @llvm.dbg.value(metadata i32 %self43.sroa.11.0.ph.i, metadata !3047, metadata !DIExpression(DW_OP_LLVM_fragment, 32, 32)), !dbg !5695
  store i32 %self43.sroa.8.0.ph.i, ptr %notifier.i, align 8, !dbg !5696, !noalias !3367
  %val.sroa.4.0.notifier.sroa_idx.i = getelementptr inbounds i8, ptr %notifier.i, i64 4, !dbg !5696
  store i32 %self43.sroa.11.0.ph.i, ptr %val.sroa.4.0.notifier.sroa_idx.i, align 4, !dbg !5696, !noalias !3367
  call void @llvm.dbg.value(metadata ptr inttoptr (i64 1 to ptr), metadata !3254, metadata !DIExpression()), !dbg !3258
  call void @llvm.dbg.value(metadata ptr inttoptr (i64 526336 to ptr), metadata !3255, metadata !DIExpression()), !dbg !3258
