; ModuleID = 'proc_macro2.b2cb532ce99a8287-cgu.0'
source_filename = "proc_macro2.b2cb532ce99a8287-cgu.0"
target datalayout = "e-m:e-p270:32:32-p271:32:32-p272:64:64-i64:64-i128:128-f80:128-n8:16:32:64-S128"
target triple = "x86_64-unknown-linux-gnu"

%TokenTree = type { i64, [3 x i64] }
%"proc_macro::TokenTree" = type { [16 x i8], i8, [3 x i8] }
%"fallback::TokenStreamBuilder" = type { %"rcvec::RcVecBuilder<TokenTree>" }
%"rcvec::RcVecBuilder<TokenTree>" = type { %"alloc::vec::Vec<TokenTree>" }
%"alloc::vec::Vec<TokenTree>" = type { %"alloc::raw_vec::RawVec<TokenTree>", i64 }
%"alloc::raw_vec::RawVec<TokenTree>" = type { i64, ptr, %"alloc::alloc::Global" }
%"alloc::alloc::Global" = type {}
%"proc_macro::bridge::TokenTree<proc_macro::bridge::client::TokenStream, proc_macro::bridge::client::Span, proc_macro::bridge::symbol::Symbol>" = type { [16 x i8], i8, [3 x i8] }
%"core::fmt::rt::Argument<'_>" = type { %"core::fmt::rt::ArgumentType<'_>" }
%"core::fmt::rt::ArgumentType<'_>" = type { [1 x i64], ptr }
%"core::mem::maybe_uninit::MaybeUninit<proc_macro::bridge::TokenTree<proc_macro::bridge::client::TokenStream, proc_macro::bridge::client::Span, proc_macro::bridge::symbol::Symbol>>" = type { [5 x i32] }
%"core::mem::maybe_uninit::MaybeUninit<proc_macro::TokenTree>" = type { [5 x i32] }
%"core::mem::maybe_uninit::MaybeUninit<TokenTree>" = type { [4 x i64] }
%"core::fmt::rt::Placeholder" = type { %"core::fmt::rt::Count", %"core::fmt::rt::Count", i64, i32, i32, i8, [7 x i8] }
%"core::fmt::rt::Count" = type { i64, [1 x i64] }

@0 = private unnamed_addr constant <{ [8 x i8], [8 x i8] }> <{ [8 x i8] zeroinitializer, [8 x i8] undef }>, align 8
@alloc_2e27c105fc1a6692f373ee7f9a57a4d7 = private unnamed_addr constant <{ [42 x i8] }> <{ [42 x i8] c"Once instance has previously been poisoned" }>, align 1
@alloc_9cc4df00976b591da2e084a2cf898fab = private unnamed_addr constant <{ ptr, [8 x i8] }> <{ ptr @alloc_2e27c105fc1a6692f373ee7f9a57a4d7, [8 x i8] c"*\00\00\00\00\00\00\00" }>, align 8
@1 = private unnamed_addr constant <{ [8 x i8], [4 x i8], [4 x i8] }> <{ [8 x i8] undef, [4 x i8] c"\00\CA\9A;", [4 x i8] undef }>, align 8
@alloc_444efeefbbf6ca6cf3b2dda45084f1f0 = private unnamed_addr constant <{ [78 x i8] }> <{ [78 x i8] c"internal error: entered unreachable code: state is never set to invalid values" }>, align 1
@alloc_2a9cdb20370524832dacb396d295f90f = private unnamed_addr constant <{ ptr, [8 x i8] }> <{ ptr @alloc_444efeefbbf6ca6cf3b2dda45084f1f0, [8 x i8] c"N\00\00\00\00\00\00\00" }>, align 8
@alloc_231575412c05d7d1619729606d50721d = private unnamed_addr constant <{ [81 x i8] }> <{ [81 x i8] c"/home/arsalan/Documents/Github/unsafe-rust-benchmark/library/std/src/sync/once.rs" }>, align 1
@alloc_323e3e924a872d3e19f6b8d20ac72063 = private unnamed_addr constant <{ ptr, [16 x i8] }> <{ ptr @alloc_231575412c05d7d1619729606d50721d, [16 x i8] c"Q\00\00\00\00\00\00\00\95\00\00\002\00\00\00" }>, align 8
@alloc_ae6dc619079e3c3b08144a35532ecff7 = private unnamed_addr constant <{ [2 x i8] }> <{ [2 x i8] c"()" }>, align 1
@vtable.0 = private unnamed_addr constant <{ ptr, [16 x i8], ptr, ptr, ptr }> <{ ptr @"_ZN4core3ptr42drop_in_place$LT$alloc..string..String$GT$17h32add1a642bb0b4eE", [16 x i8] c"\18\00\00\00\00\00\00\00\08\00\00\00\00\00\00\00", ptr @"_ZN58_$LT$alloc..string..String$u20$as$u20$core..fmt..Write$GT$9write_str17hc91a144ace0c4462E", ptr @"_ZN58_$LT$alloc..string..String$u20$as$u20$core..fmt..Write$GT$10write_char17h33a5675a7808594dE", ptr @_ZN4core3fmt5Write9write_fmt17h3d12c4d9511c7708E }>, align 8
@alloc_cc656815297f75969399c3f4b1ad3de4 = private unnamed_addr constant <{ [55 x i8] }> <{ [55 x i8] c"a Display implementation returned an error unexpectedly" }>, align 1
@alloc_56ddd9f8a83a5b1254ce7cdf41b13c3e = private unnamed_addr constant <{ [80 x i8] }> <{ [80 x i8] c"/home/arsalan/Documents/Github/unsafe-rust-benchmark/library/alloc/src/string.rs" }>, align 1
@alloc_f886f96e9a07c60a12107d674cf0d185 = private unnamed_addr constant <{ ptr, [16 x i8] }> <{ ptr @alloc_56ddd9f8a83a5b1254ce7cdf41b13c3e, [16 x i8] c"P\00\00\00\00\00\00\00\03\0A\00\00\0E\00\00\00" }>, align 8
@alloc_424341b75ece3fa20496f1c69b9fb0ac = private unnamed_addr constant <{ [111 x i8] }> <{ [111 x i8] c"unsafe precondition(s) violated: ptr::write_bytes requires that the destination pointer is aligned and non-null" }>, align 1
@alloc_fad0cd83b7d1858a846a172eb260e593 = private unnamed_addr constant <{ [42 x i8] }> <{ [42 x i8] c"is_aligned_to: align is not a power-of-two" }>, align 1
@alloc_041983ee8170efdaaf95ba67fd072d26 = private unnamed_addr constant <{ ptr, [8 x i8] }> <{ ptr @alloc_fad0cd83b7d1858a846a172eb260e593, [8 x i8] c"*\00\00\00\00\00\00\00" }>, align 8
@alloc_1cb116c55cd0edb3d6bef8847f58e222 = private unnamed_addr constant <{ [86 x i8] }> <{ [86 x i8] c"/home/arsalan/Documents/Github/unsafe-rust-benchmark/library/core/src/ptr/const_ptr.rs" }>, align 1
@alloc_03d266dccd993e13de22250e3dccd7d7 = private unnamed_addr constant <{ ptr, [16 x i8] }> <{ ptr @alloc_1cb116c55cd0edb3d6bef8847f58e222, [16 x i8] c"V\00\00\00\00\00\00\00\86\06\00\00\0D\00\00\00" }>, align 8
@vtable.1 = private unnamed_addr constant <{ ptr, [16 x i8], ptr }> <{ ptr @"_ZN4core3ptr43drop_in_place$LT$proc_macro2..TokenTree$GT$17h6f257bf220908a92E", [16 x i8] c" \00\00\00\00\00\00\00\08\00\00\00\00\00\00\00", ptr @"_ZN59_$LT$proc_macro2..TokenTree$u20$as$u20$core..fmt..Debug$GT$3fmt17hdea1a3ae1a4c5ca2E" }>, align 8
@alloc_d30a741e02fc5ea2d050c92e901091a3 = private unnamed_addr constant <{ [69 x i8] }> <{ [69 x i8] c"unsafe precondition(s) violated: usize::unchecked_sub cannot overflow" }>, align 1
@alloc_20b3d155afd5c58c42e598b7e6d186ef = private unnamed_addr constant <{ [93 x i8] }> <{ [93 x i8] c"unsafe precondition(s) violated: NonNull::new_unchecked requires that the pointer is non-null" }>, align 1
@alloc_ec595fc0e82ef92fc59bd74f68296eae = private unnamed_addr constant <{ [73 x i8] }> <{ [73 x i8] c"assertion failed: 0 < pointee_size && pointee_size <= isize::MAX as usize" }>, align 1
@alloc_cedbb71194daee93c1287f403fa88727 = private unnamed_addr constant <{ ptr, [16 x i8] }> <{ ptr @alloc_1cb116c55cd0edb3d6bef8847f58e222, [16 x i8] c"V\00\00\00\00\00\00\00p\03\00\00\09\00\00\00" }>, align 8
@2 = private unnamed_addr constant <{ [4 x i8], [4 x i8] }> <{ [4 x i8] zeroinitializer, [4 x i8] undef }>, align 4
@alloc_9d901a68d4e81abad8d6748306ca47ae = private unnamed_addr constant <{ [80 x i8] }> <{ [80 x i8] c"/home/arsalan/Documents/Github/unsafe-rust-benchmark/library/core/src/str/mod.rs" }>, align 1
@alloc_90d339349fb90c34ee429f9a17b2b451 = private unnamed_addr constant <{ ptr, [16 x i8] }> <{ ptr @alloc_9d901a68d4e81abad8d6748306ca47ae, [16 x i8] c"P\00\00\00\00\00\00\00\93\02\00\00\15\00\00\00" }>, align 8
@alloc_e6db3cfc6902fb736f1ea6506b7198e8 = private unnamed_addr constant <{ [102 x i8] }> <{ [102 x i8] c"unsafe precondition(s) violated: str::get_unchecked requires that the range is within the string slice" }>, align 1
@alloc_e09b762e23e7aab5d1c9567cce4bbe22 = private unnamed_addr constant <{ [84 x i8] }> <{ [84 x i8] c"/home/arsalan/Documents/Github/unsafe-rust-benchmark/library/core/src/str/pattern.rs" }>, align 1
@alloc_0453b75c606d890f49eaeb1e871fc4a0 = private unnamed_addr constant <{ ptr, [16 x i8] }> <{ ptr @alloc_e09b762e23e7aab5d1c9567cce4bbe22, [16 x i8] c"T\00\00\00\00\00\00\00\DF\06\00\00\17\00\00\00" }>, align 8
@alloc_6bfc19cc357790f8d752bfe72883159b = private unnamed_addr constant <{ ptr, [16 x i8] }> <{ ptr @alloc_e09b762e23e7aab5d1c9567cce4bbe22, [16 x i8] c"T\00\00\00\00\00\00\00\F9\06\00\00,\00\00\00" }>, align 8
@alloc_b909a04b5e0d31af8ff45541f6106dff = private unnamed_addr constant <{ ptr, [16 x i8] }> <{ ptr @alloc_e09b762e23e7aab5d1c9567cce4bbe22, [16 x i8] c"T\00\00\00\00\00\00\003\07\00\00\18\00\00\00" }>, align 8
@alloc_9a698867b0bf7c385ee30a72e4035d4d = private unnamed_addr constant <{ ptr, [16 x i8] }> <{ ptr @alloc_e09b762e23e7aab5d1c9567cce4bbe22, [16 x i8] c"T\00\00\00\00\00\00\000\07\00\00\0D\00\00\00" }>, align 8
@alloc_6581e7233c441557faa14a09e84c8b0e = private unnamed_addr constant <{ ptr, [16 x i8] }> <{ ptr @alloc_e09b762e23e7aab5d1c9567cce4bbe22, [16 x i8] c"T\00\00\00\00\00\00\00\FC\06\00\00!\00\00\00" }>, align 8
@alloc_d0b5540d38aa67683bd942cb6db4a43b = private unnamed_addr constant <{ [28 x i8] }> <{ [28 x i8] c"window size must be non-zero" }>, align 1
@alloc_6cf54154542de7742fe5e8314c4406a8 = private unnamed_addr constant <{ ptr, [16 x i8] }> <{ ptr @alloc_e09b762e23e7aab5d1c9567cce4bbe22, [16 x i8] c"T\00\00\00\00\00\00\00\F5\06\00\00\1E\00\00\00" }>, align 8
@alloc_8821998f047ca62cad40e6bc4e4d87c4 = private unnamed_addr constant <{ [1 x i8] }> <{ [1 x i8] c"\01" }>, align 1
@alloc_8cc17694d981e8ffc4bb82cceee5e7d7 = private unnamed_addr constant <{ ptr, [16 x i8] }> <{ ptr @alloc_e09b762e23e7aab5d1c9567cce4bbe22, [16 x i8] c"T\00\00\00\00\00\00\00\EA\06\00\00I\00\00\00" }>, align 8
@alloc_ff3d81b5c02c61ff6765870bae09bd90 = private unnamed_addr constant <{ ptr, [16 x i8] }> <{ ptr @alloc_e09b762e23e7aab5d1c9567cce4bbe22, [16 x i8] c"T\00\00\00\00\00\00\00\C3\05\00\00\14\00\00\00" }>, align 8
@alloc_a1f18b7736b2d62dfea50214c99bc585 = private unnamed_addr constant <{ ptr, [16 x i8] }> <{ ptr @alloc_e09b762e23e7aab5d1c9567cce4bbe22, [16 x i8] c"T\00\00\00\00\00\00\00\C3\05\00\00!\00\00\00" }>, align 8
@alloc_70e067e9caceffb0495a1ba70e5bde5b = private unnamed_addr constant <{ ptr, [16 x i8] }> <{ ptr @alloc_e09b762e23e7aab5d1c9567cce4bbe22, [16 x i8] c"T\00\00\00\00\00\00\00\B7\05\00\00\14\00\00\00" }>, align 8
@alloc_1be711072f2b745146df4e520c0dc296 = private unnamed_addr constant <{ ptr, [16 x i8] }> <{ ptr @alloc_e09b762e23e7aab5d1c9567cce4bbe22, [16 x i8] c"T\00\00\00\00\00\00\00\B7\05\00\00!\00\00\00" }>, align 8
@alloc_2e749ba99c833073cec5ec5cf7e2f49b = private unnamed_addr constant <{ [85 x i8] }> <{ [85 x i8] c"/home/arsalan/Documents/Github/unsafe-rust-benchmark/library/core/src/char/methods.rs" }>, align 1
@alloc_57859aeb3d01b34b21a99a66643e2791 = private unnamed_addr constant <{ ptr, [16 x i8] }> <{ ptr @alloc_2e749ba99c833073cec5ec5cf7e2f49b, [16 x i8] c"U\00\00\00\00\00\00\00\05\07\00\00\0D\00\00\00" }>, align 8
@alloc_6b031f9bca8204235732c7c365d04a1d = private unnamed_addr constant <{ [18 x i8] }> <{ [18 x i8] c"encode_utf8: need " }>, align 1
@alloc_28d13efb0f9a95ccb5d02ec33dd195cf = private unnamed_addr constant <{ [19 x i8] }> <{ [19 x i8] c" bytes to encode U+" }>, align 1
@alloc_0d928972d2befd736e581c7fcc5a2f9a = private unnamed_addr constant <{ [21 x i8] }> <{ [21 x i8] c", but the buffer has " }>, align 1
@alloc_d51214f097f67314513b76e97e13aa6b = private unnamed_addr constant <{ ptr, [8 x i8], ptr, [8 x i8], ptr, [8 x i8] }> <{ ptr @alloc_6b031f9bca8204235732c7c365d04a1d, [8 x i8] c"\12\00\00\00\00\00\00\00", ptr @alloc_28d13efb0f9a95ccb5d02ec33dd195cf, [8 x i8] c"\13\00\00\00\00\00\00\00", ptr @alloc_0d928972d2befd736e581c7fcc5a2f9a, [8 x i8] c"\15\00\00\00\00\00\00\00" }>, align 8
@alloc_054e99fbcf449d4476ca571e33a9e487 = private unnamed_addr constant <{ ptr, [16 x i8] }> <{ ptr @alloc_2e749ba99c833073cec5ec5cf7e2f49b, [16 x i8] c"U\00\00\00\00\00\00\00\FE\06\00\00\0E\00\00\00" }>, align 8
@3 = private unnamed_addr constant <{ [3 x i8] }> <{ [3 x i8] c"\01\01\01" }>, align 1
@alloc_1eb6f53a157dccb32488e066ad957e6d = private unnamed_addr constant <{ [82 x i8] }> <{ [82 x i8] c"unsafe precondition(s) violated: hint::unreachable_unchecked must never be reached" }>, align 1
@alloc_2db939117273c81f2ea7c529b08131b4 = private unnamed_addr constant <{ [95 x i8] }> <{ [95 x i8] c"/home/arsalan/Documents/Github/unsafe-rust-benchmark/library/core/src/iter/traits/exact_size.rs" }>, align 1
@alloc_aef40131b878795ce468e408084e211f = private unnamed_addr constant <{ ptr, [16 x i8] }> <{ ptr @alloc_2db939117273c81f2ea7c529b08131b4, [16 x i8] c"_\00\00\00\00\00\00\00z\00\00\00\09\00\00\00" }>, align 8
@alloc_9cd20c3e415f4d39f0ceb012cb758628 = private unnamed_addr constant <{ [40 x i8] }> <{ [40 x i8] c"there is no such thing as a release load" }>, align 1
@alloc_cf8f91dd8bc9347b20052f6ccc905cd7 = private unnamed_addr constant <{ ptr, [8 x i8] }> <{ ptr @alloc_9cd20c3e415f4d39f0ceb012cb758628, [8 x i8] c"(\00\00\00\00\00\00\00" }>, align 8
@alloc_7a3efd4e003eb9b4fbbbd598184a59f2 = private unnamed_addr constant <{ [84 x i8] }> <{ [84 x i8] c"/home/arsalan/Documents/Github/unsafe-rust-benchmark/library/core/src/sync/atomic.rs" }>, align 1
@alloc_553a57103207da2b168072f4d019d879 = private unnamed_addr constant <{ ptr, [16 x i8] }> <{ ptr @alloc_7a3efd4e003eb9b4fbbbd598184a59f2, [16 x i8] c"T\00\00\00\00\00\00\00\E5\0C\00\00\18\00\00\00" }>, align 8
@alloc_96ab912d0054b46da785b206a96c9a45 = private unnamed_addr constant <{ [49 x i8] }> <{ [49 x i8] c"there is no such thing as an acquire-release load" }>, align 1
@alloc_7e8e9a1d4bc7d0bbec692f0a50681e22 = private unnamed_addr constant <{ ptr, [8 x i8] }> <{ ptr @alloc_96ab912d0054b46da785b206a96c9a45, [8 x i8] c"1\00\00\00\00\00\00\00" }>, align 8
@alloc_565c56ce3543e16b198dd2fe92d8c46e = private unnamed_addr constant <{ ptr, [16 x i8] }> <{ ptr @alloc_7a3efd4e003eb9b4fbbbd598184a59f2, [16 x i8] c"T\00\00\00\00\00\00\00\E6\0C\00\00\17\00\00\00" }>, align 8
@alloc_bf39103a6db665396aab4632362d9353 = private unnamed_addr constant <{ [42 x i8] }> <{ [42 x i8] c"there is no such thing as an acquire store" }>, align 1
@alloc_47c752ba42fbab56d43a37cfd56e4899 = private unnamed_addr constant <{ ptr, [8 x i8] }> <{ ptr @alloc_bf39103a6db665396aab4632362d9353, [8 x i8] c"*\00\00\00\00\00\00\00" }>, align 8
@alloc_f2490b91ac8f38c5812eaf37ef0bf1a7 = private unnamed_addr constant <{ ptr, [16 x i8] }> <{ ptr @alloc_7a3efd4e003eb9b4fbbbd598184a59f2, [16 x i8] c"T\00\00\00\00\00\00\00\D6\0C\00\00\18\00\00\00" }>, align 8
@alloc_00c0bce0fa6327f8ec8e69d6d765d508 = private unnamed_addr constant <{ [50 x i8] }> <{ [50 x i8] c"there is no such thing as an acquire-release store" }>, align 1
@alloc_f8dbac861f87e25e445761cc4af66745 = private unnamed_addr constant <{ ptr, [8 x i8] }> <{ ptr @alloc_00c0bce0fa6327f8ec8e69d6d765d508, [8 x i8] c"2\00\00\00\00\00\00\00" }>, align 8
@alloc_582e46b8c50b44926d73f5c37db6c088 = private unnamed_addr constant <{ ptr, [16 x i8] }> <{ ptr @alloc_7a3efd4e003eb9b4fbbbd598184a59f2, [16 x i8] c"T\00\00\00\00\00\00\00\D7\0C\00\00\17\00\00\00" }>, align 8
@alloc_5a43f8d94dd4505c1dba43832ce73af8 = private unnamed_addr constant <{ [52 x i8] }> <{ [52 x i8] c"there is no such thing as a release failure ordering" }>, align 1
@alloc_04ab601c54c6e0a22ff11d72dc7f4511 = private unnamed_addr constant <{ ptr, [8 x i8] }> <{ ptr @alloc_5a43f8d94dd4505c1dba43832ce73af8, [8 x i8] c"4\00\00\00\00\00\00\00" }>, align 8
@alloc_951d71d7fc9a3a03b1604bfc8e6b5b47 = private unnamed_addr constant <{ ptr, [16 x i8] }> <{ ptr @alloc_7a3efd4e003eb9b4fbbbd598184a59f2, [16 x i8] c"T\00\00\00\00\00\00\00]\0D\00\00\1D\00\00\00" }>, align 8
@alloc_7adef5546d83b439c7829602020737c6 = private unnamed_addr constant <{ [61 x i8] }> <{ [61 x i8] c"there is no such thing as an acquire-release failure ordering" }>, align 1
@alloc_dd7d8f77c173bf31726eae321f955bec = private unnamed_addr constant <{ ptr, [8 x i8] }> <{ ptr @alloc_7adef5546d83b439c7829602020737c6, [8 x i8] c"=\00\00\00\00\00\00\00" }>, align 8
@alloc_f8164208b1501e1231a4c490b4e7c4d3 = private unnamed_addr constant <{ ptr, [16 x i8] }> <{ ptr @alloc_7a3efd4e003eb9b4fbbbd598184a59f2, [16 x i8] c"T\00\00\00\00\00\00\00\\\0D\00\00\1C\00\00\00" }>, align 8
@alloc_6ef15161d96b83184bb59cff4003839f = private unnamed_addr constant <{ [85 x i8] }> <{ [85 x i8] c"/home/arsalan/Documents/Github/unsafe-rust-benchmark/library/core/src/alloc/layout.rs" }>, align 1
@alloc_a9c36de80897ff407f24bba36ae610b4 = private unnamed_addr constant <{ ptr, [16 x i8] }> <{ ptr @alloc_6ef15161d96b83184bb59cff4003839f, [16 x i8] c"U\00\00\00\00\00\00\00\C3\01\00\00)\00\00\00" }>, align 8
@alloc_c47f388a2f284dde179cf1caf251ef44 = private unnamed_addr constant <{ [82 x i8] }> <{ [82 x i8] c"/home/arsalan/Documents/Github/unsafe-rust-benchmark/library/core/src/slice/mod.rs" }>, align 1
@alloc_c64833276dcb5250e04ff430ea42f372 = private unnamed_addr constant <{ ptr, [16 x i8] }> <{ ptr @alloc_c47f388a2f284dde179cf1caf251ef44, [16 x i8] c"R\00\00\00\00\00\00\00\00\0A\00\00+\00\00\00" }>, align 8
@alloc_0523a51abf2885f34a27031fa28ece4b = private unnamed_addr constant <{ [82 x i8] }> <{ [82 x i8] c"/home/arsalan/Documents/Github/unsafe-rust-benchmark/library/core/src/ub_checks.rs" }>, align 1
@alloc_039c3f0e51c3c794cef31b8a39b44f71 = private unnamed_addr constant <{ ptr, [16 x i8] }> <{ ptr @alloc_0523a51abf2885f34a27031fa28ece4b, [16 x i8] c"R\00\00\00\00\00\00\00|\00\00\006\00\00\00" }>, align 8
@alloc_11195730e5236cfdc15ea13be1c301f9 = private unnamed_addr constant <{ [162 x i8] }> <{ [162 x i8] c"unsafe precondition(s) violated: slice::from_raw_parts requires the pointer to be aligned and non-null, and the total size of the slice not to exceed `isize::MAX`" }>, align 1
@alloc_a3a1cf871e41b1308ff53e7ed1a22e2a = private unnamed_addr constant <{ [84 x i8] }> <{ [84 x i8] c"/home/arsalan/Documents/Github/unsafe-rust-benchmark/library/core/src/slice/index.rs" }>, align 1
@alloc_e6b42d2b8789752d925cb7715548de74 = private unnamed_addr constant <{ ptr, [16 x i8] }> <{ ptr @alloc_a3a1cf871e41b1308ff53e7ed1a22e2a, [16 x i8] c"T\00\00\00\00\00\00\00\C0\02\00\004\00\00\00" }>, align 8
@alloc_188ed9c65822adf63bb6310b805a766e = private unnamed_addr constant <{ ptr, [16 x i8] }> <{ ptr @alloc_a3a1cf871e41b1308ff53e7ed1a22e2a, [16 x i8] c"T\00\00\00\00\00\00\00\C7\02\00\002\00\00\00" }>, align 8
@alloc_161c855febe47b6eaaf12928eb8fdcfa = private unnamed_addr constant <{ [85 x i8] }> <{ [85 x i8] c"/home/arsalan/Documents/Github/unsafe-rust-benchmark/library/core/src/slice/memchr.rs" }>, align 1
@alloc_088f7798d70e5f6ed62563131ebc7f15 = private unnamed_addr constant <{ ptr, [16 x i8] }> <{ ptr @alloc_161c855febe47b6eaaf12928eb8fdcfa, [16 x i8] c"U\00\00\00\00\00\00\00+\00\00\00\0C\00\00\00" }>, align 8
@4 = private unnamed_addr constant <{ [16 x i8] }> <{ [16 x i8] c"0123456789abcdef" }>, align 1
@alloc_96ec2ebf0f315a7f3b61da0a8df88eed = private unnamed_addr constant <{ [79 x i8] }> <{ [79 x i8] c"/home/arsalan/Documents/Github/unsafe-rust-benchmark/library/core/src/escape.rs" }>, align 1
@alloc_2fe1776bf412731d032283afde9952f0 = private unnamed_addr constant <{ ptr, [16 x i8] }> <{ ptr @alloc_96ec2ebf0f315a7f3b61da0a8df88eed, [16 x i8] c"O\00\00\00\00\00\00\00F\00\00\00\11\00\00\00" }>, align 8
@alloc_4a5b1a47d4f18a95da9da1987cd8c239 = private unnamed_addr constant <{ ptr, [16 x i8] }> <{ ptr @alloc_96ec2ebf0f315a7f3b61da0a8df88eed, [16 x i8] c"O\00\00\00\00\00\00\00G\00\00\00\11\00\00\00" }>, align 8
@alloc_73fc148532a0690c92ce39e322beca7c = private unnamed_addr constant <{ ptr, [16 x i8] }> <{ ptr @alloc_96ec2ebf0f315a7f3b61da0a8df88eed, [16 x i8] c"O\00\00\00\00\00\00\00H\00\00\00\11\00\00\00" }>, align 8
@alloc_7a8230073db0345c385103f1210eb63b = private unnamed_addr constant <{ ptr, [16 x i8] }> <{ ptr @alloc_96ec2ebf0f315a7f3b61da0a8df88eed, [16 x i8] c"O\00\00\00\00\00\00\00I\00\00\00\11\00\00\00" }>, align 8
@alloc_81be960a2b3cc1eeef322c81e8df9f31 = private unnamed_addr constant <{ ptr, [16 x i8] }> <{ ptr @alloc_96ec2ebf0f315a7f3b61da0a8df88eed, [16 x i8] c"O\00\00\00\00\00\00\00J\00\00\00\11\00\00\00" }>, align 8
@alloc_e69def46d8151dddc43334e0c35c2ea7 = private unnamed_addr constant <{ ptr, [16 x i8] }> <{ ptr @alloc_96ec2ebf0f315a7f3b61da0a8df88eed, [16 x i8] c"O\00\00\00\00\00\00\00K\00\00\00\11\00\00\00" }>, align 8
@alloc_9e9af40a78aac243287019176b82a546 = private unnamed_addr constant <{ ptr, [16 x i8] }> <{ ptr @alloc_96ec2ebf0f315a7f3b61da0a8df88eed, [16 x i8] c"O\00\00\00\00\00\00\00M\00\00\00\05\00\00\00" }>, align 8
@alloc_ba534666585302d11e7d1a0c0b6c5df7 = private unnamed_addr constant <{ ptr, [16 x i8] }> <{ ptr @alloc_96ec2ebf0f315a7f3b61da0a8df88eed, [16 x i8] c"O\00\00\00\00\00\00\00N\00\00\00\05\00\00\00" }>, align 8
@alloc_4ebd51857ec52ed806b6777aa014b67e = private unnamed_addr constant <{ ptr, [16 x i8] }> <{ ptr @alloc_96ec2ebf0f315a7f3b61da0a8df88eed, [16 x i8] c"O\00\00\00\00\00\00\00O\00\00\00\05\00\00\00" }>, align 8
@5 = private unnamed_addr constant <{ [1 x i8], [1 x i8] }> <{ [1 x i8] zeroinitializer, [1 x i8] undef }>, align 1
@vtable.2 = private unnamed_addr constant <{ [24 x i8], ptr }> <{ [24 x i8] c"\00\00\00\00\00\00\00\00\00\00\00\00\00\00\00\00\01\00\00\00\00\00\00\00", ptr @"_ZN68_$LT$proc_macro2..fallback..LexError$u20$as$u20$core..fmt..Debug$GT$3fmt17h67fef370abe39176E" }>, align 8
@vtable.3 = private unnamed_addr constant <{ [24 x i8], ptr }> <{ [24 x i8] c"\00\00\00\00\00\00\00\00\00\00\00\00\00\00\00\00\01\00\00\00\00\00\00\00", ptr @"_ZN57_$LT$proc_macro..LexError$u20$as$u20$core..fmt..Debug$GT$3fmt17hf65267aabaef1d1bE" }>, align 8
@vtable.4 = private unnamed_addr constant <{ [24 x i8], ptr }> <{ [24 x i8] c"\00\00\00\00\00\00\00\00\00\00\00\00\00\00\00\00\01\00\00\00\00\00\00\00", ptr @"_ZN70_$LT$core..num..error..TryFromIntError$u20$as$u20$core..fmt..Debug$GT$3fmt17hb209b3ef4d6fa770E" }>, align 8
@vtable.5 = private unnamed_addr constant <{ [24 x i8], ptr }> <{ [24 x i8] c"\00\00\00\00\00\00\00\00\00\00\00\00\00\00\00\00\01\00\00\00\00\00\00\00", ptr @"_ZN53_$LT$core..fmt..Error$u20$as$u20$core..fmt..Debug$GT$3fmt17hba58b6c9d9815192E" }>, align 8
@alloc_00ae4b301f7fab8ac9617c03fcbd7274 = private unnamed_addr constant <{ [43 x i8] }> <{ [43 x i8] c"called `Result::unwrap()` on an `Err` value" }>, align 1
@_ZN4core7unicode12unicode_data11white_space14WHITESPACE_MAP17he63ff13526352a5cE = external global [256 x i8]
@alloc_b4fd16894743353fab2a9687364b046b = private unnamed_addr constant <{ [93 x i8] }> <{ [93 x i8] c"/home/arsalan/Documents/Github/unsafe-rust-benchmark/library/core/src/unicode/unicode_data.rs" }>, align 1
@alloc_9ad48ca586742b9ab121bf87fcbd1a9d = private unnamed_addr constant <{ ptr, [16 x i8] }> <{ ptr @alloc_b4fd16894743353fab2a9687364b046b, [16 x i8] c"]\00\00\00\00\00\00\00@\02\00\00\12\00\00\00" }>, align 8
@alloc_bf59a592960a1522cd4ff178e3b5b01a = private unnamed_addr constant <{ ptr, [16 x i8] }> <{ ptr @alloc_b4fd16894743353fab2a9687364b046b, [16 x i8] c"]\00\00\00\00\00\00\00B\02\00\00\13\00\00\00" }>, align 8
@vtable.6 = private unnamed_addr constant <{ [24 x i8], ptr }> <{ [24 x i8] c"\00\00\00\00\00\00\00\00\08\00\00\00\00\00\00\00\08\00\00\00\00\00\00\00", ptr @"_ZN42_$LT$$RF$T$u20$as$u20$core..fmt..Debug$GT$3fmt17h25c4ed0fda439c9dE" }>, align 8
@alloc_0f4ec70ce9b68d2a18bd009ca3d4baf3 = private unnamed_addr constant <{ [79 x i8] }> <{ [79 x i8] c"/home/arsalan/Documents/Github/unsafe-rust-benchmark/library/alloc/src/slice.rs" }>, align 1
@alloc_05bd7b5bcfb0fb98096b4d6e6990fe41 = private unnamed_addr constant <{ ptr, [16 x i8] }> <{ ptr @alloc_0f4ec70ce9b68d2a18bd009ca3d4baf3, [16 x i8] c"O\00\00\00\00\00\00\00\92\00\00\00\11\00\00\00" }>, align 8
@6 = private unnamed_addr constant <{ [1 x i8], [1 x i8] }> <{ [1 x i8] c"\01", [1 x i8] undef }>, align 1
@alloc_611ea47e56fe111765d49cc77e8ab451 = private unnamed_addr constant <{ [32 x i8] }> <{ [32 x i8] c"char len should be less than 255" }>, align 1
@alloc_9255bf5d4789a2e4cea7e993364e5ae0 = private unnamed_addr constant <{ ptr, [16 x i8] }> <{ ptr @alloc_e09b762e23e7aab5d1c9567cce4bbe22, [16 x i8] c"T\00\00\00\00\00\00\00,\02\00\00\0E\00\00\00" }>, align 8
@alloc_99ac8a81a24cac863217ce4a5cbfabea = private unnamed_addr constant <{ [5 x i8] }> <{ [5 x i8] c"Error" }>, align 1
@alloc_b20c6211b16a2df3c39015542c0ebf00 = private unnamed_addr constant <{ ptr, [16 x i8] }> <{ ptr @alloc_e09b762e23e7aab5d1c9567cce4bbe22, [16 x i8] c"T\00\00\00\00\00\00\00\D0\03\00\00:\00\00\00" }>, align 8
@alloc_ce18dc9b9ca144fde65711b7622c392e = private unnamed_addr constant <{ [8 x i8] }> <{ [8 x i8] c"LexError" }>, align 1
@alloc_7c7447cbdfbe3a3bd23c753758158340 = private unnamed_addr constant <{ [81 x i8] }> <{ [81 x i8] c"/home/arsalan/Documents/Github/unsafe-rust-benchmark/library/alloc/src/vec/mod.rs" }>, align 1
@alloc_c6ad71a07698cb5254c9e16a44bea55e = private unnamed_addr constant <{ ptr, [16 x i8] }> <{ ptr @alloc_7c7447cbdfbe3a3bd23c753758158340, [16 x i8] c"Q\00\00\00\00\00\00\00\95\08\00\00$\00\00\00" }>, align 8
@__rust_no_alloc_shim_is_unstable = external global i8
@alloc_fd658439c397d335ee01abc3a4ed5fd5 = private unnamed_addr constant <{ [44 x i8] }> <{ [44 x i8] c"assertion failed: self.is_char_boundary(idx)" }>, align 1
@alloc_8e3a85c7678f157e80cbc88bda1bf520 = private unnamed_addr constant <{ ptr, [16 x i8] }> <{ ptr @alloc_56ddd9f8a83a5b1254ce7cdf41b13c3e, [16 x i8] c"P\00\00\00\00\00\00\00{\06\00\00\09\00\00\00" }>, align 8
@alloc_5f986b98c64f9d104e42c1f77cb49e68 = private unnamed_addr constant <{ ptr, [16 x i8] }> <{ ptr @alloc_56ddd9f8a83a5b1254ce7cdf41b13c3e, [16 x i8] c"P\00\00\00\00\00\00\00\B8\05\00\00\1C\00\00\00" }>, align 8
@alloc_ace97832e319df4c8a68695dbff2be3b = private unnamed_addr constant <{ [45 x i8] }> <{ [45 x i8] c"cannot remove a char from the end of a string" }>, align 1
@alloc_ac5f081713123e742296374c690108be = private unnamed_addr constant <{ ptr, [8 x i8] }> <{ ptr @alloc_ace97832e319df4c8a68695dbff2be3b, [8 x i8] c"-\00\00\00\00\00\00\00" }>, align 8
@alloc_0480b8d0720691b885b9bda486974d1f = private unnamed_addr constant <{ ptr, [16 x i8] }> <{ ptr @alloc_56ddd9f8a83a5b1254ce7cdf41b13c3e, [16 x i8] c"P\00\00\00\00\00\00\00\BA\05\00\00\15\00\00\00" }>, align 8
@7 = private unnamed_addr constant <{ [8 x i8], [8 x i8] }> <{ [8 x i8] c"\01\00\00\00\00\00\00\80", [8 x i8] undef }>, align 8
@alloc_811a51e3fc41defd9fec0f2f879f57ca = private unnamed_addr constant <{ [88 x i8] }> <{ [88 x i8] c"/home/arsalan/Documents/Github/unsafe-rust-benchmark/library/alloc/src/vec/partial_eq.rs" }>, align 1
@alloc_9cb9ac9b9212467e1a10fc7ba4491431 = private unnamed_addr constant <{ ptr, [16 x i8] }> <{ ptr @alloc_811a51e3fc41defd9fec0f2f879f57ca, [16 x i8] c"X\00\00\00\00\00\00\00\17\00\00\00\01\00\00\00" }>, align 8
@alloc_37d2e53432a03a1f90b3e7253015eaf9 = private unnamed_addr constant <{ [4 x i8] }> <{ [4 x i8] c"None" }>, align 1
@alloc_9535bf4c204f3eb9b19ec2c83e446e52 = private unnamed_addr constant <{ [4 x i8] }> <{ [4 x i8] c"Some" }>, align 1
@vtable.7 = private unnamed_addr constant <{ [24 x i8], ptr }> <{ [24 x i8] c"\00\00\00\00\00\00\00\00\08\00\00\00\00\00\00\00\08\00\00\00\00\00\00\00", ptr @"_ZN42_$LT$$RF$T$u20$as$u20$core..fmt..Debug$GT$3fmt17hbf787cf7f6cc7e4bE" }>, align 8
@alloc_5cb263f26a5d50117adfcc5c7225745e = private unnamed_addr constant <{ [15 x i8] }> <{ [15 x i8] c"TryFromIntError" }>, align 1
@vtable.8 = private unnamed_addr constant <{ [24 x i8], ptr }> <{ [24 x i8] c"\00\00\00\00\00\00\00\00\08\00\00\00\00\00\00\00\08\00\00\00\00\00\00\00", ptr @"_ZN42_$LT$$RF$T$u20$as$u20$core..fmt..Debug$GT$3fmt17hf908c21d3478875aE" }>, align 8
@alloc_a918088129574efbf4eb4c3e02dd5937 = private unnamed_addr constant <{ ptr, [16 x i8] }> <{ ptr @alloc_e09b762e23e7aab5d1c9567cce4bbe22, [16 x i8] c"T\00\00\00\00\00\00\00G\04\00\00$\00\00\00" }>, align 8
@alloc_914b2c69d7eca30497b9feaf15ac92f1 = private unnamed_addr constant <{ [1 x i8] }> zeroinitializer, align 1
@alloc_4606dfc766e23d9646c00ebc31b83b5c = private unnamed_addr constant <{ ptr, [16 x i8] }> <{ ptr @alloc_e09b762e23e7aab5d1c9567cce4bbe22, [16 x i8] c"T\00\00\00\00\00\00\00\BF\01\00\007\00\00\00" }>, align 8
@8 = private unnamed_addr constant <{ [8 x i8], [4 x i8], [4 x i8] }> <{ [8 x i8] undef, [4 x i8] c"\00\00\11\00", [4 x i8] undef }>, align 8
@alloc_5e12b16480b0bc81a9b2311086ce4caa = private unnamed_addr constant <{ [83 x i8] }> <{ [83 x i8] c"/home/arsalan/Documents/Github/unsafe-rust-benchmark/library/core/src/slice/iter.rs" }>, align 1
@alloc_48efd6df13d24dae36913b79f4a7823a = private unnamed_addr constant <{ ptr, [16 x i8] }> <{ ptr @alloc_5e12b16480b0bc81a9b2311086ce4caa, [16 x i8] c"S\00\00\00\00\00\00\00<\05\00\00#\00\00\00" }>, align 8
@alloc_f9a4645200b32ea306ea6249b4c6d735 = private unnamed_addr constant <{ ptr, [16 x i8] }> <{ ptr @alloc_5e12b16480b0bc81a9b2311086ce4caa, [16 x i8] c"S\00\00\00\00\00\00\00=\05\00\00\1D\00\00\00" }>, align 8
@alloc_e9b2a7c98a7f1e6e3fa5f9a4d1f3ef27 = private unnamed_addr constant <{ [98 x i8] }> <{ [98 x i8] c"/home/arsalan/.cargo/registry/src/index.crates.io-1949cf8c6b5b557f/proc-macro2-1.0.70/src/parse.rs" }>, align 1
@alloc_38786e819d09807ef6f22610c89f910b = private unnamed_addr constant <{ ptr, [16 x i8] }> <{ ptr @alloc_e9b2a7c98a7f1e6e3fa5f9a4d1f3ef27, [16 x i8] c"b\00\00\00\00\00\00\00Q\00\00\00\14\00\00\00" }>, align 8
@alloc_d5f0f24268d469e3dc9e2ef7f6510983 = private unnamed_addr constant <{ [2 x i8] }> <{ [2 x i8] c"//" }>, align 1
@alloc_a3cbf1622e18ce8557a1059d1d50984b = private unnamed_addr constant <{ [3 x i8] }> <{ [3 x i8] c"///" }>, align 1
@alloc_aa5d53d33a460a6f3784f1b7fa109f88 = private unnamed_addr constant <{ [4 x i8] }> <{ [4 x i8] c"////" }>, align 1
@alloc_3dba12bdfc02f300bac5107fa50559e2 = private unnamed_addr constant <{ [3 x i8] }> <{ [3 x i8] c"//!" }>, align 1
@alloc_59a513d8c7a03aa22faf89201dcc46f3 = private unnamed_addr constant <{ [4 x i8] }> <{ [4 x i8] c"/**/" }>, align 1
@alloc_306b17c50e3f209e7082c0dad9084435 = private unnamed_addr constant <{ [2 x i8] }> <{ [2 x i8] c"/*" }>, align 1
@alloc_c63f42f072c0f65a5c00be2f1e9c3fa6 = private unnamed_addr constant <{ [3 x i8] }> <{ [3 x i8] c"/**" }>, align 1
@alloc_b361d2f6d45158fecc3ea02eedd442f7 = private unnamed_addr constant <{ [4 x i8] }> <{ [4 x i8] c"/***" }>, align 1
@alloc_022cee65c935a399b1901330ff471e91 = private unnamed_addr constant <{ [3 x i8] }> <{ [3 x i8] c"/*!" }>, align 1
@alloc_65dcc200471b709cd1931584d11c9cd2 = private unnamed_addr constant <{ ptr, [16 x i8] }> <{ ptr @alloc_e9b2a7c98a7f1e6e3fa5f9a4d1f3ef27, [16 x i8] c"b\00\00\00\00\00\00\00q\00\00\00+\00\00\00" }>, align 8
@alloc_0a21ca4c7cbd5c0b714c64959e7a9078 = private unnamed_addr constant <{ ptr, [16 x i8] }> <{ ptr @alloc_e9b2a7c98a7f1e6e3fa5f9a4d1f3ef27, [16 x i8] c"b\00\00\00\00\00\00\00\88\00\00\00\0C\00\00\00" }>, align 8
@alloc_4766321be587d77fde4b2683a5d4a559 = private unnamed_addr constant <{ ptr, [16 x i8] }> <{ ptr @alloc_e9b2a7c98a7f1e6e3fa5f9a4d1f3ef27, [16 x i8] c"b\00\00\00\00\00\00\00\88\00\00\00 \00\00\00" }>, align 8
@alloc_e9db3e09497f720e21128cb574315b1f = private unnamed_addr constant <{ ptr, [16 x i8] }> <{ ptr @alloc_e9b2a7c98a7f1e6e3fa5f9a4d1f3ef27, [16 x i8] c"b\00\00\00\00\00\00\00\8B\00\00\00\13\00\00\00" }>, align 8
@alloc_22633586b8bb72b663774f7f5909f4c9 = private unnamed_addr constant <{ ptr, [16 x i8] }> <{ ptr @alloc_e9b2a7c98a7f1e6e3fa5f9a4d1f3ef27, [16 x i8] c"b\00\00\00\00\00\00\00\8B\00\00\00'\00\00\00" }>, align 8
@alloc_b0acb92159d58c76d83a5f25f23f8d50 = private unnamed_addr constant <{ ptr, [16 x i8] }> <{ ptr @alloc_e9b2a7c98a7f1e6e3fa5f9a4d1f3ef27, [16 x i8] c"b\00\00\00\00\00\00\00\8E\00\00\00=\00\00\00" }>, align 8
@alloc_8a5755c7923bb7fc54a716e61bfc895f = private unnamed_addr constant <{ [11 x i8] }> <{ [11 x i8] c"(/*ERROR*/)" }>, align 1
@alloc_db0a92ae52fea3f096ed364062cd51f4 = private unnamed_addr constant <{ [2 x i8] }> <{ [2 x i8] c"r\22" }>, align 1
@alloc_08bffe54a7c6e4ba345e1a5ec029bf4e = private unnamed_addr constant <{ [3 x i8] }> <{ [3 x i8] c"r#\22" }>, align 1
@alloc_315158db7b4aa8f4f149c0c8884eafcb = private unnamed_addr constant <{ [3 x i8] }> <{ [3 x i8] c"r##" }>, align 1
@alloc_3050fe490e20e8ca0b126453c1f93f49 = private unnamed_addr constant <{ [2 x i8] }> <{ [2 x i8] c"b\22" }>, align 1
@alloc_c230d367772640e7780c9805d76b7a5a = private unnamed_addr constant <{ [2 x i8] }> <{ [2 x i8] c"b'" }>, align 1
@alloc_c17a19ecc61c3d4c1674ac5bcf8c170f = private unnamed_addr constant <{ [3 x i8] }> <{ [3 x i8] c"br\22" }>, align 1
@alloc_e4a9753dd3733445c0f90fe1e8201aff = private unnamed_addr constant <{ [3 x i8] }> <{ [3 x i8] c"br#" }>, align 1
@alloc_354e8ac62b06cfdd3362af42ebb90859 = private unnamed_addr constant <{ [2 x i8] }> <{ [2 x i8] c"c\22" }>, align 1
@alloc_3a34a0a500efeb5d223ee05713880aee = private unnamed_addr constant <{ [3 x i8] }> <{ [3 x i8] c"cr\22" }>, align 1
@alloc_335caab743944b23fad79cbbb7c2fb8a = private unnamed_addr constant <{ [3 x i8] }> <{ [3 x i8] c"cr#" }>, align 1
@alloc_7627a22b592e80dfa0b062f2da5f9c23 = private unnamed_addr constant <{ ptr, [8 x i8], ptr, [8 x i8], ptr, [8 x i8], ptr, [8 x i8], ptr, [8 x i8], ptr, [8 x i8], ptr, [8 x i8], ptr, [8 x i8], ptr, [8 x i8], ptr, [8 x i8] }> <{ ptr @alloc_db0a92ae52fea3f096ed364062cd51f4, [8 x i8] c"\02\00\00\00\00\00\00\00", ptr @alloc_08bffe54a7c6e4ba345e1a5ec029bf4e, [8 x i8] c"\03\00\00\00\00\00\00\00", ptr @alloc_315158db7b4aa8f4f149c0c8884eafcb, [8 x i8] c"\03\00\00\00\00\00\00\00", ptr @alloc_3050fe490e20e8ca0b126453c1f93f49, [8 x i8] c"\02\00\00\00\00\00\00\00", ptr @alloc_c230d367772640e7780c9805d76b7a5a, [8 x i8] c"\02\00\00\00\00\00\00\00", ptr @alloc_c17a19ecc61c3d4c1674ac5bcf8c170f, [8 x i8] c"\03\00\00\00\00\00\00\00", ptr @alloc_e4a9753dd3733445c0f90fe1e8201aff, [8 x i8] c"\03\00\00\00\00\00\00\00", ptr @alloc_354e8ac62b06cfdd3362af42ebb90859, [8 x i8] c"\02\00\00\00\00\00\00\00", ptr @alloc_3a34a0a500efeb5d223ee05713880aee, [8 x i8] c"\03\00\00\00\00\00\00\00", ptr @alloc_335caab743944b23fad79cbbb7c2fb8a, [8 x i8] c"\03\00\00\00\00\00\00\00" }>, align 8
@alloc_26741d7be2999f870b5ef1ed52a52387 = private unnamed_addr constant <{ [2 x i8] }> <{ [2 x i8] c"r#" }>, align 1
@alloc_27cca3636828088e60ce450d2eca2060 = private unnamed_addr constant <{ [1 x i8] }> <{ [1 x i8] c"_" }>, align 1
@alloc_105895aecd604a09ec1be120f512aa8a = private unnamed_addr constant <{ [5 x i8] }> <{ [5 x i8] c"super" }>, align 1
@alloc_6aeac8d59cbcbd1aee06607ad2dd6674 = private unnamed_addr constant <{ [4 x i8] }> <{ [4 x i8] c"self" }>, align 1
@alloc_7e323bfe8c2b6a467b3640606c98266f = private unnamed_addr constant <{ [4 x i8] }> <{ [4 x i8] c"Self" }>, align 1
@alloc_b7d12448d3c2d0861386fea51f6ebf56 = private unnamed_addr constant <{ [5 x i8] }> <{ [5 x i8] c"crate" }>, align 1
@alloc_3363be79f70cce6380191e87cbbe8cd4 = private unnamed_addr constant <{ ptr, [16 x i8] }> <{ ptr @alloc_e9b2a7c98a7f1e6e3fa5f9a4d1f3ef27, [16 x i8] c"b\00\00\00\00\00\00\00,\01\00\00\17\00\00\00" }>, align 8
@alloc_b3490e9107dfd396088b943cdcdabf9e = private unnamed_addr constant <{ ptr, [16 x i8] }> <{ ptr @alloc_e9b2a7c98a7f1e6e3fa5f9a4d1f3ef27, [16 x i8] c"b\00\00\00\00\00\00\00R\01\00\00(\00\00\00" }>, align 8
@alloc_63c62eb0461031c16375ee89d85854ac = private unnamed_addr constant <{ ptr, [16 x i8] }> <{ ptr @alloc_e9b2a7c98a7f1e6e3fa5f9a4d1f3ef27, [16 x i8] c"b\00\00\00\00\00\00\00X\01\00\00'\00\00\00" }>, align 8
@alloc_649acb99022a4026e30edffc0f730b2a = private unnamed_addr constant <{ ptr, [16 x i8] }> <{ ptr @alloc_e9b2a7c98a7f1e6e3fa5f9a4d1f3ef27, [16 x i8] c"b\00\00\00\00\00\00\00V\01\00\00\10\00\00\00" }>, align 8
@alloc_cf46f026acc4d198a9acedc9bd1a66b2 = private unnamed_addr constant <{ [1 x i8] }> <{ [1 x i8] c"\22" }>, align 1
@alloc_c7ca2384edadb766999f3f810e9a1faa = private unnamed_addr constant <{ [1 x i8] }> <{ [1 x i8] c"r" }>, align 1
@alloc_3cc5ff44286625411b873e05982e2b23 = private unnamed_addr constant <{ ptr, [16 x i8] }> <{ ptr @alloc_e9b2a7c98a7f1e6e3fa5f9a4d1f3ef27, [16 x i8] c"b\00\00\00\00\00\00\00\8F\01\00\00\15\00\00\00" }>, align 8
@alloc_be7670d825949a0947a3a95be7389423 = private unnamed_addr constant <{ ptr, [16 x i8] }> <{ ptr @alloc_e9b2a7c98a7f1e6e3fa5f9a4d1f3ef27, [16 x i8] c"b\00\00\00\00\00\00\00\93\01\00\00\15\00\00\00" }>, align 8
@alloc_4e45ed8763bfeb285120d5df461eb763 = private unnamed_addr constant <{ ptr, [16 x i8] }> <{ ptr @alloc_e9b2a7c98a7f1e6e3fa5f9a4d1f3ef27, [16 x i8] c"b\00\00\00\00\00\00\00\97\01\00\00\15\00\00\00" }>, align 8
@alloc_22736ecf1dcc9e5b21db289516d9e477 = private unnamed_addr constant <{ ptr, [16 x i8] }> <{ ptr @alloc_e9b2a7c98a7f1e6e3fa5f9a4d1f3ef27, [16 x i8] c"b\00\00\00\00\00\00\00\A7\01\00\00\1F\00\00\00" }>, align 8
@alloc_94b3dcb0165876ef7da94a4ad2dccabb = private unnamed_addr constant <{ ptr, [16 x i8] }> <{ ptr @alloc_e9b2a7c98a7f1e6e3fa5f9a4d1f3ef27, [16 x i8] c"b\00\00\00\00\00\00\00\A3\01\00\00\1E\00\00\00" }>, align 8
@alloc_1a50d1b7986d15496f07bc02bc2fa74c = private unnamed_addr constant <{ [2 x i8] }> <{ [2 x i8] c"br" }>, align 1
@alloc_252dc166ffebb279309b0099ff931bf5 = private unnamed_addr constant <{ ptr, [16 x i8] }> <{ ptr @alloc_e9b2a7c98a7f1e6e3fa5f9a4d1f3ef27, [16 x i8] c"b\00\00\00\00\00\00\00\CD\01\00\00\15\00\00\00" }>, align 8
@alloc_73039457bd355c986a86daeb7a0e5eec = private unnamed_addr constant <{ ptr, [16 x i8] }> <{ ptr @alloc_e9b2a7c98a7f1e6e3fa5f9a4d1f3ef27, [16 x i8] c"b\00\00\00\00\00\00\00\D2\01\00\00\15\00\00\00" }>, align 8
@alloc_a860890a6751586d220a8d35e3539ea9 = private unnamed_addr constant <{ ptr, [16 x i8] }> <{ ptr @alloc_e9b2a7c98a7f1e6e3fa5f9a4d1f3ef27, [16 x i8] c"b\00\00\00\00\00\00\00\E6\01\00\00=\00\00\00" }>, align 8
@alloc_6abe1930b762e4857a8403952ff57f69 = private unnamed_addr constant <{ ptr, [16 x i8] }> <{ ptr @alloc_e9b2a7c98a7f1e6e3fa5f9a4d1f3ef27, [16 x i8] c"b\00\00\00\00\00\00\00\F4\01\00\00\1F\00\00\00" }>, align 8
@alloc_afb8878a1e4270ac72cb46d37b483045 = private unnamed_addr constant <{ ptr, [16 x i8] }> <{ ptr @alloc_e9b2a7c98a7f1e6e3fa5f9a4d1f3ef27, [16 x i8] c"b\00\00\00\00\00\00\00\F0\01\00\00\1E\00\00\00" }>, align 8
@alloc_1bae2be023d341346a677993c977de2b = private unnamed_addr constant <{ [2 x i8] }> <{ [2 x i8] c"cr" }>, align 1
@alloc_0209cf3bfeab477f7b4f4616c8749b2d = private unnamed_addr constant <{ ptr, [16 x i8] }> <{ ptr @alloc_e9b2a7c98a7f1e6e3fa5f9a4d1f3ef27, [16 x i8] c"b\00\00\00\00\00\00\00\15\02\00\00\1F\00\00\00" }>, align 8
@alloc_e176d1556de9327a25af1cc6586dd6a8 = private unnamed_addr constant <{ ptr, [16 x i8] }> <{ ptr @alloc_e9b2a7c98a7f1e6e3fa5f9a4d1f3ef27, [16 x i8] c"b\00\00\00\00\00\00\00\11\02\00\00\1E\00\00\00" }>, align 8
@alloc_a420d794d5a28f6a30753f5133e1498a = private unnamed_addr constant <{ ptr, [16 x i8] }> <{ ptr @alloc_e9b2a7c98a7f1e6e3fa5f9a4d1f3ef27, [16 x i8] c"b\00\00\00\00\00\00\003\02\00\00\15\00\00\00" }>, align 8
@alloc_3b4ad0e6b6a7508615aa41d89d5f2d13 = private unnamed_addr constant <{ ptr, [16 x i8] }> <{ ptr @alloc_e9b2a7c98a7f1e6e3fa5f9a4d1f3ef27, [16 x i8] c"b\00\00\00\00\00\00\007\02\00\00\18\00\00\00" }>, align 8
@alloc_74f5422b8ef01d44b5949e3dce64fee7 = private unnamed_addr constant <{ ptr, [16 x i8] }> <{ ptr @alloc_e9b2a7c98a7f1e6e3fa5f9a4d1f3ef27, [16 x i8] c"b\00\00\00\00\00\00\00=\02\00\00\15\00\00\00" }>, align 8
@alloc_8b81d5a4eae5f23ca3c590a4cd01f630 = private unnamed_addr constant <{ [1 x i8] }> <{ [1 x i8] c"'" }>, align 1
@alloc_d88c228165509910408aff46753347d2 = private unnamed_addr constant <{ ptr, [16 x i8] }> <{ ptr @alloc_e9b2a7c98a7f1e6e3fa5f9a4d1f3ef27, [16 x i8] c"b\00\00\00\00\00\00\00[\02\00\00\11\00\00\00" }>, align 8
@alloc_7c03eb0430874cebd72f545029a1517e = private unnamed_addr constant <{ ptr, [16 x i8] }> <{ ptr @alloc_e9b2a7c98a7f1e6e3fa5f9a4d1f3ef27, [16 x i8] c"b\00\00\00\00\00\00\00W\02\00\00\17\00\00\00" }>, align 8
@alloc_5eb47c7ecc4b80ad9ce95456d5bc6196 = private unnamed_addr constant <{ ptr, [16 x i8] }> <{ ptr @alloc_e9b2a7c98a7f1e6e3fa5f9a4d1f3ef27, [16 x i8] c"b\00\00\00\00\00\00\00J\02\00\00\11\00\00\00" }>, align 8
@alloc_a097579a7e3e8aad8744ae7276559d35 = private unnamed_addr constant <{ ptr, [16 x i8] }> <{ ptr @alloc_e9b2a7c98a7f1e6e3fa5f9a4d1f3ef27, [16 x i8] c"b\00\00\00\00\00\00\00o\02\00\00\11\00\00\00" }>, align 8
@alloc_00bc14d34de57cbc36fbb60db20ab230 = private unnamed_addr constant <{ ptr, [16 x i8] }> <{ ptr @alloc_e9b2a7c98a7f1e6e3fa5f9a4d1f3ef27, [16 x i8] c"b\00\00\00\00\00\00\00n\02\00\00\14\00\00\00" }>, align 8
@alloc_098fb19257ba5156fa70494d5b2c855d = private unnamed_addr constant <{ ptr, [16 x i8] }> <{ ptr @alloc_e9b2a7c98a7f1e6e3fa5f9a4d1f3ef27, [16 x i8] c"b\00\00\00\00\00\00\00`\02\00\00\11\00\00\00" }>, align 8
@alloc_86b064d3e56b3dcc812549f662d9f71a = private unnamed_addr constant <{ ptr, [16 x i8] }> <{ ptr @alloc_e9b2a7c98a7f1e6e3fa5f9a4d1f3ef27, [16 x i8] c"b\00\00\00\00\00\00\00\CF\02\00\00\14\00\00\00" }>, align 8
@alloc_38a50dd405fb7ab3bd82bab079d9a675 = private unnamed_addr constant <{ ptr, [16 x i8] }> <{ ptr @alloc_e9b2a7c98a7f1e6e3fa5f9a4d1f3ef27, [16 x i8] c"b\00\00\00\00\00\00\00\CC\02\00\00\14\00\00\00" }>, align 8
@alloc_05cb19f7030c92bea6e3aec70b430577 = private unnamed_addr constant <{ ptr, [16 x i8] }> <{ ptr @alloc_e9b2a7c98a7f1e6e3fa5f9a4d1f3ef27, [16 x i8] c"b\00\00\00\00\00\00\00.\03\00\00\14\00\00\00" }>, align 8
@alloc_8ed9556f8baea4867f470b507c6bae9a = private unnamed_addr constant <{ ptr, [16 x i8] }> <{ ptr @alloc_e9b2a7c98a7f1e6e3fa5f9a4d1f3ef27, [16 x i8] c"b\00\00\00\00\00\00\00+\03\00\00\14\00\00\00" }>, align 8
@alloc_83d8d36e705c58ed11bda7b90dabc655 = private unnamed_addr constant <{ [2 x i8] }> <{ [2 x i8] c"0x" }>, align 1
@alloc_3f5e304b2d3feb2147d7ca807297437a = private unnamed_addr constant <{ [2 x i8] }> <{ [2 x i8] c"0o" }>, align 1
@alloc_27d35d5cbe30361bd1ed04847fdae817 = private unnamed_addr constant <{ [2 x i8] }> <{ [2 x i8] c"0b" }>, align 1
@alloc_091bf414a975b687633f25f773c76a98 = private unnamed_addr constant <{ ptr, [16 x i8] }> <{ ptr @alloc_e9b2a7c98a7f1e6e3fa5f9a4d1f3ef27, [16 x i8] c"b\00\00\00\00\00\00\00n\03\00\00\0C\00\00\00" }>, align 8
@alloc_6119a4a3d8321bd55dbf2911789e2903 = private unnamed_addr constant <{ ptr, [16 x i8] }> <{ ptr @alloc_e9b2a7c98a7f1e6e3fa5f9a4d1f3ef27, [16 x i8] c"b\00\00\00\00\00\00\00l\03\00\00\16\00\00\00" }>, align 8
@alloc_aae81247d080136175dbd352957cb012 = private unnamed_addr constant <{ [22 x i8] }> <{ [22 x i8] c"~!@#$%^&*-=+|;:,<.>/?'" }>, align 1
@alloc_72fe15088ac8e741fd8e5026cc5133cb = private unnamed_addr constant <{ ptr, [16 x i8] }> <{ ptr @alloc_e9b2a7c98a7f1e6e3fa5f9a4d1f3ef27, [16 x i8] c"b\00\00\00\00\00\00\00\9F\03\00\00%\00\00\00" }>, align 8
@alloc_701ce0bb3ffd80e30a094997fe0bfddc = private unnamed_addr constant <{ [3 x i8] }> <{ [3 x i8] c"doc" }>, align 1
@alloc_ea1aaa9361726b6029f3d4676dce7b97 = private unnamed_addr constant <{ ptr, [16 x i8] }> <{ ptr @alloc_e9b2a7c98a7f1e6e3fa5f9a4d1f3ef27, [16 x i8] c"b\00\00\00\00\00\00\00\94\03\00\00$\00\00\00" }>, align 8
@alloc_044c8694bc252ae0e20331aba14bfa35 = private unnamed_addr constant <{ ptr, [16 x i8] }> <{ ptr @alloc_e9b2a7c98a7f1e6e3fa5f9a4d1f3ef27, [16 x i8] c"b\00\00\00\00\00\00\00\D0\03\00\006\00\00\00" }>, align 8
@alloc_a9e682675f3f5d032215aa5c333f91e0 = private unnamed_addr constant <{ ptr, [16 x i8] }> <{ ptr @alloc_e9b2a7c98a7f1e6e3fa5f9a4d1f3ef27, [16 x i8] c"b\00\00\00\00\00\00\00\D2\03\00\00\17\00\00\00" }>, align 8
@alloc_63b191b973621cd9fc118a39795c58c7 = private unnamed_addr constant <{ ptr, [16 x i8] }> <{ ptr @alloc_e9b2a7c98a7f1e6e3fa5f9a4d1f3ef27, [16 x i8] c"b\00\00\00\00\00\00\00\D1\03\00\00\1A\00\00\00" }>, align 8
@alloc_af991582243abe3267a6fc22d665a0fb = private unnamed_addr constant <{ ptr, [16 x i8] }> <{ ptr @alloc_e9b2a7c98a7f1e6e3fa5f9a4d1f3ef27, [16 x i8] c"b\00\00\00\00\00\00\00\C8\03\00\00\17\00\00\00" }>, align 8
@alloc_4ca3f5179382bcf41925481dcceecb81 = private unnamed_addr constant <{ ptr, [16 x i8] }> <{ ptr @alloc_e9b2a7c98a7f1e6e3fa5f9a4d1f3ef27, [16 x i8] c"b\00\00\00\00\00\00\00\C7\03\00\00\1A\00\00\00" }>, align 8
@alloc_a3d98426d9b6a64c4ffa03e9646ef4c8 = private unnamed_addr constant <{ ptr, [16 x i8] }> <{ ptr @alloc_e9b2a7c98a7f1e6e3fa5f9a4d1f3ef27, [16 x i8] c"b\00\00\00\00\00\00\00\DD\03\00\002\00\00\00" }>, align 8
@alloc_bf2129c2660f7377cfffd08b8e87e99a = private unnamed_addr constant <{ ptr, [16 x i8] }> <{ ptr @alloc_e9b2a7c98a7f1e6e3fa5f9a4d1f3ef27, [16 x i8] c"b\00\00\00\00\00\00\00\DE\03\00\00+\00\00\00" }>, align 8
@alloc_9de1d4aff78dc5aba5ddcc3a83577e09 = private unnamed_addr constant <{ ptr, [16 x i8] }> <{ ptr @alloc_e9b2a7c98a7f1e6e3fa5f9a4d1f3ef27, [16 x i8] c"b\00\00\00\00\00\00\00\DF\03\00\006\00\00\00" }>, align 8
@_ZN11proc_macro29detection5WORKS17ha239fa9223ed0a28E = internal global <{ [8 x i8] }> zeroinitializer, align 8
@_ZN11proc_macro29detection4INIT17ha01234dd08f7075eE = internal global <{ [4 x i8] }> zeroinitializer, align 4
@alloc_dc7b19a6b3fd9a84fc4b42d53e9c8691 = private unnamed_addr constant <{ [102 x i8] }> <{ [102 x i8] c"/home/arsalan/.cargo/registry/src/index.crates.io-1949cf8c6b5b557f/proc-macro2-1.0.70/src/detection.rs" }>, align 1
@alloc_213e33e81e502673945f14a8c641d8e6 = private unnamed_addr constant <{ ptr, [16 x i8] }> <{ ptr @alloc_dc7b19a6b3fd9a84fc4b42d53e9c8691, [16 x i8] c"f\00\00\00\00\00\00\00\0E\00\00\00\0A\00\00\00" }>, align 8
@alloc_e712762edc9ad31bc8ddf8c29ba2ab95 = private unnamed_addr constant <{ [3 x i8] }> <{ [3 x i8] c"\EF\BB\BF" }>, align 1
@alloc_86ae06c694315714eba68fd4dbf9a3e7 = private unnamed_addr constant <{ [37 x i8] }> <{ [37 x i8] c"cannot parse string into token stream" }>, align 1
@alloc_0242e8ee118de705af76c627590b82cc = private unnamed_addr constant <{ [1 x i8] }> <{ [1 x i8] c" " }>, align 1
@alloc_c00fe7fcdf183128eacaa5cead3e5b1f = private unnamed_addr constant <{ ptr, [8 x i8] }> <{ ptr @alloc_0242e8ee118de705af76c627590b82cc, [8 x i8] c"\01\00\00\00\00\00\00\00" }>, align 8
@alloc_ff7e89f0f334a20ed2fe7a91437d46b8 = private unnamed_addr constant <{ [101 x i8] }> <{ [101 x i8] c"/home/arsalan/.cargo/registry/src/index.crates.io-1949cf8c6b5b557f/proc-macro2-1.0.70/src/fallback.rs" }>, align 1
@alloc_61a3ea68f6968f26b1d351a01078ff03 = private unnamed_addr constant <{ ptr, [16 x i8] }> <{ ptr @alloc_ff7e89f0f334a20ed2fe7a91437d46b8, [16 x i8] c"e\00\00\00\00\00\00\00\C5\00\00\00\11\00\00\00" }>, align 8
@alloc_ca9947dbcaedc0cf87f039977b6aa83b = private unnamed_addr constant <{ ptr, [16 x i8] }> <{ ptr @alloc_ff7e89f0f334a20ed2fe7a91437d46b8, [16 x i8] c"e\00\00\00\00\00\00\00\C8\00\00\00\0D\00\00\00" }>, align 8
@alloc_5c9190818faa303809fe44f74ab2b44a = private unnamed_addr constant <{ [12 x i8] }> <{ [12 x i8] c"TokenStream " }>, align 1
@alloc_5cb3a146b6615456afeeb7173bb1ecd9 = private unnamed_addr constant <{ ptr, [16 x i8] }> <{ ptr @alloc_ff7e89f0f334a20ed2fe7a91437d46b8, [16 x i8] c"e\00\00\00\00\00\00\00\D9\00\00\00\09\00\00\00" }>, align 8
@alloc_519bbb0683fc13a80d093e972ed5ffbd = private unnamed_addr constant <{ [34 x i8] }> <{ [34 x i8] c"compiler token stream parse failed" }>, align 1
@alloc_d5c8943d731e4c12bfd4cb7b8740ed85 = private unnamed_addr constant <{ ptr, [16 x i8] }> <{ ptr @alloc_ff7e89f0f334a20ed2fe7a91437d46b8, [16 x i8] c"e\00\00\00\00\00\00\00\E4\00\00\00\0E\00\00\00" }>, align 8
@alloc_5ea67045834e20cd2b2dc529f8f680b8 = private unnamed_addr constant <{ [34 x i8] }> <{ [34 x i8] c"failed to parse to compiler tokens" }>, align 1
@alloc_7b3565daa78a7229551e6b70affed39e = private unnamed_addr constant <{ ptr, [16 x i8] }> <{ ptr @alloc_ff7e89f0f334a20ed2fe7a91437d46b8, [16 x i8] c"e\00\00\00\00\00\00\00\EE\00\00\00\0E\00\00\00" }>, align 8
@alloc_115ffe2e9ed1e007567a3bbfc0abb33e = private unnamed_addr constant <{ [10 x i8] }> <{ [10 x i8] c"SourceFile" }>, align 1
@alloc_1713fdbdd59e3f6dd78509f861b8bb36 = private unnamed_addr constant <{ [4 x i8] }> <{ [4 x i8] c"path" }>, align 1
@vtable.9 = private unnamed_addr constant <{ ptr, [16 x i8], ptr }> <{ ptr @"_ZN4core3ptr39drop_in_place$LT$std..path..PathBuf$GT$17h91833bae97a83f38E", [16 x i8] c"\18\00\00\00\00\00\00\00\08\00\00\00\00\00\00\00", ptr @"_ZN55_$LT$std..path..PathBuf$u20$as$u20$core..fmt..Debug$GT$3fmt17h3fccc7738c99660fE" }>, align 8
@alloc_68f479c2f24e9297f788ed7dd88ff18a = private unnamed_addr constant <{ [7 x i8] }> <{ [7 x i8] c"is_real" }>, align 1
@vtable.a = private unnamed_addr constant <{ [24 x i8], ptr }> <{ [24 x i8] c"\00\00\00\00\00\00\00\00\01\00\00\00\00\00\00\00\01\00\00\00\00\00\00\00", ptr @"_ZN41_$LT$bool$u20$as$u20$core..fmt..Debug$GT$3fmt17h41a9056ce763c337E" }>, align 8
@alloc_013ac183eb69ceaf6bbbdb62e96feb3c = private unnamed_addr constant <{ [4 x i8] }> <{ [4 x i8] c"Span" }>, align 1
@alloc_aad67cf38ff50928db56315f0cc21b07 = private unnamed_addr constant <{ ptr, [8 x i8] }> <{ ptr @alloc_013ac183eb69ceaf6bbbdb62e96feb3c, [8 x i8] c"\04\00\00\00\00\00\00\00" }>, align 8
@alloc_1ff25e6ad58d770003043bae3c4113bf = private unnamed_addr constant <{ [1 x i8] }> <{ [1 x i8] c"(" }>, align 1
@alloc_9e3f62b0e6490cc45676dc85f910c2d0 = private unnamed_addr constant <{ [1 x i8] }> <{ [1 x i8] c")" }>, align 1
@alloc_ba02d3c2bb83a9cd2b43a9c8021c63b5 = private unnamed_addr constant <{ [2 x i8] }> <{ [2 x i8] c"{ " }>, align 1
@alloc_fcd552ca5ffc948e1053f652f94fed71 = private unnamed_addr constant <{ [1 x i8] }> <{ [1 x i8] c"}" }>, align 1
@alloc_036636151bab3754536335311c8d3ab8 = private unnamed_addr constant <{ [1 x i8] }> <{ [1 x i8] c"[" }>, align 1
@alloc_7a6887ef0f93938f57a4bb958cf80311 = private unnamed_addr constant <{ [1 x i8] }> <{ [1 x i8] c"]" }>, align 1
@alloc_7248c0ab412e0a4f56381dc419954230 = private unnamed_addr constant <{ ptr, [16 x i8] }> <{ ptr @alloc_ff7e89f0f334a20ed2fe7a91437d46b8, [16 x i8] c"e\00\00\00\00\00\00\00\DC\02\00\00\0D\00\00\00" }>, align 8
@alloc_6dd02269b23faa37975cf09c0218f385 = private unnamed_addr constant <{ ptr, [16 x i8] }> <{ ptr @alloc_ff7e89f0f334a20ed2fe7a91437d46b8, [16 x i8] c"e\00\00\00\00\00\00\00\DE\02\00\00\09\00\00\00" }>, align 8
@alloc_9aee5f439ed8feffbc6f6580c149ef82 = private unnamed_addr constant <{ ptr, [16 x i8] }> <{ ptr @alloc_ff7e89f0f334a20ed2fe7a91437d46b8, [16 x i8] c"e\00\00\00\00\00\00\00\DA\02\00\00\09\00\00\00" }>, align 8
@alloc_cbecd9d73e681bbaf4b5a9cd138aa12a = private unnamed_addr constant <{ ptr, [16 x i8] }> <{ ptr @alloc_ff7e89f0f334a20ed2fe7a91437d46b8, [16 x i8] c"e\00\00\00\00\00\00\00\D9\02\00\00\09\00\00\00" }>, align 8
@alloc_9da9d291a90742fa8a71e87501ed4345 = private unnamed_addr constant <{ [5 x i8] }> <{ [5 x i8] c"Group" }>, align 1
@alloc_f18a9bd8117f705fa536a1dea2e1da89 = private unnamed_addr constant <{ [9 x i8] }> <{ [9 x i8] c"delimiter" }>, align 1
@vtable.b = private unnamed_addr constant <{ [24 x i8], ptr }> <{ [24 x i8] c"\00\00\00\00\00\00\00\00\01\00\00\00\00\00\00\00\01\00\00\00\00\00\00\00", ptr @"_ZN59_$LT$proc_macro2..Delimiter$u20$as$u20$core..fmt..Debug$GT$3fmt17h03c3a3ab6bfca45cE" }>, align 8
@alloc_16157024dd92dd2dc2624dbf6332a09b = private unnamed_addr constant <{ [6 x i8] }> <{ [6 x i8] c"stream" }>, align 1
@vtable.c = private unnamed_addr constant <{ ptr, [16 x i8], ptr }> <{ ptr @"_ZN4core3ptr55drop_in_place$LT$proc_macro2..fallback..TokenStream$GT$17h842cd8089ab57678E", [16 x i8] c"\08\00\00\00\00\00\00\00\08\00\00\00\00\00\00\00", ptr @"_ZN71_$LT$proc_macro2..fallback..TokenStream$u20$as$u20$core..fmt..Debug$GT$3fmt17hfc5baecbeabf7391E" }>, align 8
@alloc_a433354f33342351c461c70cc187d739 = private unnamed_addr constant <{ [21 x i8] }> <{ [21 x i8] c" is not a valid Ident" }>, align 1
@alloc_0b761235b698fc0bb61eb8c9cf2baa7f = private unnamed_addr constant <{ ptr, [8 x i8], ptr, [8 x i8] }> <{ ptr inttoptr (i64 1 to ptr), [8 x i8] zeroinitializer, ptr @alloc_a433354f33342351c461c70cc187d739, [8 x i8] c"\15\00\00\00\00\00\00\00" }>, align 8
@alloc_218a05756a37265d60694e13f7e3d209 = private unnamed_addr constant <{ [45 x i8] }> <{ [45 x i8] c"Ident cannot be a number; use Literal instead" }>, align 1
@alloc_dfb0c1e49a652d1c226faedca3b3a6d3 = private unnamed_addr constant <{ ptr, [8 x i8] }> <{ ptr @alloc_218a05756a37265d60694e13f7e3d209, [8 x i8] c"-\00\00\00\00\00\00\00" }>, align 8
@alloc_223fa054b991c08dbf9067cd34c06732 = private unnamed_addr constant <{ [51 x i8] }> <{ [51 x i8] c"Ident is not allowed to be empty; use Option<Ident>" }>, align 1
@alloc_061a4c4961692303b78b16583ef2f676 = private unnamed_addr constant <{ ptr, [8 x i8] }> <{ ptr @alloc_223fa054b991c08dbf9067cd34c06732, [8 x i8] c"3\00\00\00\00\00\00\00" }>, align 8
@alloc_3febd6f7ad5b8bb0e8de9562dfd9fada = private unnamed_addr constant <{ ptr, [16 x i8] }> <{ ptr @alloc_ff7e89f0f334a20ed2fe7a91437d46b8, [16 x i8] c"e\00\00\00\00\00\00\00/\03\00\00\22\00\00\00" }>, align 8
@alloc_ab477093b59ce23eba21093007520201 = private unnamed_addr constant <{ [3 x i8] }> <{ [3 x i8] c"`r#" }>, align 1
@alloc_7d1c330741f795d9c121ef3f0defae66 = private unnamed_addr constant <{ [28 x i8] }> <{ [28 x i8] c"` cannot be a raw identifier" }>, align 1
@alloc_354dd15a14169b2de9b9c6dfe1ba2540 = private unnamed_addr constant <{ ptr, [8 x i8], ptr, [8 x i8] }> <{ ptr @alloc_ab477093b59ce23eba21093007520201, [8 x i8] c"\03\00\00\00\00\00\00\00", ptr @alloc_7d1c330741f795d9c121ef3f0defae66, [8 x i8] c"\1C\00\00\00\00\00\00\00" }>, align 8
@alloc_2329b817f93c9dff96ec90c92a9ea716 = private unnamed_addr constant <{ ptr, [16 x i8] }> <{ ptr @alloc_ff7e89f0f334a20ed2fe7a91437d46b8, [16 x i8] c"e\00\00\00\00\00\00\00c\03\00\00\0D\00\00\00" }>, align 8
@alloc_2dbfdc2e58db4d4910923c307a6e38ca = private unnamed_addr constant <{ [5 x i8] }> <{ [5 x i8] c"Ident" }>, align 1
@alloc_b99730e73100e73a81f4fbfe74b3821d = private unnamed_addr constant <{ ptr, [8 x i8] }> <{ ptr inttoptr (i64 1 to ptr), [8 x i8] zeroinitializer }>, align 8
@vtable.d = private unnamed_addr constant <{ [24 x i8], ptr }> <{ [24 x i8] c"\00\00\00\00\00\00\00\000\00\00\00\00\00\00\00\08\00\00\00\00\00\00\00", ptr @"_ZN57_$LT$core..fmt..Arguments$u20$as$u20$core..fmt..Debug$GT$3fmt17h88ad6f5138354091E" }>, align 8
@alloc_11813f653ed6a734517fe4070f367895 = private unnamed_addr constant <{ [2 x i8] }> <{ [2 x i8] c".0" }>, align 1
@alloc_d555b1c9aff03f19dcb511ac1ac8841e = private unnamed_addr constant <{ [2 x i8] }> <{ [2 x i8] c"\\0" }>, align 1
@alloc_c6c4149d289afdcaafd000f8d4a6bfb9 = private unnamed_addr constant <{ [4 x i8] }> <{ [4 x i8] c"\\x00" }>, align 1
@alloc_d60793667b48d8597496d3dbc89c8177 = private unnamed_addr constant <{ [2 x i8] }> <{ [2 x i8] c"\\t" }>, align 1
@alloc_3881d9bec5de5a4c65f8cbef37283713 = private unnamed_addr constant <{ [2 x i8] }> <{ [2 x i8] c"\\n" }>, align 1
@alloc_84e26d65b99f72a64848d9745fc88101 = private unnamed_addr constant <{ [2 x i8] }> <{ [2 x i8] c"\\r" }>, align 1
@alloc_ecfb9c41a817c0344047f6b7fab37bb4 = private unnamed_addr constant <{ [2 x i8] }> <{ [2 x i8] c"\\\22" }>, align 1
@alloc_e9ab70823b006efb53ee24434a446271 = private unnamed_addr constant <{ [2 x i8] }> <{ [2 x i8] c"\\\\" }>, align 1
@alloc_37ea2f75ed88fba5dc9d844fc43ee990 = private unnamed_addr constant <{ [2 x i8] }> <{ [2 x i8] c"\\x" }>, align 1
@alloc_f3b6d8e642063abee154656dd60b1eda = private unnamed_addr constant <{ ptr, [8 x i8] }> <{ ptr @alloc_37ea2f75ed88fba5dc9d844fc43ee990, [8 x i8] c"\02\00\00\00\00\00\00\00" }>, align 8
@alloc_33ac9531a9c2c24dc222b4b41e31ecf8 = private unnamed_addr constant <{ [7 x i8] }> <{ [7 x i8] c"Literal" }>, align 1
@alloc_9791236d4c0092df644cfaa29555826d = private unnamed_addr constant <{ [3 x i8] }> <{ [3 x i8] c"lit" }>, align 1
@alloc_904cc68e32aa0b4099202f3aba98e87b = private unnamed_addr constant <{ [26 x i8] }> <{ [26 x i8] c"compiler/fallback mismatch" }>, align 1
@alloc_312d8ee8e73f2d3cdf99a6ce3551f56b = private unnamed_addr constant <{ ptr, [8 x i8] }> <{ ptr @alloc_904cc68e32aa0b4099202f3aba98e87b, [8 x i8] c"\1A\00\00\00\00\00\00\00" }>, align 8
@alloc_48258dac474065113184c5bc39f1fcd8 = private unnamed_addr constant <{ [100 x i8] }> <{ [100 x i8] c"/home/arsalan/.cargo/registry/src/index.crates.io-1949cf8c6b5b557f/proc-macro2-1.0.70/src/wrapper.rs" }>, align 1
@alloc_2eff838ed3163eb90d1619973b56be9b = private unnamed_addr constant <{ ptr, [16 x i8] }> <{ ptr @alloc_48258dac474065113184c5bc39f1fcd8, [16 x i8] c"d\00\00\00\00\00\00\00*\00\00\00\05\00\00\00" }>, align 8
@alloc_bc0ae40514e83e0af59c8f2c44b6c417 = private unnamed_addr constant <{ ptr, [16 x i8] }> <{ ptr @alloc_48258dac474065113184c5bc39f1fcd8, [16 x i8] c"d\00\00\00\00\00\00\00p\00\00\00&\00\00\00" }>, align 8
@alloc_77c00cca301e3144f91fa97d47d8d15e = private unnamed_addr constant <{ ptr, [16 x i8] }> <{ ptr @alloc_48258dac474065113184c5bc39f1fcd8, [16 x i8] c"d\00\00\00\00\00\00\00m\00\00\00\11\00\00\00" }>, align 8
@alloc_daac157542996d114ccfbf99aeb76120 = private unnamed_addr constant <{ ptr, [16 x i8] }> <{ ptr @alloc_48258dac474065113184c5bc39f1fcd8, [16 x i8] c"d\00\00\00\00\00\00\00x\00\00\00\0C\00\00\00" }>, align 8
@alloc_57c0aa826ab7be2b4b6ac673f8d888e3 = private unnamed_addr constant <{ ptr, [16 x i8] }> <{ ptr @alloc_48258dac474065113184c5bc39f1fcd8, [16 x i8] c"d\00\00\00\00\00\00\00\8E\00\00\00G\00\00\00" }>, align 8
@alloc_cc1b511ec8ce0a9699a812ee920f7759 = private unnamed_addr constant <{ ptr, [16 x i8] }> <{ ptr @alloc_48258dac474065113184c5bc39f1fcd8, [16 x i8] c"d\00\00\00\00\00\00\00\9C\00\00\00;\00\00\00" }>, align 8
@alloc_924483463a8368a3d613abd716f9f893 = private unnamed_addr constant <{ ptr, [16 x i8] }> <{ ptr @alloc_48258dac474065113184c5bc39f1fcd8, [16 x i8] c"d\00\00\00\00\00\00\00\A6\00\00\00;\00\00\00" }>, align 8
@alloc_af23a9933ffa739b23f10a546a913025 = private unnamed_addr constant <{ ptr, [16 x i8] }> <{ ptr @alloc_48258dac474065113184c5bc39f1fcd8, [16 x i8] c"d\00\00\00\00\00\00\00\A4\00\00\00\13\00\00\00" }>, align 8
@alloc_b706e116591d24b8de204161f997f964 = private unnamed_addr constant <{ ptr, [16 x i8] }> <{ ptr @alloc_48258dac474065113184c5bc39f1fcd8, [16 x i8] c"d\00\00\00\00\00\00\00\A7\00\00\00=\00\00\00" }>, align 8
@alloc_1db4a8dc4931354d3832d67b630999ec = private unnamed_addr constant <{ ptr, [16 x i8] }> <{ ptr @alloc_48258dac474065113184c5bc39f1fcd8, [16 x i8] c"d\00\00\00\00\00\00\00\B0\00\00\00)\00\00\00" }>, align 8
@alloc_69e014b21bd0ce3b2dc0ee2188ee1ba0 = private unnamed_addr constant <{ ptr, [16 x i8] }> <{ ptr @alloc_48258dac474065113184c5bc39f1fcd8, [16 x i8] c"d\00\00\00\00\00\00\00\AE\00\00\00W\00\00\00" }>, align 8
@alloc_87a33879f94a3c068267525b6d2d40bb = private unnamed_addr constant <{ ptr, [16 x i8] }> <{ ptr @alloc_48258dac474065113184c5bc39f1fcd8, [16 x i8] c"d\00\00\00\00\00\00\00C\01\00\00Y\00\00\00" }>, align 8
@alloc_fd37ce6cbbc75f659823b130e6c71978 = private unnamed_addr constant <{ ptr, [16 x i8] }> <{ ptr @alloc_48258dac474065113184c5bc39f1fcd8, [16 x i8] c"d\00\00\00\00\00\00\00M\01\00\00W\00\00\00" }>, align 8
@alloc_55120d89cb7a2617208dd45fdd875923 = private unnamed_addr constant <{ ptr, [16 x i8] }> <{ ptr @alloc_48258dac474065113184c5bc39f1fcd8, [16 x i8] c"d\00\00\00\00\00\00\00K\01\00\00\13\00\00\00" }>, align 8
@alloc_6ef66a8593bd0837665b94528d527284 = private unnamed_addr constant <{ ptr, [16 x i8] }> <{ ptr @alloc_48258dac474065113184c5bc39f1fcd8, [16 x i8] c"d\00\00\00\00\00\00\00N\01\00\00]\00\00\00" }>, align 8
@alloc_87da24c6c4aee92f40a5980899f3858c = private unnamed_addr constant <{ [55 x i8] }> <{ [55 x i8] c"proc_macro::Span is only available in procedural macros" }>, align 1
@alloc_20cbea710a0c6cd6b255770ee94e71e0 = private unnamed_addr constant <{ ptr, [8 x i8] }> <{ ptr @alloc_87da24c6c4aee92f40a5980899f3858c, [8 x i8] c"7\00\00\00\00\00\00\00" }>, align 8
@alloc_583a7c01bca8b668b7b2440b42e37f33 = private unnamed_addr constant <{ ptr, [16 x i8] }> <{ ptr @alloc_48258dac474065113184c5bc39f1fcd8, [16 x i8] c"d\00\00\00\00\00\00\00\B4\01\00\00\22\00\00\00" }>, align 8
@alloc_d299c6d6ea3f96b88c1a3bb8e0f4fc1e = private unnamed_addr constant <{ [4 x i8] }> <{ [4 x i8] c"span" }>, align 1
@vtable.e = private unnamed_addr constant <{ [24 x i8], ptr }> <{ [24 x i8] c"\00\00\00\00\00\00\00\00\04\00\00\00\00\00\00\00\04\00\00\00\00\00\00\00", ptr @"_ZN53_$LT$proc_macro..Span$u20$as$u20$core..fmt..Debug$GT$3fmt17h6f979cfe424668feE" }>, align 8
@alloc_85f85a65aa8b036064a0f08f0d8d3d25 = private unnamed_addr constant <{ [15 x i8] }> <{ [15 x i8] c"invalid literal" }>, align 1
@alloc_52f8e9a7451d2437ef7d66289d7b7c08 = private unnamed_addr constant <{ ptr, [16 x i8] }> <{ ptr @alloc_48258dac474065113184c5bc39f1fcd8, [16 x i8] c"d\00\00\00\00\00\00\00\FB\02\00\00C\00\00\00" }>, align 8
@alloc_349d3d0902daedd2f8a07c8b1672d51e = private unnamed_addr constant <{ ptr, [16 x i8] }> <{ ptr @alloc_48258dac474065113184c5bc39f1fcd8, [16 x i8] c"d\00\00\00\00\00\00\00y\03\00\00\1B\00\00\00" }>, align 8
@alloc_d6ac3a456a3e93b685e12b5b12a5db95 = private unnamed_addr constant <{ ptr, [16 x i8] }> <{ ptr @alloc_48258dac474065113184c5bc39f1fcd8, [16 x i8] c"d\00\00\00\00\00\00\00v\03\00\00\1B\00\00\00" }>, align 8
@alloc_fed41a6437d9d4a534fea0dd6da7ce75 = private unnamed_addr constant <{ [96 x i8] }> <{ [96 x i8] c"/home/arsalan/.cargo/registry/src/index.crates.io-1949cf8c6b5b557f/proc-macro2-1.0.70/src/lib.rs" }>, align 1
@alloc_01616bba73a132287d1b443e5cf56679 = private unnamed_addr constant <{ ptr, [16 x i8] }> <{ ptr @alloc_fed41a6437d9d4a534fea0dd6da7ce75, [16 x i8] c"`\00\00\00\00\00\00\00\E7\00\00\00\11\00\00\00" }>, align 8
@alloc_1dd067137d2ae3739c101121a83a2ce3 = private unnamed_addr constant <{ ptr, [16 x i8] }> <{ ptr @alloc_fed41a6437d9d4a534fea0dd6da7ce75, [16 x i8] c"`\00\00\00\00\00\00\00\F3\00\00\00!\00\00\00" }>, align 8
@alloc_64442ae03bbb0ea447d74bca42ae987d = private unnamed_addr constant <{ ptr, [16 x i8] }> <{ ptr @alloc_fed41a6437d9d4a534fea0dd6da7ce75, [16 x i8] c"`\00\00\00\00\00\00\00\FB\00\00\00\15\00\00\00" }>, align 8
@alloc_1350894a24d20d4f82d28f8389c28967 = private unnamed_addr constant <{ ptr, [16 x i8] }> <{ ptr @alloc_fed41a6437d9d4a534fea0dd6da7ce75, [16 x i8] c"`\00\00\00\00\00\00\00\87\01\00\00\1A\00\00\00" }>, align 8
@alloc_37d55b91621ff632e7c33748e32b9616 = private unnamed_addr constant <{ [3 x i8] }> <{ [3 x i8] c"sym" }>, align 1
@alloc_987ee3fd87498fd3c36cc2e311f5302a = private unnamed_addr constant <{ ptr, [16 x i8] }> <{ ptr @alloc_fed41a6437d9d4a534fea0dd6da7ce75, [16 x i8] c"`\00\00\00\00\00\00\00\9C\02\00\00\1A\00\00\00" }>, align 8
@alloc_330d63602223408d89df37fc81986e6c = private unnamed_addr constant <{ [5 x i8] }> <{ [5 x i8] c"Punct" }>, align 1
@alloc_9b5c8091e3b549959da5ff7ce59718f9 = private unnamed_addr constant <{ [4 x i8] }> <{ [4 x i8] c"char" }>, align 1
@vtable.f = private unnamed_addr constant <{ [24 x i8], ptr }> <{ [24 x i8] c"\00\00\00\00\00\00\00\00\04\00\00\00\00\00\00\00\04\00\00\00\00\00\00\00", ptr @"_ZN41_$LT$char$u20$as$u20$core..fmt..Debug$GT$3fmt17h05733adebd5664c5E" }>, align 8
@alloc_033337e827ce54b74ba409e6d0ed4279 = private unnamed_addr constant <{ [7 x i8] }> <{ [7 x i8] c"spacing" }>, align 1
@vtable.g = private unnamed_addr constant <{ [24 x i8], ptr }> <{ [24 x i8] c"\00\00\00\00\00\00\00\00\01\00\00\00\00\00\00\00\01\00\00\00\00\00\00\00", ptr @"_ZN57_$LT$proc_macro2..Spacing$u20$as$u20$core..fmt..Debug$GT$3fmt17h7333ab3fcbdaa078E" }>, align 8
@alloc_f8bf7251edc18fa655df9e7da0822a2e = private unnamed_addr constant <{ ptr, [16 x i8] }> <{ ptr @alloc_fed41a6437d9d4a534fea0dd6da7ce75, [16 x i8] c"`\00\00\00\00\00\00\00C\04\00\00\1A\00\00\00" }>, align 8
@alloc_872e27944f452a359e6d9f0cdbf18a96 = private unnamed_addr constant <{ [31 x i8] }> <{ [31 x i8] c"assertion failed: f.is_finite()" }>, align 1
@alloc_768bdfc169e8e51d63be8a563a21a302 = private unnamed_addr constant <{ ptr, [16 x i8] }> <{ ptr @alloc_fed41a6437d9d4a534fea0dd6da7ce75, [16 x i8] c"`\00\00\00\00\00\00\00t\04\00\00\09\00\00\00" }>, align 8
@alloc_16ba1a5d3cf7af6d8d32cd9c069e323e = private unnamed_addr constant <{ ptr, [16 x i8] }> <{ ptr @alloc_fed41a6437d9d4a534fea0dd6da7ce75, [16 x i8] c"`\00\00\00\00\00\00\00\86\04\00\00\09\00\00\00" }>, align 8
@alloc_c7710b89408583fd9e6b8fda4d98613a = private unnamed_addr constant <{ ptr, [16 x i8] }> <{ ptr @alloc_fed41a6437d9d4a534fea0dd6da7ce75, [16 x i8] c"`\00\00\00\00\00\00\00\98\04\00\00\09\00\00\00" }>, align 8
@alloc_a4ff712d68acaeb5c8c3f41826999797 = private unnamed_addr constant <{ ptr, [16 x i8] }> <{ ptr @alloc_fed41a6437d9d4a534fea0dd6da7ce75, [16 x i8] c"`\00\00\00\00\00\00\00\AA\04\00\00\09\00\00\00" }>, align 8
@alloc_eb7db4ea0894f6a849171cf3ffc9835f = private unnamed_addr constant <{ ptr, [16 x i8] }> <{ ptr @alloc_fed41a6437d9d4a534fea0dd6da7ce75, [16 x i8] c"`\00\00\00\00\00\00\00\15\05\00\00\0D\00\00\00" }>, align 8
@vtable.h = private unnamed_addr constant <{ [24 x i8], ptr }> <{ [24 x i8] c"\00\00\00\00\00\00\00\00\08\00\00\00\00\00\00\00\08\00\00\00\00\00\00\00", ptr @"_ZN42_$LT$$RF$T$u20$as$u20$core..fmt..Debug$GT$3fmt17hb728857baa5ea652E" }>, align 8
@alloc_df66aaff7dc04933728ad5e7db359d0f = private unnamed_addr constant <{ [2 x i8] }> <{ [2 x i8] c"u8" }>, align 1
@alloc_6fcf3a3c992995ab262b575885136de3 = private unnamed_addr constant <{ ptr, [8 x i8], ptr, [8 x i8] }> <{ ptr inttoptr (i64 1 to ptr), [8 x i8] zeroinitializer, ptr @alloc_df66aaff7dc04933728ad5e7db359d0f, [8 x i8] c"\02\00\00\00\00\00\00\00" }>, align 8
@alloc_0d3fdde1e4251889fe20be0554d3a4df = private unnamed_addr constant <{ [3 x i8] }> <{ [3 x i8] c"u16" }>, align 1
@alloc_857c672e5aa084e790e2d96873f630f9 = private unnamed_addr constant <{ ptr, [8 x i8], ptr, [8 x i8] }> <{ ptr inttoptr (i64 1 to ptr), [8 x i8] zeroinitializer, ptr @alloc_0d3fdde1e4251889fe20be0554d3a4df, [8 x i8] c"\03\00\00\00\00\00\00\00" }>, align 8
@alloc_40dca76ea60e772225aeb9a5dae9c756 = private unnamed_addr constant <{ [3 x i8] }> <{ [3 x i8] c"u32" }>, align 1
@alloc_edeab7fc71a3de415c4c4e722590f9ff = private unnamed_addr constant <{ ptr, [8 x i8], ptr, [8 x i8] }> <{ ptr inttoptr (i64 1 to ptr), [8 x i8] zeroinitializer, ptr @alloc_40dca76ea60e772225aeb9a5dae9c756, [8 x i8] c"\03\00\00\00\00\00\00\00" }>, align 8
@alloc_4c3daea643e86fcf49e0a8dcf3e4c20b = private unnamed_addr constant <{ [3 x i8] }> <{ [3 x i8] c"u64" }>, align 1
@alloc_b9cca7493ef3232c87286296b485ea8c = private unnamed_addr constant <{ ptr, [8 x i8], ptr, [8 x i8] }> <{ ptr inttoptr (i64 1 to ptr), [8 x i8] zeroinitializer, ptr @alloc_4c3daea643e86fcf49e0a8dcf3e4c20b, [8 x i8] c"\03\00\00\00\00\00\00\00" }>, align 8
@alloc_c6dac74b65b8f5d0fd6a204546100ec0 = private unnamed_addr constant <{ [4 x i8] }> <{ [4 x i8] c"u128" }>, align 1
@alloc_d6141e8d36bc4091b00689cb2f965a44 = private unnamed_addr constant <{ ptr, [8 x i8], ptr, [8 x i8] }> <{ ptr inttoptr (i64 1 to ptr), [8 x i8] zeroinitializer, ptr @alloc_c6dac74b65b8f5d0fd6a204546100ec0, [8 x i8] c"\04\00\00\00\00\00\00\00" }>, align 8
@alloc_087073340adf6d09480d7739d2e7638d = private unnamed_addr constant <{ [5 x i8] }> <{ [5 x i8] c"usize" }>, align 1
@alloc_b567e9b83c8d0530609ec26647d65119 = private unnamed_addr constant <{ ptr, [8 x i8], ptr, [8 x i8] }> <{ ptr inttoptr (i64 1 to ptr), [8 x i8] zeroinitializer, ptr @alloc_087073340adf6d09480d7739d2e7638d, [8 x i8] c"\05\00\00\00\00\00\00\00" }>, align 8
@alloc_468bbdcdbefe19b6476616d87880f70c = private unnamed_addr constant <{ [2 x i8] }> <{ [2 x i8] c"i8" }>, align 1
@alloc_b44f9bbca021b1d6813f62ca3d91bbb1 = private unnamed_addr constant <{ ptr, [8 x i8], ptr, [8 x i8] }> <{ ptr inttoptr (i64 1 to ptr), [8 x i8] zeroinitializer, ptr @alloc_468bbdcdbefe19b6476616d87880f70c, [8 x i8] c"\02\00\00\00\00\00\00\00" }>, align 8
@alloc_b65da51539f621df7a047bc43773eb81 = private unnamed_addr constant <{ [3 x i8] }> <{ [3 x i8] c"i16" }>, align 1
@alloc_43f3cf3e9288ae1924ee84ddc07f53c1 = private unnamed_addr constant <{ ptr, [8 x i8], ptr, [8 x i8] }> <{ ptr inttoptr (i64 1 to ptr), [8 x i8] zeroinitializer, ptr @alloc_b65da51539f621df7a047bc43773eb81, [8 x i8] c"\03\00\00\00\00\00\00\00" }>, align 8
@alloc_f5bb2e494f5d1658dbc347d7b24d2ac3 = private unnamed_addr constant <{ [3 x i8] }> <{ [3 x i8] c"i32" }>, align 1
@alloc_962f2d8fade7bbcb7d97d863b8bc6e3f = private unnamed_addr constant <{ ptr, [8 x i8], ptr, [8 x i8] }> <{ ptr inttoptr (i64 1 to ptr), [8 x i8] zeroinitializer, ptr @alloc_f5bb2e494f5d1658dbc347d7b24d2ac3, [8 x i8] c"\03\00\00\00\00\00\00\00" }>, align 8
@alloc_b7a8a06bcc169bbf687e36ae2ac3129c = private unnamed_addr constant <{ [3 x i8] }> <{ [3 x i8] c"i64" }>, align 1
@alloc_be1121f0b8470f2bd7ac7ab700439f77 = private unnamed_addr constant <{ ptr, [8 x i8], ptr, [8 x i8] }> <{ ptr inttoptr (i64 1 to ptr), [8 x i8] zeroinitializer, ptr @alloc_b7a8a06bcc169bbf687e36ae2ac3129c, [8 x i8] c"\03\00\00\00\00\00\00\00" }>, align 8
@alloc_fc155f0a6f9ce04075e55a71ca237d6b = private unnamed_addr constant <{ [4 x i8] }> <{ [4 x i8] c"i128" }>, align 1
@alloc_4d09191e7ae43e42eea36d00ffef3c2a = private unnamed_addr constant <{ ptr, [8 x i8], ptr, [8 x i8] }> <{ ptr inttoptr (i64 1 to ptr), [8 x i8] zeroinitializer, ptr @alloc_fc155f0a6f9ce04075e55a71ca237d6b, [8 x i8] c"\04\00\00\00\00\00\00\00" }>, align 8
@alloc_72df7fce5c308ce6e1f7311558c9728e = private unnamed_addr constant <{ [5 x i8] }> <{ [5 x i8] c"isize" }>, align 1
@alloc_0f927090f2196e1faa7cab05e6ad26b3 = private unnamed_addr constant <{ ptr, [8 x i8], ptr, [8 x i8] }> <{ ptr inttoptr (i64 1 to ptr), [8 x i8] zeroinitializer, ptr @alloc_72df7fce5c308ce6e1f7311558c9728e, [8 x i8] c"\05\00\00\00\00\00\00\00" }>, align 8
@alloc_c8dbd11c0d0afd7250de135d09c6bf30 = private unnamed_addr constant <{ [3 x i8] }> <{ [3 x i8] c"f32" }>, align 1
@alloc_274b061f0c6a48e0acb9874c0304499e = private unnamed_addr constant <{ ptr, [8 x i8], ptr, [8 x i8] }> <{ ptr inttoptr (i64 1 to ptr), [8 x i8] zeroinitializer, ptr @alloc_c8dbd11c0d0afd7250de135d09c6bf30, [8 x i8] c"\03\00\00\00\00\00\00\00" }>, align 8
@alloc_2717017e1ae813f478f43d8b0722e846 = private unnamed_addr constant <{ [3 x i8] }> <{ [3 x i8] c"f64" }>, align 1
@alloc_09cd27f876d43cf651c7aed3f3df3f17 = private unnamed_addr constant <{ ptr, [8 x i8], ptr, [8 x i8] }> <{ ptr inttoptr (i64 1 to ptr), [8 x i8] zeroinitializer, ptr @alloc_2717017e1ae813f478f43d8b0722e846, [8 x i8] c"\03\00\00\00\00\00\00\00" }>, align 8
@alloc_0294e458fb90079136075a45e1b88064 = private unnamed_addr constant <{ [11 x i8] }> <{ [11 x i8] c"Parenthesis" }>, align 1
@alloc_008064ec92f18d6001dc96ef0f11d89f = private unnamed_addr constant <{ [5 x i8] }> <{ [5 x i8] c"Brace" }>, align 1
@alloc_a295c4aa60729a08b699a9334700da73 = private unnamed_addr constant <{ [7 x i8] }> <{ [7 x i8] c"Bracket" }>, align 1
@alloc_205c8fef0d2f3a459caa7a8e356d3db8 = private unnamed_addr constant <{ [5 x i8] }> <{ [5 x i8] c"Alone" }>, align 1
@alloc_9fa21bdf536aa6f2b9b2b030ef619bb2 = private unnamed_addr constant <{ [5 x i8] }> <{ [5 x i8] c"Joint" }>, align 1

; <alloc::vec::into_iter::IntoIter<T,A> as core::iter::traits::iterator::Iterator>::next
; Function Attrs: inlinehint nonlazybind uwtable
define void @"_ZN103_$LT$alloc..vec..into_iter..IntoIter$LT$T$C$A$GT$$u20$as$u20$core..iter..traits..iterator..Iterator$GT$4next17h49af5079b345aadcE"(ptr sret([32 x i8]) align 8 %_0, ptr align 8 %self) unnamed_addr #0 {
start:
  %_19 = alloca [32 x i8], align 8
  %self1 = alloca [8 x i8], align 8
  %ptr = alloca [8 x i8], align 8
  br label %bb4

bb4:                                              ; preds = %start
  %self2 = getelementptr inbounds i8, ptr %self, i64 8
  %_16 = getelementptr inbounds i8, ptr %self, i64 24
  %0 = load ptr, ptr %_16, align 8
  store ptr %0, ptr %self1, align 8
  %1 = getelementptr inbounds i8, ptr %self, i64 8
  %self3 = load ptr, ptr %1, align 8
  %_29 = load ptr, ptr %self1, align 8
  %_11 = icmp eq ptr %self3, %_29
  br i1 %_11, label %bb5, label %bb6

bb6:                                              ; preds = %bb4
  %2 = getelementptr inbounds i8, ptr %self, i64 8
  %old = load ptr, ptr %2, align 8
  %_30 = getelementptr inbounds %TokenTree, ptr %old, i64 1
  %3 = getelementptr inbounds i8, ptr %self, i64 8
  store ptr %_30, ptr %3, align 8
  store ptr %old, ptr %ptr, align 8
  br label %bb7

bb5:                                              ; preds = %bb4
  store i64 -9223372036854775803, ptr %_0, align 8
  br label %bb8

bb7:                                              ; preds = %bb6
  %self4 = load ptr, ptr %ptr, align 8
  call void @llvm.memcpy.p0.p0.i64(ptr align 8 %_19, ptr align 8 %self4, i64 32, i1 false)
  call void @llvm.memcpy.p0.p0.i64(ptr align 8 %_0, ptr align 8 %_19, i64 32, i1 false)
  br label %bb9

bb8:                                              ; preds = %bb5
  br label %bb9

bb1:                                              ; No predecessors!
  unreachable

bb3:                                              ; No predecessors!
  unreachable

bb10:                                             ; No predecessors!
  unreachable

bb9:                                              ; preds = %bb8, %bb7
  ret void

bb2:                                              ; No predecessors!
  unreachable
}

; <alloc::vec::into_iter::IntoIter<T,A> as core::iter::traits::iterator::Iterator>::size_hint
; Function Attrs: inlinehint nonlazybind uwtable
define void @"_ZN103_$LT$alloc..vec..into_iter..IntoIter$LT$T$C$A$GT$$u20$as$u20$core..iter..traits..iterator..Iterator$GT$9size_hint17h7f954a3c5d955a4fE"(ptr sret([24 x i8]) align 8 %_0, ptr align 8 %self) unnamed_addr #0 {
start:
  %_14 = alloca [16 x i8], align 8
  %exact = alloca [8 x i8], align 8
  br label %bb2

bb2:                                              ; preds = %start
  %_11 = getelementptr inbounds i8, ptr %self, i64 24
  %self1 = load ptr, ptr %_11, align 8
  %0 = getelementptr inbounds i8, ptr %self, i64 8
  %subtracted = load ptr, ptr %0, align 8
; call core::ptr::const_ptr::<impl *const T>::sub_ptr
  %1 = call i64 @"_ZN4core3ptr9const_ptr33_$LT$impl$u20$$BP$const$u20$T$GT$7sub_ptr17h7441ad264012b8a8E"(ptr %self1, ptr %subtracted)
  store i64 %1, ptr %exact, align 8
  br label %bb3

bb3:                                              ; preds = %bb2
  %_13 = load i64, ptr %exact, align 8
  %_15 = load i64, ptr %exact, align 8
  %2 = getelementptr inbounds i8, ptr %_14, i64 8
  store i64 %_15, ptr %2, align 8
  store i64 1, ptr %_14, align 8
  store i64 %_13, ptr %_0, align 8
  %3 = load i64, ptr %_14, align 8
  %4 = getelementptr inbounds i8, ptr %_14, i64 8
  %5 = load i64, ptr %4, align 8
  %6 = getelementptr inbounds i8, ptr %_0, i64 8
  store i64 %3, ptr %6, align 8
  %7 = getelementptr inbounds i8, ptr %6, i64 8
  store i64 %5, ptr %7, align 8
  ret void

bb1:                                              ; No predecessors!
  unreachable
}

; <alloc::vec::into_iter::IntoIter<T,A> as core::iter::traits::iterator::Iterator>::size_hint
; Function Attrs: inlinehint nonlazybind uwtable
define void @"_ZN103_$LT$alloc..vec..into_iter..IntoIter$LT$T$C$A$GT$$u20$as$u20$core..iter..traits..iterator..Iterator$GT$9size_hint17he0c251bcfdd6903fE"(ptr sret([24 x i8]) align 8 %_0, ptr align 8 %self) unnamed_addr #0 {
start:
  %_14 = alloca [16 x i8], align 8
  %exact = alloca [8 x i8], align 8
  br label %bb2

bb2:                                              ; preds = %start
  %_11 = getelementptr inbounds i8, ptr %self, i64 24
  %self1 = load ptr, ptr %_11, align 8
  %0 = getelementptr inbounds i8, ptr %self, i64 8
  %subtracted = load ptr, ptr %0, align 8
; call core::ptr::const_ptr::<impl *const T>::sub_ptr
  %1 = call i64 @"_ZN4core3ptr9const_ptr33_$LT$impl$u20$$BP$const$u20$T$GT$7sub_ptr17h6cbd0d643e4b3110E"(ptr %self1, ptr %subtracted)
  store i64 %1, ptr %exact, align 8
  br label %bb3

bb3:                                              ; preds = %bb2
  %_13 = load i64, ptr %exact, align 8
  %_15 = load i64, ptr %exact, align 8
  %2 = getelementptr inbounds i8, ptr %_14, i64 8
  store i64 %_15, ptr %2, align 8
  store i64 1, ptr %_14, align 8
  store i64 %_13, ptr %_0, align 8
  %3 = load i64, ptr %_14, align 8
  %4 = getelementptr inbounds i8, ptr %_14, i64 8
  %5 = load i64, ptr %4, align 8
  %6 = getelementptr inbounds i8, ptr %_0, i64 8
  store i64 %3, ptr %6, align 8
  %7 = getelementptr inbounds i8, ptr %6, i64 8
  store i64 %5, ptr %7, align 8
  ret void

bb1:                                              ; No predecessors!
  unreachable
}

; <proc_macro::bridge::TokenTree<TokenStream,Span,Symbol> as core::clone::Clone>::clone
; Function Attrs: inlinehint nonlazybind uwtable
define void @"_ZN103_$LT$proc_macro..bridge..TokenTree$LT$TokenStream$C$Span$C$Symbol$GT$$u20$as$u20$core..clone..Clone$GT$5clone17h884af4b86fb15d3aE"(ptr sret([20 x i8]) align 4 %_0, ptr align 4 %self) unnamed_addr #0 {
start:
  %_13 = alloca [16 x i8], align 4
  %_10 = alloca [12 x i8], align 4
  %_7 = alloca [8 x i8], align 4
  %_4 = alloca [20 x i8], align 4
  %0 = getelementptr inbounds i8, ptr %self, i64 16
  %1 = load i8, ptr %0, align 4
  %2 = sub i8 %1, 4
  %3 = zext i8 %2 to i64
  %4 = icmp ule i8 %2, 2
  %5 = add i64 %3, 1
  %_2 = select i1 %4, i64 %5, i64 0
  switch i64 %_2, label %bb1 [
    i64 0, label %bb3
    i64 1, label %bb5
    i64 2, label %bb6
    i64 3, label %bb2
  ]

bb1:                                              ; preds = %start
  unreachable

bb3:                                              ; preds = %start
; call <proc_macro::bridge::Group<TokenStream,Span> as core::clone::Clone>::clone
  call void @"_ZN90_$LT$proc_macro..bridge..Group$LT$TokenStream$C$Span$GT$$u20$as$u20$core..clone..Clone$GT$5clone17h5e51b36949f2dffaE"(ptr sret([20 x i8]) align 4 %_4, ptr align 4 %self)
  call void @llvm.memcpy.p0.p0.i64(ptr align 4 %_0, ptr align 4 %_4, i64 20, i1 false)
  br label %bb9

bb5:                                              ; preds = %start
  %self1 = getelementptr inbounds i8, ptr %self, i64 4
  %6 = getelementptr inbounds i8, ptr %self, i64 4
  %_15 = load i8, ptr %6, align 4
  %self2 = getelementptr inbounds i8, ptr %self, i64 5
  %7 = getelementptr inbounds i8, ptr %self, i64 5
  %8 = load i8, ptr %7, align 1
  %_17 = trunc i8 %8 to i1
; call <proc_macro::bridge::client::Span as core::clone::Clone>::clone
  %_19 = call i32 @"_ZN71_$LT$proc_macro..bridge..client..Span$u20$as$u20$core..clone..Clone$GT$5clone17hd04af057693e265fE"(ptr align 4 %self)
  %9 = getelementptr inbounds i8, ptr %_7, i64 4
  store i8 %_15, ptr %9, align 4
  %10 = getelementptr inbounds i8, ptr %_7, i64 5
  %11 = zext i1 %_17 to i8
  store i8 %11, ptr %10, align 1
  store i32 %_19, ptr %_7, align 4
  call void @llvm.memcpy.p0.p0.i64(ptr align 4 %_0, ptr align 4 %_7, i64 8, i1 false)
  %12 = getelementptr inbounds i8, ptr %_0, i64 16
  store i8 4, ptr %12, align 4
  br label %bb9

bb6:                                              ; preds = %start
; call <proc_macro::bridge::Ident<Span,Symbol> as core::clone::Clone>::clone
  call void @"_ZN85_$LT$proc_macro..bridge..Ident$LT$Span$C$Symbol$GT$$u20$as$u20$core..clone..Clone$GT$5clone17h22fe6daddc499655E"(ptr sret([12 x i8]) align 4 %_10, ptr align 4 %self)
  call void @llvm.memcpy.p0.p0.i64(ptr align 4 %_0, ptr align 4 %_10, i64 12, i1 false)
  %13 = getelementptr inbounds i8, ptr %_0, i64 16
  store i8 5, ptr %13, align 4
  br label %bb9

bb2:                                              ; preds = %start
; call <proc_macro::bridge::Literal<Span,Symbol> as core::clone::Clone>::clone
  call void @"_ZN87_$LT$proc_macro..bridge..Literal$LT$Span$C$Symbol$GT$$u20$as$u20$core..clone..Clone$GT$5clone17h215841835d79a344E"(ptr sret([16 x i8]) align 4 %_13, ptr align 4 %self)
  call void @llvm.memcpy.p0.p0.i64(ptr align 4 %_0, ptr align 4 %_13, i64 16, i1 false)
  %14 = getelementptr inbounds i8, ptr %_0, i64 16
  store i8 6, ptr %14, align 4
  br label %bb9

bb9:                                              ; preds = %bb2, %bb6, %bb5, %bb3
  ret void
}

; <core::iter::adapters::copied::Copied<I> as core::iter::traits::iterator::Iterator>::next
; Function Attrs: nonlazybind uwtable
define { i1, i8 } @"_ZN104_$LT$core..iter..adapters..copied..Copied$LT$I$GT$$u20$as$u20$core..iter..traits..iterator..Iterator$GT$4next17h99a198ac9de50c60E"(ptr align 8 %self) unnamed_addr #1 {
start:
  %self1 = alloca [8 x i8], align 8
  %_0 = alloca [2 x i8], align 1
; call <core::slice::iter::Iter<T> as core::iter::traits::iterator::Iterator>::next
  %0 = call align 1 ptr @"_ZN91_$LT$core..slice..iter..Iter$LT$T$GT$$u20$as$u20$core..iter..traits..iterator..Iterator$GT$4next17ha76358487c324f0eE"(ptr align 8 %self)
  store ptr %0, ptr %self1, align 8
  %1 = load ptr, ptr %self1, align 8
  %2 = ptrtoint ptr %1 to i64
  %3 = icmp eq i64 %2, 0
  %_4 = select i1 %3, i64 0, i64 1
  %4 = icmp eq i64 %_4, 0
  br i1 %4, label %bb4, label %bb5

bb4:                                              ; preds = %start
  store i8 0, ptr %_0, align 1
  br label %bb2

bb5:                                              ; preds = %start
  %_6 = load ptr, ptr %self1, align 8
  %v = load i8, ptr %_6, align 1
  %5 = getelementptr inbounds i8, ptr %_0, i64 1
  store i8 %v, ptr %5, align 1
  store i8 1, ptr %_0, align 1
  br label %bb2

bb2:                                              ; preds = %bb5, %bb4
  %6 = load i8, ptr %_0, align 1
  %7 = trunc i8 %6 to i1
  %8 = getelementptr inbounds i8, ptr %_0, i64 1
  %9 = load i8, ptr %8, align 1
  %10 = insertvalue { i1, i8 } poison, i1 %7, 0
  %11 = insertvalue { i1, i8 } %10, i8 %9, 1
  ret { i1, i8 } %11

bb3:                                              ; No predecessors!
  unreachable
}

; <core::ops::control_flow::ControlFlow<B,C> as core::ops::try_trait::FromResidual>::from_residual
; Function Attrs: inlinehint nonlazybind uwtable
define zeroext i1 @"_ZN104_$LT$core..ops..control_flow..ControlFlow$LT$B$C$C$GT$$u20$as$u20$core..ops..try_trait..FromResidual$GT$13from_residual17h4045db70bcbd116aE"() unnamed_addr #0 {
start:
  %_0 = alloca [1 x i8], align 1
  store i8 1, ptr %_0, align 1
  %0 = load i8, ptr %_0, align 1
  %1 = trunc i8 %0 to i1
  ret i1 %1
}

; <core::ops::control_flow::ControlFlow<B,C> as core::ops::try_trait::FromResidual>::from_residual
; Function Attrs: inlinehint nonlazybind uwtable
define { i64, i64 } @"_ZN104_$LT$core..ops..control_flow..ControlFlow$LT$B$C$C$GT$$u20$as$u20$core..ops..try_trait..FromResidual$GT$13from_residual17hf52694d4d75ef921E"(i64 %0) unnamed_addr #0 {
start:
  %_0 = alloca [16 x i8], align 8
  %residual = alloca [8 x i8], align 8
  store i64 %0, ptr %residual, align 8
  %b = load i64, ptr %residual, align 8
  %1 = getelementptr inbounds i8, ptr %_0, i64 8
  store i64 %b, ptr %1, align 8
  store i64 1, ptr %_0, align 8
  %2 = load i64, ptr %_0, align 8
  %3 = getelementptr inbounds i8, ptr %_0, i64 8
  %4 = load i64, ptr %3, align 8
  %5 = insertvalue { i64, i64 } poison, i64 %2, 0
  %6 = insertvalue { i64, i64 } %5, i64 %4, 1
  ret { i64, i64 } %6
}

; <core::ops::range::Range<usize> as core::slice::index::SliceIndex<[T]>>::get_unchecked
; Function Attrs: inlinehint nonlazybind uwtable
define { ptr, i64 } @"_ZN106_$LT$core..ops..range..Range$LT$usize$GT$$u20$as$u20$core..slice..index..SliceIndex$LT$$u5b$T$u5d$$GT$$GT$13get_unchecked17hb8a45788462871a0E"(i64 %self.0, i64 %self.1, ptr %slice.0, i64 %slice.1) unnamed_addr #0 {
start:
  %rhs = alloca [8 x i8], align 8
  %self = alloca [8 x i8], align 8
  br label %bb3

bb3:                                              ; preds = %start
  store i64 %self.1, ptr %self, align 8
  store i64 %self.0, ptr %rhs, align 8
  br label %bb5

bb5:                                              ; preds = %bb4, %bb3
  %0 = load i64, ptr %self, align 8
  %1 = load i64, ptr %rhs, align 8
  %new_len = sub nuw i64 %0, %1
  %count = load i64, ptr %rhs, align 8
  %2 = load i64, ptr %rhs, align 8
  %data = getelementptr inbounds i8, ptr %slice.0, i64 %2
  %3 = insertvalue { ptr, i64 } poison, ptr %data, 0
  %4 = insertvalue { ptr, i64 } %3, i64 %new_len, 1
  ret { ptr, i64 } %4

bb1:                                              ; No predecessors!
  unreachable

bb2:                                              ; No predecessors!
  unreachable

bb4:                                              ; No predecessors!
  %5 = load i64, ptr %self, align 8
  %6 = load i64, ptr %rhs, align 8
; call core::num::<impl usize>::unchecked_sub::precondition_check
  call void @"_ZN4core3num23_$LT$impl$u20$usize$GT$13unchecked_sub18precondition_check17h412d3c0b38faa77eE"(i64 %5, i64 %6) #23
  br label %bb5
}

; <core::ops::range::Range<usize> as core::slice::index::SliceIndex<[T]>>::get_unchecked_mut
; Function Attrs: inlinehint nonlazybind uwtable
define { ptr, i64 } @"_ZN106_$LT$core..ops..range..Range$LT$usize$GT$$u20$as$u20$core..slice..index..SliceIndex$LT$$u5b$T$u5d$$GT$$GT$17get_unchecked_mut17h37f8c6bc13316486E"(i64 %self.0, i64 %self.1, ptr %slice.0, i64 %slice.1) unnamed_addr #0 {
start:
  %rhs = alloca [8 x i8], align 8
  %self = alloca [8 x i8], align 8
  br label %bb3

bb3:                                              ; preds = %start
  store i64 %self.1, ptr %self, align 8
  store i64 %self.0, ptr %rhs, align 8
  br label %bb5

bb5:                                              ; preds = %bb4, %bb3
  %0 = load i64, ptr %self, align 8
  %1 = load i64, ptr %rhs, align 8
  %new_len = sub nuw i64 %0, %1
  %count = load i64, ptr %rhs, align 8
  %2 = load i64, ptr %rhs, align 8
  %data = getelementptr inbounds i8, ptr %slice.0, i64 %2
  %3 = insertvalue { ptr, i64 } poison, ptr %data, 0
  %4 = insertvalue { ptr, i64 } %3, i64 %new_len, 1
  ret { ptr, i64 } %4

bb1:                                              ; No predecessors!
  unreachable

bb2:                                              ; No predecessors!
  unreachable

bb4:                                              ; No predecessors!
  %5 = load i64, ptr %self, align 8
  %6 = load i64, ptr %rhs, align 8
; call core::num::<impl usize>::unchecked_sub::precondition_check
  call void @"_ZN4core3num23_$LT$impl$u20$usize$GT$13unchecked_sub18precondition_check17h412d3c0b38faa77eE"(i64 %5, i64 %6) #23
  br label %bb5
}

; <core::ops::range::Range<usize> as core::slice::index::SliceIndex<[T]>>::get
; Function Attrs: inlinehint nonlazybind uwtable
define { ptr, i64 } @"_ZN106_$LT$core..ops..range..Range$LT$usize$GT$$u20$as$u20$core..slice..index..SliceIndex$LT$$u5b$T$u5d$$GT$$GT$3get17h8282366d9378ce03E"(i64 %self.0, i64 %self.1, ptr align 1 %slice.0, i64 %slice.1) unnamed_addr #0 {
start:
  %_0 = alloca [16 x i8], align 8
  %_3 = icmp ugt i64 %self.0, %self.1
  br i1 %_3, label %bb1, label %bb2

bb2:                                              ; preds = %start
  %_6 = icmp ugt i64 %self.1, %slice.1
  br i1 %_6, label %bb3, label %bb5

bb1:                                              ; preds = %start
  br label %bb4

bb5:                                              ; preds = %bb2
; call <core::ops::range::Range<usize> as core::slice::index::SliceIndex<[T]>>::get_unchecked
  %0 = call { ptr, i64 } @"_ZN106_$LT$core..ops..range..Range$LT$usize$GT$$u20$as$u20$core..slice..index..SliceIndex$LT$$u5b$T$u5d$$GT$$GT$13get_unchecked17hb8a45788462871a0E"(i64 %self.0, i64 %self.1, ptr %slice.0, i64 %slice.1)
  %_9.0 = extractvalue { ptr, i64 } %0, 0
  %_9.1 = extractvalue { ptr, i64 } %0, 1
  store ptr %_9.0, ptr %_0, align 8
  %1 = getelementptr inbounds i8, ptr %_0, i64 8
  store i64 %_9.1, ptr %1, align 8
  br label %bb7

bb3:                                              ; preds = %bb2
  br label %bb4

bb7:                                              ; preds = %bb4, %bb5
  %2 = load ptr, ptr %_0, align 8
  %3 = getelementptr inbounds i8, ptr %_0, i64 8
  %4 = load i64, ptr %3, align 8
  %5 = insertvalue { ptr, i64 } poison, ptr %2, 0
  %6 = insertvalue { ptr, i64 } %5, i64 %4, 1
  ret { ptr, i64 } %6

bb4:                                              ; preds = %bb1, %bb3
  %7 = load ptr, ptr @0, align 8
  %8 = load i64, ptr getelementptr inbounds (i8, ptr @0, i64 8), align 8
  store ptr %7, ptr %_0, align 8
  %9 = getelementptr inbounds i8, ptr %_0, i64 8
  store i64 %8, ptr %9, align 8
  br label %bb7
}

; <core::ops::range::Range<usize> as core::slice::index::SliceIndex<[T]>>::index_mut
; Function Attrs: inlinehint nonlazybind uwtable
define { ptr, i64 } @"_ZN106_$LT$core..ops..range..Range$LT$usize$GT$$u20$as$u20$core..slice..index..SliceIndex$LT$$u5b$T$u5d$$GT$$GT$9index_mut17h4e4cc40f540038acE"(i64 %self.0, i64 %self.1, ptr align 1 %slice.0, i64 %slice.1, ptr align 8 %0) unnamed_addr #0 {
start:
  %_3 = icmp ugt i64 %self.0, %self.1
  br i1 %_3, label %bb1, label %bb2

bb2:                                              ; preds = %start
  %_7 = icmp ugt i64 %self.1, %slice.1
  br i1 %_7, label %bb3, label %bb4

bb1:                                              ; preds = %start
; call core::slice::index::slice_index_order_fail
  call void @_ZN4core5slice5index22slice_index_order_fail17h035de9af16d5a022E(i64 %self.0, i64 %self.1, ptr align 8 %0) #24
  unreachable

bb4:                                              ; preds = %bb2
; call <core::ops::range::Range<usize> as core::slice::index::SliceIndex<[T]>>::get_unchecked_mut
  %1 = call { ptr, i64 } @"_ZN106_$LT$core..ops..range..Range$LT$usize$GT$$u20$as$u20$core..slice..index..SliceIndex$LT$$u5b$T$u5d$$GT$$GT$17get_unchecked_mut17h37f8c6bc13316486E"(i64 %self.0, i64 %self.1, ptr %slice.0, i64 %slice.1)
  %_11.0 = extractvalue { ptr, i64 } %1, 0
  %_11.1 = extractvalue { ptr, i64 } %1, 1
  %2 = insertvalue { ptr, i64 } poison, ptr %_11.0, 0
  %3 = insertvalue { ptr, i64 } %2, i64 %_11.1, 1
  ret { ptr, i64 } %3

bb3:                                              ; preds = %bb2
; call core::slice::index::slice_end_index_len_fail
  call void @_ZN4core5slice5index24slice_end_index_len_fail17h0342d27fee357d65E(i64 %self.1, i64 %slice.1, ptr align 8 %0) #24
  unreachable
}

; <core::iter::adapters::peekable::Peekable<I> as core::iter::traits::iterator::Iterator>::next
; Function Attrs: inlinehint nonlazybind uwtable
define i32 @"_ZN108_$LT$core..iter..adapters..peekable..Peekable$LT$I$GT$$u20$as$u20$core..iter..traits..iterator..Iterator$GT$4next17h8ffd0830f296cdf1E"(ptr align 8 %self) unnamed_addr #0 {
start:
  %src = alloca [4 x i8], align 4
  %result = alloca [4 x i8], align 4
  %_0 = alloca [4 x i8], align 4
  %self1 = getelementptr inbounds i8, ptr %self, i64 16
  store i32 1114113, ptr %src, align 4
  %0 = getelementptr inbounds i8, ptr %self, i64 16
  %1 = load i32, ptr %0, align 8
  store i32 %1, ptr %result, align 4
  %2 = getelementptr inbounds i8, ptr %self, i64 16
  %3 = load i32, ptr %src, align 4
  store i32 %3, ptr %2, align 8
  %4 = load i32, ptr %result, align 4
  %5 = icmp eq i32 %4, 1114113
  %_4 = select i1 %5, i64 0, i64 1
  %6 = icmp eq i64 %_4, 0
  br i1 %6, label %bb2, label %bb3

bb2:                                              ; preds = %start
; call <core::str::iter::Chars as core::iter::traits::iterator::Iterator>::next
  %7 = call i32 @"_ZN81_$LT$core..str..iter..Chars$u20$as$u20$core..iter..traits..iterator..Iterator$GT$4next17h511284e191baf694E"(ptr align 8 %self)
  store i32 %7, ptr %_0, align 4
  br label %bb5

bb3:                                              ; preds = %start
  %v = load i32, ptr %result, align 4
  store i32 %v, ptr %_0, align 4
  br label %bb5

bb5:                                              ; preds = %bb3, %bb2
  %8 = load i32, ptr %_0, align 4
  ret i32 %8

bb1:                                              ; No predecessors!
  unreachable
}

; <proc_macro::TokenStream as core::iter::traits::collect::Extend<proc_macro::TokenTree>>::extend
; Function Attrs: nonlazybind uwtable
define void @"_ZN108_$LT$proc_macro..TokenStream$u20$as$u20$core..iter..traits..collect..Extend$LT$proc_macro..TokenTree$GT$$GT$6extend17h0402403529be7ac7E"(ptr align 4 %self, ptr align 8 %trees) unnamed_addr #1 personality ptr @rust_eh_personality {
start:
  %0 = alloca [16 x i8], align 8
  %_15 = alloca [1 x i8], align 1
  %_14 = alloca [1 x i8], align 1
  %_13 = alloca [24 x i8], align 8
  %_9 = alloca [40 x i8], align 8
  %_6 = alloca [24 x i8], align 8
  %builder = alloca [24 x i8], align 8
  %iter = alloca [40 x i8], align 8
; call <I as core::iter::traits::collect::IntoIterator>::into_iter
  call void @"_ZN63_$LT$I$u20$as$u20$core..iter..traits..collect..IntoIterator$GT$9into_iter17h4c823eebfc404252E"(ptr sret([40 x i8]) align 8 %iter, ptr align 8 %trees)
  store i8 1, ptr %_15, align 1
; invoke <alloc::vec::drain::Drain<T,A> as core::iter::traits::iterator::Iterator>::size_hint
  invoke void @"_ZN96_$LT$alloc..vec..drain..Drain$LT$T$C$A$GT$$u20$as$u20$core..iter..traits..iterator..Iterator$GT$9size_hint17h7fa34d6d892e69beE"(ptr sret([24 x i8]) align 8 %_6, ptr align 8 %iter)
          to label %bb2 unwind label %cleanup

bb10:                                             ; preds = %bb7, %bb8, %cleanup
  %1 = load i8, ptr %_15, align 1
  %2 = trunc i8 %1 to i1
  br i1 %2, label %bb9, label %bb6

cleanup:                                          ; preds = %bb2, %start
  %3 = landingpad { ptr, i32 }
          cleanup
  %4 = extractvalue { ptr, i32 } %3, 0
  %5 = extractvalue { ptr, i32 } %3, 1
  store ptr %4, ptr %0, align 8
  %6 = getelementptr inbounds i8, ptr %0, i64 8
  store i32 %5, ptr %6, align 8
  br label %bb10

bb2:                                              ; preds = %start
  %_5 = load i64, ptr %_6, align 8
; invoke proc_macro::ConcatTreesHelper::new
  invoke void @_ZN10proc_macro17ConcatTreesHelper3new17h21f20348c8009416E(ptr sret([24 x i8]) align 8 %builder, i64 %_5)
          to label %bb3 unwind label %cleanup

bb3:                                              ; preds = %bb2
  store i8 1, ptr %_14, align 1
  store i8 0, ptr %_15, align 1
  call void @llvm.memcpy.p0.p0.i64(ptr align 8 %_9, ptr align 8 %iter, i64 40, i1 false)
; invoke core::iter::traits::iterator::Iterator::for_each
  invoke void @_ZN4core4iter6traits8iterator8Iterator8for_each17h3dbfc9ae0a36008eE(ptr align 8 %_9, ptr align 8 %builder)
          to label %bb4 unwind label %cleanup1

bb8:                                              ; preds = %cleanup1
  %7 = load i8, ptr %_14, align 1
  %8 = trunc i8 %7 to i1
  br i1 %8, label %bb7, label %bb10

cleanup1:                                         ; preds = %bb4, %bb3
  %9 = landingpad { ptr, i32 }
          cleanup
  %10 = extractvalue { ptr, i32 } %9, 0
  %11 = extractvalue { ptr, i32 } %9, 1
  store ptr %10, ptr %0, align 8
  %12 = getelementptr inbounds i8, ptr %0, i64 8
  store i32 %11, ptr %12, align 8
  br label %bb8

bb4:                                              ; preds = %bb3
  store i8 0, ptr %_14, align 1
  call void @llvm.memcpy.p0.p0.i64(ptr align 8 %_13, ptr align 8 %builder, i64 24, i1 false)
; invoke proc_macro::ConcatTreesHelper::append_to
  invoke void @_ZN10proc_macro17ConcatTreesHelper9append_to17h1bd72d7ceffcb109E(ptr align 8 %_13, ptr align 4 %self)
          to label %bb5 unwind label %cleanup1

bb5:                                              ; preds = %bb4
  ret void

bb7:                                              ; preds = %bb8
; invoke core::ptr::drop_in_place<proc_macro::ConcatTreesHelper>
  invoke void @"_ZN4core3ptr50drop_in_place$LT$proc_macro..ConcatTreesHelper$GT$17h5f92eaa83f855cf7E"(ptr align 8 %builder) #25
          to label %bb10 unwind label %terminate

terminate:                                        ; preds = %bb9, %bb7
  %13 = landingpad { ptr, i32 }
          filter [0 x ptr] zeroinitializer
  %14 = extractvalue { ptr, i32 } %13, 0
  %15 = extractvalue { ptr, i32 } %13, 1
; call core::panicking::panic_in_cleanup
  call void @_ZN4core9panicking16panic_in_cleanup17h43442956f23e9cbeE() #26
  unreachable

bb6:                                              ; preds = %bb9, %bb10
  %16 = load ptr, ptr %0, align 8
  %17 = getelementptr inbounds i8, ptr %0, i64 8
  %18 = load i32, ptr %17, align 8
  %19 = insertvalue { ptr, i32 } poison, ptr %16, 0
  %20 = insertvalue { ptr, i32 } %19, i32 %18, 1
  resume { ptr, i32 } %20

bb9:                                              ; preds = %bb10
; invoke core::ptr::drop_in_place<alloc::vec::drain::Drain<proc_macro::TokenTree>>
  invoke void @"_ZN4core3ptr74drop_in_place$LT$alloc..vec..drain..Drain$LT$proc_macro..TokenTree$GT$$GT$17h4b40ff3c4d5adce0E"(ptr align 8 %iter) #25
          to label %bb6 unwind label %terminate
}

; <proc_macro::TokenStream as core::iter::traits::collect::Extend<proc_macro::TokenTree>>::extend::{{closure}}
; Function Attrs: inlinehint nonlazybind uwtable
define void @"_ZN108_$LT$proc_macro..TokenStream$u20$as$u20$core..iter..traits..collect..Extend$LT$proc_macro..TokenTree$GT$$GT$6extend28_$u7b$$u7b$closure$u7d$$u7d$17hae3d897fcfad1003E"(ptr align 8 %_1, ptr align 4 %tree) unnamed_addr #0 {
start:
  %_3 = load ptr, ptr %_1, align 8
; call proc_macro::ConcatTreesHelper::push
  call void @_ZN10proc_macro17ConcatTreesHelper4push17ha4430720abe5341aE(ptr align 8 %_3, ptr align 4 %tree)
  ret void
}

; proc_macro::TokenStream::new
; Function Attrs: nonlazybind uwtable
define internal i32 @_ZN10proc_macro11TokenStream3new17h4e2646f2438232eeE() unnamed_addr #1 {
start:
  ret i32 0
}

; proc_macro::Group::span_close
; Function Attrs: nonlazybind uwtable
define internal i32 @_ZN10proc_macro5Group10span_close17he77c7993e308b342E(ptr align 4 %self) unnamed_addr #1 {
start:
  %0 = getelementptr inbounds i8, ptr %self, i64 4
  %_2 = load i32, ptr %0, align 4
  ret i32 %_2
}

; proc_macro::Group::span
; Function Attrs: nonlazybind uwtable
define internal i32 @_ZN10proc_macro5Group4span17h488b53ca5a909206E(ptr align 4 %self) unnamed_addr #1 {
start:
  %0 = getelementptr inbounds i8, ptr %self, i64 8
  %_2 = load i32, ptr %0, align 4
  ret i32 %_2
}

; proc_macro::Group::set_span
; Function Attrs: nonlazybind uwtable
define internal void @_ZN10proc_macro5Group8set_span17h596ffbf1d77154c2E(ptr align 4 %self, i32 %span) unnamed_addr #1 {
start:
  %_3 = alloca [12 x i8], align 4
  store i32 %span, ptr %_3, align 4
  %0 = getelementptr inbounds i8, ptr %_3, i64 4
  store i32 %span, ptr %0, align 4
  %1 = getelementptr inbounds i8, ptr %_3, i64 8
  store i32 %span, ptr %1, align 4
  call void @llvm.memcpy.p0.p0.i64(ptr align 4 %self, ptr align 4 %_3, i64 12, i1 false)
  ret void
}

; proc_macro::Group::delimiter
; Function Attrs: nonlazybind uwtable
define internal i8 @_ZN10proc_macro5Group9delimiter17h97c85d9b7a922b7bE(ptr align 4 %self) unnamed_addr #1 {
start:
  %0 = getelementptr inbounds i8, ptr %self, i64 16
  %_0 = load i8, ptr %0, align 4
  ret i8 %_0
}

; proc_macro::Group::span_open
; Function Attrs: nonlazybind uwtable
define internal i32 @_ZN10proc_macro5Group9span_open17hd998f698eca2693aE(ptr align 4 %self) unnamed_addr #1 {
start:
  %_2 = load i32, ptr %self, align 4
  ret i32 %_2
}

; proc_macro::Ident::span
; Function Attrs: nonlazybind uwtable
define internal i32 @_ZN10proc_macro5Ident4span17ha73f440a4f0ae645E(ptr align 4 %self) unnamed_addr #1 {
start:
  %0 = getelementptr inbounds i8, ptr %self, i64 4
  %_2 = load i32, ptr %0, align 4
  ret i32 %_2
}

; proc_macro::Ident::set_span
; Function Attrs: nonlazybind uwtable
define internal void @_ZN10proc_macro5Ident8set_span17hf64a60445fd35bcfE(ptr align 4 %self, i32 %span) unnamed_addr #1 {
start:
  %0 = getelementptr inbounds i8, ptr %self, i64 4
  store i32 %span, ptr %0, align 4
  ret void
}

; proc_macro::Punct::span
; Function Attrs: nonlazybind uwtable
define internal i32 @_ZN10proc_macro5Punct4span17hb6521ee351e77018E(ptr align 4 %self) unnamed_addr #1 {
start:
  %_2 = load i32, ptr %self, align 4
  ret i32 %_2
}

; proc_macro::Punct::as_char
; Function Attrs: nonlazybind uwtable
define internal i32 @_ZN10proc_macro5Punct7as_char17hcbc153353054bf4bE(ptr align 4 %self) unnamed_addr #1 {
start:
  %0 = getelementptr inbounds i8, ptr %self, i64 4
  %_2 = load i8, ptr %0, align 4
  %_0 = zext i8 %_2 to i32
  ret i32 %_0
}

; proc_macro::Punct::spacing
; Function Attrs: nonlazybind uwtable
define internal zeroext i1 @_ZN10proc_macro5Punct7spacing17h15fa7f21e17dd2d5E(ptr align 4 %self) unnamed_addr #1 {
start:
  %_0 = alloca [1 x i8], align 1
  %0 = getelementptr inbounds i8, ptr %self, i64 5
  %1 = load i8, ptr %0, align 1
  %_2 = trunc i8 %1 to i1
  br i1 %_2, label %bb1, label %bb2

bb2:                                              ; preds = %start
  store i8 1, ptr %_0, align 1
  br label %bb3

bb1:                                              ; preds = %start
  store i8 0, ptr %_0, align 1
  br label %bb3

bb3:                                              ; preds = %bb1, %bb2
  %2 = load i8, ptr %_0, align 1
  %3 = trunc i8 %2 to i1
  ret i1 %3
}

; proc_macro::Punct::set_span
; Function Attrs: nonlazybind uwtable
define internal void @_ZN10proc_macro5Punct8set_span17hadcfb8ca45617141E(ptr align 4 %self, i32 %span) unnamed_addr #1 {
start:
  store i32 %span, ptr %self, align 4
  ret void
}

; proc_macro::Literal::span
; Function Attrs: nonlazybind uwtable
define internal i32 @_ZN10proc_macro7Literal4span17hbc6c3e3b3fe5cba3E(ptr align 4 %self) unnamed_addr #1 {
start:
  %0 = getelementptr inbounds i8, ptr %self, i64 4
  %_2 = load i32, ptr %0, align 4
  ret i32 %_2
}

; proc_macro::Literal::set_span
; Function Attrs: nonlazybind uwtable
define internal void @_ZN10proc_macro7Literal8set_span17he2b522ddd4efc2d2E(ptr align 4 %self, i32 %span) unnamed_addr #1 {
start:
  %0 = getelementptr inbounds i8, ptr %self, i64 4
  store i32 %span, ptr %0, align 4
  ret void
}

; <core::iter::adapters::enumerate::Enumerate<I> as core::iter::traits::iterator::Iterator>::next
; Function Attrs: inlinehint nonlazybind uwtable
define void @"_ZN110_$LT$core..iter..adapters..enumerate..Enumerate$LT$I$GT$$u20$as$u20$core..iter..traits..iterator..Iterator$GT$4next17h3cc4f60dcb6cb46aE"(ptr sret([24 x i8]) align 8 %_0, ptr align 8 %self) unnamed_addr #0 personality ptr @rust_eh_personality {
start:
  %0 = alloca [16 x i8], align 8
  %self1 = alloca [2 x i8], align 1
  %_3 = alloca [2 x i8], align 1
; call <core::str::iter::Bytes as core::iter::traits::iterator::Iterator>::next
  %1 = call { i1, i8 } @"_ZN81_$LT$core..str..iter..Bytes$u20$as$u20$core..iter..traits..iterator..Iterator$GT$4next17h960866a992cd8c3eE"(ptr align 8 %self)
  %2 = extractvalue { i1, i8 } %1, 0
  %3 = extractvalue { i1, i8 } %1, 1
  %4 = zext i1 %2 to i8
  store i8 %4, ptr %self1, align 1
  %5 = getelementptr inbounds i8, ptr %self1, i64 1
  store i8 %3, ptr %5, align 1
  %6 = load i8, ptr %self1, align 1
  %7 = trunc i8 %6 to i1
  %_11 = zext i1 %7 to i64
  %8 = icmp eq i64 %_11, 0
  br i1 %8, label %bb7, label %bb8

bb7:                                              ; preds = %start
  store i64 0, ptr %_0, align 8
  br label %bb4

bb8:                                              ; preds = %start
  %9 = getelementptr inbounds i8, ptr %self1, i64 1
  %v = load i8, ptr %9, align 1
  %10 = getelementptr inbounds i8, ptr %_3, i64 1
  store i8 %v, ptr %10, align 1
  store i8 0, ptr %_3, align 1
  %11 = getelementptr inbounds i8, ptr %_3, i64 1
  %val = load i8, ptr %11, align 1
  %12 = getelementptr inbounds i8, ptr %self, i64 16
  %i = load i64, ptr %12, align 8
  %13 = getelementptr inbounds i8, ptr %self, i64 16
  %14 = load i64, ptr %13, align 8
  %15 = call { i64, i1 } @llvm.uadd.with.overflow.i64(i64 %14, i64 1)
  %_8.0 = extractvalue { i64, i1 } %15, 0
  %_8.1 = extractvalue { i64, i1 } %15, 1
  br label %bb3

bb4:                                              ; preds = %bb3, %bb7
  ret void

bb3:                                              ; preds = %bb8
  %16 = getelementptr inbounds i8, ptr %self, i64 16
  store i64 %_8.0, ptr %16, align 8
  %17 = getelementptr inbounds i8, ptr %_0, i64 8
  store i64 %i, ptr %17, align 8
  %18 = getelementptr inbounds i8, ptr %17, i64 8
  store i8 %val, ptr %18, align 8
  store i64 1, ptr %_0, align 8
  br label %bb4

bb5:                                              ; No predecessors!
  %19 = load ptr, ptr %0, align 8
  %20 = getelementptr inbounds i8, ptr %0, i64 8
  %21 = load i32, ptr %20, align 8
  %22 = insertvalue { ptr, i32 } poison, ptr %19, 0
  %23 = insertvalue { ptr, i32 } %22, i32 %21, 1
  resume { ptr, i32 } %23

bb2:                                              ; No predecessors!
  unreachable
}

; <core::iter::adapters::enumerate::Enumerate<I> as core::iter::traits::iterator::Iterator>::next
; Function Attrs: inlinehint nonlazybind uwtable
define { i64, ptr } @"_ZN110_$LT$core..iter..adapters..enumerate..Enumerate$LT$I$GT$$u20$as$u20$core..iter..traits..iterator..Iterator$GT$4next17h6e98d17d39b40a7cE"(ptr align 8 %self) unnamed_addr #0 personality ptr @rust_eh_personality {
start:
  %0 = alloca [16 x i8], align 8
  %self1 = alloca [8 x i8], align 8
  %_3 = alloca [8 x i8], align 8
  %_0 = alloca [16 x i8], align 8
; call <core::slice::iter::Iter<T> as core::iter::traits::iterator::Iterator>::next
  %1 = call align 4 ptr @"_ZN91_$LT$core..slice..iter..Iter$LT$T$GT$$u20$as$u20$core..iter..traits..iterator..Iterator$GT$4next17h5a9f91183977e1ccE"(ptr align 8 %self)
  store ptr %1, ptr %self1, align 8
  %2 = load ptr, ptr %self1, align 8
  %3 = ptrtoint ptr %2 to i64
  %4 = icmp eq i64 %3, 0
  %_11 = select i1 %4, i64 0, i64 1
  %5 = icmp eq i64 %_11, 0
  br i1 %5, label %bb7, label %bb8

bb7:                                              ; preds = %start
  %6 = getelementptr inbounds i8, ptr %_0, i64 8
  store ptr null, ptr %6, align 8
  br label %bb4

bb8:                                              ; preds = %start
  %v = load ptr, ptr %self1, align 8
  store ptr %v, ptr %_3, align 8
  %val = load ptr, ptr %_3, align 8
  %7 = getelementptr inbounds i8, ptr %self, i64 16
  %i = load i64, ptr %7, align 8
  %8 = getelementptr inbounds i8, ptr %self, i64 16
  %9 = load i64, ptr %8, align 8
  %10 = call { i64, i1 } @llvm.uadd.with.overflow.i64(i64 %9, i64 1)
  %_8.0 = extractvalue { i64, i1 } %10, 0
  %_8.1 = extractvalue { i64, i1 } %10, 1
  br label %bb3

bb4:                                              ; preds = %bb3, %bb7
  %11 = load i64, ptr %_0, align 8
  %12 = getelementptr inbounds i8, ptr %_0, i64 8
  %13 = load ptr, ptr %12, align 8
  %14 = insertvalue { i64, ptr } poison, i64 %11, 0
  %15 = insertvalue { i64, ptr } %14, ptr %13, 1
  ret { i64, ptr } %15

bb3:                                              ; preds = %bb8
  %16 = getelementptr inbounds i8, ptr %self, i64 16
  store i64 %_8.0, ptr %16, align 8
  store i64 %i, ptr %_0, align 8
  %17 = getelementptr inbounds i8, ptr %_0, i64 8
  store ptr %val, ptr %17, align 8
  br label %bb4

bb5:                                              ; No predecessors!
  %18 = load ptr, ptr %0, align 8
  %19 = getelementptr inbounds i8, ptr %0, i64 8
  %20 = load i32, ptr %19, align 8
  %21 = insertvalue { ptr, i32 } poison, ptr %18, 0
  %22 = insertvalue { ptr, i32 } %21, i32 %20, 1
  resume { ptr, i32 } %22

bb2:                                              ; No predecessors!
  unreachable
}

; <core::iter::adapters::enumerate::Enumerate<I> as core::iter::traits::iterator::Iterator>::next
; Function Attrs: inlinehint nonlazybind uwtable
define { i64, ptr } @"_ZN110_$LT$core..iter..adapters..enumerate..Enumerate$LT$I$GT$$u20$as$u20$core..iter..traits..iterator..Iterator$GT$4next17hea12623d918201ebE"(ptr align 8 %self) unnamed_addr #0 personality ptr @rust_eh_personality {
start:
  %0 = alloca [16 x i8], align 8
  %self1 = alloca [8 x i8], align 8
  %_3 = alloca [8 x i8], align 8
  %_0 = alloca [16 x i8], align 8
; call <core::slice::iter::Iter<T> as core::iter::traits::iterator::Iterator>::next
  %1 = call align 4 ptr @"_ZN91_$LT$core..slice..iter..Iter$LT$T$GT$$u20$as$u20$core..iter..traits..iterator..Iterator$GT$4next17h0db038088eee548dE"(ptr align 8 %self)
  store ptr %1, ptr %self1, align 8
  %2 = load ptr, ptr %self1, align 8
  %3 = ptrtoint ptr %2 to i64
  %4 = icmp eq i64 %3, 0
  %_11 = select i1 %4, i64 0, i64 1
  %5 = icmp eq i64 %_11, 0
  br i1 %5, label %bb7, label %bb8

bb7:                                              ; preds = %start
  %6 = getelementptr inbounds i8, ptr %_0, i64 8
  store ptr null, ptr %6, align 8
  br label %bb4

bb8:                                              ; preds = %start
  %v = load ptr, ptr %self1, align 8
  store ptr %v, ptr %_3, align 8
  %val = load ptr, ptr %_3, align 8
  %7 = getelementptr inbounds i8, ptr %self, i64 16
  %i = load i64, ptr %7, align 8
  %8 = getelementptr inbounds i8, ptr %self, i64 16
  %9 = load i64, ptr %8, align 8
  %10 = call { i64, i1 } @llvm.uadd.with.overflow.i64(i64 %9, i64 1)
  %_8.0 = extractvalue { i64, i1 } %10, 0
  %_8.1 = extractvalue { i64, i1 } %10, 1
  br label %bb3

bb4:                                              ; preds = %bb3, %bb7
  %11 = load i64, ptr %_0, align 8
  %12 = getelementptr inbounds i8, ptr %_0, i64 8
  %13 = load ptr, ptr %12, align 8
  %14 = insertvalue { i64, ptr } poison, i64 %11, 0
  %15 = insertvalue { i64, ptr } %14, ptr %13, 1
  ret { i64, ptr } %15

bb3:                                              ; preds = %bb8
  %16 = getelementptr inbounds i8, ptr %self, i64 16
  store i64 %_8.0, ptr %16, align 8
  store i64 %i, ptr %_0, align 8
  %17 = getelementptr inbounds i8, ptr %_0, i64 8
  store ptr %val, ptr %17, align 8
  br label %bb4

bb5:                                              ; No predecessors!
  %18 = load ptr, ptr %0, align 8
  %19 = getelementptr inbounds i8, ptr %0, i64 8
  %20 = load i32, ptr %19, align 8
  %21 = insertvalue { ptr, i32 } poison, ptr %18, 0
  %22 = insertvalue { ptr, i32 } %21, i32 %20, 1
  resume { ptr, i32 } %22

bb2:                                              ; No predecessors!
  unreachable
}

; <core::iter::adapters::enumerate::Enumerate<I> as core::iter::traits::iterator::Iterator>::next
; Function Attrs: inlinehint nonlazybind uwtable
define { i64, ptr } @"_ZN110_$LT$core..iter..adapters..enumerate..Enumerate$LT$I$GT$$u20$as$u20$core..iter..traits..iterator..Iterator$GT$4next17hfe6a258013085ac9E"(ptr align 8 %self) unnamed_addr #0 personality ptr @rust_eh_personality {
start:
  %0 = alloca [16 x i8], align 8
  %self1 = alloca [8 x i8], align 8
  %_3 = alloca [8 x i8], align 8
  %_0 = alloca [16 x i8], align 8
; call <core::slice::iter::Iter<T> as core::iter::traits::iterator::Iterator>::next
  %1 = call align 8 ptr @"_ZN91_$LT$core..slice..iter..Iter$LT$T$GT$$u20$as$u20$core..iter..traits..iterator..Iterator$GT$4next17hee40d2f377078eafE"(ptr align 8 %self)
  store ptr %1, ptr %self1, align 8
  %2 = load ptr, ptr %self1, align 8
  %3 = ptrtoint ptr %2 to i64
  %4 = icmp eq i64 %3, 0
  %_11 = select i1 %4, i64 0, i64 1
  %5 = icmp eq i64 %_11, 0
  br i1 %5, label %bb7, label %bb8

bb7:                                              ; preds = %start
  %6 = getelementptr inbounds i8, ptr %_0, i64 8
  store ptr null, ptr %6, align 8
  br label %bb4

bb8:                                              ; preds = %start
  %v = load ptr, ptr %self1, align 8
  store ptr %v, ptr %_3, align 8
  %val = load ptr, ptr %_3, align 8
  %7 = getelementptr inbounds i8, ptr %self, i64 16
  %i = load i64, ptr %7, align 8
  %8 = getelementptr inbounds i8, ptr %self, i64 16
  %9 = load i64, ptr %8, align 8
  %10 = call { i64, i1 } @llvm.uadd.with.overflow.i64(i64 %9, i64 1)
  %_8.0 = extractvalue { i64, i1 } %10, 0
  %_8.1 = extractvalue { i64, i1 } %10, 1
  br label %bb3

bb4:                                              ; preds = %bb3, %bb7
  %11 = load i64, ptr %_0, align 8
  %12 = getelementptr inbounds i8, ptr %_0, i64 8
  %13 = load ptr, ptr %12, align 8
  %14 = insertvalue { i64, ptr } poison, i64 %11, 0
  %15 = insertvalue { i64, ptr } %14, ptr %13, 1
  ret { i64, ptr } %15

bb3:                                              ; preds = %bb8
  %16 = getelementptr inbounds i8, ptr %self, i64 16
  store i64 %_8.0, ptr %16, align 8
  store i64 %i, ptr %_0, align 8
  %17 = getelementptr inbounds i8, ptr %_0, i64 8
  store ptr %val, ptr %17, align 8
  br label %bb4

bb5:                                              ; No predecessors!
  %18 = load ptr, ptr %0, align 8
  %19 = getelementptr inbounds i8, ptr %0, i64 8
  %20 = load i32, ptr %19, align 8
  %21 = insertvalue { ptr, i32 } poison, ptr %18, 0
  %22 = insertvalue { ptr, i32 } %21, i32 %20, 1
  resume { ptr, i32 } %22

bb2:                                              ; No predecessors!
  unreachable
}

; <core::iter::adapters::zip::Zip<A,B> as core::iter::adapters::zip::ZipImpl<A,B>>::new
; Function Attrs: nonlazybind uwtable
define void @"_ZN111_$LT$core..iter..adapters..zip..Zip$LT$A$C$B$GT$$u20$as$u20$core..iter..adapters..zip..ZipImpl$LT$A$C$B$GT$$GT$3new17hbdf288abe4237077E"(ptr sret([56 x i8]) align 8 %_0, ptr %0, ptr %1, ptr %2, ptr %3) unnamed_addr #1 personality ptr @rust_eh_personality {
start:
  %4 = alloca [16 x i8], align 8
  %b = alloca [16 x i8], align 8
  %a = alloca [16 x i8], align 8
  store ptr %0, ptr %a, align 8
  %5 = getelementptr inbounds i8, ptr %a, i64 8
  store ptr %1, ptr %5, align 8
  store ptr %2, ptr %b, align 8
  %6 = getelementptr inbounds i8, ptr %b, i64 8
  store ptr %3, ptr %6, align 8
; invoke core::iter::adapters::zip::TrustedRandomAccessNoCoerce::size
  %a_len = invoke i64 @_ZN4core4iter8adapters3zip27TrustedRandomAccessNoCoerce4size17hfde28eea202c10ffE(ptr align 8 %a)
          to label %bb1 unwind label %cleanup

bb3:                                              ; preds = %cleanup
  %7 = load ptr, ptr %4, align 8
  %8 = getelementptr inbounds i8, ptr %4, i64 8
  %9 = load i32, ptr %8, align 8
  %10 = insertvalue { ptr, i32 } poison, ptr %7, 0
  %11 = insertvalue { ptr, i32 } %10, i32 %9, 1
  resume { ptr, i32 } %11

cleanup:                                          ; preds = %bb2, %bb1, %start
  %12 = landingpad { ptr, i32 }
          cleanup
  %13 = extractvalue { ptr, i32 } %12, 0
  %14 = extractvalue { ptr, i32 } %12, 1
  store ptr %13, ptr %4, align 8
  %15 = getelementptr inbounds i8, ptr %4, i64 8
  store i32 %14, ptr %15, align 8
  br label %bb3

bb1:                                              ; preds = %start
; invoke core::iter::adapters::zip::TrustedRandomAccessNoCoerce::size
  %v2 = invoke i64 @_ZN4core4iter8adapters3zip27TrustedRandomAccessNoCoerce4size17hfde28eea202c10ffE(ptr align 8 %b)
          to label %bb2 unwind label %cleanup

bb2:                                              ; preds = %bb1
; invoke core::cmp::min_by
  %len = invoke i64 @_ZN4core3cmp6min_by17hdb33bb80198dea92E(i64 %a_len, i64 %v2)
          to label %bb6 unwind label %cleanup

bb6:                                              ; preds = %bb2
  %_8.0 = load ptr, ptr %a, align 8
  %16 = getelementptr inbounds i8, ptr %a, i64 8
  %_8.1 = load ptr, ptr %16, align 8
  %_9.0 = load ptr, ptr %b, align 8
  %17 = getelementptr inbounds i8, ptr %b, i64 8
  %_9.1 = load ptr, ptr %17, align 8
  store ptr %_8.0, ptr %_0, align 8
  %18 = getelementptr inbounds i8, ptr %_0, i64 8
  store ptr %_8.1, ptr %18, align 8
  %19 = getelementptr inbounds i8, ptr %_0, i64 16
  store ptr %_9.0, ptr %19, align 8
  %20 = getelementptr inbounds i8, ptr %19, i64 8
  store ptr %_9.1, ptr %20, align 8
  %21 = getelementptr inbounds i8, ptr %_0, i64 32
  store i64 0, ptr %21, align 8
  %22 = getelementptr inbounds i8, ptr %_0, i64 40
  store i64 %len, ptr %22, align 8
  %23 = getelementptr inbounds i8, ptr %_0, i64 48
  store i64 %a_len, ptr %23, align 8
  ret void
}

; <core::iter::adapters::zip::Zip<A,B> as core::iter::adapters::zip::ZipImpl<A,B>>::next
; Function Attrs: inlinehint nonlazybind uwtable
define { ptr, ptr } @"_ZN111_$LT$core..iter..adapters..zip..Zip$LT$A$C$B$GT$$u20$as$u20$core..iter..adapters..zip..ZipImpl$LT$A$C$B$GT$$GT$4next17ha38bc279538fd114E"(ptr align 8 %self) unnamed_addr #0 personality ptr @rust_eh_personality {
start:
  %0 = alloca [16 x i8], align 8
  %_0 = alloca [16 x i8], align 8
  %1 = getelementptr inbounds i8, ptr %self, i64 32
  %_3 = load i64, ptr %1, align 8
  %2 = getelementptr inbounds i8, ptr %self, i64 40
  %_4 = load i64, ptr %2, align 8
  %_2 = icmp ult i64 %_3, %_4
  br i1 %_2, label %bb1, label %bb4

bb4:                                              ; preds = %start
  br label %bb10

bb1:                                              ; preds = %start
  %3 = getelementptr inbounds i8, ptr %self, i64 32
  %i = load i64, ptr %3, align 8
  %4 = getelementptr inbounds i8, ptr %self, i64 32
  %5 = getelementptr inbounds i8, ptr %self, i64 32
  %6 = load i64, ptr %5, align 8
  %7 = add i64 %6, 1
  store i64 %7, ptr %4, align 8
; call <core::slice::iter::Iter<T> as core::iter::traits::iterator::Iterator>::__iterator_get_unchecked
  %_7 = call align 1 ptr @"_ZN91_$LT$core..slice..iter..Iter$LT$T$GT$$u20$as$u20$core..iter..traits..iterator..Iterator$GT$24__iterator_get_unchecked17h0574fc78327255e4E"(ptr align 8 %self, i64 %i)
  %_10 = getelementptr inbounds i8, ptr %self, i64 16
; invoke <core::slice::iter::Iter<T> as core::iter::traits::iterator::Iterator>::__iterator_get_unchecked
  %_9 = invoke align 1 ptr @"_ZN91_$LT$core..slice..iter..Iter$LT$T$GT$$u20$as$u20$core..iter..traits..iterator..Iterator$GT$24__iterator_get_unchecked17h0574fc78327255e4E"(ptr align 8 %_10, i64 %i)
          to label %bb3 unwind label %cleanup

bb10:                                             ; preds = %bb4
  store ptr null, ptr %_0, align 8
  br label %bb11

bb5:                                              ; No predecessors!
  unreachable

bb9:                                              ; No predecessors!
  unreachable

bb11:                                             ; preds = %bb10
  br label %bb12

bb6:                                              ; No predecessors!
  unreachable

bb7:                                              ; No predecessors!
  unreachable

bb8:                                              ; No predecessors!
  unreachable

bb12:                                             ; preds = %bb3, %bb11
  %8 = load ptr, ptr %_0, align 8
  %9 = getelementptr inbounds i8, ptr %_0, i64 8
  %10 = load ptr, ptr %9, align 8
  %11 = insertvalue { ptr, ptr } poison, ptr %8, 0
  %12 = insertvalue { ptr, ptr } %11, ptr %10, 1
  ret { ptr, ptr } %12

bb13:                                             ; preds = %cleanup
  %13 = load ptr, ptr %0, align 8
  %14 = getelementptr inbounds i8, ptr %0, i64 8
  %15 = load i32, ptr %14, align 8
  %16 = insertvalue { ptr, i32 } poison, ptr %13, 0
  %17 = insertvalue { ptr, i32 } %16, i32 %15, 1
  resume { ptr, i32 } %17

cleanup:                                          ; preds = %bb1
  %18 = landingpad { ptr, i32 }
          cleanup
  %19 = extractvalue { ptr, i32 } %18, 0
  %20 = extractvalue { ptr, i32 } %18, 1
  store ptr %19, ptr %0, align 8
  %21 = getelementptr inbounds i8, ptr %0, i64 8
  store i32 %20, ptr %21, align 8
  br label %bb13

bb3:                                              ; preds = %bb1
  store ptr %_7, ptr %_0, align 8
  %22 = getelementptr inbounds i8, ptr %_0, i64 8
  store ptr %_9, ptr %22, align 8
  br label %bb12
}

; <<T as alloc::slice::hack::ConvertVec>::to_vec::DropGuard<T,A> as core::ops::drop::Drop>::drop
; Function Attrs: inlinehint nonlazybind uwtable
define void @"_ZN125_$LT$$LT$T$u20$as$u20$alloc..slice..hack..ConvertVec$GT$..to_vec..DropGuard$LT$T$C$A$GT$$u20$as$u20$core..ops..drop..Drop$GT$4drop17h203d5c7096ee13f9E"(ptr align 8 %self) unnamed_addr #0 {
start:
  %self1 = load ptr, ptr %self, align 8
  %0 = getelementptr inbounds i8, ptr %self, i64 8
  %new_len = load i64, ptr %0, align 8
  %1 = getelementptr inbounds i8, ptr %self1, i64 16
  store i64 %new_len, ptr %1, align 8
  ret void
}

; <<T as alloc::slice::hack::ConvertVec>::to_vec::DropGuard<T,A> as core::ops::drop::Drop>::drop
; Function Attrs: inlinehint nonlazybind uwtable
define void @"_ZN125_$LT$$LT$T$u20$as$u20$alloc..slice..hack..ConvertVec$GT$..to_vec..DropGuard$LT$T$C$A$GT$$u20$as$u20$core..ops..drop..Drop$GT$4drop17h8f3c4963b89df0e5E"(ptr align 8 %self) unnamed_addr #0 {
start:
  %self1 = load ptr, ptr %self, align 8
  %0 = getelementptr inbounds i8, ptr %self, i64 8
  %new_len = load i64, ptr %0, align 8
  %1 = getelementptr inbounds i8, ptr %self1, i64 16
  store i64 %new_len, ptr %1, align 8
  ret void
}

; <<T as alloc::slice::hack::ConvertVec>::to_vec::DropGuard<T,A> as core::ops::drop::Drop>::drop
; Function Attrs: inlinehint nonlazybind uwtable
define void @"_ZN125_$LT$$LT$T$u20$as$u20$alloc..slice..hack..ConvertVec$GT$..to_vec..DropGuard$LT$T$C$A$GT$$u20$as$u20$core..ops..drop..Drop$GT$4drop17he61cfbc2c2040ed5E"(ptr align 8 %self) unnamed_addr #0 {
start:
  %self1 = load ptr, ptr %self, align 8
  %0 = getelementptr inbounds i8, ptr %self, i64 8
  %new_len = load i64, ptr %0, align 8
  %1 = getelementptr inbounds i8, ptr %self1, i64 16
  store i64 %new_len, ptr %1, align 8
  ret void
}

; <alloc::vec::Vec<T,A> as alloc::vec::spec_extend::SpecExtend<&T,core::slice::iter::Iter<T>>>::spec_extend
; Function Attrs: nonlazybind uwtable
define void @"_ZN132_$LT$alloc..vec..Vec$LT$T$C$A$GT$$u20$as$u20$alloc..vec..spec_extend..SpecExtend$LT$$RF$T$C$core..slice..iter..Iter$LT$T$GT$$GT$$GT$11spec_extend17h324e01ee7dec53f2E"(ptr align 8 %self, ptr %0, ptr %1) unnamed_addr #1 {
start:
  %len.i = alloca [8 x i8], align 8
  %iterator = alloca [16 x i8], align 8
  store ptr %0, ptr %iterator, align 8
  %2 = getelementptr inbounds i8, ptr %iterator, i64 8
  store ptr %1, ptr %2, align 8
  %self1.i = load ptr, ptr %iterator, align 8
  %self2.i = getelementptr inbounds i8, ptr %iterator, i64 8
  %end.i = load ptr, ptr %self2.i, align 8
; call core::ptr::const_ptr::<impl *const T>::sub_ptr
  %3 = call i64 @"_ZN4core3ptr9const_ptr33_$LT$impl$u20$$BP$const$u20$T$GT$7sub_ptr17h92e0798936accc83E"(ptr %end.i, ptr %self1.i)
  store i64 %3, ptr %len.i, align 8
  %_18.1.i = load i64, ptr %len.i, align 8
  %4 = insertvalue { ptr, i64 } poison, ptr %self1.i, 0
  %5 = insertvalue { ptr, i64 } %4, i64 %_18.1.i, 1
  %slice.0 = extractvalue { ptr, i64 } %5, 0
  %slice.1 = extractvalue { ptr, i64 } %5, 1
; call alloc::vec::Vec<T,A>::append_elements
  call void @"_ZN5alloc3vec16Vec$LT$T$C$A$GT$15append_elements17h7d02c11bc0a87c88E"(ptr align 8 %self, ptr %slice.0, i64 %slice.1)
  ret void
}

; <<alloc::vec::drain::Drain<T,A> as core::ops::drop::Drop>::drop::DropGuard<T,A> as core::ops::drop::Drop>::drop
; Function Attrs: nonlazybind uwtable
define void @"_ZN150_$LT$$LT$alloc..vec..drain..Drain$LT$T$C$A$GT$$u20$as$u20$core..ops..drop..Drop$GT$..drop..DropGuard$LT$T$C$A$GT$$u20$as$u20$core..ops..drop..Drop$GT$4drop17h59b9c0c43db79569E"(ptr align 8 %self) unnamed_addr #1 {
start:
  %_16 = load ptr, ptr %self, align 8
  %0 = getelementptr inbounds i8, ptr %_16, i64 32
  %_3 = load i64, ptr %0, align 8
  %_2 = icmp ugt i64 %_3, 0
  br i1 %_2, label %bb1, label %bb4

bb4:                                              ; preds = %start
  br label %bb5

bb1:                                              ; preds = %start
  %_17 = load ptr, ptr %self, align 8
  %self1 = getelementptr inbounds i8, ptr %_17, i64 16
  %1 = getelementptr inbounds i8, ptr %_17, i64 16
  %self2 = load ptr, ptr %1, align 8
  %2 = getelementptr inbounds i8, ptr %self2, i64 16
  %start3 = load i64, ptr %2, align 8
  %_18 = load ptr, ptr %self, align 8
  %3 = getelementptr inbounds i8, ptr %_18, i64 24
  %tail = load i64, ptr %3, align 8
  %_7 = icmp ne i64 %tail, %start3
  br i1 %_7, label %bb2, label %bb3

bb5:                                              ; preds = %bb3, %bb4
  ret void

bb3:                                              ; preds = %bb9, %bb1
  %_20 = load ptr, ptr %self, align 8
  %4 = getelementptr inbounds i8, ptr %_20, i64 32
  %_15 = load i64, ptr %4, align 8
  %new_len = add i64 %start3, %_15
  %5 = getelementptr inbounds i8, ptr %self2, i64 16
  store i64 %new_len, ptr %5, align 8
  br label %bb5

bb2:                                              ; preds = %bb1
  %6 = getelementptr inbounds i8, ptr %self2, i64 8
  %self4 = load ptr, ptr %6, align 8
  %src = getelementptr inbounds %"proc_macro::TokenTree", ptr %self4, i64 %tail
  %7 = getelementptr inbounds i8, ptr %self2, i64 8
  %self5 = load ptr, ptr %7, align 8
  %dst = getelementptr inbounds %"proc_macro::TokenTree", ptr %self5, i64 %start3
  %_19 = load ptr, ptr %self, align 8
  %8 = getelementptr inbounds i8, ptr %_19, i64 32
  %count = load i64, ptr %8, align 8
  br label %bb9

bb9:                                              ; preds = %bb2
  %9 = mul i64 20, %count
  call void @llvm.memmove.p0.p0.i64(ptr align 4 %dst, ptr align 4 %src, i64 %9, i1 false)
  br label %bb3

bb7:                                              ; No predecessors!
  unreachable

bb8:                                              ; No predecessors!
  unreachable
}

; <core::result::Result<T,F> as core::ops::try_trait::FromResidual<core::result::Result<core::convert::Infallible,E>>>::from_residual
; Function Attrs: inlinehint nonlazybind uwtable
define void @"_ZN153_$LT$core..result..Result$LT$T$C$F$GT$$u20$as$u20$core..ops..try_trait..FromResidual$LT$core..result..Result$LT$core..convert..Infallible$C$E$GT$$GT$$GT$13from_residual17h037afafb9c694217E"(ptr sret([24 x i8]) align 8 %_0, ptr align 8 %0) unnamed_addr #0 {
start:
; call <proc_macro2::imp::LexError as core::convert::From<proc_macro::LexError>>::from
  %_3 = call zeroext i1 @"_ZN94_$LT$proc_macro2..imp..LexError$u20$as$u20$core..convert..From$LT$proc_macro..LexError$GT$$GT$4from17hddbe6c1f2b594d25E"()
  %1 = getelementptr inbounds i8, ptr %_0, i64 8
  %2 = zext i1 %_3 to i8
  store i8 %2, ptr %1, align 8
  store i64 -9223372036854775807, ptr %_0, align 8
  ret void
}

; <core::result::Result<T,F> as core::ops::try_trait::FromResidual<core::result::Result<core::convert::Infallible,E>>>::from_residual
; Function Attrs: inlinehint nonlazybind uwtable
define void @"_ZN153_$LT$core..result..Result$LT$T$C$F$GT$$u20$as$u20$core..ops..try_trait..FromResidual$LT$core..result..Result$LT$core..convert..Infallible$C$E$GT$$GT$$GT$13from_residual17h09b4ebb882e78b8dE"(ptr sret([40 x i8]) align 8 %_0, ptr align 8 %0) unnamed_addr #0 {
start:
  %1 = getelementptr inbounds i8, ptr %_0, i64 32
  store i8 2, ptr %1, align 8
  ret void
}

; <core::result::Result<T,F> as core::ops::try_trait::FromResidual<core::result::Result<core::convert::Infallible,E>>>::from_residual
; Function Attrs: inlinehint nonlazybind uwtable
define void @"_ZN153_$LT$core..result..Result$LT$T$C$F$GT$$u20$as$u20$core..ops..try_trait..FromResidual$LT$core..result..Result$LT$core..convert..Infallible$C$E$GT$$GT$$GT$13from_residual17h18197158e76603d5E"(ptr sret([48 x i8]) align 8 %_0, ptr align 8 %0) unnamed_addr #0 {
start:
  %1 = getelementptr inbounds i8, ptr %_0, i64 16
  store i64 -9223372036854775807, ptr %1, align 8
  ret void
}

; <core::result::Result<T,F> as core::ops::try_trait::FromResidual<core::result::Result<core::convert::Infallible,E>>>::from_residual
; Function Attrs: inlinehint nonlazybind uwtable
define void @"_ZN153_$LT$core..result..Result$LT$T$C$F$GT$$u20$as$u20$core..ops..try_trait..FromResidual$LT$core..result..Result$LT$core..convert..Infallible$C$E$GT$$GT$$GT$13from_residual17h46e793a2663f8ecdE"(ptr sret([32 x i8]) align 8 %_0, i1 zeroext %0, ptr align 8 %1) unnamed_addr #0 {
start:
  %residual = alloca [1 x i8], align 1
  %2 = zext i1 %0 to i8
  store i8 %2, ptr %residual, align 1
  %3 = load i8, ptr %residual, align 1
  %e = trunc i8 %3 to i1
  %4 = getelementptr inbounds i8, ptr %_0, i64 8
  %5 = zext i1 %e to i8
  store i8 %5, ptr %4, align 8
  store i64 -9223372036854775807, ptr %_0, align 8
  ret void
}

; <core::result::Result<T,F> as core::ops::try_trait::FromResidual<core::result::Result<core::convert::Infallible,E>>>::from_residual
; Function Attrs: inlinehint nonlazybind uwtable
define void @"_ZN153_$LT$core..result..Result$LT$T$C$F$GT$$u20$as$u20$core..ops..try_trait..FromResidual$LT$core..result..Result$LT$core..convert..Infallible$C$E$GT$$GT$$GT$13from_residual17h4d73f080cb255475E"(ptr sret([24 x i8]) align 8 %_0, ptr align 8 %0) unnamed_addr #0 {
start:
; call <proc_macro2::imp::LexError as core::convert::From<proc_macro2::fallback::LexError>>::from
  %_3 = call zeroext i1 @"_ZN105_$LT$proc_macro2..imp..LexError$u20$as$u20$core..convert..From$LT$proc_macro2..fallback..LexError$GT$$GT$4from17ha4759c8d33dce57dE"()
  %1 = getelementptr inbounds i8, ptr %_0, i64 8
  %2 = zext i1 %_3 to i8
  store i8 %2, ptr %1, align 8
  store i64 -9223372036854775807, ptr %_0, align 8
  ret void
}

; <core::result::Result<T,F> as core::ops::try_trait::FromResidual<core::result::Result<core::convert::Infallible,E>>>::from_residual
; Function Attrs: inlinehint nonlazybind uwtable
define void @"_ZN153_$LT$core..result..Result$LT$T$C$F$GT$$u20$as$u20$core..ops..try_trait..FromResidual$LT$core..result..Result$LT$core..convert..Infallible$C$E$GT$$GT$$GT$13from_residual17h6a82ac905179892eE"(ptr sret([32 x i8]) align 8 %_0, i1 zeroext %0, ptr align 8 %1) unnamed_addr #0 {
start:
  %residual = alloca [1 x i8], align 1
  %2 = zext i1 %0 to i8
  store i8 %2, ptr %residual, align 1
  %3 = load i8, ptr %residual, align 1
  %e = trunc i8 %3 to i1
  %4 = getelementptr inbounds i8, ptr %_0, i64 8
  %5 = zext i1 %e to i8
  store i8 %5, ptr %4, align 8
  store i64 -9223372036854775807, ptr %_0, align 8
  ret void
}

; <core::result::Result<T,F> as core::ops::try_trait::FromResidual<core::result::Result<core::convert::Infallible,E>>>::from_residual
; Function Attrs: inlinehint nonlazybind uwtable
define { ptr, i64 } @"_ZN153_$LT$core..result..Result$LT$T$C$F$GT$$u20$as$u20$core..ops..try_trait..FromResidual$LT$core..result..Result$LT$core..convert..Infallible$C$E$GT$$GT$$GT$13from_residual17hc5197dbe5f7078baE"(ptr align 8 %0) unnamed_addr #0 {
start:
  %_0 = alloca [16 x i8], align 8
  store ptr null, ptr %_0, align 8
  %1 = load ptr, ptr %_0, align 8
  %2 = getelementptr inbounds i8, ptr %_0, i64 8
  %3 = load i64, ptr %2, align 8
  %4 = insertvalue { ptr, i64 } poison, ptr %1, 0
  %5 = insertvalue { ptr, i64 } %4, i64 %3, 1
  ret { ptr, i64 } %5
}

; <core::result::Result<T,F> as core::ops::try_trait::FromResidual<core::result::Result<core::convert::Infallible,E>>>::from_residual
; Function Attrs: inlinehint nonlazybind uwtable
define void @"_ZN153_$LT$core..result..Result$LT$T$C$F$GT$$u20$as$u20$core..ops..try_trait..FromResidual$LT$core..result..Result$LT$core..convert..Infallible$C$E$GT$$GT$$GT$13from_residual17he85727d26166c4ebE"(ptr sret([32 x i8]) align 8 %_0, ptr align 8 %0) unnamed_addr #0 {
start:
  %1 = getelementptr inbounds i8, ptr %_0, i64 16
  store i32 1114112, ptr %1, align 8
  ret void
}

; <core::result::Result<T,F> as core::ops::try_trait::FromResidual<core::result::Result<core::convert::Infallible,E>>>::from_residual
; Function Attrs: inlinehint nonlazybind uwtable
define void @"_ZN153_$LT$core..result..Result$LT$T$C$F$GT$$u20$as$u20$core..ops..try_trait..FromResidual$LT$core..result..Result$LT$core..convert..Infallible$C$E$GT$$GT$$GT$13from_residual17hee58764ccc450388E"(ptr sret([40 x i8]) align 8 %_0, ptr align 8 %0) unnamed_addr #0 {
start:
  %1 = getelementptr inbounds i8, ptr %_0, i64 16
  store i64 -9223372036854775808, ptr %1, align 8
  ret void
}

; <core::result::Result<T,F> as core::ops::try_trait::FromResidual<core::result::Result<core::convert::Infallible,E>>>::from_residual
; Function Attrs: inlinehint nonlazybind uwtable
define void @"_ZN153_$LT$core..result..Result$LT$T$C$F$GT$$u20$as$u20$core..ops..try_trait..FromResidual$LT$core..result..Result$LT$core..convert..Infallible$C$E$GT$$GT$$GT$13from_residual17heef7fdfefb2cebe4E"(ptr sret([32 x i8]) align 8 %_0, ptr align 8 %0) unnamed_addr #0 {
start:
; call <proc_macro2::imp::LexError as core::convert::From<proc_macro2::fallback::LexError>>::from
  %_3 = call zeroext i1 @"_ZN105_$LT$proc_macro2..imp..LexError$u20$as$u20$core..convert..From$LT$proc_macro2..fallback..LexError$GT$$GT$4from17ha4759c8d33dce57dE"()
  %1 = getelementptr inbounds i8, ptr %_0, i64 8
  %2 = zext i1 %_3 to i8
  store i8 %2, ptr %1, align 8
  store i64 -9223372036854775807, ptr %_0, align 8
  ret void
}

; <core::result::Result<T,F> as core::ops::try_trait::FromResidual<core::result::Result<core::convert::Infallible,E>>>::from_residual
; Function Attrs: inlinehint nonlazybind uwtable
define { ptr, i64 } @"_ZN153_$LT$core..result..Result$LT$T$C$F$GT$$u20$as$u20$core..ops..try_trait..FromResidual$LT$core..result..Result$LT$core..convert..Infallible$C$E$GT$$GT$$GT$13from_residual17hface6ca106ab4104E"(ptr align 8 %0) unnamed_addr #0 {
start:
  %_0 = alloca [16 x i8], align 8
  store ptr null, ptr %_0, align 8
  %1 = load ptr, ptr %_0, align 8
  %2 = getelementptr inbounds i8, ptr %_0, i64 8
  %3 = load i64, ptr %2, align 8
  %4 = insertvalue { ptr, i64 } poison, ptr %1, 0
  %5 = insertvalue { ptr, i64 } %4, i64 %3, 1
  ret { ptr, i64 } %5
}

; <core::result::Result<T,F> as core::ops::try_trait::FromResidual<core::result::Result<core::convert::Infallible,E>>>::from_residual
; Function Attrs: inlinehint nonlazybind uwtable
define zeroext i1 @"_ZN153_$LT$core..result..Result$LT$T$C$F$GT$$u20$as$u20$core..ops..try_trait..FromResidual$LT$core..result..Result$LT$core..convert..Infallible$C$E$GT$$GT$$GT$13from_residual17hff31d50f5af9a906E"(ptr align 8 %0) unnamed_addr #0 {
start:
  %_0 = alloca [1 x i8], align 1
  store i8 1, ptr %_0, align 1
  %1 = load i8, ptr %_0, align 1
  %2 = trunc i8 %1 to i1
  ret i1 %2
}

; <<alloc::vec::into_iter::IntoIter<T,A> as core::ops::drop::Drop>::drop::DropGuard<T,A> as core::ops::drop::Drop>::drop
; Function Attrs: nonlazybind uwtable
define void @"_ZN157_$LT$$LT$alloc..vec..into_iter..IntoIter$LT$T$C$A$GT$$u20$as$u20$core..ops..drop..Drop$GT$..drop..DropGuard$LT$T$C$A$GT$$u20$as$u20$core..ops..drop..Drop$GT$4drop17h00a9899cbc82d377E"(ptr align 8 %self) unnamed_addr #1 {
start:
  %cap = alloca [8 x i8], align 8
  %_4 = alloca [16 x i8], align 8
  %_7 = load ptr, ptr %self, align 8
  %slot = getelementptr inbounds i8, ptr %_7, i64 32
  %src = getelementptr inbounds i8, ptr %_7, i64 32
  %_8 = load ptr, ptr %self, align 8
  %ptr = load ptr, ptr %_8, align 8
  %_9 = load ptr, ptr %self, align 8
  %0 = getelementptr inbounds i8, ptr %_9, i64 16
  %capacity = load i64, ptr %0, align 8
  br label %bb3

bb3:                                              ; preds = %start
  store i64 %capacity, ptr %cap, align 8
  br label %bb4

bb4:                                              ; preds = %bb3
  %_14 = load i64, ptr %cap, align 8
  %1 = getelementptr inbounds i8, ptr %_4, i64 8
  store ptr %ptr, ptr %1, align 8
  store i64 %_14, ptr %_4, align 8
; call core::ptr::drop_in_place<alloc::raw_vec::RawVec<proc_macro::bridge::TokenTree<proc_macro::bridge::client::TokenStream,proc_macro::bridge::client::Span,proc_macro::bridge::symbol::Symbol>>>
  call void @"_ZN4core3ptr199drop_in_place$LT$alloc..raw_vec..RawVec$LT$proc_macro..bridge..TokenTree$LT$proc_macro..bridge..client..TokenStream$C$proc_macro..bridge..client..Span$C$proc_macro..bridge..symbol..Symbol$GT$$GT$$GT$17ha8859ccedb293eb9E"(ptr align 8 %_4)
  ret void

bb2:                                              ; No predecessors!
  unreachable
}

; <<alloc::vec::into_iter::IntoIter<T,A> as core::ops::drop::Drop>::drop::DropGuard<T,A> as core::ops::drop::Drop>::drop
; Function Attrs: nonlazybind uwtable
define void @"_ZN157_$LT$$LT$alloc..vec..into_iter..IntoIter$LT$T$C$A$GT$$u20$as$u20$core..ops..drop..Drop$GT$..drop..DropGuard$LT$T$C$A$GT$$u20$as$u20$core..ops..drop..Drop$GT$4drop17hca2c4e65e35878c4E"(ptr align 8 %self) unnamed_addr #1 {
start:
  %cap = alloca [8 x i8], align 8
  %_4 = alloca [16 x i8], align 8
  %_7 = load ptr, ptr %self, align 8
  %slot = getelementptr inbounds i8, ptr %_7, i64 32
  %src = getelementptr inbounds i8, ptr %_7, i64 32
  %_8 = load ptr, ptr %self, align 8
  %ptr = load ptr, ptr %_8, align 8
  %_9 = load ptr, ptr %self, align 8
  %0 = getelementptr inbounds i8, ptr %_9, i64 16
  %capacity = load i64, ptr %0, align 8
  br label %bb3

bb3:                                              ; preds = %start
  store i64 %capacity, ptr %cap, align 8
  br label %bb4

bb4:                                              ; preds = %bb3
  %_14 = load i64, ptr %cap, align 8
  %1 = getelementptr inbounds i8, ptr %_4, i64 8
  store ptr %ptr, ptr %1, align 8
  store i64 %_14, ptr %_4, align 8
; call core::ptr::drop_in_place<alloc::raw_vec::RawVec<proc_macro2::TokenTree>>
  call void @"_ZN4core3ptr73drop_in_place$LT$alloc..raw_vec..RawVec$LT$proc_macro2..TokenTree$GT$$GT$17ha39b47c836e86927E"(ptr align 8 %_4)
  ret void

bb2:                                              ; No predecessors!
  unreachable
}

; std::sys::sync::once::futex::Once::call
; Function Attrs: cold nonlazybind uwtable
define void @_ZN3std3sys4sync4once5futex4Once4call17hb73b6c2fb138278cE(ptr align 4 %self, i1 zeroext %ignore_poisoning, ptr align 8 %f, ptr align 8 %0) unnamed_addr #2 personality ptr @rust_eh_personality {
start:
  %1 = alloca [16 x i8], align 8
  %_37 = alloca [0 x i8], align 8
  %_35 = alloca [48 x i8], align 8
  %_26 = alloca [8 x i8], align 4
  %f_state = alloca [8 x i8], align 4
  %waiter_queue = alloca [16 x i8], align 8
  %_8 = alloca [8 x i8], align 4
  %_7 = alloca [48 x i8], align 8
  %state = alloca [4 x i8], align 4
; call core::sync::atomic::atomic_load
  %2 = call i32 @_ZN4core4sync6atomic11atomic_load17h528c1461ff3aea58E(ptr %self, i8 2)
  store i32 %2, ptr %state, align 4
  br label %bb1

bb1:                                              ; preds = %bb13, %bb11, %bb6, %start
  %3 = load i32, ptr %state, align 4
  switch i32 %3, label %bb2 [
    i32 1, label %bb3
    i32 0, label %bb5
    i32 2, label %bb9
    i32 3, label %bb9
    i32 4, label %bb16
  ]

bb2:                                              ; preds = %bb1
  store ptr @alloc_2a9cdb20370524832dacb396d295f90f, ptr %_35, align 8
  %4 = getelementptr inbounds i8, ptr %_35, i64 8
  store i64 1, ptr %4, align 8
  %5 = load ptr, ptr @0, align 8
  %6 = load i64, ptr getelementptr inbounds (i8, ptr @0, i64 8), align 8
  %7 = getelementptr inbounds i8, ptr %_35, i64 32
  store ptr %5, ptr %7, align 8
  %8 = getelementptr inbounds i8, ptr %7, i64 8
  store i64 %6, ptr %8, align 8
  %9 = getelementptr inbounds i8, ptr %_35, i64 16
  store ptr %_37, ptr %9, align 8
  %10 = getelementptr inbounds i8, ptr %9, i64 8
  store i64 0, ptr %10, align 8
; call core::panicking::panic_fmt
  call void @_ZN4core9panicking9panic_fmt17h3111a7beccfa68f5E(ptr align 8 %_35, ptr align 8 %0) #24
  unreachable

bb3:                                              ; preds = %bb1
  br i1 %ignore_poisoning, label %bb5, label %bb4

bb5:                                              ; preds = %bb3, %bb1
  %current = load i32, ptr %state, align 4
; call core::sync::atomic::atomic_compare_exchange_weak
  %11 = call { i32, i32 } @_ZN4core4sync6atomic28atomic_compare_exchange_weak17h77e9fd30bb17d7a1E(ptr %self, i32 %current, i32 2, i8 2, i8 2)
  %12 = extractvalue { i32, i32 } %11, 0
  %13 = extractvalue { i32, i32 } %11, 1
  store i32 %12, ptr %_8, align 4
  %14 = getelementptr inbounds i8, ptr %_8, i64 4
  store i32 %13, ptr %14, align 4
  %15 = load i32, ptr %_8, align 4
  %_11 = zext i32 %15 to i64
  %16 = icmp eq i64 %_11, 1
  br i1 %16, label %bb6, label %bb7

bb9:                                              ; preds = %bb1, %bb1
  %_25 = load i32, ptr %state, align 4
  %_24 = icmp eq i32 %_25, 2
  br i1 %_24, label %bb10, label %bb12

bb16:                                             ; preds = %bb8, %bb1
  ret void

bb4:                                              ; preds = %bb3
  store ptr @alloc_9cc4df00976b591da2e084a2cf898fab, ptr %_7, align 8
  %17 = getelementptr inbounds i8, ptr %_7, i64 8
  store i64 1, ptr %17, align 8
  %18 = load ptr, ptr @0, align 8
  %19 = load i64, ptr getelementptr inbounds (i8, ptr @0, i64 8), align 8
  %20 = getelementptr inbounds i8, ptr %_7, i64 32
  store ptr %18, ptr %20, align 8
  %21 = getelementptr inbounds i8, ptr %20, i64 8
  store i64 %19, ptr %21, align 8
  %22 = getelementptr inbounds i8, ptr %_7, i64 16
  store ptr inttoptr (i64 8 to ptr), ptr %22, align 8
  %23 = getelementptr inbounds i8, ptr %22, i64 8
  store i64 0, ptr %23, align 8
; call core::panicking::panic_fmt
  call void @_ZN4core9panicking9panic_fmt17h3111a7beccfa68f5E(ptr align 8 %_7, ptr align 8 %0) #24
  unreachable

bb6:                                              ; preds = %bb5
  %24 = getelementptr inbounds i8, ptr %_8, i64 4
  %new = load i32, ptr %24, align 4
  store i32 %new, ptr %state, align 4
  br label %bb1

bb7:                                              ; preds = %bb5
  store ptr %self, ptr %waiter_queue, align 8
  %25 = getelementptr inbounds i8, ptr %waiter_queue, i64 8
  store i32 1, ptr %25, align 8
  %_18 = load i32, ptr %state, align 4
  %_17 = icmp eq i32 %_18, 1
  store i32 4, ptr %f_state, align 4
  %26 = getelementptr inbounds i8, ptr %f_state, i64 4
  %27 = zext i1 %_17 to i8
  store i8 %27, ptr %26, align 4
; invoke std::sync::once::Once::call_once::{{closure}}
  invoke void @"_ZN3std4sync4once4Once9call_once28_$u7b$$u7b$closure$u7d$$u7d$17h26dc878653b92fdcE"(ptr align 8 %f, ptr align 4 %f_state)
          to label %bb8 unwind label %cleanup

bb17:                                             ; preds = %cleanup
; invoke core::ptr::drop_in_place<std::sys::sync::once::futex::CompletionGuard>
  invoke void @"_ZN4core3ptr65drop_in_place$LT$std..sys..sync..once..futex..CompletionGuard$GT$17h93c53ae467fc3dd7E"(ptr align 8 %waiter_queue) #25
          to label %bb18 unwind label %terminate

cleanup:                                          ; preds = %bb7
  %28 = landingpad { ptr, i32 }
          cleanup
  %29 = extractvalue { ptr, i32 } %28, 0
  %30 = extractvalue { ptr, i32 } %28, 1
  store ptr %29, ptr %1, align 8
  %31 = getelementptr inbounds i8, ptr %1, i64 8
  store i32 %30, ptr %31, align 8
  br label %bb17

bb8:                                              ; preds = %bb7
  %_22 = load i32, ptr %f_state, align 4
  %32 = getelementptr inbounds i8, ptr %waiter_queue, i64 8
  store i32 %_22, ptr %32, align 8
; call core::ptr::drop_in_place<std::sys::sync::once::futex::CompletionGuard>
  call void @"_ZN4core3ptr65drop_in_place$LT$std..sys..sync..once..futex..CompletionGuard$GT$17h93c53ae467fc3dd7E"(ptr align 8 %waiter_queue)
  br label %bb16

terminate:                                        ; preds = %bb17
  %33 = landingpad { ptr, i32 }
          filter [0 x ptr] zeroinitializer
  %34 = extractvalue { ptr, i32 } %33, 0
  %35 = extractvalue { ptr, i32 } %33, 1
; call core::panicking::panic_in_cleanup
  call void @_ZN4core9panicking16panic_in_cleanup17h43442956f23e9cbeE() #26
  unreachable

bb18:                                             ; preds = %bb17
  %36 = load ptr, ptr %1, align 8
  %37 = getelementptr inbounds i8, ptr %1, i64 8
  %38 = load i32, ptr %37, align 8
  %39 = insertvalue { ptr, i32 } poison, ptr %36, 0
  %40 = insertvalue { ptr, i32 } %39, i32 %38, 1
  resume { ptr, i32 } %40

bb12:                                             ; preds = %bb9
  br label %bb13

bb10:                                             ; preds = %bb9
; call core::sync::atomic::atomic_compare_exchange_weak
  %41 = call { i32, i32 } @_ZN4core4sync6atomic28atomic_compare_exchange_weak17h77e9fd30bb17d7a1E(ptr %self, i32 2, i32 3, i8 0, i8 2)
  %42 = extractvalue { i32, i32 } %41, 0
  %43 = extractvalue { i32, i32 } %41, 1
  store i32 %42, ptr %_26, align 4
  %44 = getelementptr inbounds i8, ptr %_26, i64 4
  store i32 %43, ptr %44, align 4
  %45 = load i32, ptr %_26, align 4
  %_28 = zext i32 %45 to i64
  %46 = icmp eq i64 %_28, 1
  br i1 %46, label %bb11, label %bb13

bb13:                                             ; preds = %bb10, %bb12
  %47 = load i64, ptr @1, align 8
  %48 = load i32, ptr getelementptr inbounds (i8, ptr @1, i64 8), align 8
; call std::sys::pal::unix::futex::futex_wait
  %_30 = call zeroext i1 @_ZN3std3sys3pal4unix5futex10futex_wait17h609d76562e6a86f1E(ptr align 4 %self, i32 3, i64 %47, i32 %48)
; call core::sync::atomic::atomic_load
  %_32 = call i32 @_ZN4core4sync6atomic11atomic_load17h528c1461ff3aea58E(ptr %self, i8 2)
  store i32 %_32, ptr %state, align 4
  br label %bb1

bb11:                                             ; preds = %bb10
  %49 = getelementptr inbounds i8, ptr %_26, i64 4
  %new1 = load i32, ptr %49, align 4
  store i32 %new1, ptr %state, align 4
  br label %bb1

bb23:                                             ; No predecessors!
  unreachable
}

; std::sync::once::Once::call_once
; Function Attrs: inlinehint nonlazybind uwtable
define void @_ZN3std4sync4once4Once9call_once17hf18674b432764184E(ptr align 4 %self, ptr align 8 %0) unnamed_addr #0 personality ptr @rust_eh_personality {
start:
  %1 = alloca [16 x i8], align 8
  %_12 = alloca [1 x i8], align 1
  %_10 = alloca [8 x i8], align 8
  %f = alloca [1 x i8], align 1
  store i8 1, ptr %_12, align 1
; invoke core::sync::atomic::atomic_load
  %_13 = invoke i32 @_ZN4core4sync6atomic11atomic_load17h528c1461ff3aea58E(ptr %self, i8 2)
          to label %bb10 unwind label %cleanup

bb9:                                              ; preds = %bb6, %cleanup
  %2 = load i8, ptr %_12, align 1
  %3 = trunc i8 %2 to i1
  br i1 %3, label %bb8, label %bb7

cleanup:                                          ; preds = %start
  %4 = landingpad { ptr, i32 }
          cleanup
  %5 = extractvalue { ptr, i32 } %4, 0
  %6 = extractvalue { ptr, i32 } %4, 1
  store ptr %5, ptr %1, align 8
  %7 = getelementptr inbounds i8, ptr %1, i64 8
  store i32 %6, ptr %7, align 8
  br label %bb9

bb10:                                             ; preds = %start
  %_3 = icmp eq i32 %_13, 4
  br i1 %_3, label %bb1, label %bb2

bb2:                                              ; preds = %bb10
  store i8 0, ptr %_12, align 1
  store i8 1, ptr %f, align 1
  store ptr %f, ptr %_10, align 8
; invoke std::sys::sync::once::futex::Once::call
  invoke void @_ZN3std3sys4sync4once5futex4Once4call17hb73b6c2fb138278cE(ptr align 4 %self, i1 zeroext false, ptr align 8 %_10, ptr align 8 %0)
          to label %bb3 unwind label %cleanup1

bb1:                                              ; preds = %bb10
  br label %bb5

bb6:                                              ; preds = %cleanup1
  br label %bb9

cleanup1:                                         ; preds = %bb2
  %8 = landingpad { ptr, i32 }
          cleanup
  %9 = extractvalue { ptr, i32 } %8, 0
  %10 = extractvalue { ptr, i32 } %8, 1
  store ptr %9, ptr %1, align 8
  %11 = getelementptr inbounds i8, ptr %1, i64 8
  store i32 %10, ptr %11, align 8
  br label %bb6

bb3:                                              ; preds = %bb2
  br label %bb4

bb4:                                              ; preds = %bb3
  br label %bb5

bb5:                                              ; preds = %bb1, %bb4
  ret void

bb7:                                              ; preds = %bb8, %bb9
  %12 = load ptr, ptr %1, align 8
  %13 = getelementptr inbounds i8, ptr %1, i64 8
  %14 = load i32, ptr %13, align 8
  %15 = insertvalue { ptr, i32 } poison, ptr %12, 0
  %16 = insertvalue { ptr, i32 } %15, i32 %14, 1
  resume { ptr, i32 } %16

bb8:                                              ; preds = %bb9
  br label %bb7
}

; std::sync::once::Once::call_once::{{closure}}
; Function Attrs: inlinehint nonlazybind uwtable
define void @"_ZN3std4sync4once4Once9call_once28_$u7b$$u7b$closure$u7d$$u7d$17h26dc878653b92fdcE"(ptr align 8 %_1, ptr align 4 %_2) unnamed_addr #0 {
start:
  %src = alloca [1 x i8], align 1
  %result = alloca [1 x i8], align 1
  %self = load ptr, ptr %_1, align 8
  store i8 0, ptr %src, align 1
  %0 = load i8, ptr %self, align 1
  %1 = trunc i8 %0 to i1
  %2 = zext i1 %1 to i8
  store i8 %2, ptr %result, align 1
  %3 = load i8, ptr %src, align 1
  %4 = trunc i8 %3 to i1
  %5 = zext i1 %4 to i8
  store i8 %5, ptr %self, align 1
  %6 = load i8, ptr %result, align 1
  %7 = trunc i8 %6 to i1
  %_7 = zext i1 %7 to i64
  %8 = icmp eq i64 %_7, 0
  br i1 %8, label %bb3, label %bb4

bb3:                                              ; preds = %start
; call core::option::unwrap_failed
  call void @_ZN4core6option13unwrap_failed17h7a3768beeda72485E(ptr align 8 @alloc_323e3e924a872d3e19f6b8d20ac72063) #24
  unreachable

bb4:                                              ; preds = %start
; call core::ops::function::FnOnce::call_once
  call void @_ZN4core3ops8function6FnOnce9call_once17h056d972d5433f5d9E()
  ret void

bb2:                                              ; No predecessors!
  unreachable
}

; std::panic::catch_unwind
; Function Attrs: nonlazybind uwtable
define void @_ZN3std5panic12catch_unwind17he4fa292095b180f4E(ptr sret([16 x i8]) align 8 %_0, ptr align 1 %f.0, i64 %f.1) unnamed_addr #1 {
start:
; call std::panicking::try
  call void @_ZN3std9panicking3try17hc5eeec5fa1339cbaE(ptr sret([16 x i8]) align 8 %_0, ptr align 1 %f.0, i64 %f.1)
  ret void
}

; std::panicking::try
; Function Attrs: nonlazybind uwtable
define void @_ZN3std9panicking3try17hc5eeec5fa1339cbaE(ptr sret([16 x i8]) align 8 %_0, ptr align 1 %f.0, i64 %f.1) unnamed_addr #1 {
start:
  %0 = alloca [4 x i8], align 4
  %slot = alloca [8 x i8], align 4
  %_9 = alloca [8 x i8], align 4
  %data = alloca [16 x i8], align 8
  store ptr %f.0, ptr %data, align 8
  %1 = getelementptr inbounds i8, ptr %data, i64 8
  store i64 %f.1, ptr %1, align 8
  %2 = call i32 @__rust_try(ptr @_ZN3std9panicking3try7do_call17hf21d3531dcd1ba5cE, ptr %data, ptr @_ZN3std9panicking3try8do_catch17hf7a7b53331b83cddE)
  store i32 %2, ptr %0, align 4
  %_6 = load i32, ptr %0, align 4
  %3 = icmp eq i32 %_6, 0
  br i1 %3, label %bb2, label %bb3

bb2:                                              ; preds = %start
  call void @llvm.memcpy.p0.p0.i64(ptr align 4 %slot, ptr align 8 %data, i64 8, i1 false)
  call void @llvm.memcpy.p0.p0.i64(ptr align 4 %_9, ptr align 4 %slot, i64 8, i1 false)
  %4 = getelementptr inbounds i8, ptr %_0, i64 8
  call void @llvm.memcpy.p0.p0.i64(ptr align 8 %4, ptr align 4 %_9, i64 8, i1 false)
  store ptr null, ptr %_0, align 8
  br label %bb4

bb3:                                              ; preds = %start
  %slot.0 = load ptr, ptr %data, align 8
  %5 = getelementptr inbounds i8, ptr %data, i64 8
  %slot.1 = load ptr, ptr %5, align 8
  store ptr %slot.0, ptr %_0, align 8
  %6 = getelementptr inbounds i8, ptr %_0, i64 8
  store ptr %slot.1, ptr %6, align 8
  br label %bb4

bb4:                                              ; preds = %bb3, %bb2
  ret void
}

; std::panicking::try::do_call
; Function Attrs: inlinehint nonlazybind uwtable
define void @_ZN3std9panicking3try7do_call17hf21d3531dcd1ba5cE(ptr %data) unnamed_addr #0 {
start:
  %0 = alloca [8 x i8], align 8
  %value = alloca [8 x i8], align 4
  %_5 = alloca [8 x i8], align 4
  %f.0 = load ptr, ptr %data, align 8
  %1 = getelementptr inbounds i8, ptr %data, i64 8
  %f.1 = load i64, ptr %1, align 8
; call proc_macro2::imp::proc_macro_parse::{{closure}}
  %2 = call i64 @"_ZN11proc_macro23imp16proc_macro_parse28_$u7b$$u7b$closure$u7d$$u7d$17h1459fe7f7613ca3fE"(ptr align 1 %f.0, i64 %f.1)
  store i64 %2, ptr %0, align 8
  call void @llvm.memcpy.p0.p0.i64(ptr align 4 %value, ptr align 8 %0, i64 8, i1 false)
  call void @llvm.memcpy.p0.p0.i64(ptr align 4 %_5, ptr align 4 %value, i64 8, i1 false)
  call void @llvm.memcpy.p0.p0.i64(ptr align 8 %data, ptr align 4 %_5, i64 8, i1 false)
  ret void
}

; std::panicking::try::do_catch
; Function Attrs: inlinehint nounwind nonlazybind uwtable
define void @_ZN3std9panicking3try8do_catch17hf7a7b53331b83cddE(ptr %data, ptr %payload) unnamed_addr #3 personality ptr @rust_eh_personality {
start:
; invoke std::panicking::try::cleanup
  %0 = invoke { ptr, ptr } @_ZN3std9panicking3try7cleanup17hd6ade9b987c70092E(ptr %payload)
          to label %bb1 unwind label %terminate

terminate:                                        ; preds = %start
  %1 = landingpad { ptr, i32 }
          filter [0 x ptr] zeroinitializer
  %2 = extractvalue { ptr, i32 } %1, 0
  %3 = extractvalue { ptr, i32 } %1, 1
; call core::panicking::panic_cannot_unwind
  call void @_ZN4core9panicking19panic_cannot_unwind17h3f96c9c07954d1a5E() #26
  unreachable

bb1:                                              ; preds = %start
  %obj.0 = extractvalue { ptr, ptr } %0, 0
  %obj.1 = extractvalue { ptr, ptr } %0, 1
  store ptr %obj.0, ptr %data, align 8
  %4 = getelementptr inbounds i8, ptr %data, i64 8
  store ptr %obj.1, ptr %4, align 8
  ret void
}

; <bool as core::fmt::Debug>::fmt
; Function Attrs: inlinehint nonlazybind uwtable
define internal zeroext i1 @"_ZN41_$LT$bool$u20$as$u20$core..fmt..Debug$GT$3fmt17h41a9056ce763c337E"(ptr align 1 %self, ptr align 8 %f) unnamed_addr #0 {
start:
; call <bool as core::fmt::Display>::fmt
  %_0 = call zeroext i1 @"_ZN43_$LT$bool$u20$as$u20$core..fmt..Display$GT$3fmt17he691df9786a4e217E"(ptr align 1 %self, ptr align 8 %f)
  ret i1 %_0
}

; <&T as core::fmt::Debug>::fmt
; Function Attrs: nonlazybind uwtable
define zeroext i1 @"_ZN42_$LT$$RF$T$u20$as$u20$core..fmt..Debug$GT$3fmt17h25c4ed0fda439c9dE"(ptr align 8 %self, ptr align 8 %f) unnamed_addr #1 {
start:
  %_3 = load ptr, ptr %self, align 8
; call <core::option::Option<T> as core::fmt::Debug>::fmt
  %_0 = call zeroext i1 @"_ZN66_$LT$core..option..Option$LT$T$GT$$u20$as$u20$core..fmt..Debug$GT$3fmt17h371c877135043a4eE"(ptr align 8 %_3, ptr align 8 %f)
  ret i1 %_0
}

; <&T as core::fmt::Debug>::fmt
; Function Attrs: nonlazybind uwtable
define zeroext i1 @"_ZN42_$LT$$RF$T$u20$as$u20$core..fmt..Debug$GT$3fmt17h48501bd31ab487e2E"(ptr align 8 %self, ptr align 8 %f) unnamed_addr #1 {
start:
  %_3.0 = load ptr, ptr %self, align 8
  %0 = getelementptr inbounds i8, ptr %self, i64 8
  %_3.1 = load i64, ptr %0, align 8
; call <str as core::fmt::Debug>::fmt
  %_0 = call zeroext i1 @"_ZN40_$LT$str$u20$as$u20$core..fmt..Debug$GT$3fmt17h8addf800304f3e1bE"(ptr align 1 %_3.0, i64 %_3.1, ptr align 8 %f)
  ret i1 %_0
}

; <&T as core::fmt::Debug>::fmt
; Function Attrs: nonlazybind uwtable
define zeroext i1 @"_ZN42_$LT$$RF$T$u20$as$u20$core..fmt..Debug$GT$3fmt17hb728857baa5ea652E"(ptr align 8 %self, ptr align 8 %f) unnamed_addr #1 {
start:
  %_3 = load ptr, ptr %self, align 8
; call <proc_macro2::fallback::Span as core::fmt::Debug>::fmt
  %_0 = call zeroext i1 @"_ZN64_$LT$proc_macro2..fallback..Span$u20$as$u20$core..fmt..Debug$GT$3fmt17h03ee8393c0975a1cE"(ptr align 1 %_3, ptr align 8 %f)
  ret i1 %_0
}

; <&T as core::fmt::Debug>::fmt
; Function Attrs: nonlazybind uwtable
define zeroext i1 @"_ZN42_$LT$$RF$T$u20$as$u20$core..fmt..Debug$GT$3fmt17hbf787cf7f6cc7e4bE"(ptr align 8 %self, ptr align 8 %f) unnamed_addr #1 {
start:
  %_3 = load ptr, ptr %self, align 8
; call core::fmt::num::<impl core::fmt::Debug for usize>::fmt
  %_0 = call zeroext i1 @"_ZN4core3fmt3num52_$LT$impl$u20$core..fmt..Debug$u20$for$u20$usize$GT$3fmt17h26494a2e8bdf3a46E"(ptr align 8 %_3, ptr align 8 %f)
  ret i1 %_0
}

; <&T as core::fmt::Debug>::fmt
; Function Attrs: nonlazybind uwtable
define zeroext i1 @"_ZN42_$LT$$RF$T$u20$as$u20$core..fmt..Debug$GT$3fmt17hf908c21d3478875aE"(ptr align 8 %self, ptr align 8 %f) unnamed_addr #1 {
start:
  %_3 = load ptr, ptr %self, align 8
; call <() as core::fmt::Debug>::fmt
  %_0 = call zeroext i1 @"_ZN45_$LT$$LP$$RP$$u20$as$u20$core..fmt..Debug$GT$3fmt17hef9b2d111c4a2be9E"(ptr align 1 %_3, ptr align 8 %f)
  ret i1 %_0
}

; <&T as core::fmt::Display>::fmt
; Function Attrs: nonlazybind uwtable
define zeroext i1 @"_ZN44_$LT$$RF$T$u20$as$u20$core..fmt..Display$GT$3fmt17h712de8ab85f6cdf4E"(ptr align 8 %self, ptr align 8 %f) unnamed_addr #1 {
start:
  %_3 = load ptr, ptr %self, align 8
; call <proc_macro2::Ident as core::fmt::Display>::fmt
  %_0 = call zeroext i1 @"_ZN57_$LT$proc_macro2..Ident$u20$as$u20$core..fmt..Display$GT$3fmt17h13ab6285103b9791E"(ptr align 8 %_3, ptr align 8 %f)
  ret i1 %_0
}

; <&T as core::fmt::Display>::fmt
; Function Attrs: nonlazybind uwtable
define zeroext i1 @"_ZN44_$LT$$RF$T$u20$as$u20$core..fmt..Display$GT$3fmt17hec7503cea7e607bfE"(ptr align 8 %self, ptr align 8 %f) unnamed_addr #1 {
start:
  %_3.0 = load ptr, ptr %self, align 8
  %0 = getelementptr inbounds i8, ptr %self, i64 8
  %_3.1 = load i64, ptr %0, align 8
; call <str as core::fmt::Display>::fmt
  %_0 = call zeroext i1 @"_ZN42_$LT$str$u20$as$u20$core..fmt..Display$GT$3fmt17h49e1caa39cb6eebbE"(ptr align 1 %_3.0, i64 %_3.1, ptr align 8 %f)
  ret i1 %_0
}

; <&T as core::fmt::Display>::fmt
; Function Attrs: nonlazybind uwtable
define zeroext i1 @"_ZN44_$LT$$RF$T$u20$as$u20$core..fmt..Display$GT$3fmt17hffcb42745d686124E"(ptr align 8 %self, ptr align 8 %f) unnamed_addr #1 {
start:
  %_3 = load ptr, ptr %self, align 8
; call <proc_macro2::fallback::Ident as core::fmt::Display>::fmt
  %_0 = call zeroext i1 @"_ZN67_$LT$proc_macro2..fallback..Ident$u20$as$u20$core..fmt..Display$GT$3fmt17h48b8bf5759c640f8E"(ptr align 8 %_3, ptr align 8 %f)
  ret i1 %_0
}

; <() as core::fmt::Debug>::fmt
; Function Attrs: inlinehint nonlazybind uwtable
define internal zeroext i1 @"_ZN45_$LT$$LP$$RP$$u20$as$u20$core..fmt..Debug$GT$3fmt17hef9b2d111c4a2be9E"(ptr align 1 %self, ptr align 8 %f) unnamed_addr #0 {
start:
; call core::fmt::Formatter::pad
  %_0 = call zeroext i1 @_ZN4core3fmt9Formatter3pad17h7a36b2c624c9ffbaE(ptr align 8 %f, ptr align 1 @alloc_ae6dc619079e3c3b08144a35532ecff7, i64 2)
  ret i1 %_0
}

; <T as alloc::string::ToString>::to_string
; Function Attrs: inlinehint nonlazybind uwtable
define void @"_ZN45_$LT$T$u20$as$u20$alloc..string..ToString$GT$9to_string17h0eab573f9f9be2eaE"(ptr sret([24 x i8]) align 8 %_0, ptr align 8 %self) unnamed_addr #0 personality ptr @rust_eh_personality {
start:
  %0 = alloca [16 x i8], align 8
  %_10 = alloca [24 x i8], align 8
  %formatter = alloca [64 x i8], align 8
  %buf = alloca [24 x i8], align 8
  store i64 0, ptr %_10, align 8
  %1 = getelementptr inbounds i8, ptr %_10, i64 8
  store ptr inttoptr (i64 1 to ptr), ptr %1, align 8
  %2 = getelementptr inbounds i8, ptr %_10, i64 16
  store i64 0, ptr %2, align 8
  call void @llvm.memcpy.p0.p0.i64(ptr align 8 %buf, ptr align 8 %_10, i64 24, i1 false)
  %3 = getelementptr inbounds i8, ptr %formatter, i64 52
  store i32 0, ptr %3, align 4
  %4 = getelementptr inbounds i8, ptr %formatter, i64 48
  store i32 32, ptr %4, align 8
  %5 = getelementptr inbounds i8, ptr %formatter, i64 56
  store i8 3, ptr %5, align 8
  %6 = load i64, ptr @0, align 8
  %7 = load i64, ptr getelementptr inbounds (i8, ptr @0, i64 8), align 8
  store i64 %6, ptr %formatter, align 8
  %8 = getelementptr inbounds i8, ptr %formatter, i64 8
  store i64 %7, ptr %8, align 8
  %9 = load i64, ptr @0, align 8
  %10 = load i64, ptr getelementptr inbounds (i8, ptr @0, i64 8), align 8
  %11 = getelementptr inbounds i8, ptr %formatter, i64 16
  store i64 %9, ptr %11, align 8
  %12 = getelementptr inbounds i8, ptr %11, i64 8
  store i64 %10, ptr %12, align 8
  %13 = getelementptr inbounds i8, ptr %formatter, i64 32
  store ptr %buf, ptr %13, align 8
  %14 = getelementptr inbounds i8, ptr %13, i64 8
  store ptr @vtable.0, ptr %14, align 8
; invoke core::fmt::num::imp::<impl core::fmt::Display for u64>::fmt
  %_7 = invoke zeroext i1 @"_ZN4core3fmt3num3imp52_$LT$impl$u20$core..fmt..Display$u20$for$u20$u64$GT$3fmt17hc7ee99daaeefde73E"(ptr align 8 %self, ptr align 8 %formatter)
          to label %bb1 unwind label %cleanup

bb3:                                              ; preds = %cleanup
; invoke core::ptr::drop_in_place<alloc::string::String>
  invoke void @"_ZN4core3ptr42drop_in_place$LT$alloc..string..String$GT$17h32add1a642bb0b4eE"(ptr align 8 %buf) #25
          to label %bb4 unwind label %terminate

cleanup:                                          ; preds = %bb1, %start
  %15 = landingpad { ptr, i32 }
          cleanup
  %16 = extractvalue { ptr, i32 } %15, 0
  %17 = extractvalue { ptr, i32 } %15, 1
  store ptr %16, ptr %0, align 8
  %18 = getelementptr inbounds i8, ptr %0, i64 8
  store i32 %17, ptr %18, align 8
  br label %bb3

bb1:                                              ; preds = %start
; invoke core::result::Result<T,E>::expect
  invoke void @"_ZN4core6result19Result$LT$T$C$E$GT$6expect17hc8e43af1e0cacad3E"(i1 zeroext %_7, ptr align 1 @alloc_cc656815297f75969399c3f4b1ad3de4, i64 55, ptr align 8 @alloc_f886f96e9a07c60a12107d674cf0d185)
          to label %bb2 unwind label %cleanup

bb2:                                              ; preds = %bb1
  call void @llvm.memcpy.p0.p0.i64(ptr align 8 %_0, ptr align 8 %buf, i64 24, i1 false)
  ret void

terminate:                                        ; preds = %bb3
  %19 = landingpad { ptr, i32 }
          filter [0 x ptr] zeroinitializer
  %20 = extractvalue { ptr, i32 } %19, 0
  %21 = extractvalue { ptr, i32 } %19, 1
; call core::panicking::panic_in_cleanup
  call void @_ZN4core9panicking16panic_in_cleanup17h43442956f23e9cbeE() #26
  unreachable

bb4:                                              ; preds = %bb3
  %22 = load ptr, ptr %0, align 8
  %23 = getelementptr inbounds i8, ptr %0, i64 8
  %24 = load i32, ptr %23, align 8
  %25 = insertvalue { ptr, i32 } poison, ptr %22, 0
  %26 = insertvalue { ptr, i32 } %25, i32 %24, 1
  resume { ptr, i32 } %26
}

; <T as alloc::string::ToString>::to_string
; Function Attrs: inlinehint nonlazybind uwtable
define void @"_ZN45_$LT$T$u20$as$u20$alloc..string..ToString$GT$9to_string17h2632bf872344f2b0E"(ptr sret([24 x i8]) align 8 %_0, ptr align 4 %self) unnamed_addr #0 personality ptr @rust_eh_personality {
start:
  %0 = alloca [16 x i8], align 8
  %_10 = alloca [24 x i8], align 8
  %formatter = alloca [64 x i8], align 8
  %buf = alloca [24 x i8], align 8
  store i64 0, ptr %_10, align 8
  %1 = getelementptr inbounds i8, ptr %_10, i64 8
  store ptr inttoptr (i64 1 to ptr), ptr %1, align 8
  %2 = getelementptr inbounds i8, ptr %_10, i64 16
  store i64 0, ptr %2, align 8
  call void @llvm.memcpy.p0.p0.i64(ptr align 8 %buf, ptr align 8 %_10, i64 24, i1 false)
  %3 = getelementptr inbounds i8, ptr %formatter, i64 52
  store i32 0, ptr %3, align 4
  %4 = getelementptr inbounds i8, ptr %formatter, i64 48
  store i32 32, ptr %4, align 8
  %5 = getelementptr inbounds i8, ptr %formatter, i64 56
  store i8 3, ptr %5, align 8
  %6 = load i64, ptr @0, align 8
  %7 = load i64, ptr getelementptr inbounds (i8, ptr @0, i64 8), align 8
  store i64 %6, ptr %formatter, align 8
  %8 = getelementptr inbounds i8, ptr %formatter, i64 8
  store i64 %7, ptr %8, align 8
  %9 = load i64, ptr @0, align 8
  %10 = load i64, ptr getelementptr inbounds (i8, ptr @0, i64 8), align 8
  %11 = getelementptr inbounds i8, ptr %formatter, i64 16
  store i64 %9, ptr %11, align 8
  %12 = getelementptr inbounds i8, ptr %11, i64 8
  store i64 %10, ptr %12, align 8
  %13 = getelementptr inbounds i8, ptr %formatter, i64 32
  store ptr %buf, ptr %13, align 8
  %14 = getelementptr inbounds i8, ptr %13, i64 8
  store ptr @vtable.0, ptr %14, align 8
; invoke core::fmt::float::<impl core::fmt::Display for f32>::fmt
  %_7 = invoke zeroext i1 @"_ZN4core3fmt5float52_$LT$impl$u20$core..fmt..Display$u20$for$u20$f32$GT$3fmt17h9d1fb135b90234dbE"(ptr align 4 %self, ptr align 8 %formatter)
          to label %bb1 unwind label %cleanup

bb3:                                              ; preds = %cleanup
; invoke core::ptr::drop_in_place<alloc::string::String>
  invoke void @"_ZN4core3ptr42drop_in_place$LT$alloc..string..String$GT$17h32add1a642bb0b4eE"(ptr align 8 %buf) #25
          to label %bb4 unwind label %terminate

cleanup:                                          ; preds = %bb1, %start
  %15 = landingpad { ptr, i32 }
          cleanup
  %16 = extractvalue { ptr, i32 } %15, 0
  %17 = extractvalue { ptr, i32 } %15, 1
  store ptr %16, ptr %0, align 8
  %18 = getelementptr inbounds i8, ptr %0, i64 8
  store i32 %17, ptr %18, align 8
  br label %bb3

bb1:                                              ; preds = %start
; invoke core::result::Result<T,E>::expect
  invoke void @"_ZN4core6result19Result$LT$T$C$E$GT$6expect17hc8e43af1e0cacad3E"(i1 zeroext %_7, ptr align 1 @alloc_cc656815297f75969399c3f4b1ad3de4, i64 55, ptr align 8 @alloc_f886f96e9a07c60a12107d674cf0d185)
          to label %bb2 unwind label %cleanup

bb2:                                              ; preds = %bb1
  call void @llvm.memcpy.p0.p0.i64(ptr align 8 %_0, ptr align 8 %buf, i64 24, i1 false)
  ret void

terminate:                                        ; preds = %bb3
  %19 = landingpad { ptr, i32 }
          filter [0 x ptr] zeroinitializer
  %20 = extractvalue { ptr, i32 } %19, 0
  %21 = extractvalue { ptr, i32 } %19, 1
; call core::panicking::panic_in_cleanup
  call void @_ZN4core9panicking16panic_in_cleanup17h43442956f23e9cbeE() #26
  unreachable

bb4:                                              ; preds = %bb3
  %22 = load ptr, ptr %0, align 8
  %23 = getelementptr inbounds i8, ptr %0, i64 8
  %24 = load i32, ptr %23, align 8
  %25 = insertvalue { ptr, i32 } poison, ptr %22, 0
  %26 = insertvalue { ptr, i32 } %25, i32 %24, 1
  resume { ptr, i32 } %26
}

; <T as alloc::string::ToString>::to_string
; Function Attrs: inlinehint nonlazybind uwtable
define void @"_ZN45_$LT$T$u20$as$u20$alloc..string..ToString$GT$9to_string17h795939dcc53db5daE"(ptr sret([24 x i8]) align 8 %_0, ptr align 4 %self) unnamed_addr #0 personality ptr @rust_eh_personality {
start:
  %0 = alloca [16 x i8], align 8
  %_10 = alloca [24 x i8], align 8
  %formatter = alloca [64 x i8], align 8
  %buf = alloca [24 x i8], align 8
  store i64 0, ptr %_10, align 8
  %1 = getelementptr inbounds i8, ptr %_10, i64 8
  store ptr inttoptr (i64 1 to ptr), ptr %1, align 8
  %2 = getelementptr inbounds i8, ptr %_10, i64 16
  store i64 0, ptr %2, align 8
  call void @llvm.memcpy.p0.p0.i64(ptr align 8 %buf, ptr align 8 %_10, i64 24, i1 false)
  %3 = getelementptr inbounds i8, ptr %formatter, i64 52
  store i32 0, ptr %3, align 4
  %4 = getelementptr inbounds i8, ptr %formatter, i64 48
  store i32 32, ptr %4, align 8
  %5 = getelementptr inbounds i8, ptr %formatter, i64 56
  store i8 3, ptr %5, align 8
  %6 = load i64, ptr @0, align 8
  %7 = load i64, ptr getelementptr inbounds (i8, ptr @0, i64 8), align 8
  store i64 %6, ptr %formatter, align 8
  %8 = getelementptr inbounds i8, ptr %formatter, i64 8
  store i64 %7, ptr %8, align 8
  %9 = load i64, ptr @0, align 8
  %10 = load i64, ptr getelementptr inbounds (i8, ptr @0, i64 8), align 8
  %11 = getelementptr inbounds i8, ptr %formatter, i64 16
  store i64 %9, ptr %11, align 8
  %12 = getelementptr inbounds i8, ptr %11, i64 8
  store i64 %10, ptr %12, align 8
  %13 = getelementptr inbounds i8, ptr %formatter, i64 32
  store ptr %buf, ptr %13, align 8
  %14 = getelementptr inbounds i8, ptr %13, i64 8
  store ptr @vtable.0, ptr %14, align 8
; invoke core::fmt::num::imp::<impl core::fmt::Display for u32>::fmt
  %_7 = invoke zeroext i1 @"_ZN4core3fmt3num3imp52_$LT$impl$u20$core..fmt..Display$u20$for$u20$u32$GT$3fmt17h2bca854f0e3dfdc9E"(ptr align 4 %self, ptr align 8 %formatter)
          to label %bb1 unwind label %cleanup

bb3:                                              ; preds = %cleanup
; invoke core::ptr::drop_in_place<alloc::string::String>
  invoke void @"_ZN4core3ptr42drop_in_place$LT$alloc..string..String$GT$17h32add1a642bb0b4eE"(ptr align 8 %buf) #25
          to label %bb4 unwind label %terminate

cleanup:                                          ; preds = %bb1, %start
  %15 = landingpad { ptr, i32 }
          cleanup
  %16 = extractvalue { ptr, i32 } %15, 0
  %17 = extractvalue { ptr, i32 } %15, 1
  store ptr %16, ptr %0, align 8
  %18 = getelementptr inbounds i8, ptr %0, i64 8
  store i32 %17, ptr %18, align 8
  br label %bb3

bb1:                                              ; preds = %start
; invoke core::result::Result<T,E>::expect
  invoke void @"_ZN4core6result19Result$LT$T$C$E$GT$6expect17hc8e43af1e0cacad3E"(i1 zeroext %_7, ptr align 1 @alloc_cc656815297f75969399c3f4b1ad3de4, i64 55, ptr align 8 @alloc_f886f96e9a07c60a12107d674cf0d185)
          to label %bb2 unwind label %cleanup

bb2:                                              ; preds = %bb1
  call void @llvm.memcpy.p0.p0.i64(ptr align 8 %_0, ptr align 8 %buf, i64 24, i1 false)
  ret void

terminate:                                        ; preds = %bb3
  %19 = landingpad { ptr, i32 }
          filter [0 x ptr] zeroinitializer
  %20 = extractvalue { ptr, i32 } %19, 0
  %21 = extractvalue { ptr, i32 } %19, 1
; call core::panicking::panic_in_cleanup
  call void @_ZN4core9panicking16panic_in_cleanup17h43442956f23e9cbeE() #26
  unreachable

bb4:                                              ; preds = %bb3
  %22 = load ptr, ptr %0, align 8
  %23 = getelementptr inbounds i8, ptr %0, i64 8
  %24 = load i32, ptr %23, align 8
  %25 = insertvalue { ptr, i32 } poison, ptr %22, 0
  %26 = insertvalue { ptr, i32 } %25, i32 %24, 1
  resume { ptr, i32 } %26
}

; <T as alloc::string::ToString>::to_string
; Function Attrs: inlinehint nonlazybind uwtable
define void @"_ZN45_$LT$T$u20$as$u20$alloc..string..ToString$GT$9to_string17h97e4fce07de56d2cE"(ptr sret([24 x i8]) align 8 %_0, ptr align 16 %self) unnamed_addr #0 personality ptr @rust_eh_personality {
start:
  %0 = alloca [16 x i8], align 8
  %_10 = alloca [24 x i8], align 8
  %formatter = alloca [64 x i8], align 8
  %buf = alloca [24 x i8], align 8
  store i64 0, ptr %_10, align 8
  %1 = getelementptr inbounds i8, ptr %_10, i64 8
  store ptr inttoptr (i64 1 to ptr), ptr %1, align 8
  %2 = getelementptr inbounds i8, ptr %_10, i64 16
  store i64 0, ptr %2, align 8
  call void @llvm.memcpy.p0.p0.i64(ptr align 8 %buf, ptr align 8 %_10, i64 24, i1 false)
  %3 = getelementptr inbounds i8, ptr %formatter, i64 52
  store i32 0, ptr %3, align 4
  %4 = getelementptr inbounds i8, ptr %formatter, i64 48
  store i32 32, ptr %4, align 8
  %5 = getelementptr inbounds i8, ptr %formatter, i64 56
  store i8 3, ptr %5, align 8
  %6 = load i64, ptr @0, align 8
  %7 = load i64, ptr getelementptr inbounds (i8, ptr @0, i64 8), align 8
  store i64 %6, ptr %formatter, align 8
  %8 = getelementptr inbounds i8, ptr %formatter, i64 8
  store i64 %7, ptr %8, align 8
  %9 = load i64, ptr @0, align 8
  %10 = load i64, ptr getelementptr inbounds (i8, ptr @0, i64 8), align 8
  %11 = getelementptr inbounds i8, ptr %formatter, i64 16
  store i64 %9, ptr %11, align 8
  %12 = getelementptr inbounds i8, ptr %11, i64 8
  store i64 %10, ptr %12, align 8
  %13 = getelementptr inbounds i8, ptr %formatter, i64 32
  store ptr %buf, ptr %13, align 8
  %14 = getelementptr inbounds i8, ptr %13, i64 8
  store ptr @vtable.0, ptr %14, align 8
; invoke core::fmt::num::<impl core::fmt::Display for u128>::fmt
  %_7 = invoke zeroext i1 @"_ZN4core3fmt3num53_$LT$impl$u20$core..fmt..Display$u20$for$u20$u128$GT$3fmt17h53f8c3c9c9658b88E"(ptr align 16 %self, ptr align 8 %formatter)
          to label %bb1 unwind label %cleanup

bb3:                                              ; preds = %cleanup
; invoke core::ptr::drop_in_place<alloc::string::String>
  invoke void @"_ZN4core3ptr42drop_in_place$LT$alloc..string..String$GT$17h32add1a642bb0b4eE"(ptr align 8 %buf) #25
          to label %bb4 unwind label %terminate

cleanup:                                          ; preds = %bb1, %start
  %15 = landingpad { ptr, i32 }
          cleanup
  %16 = extractvalue { ptr, i32 } %15, 0
  %17 = extractvalue { ptr, i32 } %15, 1
  store ptr %16, ptr %0, align 8
  %18 = getelementptr inbounds i8, ptr %0, i64 8
  store i32 %17, ptr %18, align 8
  br label %bb3

bb1:                                              ; preds = %start
; invoke core::result::Result<T,E>::expect
  invoke void @"_ZN4core6result19Result$LT$T$C$E$GT$6expect17hc8e43af1e0cacad3E"(i1 zeroext %_7, ptr align 1 @alloc_cc656815297f75969399c3f4b1ad3de4, i64 55, ptr align 8 @alloc_f886f96e9a07c60a12107d674cf0d185)
          to label %bb2 unwind label %cleanup

bb2:                                              ; preds = %bb1
  call void @llvm.memcpy.p0.p0.i64(ptr align 8 %_0, ptr align 8 %buf, i64 24, i1 false)
  ret void

terminate:                                        ; preds = %bb3
  %19 = landingpad { ptr, i32 }
          filter [0 x ptr] zeroinitializer
  %20 = extractvalue { ptr, i32 } %19, 0
  %21 = extractvalue { ptr, i32 } %19, 1
; call core::panicking::panic_in_cleanup
  call void @_ZN4core9panicking16panic_in_cleanup17h43442956f23e9cbeE() #26
  unreachable

bb4:                                              ; preds = %bb3
  %22 = load ptr, ptr %0, align 8
  %23 = getelementptr inbounds i8, ptr %0, i64 8
  %24 = load i32, ptr %23, align 8
  %25 = insertvalue { ptr, i32 } poison, ptr %22, 0
  %26 = insertvalue { ptr, i32 } %25, i32 %24, 1
  resume { ptr, i32 } %26
}

; <T as alloc::string::ToString>::to_string
; Function Attrs: inlinehint nonlazybind uwtable
define void @"_ZN45_$LT$T$u20$as$u20$alloc..string..ToString$GT$9to_string17ha9a334f45b5af9abE"(ptr sret([24 x i8]) align 8 %_0, ptr align 8 %self) unnamed_addr #0 personality ptr @rust_eh_personality {
start:
  %0 = alloca [16 x i8], align 8
  %_10 = alloca [24 x i8], align 8
  %formatter = alloca [64 x i8], align 8
  %buf = alloca [24 x i8], align 8
  store i64 0, ptr %_10, align 8
  %1 = getelementptr inbounds i8, ptr %_10, i64 8
  store ptr inttoptr (i64 1 to ptr), ptr %1, align 8
  %2 = getelementptr inbounds i8, ptr %_10, i64 16
  store i64 0, ptr %2, align 8
  call void @llvm.memcpy.p0.p0.i64(ptr align 8 %buf, ptr align 8 %_10, i64 24, i1 false)
  %3 = getelementptr inbounds i8, ptr %formatter, i64 52
  store i32 0, ptr %3, align 4
  %4 = getelementptr inbounds i8, ptr %formatter, i64 48
  store i32 32, ptr %4, align 8
  %5 = getelementptr inbounds i8, ptr %formatter, i64 56
  store i8 3, ptr %5, align 8
  %6 = load i64, ptr @0, align 8
  %7 = load i64, ptr getelementptr inbounds (i8, ptr @0, i64 8), align 8
  store i64 %6, ptr %formatter, align 8
  %8 = getelementptr inbounds i8, ptr %formatter, i64 8
  store i64 %7, ptr %8, align 8
  %9 = load i64, ptr @0, align 8
  %10 = load i64, ptr getelementptr inbounds (i8, ptr @0, i64 8), align 8
  %11 = getelementptr inbounds i8, ptr %formatter, i64 16
  store i64 %9, ptr %11, align 8
  %12 = getelementptr inbounds i8, ptr %11, i64 8
  store i64 %10, ptr %12, align 8
  %13 = getelementptr inbounds i8, ptr %formatter, i64 32
  store ptr %buf, ptr %13, align 8
  %14 = getelementptr inbounds i8, ptr %13, i64 8
  store ptr @vtable.0, ptr %14, align 8
; invoke core::fmt::num::imp::<impl core::fmt::Display for isize>::fmt
  %_7 = invoke zeroext i1 @"_ZN4core3fmt3num3imp54_$LT$impl$u20$core..fmt..Display$u20$for$u20$isize$GT$3fmt17h709f746719dccc8dE"(ptr align 8 %self, ptr align 8 %formatter)
          to label %bb1 unwind label %cleanup

bb3:                                              ; preds = %cleanup
; invoke core::ptr::drop_in_place<alloc::string::String>
  invoke void @"_ZN4core3ptr42drop_in_place$LT$alloc..string..String$GT$17h32add1a642bb0b4eE"(ptr align 8 %buf) #25
          to label %bb4 unwind label %terminate

cleanup:                                          ; preds = %bb1, %start
  %15 = landingpad { ptr, i32 }
          cleanup
  %16 = extractvalue { ptr, i32 } %15, 0
  %17 = extractvalue { ptr, i32 } %15, 1
  store ptr %16, ptr %0, align 8
  %18 = getelementptr inbounds i8, ptr %0, i64 8
  store i32 %17, ptr %18, align 8
  br label %bb3

bb1:                                              ; preds = %start
; invoke core::result::Result<T,E>::expect
  invoke void @"_ZN4core6result19Result$LT$T$C$E$GT$6expect17hc8e43af1e0cacad3E"(i1 zeroext %_7, ptr align 1 @alloc_cc656815297f75969399c3f4b1ad3de4, i64 55, ptr align 8 @alloc_f886f96e9a07c60a12107d674cf0d185)
          to label %bb2 unwind label %cleanup

bb2:                                              ; preds = %bb1
  call void @llvm.memcpy.p0.p0.i64(ptr align 8 %_0, ptr align 8 %buf, i64 24, i1 false)
  ret void

terminate:                                        ; preds = %bb3
  %19 = landingpad { ptr, i32 }
          filter [0 x ptr] zeroinitializer
  %20 = extractvalue { ptr, i32 } %19, 0
  %21 = extractvalue { ptr, i32 } %19, 1
; call core::panicking::panic_in_cleanup
  call void @_ZN4core9panicking16panic_in_cleanup17h43442956f23e9cbeE() #26
  unreachable

bb4:                                              ; preds = %bb3
  %22 = load ptr, ptr %0, align 8
  %23 = getelementptr inbounds i8, ptr %0, i64 8
  %24 = load i32, ptr %23, align 8
  %25 = insertvalue { ptr, i32 } poison, ptr %22, 0
  %26 = insertvalue { ptr, i32 } %25, i32 %24, 1
  resume { ptr, i32 } %26
}

; <T as alloc::string::ToString>::to_string
; Function Attrs: inlinehint nonlazybind uwtable
define void @"_ZN45_$LT$T$u20$as$u20$alloc..string..ToString$GT$9to_string17hb9e45ec6e9b397a6E"(ptr sret([24 x i8]) align 8 %_0, ptr align 4 %self) unnamed_addr #0 personality ptr @rust_eh_personality {
start:
  %0 = alloca [16 x i8], align 8
  %_10 = alloca [24 x i8], align 8
  %formatter = alloca [64 x i8], align 8
  %buf = alloca [24 x i8], align 8
  store i64 0, ptr %_10, align 8
  %1 = getelementptr inbounds i8, ptr %_10, i64 8
  store ptr inttoptr (i64 1 to ptr), ptr %1, align 8
  %2 = getelementptr inbounds i8, ptr %_10, i64 16
  store i64 0, ptr %2, align 8
  call void @llvm.memcpy.p0.p0.i64(ptr align 8 %buf, ptr align 8 %_10, i64 24, i1 false)
  %3 = getelementptr inbounds i8, ptr %formatter, i64 52
  store i32 0, ptr %3, align 4
  %4 = getelementptr inbounds i8, ptr %formatter, i64 48
  store i32 32, ptr %4, align 8
  %5 = getelementptr inbounds i8, ptr %formatter, i64 56
  store i8 3, ptr %5, align 8
  %6 = load i64, ptr @0, align 8
  %7 = load i64, ptr getelementptr inbounds (i8, ptr @0, i64 8), align 8
  store i64 %6, ptr %formatter, align 8
  %8 = getelementptr inbounds i8, ptr %formatter, i64 8
  store i64 %7, ptr %8, align 8
  %9 = load i64, ptr @0, align 8
  %10 = load i64, ptr getelementptr inbounds (i8, ptr @0, i64 8), align 8
  %11 = getelementptr inbounds i8, ptr %formatter, i64 16
  store i64 %9, ptr %11, align 8
  %12 = getelementptr inbounds i8, ptr %11, i64 8
  store i64 %10, ptr %12, align 8
  %13 = getelementptr inbounds i8, ptr %formatter, i64 32
  store ptr %buf, ptr %13, align 8
  %14 = getelementptr inbounds i8, ptr %13, i64 8
  store ptr @vtable.0, ptr %14, align 8
; invoke core::fmt::num::imp::<impl core::fmt::Display for i32>::fmt
  %_7 = invoke zeroext i1 @"_ZN4core3fmt3num3imp52_$LT$impl$u20$core..fmt..Display$u20$for$u20$i32$GT$3fmt17h83d00f149ba150d3E"(ptr align 4 %self, ptr align 8 %formatter)
          to label %bb1 unwind label %cleanup

bb3:                                              ; preds = %cleanup
; invoke core::ptr::drop_in_place<alloc::string::String>
  invoke void @"_ZN4core3ptr42drop_in_place$LT$alloc..string..String$GT$17h32add1a642bb0b4eE"(ptr align 8 %buf) #25
          to label %bb4 unwind label %terminate

cleanup:                                          ; preds = %bb1, %start
  %15 = landingpad { ptr, i32 }
          cleanup
  %16 = extractvalue { ptr, i32 } %15, 0
  %17 = extractvalue { ptr, i32 } %15, 1
  store ptr %16, ptr %0, align 8
  %18 = getelementptr inbounds i8, ptr %0, i64 8
  store i32 %17, ptr %18, align 8
  br label %bb3

bb1:                                              ; preds = %start
; invoke core::result::Result<T,E>::expect
  invoke void @"_ZN4core6result19Result$LT$T$C$E$GT$6expect17hc8e43af1e0cacad3E"(i1 zeroext %_7, ptr align 1 @alloc_cc656815297f75969399c3f4b1ad3de4, i64 55, ptr align 8 @alloc_f886f96e9a07c60a12107d674cf0d185)
          to label %bb2 unwind label %cleanup

bb2:                                              ; preds = %bb1
  call void @llvm.memcpy.p0.p0.i64(ptr align 8 %_0, ptr align 8 %buf, i64 24, i1 false)
  ret void

terminate:                                        ; preds = %bb3
  %19 = landingpad { ptr, i32 }
          filter [0 x ptr] zeroinitializer
  %20 = extractvalue { ptr, i32 } %19, 0
  %21 = extractvalue { ptr, i32 } %19, 1
; call core::panicking::panic_in_cleanup
  call void @_ZN4core9panicking16panic_in_cleanup17h43442956f23e9cbeE() #26
  unreachable

bb4:                                              ; preds = %bb3
  %22 = load ptr, ptr %0, align 8
  %23 = getelementptr inbounds i8, ptr %0, i64 8
  %24 = load i32, ptr %23, align 8
  %25 = insertvalue { ptr, i32 } poison, ptr %22, 0
  %26 = insertvalue { ptr, i32 } %25, i32 %24, 1
  resume { ptr, i32 } %26
}

; <T as alloc::string::ToString>::to_string
; Function Attrs: inlinehint nonlazybind uwtable
define void @"_ZN45_$LT$T$u20$as$u20$alloc..string..ToString$GT$9to_string17hc76ccbad6d89f13dE"(ptr sret([24 x i8]) align 8 %_0, ptr align 8 %self) unnamed_addr #0 personality ptr @rust_eh_personality {
start:
  %0 = alloca [16 x i8], align 8
  %_10 = alloca [24 x i8], align 8
  %formatter = alloca [64 x i8], align 8
  %buf = alloca [24 x i8], align 8
  store i64 0, ptr %_10, align 8
  %1 = getelementptr inbounds i8, ptr %_10, i64 8
  store ptr inttoptr (i64 1 to ptr), ptr %1, align 8
  %2 = getelementptr inbounds i8, ptr %_10, i64 16
  store i64 0, ptr %2, align 8
  call void @llvm.memcpy.p0.p0.i64(ptr align 8 %buf, ptr align 8 %_10, i64 24, i1 false)
  %3 = getelementptr inbounds i8, ptr %formatter, i64 52
  store i32 0, ptr %3, align 4
  %4 = getelementptr inbounds i8, ptr %formatter, i64 48
  store i32 32, ptr %4, align 8
  %5 = getelementptr inbounds i8, ptr %formatter, i64 56
  store i8 3, ptr %5, align 8
  %6 = load i64, ptr @0, align 8
  %7 = load i64, ptr getelementptr inbounds (i8, ptr @0, i64 8), align 8
  store i64 %6, ptr %formatter, align 8
  %8 = getelementptr inbounds i8, ptr %formatter, i64 8
  store i64 %7, ptr %8, align 8
  %9 = load i64, ptr @0, align 8
  %10 = load i64, ptr getelementptr inbounds (i8, ptr @0, i64 8), align 8
  %11 = getelementptr inbounds i8, ptr %formatter, i64 16
  store i64 %9, ptr %11, align 8
  %12 = getelementptr inbounds i8, ptr %11, i64 8
  store i64 %10, ptr %12, align 8
  %13 = getelementptr inbounds i8, ptr %formatter, i64 32
  store ptr %buf, ptr %13, align 8
  %14 = getelementptr inbounds i8, ptr %13, i64 8
  store ptr @vtable.0, ptr %14, align 8
; invoke core::fmt::num::imp::<impl core::fmt::Display for usize>::fmt
  %_7 = invoke zeroext i1 @"_ZN4core3fmt3num3imp54_$LT$impl$u20$core..fmt..Display$u20$for$u20$usize$GT$3fmt17hdabfc7932e5a3df0E"(ptr align 8 %self, ptr align 8 %formatter)
          to label %bb1 unwind label %cleanup

bb3:                                              ; preds = %cleanup
; invoke core::ptr::drop_in_place<alloc::string::String>
  invoke void @"_ZN4core3ptr42drop_in_place$LT$alloc..string..String$GT$17h32add1a642bb0b4eE"(ptr align 8 %buf) #25
          to label %bb4 unwind label %terminate

cleanup:                                          ; preds = %bb1, %start
  %15 = landingpad { ptr, i32 }
          cleanup
  %16 = extractvalue { ptr, i32 } %15, 0
  %17 = extractvalue { ptr, i32 } %15, 1
  store ptr %16, ptr %0, align 8
  %18 = getelementptr inbounds i8, ptr %0, i64 8
  store i32 %17, ptr %18, align 8
  br label %bb3

bb1:                                              ; preds = %start
; invoke core::result::Result<T,E>::expect
  invoke void @"_ZN4core6result19Result$LT$T$C$E$GT$6expect17hc8e43af1e0cacad3E"(i1 zeroext %_7, ptr align 1 @alloc_cc656815297f75969399c3f4b1ad3de4, i64 55, ptr align 8 @alloc_f886f96e9a07c60a12107d674cf0d185)
          to label %bb2 unwind label %cleanup

bb2:                                              ; preds = %bb1
  call void @llvm.memcpy.p0.p0.i64(ptr align 8 %_0, ptr align 8 %buf, i64 24, i1 false)
  ret void

terminate:                                        ; preds = %bb3
  %19 = landingpad { ptr, i32 }
          filter [0 x ptr] zeroinitializer
  %20 = extractvalue { ptr, i32 } %19, 0
  %21 = extractvalue { ptr, i32 } %19, 1
; call core::panicking::panic_in_cleanup
  call void @_ZN4core9panicking16panic_in_cleanup17h43442956f23e9cbeE() #26
  unreachable

bb4:                                              ; preds = %bb3
  %22 = load ptr, ptr %0, align 8
  %23 = getelementptr inbounds i8, ptr %0, i64 8
  %24 = load i32, ptr %23, align 8
  %25 = insertvalue { ptr, i32 } poison, ptr %22, 0
  %26 = insertvalue { ptr, i32 } %25, i32 %24, 1
  resume { ptr, i32 } %26
}

; <T as alloc::string::ToString>::to_string
; Function Attrs: inlinehint nonlazybind uwtable
define void @"_ZN45_$LT$T$u20$as$u20$alloc..string..ToString$GT$9to_string17hcb36413e52dfce93E"(ptr sret([24 x i8]) align 8 %_0, ptr align 2 %self) unnamed_addr #0 personality ptr @rust_eh_personality {
start:
  %0 = alloca [16 x i8], align 8
  %_10 = alloca [24 x i8], align 8
  %formatter = alloca [64 x i8], align 8
  %buf = alloca [24 x i8], align 8
  store i64 0, ptr %_10, align 8
  %1 = getelementptr inbounds i8, ptr %_10, i64 8
  store ptr inttoptr (i64 1 to ptr), ptr %1, align 8
  %2 = getelementptr inbounds i8, ptr %_10, i64 16
  store i64 0, ptr %2, align 8
  call void @llvm.memcpy.p0.p0.i64(ptr align 8 %buf, ptr align 8 %_10, i64 24, i1 false)
  %3 = getelementptr inbounds i8, ptr %formatter, i64 52
  store i32 0, ptr %3, align 4
  %4 = getelementptr inbounds i8, ptr %formatter, i64 48
  store i32 32, ptr %4, align 8
  %5 = getelementptr inbounds i8, ptr %formatter, i64 56
  store i8 3, ptr %5, align 8
  %6 = load i64, ptr @0, align 8
  %7 = load i64, ptr getelementptr inbounds (i8, ptr @0, i64 8), align 8
  store i64 %6, ptr %formatter, align 8
  %8 = getelementptr inbounds i8, ptr %formatter, i64 8
  store i64 %7, ptr %8, align 8
  %9 = load i64, ptr @0, align 8
  %10 = load i64, ptr getelementptr inbounds (i8, ptr @0, i64 8), align 8
  %11 = getelementptr inbounds i8, ptr %formatter, i64 16
  store i64 %9, ptr %11, align 8
  %12 = getelementptr inbounds i8, ptr %11, i64 8
  store i64 %10, ptr %12, align 8
  %13 = getelementptr inbounds i8, ptr %formatter, i64 32
  store ptr %buf, ptr %13, align 8
  %14 = getelementptr inbounds i8, ptr %13, i64 8
  store ptr @vtable.0, ptr %14, align 8
; invoke core::fmt::num::imp::<impl core::fmt::Display for u16>::fmt
  %_7 = invoke zeroext i1 @"_ZN4core3fmt3num3imp52_$LT$impl$u20$core..fmt..Display$u20$for$u20$u16$GT$3fmt17h4cf804de4f49c839E"(ptr align 2 %self, ptr align 8 %formatter)
          to label %bb1 unwind label %cleanup

bb3:                                              ; preds = %cleanup
; invoke core::ptr::drop_in_place<alloc::string::String>
  invoke void @"_ZN4core3ptr42drop_in_place$LT$alloc..string..String$GT$17h32add1a642bb0b4eE"(ptr align 8 %buf) #25
          to label %bb4 unwind label %terminate

cleanup:                                          ; preds = %bb1, %start
  %15 = landingpad { ptr, i32 }
          cleanup
  %16 = extractvalue { ptr, i32 } %15, 0
  %17 = extractvalue { ptr, i32 } %15, 1
  store ptr %16, ptr %0, align 8
  %18 = getelementptr inbounds i8, ptr %0, i64 8
  store i32 %17, ptr %18, align 8
  br label %bb3

bb1:                                              ; preds = %start
; invoke core::result::Result<T,E>::expect
  invoke void @"_ZN4core6result19Result$LT$T$C$E$GT$6expect17hc8e43af1e0cacad3E"(i1 zeroext %_7, ptr align 1 @alloc_cc656815297f75969399c3f4b1ad3de4, i64 55, ptr align 8 @alloc_f886f96e9a07c60a12107d674cf0d185)
          to label %bb2 unwind label %cleanup

bb2:                                              ; preds = %bb1
  call void @llvm.memcpy.p0.p0.i64(ptr align 8 %_0, ptr align 8 %buf, i64 24, i1 false)
  ret void

terminate:                                        ; preds = %bb3
  %19 = landingpad { ptr, i32 }
          filter [0 x ptr] zeroinitializer
  %20 = extractvalue { ptr, i32 } %19, 0
  %21 = extractvalue { ptr, i32 } %19, 1
; call core::panicking::panic_in_cleanup
  call void @_ZN4core9panicking16panic_in_cleanup17h43442956f23e9cbeE() #26
  unreachable

bb4:                                              ; preds = %bb3
  %22 = load ptr, ptr %0, align 8
  %23 = getelementptr inbounds i8, ptr %0, i64 8
  %24 = load i32, ptr %23, align 8
  %25 = insertvalue { ptr, i32 } poison, ptr %22, 0
  %26 = insertvalue { ptr, i32 } %25, i32 %24, 1
  resume { ptr, i32 } %26
}

; <T as alloc::string::ToString>::to_string
; Function Attrs: inlinehint nonlazybind uwtable
define void @"_ZN45_$LT$T$u20$as$u20$alloc..string..ToString$GT$9to_string17hcf458a619c10cf1cE"(ptr sret([24 x i8]) align 8 %_0, ptr align 2 %self) unnamed_addr #0 personality ptr @rust_eh_personality {
start:
  %0 = alloca [16 x i8], align 8
  %_10 = alloca [24 x i8], align 8
  %formatter = alloca [64 x i8], align 8
  %buf = alloca [24 x i8], align 8
  store i64 0, ptr %_10, align 8
  %1 = getelementptr inbounds i8, ptr %_10, i64 8
  store ptr inttoptr (i64 1 to ptr), ptr %1, align 8
  %2 = getelementptr inbounds i8, ptr %_10, i64 16
  store i64 0, ptr %2, align 8
  call void @llvm.memcpy.p0.p0.i64(ptr align 8 %buf, ptr align 8 %_10, i64 24, i1 false)
  %3 = getelementptr inbounds i8, ptr %formatter, i64 52
  store i32 0, ptr %3, align 4
  %4 = getelementptr inbounds i8, ptr %formatter, i64 48
  store i32 32, ptr %4, align 8
  %5 = getelementptr inbounds i8, ptr %formatter, i64 56
  store i8 3, ptr %5, align 8
  %6 = load i64, ptr @0, align 8
  %7 = load i64, ptr getelementptr inbounds (i8, ptr @0, i64 8), align 8
  store i64 %6, ptr %formatter, align 8
  %8 = getelementptr inbounds i8, ptr %formatter, i64 8
  store i64 %7, ptr %8, align 8
  %9 = load i64, ptr @0, align 8
  %10 = load i64, ptr getelementptr inbounds (i8, ptr @0, i64 8), align 8
  %11 = getelementptr inbounds i8, ptr %formatter, i64 16
  store i64 %9, ptr %11, align 8
  %12 = getelementptr inbounds i8, ptr %11, i64 8
  store i64 %10, ptr %12, align 8
  %13 = getelementptr inbounds i8, ptr %formatter, i64 32
  store ptr %buf, ptr %13, align 8
  %14 = getelementptr inbounds i8, ptr %13, i64 8
  store ptr @vtable.0, ptr %14, align 8
; invoke core::fmt::num::imp::<impl core::fmt::Display for i16>::fmt
  %_7 = invoke zeroext i1 @"_ZN4core3fmt3num3imp52_$LT$impl$u20$core..fmt..Display$u20$for$u20$i16$GT$3fmt17hc8f65d45dbff6373E"(ptr align 2 %self, ptr align 8 %formatter)
          to label %bb1 unwind label %cleanup

bb3:                                              ; preds = %cleanup
; invoke core::ptr::drop_in_place<alloc::string::String>
  invoke void @"_ZN4core3ptr42drop_in_place$LT$alloc..string..String$GT$17h32add1a642bb0b4eE"(ptr align 8 %buf) #25
          to label %bb4 unwind label %terminate

cleanup:                                          ; preds = %bb1, %start
  %15 = landingpad { ptr, i32 }
          cleanup
  %16 = extractvalue { ptr, i32 } %15, 0
  %17 = extractvalue { ptr, i32 } %15, 1
  store ptr %16, ptr %0, align 8
  %18 = getelementptr inbounds i8, ptr %0, i64 8
  store i32 %17, ptr %18, align 8
  br label %bb3

bb1:                                              ; preds = %start
; invoke core::result::Result<T,E>::expect
  invoke void @"_ZN4core6result19Result$LT$T$C$E$GT$6expect17hc8e43af1e0cacad3E"(i1 zeroext %_7, ptr align 1 @alloc_cc656815297f75969399c3f4b1ad3de4, i64 55, ptr align 8 @alloc_f886f96e9a07c60a12107d674cf0d185)
          to label %bb2 unwind label %cleanup

bb2:                                              ; preds = %bb1
  call void @llvm.memcpy.p0.p0.i64(ptr align 8 %_0, ptr align 8 %buf, i64 24, i1 false)
  ret void

terminate:                                        ; preds = %bb3
  %19 = landingpad { ptr, i32 }
          filter [0 x ptr] zeroinitializer
  %20 = extractvalue { ptr, i32 } %19, 0
  %21 = extractvalue { ptr, i32 } %19, 1
; call core::panicking::panic_in_cleanup
  call void @_ZN4core9panicking16panic_in_cleanup17h43442956f23e9cbeE() #26
  unreachable

bb4:                                              ; preds = %bb3
  %22 = load ptr, ptr %0, align 8
  %23 = getelementptr inbounds i8, ptr %0, i64 8
  %24 = load i32, ptr %23, align 8
  %25 = insertvalue { ptr, i32 } poison, ptr %22, 0
  %26 = insertvalue { ptr, i32 } %25, i32 %24, 1
  resume { ptr, i32 } %26
}

; <T as alloc::string::ToString>::to_string
; Function Attrs: inlinehint nonlazybind uwtable
define void @"_ZN45_$LT$T$u20$as$u20$alloc..string..ToString$GT$9to_string17hde21636323dc166eE"(ptr sret([24 x i8]) align 8 %_0, ptr align 8 %self) unnamed_addr #0 personality ptr @rust_eh_personality {
start:
  %0 = alloca [16 x i8], align 8
  %_10 = alloca [24 x i8], align 8
  %formatter = alloca [64 x i8], align 8
  %buf = alloca [24 x i8], align 8
  store i64 0, ptr %_10, align 8
  %1 = getelementptr inbounds i8, ptr %_10, i64 8
  store ptr inttoptr (i64 1 to ptr), ptr %1, align 8
  %2 = getelementptr inbounds i8, ptr %_10, i64 16
  store i64 0, ptr %2, align 8
  call void @llvm.memcpy.p0.p0.i64(ptr align 8 %buf, ptr align 8 %_10, i64 24, i1 false)
  %3 = getelementptr inbounds i8, ptr %formatter, i64 52
  store i32 0, ptr %3, align 4
  %4 = getelementptr inbounds i8, ptr %formatter, i64 48
  store i32 32, ptr %4, align 8
  %5 = getelementptr inbounds i8, ptr %formatter, i64 56
  store i8 3, ptr %5, align 8
  %6 = load i64, ptr @0, align 8
  %7 = load i64, ptr getelementptr inbounds (i8, ptr @0, i64 8), align 8
  store i64 %6, ptr %formatter, align 8
  %8 = getelementptr inbounds i8, ptr %formatter, i64 8
  store i64 %7, ptr %8, align 8
  %9 = load i64, ptr @0, align 8
  %10 = load i64, ptr getelementptr inbounds (i8, ptr @0, i64 8), align 8
  %11 = getelementptr inbounds i8, ptr %formatter, i64 16
  store i64 %9, ptr %11, align 8
  %12 = getelementptr inbounds i8, ptr %11, i64 8
  store i64 %10, ptr %12, align 8
  %13 = getelementptr inbounds i8, ptr %formatter, i64 32
  store ptr %buf, ptr %13, align 8
  %14 = getelementptr inbounds i8, ptr %13, i64 8
  store ptr @vtable.0, ptr %14, align 8
; invoke <proc_macro2::Ident as core::fmt::Display>::fmt
  %_7 = invoke zeroext i1 @"_ZN57_$LT$proc_macro2..Ident$u20$as$u20$core..fmt..Display$GT$3fmt17h13ab6285103b9791E"(ptr align 8 %self, ptr align 8 %formatter)
          to label %bb1 unwind label %cleanup

bb3:                                              ; preds = %cleanup
; invoke core::ptr::drop_in_place<alloc::string::String>
  invoke void @"_ZN4core3ptr42drop_in_place$LT$alloc..string..String$GT$17h32add1a642bb0b4eE"(ptr align 8 %buf) #25
          to label %bb4 unwind label %terminate

cleanup:                                          ; preds = %bb1, %start
  %15 = landingpad { ptr, i32 }
          cleanup
  %16 = extractvalue { ptr, i32 } %15, 0
  %17 = extractvalue { ptr, i32 } %15, 1
  store ptr %16, ptr %0, align 8
  %18 = getelementptr inbounds i8, ptr %0, i64 8
  store i32 %17, ptr %18, align 8
  br label %bb3

bb1:                                              ; preds = %start
; invoke core::result::Result<T,E>::expect
  invoke void @"_ZN4core6result19Result$LT$T$C$E$GT$6expect17hc8e43af1e0cacad3E"(i1 zeroext %_7, ptr align 1 @alloc_cc656815297f75969399c3f4b1ad3de4, i64 55, ptr align 8 @alloc_f886f96e9a07c60a12107d674cf0d185)
          to label %bb2 unwind label %cleanup

bb2:                                              ; preds = %bb1
  call void @llvm.memcpy.p0.p0.i64(ptr align 8 %_0, ptr align 8 %buf, i64 24, i1 false)
  ret void

terminate:                                        ; preds = %bb3
  %19 = landingpad { ptr, i32 }
          filter [0 x ptr] zeroinitializer
  %20 = extractvalue { ptr, i32 } %19, 0
  %21 = extractvalue { ptr, i32 } %19, 1
; call core::panicking::panic_in_cleanup
  call void @_ZN4core9panicking16panic_in_cleanup17h43442956f23e9cbeE() #26
  unreachable

bb4:                                              ; preds = %bb3
  %22 = load ptr, ptr %0, align 8
  %23 = getelementptr inbounds i8, ptr %0, i64 8
  %24 = load i32, ptr %23, align 8
  %25 = insertvalue { ptr, i32 } poison, ptr %22, 0
  %26 = insertvalue { ptr, i32 } %25, i32 %24, 1
  resume { ptr, i32 } %26
}

; <T as alloc::string::ToString>::to_string
; Function Attrs: inlinehint nonlazybind uwtable
define void @"_ZN45_$LT$T$u20$as$u20$alloc..string..ToString$GT$9to_string17hde652701f13d04b5E"(ptr sret([24 x i8]) align 8 %_0, ptr align 16 %self) unnamed_addr #0 personality ptr @rust_eh_personality {
start:
  %0 = alloca [16 x i8], align 8
  %_10 = alloca [24 x i8], align 8
  %formatter = alloca [64 x i8], align 8
  %buf = alloca [24 x i8], align 8
  store i64 0, ptr %_10, align 8
  %1 = getelementptr inbounds i8, ptr %_10, i64 8
  store ptr inttoptr (i64 1 to ptr), ptr %1, align 8
  %2 = getelementptr inbounds i8, ptr %_10, i64 16
  store i64 0, ptr %2, align 8
  call void @llvm.memcpy.p0.p0.i64(ptr align 8 %buf, ptr align 8 %_10, i64 24, i1 false)
  %3 = getelementptr inbounds i8, ptr %formatter, i64 52
  store i32 0, ptr %3, align 4
  %4 = getelementptr inbounds i8, ptr %formatter, i64 48
  store i32 32, ptr %4, align 8
  %5 = getelementptr inbounds i8, ptr %formatter, i64 56
  store i8 3, ptr %5, align 8
  %6 = load i64, ptr @0, align 8
  %7 = load i64, ptr getelementptr inbounds (i8, ptr @0, i64 8), align 8
  store i64 %6, ptr %formatter, align 8
  %8 = getelementptr inbounds i8, ptr %formatter, i64 8
  store i64 %7, ptr %8, align 8
  %9 = load i64, ptr @0, align 8
  %10 = load i64, ptr getelementptr inbounds (i8, ptr @0, i64 8), align 8
  %11 = getelementptr inbounds i8, ptr %formatter, i64 16
  store i64 %9, ptr %11, align 8
  %12 = getelementptr inbounds i8, ptr %11, i64 8
  store i64 %10, ptr %12, align 8
  %13 = getelementptr inbounds i8, ptr %formatter, i64 32
  store ptr %buf, ptr %13, align 8
  %14 = getelementptr inbounds i8, ptr %13, i64 8
  store ptr @vtable.0, ptr %14, align 8
; invoke core::fmt::num::<impl core::fmt::Display for i128>::fmt
  %_7 = invoke zeroext i1 @"_ZN4core3fmt3num53_$LT$impl$u20$core..fmt..Display$u20$for$u20$i128$GT$3fmt17h8a0854989bd1bd1dE"(ptr align 16 %self, ptr align 8 %formatter)
          to label %bb1 unwind label %cleanup

bb3:                                              ; preds = %cleanup
; invoke core::ptr::drop_in_place<alloc::string::String>
  invoke void @"_ZN4core3ptr42drop_in_place$LT$alloc..string..String$GT$17h32add1a642bb0b4eE"(ptr align 8 %buf) #25
          to label %bb4 unwind label %terminate

cleanup:                                          ; preds = %bb1, %start
  %15 = landingpad { ptr, i32 }
          cleanup
  %16 = extractvalue { ptr, i32 } %15, 0
  %17 = extractvalue { ptr, i32 } %15, 1
  store ptr %16, ptr %0, align 8
  %18 = getelementptr inbounds i8, ptr %0, i64 8
  store i32 %17, ptr %18, align 8
  br label %bb3

bb1:                                              ; preds = %start
; invoke core::result::Result<T,E>::expect
  invoke void @"_ZN4core6result19Result$LT$T$C$E$GT$6expect17hc8e43af1e0cacad3E"(i1 zeroext %_7, ptr align 1 @alloc_cc656815297f75969399c3f4b1ad3de4, i64 55, ptr align 8 @alloc_f886f96e9a07c60a12107d674cf0d185)
          to label %bb2 unwind label %cleanup

bb2:                                              ; preds = %bb1
  call void @llvm.memcpy.p0.p0.i64(ptr align 8 %_0, ptr align 8 %buf, i64 24, i1 false)
  ret void

terminate:                                        ; preds = %bb3
  %19 = landingpad { ptr, i32 }
          filter [0 x ptr] zeroinitializer
  %20 = extractvalue { ptr, i32 } %19, 0
  %21 = extractvalue { ptr, i32 } %19, 1
; call core::panicking::panic_in_cleanup
  call void @_ZN4core9panicking16panic_in_cleanup17h43442956f23e9cbeE() #26
  unreachable

bb4:                                              ; preds = %bb3
  %22 = load ptr, ptr %0, align 8
  %23 = getelementptr inbounds i8, ptr %0, i64 8
  %24 = load i32, ptr %23, align 8
  %25 = insertvalue { ptr, i32 } poison, ptr %22, 0
  %26 = insertvalue { ptr, i32 } %25, i32 %24, 1
  resume { ptr, i32 } %26
}

; <T as alloc::string::ToString>::to_string
; Function Attrs: inlinehint nonlazybind uwtable
define void @"_ZN45_$LT$T$u20$as$u20$alloc..string..ToString$GT$9to_string17he589f669e6d41345E"(ptr sret([24 x i8]) align 8 %_0, ptr align 8 %self) unnamed_addr #0 personality ptr @rust_eh_personality {
start:
  %0 = alloca [16 x i8], align 8
  %_10 = alloca [24 x i8], align 8
  %formatter = alloca [64 x i8], align 8
  %buf = alloca [24 x i8], align 8
  store i64 0, ptr %_10, align 8
  %1 = getelementptr inbounds i8, ptr %_10, i64 8
  store ptr inttoptr (i64 1 to ptr), ptr %1, align 8
  %2 = getelementptr inbounds i8, ptr %_10, i64 16
  store i64 0, ptr %2, align 8
  call void @llvm.memcpy.p0.p0.i64(ptr align 8 %buf, ptr align 8 %_10, i64 24, i1 false)
  %3 = getelementptr inbounds i8, ptr %formatter, i64 52
  store i32 0, ptr %3, align 4
  %4 = getelementptr inbounds i8, ptr %formatter, i64 48
  store i32 32, ptr %4, align 8
  %5 = getelementptr inbounds i8, ptr %formatter, i64 56
  store i8 3, ptr %5, align 8
  %6 = load i64, ptr @0, align 8
  %7 = load i64, ptr getelementptr inbounds (i8, ptr @0, i64 8), align 8
  store i64 %6, ptr %formatter, align 8
  %8 = getelementptr inbounds i8, ptr %formatter, i64 8
  store i64 %7, ptr %8, align 8
  %9 = load i64, ptr @0, align 8
  %10 = load i64, ptr getelementptr inbounds (i8, ptr @0, i64 8), align 8
  %11 = getelementptr inbounds i8, ptr %formatter, i64 16
  store i64 %9, ptr %11, align 8
  %12 = getelementptr inbounds i8, ptr %11, i64 8
  store i64 %10, ptr %12, align 8
  %13 = getelementptr inbounds i8, ptr %formatter, i64 32
  store ptr %buf, ptr %13, align 8
  %14 = getelementptr inbounds i8, ptr %13, i64 8
  store ptr @vtable.0, ptr %14, align 8
; invoke core::fmt::float::<impl core::fmt::Display for f64>::fmt
  %_7 = invoke zeroext i1 @"_ZN4core3fmt5float52_$LT$impl$u20$core..fmt..Display$u20$for$u20$f64$GT$3fmt17h458dab3bc31bc88aE"(ptr align 8 %self, ptr align 8 %formatter)
          to label %bb1 unwind label %cleanup

bb3:                                              ; preds = %cleanup
; invoke core::ptr::drop_in_place<alloc::string::String>
  invoke void @"_ZN4core3ptr42drop_in_place$LT$alloc..string..String$GT$17h32add1a642bb0b4eE"(ptr align 8 %buf) #25
          to label %bb4 unwind label %terminate

cleanup:                                          ; preds = %bb1, %start
  %15 = landingpad { ptr, i32 }
          cleanup
  %16 = extractvalue { ptr, i32 } %15, 0
  %17 = extractvalue { ptr, i32 } %15, 1
  store ptr %16, ptr %0, align 8
  %18 = getelementptr inbounds i8, ptr %0, i64 8
  store i32 %17, ptr %18, align 8
  br label %bb3

bb1:                                              ; preds = %start
; invoke core::result::Result<T,E>::expect
  invoke void @"_ZN4core6result19Result$LT$T$C$E$GT$6expect17hc8e43af1e0cacad3E"(i1 zeroext %_7, ptr align 1 @alloc_cc656815297f75969399c3f4b1ad3de4, i64 55, ptr align 8 @alloc_f886f96e9a07c60a12107d674cf0d185)
          to label %bb2 unwind label %cleanup

bb2:                                              ; preds = %bb1
  call void @llvm.memcpy.p0.p0.i64(ptr align 8 %_0, ptr align 8 %buf, i64 24, i1 false)
  ret void

terminate:                                        ; preds = %bb3
  %19 = landingpad { ptr, i32 }
          filter [0 x ptr] zeroinitializer
  %20 = extractvalue { ptr, i32 } %19, 0
  %21 = extractvalue { ptr, i32 } %19, 1
; call core::panicking::panic_in_cleanup
  call void @_ZN4core9panicking16panic_in_cleanup17h43442956f23e9cbeE() #26
  unreachable

bb4:                                              ; preds = %bb3
  %22 = load ptr, ptr %0, align 8
  %23 = getelementptr inbounds i8, ptr %0, i64 8
  %24 = load i32, ptr %23, align 8
  %25 = insertvalue { ptr, i32 } poison, ptr %22, 0
  %26 = insertvalue { ptr, i32 } %25, i32 %24, 1
  resume { ptr, i32 } %26
}

; <T as alloc::string::ToString>::to_string
; Function Attrs: inlinehint nonlazybind uwtable
define void @"_ZN45_$LT$T$u20$as$u20$alloc..string..ToString$GT$9to_string17hefda00df03ec6466E"(ptr sret([24 x i8]) align 8 %_0, ptr align 8 %self) unnamed_addr #0 personality ptr @rust_eh_personality {
start:
  %0 = alloca [16 x i8], align 8
  %_10 = alloca [24 x i8], align 8
  %formatter = alloca [64 x i8], align 8
  %buf = alloca [24 x i8], align 8
  store i64 0, ptr %_10, align 8
  %1 = getelementptr inbounds i8, ptr %_10, i64 8
  store ptr inttoptr (i64 1 to ptr), ptr %1, align 8
  %2 = getelementptr inbounds i8, ptr %_10, i64 16
  store i64 0, ptr %2, align 8
  call void @llvm.memcpy.p0.p0.i64(ptr align 8 %buf, ptr align 8 %_10, i64 24, i1 false)
  %3 = getelementptr inbounds i8, ptr %formatter, i64 52
  store i32 0, ptr %3, align 4
  %4 = getelementptr inbounds i8, ptr %formatter, i64 48
  store i32 32, ptr %4, align 8
  %5 = getelementptr inbounds i8, ptr %formatter, i64 56
  store i8 3, ptr %5, align 8
  %6 = load i64, ptr @0, align 8
  %7 = load i64, ptr getelementptr inbounds (i8, ptr @0, i64 8), align 8
  store i64 %6, ptr %formatter, align 8
  %8 = getelementptr inbounds i8, ptr %formatter, i64 8
  store i64 %7, ptr %8, align 8
  %9 = load i64, ptr @0, align 8
  %10 = load i64, ptr getelementptr inbounds (i8, ptr @0, i64 8), align 8
  %11 = getelementptr inbounds i8, ptr %formatter, i64 16
  store i64 %9, ptr %11, align 8
  %12 = getelementptr inbounds i8, ptr %11, i64 8
  store i64 %10, ptr %12, align 8
  %13 = getelementptr inbounds i8, ptr %formatter, i64 32
  store ptr %buf, ptr %13, align 8
  %14 = getelementptr inbounds i8, ptr %13, i64 8
  store ptr @vtable.0, ptr %14, align 8
; invoke core::fmt::num::imp::<impl core::fmt::Display for i64>::fmt
  %_7 = invoke zeroext i1 @"_ZN4core3fmt3num3imp52_$LT$impl$u20$core..fmt..Display$u20$for$u20$i64$GT$3fmt17h4d6e5db9f03e76fbE"(ptr align 8 %self, ptr align 8 %formatter)
          to label %bb1 unwind label %cleanup

bb3:                                              ; preds = %cleanup
; invoke core::ptr::drop_in_place<alloc::string::String>
  invoke void @"_ZN4core3ptr42drop_in_place$LT$alloc..string..String$GT$17h32add1a642bb0b4eE"(ptr align 8 %buf) #25
          to label %bb4 unwind label %terminate

cleanup:                                          ; preds = %bb1, %start
  %15 = landingpad { ptr, i32 }
          cleanup
  %16 = extractvalue { ptr, i32 } %15, 0
  %17 = extractvalue { ptr, i32 } %15, 1
  store ptr %16, ptr %0, align 8
  %18 = getelementptr inbounds i8, ptr %0, i64 8
  store i32 %17, ptr %18, align 8
  br label %bb3

bb1:                                              ; preds = %start
; invoke core::result::Result<T,E>::expect
  invoke void @"_ZN4core6result19Result$LT$T$C$E$GT$6expect17hc8e43af1e0cacad3E"(i1 zeroext %_7, ptr align 1 @alloc_cc656815297f75969399c3f4b1ad3de4, i64 55, ptr align 8 @alloc_f886f96e9a07c60a12107d674cf0d185)
          to label %bb2 unwind label %cleanup

bb2:                                              ; preds = %bb1
  call void @llvm.memcpy.p0.p0.i64(ptr align 8 %_0, ptr align 8 %buf, i64 24, i1 false)
  ret void

terminate:                                        ; preds = %bb3
  %19 = landingpad { ptr, i32 }
          filter [0 x ptr] zeroinitializer
  %20 = extractvalue { ptr, i32 } %19, 0
  %21 = extractvalue { ptr, i32 } %19, 1
; call core::panicking::panic_in_cleanup
  call void @_ZN4core9panicking16panic_in_cleanup17h43442956f23e9cbeE() #26
  unreachable

bb4:                                              ; preds = %bb3
  %22 = load ptr, ptr %0, align 8
  %23 = getelementptr inbounds i8, ptr %0, i64 8
  %24 = load i32, ptr %23, align 8
  %25 = insertvalue { ptr, i32 } poison, ptr %22, 0
  %26 = insertvalue { ptr, i32 } %25, i32 %24, 1
  resume { ptr, i32 } %26
}

; <T as alloc::string::ToString>::to_string
; Function Attrs: inlinehint nonlazybind uwtable
define void @"_ZN45_$LT$T$u20$as$u20$alloc..string..ToString$GT$9to_string17hf329a8bd2a7de3e7E"(ptr sret([24 x i8]) align 8 %_0, ptr align 8 %self) unnamed_addr #0 personality ptr @rust_eh_personality {
start:
  %0 = alloca [16 x i8], align 8
  %_10 = alloca [24 x i8], align 8
  %formatter = alloca [64 x i8], align 8
  %buf = alloca [24 x i8], align 8
  store i64 0, ptr %_10, align 8
  %1 = getelementptr inbounds i8, ptr %_10, i64 8
  store ptr inttoptr (i64 1 to ptr), ptr %1, align 8
  %2 = getelementptr inbounds i8, ptr %_10, i64 16
  store i64 0, ptr %2, align 8
  call void @llvm.memcpy.p0.p0.i64(ptr align 8 %buf, ptr align 8 %_10, i64 24, i1 false)
  %3 = getelementptr inbounds i8, ptr %formatter, i64 52
  store i32 0, ptr %3, align 4
  %4 = getelementptr inbounds i8, ptr %formatter, i64 48
  store i32 32, ptr %4, align 8
  %5 = getelementptr inbounds i8, ptr %formatter, i64 56
  store i8 3, ptr %5, align 8
  %6 = load i64, ptr @0, align 8
  %7 = load i64, ptr getelementptr inbounds (i8, ptr @0, i64 8), align 8
  store i64 %6, ptr %formatter, align 8
  %8 = getelementptr inbounds i8, ptr %formatter, i64 8
  store i64 %7, ptr %8, align 8
  %9 = load i64, ptr @0, align 8
  %10 = load i64, ptr getelementptr inbounds (i8, ptr @0, i64 8), align 8
  %11 = getelementptr inbounds i8, ptr %formatter, i64 16
  store i64 %9, ptr %11, align 8
  %12 = getelementptr inbounds i8, ptr %11, i64 8
  store i64 %10, ptr %12, align 8
  %13 = getelementptr inbounds i8, ptr %formatter, i64 32
  store ptr %buf, ptr %13, align 8
  %14 = getelementptr inbounds i8, ptr %13, i64 8
  store ptr @vtable.0, ptr %14, align 8
; invoke <proc_macro2::fallback::TokenStream as core::fmt::Display>::fmt
  %_7 = invoke zeroext i1 @"_ZN73_$LT$proc_macro2..fallback..TokenStream$u20$as$u20$core..fmt..Display$GT$3fmt17h82a2cde990a97ccaE"(ptr align 8 %self, ptr align 8 %formatter)
          to label %bb1 unwind label %cleanup

bb3:                                              ; preds = %cleanup
; invoke core::ptr::drop_in_place<alloc::string::String>
  invoke void @"_ZN4core3ptr42drop_in_place$LT$alloc..string..String$GT$17h32add1a642bb0b4eE"(ptr align 8 %buf) #25
          to label %bb4 unwind label %terminate

cleanup:                                          ; preds = %bb1, %start
  %15 = landingpad { ptr, i32 }
          cleanup
  %16 = extractvalue { ptr, i32 } %15, 0
  %17 = extractvalue { ptr, i32 } %15, 1
  store ptr %16, ptr %0, align 8
  %18 = getelementptr inbounds i8, ptr %0, i64 8
  store i32 %17, ptr %18, align 8
  br label %bb3

bb1:                                              ; preds = %start
; invoke core::result::Result<T,E>::expect
  invoke void @"_ZN4core6result19Result$LT$T$C$E$GT$6expect17hc8e43af1e0cacad3E"(i1 zeroext %_7, ptr align 1 @alloc_cc656815297f75969399c3f4b1ad3de4, i64 55, ptr align 8 @alloc_f886f96e9a07c60a12107d674cf0d185)
          to label %bb2 unwind label %cleanup

bb2:                                              ; preds = %bb1
  call void @llvm.memcpy.p0.p0.i64(ptr align 8 %_0, ptr align 8 %buf, i64 24, i1 false)
  ret void

terminate:                                        ; preds = %bb3
  %19 = landingpad { ptr, i32 }
          filter [0 x ptr] zeroinitializer
  %20 = extractvalue { ptr, i32 } %19, 0
  %21 = extractvalue { ptr, i32 } %19, 1
; call core::panicking::panic_in_cleanup
  call void @_ZN4core9panicking16panic_in_cleanup17h43442956f23e9cbeE() #26
  unreachable

bb4:                                              ; preds = %bb3
  %22 = load ptr, ptr %0, align 8
  %23 = getelementptr inbounds i8, ptr %0, i64 8
  %24 = load i32, ptr %23, align 8
  %25 = insertvalue { ptr, i32 } poison, ptr %22, 0
  %26 = insertvalue { ptr, i32 } %25, i32 %24, 1
  resume { ptr, i32 } %26
}

; <i8 as alloc::string::ToString>::to_string
; Function Attrs: inlinehint nonlazybind uwtable
define internal void @"_ZN46_$LT$i8$u20$as$u20$alloc..string..ToString$GT$9to_string17hac2c2d0f6760e98dE"(ptr sret([24 x i8]) align 8 %_0, ptr align 1 %self) unnamed_addr #0 personality ptr @rust_eh_personality {
start:
  %0 = alloca [16 x i8], align 8
  %_32 = alloca [1 x i8], align 1
  %_28 = alloca [24 x i8], align 8
  %_26 = alloca [24 x i8], align 8
  %self1 = alloca [1 x i8], align 1
  %n = alloca [1 x i8], align 1
  %buf = alloca [24 x i8], align 8
; call alloc::raw_vec::RawVec<T,A>::try_allocate_in
  call void @"_ZN5alloc7raw_vec19RawVec$LT$T$C$A$GT$15try_allocate_in17h7a9fee94d5cce3e5E"(ptr sret([24 x i8]) align 8 %_28, i64 4, i1 zeroext false)
  %_29 = load i64, ptr %_28, align 8
  %1 = icmp eq i64 %_29, 0
  br i1 %1, label %bb18, label %bb17

bb18:                                             ; preds = %start
  %2 = getelementptr inbounds i8, ptr %_28, i64 8
  %res.0 = load i64, ptr %2, align 8
  %3 = getelementptr inbounds i8, ptr %2, i64 8
  %res.1 = load ptr, ptr %3, align 8
  store i64 %res.0, ptr %_26, align 8
  %4 = getelementptr inbounds i8, ptr %_26, i64 8
  store ptr %res.1, ptr %4, align 8
  %5 = getelementptr inbounds i8, ptr %_26, i64 16
  store i64 0, ptr %5, align 8
  call void @llvm.memcpy.p0.p0.i64(ptr align 8 %buf, ptr align 8 %_26, i64 24, i1 false)
  %self2 = load i8, ptr %self, align 1
  %_3 = icmp slt i8 %self2, 0
  br i1 %_3, label %bb1, label %bb3

bb17:                                             ; preds = %start
  %6 = getelementptr inbounds i8, ptr %_28, i64 8
  %err.0 = load i64, ptr %6, align 8
  %7 = getelementptr inbounds i8, ptr %6, i64 8
  %err.1 = load i64, ptr %7, align 8
; call alloc::raw_vec::handle_error
  call void @_ZN5alloc7raw_vec12handle_error17hbecd345b13023a3fE(i64 %err.0, i64 %err.1) #24
  unreachable

bb3:                                              ; preds = %bb18
  store i8 %self2, ptr %self1, align 1
  store i8 %self2, ptr %_32, align 1
  br label %bb19

bb1:                                              ; preds = %bb18
; invoke alloc::string::String::push
  invoke void @_ZN5alloc6string6String4push17h48d157fee33212ddE(ptr align 8 %buf, i32 45)
          to label %bb2 unwind label %cleanup

bb19:                                             ; preds = %bb2, %bb3
  %8 = load i8, ptr %_32, align 1
  store i8 %8, ptr %n, align 1
  %_10 = load i8, ptr %n, align 1
  %_9 = icmp uge i8 %_10, 10
  br i1 %_9, label %bb4, label %bb10

bb13:                                             ; preds = %cleanup
; invoke core::ptr::drop_in_place<alloc::string::String>
  invoke void @"_ZN4core3ptr42drop_in_place$LT$alloc..string..String$GT$17h32add1a642bb0b4eE"(ptr align 8 %buf) #25
          to label %bb14 unwind label %terminate

cleanup:                                          ; preds = %bb11, %bb8, %bb5, %bb1
  %9 = landingpad { ptr, i32 }
          cleanup
  %10 = extractvalue { ptr, i32 } %9, 0
  %11 = extractvalue { ptr, i32 } %9, 1
  store ptr %10, ptr %0, align 8
  %12 = getelementptr inbounds i8, ptr %0, i64 8
  store i32 %11, ptr %12, align 8
  br label %bb13

bb2:                                              ; preds = %bb1
  store i8 %self2, ptr %self1, align 1
  %13 = sub i8 0, %self2
  store i8 %13, ptr %_32, align 1
  br label %bb19

bb10:                                             ; preds = %bb19
  br label %bb11

bb4:                                              ; preds = %bb19
  %_12 = load i8, ptr %n, align 1
  %_11 = icmp uge i8 %_12, 100
  br i1 %_11, label %bb5, label %bb7

bb11:                                             ; preds = %bb9, %bb10
  %_25 = load i8, ptr %n, align 1
  %_24 = add i8 48, %_25
  %_23 = zext i8 %_24 to i32
; invoke alloc::string::String::push
  invoke void @_ZN5alloc6string6String4push17h48d157fee33212ddE(ptr align 8 %buf, i32 %_23)
          to label %bb12 unwind label %cleanup

bb7:                                              ; preds = %bb4
  br label %bb8

bb5:                                              ; preds = %bb4
; invoke alloc::string::String::push
  invoke void @_ZN5alloc6string6String4push17h48d157fee33212ddE(ptr align 8 %buf, i32 49)
          to label %bb6 unwind label %cleanup

bb8:                                              ; preds = %bb6, %bb7
  %_20 = load i8, ptr %n, align 1
  %_19 = udiv i8 %_20, 10
  %_18 = add i8 48, %_19
  %_17 = zext i8 %_18 to i32
; invoke alloc::string::String::push
  invoke void @_ZN5alloc6string6String4push17h48d157fee33212ddE(ptr align 8 %buf, i32 %_17)
          to label %bb9 unwind label %cleanup

bb6:                                              ; preds = %bb5
  %14 = load i8, ptr %n, align 1
  %15 = sub i8 %14, 100
  store i8 %15, ptr %n, align 1
  br label %bb8

bb9:                                              ; preds = %bb8
  %16 = load i8, ptr %n, align 1
  %17 = urem i8 %16, 10
  store i8 %17, ptr %n, align 1
  br label %bb11

bb12:                                             ; preds = %bb11
  call void @llvm.memcpy.p0.p0.i64(ptr align 8 %_0, ptr align 8 %buf, i64 24, i1 false)
  ret void

terminate:                                        ; preds = %bb13
  %18 = landingpad { ptr, i32 }
          filter [0 x ptr] zeroinitializer
  %19 = extractvalue { ptr, i32 } %18, 0
  %20 = extractvalue { ptr, i32 } %18, 1
; call core::panicking::panic_in_cleanup
  call void @_ZN4core9panicking16panic_in_cleanup17h43442956f23e9cbeE() #26
  unreachable

bb14:                                             ; preds = %bb13
  %21 = load ptr, ptr %0, align 8
  %22 = getelementptr inbounds i8, ptr %0, i64 8
  %23 = load i32, ptr %22, align 8
  %24 = insertvalue { ptr, i32 } poison, ptr %21, 0
  %25 = insertvalue { ptr, i32 } %24, i32 %23, 1
  resume { ptr, i32 } %25

bb16:                                             ; No predecessors!
  unreachable
}

; <u8 as alloc::string::ToString>::to_string
; Function Attrs: inlinehint nonlazybind uwtable
define internal void @"_ZN46_$LT$u8$u20$as$u20$alloc..string..ToString$GT$9to_string17h921aa7e82343b2acE"(ptr sret([24 x i8]) align 8 %_0, ptr align 1 %self) unnamed_addr #0 personality ptr @rust_eh_personality {
start:
  %0 = alloca [16 x i8], align 8
  %_27 = alloca [24 x i8], align 8
  %_25 = alloca [24 x i8], align 8
  %n = alloca [1 x i8], align 1
  %buf = alloca [24 x i8], align 8
; call alloc::raw_vec::RawVec<T,A>::try_allocate_in
  call void @"_ZN5alloc7raw_vec19RawVec$LT$T$C$A$GT$15try_allocate_in17h7a9fee94d5cce3e5E"(ptr sret([24 x i8]) align 8 %_27, i64 3, i1 zeroext false)
  %_28 = load i64, ptr %_27, align 8
  %1 = icmp eq i64 %_28, 0
  br i1 %1, label %bb15, label %bb14

bb15:                                             ; preds = %start
  %2 = getelementptr inbounds i8, ptr %_27, i64 8
  %res.0 = load i64, ptr %2, align 8
  %3 = getelementptr inbounds i8, ptr %2, i64 8
  %res.1 = load ptr, ptr %3, align 8
  store i64 %res.0, ptr %_25, align 8
  %4 = getelementptr inbounds i8, ptr %_25, i64 8
  store ptr %res.1, ptr %4, align 8
  %5 = getelementptr inbounds i8, ptr %_25, i64 16
  store i64 0, ptr %5, align 8
  call void @llvm.memcpy.p0.p0.i64(ptr align 8 %buf, ptr align 8 %_25, i64 24, i1 false)
  %6 = load i8, ptr %self, align 1
  store i8 %6, ptr %n, align 1
  %_5 = load i8, ptr %n, align 1
  %_4 = icmp uge i8 %_5, 10
  br i1 %_4, label %bb1, label %bb7

bb14:                                             ; preds = %start
  %7 = getelementptr inbounds i8, ptr %_27, i64 8
  %err.0 = load i64, ptr %7, align 8
  %8 = getelementptr inbounds i8, ptr %7, i64 8
  %err.1 = load i64, ptr %8, align 8
; call alloc::raw_vec::handle_error
  call void @_ZN5alloc7raw_vec12handle_error17hbecd345b13023a3fE(i64 %err.0, i64 %err.1) #24
  unreachable

bb7:                                              ; preds = %bb15
  br label %bb8

bb1:                                              ; preds = %bb15
  %_7 = load i8, ptr %n, align 1
  %_6 = icmp uge i8 %_7, 100
  br i1 %_6, label %bb2, label %bb4

bb8:                                              ; preds = %bb6, %bb7
  %_24 = load i8, ptr %n, align 1
  %_23 = add i8 48, %_24
  %_22 = zext i8 %_23 to i32
; invoke alloc::string::String::push
  invoke void @_ZN5alloc6string6String4push17h48d157fee33212ddE(ptr align 8 %buf, i32 %_22)
          to label %bb9 unwind label %cleanup

bb4:                                              ; preds = %bb1
  br label %bb5

bb2:                                              ; preds = %bb1
  %_13 = load i8, ptr %n, align 1
  %_12 = udiv i8 %_13, 100
  %_11 = add i8 48, %_12
  %_10 = zext i8 %_11 to i32
; invoke alloc::string::String::push
  invoke void @_ZN5alloc6string6String4push17h48d157fee33212ddE(ptr align 8 %buf, i32 %_10)
          to label %bb3 unwind label %cleanup

bb5:                                              ; preds = %bb3, %bb4
  %_19 = load i8, ptr %n, align 1
  %_18 = udiv i8 %_19, 10
  %_17 = add i8 48, %_18
  %_16 = zext i8 %_17 to i32
; invoke alloc::string::String::push
  invoke void @_ZN5alloc6string6String4push17h48d157fee33212ddE(ptr align 8 %buf, i32 %_16)
          to label %bb6 unwind label %cleanup

bb10:                                             ; preds = %cleanup
; invoke core::ptr::drop_in_place<alloc::string::String>
  invoke void @"_ZN4core3ptr42drop_in_place$LT$alloc..string..String$GT$17h32add1a642bb0b4eE"(ptr align 8 %buf) #25
          to label %bb11 unwind label %terminate

cleanup:                                          ; preds = %bb8, %bb5, %bb2
  %9 = landingpad { ptr, i32 }
          cleanup
  %10 = extractvalue { ptr, i32 } %9, 0
  %11 = extractvalue { ptr, i32 } %9, 1
  store ptr %10, ptr %0, align 8
  %12 = getelementptr inbounds i8, ptr %0, i64 8
  store i32 %11, ptr %12, align 8
  br label %bb10

bb3:                                              ; preds = %bb2
  %13 = load i8, ptr %n, align 1
  %14 = urem i8 %13, 100
  store i8 %14, ptr %n, align 1
  br label %bb5

bb6:                                              ; preds = %bb5
  %15 = load i8, ptr %n, align 1
  %16 = urem i8 %15, 10
  store i8 %16, ptr %n, align 1
  br label %bb8

bb9:                                              ; preds = %bb8
  call void @llvm.memcpy.p0.p0.i64(ptr align 8 %_0, ptr align 8 %buf, i64 24, i1 false)
  ret void

terminate:                                        ; preds = %bb10
  %17 = landingpad { ptr, i32 }
          filter [0 x ptr] zeroinitializer
  %18 = extractvalue { ptr, i32 } %17, 0
  %19 = extractvalue { ptr, i32 } %17, 1
; call core::panicking::panic_in_cleanup
  call void @_ZN4core9panicking16panic_in_cleanup17h43442956f23e9cbeE() #26
  unreachable

bb11:                                             ; preds = %bb10
  %20 = load ptr, ptr %0, align 8
  %21 = getelementptr inbounds i8, ptr %0, i64 8
  %22 = load i32, ptr %21, align 8
  %23 = insertvalue { ptr, i32 } poison, ptr %20, 0
  %24 = insertvalue { ptr, i32 } %23, i32 %22, 1
  resume { ptr, i32 } %24

bb13:                                             ; No predecessors!
  unreachable
}

; <u8 as core::iter::range::Step>::forward_unchecked
; Function Attrs: inlinehint nonlazybind uwtable
define internal i8 @"_ZN46_$LT$u8$u20$as$u20$core..iter..range..Step$GT$17forward_unchecked17hb9d4695345e6ee27E"(i8 %start1, i64 %n) unnamed_addr #0 {
start:
  %rhs = trunc i64 %n to i8
  br label %bb2

bb2:                                              ; preds = %start
  %_0 = add nuw i8 %start1, %rhs
  ret i8 %_0

bb1:                                              ; No predecessors!
  unreachable
}

; <str as alloc::string::ToString>::to_string
; Function Attrs: inlinehint nonlazybind uwtable
define internal void @"_ZN47_$LT$str$u20$as$u20$alloc..string..ToString$GT$9to_string17h3e948ad4e99fedb5E"(ptr sret([24 x i8]) align 8 %_0, ptr align 1 %self.0, i64 %self.1) unnamed_addr #0 {
start:
  %bytes = alloca [24 x i8], align 8
; call <T as alloc::slice::hack::ConvertVec>::to_vec
  call void @"_ZN52_$LT$T$u20$as$u20$alloc..slice..hack..ConvertVec$GT$6to_vec17hd7a43e3d4155bfffE"(ptr sret([24 x i8]) align 8 %bytes, ptr align 1 %self.0, i64 %self.1)
  call void @llvm.memcpy.p0.p0.i64(ptr align 8 %_0, ptr align 8 %bytes, i64 24, i1 false)
  ret void
}

; <F as core::str::pattern::Pattern>::is_prefix_of
; Function Attrs: inlinehint nonlazybind uwtable
define zeroext i1 @"_ZN49_$LT$F$u20$as$u20$core..str..pattern..Pattern$GT$12is_prefix_of17h1b23068e08a0f4a9E"(ptr align 1 %haystack.0, i64 %haystack.1) unnamed_addr #0 {
start:
; call core::str::pattern::Pattern::is_prefix_of
  %_0 = call zeroext i1 @_ZN4core3str7pattern7Pattern12is_prefix_of17h3a9b9c982a6a6b18E(ptr align 1 %haystack.0, i64 %haystack.1)
  ret i1 %_0
}

; <F as core::str::pattern::Pattern>::is_prefix_of
; Function Attrs: inlinehint nonlazybind uwtable
define zeroext i1 @"_ZN49_$LT$F$u20$as$u20$core..str..pattern..Pattern$GT$12is_prefix_of17h7d92889405bf7c17E"(ptr align 1 %haystack.0, i64 %haystack.1) unnamed_addr #0 {
start:
; call core::str::pattern::Pattern::is_prefix_of
  %_0 = call zeroext i1 @_ZN4core3str7pattern7Pattern12is_prefix_of17h1c8ce13458d80e65E(ptr align 1 %haystack.0, i64 %haystack.1)
  ret i1 %_0
}

; <u8 as core::slice::cmp::SliceOrd>::compare
; Function Attrs: inlinehint nonlazybind uwtable
define internal i8 @"_ZN49_$LT$u8$u20$as$u20$core..slice..cmp..SliceOrd$GT$7compare17h77325c80cc2e1489E"(ptr align 1 %left.0, i64 %left.1, ptr align 1 %right.0, i64 %right.1) unnamed_addr #0 {
start:
  %0 = alloca [4 x i8], align 4
  %order = alloca [8 x i8], align 8
  %len = alloca [8 x i8], align 8
  %diff = sub i64 %left.1, %right.1
  %_9 = icmp ult i64 %left.1, %right.1
  br i1 %_9, label %bb1, label %bb2

bb2:                                              ; preds = %start
  store i64 %right.1, ptr %len, align 8
  br label %bb3

bb1:                                              ; preds = %start
  store i64 %left.1, ptr %len, align 8
  br label %bb3

bb3:                                              ; preds = %bb1, %bb2
  %_14 = load i64, ptr %len, align 8
  %1 = call i32 @memcmp(ptr %left.0, ptr %right.0, i64 %_14)
  store i32 %1, ptr %0, align 4
  %_11 = load i32, ptr %0, align 4
  %2 = sext i32 %_11 to i64
  store i64 %2, ptr %order, align 8
  %_15 = load i64, ptr %order, align 8
  %3 = icmp eq i64 %_15, 0
  br i1 %3, label %bb5, label %bb6

bb5:                                              ; preds = %bb3
  store i64 %diff, ptr %order, align 8
  br label %bb7

bb6:                                              ; preds = %bb3
  br label %bb7

bb7:                                              ; preds = %bb6, %bb5
  %_19 = load i64, ptr %order, align 8
  %4 = icmp sgt i64 %_19, 0
  %5 = zext i1 %4 to i8
  %6 = icmp slt i64 %_19, 0
  %7 = zext i1 %6 to i8
  %_0 = sub nsw i8 %5, %7
  ret i8 %_0
}

; <usize as core::iter::range::Step>::forward_unchecked
; Function Attrs: inlinehint nonlazybind uwtable
define internal i64 @"_ZN49_$LT$usize$u20$as$u20$core..iter..range..Step$GT$17forward_unchecked17h90ab81a631f3c349E"(i64 %start1, i64 %n) unnamed_addr #0 {
start:
  br label %bb2

bb2:                                              ; preds = %start
  %_0 = add nuw i64 %start1, %n
  ret i64 %_0

bb1:                                              ; No predecessors!
  unreachable
}

; <usize as core::iter::range::Step>::backward_unchecked
; Function Attrs: inlinehint nonlazybind uwtable
define internal i64 @"_ZN49_$LT$usize$u20$as$u20$core..iter..range..Step$GT$18backward_unchecked17h79cf839added308bE"(i64 %start1, i64 %n) unnamed_addr #0 {
start:
  br label %bb2

bb2:                                              ; preds = %start
  %_0 = sub nuw i64 %start1, %n
  ret i64 %_0

bb1:                                              ; No predecessors!
  unreachable
}

; core::intrinsics::write_bytes::precondition_check
; Function Attrs: inlinehint nounwind nonlazybind uwtable
define internal void @_ZN4core10intrinsics11write_bytes18precondition_check17h377ecd87b38956f1E(ptr %addr, i64 %align) unnamed_addr #3 personality ptr @rust_eh_personality {
start:
  %0 = alloca [4 x i8], align 4
  %_8 = alloca [48 x i8], align 8
  %_6 = ptrtoint ptr %addr to i64
  %1 = icmp eq i64 %_6, 0
  br i1 %1, label %bb3, label %bb4

bb3:                                              ; preds = %start
  br label %bb2

bb4:                                              ; preds = %start
  %2 = call i64 @llvm.ctpop.i64(i64 %align)
  %3 = trunc i64 %2 to i32
  store i32 %3, ptr %0, align 4
  %_9 = load i32, ptr %0, align 4
  %4 = icmp eq i32 %_9, 1
  br i1 %4, label %bb5, label %bb6

bb2:                                              ; preds = %bb5, %bb3
; call core::panicking::panic_nounwind
  call void @_ZN4core9panicking14panic_nounwind17hfb4a192166a1619dE(ptr align 1 @alloc_424341b75ece3fa20496f1c69b9fb0ac, i64 111) #27
  unreachable

bb5:                                              ; preds = %bb4
  %_13 = sub i64 %align, 1
  %_12 = and i64 %_6, %_13
  %_3 = icmp eq i64 %_12, 0
  br i1 %_3, label %bb1, label %bb2

bb6:                                              ; preds = %bb4
  store ptr @alloc_041983ee8170efdaaf95ba67fd072d26, ptr %_8, align 8
  %5 = getelementptr inbounds i8, ptr %_8, i64 8
  store i64 1, ptr %5, align 8
  %6 = load ptr, ptr @0, align 8
  %7 = load i64, ptr getelementptr inbounds (i8, ptr @0, i64 8), align 8
  %8 = getelementptr inbounds i8, ptr %_8, i64 32
  store ptr %6, ptr %8, align 8
  %9 = getelementptr inbounds i8, ptr %8, i64 8
  store i64 %7, ptr %9, align 8
  %10 = getelementptr inbounds i8, ptr %_8, i64 16
  store ptr inttoptr (i64 8 to ptr), ptr %10, align 8
  %11 = getelementptr inbounds i8, ptr %10, i64 8
  store i64 0, ptr %11, align 8
; invoke core::panicking::panic_fmt
  invoke void @_ZN4core9panicking9panic_fmt17h3111a7beccfa68f5E(ptr align 8 %_8, ptr align 8 @alloc_03d266dccd993e13de22250e3dccd7d7) #24
          to label %unreachable unwind label %terminate

bb1:                                              ; preds = %bb5
  ret void

terminate:                                        ; preds = %bb6
  %12 = landingpad { ptr, i32 }
          filter [0 x ptr] zeroinitializer
  %13 = extractvalue { ptr, i32 } %12, 0
  %14 = extractvalue { ptr, i32 } %12, 1
; call core::panicking::panic_cannot_unwind
  call void @_ZN4core9panicking19panic_cannot_unwind17h3f96c9c07954d1a5E() #26
  unreachable

unreachable:                                      ; preds = %bb6
  unreachable
}

; core::intrinsics::is_val_statically_known
; Function Attrs: nounwind nonlazybind uwtable
define zeroext i1 @_ZN4core10intrinsics23is_val_statically_known17h69b6fd216a4f675dE(i1 zeroext %_arg) unnamed_addr #4 {
start:
  ret i1 false
}

; core::intrinsics::unlikely
; Function Attrs: nounwind nonlazybind uwtable
define internal zeroext i1 @_ZN4core10intrinsics8unlikely17h374b2e850917cb67E(i1 zeroext %b) unnamed_addr #4 {
start:
  ret i1 %b
}

; core::cmp::impls::<impl core::cmp::Ord for usize>::cmp
; Function Attrs: inlinehint nonlazybind uwtable
define internal i8 @"_ZN4core3cmp5impls50_$LT$impl$u20$core..cmp..Ord$u20$for$u20$usize$GT$3cmp17hc5ec81f66f13964bE"(ptr align 8 %self, ptr align 8 %other) unnamed_addr #0 {
start:
  %_3 = load i64, ptr %self, align 8
  %_4 = load i64, ptr %other, align 8
  %0 = icmp ugt i64 %_3, %_4
  %1 = zext i1 %0 to i8
  %2 = icmp ult i64 %_3, %_4
  %3 = zext i1 %2 to i8
  %_0 = sub nsw i8 %1, %3
  ret i8 %_0
}

; core::cmp::impls::<impl core::cmp::PartialEq for usize>::eq
; Function Attrs: inlinehint nonlazybind uwtable
define internal zeroext i1 @"_ZN4core3cmp5impls56_$LT$impl$u20$core..cmp..PartialEq$u20$for$u20$usize$GT$2eq17hb38bc76ae998cc78E"(ptr align 8 %self, ptr align 8 %other) unnamed_addr #0 {
start:
  %_3 = load i64, ptr %self, align 8
  %_4 = load i64, ptr %other, align 8
  %_0 = icmp eq i64 %_3, %_4
  ret i1 %_0
}

; core::cmp::impls::<impl core::cmp::PartialEq for ()>::eq
; Function Attrs: inlinehint nonlazybind uwtable
define internal zeroext i1 @"_ZN4core3cmp5impls59_$LT$impl$u20$core..cmp..PartialEq$u20$for$u20$$LP$$RP$$GT$2eq17h1c02d3ff5df7c858E"(ptr align 1 %self, ptr align 1 %_other) unnamed_addr #0 {
start:
  ret i1 true
}

; core::cmp::impls::<impl core::cmp::PartialEq<&B> for &A>::eq
; Function Attrs: inlinehint nonlazybind uwtable
define zeroext i1 @"_ZN4core3cmp5impls69_$LT$impl$u20$core..cmp..PartialEq$LT$$RF$B$GT$$u20$for$u20$$RF$A$GT$2eq17ha6280410ce1c311fE"(ptr align 8 %self, ptr align 8 %other) unnamed_addr #0 {
start:
  %_3 = load ptr, ptr %self, align 8
  %_4 = load ptr, ptr %other, align 8
; call <proc_macro2::fallback::Ident as core::cmp::PartialEq>::eq
  %_0 = call zeroext i1 @"_ZN69_$LT$proc_macro2..fallback..Ident$u20$as$u20$core..cmp..PartialEq$GT$2eq17h47bc6993d82599f7E"(ptr align 8 %_3, ptr align 8 %_4)
  ret i1 %_0
}

; core::cmp::max_by
; Function Attrs: inlinehint nonlazybind uwtable
define i64 @_ZN4core3cmp6max_by17h68594a3dd1a7ccabE(i64 %0, i64 %1) unnamed_addr #0 personality ptr @rust_eh_personality {
start:
  %2 = alloca [16 x i8], align 8
  %_9 = alloca [1 x i8], align 1
  %_4 = alloca [1 x i8], align 1
  %_0 = alloca [8 x i8], align 8
  %v2 = alloca [8 x i8], align 8
  %v1 = alloca [8 x i8], align 8
  store i64 %0, ptr %v1, align 8
  store i64 %1, ptr %v2, align 8
  store i8 1, ptr %_9, align 1
; invoke core::ops::function::FnOnce::call_once
  %3 = invoke i8 @_ZN4core3ops8function6FnOnce9call_once17h7aaeee97712f4694E(ptr align 8 %v1, ptr align 8 %v2)
          to label %bb1 unwind label %cleanup

bb6:                                              ; preds = %cleanup
  br label %bb10

cleanup:                                          ; preds = %start
  %4 = landingpad { ptr, i32 }
          cleanup
  %5 = extractvalue { ptr, i32 } %4, 0
  %6 = extractvalue { ptr, i32 } %4, 1
  store ptr %5, ptr %2, align 8
  %7 = getelementptr inbounds i8, ptr %2, i64 8
  store i32 %6, ptr %7, align 8
  br label %bb6

bb1:                                              ; preds = %start
  store i8 %3, ptr %_4, align 1
  %_8 = load i8, ptr %_4, align 1
  switch i8 %_8, label %bb2 [
    i8 -1, label %bb4
    i8 0, label %bb4
    i8 1, label %bb3
  ]

bb2:                                              ; preds = %bb1
  unreachable

bb4:                                              ; preds = %bb1, %bb1
  %8 = load i64, ptr %v2, align 8
  store i64 %8, ptr %_0, align 8
  %9 = load i8, ptr %_9, align 1
  %10 = trunc i8 %9 to i1
  br i1 %10, label %bb8, label %bb5

bb3:                                              ; preds = %bb1
  store i8 0, ptr %_9, align 1
  %11 = load i64, ptr %v1, align 8
  store i64 %11, ptr %_0, align 8
  br label %bb5

bb5:                                              ; preds = %bb3, %bb8, %bb4
  %12 = load i64, ptr %_0, align 8
  ret i64 %12

bb8:                                              ; preds = %bb4
  br label %bb5

bb10:                                             ; preds = %bb6
  %13 = load i8, ptr %_9, align 1
  %14 = trunc i8 %13 to i1
  br i1 %14, label %bb9, label %bb7

bb7:                                              ; preds = %bb9, %bb10
  %15 = load ptr, ptr %2, align 8
  %16 = getelementptr inbounds i8, ptr %2, i64 8
  %17 = load i32, ptr %16, align 8
  %18 = insertvalue { ptr, i32 } poison, ptr %15, 0
  %19 = insertvalue { ptr, i32 } %18, i32 %17, 1
  resume { ptr, i32 } %19

bb9:                                              ; preds = %bb10
  br label %bb7
}

; core::cmp::min_by
; Function Attrs: inlinehint nonlazybind uwtable
define i64 @_ZN4core3cmp6min_by17hdb33bb80198dea92E(i64 %0, i64 %1) unnamed_addr #0 personality ptr @rust_eh_personality {
start:
  %2 = alloca [16 x i8], align 8
  %_10 = alloca [1 x i8], align 1
  %_4 = alloca [1 x i8], align 1
  %_0 = alloca [8 x i8], align 8
  %v2 = alloca [8 x i8], align 8
  %v1 = alloca [8 x i8], align 8
  store i64 %0, ptr %v1, align 8
  store i64 %1, ptr %v2, align 8
  store i8 1, ptr %_10, align 1
; invoke core::ops::function::FnOnce::call_once
  %3 = invoke i8 @_ZN4core3ops8function6FnOnce9call_once17h7aaeee97712f4694E(ptr align 8 %v1, ptr align 8 %v2)
          to label %bb1 unwind label %cleanup

bb7:                                              ; preds = %cleanup
  br label %bb12

cleanup:                                          ; preds = %start
  %4 = landingpad { ptr, i32 }
          cleanup
  %5 = extractvalue { ptr, i32 } %4, 0
  %6 = extractvalue { ptr, i32 } %4, 1
  store ptr %5, ptr %2, align 8
  %7 = getelementptr inbounds i8, ptr %2, i64 8
  store i32 %6, ptr %7, align 8
  br label %bb7

bb1:                                              ; preds = %start
  store i8 %3, ptr %_4, align 1
  %_8 = load i8, ptr %_4, align 1
  switch i8 %_8, label %bb2 [
    i8 -1, label %bb4
    i8 0, label %bb4
    i8 1, label %bb3
  ]

bb2:                                              ; preds = %bb1
  unreachable

bb4:                                              ; preds = %bb1, %bb1
  store i8 0, ptr %_10, align 1
  %8 = load i64, ptr %v1, align 8
  store i64 %8, ptr %_0, align 8
  br label %bb9

bb3:                                              ; preds = %bb1
  %9 = load i64, ptr %v2, align 8
  store i64 %9, ptr %_0, align 8
  br label %bb5

bb9:                                              ; preds = %bb4
  br label %bb6

bb6:                                              ; preds = %bb10, %bb5, %bb9
  %10 = load i64, ptr %_0, align 8
  ret i64 %10

bb5:                                              ; preds = %bb3
  %11 = load i8, ptr %_10, align 1
  %12 = trunc i8 %11 to i1
  br i1 %12, label %bb10, label %bb6

bb10:                                             ; preds = %bb5
  br label %bb6

bb12:                                             ; preds = %bb7
  %13 = load i8, ptr %_10, align 1
  %14 = trunc i8 %13 to i1
  br i1 %14, label %bb11, label %bb8

bb8:                                              ; preds = %bb11, %bb12
  %15 = load ptr, ptr %2, align 8
  %16 = getelementptr inbounds i8, ptr %2, i64 8
  %17 = load i32, ptr %16, align 8
  %18 = insertvalue { ptr, i32 } poison, ptr %15, 0
  %19 = insertvalue { ptr, i32 } %18, i32 %17, 1
  resume { ptr, i32 } %19

bb11:                                             ; preds = %bb12
  br label %bb8
}

; core::cmp::PartialEq::ne
; Function Attrs: inlinehint nonlazybind uwtable
define zeroext i1 @_ZN4core3cmp9PartialEq2ne17h30bff06b33a0a6d9E(ptr align 1 %self, ptr align 1 %other) unnamed_addr #0 {
start:
; call <proc_macro2::Delimiter as core::cmp::PartialEq>::eq
  %_3 = call zeroext i1 @"_ZN63_$LT$proc_macro2..Delimiter$u20$as$u20$core..cmp..PartialEq$GT$2eq17h201eac3222e2ae70E"(ptr align 1 %self, ptr align 1 %other)
  %_0 = xor i1 %_3, true
  ret i1 %_0
}

; core::f32::<impl f32>::is_finite
; Function Attrs: inlinehint nonlazybind uwtable
define internal zeroext i1 @"_ZN4core3f3221_$LT$impl$u20$f32$GT$9is_finite17h29cb87bdbcafbd47E"(float %self) unnamed_addr #0 {
start:
  %_4 = bitcast float %self to i32
  %_3 = and i32 %_4, 2147483647
  %_2 = bitcast i32 %_3 to float
  %_0 = fcmp olt float %_2, 0x7FF0000000000000
  ret i1 %_0
}

; core::f64::<impl f64>::is_finite
; Function Attrs: inlinehint nonlazybind uwtable
define internal zeroext i1 @"_ZN4core3f6421_$LT$impl$u20$f64$GT$9is_finite17h9478bc51df474f90E"(double %self) unnamed_addr #0 {
start:
  %_4 = bitcast double %self to i64
  %_3 = and i64 %_4, 9223372036854775807
  %_2 = bitcast i64 %_3 to double
  %_0 = fcmp olt double %_2, 0x7FF0000000000000
  ret i1 %_0
}

; core::fmt::num::<impl core::fmt::Debug for usize>::fmt
; Function Attrs: inlinehint nonlazybind uwtable
define internal zeroext i1 @"_ZN4core3fmt3num52_$LT$impl$u20$core..fmt..Debug$u20$for$u20$usize$GT$3fmt17h26494a2e8bdf3a46E"(ptr align 8 %self, ptr align 8 %f) unnamed_addr #0 {
start:
  %_0 = alloca [1 x i8], align 1
  %0 = getelementptr inbounds i8, ptr %f, i64 52
  %_4 = load i32, ptr %0, align 4
  %_3 = and i32 %_4, 16
  %1 = icmp eq i32 %_3, 0
  br i1 %1, label %bb2, label %bb1

bb2:                                              ; preds = %start
  %2 = getelementptr inbounds i8, ptr %f, i64 52
  %_6 = load i32, ptr %2, align 4
  %_5 = and i32 %_6, 32
  %3 = icmp eq i32 %_5, 0
  br i1 %3, label %bb4, label %bb3

bb1:                                              ; preds = %start
; call core::fmt::num::<impl core::fmt::LowerHex for usize>::fmt
  %4 = call zeroext i1 @"_ZN4core3fmt3num55_$LT$impl$u20$core..fmt..LowerHex$u20$for$u20$usize$GT$3fmt17hb89b543945fdac37E"(ptr align 8 %self, ptr align 8 %f)
  %5 = zext i1 %4 to i8
  store i8 %5, ptr %_0, align 1
  br label %bb6

bb4:                                              ; preds = %bb2
; call core::fmt::num::imp::<impl core::fmt::Display for usize>::fmt
  %6 = call zeroext i1 @"_ZN4core3fmt3num3imp54_$LT$impl$u20$core..fmt..Display$u20$for$u20$usize$GT$3fmt17hdabfc7932e5a3df0E"(ptr align 8 %self, ptr align 8 %f)
  %7 = zext i1 %6 to i8
  store i8 %7, ptr %_0, align 1
  br label %bb5

bb3:                                              ; preds = %bb2
; call core::fmt::num::<impl core::fmt::UpperHex for usize>::fmt
  %8 = call zeroext i1 @"_ZN4core3fmt3num55_$LT$impl$u20$core..fmt..UpperHex$u20$for$u20$usize$GT$3fmt17hb258a21f77c3d954E"(ptr align 8 %self, ptr align 8 %f)
  %9 = zext i1 %8 to i8
  store i8 %9, ptr %_0, align 1
  br label %bb5

bb5:                                              ; preds = %bb3, %bb4
  br label %bb6

bb6:                                              ; preds = %bb1, %bb5
  %10 = load i8, ptr %_0, align 1
  %11 = trunc i8 %10 to i1
  ret i1 %11
}

; core::fmt::Write::write_fmt
; Function Attrs: nonlazybind uwtable
define zeroext i1 @_ZN4core3fmt5Write9write_fmt17h3d12c4d9511c7708E(ptr align 8 %self, ptr align 8 %args) unnamed_addr #1 {
start:
; call <&mut W as core::fmt::Write::write_fmt::SpecWriteFmt>::spec_write_fmt
  %_0 = call zeroext i1 @"_ZN75_$LT$$RF$mut$u20$W$u20$as$u20$core..fmt..Write..write_fmt..SpecWriteFmt$GT$14spec_write_fmt17hf7e58a847a67d178E"(ptr align 8 %self, ptr align 8 %args)
  ret i1 %_0
}

; core::fmt::builders::DebugList::entries
; Function Attrs: nonlazybind uwtable
define align 8 ptr @_ZN4core3fmt8builders9DebugList7entries17h5e80cd2dba1bedd4E(ptr align 8 %self, ptr %entries) unnamed_addr #1 personality ptr @rust_eh_personality {
start:
  %0 = alloca [16 x i8], align 8
  %entry = alloca [32 x i8], align 8
  %_5 = alloca [32 x i8], align 8
  %iter = alloca [32 x i8], align 8
  %_3 = alloca [32 x i8], align 8
; call <proc_macro2::fallback::TokenStream as core::iter::traits::collect::IntoIterator>::into_iter
  call void @"_ZN96_$LT$proc_macro2..fallback..TokenStream$u20$as$u20$core..iter..traits..collect..IntoIterator$GT$9into_iter17h44640d5281a39aadE"(ptr sret([32 x i8]) align 8 %_3, ptr %entries)
  call void @llvm.memcpy.p0.p0.i64(ptr align 8 %iter, ptr align 8 %_3, i64 32, i1 false)
  br label %bb2

bb2:                                              ; preds = %bb8, %start
; invoke <proc_macro2::rcvec::RcVecIntoIter<T> as core::iter::traits::iterator::Iterator>::next
  invoke void @"_ZN101_$LT$proc_macro2..rcvec..RcVecIntoIter$LT$T$GT$$u20$as$u20$core..iter..traits..iterator..Iterator$GT$4next17h141ed75263b6a7c8E"(ptr sret([32 x i8]) align 8 %_5, ptr align 8 %iter)
          to label %bb3 unwind label %cleanup

bb11:                                             ; preds = %bb10, %cleanup
; invoke core::ptr::drop_in_place<proc_macro2::rcvec::RcVecIntoIter<proc_macro2::TokenTree>>
  invoke void @"_ZN4core3ptr84drop_in_place$LT$proc_macro2..rcvec..RcVecIntoIter$LT$proc_macro2..TokenTree$GT$$GT$17ha4650a712ed3a52bE"(ptr align 8 %iter) #25
          to label %bb12 unwind label %terminate

cleanup:                                          ; preds = %bb7, %bb2
  %1 = landingpad { ptr, i32 }
          cleanup
  %2 = extractvalue { ptr, i32 } %1, 0
  %3 = extractvalue { ptr, i32 } %1, 1
  store ptr %2, ptr %0, align 8
  %4 = getelementptr inbounds i8, ptr %0, i64 8
  store i32 %3, ptr %4, align 8
  br label %bb11

bb3:                                              ; preds = %bb2
  %5 = load i64, ptr %_5, align 8
  %6 = icmp eq i64 %5, -9223372036854775803
  %_7 = select i1 %6, i64 0, i64 1
  %7 = icmp eq i64 %_7, 0
  br i1 %7, label %bb6, label %bb5

bb6:                                              ; preds = %bb3
; call core::ptr::drop_in_place<proc_macro2::rcvec::RcVecIntoIter<proc_macro2::TokenTree>>
  call void @"_ZN4core3ptr84drop_in_place$LT$proc_macro2..rcvec..RcVecIntoIter$LT$proc_macro2..TokenTree$GT$$GT$17ha4650a712ed3a52bE"(ptr align 8 %iter)
  ret ptr %self

bb5:                                              ; preds = %bb3
  call void @llvm.memcpy.p0.p0.i64(ptr align 8 %entry, ptr align 8 %_5, i64 32, i1 false)
; invoke core::fmt::builders::DebugList::entry
  %_9 = invoke align 8 ptr @_ZN4core3fmt8builders9DebugList5entry17he5a4465e1dd4a691E(ptr align 8 %self, ptr align 1 %entry, ptr align 8 @vtable.1)
          to label %bb7 unwind label %cleanup1

bb10:                                             ; preds = %cleanup1
; invoke core::ptr::drop_in_place<proc_macro2::TokenTree>
  invoke void @"_ZN4core3ptr43drop_in_place$LT$proc_macro2..TokenTree$GT$17h6f257bf220908a92E"(ptr align 8 %entry) #25
          to label %bb11 unwind label %terminate

cleanup1:                                         ; preds = %bb5
  %8 = landingpad { ptr, i32 }
          cleanup
  %9 = extractvalue { ptr, i32 } %8, 0
  %10 = extractvalue { ptr, i32 } %8, 1
  store ptr %9, ptr %0, align 8
  %11 = getelementptr inbounds i8, ptr %0, i64 8
  store i32 %10, ptr %11, align 8
  br label %bb10

bb7:                                              ; preds = %bb5
; invoke core::ptr::drop_in_place<proc_macro2::TokenTree>
  invoke void @"_ZN4core3ptr43drop_in_place$LT$proc_macro2..TokenTree$GT$17h6f257bf220908a92E"(ptr align 8 %entry)
          to label %bb8 unwind label %cleanup

bb8:                                              ; preds = %bb7
  br label %bb2

terminate:                                        ; preds = %bb11, %bb10
  %12 = landingpad { ptr, i32 }
          filter [0 x ptr] zeroinitializer
  %13 = extractvalue { ptr, i32 } %12, 0
  %14 = extractvalue { ptr, i32 } %12, 1
; call core::panicking::panic_in_cleanup
  call void @_ZN4core9panicking16panic_in_cleanup17h43442956f23e9cbeE() #26
  unreachable

bb4:                                              ; No predecessors!
  unreachable

bb12:                                             ; preds = %bb11
  %15 = load ptr, ptr %0, align 8
  %16 = getelementptr inbounds i8, ptr %0, i64 8
  %17 = load i32, ptr %16, align 8
  %18 = insertvalue { ptr, i32 } poison, ptr %15, 0
  %19 = insertvalue { ptr, i32 } %18, i32 %17, 1
  resume { ptr, i32 } %19
}

; core::fmt::builders::DebugList::entries
; Function Attrs: nonlazybind uwtable
define align 8 ptr @_ZN4core3fmt8builders9DebugList7entries17h9c27150143f9e58aE(ptr align 8 %self, ptr align 8 %entries) unnamed_addr #1 personality ptr @rust_eh_personality {
start:
  %0 = alloca [16 x i8], align 8
  %entry = alloca [32 x i8], align 8
  %_5 = alloca [32 x i8], align 8
  %iter = alloca [40 x i8], align 8
  %_3 = alloca [40 x i8], align 8
; call <I as core::iter::traits::collect::IntoIterator>::into_iter
  call void @"_ZN63_$LT$I$u20$as$u20$core..iter..traits..collect..IntoIterator$GT$9into_iter17h69e0b88c277af0e1E"(ptr sret([40 x i8]) align 8 %_3, ptr align 8 %entries)
  call void @llvm.memcpy.p0.p0.i64(ptr align 8 %iter, ptr align 8 %_3, i64 40, i1 false)
  br label %bb2

bb2:                                              ; preds = %bb8, %start
; invoke <proc_macro2::token_stream::IntoIter as core::iter::traits::iterator::Iterator>::next
  invoke void @"_ZN94_$LT$proc_macro2..token_stream..IntoIter$u20$as$u20$core..iter..traits..iterator..Iterator$GT$4next17heb17dd1b1d8d4b7bE"(ptr sret([32 x i8]) align 8 %_5, ptr align 8 %iter)
          to label %bb3 unwind label %cleanup

bb11:                                             ; preds = %bb10, %cleanup
; invoke core::ptr::drop_in_place<proc_macro2::token_stream::IntoIter>
  invoke void @"_ZN4core3ptr56drop_in_place$LT$proc_macro2..token_stream..IntoIter$GT$17hd0c29609ab24b4c6E"(ptr align 8 %iter) #25
          to label %bb12 unwind label %terminate

cleanup:                                          ; preds = %bb7, %bb2
  %1 = landingpad { ptr, i32 }
          cleanup
  %2 = extractvalue { ptr, i32 } %1, 0
  %3 = extractvalue { ptr, i32 } %1, 1
  store ptr %2, ptr %0, align 8
  %4 = getelementptr inbounds i8, ptr %0, i64 8
  store i32 %3, ptr %4, align 8
  br label %bb11

bb3:                                              ; preds = %bb2
  %5 = load i64, ptr %_5, align 8
  %6 = icmp eq i64 %5, -9223372036854775803
  %_7 = select i1 %6, i64 0, i64 1
  %7 = icmp eq i64 %_7, 0
  br i1 %7, label %bb6, label %bb5

bb6:                                              ; preds = %bb3
; call core::ptr::drop_in_place<proc_macro2::token_stream::IntoIter>
  call void @"_ZN4core3ptr56drop_in_place$LT$proc_macro2..token_stream..IntoIter$GT$17hd0c29609ab24b4c6E"(ptr align 8 %iter)
  ret ptr %self

bb5:                                              ; preds = %bb3
  call void @llvm.memcpy.p0.p0.i64(ptr align 8 %entry, ptr align 8 %_5, i64 32, i1 false)
; invoke core::fmt::builders::DebugList::entry
  %_9 = invoke align 8 ptr @_ZN4core3fmt8builders9DebugList5entry17he5a4465e1dd4a691E(ptr align 8 %self, ptr align 1 %entry, ptr align 8 @vtable.1)
          to label %bb7 unwind label %cleanup1

bb10:                                             ; preds = %cleanup1
; invoke core::ptr::drop_in_place<proc_macro2::TokenTree>
  invoke void @"_ZN4core3ptr43drop_in_place$LT$proc_macro2..TokenTree$GT$17h6f257bf220908a92E"(ptr align 8 %entry) #25
          to label %bb11 unwind label %terminate

cleanup1:                                         ; preds = %bb5
  %8 = landingpad { ptr, i32 }
          cleanup
  %9 = extractvalue { ptr, i32 } %8, 0
  %10 = extractvalue { ptr, i32 } %8, 1
  store ptr %9, ptr %0, align 8
  %11 = getelementptr inbounds i8, ptr %0, i64 8
  store i32 %10, ptr %11, align 8
  br label %bb10

bb7:                                              ; preds = %bb5
; invoke core::ptr::drop_in_place<proc_macro2::TokenTree>
  invoke void @"_ZN4core3ptr43drop_in_place$LT$proc_macro2..TokenTree$GT$17h6f257bf220908a92E"(ptr align 8 %entry)
          to label %bb8 unwind label %cleanup

bb8:                                              ; preds = %bb7
  br label %bb2

terminate:                                        ; preds = %bb11, %bb10
  %12 = landingpad { ptr, i32 }
          filter [0 x ptr] zeroinitializer
  %13 = extractvalue { ptr, i32 } %12, 0
  %14 = extractvalue { ptr, i32 } %12, 1
; call core::panicking::panic_in_cleanup
  call void @_ZN4core9panicking16panic_in_cleanup17h43442956f23e9cbeE() #26
  unreachable

bb4:                                              ; No predecessors!
  unreachable

bb12:                                             ; preds = %bb11
  %15 = load ptr, ptr %0, align 8
  %16 = getelementptr inbounds i8, ptr %0, i64 8
  %17 = load i32, ptr %16, align 8
  %18 = insertvalue { ptr, i32 } poison, ptr %15, 0
  %19 = insertvalue { ptr, i32 } %18, i32 %17, 1
  resume { ptr, i32 } %19
}

; core::fmt::Arguments::new_v1_formatted
; Function Attrs: inlinehint nonlazybind uwtable
define internal void @_ZN4core3fmt9Arguments16new_v1_formatted17h5a02ada783f089b5E(ptr sret([48 x i8]) align 8 %_0, ptr align 8 %pieces.0, i64 %pieces.1, ptr align 8 %args.0, i64 %args.1, ptr align 8 %fmt.0, i64 %fmt.1) unnamed_addr #0 {
start:
  %_5 = alloca [16 x i8], align 8
  store ptr %fmt.0, ptr %_5, align 8
  %0 = getelementptr inbounds i8, ptr %_5, i64 8
  store i64 %fmt.1, ptr %0, align 8
  store ptr %pieces.0, ptr %_0, align 8
  %1 = getelementptr inbounds i8, ptr %_0, i64 8
  store i64 %pieces.1, ptr %1, align 8
  %2 = load ptr, ptr %_5, align 8
  %3 = getelementptr inbounds i8, ptr %_5, i64 8
  %4 = load i64, ptr %3, align 8
  %5 = getelementptr inbounds i8, ptr %_0, i64 32
  store ptr %2, ptr %5, align 8
