; ModuleID = 'signal_hook_registry.f2f239908bdd14e2-cgu.0'
source_filename = "signal_hook_registry.f2f239908bdd14e2-cgu.0"
target datalayout = "e-m:e-p270:32:32-p271:32:32-p272:64:64-i64:64-i128:128-f80:128-n8:16:32:64-S128"
target triple = "x86_64-unknown-linux-gnu"

%"std::sys::thread_local::fast_local::lazy::Storage<core::cell::Cell<(u64, u64)>, !>" = type { %"core::cell::UnsafeCell<std::sys::thread_local::fast_local::lazy::State<core::cell::Cell<(u64, u64)>, !>>" }
%"core::cell::UnsafeCell<std::sys::thread_local::fast_local::lazy::State<core::cell::Cell<(u64, u64)>, !>>" = type { %"std::sys::thread_local::fast_local::lazy::State<core::cell::Cell<(u64, u64)>, !>" }
%"std::sys::thread_local::fast_local::lazy::State<core::cell::Cell<(u64, u64)>, !>" = type { i64, [2 x i64] }
%"core::sync::atomic::AtomicUsize" = type { i64 }
%Slot = type { %Prev, %"alloc::collections::btree::map::BTreeMap<ActionId, alloc::sync::Arc<dyn for<'a> core::ops::function::Fn(&'a libc::unix::linux_like::linux::gnu::b64::x86_64::siginfo_t) + core::marker::Send + core::marker::Sync>>" }
%Prev = type { %"libc::unix::linux_like::linux::gnu::b64::x86_64::sigaction", i32, [1 x i32] }
%"libc::unix::linux_like::linux::gnu::b64::x86_64::sigaction" = type { i64, %"libc::unix::linux_like::linux::gnu::b64::sigset_t", i32, [1 x i32], ptr }
%"libc::unix::linux_like::linux::gnu::b64::sigset_t" = type { [16 x i64] }
%"alloc::collections::btree::map::BTreeMap<ActionId, alloc::sync::Arc<dyn for<'a> core::ops::function::Fn(&'a libc::unix::linux_like::linux::gnu::b64::x86_64::siginfo_t) + core::marker::Send + core::marker::Sync>>" = type { %"core::option::Option<alloc::collections::btree::node::NodeRef<alloc::collections::btree::node::marker::Owned, ActionId, alloc::sync::Arc<dyn for<'a> core::ops::function::Fn(&'a libc::unix::linux_like::linux::gnu::b64::x86_64::siginfo_t) + core::marker::Send + core::marker::Sync>, alloc::collections::btree::node::marker::LeafOrInternal>>", i64, %"core::mem::manually_drop::ManuallyDrop<alloc::alloc::Global>", %"core::marker::PhantomData<alloc::boxed::Box<(ActionId, alloc::sync::Arc<dyn for<'a> core::ops::function::Fn(&'a libc::unix::linux_like::linux::gnu::b64::x86_64::siginfo_t) + core::marker::Send + core::marker::Sync>)>>" }
%"core::option::Option<alloc::collections::btree::node::NodeRef<alloc::collections::btree::node::marker::Owned, ActionId, alloc::sync::Arc<dyn for<'a> core::ops::function::Fn(&'a libc::unix::linux_like::linux::gnu::b64::x86_64::siginfo_t) + core::marker::Send + core::marker::Sync>, alloc::collections::btree::node::marker::LeafOrInternal>>" = type { ptr, [1 x i64] }
%"core::mem::manually_drop::ManuallyDrop<alloc::alloc::Global>" = type { %"alloc::alloc::Global" }
%"alloc::alloc::Global" = type {}
%"core::marker::PhantomData<alloc::boxed::Box<(ActionId, alloc::sync::Arc<dyn for<'a> core::ops::function::Fn(&'a libc::unix::linux_like::linux::gnu::b64::x86_64::siginfo_t) + core::marker::Send + core::marker::Sync>)>>" = type {}
%"core::mem::maybe_uninit::MaybeUninit<alloc::sync::Arc<dyn for<'a> core::ops::function::Fn(&'a libc::unix::linux_like::linux::gnu::b64::x86_64::siginfo_t) + core::marker::Send + core::marker::Sync>>" = type { [2 x i64] }

@alloc_663191912e362154fd569a725b9c3026 = private unnamed_addr constant <{ [100 x i8] }> <{ [100 x i8] c"/home/arsalan/Documents/Github/unsafe-rust-benchmark/library/alloc/src/collections/btree/navigate.rs" }>, align 1
@alloc_853814c2c8c99fe74cf3f36da3ba4700 = private unnamed_addr constant <{ ptr, [16 x i8] }> <{ ptr @alloc_663191912e362154fd569a725b9c3026, [16 x i8] c"d\00\00\00\00\00\00\00\A2\00\00\00$\00\00\00" }>, align 8
@alloc_2e27c105fc1a6692f373ee7f9a57a4d7 = private unnamed_addr constant <{ [42 x i8] }> <{ [42 x i8] c"Once instance has previously been poisoned" }>, align 1
@alloc_9cc4df00976b591da2e084a2cf898fab = private unnamed_addr constant <{ ptr, [8 x i8] }> <{ ptr @alloc_2e27c105fc1a6692f373ee7f9a57a4d7, [8 x i8] c"*\00\00\00\00\00\00\00" }>, align 8
@alloc_444efeefbbf6ca6cf3b2dda45084f1f0 = private unnamed_addr constant <{ [78 x i8] }> <{ [78 x i8] c"internal error: entered unreachable code: state is never set to invalid values" }>, align 1
@alloc_2a9cdb20370524832dacb396d295f90f = private unnamed_addr constant <{ ptr, [8 x i8] }> <{ ptr @alloc_444efeefbbf6ca6cf3b2dda45084f1f0, [8 x i8] c"N\00\00\00\00\00\00\00" }>, align 8
@"_ZN3std4hash6random11RandomState3new4KEYS29_$u7b$$u7b$constant$u7d$$u7d$28_$u7b$$u7b$closure$u7d$$u7d$3VAL17ha146926d5afc50bdE" = external thread_local local_unnamed_addr global %"std::sys::thread_local::fast_local::lazy::Storage<core::cell::Cell<(u64, u64)>, !>"
@alloc_231575412c05d7d1619729606d50721d = private unnamed_addr constant <{ [81 x i8] }> <{ [81 x i8] c"/home/arsalan/Documents/Github/unsafe-rust-benchmark/library/std/src/sync/once.rs" }>, align 1
@alloc_323e3e924a872d3e19f6b8d20ac72063 = private unnamed_addr constant <{ ptr, [16 x i8] }> <{ ptr @alloc_231575412c05d7d1619729606d50721d, [16 x i8] c"Q\00\00\00\00\00\00\00\95\00\00\002\00\00\00" }>, align 8
@_ZN3std9panicking11panic_count18GLOBAL_PANIC_COUNT17h00e7dcd913cdfbe0E = external local_unnamed_addr global %"core::sync::atomic::AtomicUsize"
@alloc_28a6f5a8b41cb4108dcfc604f25e6395 = private unnamed_addr constant <{ [32 x i8] }> <{ [32 x i8] c"assertion failed: idx < CAPACITY" }>, align 1
@alloc_4e681e6c71669baf6ee0735d8936a354 = private unnamed_addr constant <{ [96 x i8] }> <{ [96 x i8] c"/home/arsalan/Documents/Github/unsafe-rust-benchmark/library/alloc/src/collections/btree/node.rs" }>, align 1
@alloc_73f552c1dbfb0432b27e508b72b78948 = private unnamed_addr constant <{ ptr, [16 x i8] }> <{ ptr @alloc_4e681e6c71669baf6ee0735d8936a354, [16 x i8] c"`\00\00\00\00\00\00\00\97\02\00\00\09\00\00\00" }>, align 8
@alloc_50679f783fca94dab7457816f752eff0 = private unnamed_addr constant <{ [48 x i8] }> <{ [48 x i8] c"assertion failed: edge.height == self.height - 1" }>, align 1
@alloc_7bf1f50761b8a63c26b15f4307595bfb = private unnamed_addr constant <{ ptr, [16 x i8] }> <{ ptr @alloc_4e681e6c71669baf6ee0735d8936a354, [16 x i8] c"`\00\00\00\00\00\00\00\AF\02\00\00\09\00\00\00" }>, align 8
@alloc_f52bd217922d9b06a01ddc2a68b1860b = private unnamed_addr constant <{ ptr, [16 x i8] }> <{ ptr @alloc_4e681e6c71669baf6ee0735d8936a354, [16 x i8] c"`\00\00\00\00\00\00\00\B3\02\00\00\09\00\00\00" }>, align 8
@alloc_d3fe35854b9c4a4b8137be3d36d6f33e = private unnamed_addr constant <{ [61 x i8] }> <{ [61 x i8] c"internal error: entered unreachable code: empty internal node" }>, align 1
@alloc_aa93c731cc1b9904066841fe7bbc40d9 = private unnamed_addr constant <{ ptr, [8 x i8] }> <{ ptr @alloc_d3fe35854b9c4a4b8137be3d36d6f33e, [8 x i8] c"=\00\00\00\00\00\00\00" }>, align 8
@alloc_e698a6e1bbd035bb778f434b08e1c253 = private unnamed_addr constant <{ ptr, [16 x i8] }> <{ ptr @alloc_4e681e6c71669baf6ee0735d8936a354, [16 x i8] c"`\00\00\00\00\00\00\00+\05\00\00\1F\00\00\00" }>, align 8
@alloc_57af42da04753980885dd3261baa115f = private unnamed_addr constant <{ [33 x i8] }> <{ [33 x i8] c"assertion failed: self.height > 0" }>, align 1
@alloc_bbf228e312b9886248bbcd545c7fb6c7 = private unnamed_addr constant <{ ptr, [16 x i8] }> <{ ptr @alloc_4e681e6c71669baf6ee0735d8936a354, [16 x i8] c"`\00\00\00\00\00\00\00b\02\00\00\09\00\00\00" }>, align 8
@alloc_930f3883875d82d5043e839301ab22e6 = private unnamed_addr constant <{ [40 x i8] }> <{ [40 x i8] c"assertion failed: src.len() == dst.len()" }>, align 1
@alloc_1f30cd8fe49e32752d257fc45d8f0c38 = private unnamed_addr constant <{ ptr, [16 x i8] }> <{ ptr @alloc_4e681e6c71669baf6ee0735d8936a354, [16 x i8] c"`\00\00\00\00\00\00\00/\07\00\00\05\00\00\00" }>, align 8
@alloc_a66d4bdfe7cf8de0b7438371ccfec7df = private unnamed_addr constant <{ [51 x i8] }> <{ [51 x i8] c"assertion failed: old_right_len + count <= CAPACITY" }>, align 1
@alloc_30e606634fb95118c1ffd993e8c45a05 = private unnamed_addr constant <{ ptr, [16 x i8] }> <{ ptr @alloc_4e681e6c71669baf6ee0735d8936a354, [16 x i8] c"`\00\00\00\00\00\00\00\DC\05\00\00\0D\00\00\00" }>, align 8
@alloc_f94ba4077010ea929d5e30b8e9e1a64d = private unnamed_addr constant <{ [39 x i8] }> <{ [39 x i8] c"assertion failed: old_left_len >= count" }>, align 1
@alloc_63812507605966a1aba974f34465b140 = private unnamed_addr constant <{ ptr, [16 x i8] }> <{ ptr @alloc_4e681e6c71669baf6ee0735d8936a354, [16 x i8] c"`\00\00\00\00\00\00\00\DD\05\00\00\0D\00\00\00" }>, align 8
@alloc_a500d906b91607583596fa15e63c2ada = private unnamed_addr constant <{ [40 x i8] }> <{ [40 x i8] c"internal error: entered unreachable code" }>, align 1
@alloc_3e41dacd6fbbbb866122b2674a2ab612 = private unnamed_addr constant <{ ptr, [16 x i8] }> <{ ptr @alloc_4e681e6c71669baf6ee0735d8936a354, [16 x i8] c"`\00\00\00\00\00\00\00\0C\06\00\00\16\00\00\00" }>, align 8
@alloc_9d563bf934af269243f4fd2d81e69a4f = private unnamed_addr constant <{ [50 x i8] }> <{ [50 x i8] c"assertion failed: old_left_len + count <= CAPACITY" }>, align 1
@alloc_d2d8ed571337d0f5460666618f6c2ccb = private unnamed_addr constant <{ ptr, [16 x i8] }> <{ ptr @alloc_4e681e6c71669baf6ee0735d8936a354, [16 x i8] c"`\00\00\00\00\00\00\00\1B\06\00\00\0D\00\00\00" }>, align 8
@alloc_5e53e616a4e5193095e41a5e7312aea3 = private unnamed_addr constant <{ [40 x i8] }> <{ [40 x i8] c"assertion failed: old_right_len >= count" }>, align 1
@alloc_f5f4934e22d9035b8977343e4247e188 = private unnamed_addr constant <{ ptr, [16 x i8] }> <{ ptr @alloc_4e681e6c71669baf6ee0735d8936a354, [16 x i8] c"`\00\00\00\00\00\00\00\1C\06\00\00\0D\00\00\00" }>, align 8
@alloc_69db9120aa55b5182a512c02886fd500 = private unnamed_addr constant <{ ptr, [16 x i8] }> <{ ptr @alloc_4e681e6c71669baf6ee0735d8936a354, [16 x i8] c"`\00\00\00\00\00\00\00L\06\00\00\16\00\00\00" }>, align 8
@alloc_4e4153aacd48610663161d906530c35c = private unnamed_addr constant <{ [142 x i8] }> <{ [142 x i8] c"assertion failed: match track_edge_idx {\0A    LeftOrRight::Left(idx) => idx <= old_left_len,\0A    LeftOrRight::Right(idx) => idx <= right_len,\0A}" }>, align 1
@alloc_4906627430d6c1a52bc1ed0bd1840289 = private unnamed_addr constant <{ ptr, [16 x i8] }> <{ ptr @alloc_4e681e6c71669baf6ee0735d8936a354, [16 x i8] c"`\00\00\00\00\00\00\00\AE\05\00\00\09\00\00\00" }>, align 8
@alloc_7fc933073406393c8cdf3acaf19df934 = private unnamed_addr constant <{ [42 x i8] }> <{ [42 x i8] c"assertion failed: new_left_len <= CAPACITY" }>, align 1
@alloc_0357c35213e22dbc4d8812fdfc3cf31b = private unnamed_addr constant <{ ptr, [16 x i8] }> <{ ptr @alloc_4e681e6c71669baf6ee0735d8936a354, [16 x i8] c"`\00\00\00\00\00\00\00a\05\00\00\09\00\00\00" }>, align 8
@alloc_039d7007b63baf925d2271c01a8bab24 = private unnamed_addr constant <{ ptr, [16 x i8] }> <{ ptr @alloc_663191912e362154fd569a725b9c3026, [16 x i8] c"d\00\00\00\00\00\00\00Y\02\00\000\00\00\00" }>, align 8
@alloc_d23228ce5ec6b08a1643ea9464f1daeb = private unnamed_addr constant <{ ptr, [16 x i8] }> <{ ptr @alloc_663191912e362154fd569a725b9c3026, [16 x i8] c"d\00\00\00\00\00\00\00\17\02\00\00/\00\00\00" }>, align 8
@alloc_c24246998cbea3ca9ebd4c6a9b03a914 = private unnamed_addr constant <{ ptr, [16 x i8] }> <{ ptr @alloc_663191912e362154fd569a725b9c3026, [16 x i8] c"d\00\00\00\00\00\00\00\C7\00\00\00'\00\00\00" }>, align 8
@__rust_no_alloc_shim_is_unstable = external global i8
@alloc_d0776666182ad032bd1011cf266e2f3a = private unnamed_addr constant <{ [16 x i8] }> <{ [16 x i8] c"\FF\FF\FF\FF\FF\FF\FF\FF\FF\FF\FF\FF\FF\FF\FF\FF" }>, align 16
@0 = private unnamed_addr constant <{ ptr, [24 x i8] }> <{ ptr @alloc_d0776666182ad032bd1011cf266e2f3a, [24 x i8] zeroinitializer }>, align 8
@alloc_5a41b424cf1ca22ef658dd4c73b93667 = private unnamed_addr constant <{ [95 x i8] }> <{ [95 x i8] c"/home/arsalan/Documents/Github/unsafe-rust-benchmark/library/alloc/src/collections/btree/map.rs" }>, align 1
@alloc_d7eb5e34b736a718d8320bb01c84f350 = private unnamed_addr constant <{ ptr, [16 x i8] }> <{ ptr @alloc_5a41b424cf1ca22ef658dd4c73b93667, [16 x i8] c"_\00\00\00\00\00\00\00\FA\00\00\00?\00\00\00" }>, align 8
@alloc_0f3cc0a903061f7294837b88f26e7f03 = private unnamed_addr constant <{ ptr, [16 x i8] }> <{ ptr @alloc_5a41b424cf1ca22ef658dd4c73b93667, [16 x i8] c"_\00\00\00\00\00\00\00\1F\01\00\00.\00\00\00" }>, align 8
@alloc_5bdf522485d6e90d264bf4d08218ce51 = private unnamed_addr constant <{ [104 x i8] }> <{ [104 x i8] c"/home/arsalan/.cargo/registry/src/index.crates.io-1949cf8c6b5b557f/signal-hook-registry-1.4.1/src/lib.rs" }>, align 1
@_ZN20signal_hook_registry11GLOBAL_DATA17h75b5ce311239b443E = internal global <{ [8 x i8], [80 x i8] }> <{ [8 x i8] zeroinitializer, [80 x i8] undef }>, align 8, !dbg !0
@_ZN20signal_hook_registry11GLOBAL_INIT17h8645eff341b36640E = internal global <{ [4 x i8] }> zeroinitializer, align 4, !dbg !417
@alloc_85e613922f9c69c6da4cf4e8674aa6c3 = private unnamed_addr constant <{ ptr, [16 x i8] }> <{ ptr @alloc_5bdf522485d6e90d264bf4d08218ce51, [16 x i8] c"h\00\00\00\00\00\00\00\1F\01\00\00'\00\00\00" }>, align 8
@alloc_cfcaed2b2c367178d3a7336e1f458cb6 = private unnamed_addr constant <{ ptr, [16 x i8] }> <{ ptr @alloc_5bdf522485d6e90d264bf4d08218ce51, [16 x i8] c"h\00\00\00\00\00\00\00\22\01\00\00\15\00\00\00" }>, align 8
@alloc_4785e2f62577a383ba848e8e1769466d = private unnamed_addr constant <{ [64 x i8] }> <{ [64 x i8] c"Platform broken, got NULL as siginfo to signal handler. Aborting" }>, align 1

; std::sys::sync::once::futex::Once::call
; Function Attrs: cold nonlazybind uwtable
define internal fastcc void @_ZN3std3sys4sync4once5futex4Once4call17h204c47ecf6056759E(ptr noalias nocapture noundef readonly align 8 dereferenceable(8) %f) unnamed_addr #0 personality ptr @rust_eh_personality !dbg !620 {
start:
  %_37 = alloca [0 x i8], align 8
  %_5.i.i = alloca [64 x i8], align 16
  %_2.sroa.5.sroa.0.i.i = alloca [16 x i8], align 8
  %_2.sroa.5.sroa.6.i.i = alloca [16 x i8], align 8
  %_2.sroa.5.sroa.7.sroa.0.i.i = alloca [16 x i8], align 8
  %_2.sroa.5.sroa.7.sroa.6.i.i = alloca [16 x i8], align 8
  %_35 = alloca [48 x i8], align 8
  call void @llvm.dbg.declare(metadata ptr undef, metadata !681, metadata !DIExpression(DW_OP_LLVM_fragment, 40, 24)), !dbg !694
  %waiter_queue = alloca [16 x i8], align 8
  %_7 = alloca [48 x i8], align 8
  tail call void @llvm.dbg.value(metadata i8 2, metadata !695, metadata !DIExpression()), !dbg !707
  tail call void @llvm.dbg.value(metadata ptr @alloc_9cc4df00976b591da2e084a2cf898fab, metadata !709, metadata !DIExpression()), !dbg !844
  tail call void @llvm.dbg.value(metadata i32 2, metadata !848, metadata !DIExpression()), !dbg !880
  tail call void @llvm.dbg.value(metadata i8 2, metadata !872, metadata !DIExpression()), !dbg !880
  tail call void @llvm.dbg.value(metadata i8 2, metadata !873, metadata !DIExpression()), !dbg !880
  tail call void @llvm.dbg.value(metadata i32 2, metadata !876, metadata !DIExpression()), !dbg !882
  tail call void @llvm.dbg.value(metadata i32 3, metadata !877, metadata !DIExpression()), !dbg !882
  tail call void @llvm.dbg.value(metadata i8 0, metadata !878, metadata !DIExpression()), !dbg !882
  tail call void @llvm.dbg.value(metadata i8 2, metadata !879, metadata !DIExpression()), !dbg !882
  tail call void @llvm.dbg.value(metadata i8 2, metadata !706, metadata !DIExpression()), !dbg !884
  tail call void @llvm.dbg.value(metadata ptr @alloc_2a9cdb20370524832dacb396d295f90f, metadata !886, metadata !DIExpression()), !dbg !898
  tail call void @llvm.dbg.value(metadata ptr @_ZN20signal_hook_registry11GLOBAL_INIT17h8645eff341b36640E, metadata !667, metadata !DIExpression()), !dbg !899
  tail call void @llvm.dbg.value(metadata i1 false, metadata !668, metadata !DIExpression(DW_OP_LLVM_convert, 1, DW_ATE_unsigned, DW_OP_LLVM_convert, 8, DW_ATE_unsigned, DW_OP_stack_value)), !dbg !899
  tail call void @llvm.dbg.value(metadata ptr %f, metadata !669, metadata !DIExpression()), !dbg !899
  call void @llvm.dbg.declare(metadata ptr %waiter_queue, metadata !674, metadata !DIExpression()), !dbg !900
  tail call void @llvm.dbg.value(metadata ptr @_ZN20signal_hook_registry11GLOBAL_INIT17h8645eff341b36640E, metadata !703, metadata !DIExpression()), !dbg !707
  tail call void @llvm.dbg.value(metadata i8 2, metadata !901, metadata !DIExpression()), !dbg !908
  tail call void @llvm.dbg.value(metadata ptr @_ZN20signal_hook_registry11GLOBAL_INIT17h8645eff341b36640E, metadata !907, metadata !DIExpression()), !dbg !908
  tail call void @llvm.dbg.value(metadata i32 %0, metadata !670, metadata !DIExpression()), !dbg !910
  br label %bb1.sink.split, !dbg !911

bb1.sink.split:                                   ; preds = %start, %bb13
  %0 = load atomic i32, ptr @_ZN20signal_hook_registry11GLOBAL_INIT17h8645eff341b36640E acquire, align 4, !dbg !912
  br label %bb1, !dbg !914

bb1:                                              ; preds = %bb1.backedge, %bb1.sink.split
  %state.sroa.0.0 = phi i32 [ %0, %bb1.sink.split ], [ %state.sroa.0.0.be, %bb1.backedge ], !dbg !899
  tail call void @llvm.dbg.value(metadata i32 %state.sroa.0.0, metadata !670, metadata !DIExpression()), !dbg !910
  switch i32 %state.sroa.0.0, label %bb2 [
    i32 1, label %bb4
    i32 0, label %bb5
    i32 4, label %bb16
    i32 2, label %bb10
    i32 3, label %bb13
  ], !dbg !914

bb2:                                              ; preds = %bb1
  call void @llvm.lifetime.start.p0(i64 48, ptr nonnull %_35), !dbg !915
  tail call void @llvm.dbg.value(metadata ptr %_37, metadata !897, metadata !DIExpression()), !dbg !898
  store ptr @alloc_2a9cdb20370524832dacb396d295f90f, ptr %_35, align 8, !dbg !916
  %1 = getelementptr inbounds i8, ptr %_35, i64 8, !dbg !916
  store i64 1, ptr %1, align 8, !dbg !916
  %2 = getelementptr inbounds i8, ptr %_35, i64 32, !dbg !916
  store ptr null, ptr %2, align 8, !dbg !916
  %3 = getelementptr inbounds i8, ptr %_35, i64 16, !dbg !916
  store ptr %_37, ptr %3, align 8, !dbg !916
  %4 = getelementptr inbounds i8, ptr %_35, i64 24, !dbg !916
  store i64 0, ptr %4, align 8, !dbg !916
; call core::panicking::panic_fmt
  call void @_ZN4core9panicking9panic_fmt17h3111a7beccfa68f5E(ptr noalias nocapture noundef nonnull readonly align 8 dereferenceable(48) %_35, ptr noalias noundef nonnull readonly align 8 dereferenceable(24) @alloc_cfcaed2b2c367178d3a7336e1f458cb6) #21, !dbg !915
  unreachable, !dbg !915

bb5:                                              ; preds = %bb1
  tail call void @llvm.dbg.value(metadata ptr @_ZN20signal_hook_registry11GLOBAL_INIT17h8645eff341b36640E, metadata !870, metadata !DIExpression()), !dbg !880
  tail call void @llvm.dbg.value(metadata i32 %state.sroa.0.0, metadata !871, metadata !DIExpression()), !dbg !880
  tail call void @llvm.dbg.value(metadata i8 2, metadata !917, metadata !DIExpression()), !dbg !930
  tail call void @llvm.dbg.value(metadata i8 2, metadata !926, metadata !DIExpression()), !dbg !930
  tail call void @llvm.dbg.value(metadata ptr @_ZN20signal_hook_registry11GLOBAL_INIT17h8645eff341b36640E, metadata !923, metadata !DIExpression()), !dbg !930
  tail call void @llvm.dbg.value(metadata i32 %state.sroa.0.0, metadata !924, metadata !DIExpression()), !dbg !930
  tail call void @llvm.dbg.value(metadata i32 2, metadata !925, metadata !DIExpression()), !dbg !930
  %5 = cmpxchg weak ptr @_ZN20signal_hook_registry11GLOBAL_INIT17h8645eff341b36640E, i32 0, i32 2 acquire acquire, align 4, !dbg !932
  %_8.sroa.18.0.in.i = extractvalue { i32, i1 } %5, 1, !dbg !930
  br i1 %_8.sroa.18.0.in.i, label %bb7, label %bb1.backedge, !dbg !933

bb1.backedge:                                     ; preds = %bb5, %bb10
  %.pn = phi { i32, i1 } [ %5, %bb5 ], [ %31, %bb10 ]
  %state.sroa.0.0.be = extractvalue { i32, i1 } %.pn, 0, !dbg !934
  br label %bb1, !dbg !910

bb16:                                             ; preds = %bb1, %bb8
  ret void, !dbg !936

bb4:                                              ; preds = %bb1
  call void @llvm.lifetime.start.p0(i64 48, ptr nonnull %_7), !dbg !937
  store ptr @alloc_9cc4df00976b591da2e084a2cf898fab, ptr %_7, align 8, !dbg !938
  %6 = getelementptr inbounds i8, ptr %_7, i64 8, !dbg !938
  store i64 1, ptr %6, align 8, !dbg !938
  %7 = getelementptr inbounds i8, ptr %_7, i64 32, !dbg !938
  store ptr null, ptr %7, align 8, !dbg !938
  %8 = getelementptr inbounds i8, ptr %_7, i64 16, !dbg !938
  store ptr inttoptr (i64 8 to ptr), ptr %8, align 8, !dbg !938
  %9 = getelementptr inbounds i8, ptr %_7, i64 24, !dbg !938
  store i64 0, ptr %9, align 8, !dbg !938
; call core::panicking::panic_fmt
  call void @_ZN4core9panicking9panic_fmt17h3111a7beccfa68f5E(ptr noalias nocapture noundef nonnull readonly align 8 dereferenceable(48) %_7, ptr noalias noundef nonnull readonly align 8 dereferenceable(24) @alloc_cfcaed2b2c367178d3a7336e1f458cb6) #21, !dbg !937
  unreachable, !dbg !937

bb7:                                              ; preds = %bb5
  call void @llvm.lifetime.start.p0(i64 16, ptr nonnull %waiter_queue), !dbg !939
  store ptr @_ZN20signal_hook_registry11GLOBAL_INIT17h8645eff341b36640E, ptr %waiter_queue, align 8, !dbg !940
  %10 = getelementptr inbounds i8, ptr %waiter_queue, i64 8, !dbg !940
  store i32 1, ptr %10, align 8, !dbg !940
  tail call void @llvm.dbg.value(metadata i32 4, metadata !681, metadata !DIExpression(DW_OP_LLVM_fragment, 0, 32)), !dbg !941
  tail call void @llvm.dbg.value(metadata i1 false, metadata !681, metadata !DIExpression(DW_OP_LLVM_convert, 1, DW_ATE_unsigned, DW_OP_LLVM_convert, 8, DW_ATE_unsigned, DW_OP_stack_value, DW_OP_LLVM_fragment, 32, 8)), !dbg !941
  %f.val = load ptr, ptr %f, align 8, !dbg !942, !nonnull !13, !align !943, !noundef !13
  call void @llvm.dbg.value(metadata ptr undef, metadata !944, metadata !DIExpression(DW_OP_deref, DW_OP_deref)), !dbg !954
  call void @llvm.dbg.value(metadata ptr undef, metadata !951, metadata !DIExpression()), !dbg !954
  call void @llvm.dbg.value(metadata ptr %f.val, metadata !956, metadata !DIExpression()), !dbg !964
  call void @llvm.dbg.value(metadata ptr %f.val, metadata !966, metadata !DIExpression()), !dbg !978
  call void @llvm.dbg.value(metadata ptr %f.val, metadata !980, metadata !DIExpression()), !dbg !988
  call void @llvm.dbg.value(metadata ptr %f.val, metadata !990, metadata !DIExpression()), !dbg !998
  call void @llvm.dbg.value(metadata i8 0, metadata !973, metadata !DIExpression()), !dbg !978
  call void @llvm.dbg.value(metadata i8 0, metadata !997, metadata !DIExpression()), !dbg !998
  %11 = load i8, ptr %f.val, align 1, !dbg !1000, !range !1001, !noundef !13
  call void @llvm.dbg.value(metadata i8 %11, metadata !974, metadata !DIExpression(DW_OP_constu, 0, DW_OP_ne, DW_OP_LLVM_convert, 1, DW_ATE_unsigned, DW_OP_LLVM_convert, 8, DW_ATE_unsigned, DW_OP_stack_value)), !dbg !1002
  call void @llvm.dbg.value(metadata i8 %11, metadata !1003, metadata !DIExpression(DW_OP_constu, 0, DW_OP_ne, DW_OP_LLVM_convert, 1, DW_ATE_unsigned, DW_OP_LLVM_convert, 8, DW_ATE_unsigned, DW_OP_stack_value)), !dbg !1012
  store i8 0, ptr %f.val, align 1, !dbg !1014
  %trunc.not.i = icmp eq i8 %11, 0, !dbg !1015
  br i1 %trunc.not.i, label %bb3.i, label %bb4.i, !dbg !1015

bb3.i:                                            ; preds = %bb7
; invoke core::option::unwrap_failed
  invoke void @_ZN4core6option13unwrap_failed17h7a3768beeda72485E(ptr noalias noundef nonnull readonly align 8 dereferenceable(24) @alloc_323e3e924a872d3e19f6b8d20ac72063) #21
          to label %.noexc unwind label %cleanup, !dbg !1016

.noexc:                                           ; preds = %bb3.i
  unreachable, !dbg !1016

bb4.i:                                            ; preds = %bb7
  call void @llvm.dbg.declare(metadata ptr poison, metadata !1017, metadata !DIExpression(DW_OP_LLVM_fragment, 64, 1280)), !dbg !1026
  call void @llvm.dbg.declare(metadata ptr poison, metadata !1034, metadata !DIExpression(DW_OP_LLVM_fragment, 64, 1280)), !dbg !1044
  call void @llvm.dbg.value(metadata !13, metadata !1045, metadata !DIExpression()), !dbg !1107
  call void @llvm.dbg.declare(metadata ptr undef, metadata !1106, metadata !DIExpression()), !dbg !1132
  call void @llvm.dbg.declare(metadata ptr undef, metadata !1042, metadata !DIExpression()), !dbg !1133
  call void @llvm.lifetime.start.p0(i64 16, ptr nonnull %_2.sroa.5.sroa.0.i.i), !dbg !1134
  call void @llvm.lifetime.start.p0(i64 16, ptr nonnull %_2.sroa.5.sroa.6.i.i), !dbg !1134
  call void @llvm.lifetime.start.p0(i64 16, ptr nonnull %_2.sroa.5.sroa.7.sroa.0.i.i), !dbg !1134
  call void @llvm.lifetime.start.p0(i64 16, ptr nonnull %_2.sroa.5.sroa.7.sroa.6.i.i), !dbg !1134
  call void @llvm.lifetime.start.p0(i64 64, ptr nonnull %_5.i.i), !dbg !1135, !unsafe_inst !1136
  call void @llvm.dbg.value(metadata !13, metadata !1137, metadata !DIExpression()), !dbg !1185
  call void @llvm.dbg.declare(metadata ptr undef, metadata !1159, metadata !DIExpression()), !dbg !1187
  call void @llvm.dbg.value(metadata ptr null, metadata !1188, metadata !DIExpression()), !dbg !1207
  call void @llvm.dbg.declare(metadata ptr poison, metadata !1200, metadata !DIExpression()), !dbg !1209
  call void @llvm.dbg.value(metadata ptr undef, metadata !1210, metadata !DIExpression()), !dbg !1218
  call void @llvm.dbg.value(metadata ptr null, metadata !1217, metadata !DIExpression()), !dbg !1218
  call void @llvm.dbg.value(metadata ptr @"_ZN3std4hash6random11RandomState3new4KEYS29_$u7b$$u7b$constant$u7d$$u7d$28_$u7b$$u7b$closure$u7d$$u7d$3VAL17ha146926d5afc50bdE", metadata !1220, metadata !DIExpression()), !dbg !1269
  call void @llvm.dbg.value(metadata ptr null, metadata !1262, metadata !DIExpression()), !dbg !1269
  call void @llvm.dbg.declare(metadata ptr undef, metadata !1263, metadata !DIExpression()), !dbg !1271
  call void @llvm.dbg.value(metadata ptr @"_ZN3std4hash6random11RandomState3new4KEYS29_$u7b$$u7b$constant$u7d$$u7d$28_$u7b$$u7b$closure$u7d$$u7d$3VAL17ha146926d5afc50bdE", metadata !1264, metadata !DIExpression()), !dbg !1272
  %_6.i.i.i.i.i.i = load i64, ptr @"_ZN3std4hash6random11RandomState3new4KEYS29_$u7b$$u7b$constant$u7d$$u7d$28_$u7b$$u7b$closure$u7d$$u7d$3VAL17ha146926d5afc50bdE", align 8, !dbg !1273, !range !1274, !noalias !1275, !noundef !13
  %trunc.not.i.i.i.i.i.i = icmp eq i64 %_6.i.i.i.i.i.i, 0, !dbg !1284
  br i1 %trunc.not.i.i.i.i.i.i, label %bb2.i.i.i.i.i.i, label %start.bb3_crit_edge.i.i.i, !dbg !1284

start.bb3_crit_edge.i.i.i:                        ; preds = %bb4.i
  %k0.i.pre.i.i.i = load i64, ptr getelementptr inbounds (%"std::sys::thread_local::fast_local::lazy::Storage<core::cell::Cell<(u64, u64)>, !>", ptr @"_ZN3std4hash6random11RandomState3new4KEYS29_$u7b$$u7b$constant$u7d$$u7d$28_$u7b$$u7b$closure$u7d$$u7d$3VAL17ha146926d5afc50bdE", i64 0, i32 0, i32 0, i32 1, i64 0), align 8, !dbg !1285, !noalias !1305
  %k1.i.pre.i.i.i = load i64, ptr getelementptr inbounds (%"std::sys::thread_local::fast_local::lazy::Storage<core::cell::Cell<(u64, u64)>, !>", ptr @"_ZN3std4hash6random11RandomState3new4KEYS29_$u7b$$u7b$constant$u7d$$u7d$28_$u7b$$u7b$closure$u7d$$u7d$3VAL17ha146926d5afc50bdE", i64 0, i32 0, i32 0, i32 1, i64 1), align 8, !dbg !1285, !noalias !1305
  br label %"_ZN4core6result19Result$LT$T$C$E$GT$6expect17ha7b5584efbbb0947E.exit.i.i", !dbg !1284

bb2.i.i.i.i.i.i:                                  ; preds = %bb4.i
  call void @llvm.dbg.value(metadata ptr null, metadata !1306, metadata !DIExpression()), !dbg !1321
  call void @llvm.dbg.value(metadata ptr @"_ZN3std4hash6random11RandomState3new4KEYS29_$u7b$$u7b$constant$u7d$$u7d$28_$u7b$$u7b$closure$u7d$$u7d$3VAL17ha146926d5afc50bdE", metadata !1311, metadata !DIExpression()), !dbg !1321
  call void @llvm.dbg.declare(metadata ptr undef, metadata !1312, metadata !DIExpression()), !dbg !1323
  call void @llvm.dbg.declare(metadata ptr undef, metadata !1324, metadata !DIExpression()), !dbg !1336
  call void @llvm.dbg.declare(metadata ptr undef, metadata !1338, metadata !DIExpression()), !dbg !1347
  call void @llvm.dbg.declare(metadata ptr undef, metadata !1343, metadata !DIExpression()), !dbg !1347
; invoke std::sys::pal::unix::rand::hashmap_random_keys
  %12 = invoke { i64, i64 } @_ZN3std3sys3pal4unix4rand19hashmap_random_keys17h9be488f6a755d9d7E()
          to label %.noexc26 unwind label %cleanup, !dbg !1349

.noexc26:                                         ; preds = %bb2.i.i.i.i.i.i
  %13 = extractvalue { i64, i64 } %12, 0, !dbg !1353
  %14 = extractvalue { i64, i64 } %12, 1, !dbg !1353
  call void @llvm.dbg.value(metadata i64 %13, metadata !1313, metadata !DIExpression(DW_OP_LLVM_fragment, 0, 64)), !dbg !1354
  call void @llvm.dbg.value(metadata i64 %14, metadata !1313, metadata !DIExpression(DW_OP_LLVM_fragment, 64, 64)), !dbg !1354
  call void @llvm.dbg.value(metadata ptr @"_ZN3std4hash6random11RandomState3new4KEYS29_$u7b$$u7b$constant$u7d$$u7d$28_$u7b$$u7b$closure$u7d$$u7d$3VAL17ha146926d5afc50bdE", metadata !1355, metadata !DIExpression()), !dbg !1365
  call void @llvm.dbg.value(metadata ptr @"_ZN3std4hash6random11RandomState3new4KEYS29_$u7b$$u7b$constant$u7d$$u7d$28_$u7b$$u7b$closure$u7d$$u7d$3VAL17ha146926d5afc50bdE", metadata !1367, metadata !DIExpression()), !dbg !1372
  call void @llvm.dbg.value(metadata ptr @"_ZN3std4hash6random11RandomState3new4KEYS29_$u7b$$u7b$constant$u7d$$u7d$28_$u7b$$u7b$closure$u7d$$u7d$3VAL17ha146926d5afc50bdE", metadata !1374, metadata !DIExpression()), !dbg !1384
  call void @llvm.dbg.value(metadata ptr @"_ZN3std4hash6random11RandomState3new4KEYS29_$u7b$$u7b$constant$u7d$$u7d$28_$u7b$$u7b$closure$u7d$$u7d$3VAL17ha146926d5afc50bdE", metadata !1386, metadata !DIExpression()), !dbg !1393
  call void @llvm.dbg.value(metadata i64 %13, metadata !1364, metadata !DIExpression(DW_OP_LLVM_fragment, 64, 64)), !dbg !1365
  call void @llvm.dbg.value(metadata i64 %13, metadata !1371, metadata !DIExpression(DW_OP_LLVM_fragment, 64, 64)), !dbg !1372
  call void @llvm.dbg.value(metadata i64 %13, metadata !1381, metadata !DIExpression(DW_OP_LLVM_fragment, 64, 64)), !dbg !1384
  call void @llvm.dbg.value(metadata i64 %13, metadata !1392, metadata !DIExpression(DW_OP_LLVM_fragment, 64, 64)), !dbg !1393
  call void @llvm.dbg.value(metadata i64 %14, metadata !1364, metadata !DIExpression(DW_OP_LLVM_fragment, 128, 64)), !dbg !1365
  call void @llvm.dbg.value(metadata i64 %14, metadata !1371, metadata !DIExpression(DW_OP_LLVM_fragment, 128, 64)), !dbg !1372
  call void @llvm.dbg.value(metadata i64 %14, metadata !1381, metadata !DIExpression(DW_OP_LLVM_fragment, 128, 64)), !dbg !1384
  call void @llvm.dbg.value(metadata i64 %14, metadata !1392, metadata !DIExpression(DW_OP_LLVM_fragment, 128, 64)), !dbg !1393
  call void @llvm.dbg.value(metadata i64 1, metadata !1364, metadata !DIExpression(DW_OP_LLVM_fragment, 0, 64)), !dbg !1365
  call void @llvm.dbg.value(metadata i64 1, metadata !1371, metadata !DIExpression(DW_OP_LLVM_fragment, 0, 64)), !dbg !1372
  call void @llvm.dbg.value(metadata i64 1, metadata !1381, metadata !DIExpression(DW_OP_LLVM_fragment, 0, 64)), !dbg !1384
  call void @llvm.dbg.value(metadata i64 1, metadata !1392, metadata !DIExpression(DW_OP_LLVM_fragment, 0, 64)), !dbg !1393
  call void @llvm.dbg.value(metadata i64 poison, metadata !1382, metadata !DIExpression(DW_OP_LLVM_fragment, 0, 64)), !dbg !1395
  store i64 1, ptr @"_ZN3std4hash6random11RandomState3new4KEYS29_$u7b$$u7b$constant$u7d$$u7d$28_$u7b$$u7b$closure$u7d$$u7d$3VAL17ha146926d5afc50bdE", align 8, !dbg !1396, !noalias !1397
  store i64 %14, ptr getelementptr inbounds (%"std::sys::thread_local::fast_local::lazy::Storage<core::cell::Cell<(u64, u64)>, !>", ptr @"_ZN3std4hash6random11RandomState3new4KEYS29_$u7b$$u7b$constant$u7d$$u7d$28_$u7b$$u7b$closure$u7d$$u7d$3VAL17ha146926d5afc50bdE", i64 0, i32 0, i32 0, i32 1, i64 1), align 8, !dbg !1396, !noalias !1397
  br label %"_ZN4core6result19Result$LT$T$C$E$GT$6expect17ha7b5584efbbb0947E.exit.i.i", !dbg !1400

"_ZN4core6result19Result$LT$T$C$E$GT$6expect17ha7b5584efbbb0947E.exit.i.i": ; preds = %.noexc26, %start.bb3_crit_edge.i.i.i
  %k1.i.i.i.i = phi i64 [ %k1.i.pre.i.i.i, %start.bb3_crit_edge.i.i.i ], [ %14, %.noexc26 ], !dbg !1285
  %k0.i.i.i.i = phi i64 [ %k0.i.pre.i.i.i, %start.bb3_crit_edge.i.i.i ], [ %13, %.noexc26 ], !dbg !1285
  call void @llvm.dbg.value(metadata ptr getelementptr inbounds (%"std::sys::thread_local::fast_local::lazy::Storage<core::cell::Cell<(u64, u64)>, !>", ptr @"_ZN3std4hash6random11RandomState3new4KEYS29_$u7b$$u7b$constant$u7d$$u7d$28_$u7b$$u7b$closure$u7d$$u7d$3VAL17ha146926d5afc50bdE", i64 0, i32 0, i32 0, i32 1, i64 0), metadata !1160, metadata !DIExpression()), !dbg !1401
  call void @llvm.dbg.value(metadata i64 1, metadata !1402, metadata !DIExpression()), !dbg !1412
  call void @llvm.dbg.declare(metadata ptr undef, metadata !1303, metadata !DIExpression()), !dbg !1414
  call void @llvm.dbg.value(metadata ptr getelementptr inbounds (%"std::sys::thread_local::fast_local::lazy::Storage<core::cell::Cell<(u64, u64)>, !>", ptr @"_ZN3std4hash6random11RandomState3new4KEYS29_$u7b$$u7b$constant$u7d$$u7d$28_$u7b$$u7b$closure$u7d$$u7d$3VAL17ha146926d5afc50bdE", i64 0, i32 0, i32 0, i32 1, i64 0), metadata !1299, metadata !DIExpression()), !dbg !1415
  call void @llvm.dbg.value(metadata ptr getelementptr inbounds (%"std::sys::thread_local::fast_local::lazy::Storage<core::cell::Cell<(u64, u64)>, !>", ptr @"_ZN3std4hash6random11RandomState3new4KEYS29_$u7b$$u7b$constant$u7d$$u7d$28_$u7b$$u7b$closure$u7d$$u7d$3VAL17ha146926d5afc50bdE", i64 0, i32 0, i32 0, i32 1, i64 0), metadata !1293, metadata !DIExpression()), !dbg !1416
  call void @llvm.dbg.value(metadata ptr getelementptr inbounds (%"std::sys::thread_local::fast_local::lazy::Storage<core::cell::Cell<(u64, u64)>, !>", ptr @"_ZN3std4hash6random11RandomState3new4KEYS29_$u7b$$u7b$constant$u7d$$u7d$28_$u7b$$u7b$closure$u7d$$u7d$3VAL17ha146926d5afc50bdE", i64 0, i32 0, i32 0, i32 1, i64 0), metadata !1417, metadata !DIExpression()), !dbg !1425
  call void @llvm.dbg.value(metadata ptr getelementptr inbounds (%"std::sys::thread_local::fast_local::lazy::Storage<core::cell::Cell<(u64, u64)>, !>", ptr @"_ZN3std4hash6random11RandomState3new4KEYS29_$u7b$$u7b$constant$u7d$$u7d$28_$u7b$$u7b$closure$u7d$$u7d$3VAL17ha146926d5afc50bdE", i64 0, i32 0, i32 0, i32 1, i64 0), metadata !1427, metadata !DIExpression()), !dbg !1435
  call void @llvm.dbg.value(metadata i64 %k0.i.i.i.i, metadata !1300, metadata !DIExpression()), !dbg !1437
  call void @llvm.dbg.value(metadata i64 %k0.i.i.i.i, metadata !1411, metadata !DIExpression()), !dbg !1412
  call void @llvm.dbg.value(metadata i64 %k1.i.i.i.i, metadata !1302, metadata !DIExpression()), !dbg !1437
  %_4.i.i.i.i = add i64 %k0.i.i.i.i, 1, !dbg !1438
  call void @llvm.dbg.value(metadata i64 %_4.i.i.i.i, metadata !1424, metadata !DIExpression(DW_OP_LLVM_fragment, 0, 64)), !dbg !1425
  call void @llvm.dbg.value(metadata i64 %_4.i.i.i.i, metadata !1434, metadata !DIExpression(DW_OP_LLVM_fragment, 0, 64)), !dbg !1435
  call void @llvm.dbg.value(metadata i64 %_4.i.i.i.i, metadata !1439, metadata !DIExpression(DW_OP_LLVM_fragment, 0, 64)), !dbg !1450
  call void @llvm.dbg.value(metadata i64 %_4.i.i.i.i, metadata !1452, metadata !DIExpression(DW_OP_LLVM_fragment, 0, 64)), !dbg !1459
  call void @llvm.dbg.value(metadata i64 %k1.i.i.i.i, metadata !1424, metadata !DIExpression(DW_OP_LLVM_fragment, 64, 64)), !dbg !1425
  call void @llvm.dbg.value(metadata i64 %k1.i.i.i.i, metadata !1434, metadata !DIExpression(DW_OP_LLVM_fragment, 64, 64)), !dbg !1435
  call void @llvm.dbg.value(metadata i64 %k1.i.i.i.i, metadata !1439, metadata !DIExpression(DW_OP_LLVM_fragment, 64, 64)), !dbg !1450
  call void @llvm.dbg.value(metadata i64 %k1.i.i.i.i, metadata !1452, metadata !DIExpression(DW_OP_LLVM_fragment, 64, 64)), !dbg !1459
  call void @llvm.dbg.value(metadata ptr getelementptr inbounds (%"std::sys::thread_local::fast_local::lazy::Storage<core::cell::Cell<(u64, u64)>, !>", ptr @"_ZN3std4hash6random11RandomState3new4KEYS29_$u7b$$u7b$constant$u7d$$u7d$28_$u7b$$u7b$closure$u7d$$u7d$3VAL17ha146926d5afc50bdE", i64 0, i32 0, i32 0, i32 1, i64 0), metadata !1446, metadata !DIExpression()), !dbg !1450
  call void @llvm.dbg.value(metadata ptr getelementptr inbounds (%"std::sys::thread_local::fast_local::lazy::Storage<core::cell::Cell<(u64, u64)>, !>", ptr @"_ZN3std4hash6random11RandomState3new4KEYS29_$u7b$$u7b$constant$u7d$$u7d$28_$u7b$$u7b$closure$u7d$$u7d$3VAL17ha146926d5afc50bdE", i64 0, i32 0, i32 0, i32 1, i64 0), metadata !1458, metadata !DIExpression()), !dbg !1459
  call void @llvm.dbg.value(metadata i64 poison, metadata !1448, metadata !DIExpression(DW_OP_LLVM_fragment, 0, 64)), !dbg !1461
  call void @llvm.dbg.value(metadata i64 poison, metadata !1448, metadata !DIExpression(DW_OP_LLVM_fragment, 64, 64)), !dbg !1461
  store i64 %_4.i.i.i.i, ptr getelementptr inbounds (%"std::sys::thread_local::fast_local::lazy::Storage<core::cell::Cell<(u64, u64)>, !>", ptr @"_ZN3std4hash6random11RandomState3new4KEYS29_$u7b$$u7b$constant$u7d$$u7d$28_$u7b$$u7b$closure$u7d$$u7d$3VAL17ha146926d5afc50bdE", i64 0, i32 0, i32 0, i32 1, i64 0), align 8, !dbg !1462, !noalias !1305
  call void @llvm.memcpy.p0.p0.i64(ptr noundef nonnull align 16 dereferenceable(32) %_5.i.i, ptr noundef nonnull align 8 dereferenceable(32) @0, i64 32, i1 false), !dbg !1135
  %_6.sroa.4.0._5.sroa_idx.i.i = getelementptr inbounds i8, ptr %_5.i.i, i64 32, !dbg !1135
  store i64 %k0.i.i.i.i, ptr %_6.sroa.4.0._5.sroa_idx.i.i, align 16, !dbg !1135
  %_6.sroa.5.0._5.sroa_idx.i.i = getelementptr inbounds i8, ptr %_5.i.i, i64 40, !dbg !1135
  store i64 %k1.i.i.i.i, ptr %_6.sroa.5.0._5.sroa_idx.i.i, align 8, !dbg !1135
  %15 = getelementptr inbounds i8, ptr %_5.i.i, i64 48, !dbg !1135, !unsafe_inst !1136
  store i128 1, ptr %15, align 16, !dbg !1135, !unsafe_inst !1136
  call void @llvm.dbg.declare(metadata ptr %_5.i.i, metadata !1463, metadata !DIExpression()), !dbg !1471
  call void @llvm.dbg.declare(metadata ptr %_5.i.i, metadata !1473, metadata !DIExpression()), !dbg !1479
  call void @llvm.dbg.value(metadata ptr inttoptr (i64 1 to ptr), metadata !1481, metadata !DIExpression()), !dbg !1524
  call void @llvm.dbg.value(metadata i64 64, metadata !1532, metadata !DIExpression()), !dbg !1538
  call void @llvm.dbg.value(metadata i64 16, metadata !1533, metadata !DIExpression()), !dbg !1538
  call void @llvm.dbg.value(metadata i64 16, metadata !1534, metadata !DIExpression(DW_OP_LLVM_fragment, 0, 64)), !dbg !1539
  call void @llvm.dbg.value(metadata i64 16, metadata !1523, metadata !DIExpression(DW_OP_LLVM_fragment, 0, 64)), !dbg !1524
  call void @llvm.dbg.value(metadata i64 64, metadata !1534, metadata !DIExpression(DW_OP_LLVM_fragment, 64, 64)), !dbg !1539
  call void @llvm.dbg.value(metadata i64 64, metadata !1523, metadata !DIExpression(DW_OP_LLVM_fragment, 64, 64)), !dbg !1524
  call void @llvm.dbg.value(metadata i64 16, metadata !1540, metadata !DIExpression(DW_OP_LLVM_fragment, 0, 64)), !dbg !1571
  call void @llvm.dbg.value(metadata i64 64, metadata !1540, metadata !DIExpression(DW_OP_LLVM_fragment, 64, 64)), !dbg !1571
  call void @llvm.dbg.value(metadata ptr undef, metadata !1546, metadata !DIExpression()), !dbg !1571
  call void @llvm.dbg.value(metadata i1 false, metadata !1547, metadata !DIExpression(DW_OP_LLVM_convert, 1, DW_ATE_unsigned, DW_OP_LLVM_convert, 8, DW_ATE_unsigned, DW_OP_stack_value)), !dbg !1571
  call void @llvm.dbg.value(metadata i64 64, metadata !1548, metadata !DIExpression()), !dbg !1573
  call void @llvm.dbg.value(metadata ptr @__rust_no_alloc_shim_is_unstable, metadata !1574, metadata !DIExpression()), !dbg !1580
  call void @llvm.dbg.value(metadata i64 16, metadata !1586, metadata !DIExpression(DW_OP_LLVM_fragment, 0, 64)), !dbg !1588
  call void @llvm.dbg.value(metadata i64 64, metadata !1586, metadata !DIExpression(DW_OP_LLVM_fragment, 64, 64)), !dbg !1588
  %16 = load volatile i8, ptr @__rust_no_alloc_shim_is_unstable, align 1, !dbg !1589, !noalias !1590
  %_0.i.i.i.i.i.i = tail call noalias noundef align 16 dereferenceable_or_null(64) ptr @__rust_alloc(i64 noundef 64, i64 noundef 16) #16, !dbg !1596, !noalias !1590
  %17 = icmp eq ptr %_0.i.i.i.i.i.i, null, !dbg !1597
  br i1 %17, label %bb2.i.i.i.i, label %"_ZN20signal_hook_registry9half_lock17HalfLock$LT$T$GT$3new17h35e79d6bf54515b0E.exit.i.i", !dbg !1598

bb2.i.i.i.i:                                      ; preds = %"_ZN4core6result19Result$LT$T$C$E$GT$6expect17ha7b5584efbbb0947E.exit.i.i"
; invoke alloc::alloc::handle_alloc_error
  invoke void @_ZN5alloc5alloc18handle_alloc_error17h668ad8a7a2fd77cbE(i64 noundef 16, i64 noundef 64) #21
          to label %.noexc.i.i.i unwind label %cleanup.i.i.i.i, !dbg !1599, !noalias !1600

.noexc.i.i.i:                                     ; preds = %bb2.i.i.i.i
  unreachable, !dbg !1599

cleanup.i.i.i.i:                                  ; preds = %bb2.i.i.i.i
  %18 = landingpad { ptr, i32 }
          cleanup
; invoke core::ptr::drop_in_place<signal_hook_registry::SignalData>
  invoke fastcc void @"_ZN4core3ptr53drop_in_place$LT$signal_hook_registry..SignalData$GT$17hdcaee5f580eec33fE"(ptr noalias noundef nonnull align 16 dereferenceable(64) %_5.i.i) #22
          to label %cleanup.body unwind label %terminate.i.i.i.i, !dbg !1601, !noalias !1602

terminate.i.i.i.i:                                ; preds = %cleanup.i.i.i.i
  %19 = landingpad { ptr, i32 }
          filter [0 x ptr] zeroinitializer
; call core::panicking::panic_in_cleanup
  tail call void @_ZN4core9panicking16panic_in_cleanup17h43442956f23e9cbeE() #23, !dbg !1603, !noalias !1600
  unreachable, !dbg !1603

"_ZN20signal_hook_registry9half_lock17HalfLock$LT$T$GT$3new17h35e79d6bf54515b0E.exit.i.i": ; preds = %"_ZN4core6result19Result$LT$T$C$E$GT$6expect17ha7b5584efbbb0947E.exit.i.i"
  call void @llvm.memcpy.p0.p0.i64(ptr noundef nonnull align 16 dereferenceable(64) %_0.i.i.i.i.i.i, ptr noundef nonnull align 16 dereferenceable(64) %_5.i.i, i64 64, i1 false), !dbg !1604, !noalias !1602
  call void @llvm.lifetime.end.p0(i64 64, ptr nonnull %_5.i.i), !dbg !1605, !unsafe_inst !1136
  call void @llvm.dbg.value(metadata i64 0, metadata !1034, metadata !DIExpression(DW_OP_LLVM_fragment, 0, 64)), !dbg !1606
  call void @llvm.dbg.value(metadata i64 0, metadata !1017, metadata !DIExpression(DW_OP_LLVM_fragment, 0, 64)), !dbg !1607
  call void @llvm.dbg.value(metadata ptr inttoptr (i64 1 to ptr), metadata !1481, metadata !DIExpression()), !dbg !1608
  call void @llvm.dbg.value(metadata i64 168, metadata !1532, metadata !DIExpression()), !dbg !1611
  call void @llvm.dbg.value(metadata i64 8, metadata !1533, metadata !DIExpression()), !dbg !1611
  call void @llvm.dbg.value(metadata i64 8, metadata !1534, metadata !DIExpression(DW_OP_LLVM_fragment, 0, 64)), !dbg !1612
  call void @llvm.dbg.value(metadata i64 8, metadata !1523, metadata !DIExpression(DW_OP_LLVM_fragment, 0, 64)), !dbg !1608
  call void @llvm.dbg.value(metadata i64 168, metadata !1534, metadata !DIExpression(DW_OP_LLVM_fragment, 64, 64)), !dbg !1612
  call void @llvm.dbg.value(metadata i64 168, metadata !1523, metadata !DIExpression(DW_OP_LLVM_fragment, 64, 64)), !dbg !1608
  call void @llvm.dbg.value(metadata i64 8, metadata !1540, metadata !DIExpression(DW_OP_LLVM_fragment, 0, 64)), !dbg !1613
  call void @llvm.dbg.value(metadata i64 168, metadata !1540, metadata !DIExpression(DW_OP_LLVM_fragment, 64, 64)), !dbg !1613
  call void @llvm.dbg.value(metadata ptr undef, metadata !1546, metadata !DIExpression()), !dbg !1613
  call void @llvm.dbg.value(metadata i1 false, metadata !1547, metadata !DIExpression(DW_OP_LLVM_convert, 1, DW_ATE_unsigned, DW_OP_LLVM_convert, 8, DW_ATE_unsigned, DW_OP_stack_value)), !dbg !1613
  call void @llvm.dbg.value(metadata i64 168, metadata !1548, metadata !DIExpression()), !dbg !1615
  call void @llvm.dbg.value(metadata ptr @__rust_no_alloc_shim_is_unstable, metadata !1574, metadata !DIExpression()), !dbg !1616
  call void @llvm.dbg.value(metadata i64 8, metadata !1586, metadata !DIExpression(DW_OP_LLVM_fragment, 0, 64)), !dbg !1619
  call void @llvm.dbg.value(metadata i64 168, metadata !1586, metadata !DIExpression(DW_OP_LLVM_fragment, 64, 64)), !dbg !1619
  %20 = load volatile i8, ptr @__rust_no_alloc_shim_is_unstable, align 1, !dbg !1620, !noalias !1621
  %_0.i.i.i.i4.i.i = tail call noalias noundef align 8 dereferenceable_or_null(168) ptr @__rust_alloc(i64 noundef 168, i64 noundef 8) #16, !dbg !1627, !noalias !1621
  %21 = icmp eq ptr %_0.i.i.i.i4.i.i, null, !dbg !1628
  br i1 %21, label %bb2.i.i5.i.i, label %bb2.i.i, !dbg !1629

bb2.i.i5.i.i:                                     ; preds = %"_ZN20signal_hook_registry9half_lock17HalfLock$LT$T$GT$3new17h35e79d6bf54515b0E.exit.i.i"
; invoke alloc::alloc::handle_alloc_error
  invoke void @_ZN5alloc5alloc18handle_alloc_error17h668ad8a7a2fd77cbE(i64 noundef 8, i64 noundef 168) #21
          to label %.noexc.i.i unwind label %cleanup.i.i, !dbg !1630

.noexc.i.i:                                       ; preds = %bb2.i.i5.i.i
  unreachable, !dbg !1630

cleanup.i.i:                                      ; preds = %bb2.i.i5.i.i
  %22 = landingpad { ptr, i32 }
          cleanup
  call void @llvm.dbg.value(metadata ptr undef, metadata !1631, metadata !DIExpression()), !dbg !1639
  call void @llvm.dbg.value(metadata i8 4, metadata !1641, metadata !DIExpression()), !dbg !1650
  call void @llvm.dbg.value(metadata ptr undef, metadata !1658, metadata !DIExpression()), !dbg !1662
  call void @llvm.dbg.value(metadata ptr undef, metadata !1649, metadata !DIExpression(DW_OP_plus_uconst, 16, DW_OP_stack_value)), !dbg !1650
  call void @llvm.dbg.value(metadata i8 4, metadata !1663, metadata !DIExpression()), !dbg !1670
  call void @llvm.dbg.value(metadata ptr undef, metadata !1669, metadata !DIExpression()), !dbg !1670
  call void @llvm.dbg.value(metadata ptr %_0.i.i.i.i.i.i, metadata !1659, metadata !DIExpression()), !dbg !1672
  call void @llvm.dbg.value(metadata ptr %_0.i.i.i.i.i.i, metadata !1673, metadata !DIExpression()), !dbg !1681
; invoke core::ptr::drop_in_place<alloc::boxed::Box<signal_hook_registry::SignalData>>
  invoke fastcc void @"_ZN4core3ptr78drop_in_place$LT$alloc..boxed..Box$LT$signal_hook_registry..SignalData$GT$$GT$17hc20ef9b64400f589E"(ptr nonnull %_0.i.i.i.i.i.i)
          to label %cleanup.body unwind label %terminate.i.i, !dbg !1683

bb2.i.i:                                          ; preds = %"_ZN20signal_hook_registry9half_lock17HalfLock$LT$T$GT$3new17h35e79d6bf54515b0E.exit.i.i"
  store i64 0, ptr %_0.i.i.i.i4.i.i, align 8, !dbg !1684, !noalias !1685
  call void @llvm.dbg.value(metadata ptr %_0.i.i.i.i4.i.i, metadata !1035, metadata !DIExpression()), !dbg !1686
  call void @llvm.memset.p0.i64(ptr noundef nonnull align 8 dereferenceable(16) %_2.sroa.5.sroa.7.sroa.0.i.i, i8 0, i64 16, i1 false), !dbg !1687
  call void @llvm.memset.p0.i64(ptr noundef nonnull align 8 dereferenceable(16) %_2.sroa.5.sroa.7.sroa.6.i.i, i8 0, i64 16, i1 false), !dbg !1687
  call void @llvm.memset.p0.i64(ptr noundef nonnull align 8 dereferenceable(16) %_2.sroa.5.sroa.0.i.i, i8 0, i64 16, i1 false), !dbg !1688
  call void @llvm.memset.p0.i64(ptr noundef nonnull align 8 dereferenceable(16) %_2.sroa.5.sroa.6.i.i, i8 0, i64 16, i1 false), !dbg !1688
  call void @llvm.dbg.value(metadata ptr @_ZN20signal_hook_registry11GLOBAL_DATA17h75b5ce311239b443E, metadata !1689, metadata !DIExpression()), !dbg !1697
  %_2.i.i.i = load i64, ptr @_ZN20signal_hook_registry11GLOBAL_DATA17h75b5ce311239b443E, align 8, !dbg !1699, !range !1274, !noundef !13
  %23 = icmp eq i64 %_2.i.i.i, 0, !dbg !1699
  br i1 %23, label %bb8, label %bb2.i7.i.i, !dbg !1699

bb2.i7.i.i:                                       ; preds = %bb2.i.i
  call void @llvm.dbg.value(metadata ptr getelementptr inbounds (<{ [8 x i8], [80 x i8] }>, ptr @_ZN20signal_hook_registry11GLOBAL_DATA17h75b5ce311239b443E, i64 0, i32 1, i64 0), metadata !1700, metadata !DIExpression()), !dbg !1706
  call void @llvm.dbg.value(metadata ptr getelementptr inbounds (<{ [8 x i8], [80 x i8] }>, ptr @_ZN20signal_hook_registry11GLOBAL_DATA17h75b5ce311239b443E, i64 0, i32 1, i64 0), metadata !1631, metadata !DIExpression()), !dbg !1708
  call void @llvm.dbg.value(metadata i8 4, metadata !1641, metadata !DIExpression()), !dbg !1710
  call void @llvm.dbg.value(metadata ptr getelementptr inbounds (<{ [8 x i8], [80 x i8] }>, ptr @_ZN20signal_hook_registry11GLOBAL_DATA17h75b5ce311239b443E, i64 0, i32 1, i64 0), metadata !1658, metadata !DIExpression()), !dbg !1713
  call void @llvm.dbg.value(metadata ptr getelementptr inbounds (<{ [8 x i8], [80 x i8] }>, ptr @_ZN20signal_hook_registry11GLOBAL_DATA17h75b5ce311239b443E, i64 0, i32 1, i64 0), metadata !1649, metadata !DIExpression(DW_OP_plus_uconst, 16, DW_OP_stack_value)), !dbg !1710
  call void @llvm.dbg.value(metadata i8 4, metadata !1663, metadata !DIExpression()), !dbg !1714
  call void @llvm.dbg.value(metadata ptr getelementptr inbounds (<{ [8 x i8], [80 x i8] }>, ptr @_ZN20signal_hook_registry11GLOBAL_DATA17h75b5ce311239b443E, i64 0, i32 1, i64 16), metadata !1669, metadata !DIExpression()), !dbg !1714
  %24 = load atomic ptr, ptr getelementptr inbounds (<{ [8 x i8], [80 x i8] }>, ptr @_ZN20signal_hook_registry11GLOBAL_DATA17h75b5ce311239b443E, i64 0, i32 1, i64 16) seq_cst, align 8, !dbg !1716, !alias.scope !1717
  call void @llvm.dbg.value(metadata ptr %24, metadata !1659, metadata !DIExpression()), !dbg !1722
  call void @llvm.dbg.value(metadata ptr %24, metadata !1673, metadata !DIExpression()), !dbg !1723
; invoke core::ptr::drop_in_place<alloc::boxed::Box<signal_hook_registry::SignalData>>
  invoke fastcc void @"_ZN4core3ptr78drop_in_place$LT$alloc..boxed..Box$LT$signal_hook_registry..SignalData$GT$$GT$17hc20ef9b64400f589E"(ptr %24)
          to label %"_ZN4core3ptr53drop_in_place$LT$signal_hook_registry..GlobalData$GT$17h41502b9c89893daaE.exit.i.i.i" unwind label %bb1.i.i.i.i, !dbg !1725

bb1.i.i.i.i:                                      ; preds = %bb2.i7.i.i
  %25 = landingpad { ptr, i32 }
          cleanup
  call void @llvm.dbg.value(metadata ptr getelementptr inbounds (<{ [8 x i8], [80 x i8] }>, ptr @_ZN20signal_hook_registry11GLOBAL_DATA17h75b5ce311239b443E, i64 0, i32 1, i64 40), metadata !1726, metadata !DIExpression()), !dbg !1734
  call void @llvm.dbg.value(metadata i8 4, metadata !1736, metadata !DIExpression()), !dbg !1745
  call void @llvm.dbg.value(metadata ptr getelementptr inbounds (<{ [8 x i8], [80 x i8] }>, ptr @_ZN20signal_hook_registry11GLOBAL_DATA17h75b5ce311239b443E, i64 0, i32 1, i64 40), metadata !1752, metadata !DIExpression()), !dbg !1756
  call void @llvm.dbg.value(metadata ptr getelementptr inbounds (<{ [8 x i8], [80 x i8] }>, ptr @_ZN20signal_hook_registry11GLOBAL_DATA17h75b5ce311239b443E, i64 0, i32 1, i64 40), metadata !1744, metadata !DIExpression(DW_OP_plus_uconst, 16, DW_OP_stack_value)), !dbg !1745
  call void @llvm.dbg.value(metadata i8 4, metadata !1757, metadata !DIExpression()), !dbg !1764
  call void @llvm.dbg.value(metadata ptr getelementptr inbounds (<{ [8 x i8], [80 x i8] }>, ptr @_ZN20signal_hook_registry11GLOBAL_DATA17h75b5ce311239b443E, i64 0, i32 1, i64 56), metadata !1763, metadata !DIExpression()), !dbg !1764
  %26 = load atomic ptr, ptr getelementptr inbounds (<{ [8 x i8], [80 x i8] }>, ptr @_ZN20signal_hook_registry11GLOBAL_DATA17h75b5ce311239b443E, i64 0, i32 1, i64 56) seq_cst, align 8, !dbg !1766, !nonnull !13, !noundef !13
  call void @llvm.dbg.value(metadata ptr %26, metadata !1753, metadata !DIExpression()), !dbg !1767
  call void @llvm.dbg.value(metadata ptr %26, metadata !1768, metadata !DIExpression()), !dbg !1776
  call void @llvm.dbg.value(metadata ptr undef, metadata !1778, metadata !DIExpression()), !dbg !1784
  call void @llvm.dbg.value(metadata ptr undef, metadata !1786, metadata !DIExpression()), !dbg !1807
  call void @llvm.dbg.value(metadata i64 168, metadata !1804, metadata !DIExpression(DW_OP_LLVM_fragment, 64, 64)), !dbg !1809
  call void @llvm.dbg.value(metadata i64 8, metadata !1804, metadata !DIExpression(DW_OP_LLVM_fragment, 0, 64)), !dbg !1809
  call void @llvm.dbg.value(metadata ptr %26, metadata !1793, metadata !DIExpression()), !dbg !1810
  call void @llvm.dbg.value(metadata i64 8, metadata !1811, metadata !DIExpression(DW_OP_LLVM_fragment, 0, 64)), !dbg !1818
  call void @llvm.dbg.value(metadata i64 168, metadata !1811, metadata !DIExpression(DW_OP_LLVM_fragment, 64, 64)), !dbg !1818
  call void @llvm.dbg.value(metadata ptr undef, metadata !1816, metadata !DIExpression()), !dbg !1818
  call void @llvm.dbg.value(metadata ptr %26, metadata !1817, metadata !DIExpression()), !dbg !1818
  call void @llvm.dbg.value(metadata ptr %26, metadata !1820, metadata !DIExpression()), !dbg !1827
  call void @llvm.dbg.value(metadata i64 8, metadata !1826, metadata !DIExpression(DW_OP_LLVM_fragment, 0, 64)), !dbg !1827
  call void @llvm.dbg.value(metadata i64 168, metadata !1826, metadata !DIExpression(DW_OP_LLVM_fragment, 64, 64)), !dbg !1827
  tail call void @__rust_dealloc(ptr noundef nonnull %26, i64 noundef 168, i64 noundef 8) #16, !dbg !1829
  store i64 1, ptr @_ZN20signal_hook_registry11GLOBAL_DATA17h75b5ce311239b443E, align 8, !dbg !1830
  call void @llvm.memcpy.p0.p0.i64(ptr noundef nonnull align 8 dereferenceable(16) getelementptr inbounds (<{ [8 x i8], [80 x i8] }>, ptr @_ZN20signal_hook_registry11GLOBAL_DATA17h75b5ce311239b443E, i64 0, i32 1, i64 0), ptr noundef nonnull align 8 dereferenceable(16) %_2.sroa.5.sroa.0.i.i, i64 16, i1 false), !dbg !1830
  store ptr %_0.i.i.i.i.i.i, ptr getelementptr inbounds (<{ [8 x i8], [80 x i8] }>, ptr @_ZN20signal_hook_registry11GLOBAL_DATA17h75b5ce311239b443E, i64 0, i32 1, i64 16), align 8, !dbg !1830
  call void @llvm.memcpy.p0.p0.i64(ptr noundef nonnull align 8 dereferenceable(16) getelementptr inbounds (<{ [8 x i8], [80 x i8] }>, ptr @_ZN20signal_hook_registry11GLOBAL_DATA17h75b5ce311239b443E, i64 0, i32 1, i64 24), ptr noundef nonnull align 8 dereferenceable(16) %_2.sroa.5.sroa.6.i.i, i64 16, i1 false), !dbg !1830
  call void @llvm.memcpy.p0.p0.i64(ptr noundef nonnull align 8 dereferenceable(16) getelementptr inbounds (<{ [8 x i8], [80 x i8] }>, ptr @_ZN20signal_hook_registry11GLOBAL_DATA17h75b5ce311239b443E, i64 0, i32 1, i64 40), ptr noundef nonnull align 8 dereferenceable(16) %_2.sroa.5.sroa.7.sroa.0.i.i, i64 16, i1 false), !dbg !1830
  store ptr %_0.i.i.i.i4.i.i, ptr getelementptr inbounds (<{ [8 x i8], [80 x i8] }>, ptr @_ZN20signal_hook_registry11GLOBAL_DATA17h75b5ce311239b443E, i64 0, i32 1, i64 56), align 8, !dbg !1830
  call void @llvm.memcpy.p0.p0.i64(ptr noundef nonnull align 8 dereferenceable(16) getelementptr inbounds (<{ [8 x i8], [80 x i8] }>, ptr @_ZN20signal_hook_registry11GLOBAL_DATA17h75b5ce311239b443E, i64 0, i32 1, i64 64), ptr noundef nonnull align 8 dereferenceable(16) %_2.sroa.5.sroa.7.sroa.6.i.i, i64 16, i1 false), !dbg !1830
  br label %cleanup.body, !dbg !1830, !unsafe_inst !1136

"_ZN4core3ptr53drop_in_place$LT$signal_hook_registry..GlobalData$GT$17h41502b9c89893daaE.exit.i.i.i": ; preds = %bb2.i7.i.i
  call void @llvm.dbg.value(metadata ptr getelementptr inbounds (<{ [8 x i8], [80 x i8] }>, ptr @_ZN20signal_hook_registry11GLOBAL_DATA17h75b5ce311239b443E, i64 0, i32 1, i64 40), metadata !1726, metadata !DIExpression()), !dbg !1831
  call void @llvm.dbg.value(metadata i8 4, metadata !1736, metadata !DIExpression()), !dbg !1833
  call void @llvm.dbg.value(metadata ptr getelementptr inbounds (<{ [8 x i8], [80 x i8] }>, ptr @_ZN20signal_hook_registry11GLOBAL_DATA17h75b5ce311239b443E, i64 0, i32 1, i64 40), metadata !1752, metadata !DIExpression()), !dbg !1836
  call void @llvm.dbg.value(metadata ptr getelementptr inbounds (<{ [8 x i8], [80 x i8] }>, ptr @_ZN20signal_hook_registry11GLOBAL_DATA17h75b5ce311239b443E, i64 0, i32 1, i64 40), metadata !1744, metadata !DIExpression(DW_OP_plus_uconst, 16, DW_OP_stack_value)), !dbg !1833
  call void @llvm.dbg.value(metadata i8 4, metadata !1757, metadata !DIExpression()), !dbg !1837
  call void @llvm.dbg.value(metadata ptr getelementptr inbounds (<{ [8 x i8], [80 x i8] }>, ptr @_ZN20signal_hook_registry11GLOBAL_DATA17h75b5ce311239b443E, i64 0, i32 1, i64 56), metadata !1763, metadata !DIExpression()), !dbg !1837
  %27 = load atomic ptr, ptr getelementptr inbounds (<{ [8 x i8], [80 x i8] }>, ptr @_ZN20signal_hook_registry11GLOBAL_DATA17h75b5ce311239b443E, i64 0, i32 1, i64 56) seq_cst, align 8, !dbg !1839, !nonnull !13, !noundef !13
  call void @llvm.dbg.value(metadata ptr %27, metadata !1753, metadata !DIExpression()), !dbg !1840
  call void @llvm.dbg.value(metadata ptr %27, metadata !1768, metadata !DIExpression()), !dbg !1841
  call void @llvm.dbg.value(metadata ptr undef, metadata !1778, metadata !DIExpression()), !dbg !1843
  call void @llvm.dbg.value(metadata ptr undef, metadata !1786, metadata !DIExpression()), !dbg !1845
  call void @llvm.dbg.value(metadata i64 168, metadata !1804, metadata !DIExpression(DW_OP_LLVM_fragment, 64, 64)), !dbg !1847
  call void @llvm.dbg.value(metadata i64 8, metadata !1804, metadata !DIExpression(DW_OP_LLVM_fragment, 0, 64)), !dbg !1847
  call void @llvm.dbg.value(metadata ptr %27, metadata !1793, metadata !DIExpression()), !dbg !1848
  call void @llvm.dbg.value(metadata i64 8, metadata !1811, metadata !DIExpression(DW_OP_LLVM_fragment, 0, 64)), !dbg !1849
  call void @llvm.dbg.value(metadata i64 168, metadata !1811, metadata !DIExpression(DW_OP_LLVM_fragment, 64, 64)), !dbg !1849
  call void @llvm.dbg.value(metadata ptr undef, metadata !1816, metadata !DIExpression()), !dbg !1849
  call void @llvm.dbg.value(metadata ptr %27, metadata !1817, metadata !DIExpression()), !dbg !1849
  call void @llvm.dbg.value(metadata ptr %27, metadata !1820, metadata !DIExpression()), !dbg !1851
  call void @llvm.dbg.value(metadata i64 8, metadata !1826, metadata !DIExpression(DW_OP_LLVM_fragment, 0, 64)), !dbg !1851
  call void @llvm.dbg.value(metadata i64 168, metadata !1826, metadata !DIExpression(DW_OP_LLVM_fragment, 64, 64)), !dbg !1851
  tail call void @__rust_dealloc(ptr noundef nonnull %27, i64 noundef 168, i64 noundef 8) #16, !dbg !1853
  br label %bb8, !dbg !1699

terminate.i.i:                                    ; preds = %cleanup.i.i
  %28 = landingpad { ptr, i32 }
          filter [0 x ptr] zeroinitializer
; call core::panicking::panic_in_cleanup
  tail call void @_ZN4core9panicking16panic_in_cleanup17h43442956f23e9cbeE() #23, !dbg !1133
  unreachable, !dbg !1133

cleanup:                                          ; preds = %bb2.i.i.i.i.i.i, %bb3.i
  %29 = landingpad { ptr, i32 }
          cleanup
  br label %cleanup.body, !dbg !1854

cleanup.body:                                     ; preds = %cleanup.i.i.i.i, %cleanup.i.i, %bb1.i.i.i.i, %cleanup
  %eh.lpad-body = phi { ptr, i32 } [ %29, %cleanup ], [ %18, %cleanup.i.i.i.i ], [ %25, %bb1.i.i.i.i ], [ %22, %cleanup.i.i ]
  call void @llvm.dbg.value(metadata ptr %waiter_queue, metadata !1855, metadata !DIExpression()), !dbg !1863
; invoke <std::sys::sync::once::futex::CompletionGuard as core::ops::drop::Drop>::drop
  invoke void @"_ZN86_$LT$std..sys..sync..once..futex..CompletionGuard$u20$as$u20$core..ops..drop..Drop$GT$4drop17ha1506ce481ce549eE"(ptr noalias noundef nonnull align 8 dereferenceable(16) %waiter_queue)
          to label %bb18 unwind label %terminate, !dbg !1865

bb8:                                              ; preds = %"_ZN4core3ptr53drop_in_place$LT$signal_hook_registry..GlobalData$GT$17h41502b9c89893daaE.exit.i.i.i", %bb2.i.i
  store i64 1, ptr @_ZN20signal_hook_registry11GLOBAL_DATA17h75b5ce311239b443E, align 8, !dbg !1830
  call void @llvm.memcpy.p0.p0.i64(ptr noundef nonnull align 8 dereferenceable(16) getelementptr inbounds (<{ [8 x i8], [80 x i8] }>, ptr @_ZN20signal_hook_registry11GLOBAL_DATA17h75b5ce311239b443E, i64 0, i32 1, i64 0), ptr noundef nonnull align 8 dereferenceable(16) %_2.sroa.5.sroa.0.i.i, i64 16, i1 false), !dbg !1830
  store ptr %_0.i.i.i.i.i.i, ptr getelementptr inbounds (<{ [8 x i8], [80 x i8] }>, ptr @_ZN20signal_hook_registry11GLOBAL_DATA17h75b5ce311239b443E, i64 0, i32 1, i64 16), align 8, !dbg !1830
  call void @llvm.memcpy.p0.p0.i64(ptr noundef nonnull align 8 dereferenceable(16) getelementptr inbounds (<{ [8 x i8], [80 x i8] }>, ptr @_ZN20signal_hook_registry11GLOBAL_DATA17h75b5ce311239b443E, i64 0, i32 1, i64 24), ptr noundef nonnull align 8 dereferenceable(16) %_2.sroa.5.sroa.6.i.i, i64 16, i1 false), !dbg !1830
  call void @llvm.memcpy.p0.p0.i64(ptr noundef nonnull align 8 dereferenceable(16) getelementptr inbounds (<{ [8 x i8], [80 x i8] }>, ptr @_ZN20signal_hook_registry11GLOBAL_DATA17h75b5ce311239b443E, i64 0, i32 1, i64 40), ptr noundef nonnull align 8 dereferenceable(16) %_2.sroa.5.sroa.7.sroa.0.i.i, i64 16, i1 false), !dbg !1830
  store ptr %_0.i.i.i.i4.i.i, ptr getelementptr inbounds (<{ [8 x i8], [80 x i8] }>, ptr @_ZN20signal_hook_registry11GLOBAL_DATA17h75b5ce311239b443E, i64 0, i32 1, i64 56), align 8, !dbg !1830
  call void @llvm.memcpy.p0.p0.i64(ptr noundef nonnull align 8 dereferenceable(16) getelementptr inbounds (<{ [8 x i8], [80 x i8] }>, ptr @_ZN20signal_hook_registry11GLOBAL_DATA17h75b5ce311239b443E, i64 0, i32 1, i64 64), ptr noundef nonnull align 8 dereferenceable(16) %_2.sroa.5.sroa.7.sroa.6.i.i, i64 16, i1 false), !dbg !1830
  call void @llvm.lifetime.end.p0(i64 16, ptr nonnull %_2.sroa.5.sroa.0.i.i), !dbg !1866
  call void @llvm.lifetime.end.p0(i64 16, ptr nonnull %_2.sroa.5.sroa.6.i.i), !dbg !1866
  call void @llvm.lifetime.end.p0(i64 16, ptr nonnull %_2.sroa.5.sroa.7.sroa.0.i.i), !dbg !1866
  call void @llvm.lifetime.end.p0(i64 16, ptr nonnull %_2.sroa.5.sroa.7.sroa.6.i.i), !dbg !1866
  store i32 4, ptr %10, align 8, !dbg !1867
  call void @llvm.dbg.value(metadata ptr %waiter_queue, metadata !1855, metadata !DIExpression()), !dbg !1868
; call <std::sys::sync::once::futex::CompletionGuard as core::ops::drop::Drop>::drop
  call void @"_ZN86_$LT$std..sys..sync..once..futex..CompletionGuard$u20$as$u20$core..ops..drop..Drop$GT$4drop17ha1506ce481ce549eE"(ptr noalias noundef nonnull align 8 dereferenceable(16) %waiter_queue), !dbg !1870
  call void @llvm.lifetime.end.p0(i64 16, ptr nonnull %waiter_queue), !dbg !1854
  br label %bb16, !dbg !1871

terminate:                                        ; preds = %cleanup.body
  %30 = landingpad { ptr, i32 }
          filter [0 x ptr] zeroinitializer
; call core::panicking::panic_in_cleanup
  call void @_ZN4core9panicking16panic_in_cleanup17h43442956f23e9cbeE() #23, !dbg !1873
  unreachable, !dbg !1873

bb18:                                             ; preds = %cleanup.body
  resume { ptr, i32 } %eh.lpad-body, !dbg !1873

bb10:                                             ; preds = %bb1
  tail call void @llvm.dbg.value(metadata ptr @_ZN20signal_hook_registry11GLOBAL_INIT17h8645eff341b36640E, metadata !874, metadata !DIExpression()), !dbg !882
  tail call void @llvm.dbg.value(metadata i8 0, metadata !917, metadata !DIExpression()), !dbg !1874
  tail call void @llvm.dbg.value(metadata i8 2, metadata !926, metadata !DIExpression()), !dbg !1874
  tail call void @llvm.dbg.value(metadata ptr @_ZN20signal_hook_registry11GLOBAL_INIT17h8645eff341b36640E, metadata !923, metadata !DIExpression()), !dbg !1874
  tail call void @llvm.dbg.value(metadata i32 2, metadata !924, metadata !DIExpression()), !dbg !1874
  tail call void @llvm.dbg.value(metadata i32 3, metadata !925, metadata !DIExpression()), !dbg !1874
  %31 = cmpxchg weak ptr @_ZN20signal_hook_registry11GLOBAL_INIT17h8645eff341b36640E, i32 2, i32 3 monotonic acquire, align 4, !dbg !1876
  %_8.sroa.18.0.in.i28 = extractvalue { i32, i1 } %31, 1, !dbg !1874
  br i1 %_8.sroa.18.0.in.i28, label %bb13, label %bb1.backedge, !dbg !1877

bb13:                                             ; preds = %bb10, %bb1
; call std::sys::pal::unix::futex::futex_wait
  %_30 = tail call noundef zeroext i1 @_ZN3std3sys3pal4unix5futex10futex_wait17h609d76562e6a86f1E(ptr noundef nonnull align 4 @_ZN20signal_hook_registry11GLOBAL_INIT17h8645eff341b36640E, i32 noundef 3, i64 undef, i32 noundef 1000000000), !dbg !1878
  tail call void @llvm.dbg.value(metadata ptr @_ZN20signal_hook_registry11GLOBAL_INIT17h8645eff341b36640E, metadata !704, metadata !DIExpression()), !dbg !884
  tail call void @llvm.dbg.value(metadata i8 2, metadata !901, metadata !DIExpression()), !dbg !1879
  tail call void @llvm.dbg.value(metadata ptr @_ZN20signal_hook_registry11GLOBAL_INIT17h8645eff341b36640E, metadata !907, metadata !DIExpression()), !dbg !1879
  tail call void @llvm.dbg.value(metadata i32 %0, metadata !670, metadata !DIExpression()), !dbg !910
  br label %bb1.sink.split, !dbg !1881
}

; core::ptr::drop_in_place<signal_hook_registry::half_lock::WriteGuard<signal_hook_registry::SignalData>>
; Function Attrs: nonlazybind uwtable
define internal fastcc void @"_ZN4core3ptr104drop_in_place$LT$signal_hook_registry..half_lock..WriteGuard$LT$signal_hook_registry..SignalData$GT$$GT$17hee26b846ae6a3bcaE"(ptr %_1.16.val, i8 %_1.24.val) unnamed_addr #1 !dbg !1882 {
start:
  tail call void @llvm.dbg.value(metadata ptr undef, metadata !1902, metadata !DIExpression()), !dbg !1905
  %0 = icmp ne ptr %_1.16.val, null
  tail call void @llvm.assume(i1 %0)
  call void @llvm.dbg.value(metadata ptr undef, metadata !1906, metadata !DIExpression()), !dbg !1914
  call void @llvm.dbg.value(metadata i32 0, metadata !1916, metadata !DIExpression()), !dbg !1925
  call void @llvm.dbg.value(metadata i8 1, metadata !1924, metadata !DIExpression()), !dbg !1925
  call void @llvm.dbg.value(metadata i32 0, metadata !1946, metadata !DIExpression()), !dbg !1954
  call void @llvm.dbg.value(metadata i8 1, metadata !1953, metadata !DIExpression()), !dbg !1954
  call void @llvm.dbg.value(metadata ptr undef, metadata !1944, metadata !DIExpression()), !dbg !1956
  %_3.i.i = getelementptr inbounds i8, ptr %_1.16.val, i64 4, !dbg !1957
  call void @llvm.dbg.value(metadata ptr @_ZN3std9panicking11panic_count18GLOBAL_PANIC_COUNT17h00e7dcd913cdfbe0E, metadata !1958, metadata !DIExpression()), !dbg !1967
  call void @llvm.dbg.value(metadata i8 0, metadata !1966, metadata !DIExpression()), !dbg !1967
  call void @llvm.dbg.value(metadata i8 1, metadata !1995, metadata !DIExpression()), !dbg !2005
  call void @llvm.dbg.value(metadata i8 0, metadata !2004, metadata !DIExpression()), !dbg !2005
  call void @llvm.dbg.value(metadata ptr %_3.i.i, metadata !1992, metadata !DIExpression()), !dbg !2007
  call void @llvm.dbg.value(metadata ptr undef, metadata !1993, metadata !DIExpression()), !dbg !2007
  %_3.not.i.i.i = icmp eq i8 %_1.24.val, 0, !dbg !2008
  br i1 %_3.not.i.i.i, label %bb1.i.i.i, label %_ZN3std4sync6poison4Flag4done17h6b62417d8d60c5ceE.exit.i.i, !dbg !2008

bb1.i.i.i:                                        ; preds = %start
  call void @llvm.dbg.value(metadata i8 0, metadata !2009, metadata !DIExpression()), !dbg !2016
  call void @llvm.dbg.value(metadata ptr @_ZN3std9panicking11panic_count18GLOBAL_PANIC_COUNT17h00e7dcd913cdfbe0E, metadata !2015, metadata !DIExpression()), !dbg !2016
  %1 = load atomic i64, ptr @_ZN3std9panicking11panic_count18GLOBAL_PANIC_COUNT17h00e7dcd913cdfbe0E monotonic, align 8, !dbg !2018, !noalias !2019
  %_7.i.i.i = and i64 %1, 9223372036854775807, !dbg !2022
  %2 = icmp eq i64 %_7.i.i.i, 0, !dbg !2022
  br i1 %2, label %_ZN3std4sync6poison4Flag4done17h6b62417d8d60c5ceE.exit.i.i, label %bb6.i.i.i, !dbg !2022

bb6.i.i.i:                                        ; preds = %bb1.i.i.i
; call std::panicking::panic_count::is_zero_slow_path
  %_6.i.i.i = tail call noundef zeroext i1 @_ZN3std9panicking11panic_count17is_zero_slow_path17h24de30857bbd803cE(), !dbg !2023, !noalias !2019
  br i1 %_6.i.i.i, label %_ZN3std4sync6poison4Flag4done17h6b62417d8d60c5ceE.exit.i.i, label %bb2.i.i.i, !dbg !2024

bb2.i.i.i:                                        ; preds = %bb6.i.i.i
  call void @llvm.dbg.value(metadata ptr %_3.i.i, metadata !2003, metadata !DIExpression()), !dbg !2005
  call void @llvm.dbg.value(metadata i8 0, metadata !2025, metadata !DIExpression()), !dbg !2032
  call void @llvm.dbg.value(metadata ptr %_3.i.i, metadata !2030, metadata !DIExpression()), !dbg !2032
  call void @llvm.dbg.value(metadata i8 1, metadata !2031, metadata !DIExpression()), !dbg !2032
  store atomic i8 1, ptr %_3.i.i monotonic, align 1, !dbg !2034, !noalias !2019
  br label %_ZN3std4sync6poison4Flag4done17h6b62417d8d60c5ceE.exit.i.i, !dbg !2035

_ZN3std4sync6poison4Flag4done17h6b62417d8d60c5ceE.exit.i.i: ; preds = %bb2.i.i.i, %bb6.i.i.i, %bb1.i.i.i, %start
  call void @llvm.dbg.value(metadata ptr %_1.16.val, metadata !1935, metadata !DIExpression()), !dbg !2036
  call void @llvm.dbg.value(metadata ptr %_1.16.val, metadata !1923, metadata !DIExpression()), !dbg !1925
  call void @llvm.dbg.value(metadata ptr %_1.16.val, metadata !1952, metadata !DIExpression()), !dbg !1954
  %3 = atomicrmw xchg ptr %_1.16.val, i32 0 release, align 4, !dbg !2037, !noalias !2019
  %_8.i.i = icmp eq i32 %3, 2, !dbg !2038
  br i1 %_8.i.i, label %bb2.i.i, label %"_ZN4core3ptr65drop_in_place$LT$std..sync..mutex..MutexGuard$LT$$LP$$RP$$GT$$GT$17h5a862b416f1198e0E.exit", !dbg !2038

bb2.i.i:                                          ; preds = %_ZN3std4sync6poison4Flag4done17h6b62417d8d60c5ceE.exit.i.i
; call std::sys::sync::mutex::futex::Mutex::wake
  tail call void @_ZN3std3sys4sync5mutex5futex5Mutex4wake17hc487312157454c34E(ptr noundef nonnull align 4 %_1.16.val), !dbg !2039, !noalias !2019
  br label %"_ZN4core3ptr65drop_in_place$LT$std..sync..mutex..MutexGuard$LT$$LP$$RP$$GT$$GT$17h5a862b416f1198e0E.exit", !dbg !2039

"_ZN4core3ptr65drop_in_place$LT$std..sync..mutex..MutexGuard$LT$$LP$$RP$$GT$$GT$17h5a862b416f1198e0E.exit": ; preds = %_ZN3std4sync6poison4Flag4done17h6b62417d8d60c5ceE.exit.i.i, %bb2.i.i
  ret void, !dbg !2040
}

; core::ptr::drop_in_place<hashbrown::scopeguard::ScopeGuard<(usize,&mut hashbrown::raw::RawTable<(i32,signal_hook_registry::Slot)>),hashbrown::raw::RawTable<(i32,signal_hook_registry::Slot)>::clone_from_impl::{{closure}}>>
; Function Attrs: nonlazybind uwtable
define internal fastcc void @"_ZN4core3ptr283drop_in_place$LT$hashbrown..scopeguard..ScopeGuard$LT$$LP$usize$C$$RF$mut$u20$hashbrown..raw..RawTable$LT$$LP$i32$C$signal_hook_registry..Slot$RP$$GT$$RP$$C$hashbrown..raw..RawTable$LT$$LP$i32$C$signal_hook_registry..Slot$RP$$GT$..clone_from_impl..$u7b$$u7b$closure$u7d$$u7d$$GT$$GT$17h75ed6d9e1a955b2bE"(i64 %_1.0.val, ptr readonly %_1.8.val) unnamed_addr #1 !dbg !2041 {
start:
  tail call void @llvm.dbg.value(metadata ptr undef, metadata !2062, metadata !DIExpression()), !dbg !2065
  call void @llvm.dbg.value(metadata ptr undef, metadata !2066, metadata !DIExpression()), !dbg !2074
  call void @llvm.dbg.value(metadata ptr undef, metadata !2076, metadata !DIExpression()), !dbg !2101
  call void @llvm.dbg.value(metadata ptr undef, metadata !2100, metadata !DIExpression()), !dbg !2101
  call void @llvm.dbg.value(metadata ptr undef, metadata !2084, metadata !DIExpression()), !dbg !2103
  call void @llvm.dbg.value(metadata ptr undef, metadata !2087, metadata !DIExpression(DW_OP_plus_uconst, 8, DW_OP_stack_value)), !dbg !2103
  call void @llvm.dbg.value(metadata i64 0, metadata !2089, metadata !DIExpression(DW_OP_LLVM_fragment, 0, 64)), !dbg !2104
  call void @llvm.dbg.value(metadata i64 %_1.0.val, metadata !2089, metadata !DIExpression(DW_OP_LLVM_fragment, 64, 64)), !dbg !2104
  call void @llvm.dbg.value(metadata ptr undef, metadata !2105, metadata !DIExpression()), !dbg !2118
  call void @llvm.dbg.value(metadata ptr undef, metadata !2120, metadata !DIExpression()), !dbg !2127
  call void @llvm.dbg.value(metadata ptr undef, metadata !2129, metadata !DIExpression()), !dbg !2140
  call void @llvm.dbg.value(metadata ptr poison, metadata !2139, metadata !DIExpression()), !dbg !2140
  %_171.not.i.i = icmp eq i64 %_1.0.val, 0, !dbg !2142
  br i1 %_171.not.i.i, label %"_ZN88_$LT$hashbrown..scopeguard..ScopeGuard$LT$T$C$F$GT$$u20$as$u20$core..ops..drop..Drop$GT$4drop17hcbc2e57816588844E.exit", label %bb8.lr.ph.i.i, !dbg !2143

bb8.lr.ph.i.i:                                    ; preds = %start
  %0 = icmp ne ptr %_1.8.val, null
  tail call void @llvm.assume(i1 %0)
  br label %bb8.i.i, !dbg !2143

bb8.i.i:                                          ; preds = %bb6.i.i, %bb8.lr.ph.i.i
  %iter.sroa.0.02.i.i = phi i64 [ 0, %bb8.lr.ph.i.i ], [ %_0.i.i.i, %bb6.i.i ]
  call void @llvm.dbg.value(metadata i64 %iter.sroa.0.02.i.i, metadata !2089, metadata !DIExpression(DW_OP_LLVM_fragment, 0, 64)), !dbg !2104
  call void @llvm.dbg.value(metadata i64 %iter.sroa.0.02.i.i, metadata !2125, metadata !DIExpression()), !dbg !2144
  call void @llvm.dbg.value(metadata i64 %iter.sroa.0.02.i.i, metadata !2145, metadata !DIExpression()), !dbg !2152
  call void @llvm.dbg.value(metadata i64 %iter.sroa.0.02.i.i, metadata !2154, metadata !DIExpression()), !dbg !2160
  call void @llvm.dbg.value(metadata i64 1, metadata !2151, metadata !DIExpression()), !dbg !2152
  call void @llvm.dbg.value(metadata i64 1, metadata !2159, metadata !DIExpression()), !dbg !2160
  %_0.i.i.i = add nuw i64 %iter.sroa.0.02.i.i, 1, !dbg !2162
  call void @llvm.dbg.value(metadata i64 %_0.i.i.i, metadata !2089, metadata !DIExpression(DW_OP_LLVM_fragment, 0, 64)), !dbg !2104
  call void @llvm.dbg.value(metadata i64 %iter.sroa.0.02.i.i, metadata !2098, metadata !DIExpression()), !dbg !2163
  call void @llvm.dbg.value(metadata i64 %iter.sroa.0.02.i.i, metadata !2164, metadata !DIExpression()), !dbg !2172
  call void @llvm.dbg.value(metadata i64 %iter.sroa.0.02.i.i, metadata !2174, metadata !DIExpression()), !dbg !2183
  call void @llvm.dbg.value(metadata i64 %iter.sroa.0.02.i.i, metadata !2185, metadata !DIExpression()), !dbg !2193
  call void @llvm.dbg.value(metadata i64 %iter.sroa.0.02.i.i, metadata !2195, metadata !DIExpression()), !dbg !2202
  call void @llvm.dbg.value(metadata i64 %iter.sroa.0.02.i.i, metadata !2204, metadata !DIExpression()), !dbg !2227
  call void @llvm.dbg.value(metadata ptr %_1.8.val, metadata !2171, metadata !DIExpression()), !dbg !2172
  call void @llvm.dbg.value(metadata ptr %_1.8.val, metadata !2182, metadata !DIExpression()), !dbg !2183
  call void @llvm.dbg.value(metadata ptr %_1.8.val, metadata !2192, metadata !DIExpression()), !dbg !2193
  %self5.i.i = load ptr, ptr %_1.8.val, align 8, !dbg !2229, !nonnull !13, !noundef !13
  call void @llvm.dbg.value(metadata ptr %self5.i.i, metadata !2201, metadata !DIExpression()), !dbg !2202
  %_26.i.i = getelementptr inbounds i8, ptr %self5.i.i, i64 %iter.sroa.0.02.i.i, !dbg !2230
  %ctrl.i.i = load i8, ptr %_26.i.i, align 1, !dbg !2231, !noundef !13
  %1 = icmp sgt i8 %ctrl.i.i, -1, !dbg !2232
  br i1 %1, label %bb3.i.i, label %bb6.i.i, !dbg !2232

bb3.i.i:                                          ; preds = %bb8.i.i
  call void @llvm.dbg.value(metadata ptr %_1.8.val, metadata !2218, metadata !DIExpression()), !dbg !2227
  call void @llvm.dbg.value(metadata ptr %self5.i.i, metadata !2233, metadata !DIExpression()), !dbg !2243
  call void @llvm.dbg.value(metadata i64 %iter.sroa.0.02.i.i, metadata !2239, metadata !DIExpression()), !dbg !2243
  call void @llvm.dbg.value(metadata i64 %iter.sroa.0.02.i.i, metadata !2245, metadata !DIExpression()), !dbg !2252
  call void @llvm.dbg.value(metadata ptr %self5.i.i, metadata !2251, metadata !DIExpression()), !dbg !2252
  call void @llvm.dbg.value(metadata ptr %self5.i.i, metadata !2254, metadata !DIExpression()), !dbg !2262
  call void @llvm.dbg.value(metadata i64 %iter.sroa.0.02.i.i, metadata !2264, metadata !DIExpression()), !dbg !2272
  %count.i.i.i = sub nsw i64 0, %iter.sroa.0.02.i.i, !dbg !2274, !unsafe_inst !1136
  call void @llvm.dbg.value(metadata i64 %count.i.i.i, metadata !2261, metadata !DIExpression()), !dbg !2262
  %2 = getelementptr inbounds { i32, [1 x i32], %Slot }, ptr %self5.i.i, i64 %count.i.i.i, !dbg !2275, !unsafe_inst !1136
  call void @llvm.dbg.value(metadata ptr undef, metadata !2276, metadata !DIExpression()), !dbg !2283
  call void @llvm.dbg.value(metadata ptr %2, metadata !2285, metadata !DIExpression(DW_OP_constu, 192, DW_OP_minus, DW_OP_stack_value)), !dbg !2291
  call void @llvm.dbg.value(metadata ptr %2, metadata !2293, metadata !DIExpression(DW_OP_constu, 192, DW_OP_minus, DW_OP_stack_value)), !dbg !2296
  call void @llvm.dbg.value(metadata ptr %2, metadata !2298, metadata !DIExpression(DW_OP_constu, 192, DW_OP_minus, DW_OP_plus_uconst, 8, DW_OP_stack_value)), !dbg !2306
  %3 = getelementptr { i32, [1 x i32], %Slot }, ptr %2, i64 -1, i32 2, i32 1, !dbg !2308
; call core::ptr::drop_in_place<alloc::collections::btree::map::BTreeMap<signal_hook_registry::ActionId,alloc::sync::Arc<dyn core::ops::function::Fn<(&libc::unix::linux_like::linux::gnu::b64::x86_64::siginfo_t,)>+Output = ()+core::marker::Send+core::marker::Sync>>>
  tail call fastcc void @"_ZN4core3ptr318drop_in_place$LT$alloc..collections..btree..map..BTreeMap$LT$signal_hook_registry..ActionId$C$alloc..sync..Arc$LT$dyn$u20$core..ops..function..Fn$LT$$LP$$RF$libc..unix..linux_like..linux..gnu..b64..x86_64..siginfo_t$C$$RP$$GT$$u2b$Output$u20$$u3d$$u20$$LP$$RP$$u2b$core..marker..Send$u2b$core..marker..Sync$GT$$GT$$GT$17h97e919acb003ab65E"(ptr noalias noundef nonnull align 8 dereferenceable(24) %3), !dbg !2308
  br label %bb6.i.i, !dbg !2309

bb6.i.i:                                          ; preds = %bb3.i.i, %bb8.i.i
  call void @llvm.dbg.value(metadata i64 %_0.i.i.i, metadata !2089, metadata !DIExpression(DW_OP_LLVM_fragment, 0, 64)), !dbg !2104
  call void @llvm.dbg.value(metadata ptr undef, metadata !2105, metadata !DIExpression()), !dbg !2118
  call void @llvm.dbg.value(metadata ptr undef, metadata !2120, metadata !DIExpression()), !dbg !2127
  call void @llvm.dbg.value(metadata ptr undef, metadata !2129, metadata !DIExpression()), !dbg !2140
  call void @llvm.dbg.value(metadata ptr poison, metadata !2139, metadata !DIExpression()), !dbg !2140
  %exitcond.not.i.i = icmp eq i64 %_0.i.i.i, %_1.0.val, !dbg !2142
  br i1 %exitcond.not.i.i, label %"_ZN88_$LT$hashbrown..scopeguard..ScopeGuard$LT$T$C$F$GT$$u20$as$u20$core..ops..drop..Drop$GT$4drop17hcbc2e57816588844E.exit", label %bb8.i.i, !dbg !2143

"_ZN88_$LT$hashbrown..scopeguard..ScopeGuard$LT$T$C$F$GT$$u20$as$u20$core..ops..drop..Drop$GT$4drop17hcbc2e57816588844E.exit": ; preds = %bb6.i.i, %start
  ret void, !dbg !2310
}

; core::ptr::drop_in_place<alloc::collections::btree::map::BTreeMap<signal_hook_registry::ActionId,alloc::sync::Arc<dyn core::ops::function::Fn<(&libc::unix::linux_like::linux::gnu::b64::x86_64::siginfo_t,)>+Output = ()+core::marker::Send+core::marker::Sync>>>
; Function Attrs: nonlazybind uwtable
define internal fastcc void @"_ZN4core3ptr318drop_in_place$LT$alloc..collections..btree..map..BTreeMap$LT$signal_hook_registry..ActionId$C$alloc..sync..Arc$LT$dyn$u20$core..ops..function..Fn$LT$$LP$$RF$libc..unix..linux_like..linux..gnu..b64..x86_64..siginfo_t$C$$RP$$GT$$u2b$Output$u20$$u3d$$u20$$LP$$RP$$u2b$core..marker..Send$u2b$core..marker..Sync$GT$$GT$$GT$17h97e919acb003ab65E"(ptr noalias nocapture noundef readonly align 8 dereferenceable(24) %_1) unnamed_addr #1 personality ptr @rust_eh_personality !dbg !2311 {
start:
  %_2.i.i.i = alloca [24 x i8], align 8
  %_x.i = alloca [72 x i8], align 8
  tail call void @llvm.dbg.value(metadata ptr %_1, metadata !2316, metadata !DIExpression()), !dbg !2319
  tail call void @llvm.experimental.noalias.scope.decl(metadata !2320), !dbg !2323
  call void @llvm.dbg.value(metadata ptr %_1, metadata !2324, metadata !DIExpression()), !dbg !2332
  call void @llvm.dbg.value(metadata ptr %_1, metadata !2334, metadata !DIExpression()), !dbg !2341
  call void @llvm.dbg.declare(metadata ptr %_x.i, metadata !2343, metadata !DIExpression()), !dbg !2436
  call void @llvm.lifetime.start.p0(i64 72, ptr nonnull %_x.i), !dbg !2438, !noalias !2320
  %_3.sroa.0.0.copyload.i = load ptr, ptr %_1, align 8, !dbg !2439, !alias.scope !2320
  call void @llvm.dbg.value(metadata ptr %_3.sroa.0.0.copyload.i, metadata !2440, metadata !DIExpression(DW_OP_LLVM_fragment, 0, 64)), !dbg !2455
  call void @llvm.dbg.value(metadata i64 poison, metadata !2440, metadata !DIExpression(DW_OP_LLVM_fragment, 64, 64)), !dbg !2455
  call void @llvm.dbg.value(metadata i64 poison, metadata !2440, metadata !DIExpression(DW_OP_LLVM_fragment, 128, 64)), !dbg !2455
  call void @llvm.dbg.value(metadata ptr %_3.sroa.0.0.copyload.i, metadata !2446, metadata !DIExpression(DW_OP_LLVM_fragment, 0, 64)), !dbg !2457
  call void @llvm.dbg.value(metadata i64 poison, metadata !2446, metadata !DIExpression(DW_OP_LLVM_fragment, 64, 64)), !dbg !2457
  call void @llvm.dbg.value(metadata i64 poison, metadata !2446, metadata !DIExpression(DW_OP_LLVM_fragment, 128, 64)), !dbg !2457
  call void @llvm.dbg.value(metadata ptr poison, metadata !2446, metadata !DIExpression(DW_OP_LLVM_fragment, 0, 64)), !dbg !2457
  call void @llvm.dbg.value(metadata i64 poison, metadata !2446, metadata !DIExpression(DW_OP_LLVM_fragment, 64, 64)), !dbg !2457
  %0 = icmp eq ptr %_3.sroa.0.0.copyload.i, null, !dbg !2458
  br i1 %0, label %"_ZN119_$LT$alloc..collections..btree..map..BTreeMap$LT$K$C$V$C$A$GT$$u20$as$u20$core..iter..traits..collect..IntoIterator$GT$9into_iter17h9cff904d629289c3E.exit.i", label %bb1.i.i, !dbg !2458

bb1.i.i:                                          ; preds = %start
  %_3.sroa.5.0.self.sroa_idx.i = getelementptr inbounds i8, ptr %_1, i64 16, !dbg !2439
  %_3.sroa.5.0.copyload.i = load i64, ptr %_3.sroa.5.0.self.sroa_idx.i, align 8, !dbg !2439, !alias.scope !2320
  call void @llvm.dbg.value(metadata i64 %_3.sroa.5.0.copyload.i, metadata !2440, metadata !DIExpression(DW_OP_LLVM_fragment, 128, 64)), !dbg !2455
  %_3.sroa.4.0.self.sroa_idx.i = getelementptr inbounds i8, ptr %_1, i64 8, !dbg !2439
  %_3.sroa.4.0.copyload.i = load i64, ptr %_3.sroa.4.0.self.sroa_idx.i, align 8, !dbg !2439, !alias.scope !2320
  call void @llvm.dbg.value(metadata i64 %_3.sroa.4.0.copyload.i, metadata !2440, metadata !DIExpression(DW_OP_LLVM_fragment, 64, 64)), !dbg !2455
  %_14.sroa.4.0._0.sroa_idx.i.i = getelementptr inbounds i8, ptr %_x.i, i64 8, !dbg !2457
  call void @llvm.dbg.value(metadata i64 %_3.sroa.5.0.copyload.i, metadata !2446, metadata !DIExpression(DW_OP_LLVM_fragment, 128, 64)), !dbg !2457
  call void @llvm.dbg.value(metadata i64 %_3.sroa.4.0.copyload.i, metadata !2446, metadata !DIExpression(DW_OP_LLVM_fragment, 64, 64)), !dbg !2457
  call void @llvm.dbg.value(metadata i64 %_3.sroa.4.0.copyload.i, metadata !2451, metadata !DIExpression(DW_OP_LLVM_fragment, 64, 64)), !dbg !2459
  call void @llvm.dbg.value(metadata ptr %_3.sroa.0.0.copyload.i, metadata !2451, metadata !DIExpression(DW_OP_LLVM_fragment, 0, 64)), !dbg !2459
  call void @llvm.dbg.value(metadata i64 1, metadata !2453, metadata !DIExpression(DW_OP_LLVM_fragment, 0, 64)), !dbg !2460
  call void @llvm.dbg.value(metadata ptr null, metadata !2453, metadata !DIExpression(DW_OP_LLVM_fragment, 64, 64)), !dbg !2460
  call void @llvm.dbg.value(metadata ptr %_3.sroa.0.0.copyload.i, metadata !2453, metadata !DIExpression(DW_OP_LLVM_fragment, 128, 64)), !dbg !2460
  call void @llvm.dbg.value(metadata i64 %_3.sroa.4.0.copyload.i, metadata !2453, metadata !DIExpression(DW_OP_LLVM_fragment, 192, 64)), !dbg !2460
  call void @llvm.dbg.value(metadata i64 1, metadata !2453, metadata !DIExpression(DW_OP_LLVM_fragment, 256, 64)), !dbg !2460
  call void @llvm.dbg.value(metadata ptr null, metadata !2453, metadata !DIExpression(DW_OP_LLVM_fragment, 320, 64)), !dbg !2460
  call void @llvm.dbg.value(metadata ptr %_3.sroa.0.0.copyload.i, metadata !2453, metadata !DIExpression(DW_OP_LLVM_fragment, 384, 64)), !dbg !2460
  call void @llvm.dbg.value(metadata i64 %_3.sroa.4.0.copyload.i, metadata !2453, metadata !DIExpression(DW_OP_LLVM_fragment, 448, 64)), !dbg !2460
  store ptr null, ptr %_14.sroa.4.0._0.sroa_idx.i.i, align 8, !dbg !2461, !alias.scope !2462, !noalias !2465
  %full_range.sroa.2.sroa.2.0.full_range.sroa.2.0._0.sroa_idx.sroa_idx.i.i = getelementptr inbounds i8, ptr %_x.i, i64 16, !dbg !2461
  store ptr %_3.sroa.0.0.copyload.i, ptr %full_range.sroa.2.sroa.2.0.full_range.sroa.2.0._0.sroa_idx.sroa_idx.i.i, align 8, !dbg !2461, !alias.scope !2462, !noalias !2465
  %full_range.sroa.2.sroa.3.0.full_range.sroa.2.0._0.sroa_idx.sroa_idx.i.i = getelementptr inbounds i8, ptr %_x.i, i64 24, !dbg !2461
  store i64 %_3.sroa.4.0.copyload.i, ptr %full_range.sroa.2.sroa.3.0.full_range.sroa.2.0._0.sroa_idx.sroa_idx.i.i, align 8, !dbg !2461, !alias.scope !2462, !noalias !2465
  %full_range.sroa.3.sroa.2.0.full_range.sroa.3.0._0.sroa_idx.sroa_idx.i.i = getelementptr inbounds i8, ptr %_x.i, i64 40, !dbg !2461
  store ptr null, ptr %full_range.sroa.3.sroa.2.0.full_range.sroa.3.0._0.sroa_idx.sroa_idx.i.i, align 8, !dbg !2461, !alias.scope !2462, !noalias !2465
  %full_range.sroa.3.sroa.2.sroa.2.0.full_range.sroa.3.sroa.2.0.full_range.sroa.3.0._0.sroa_idx.sroa_idx.sroa_idx.i.i = getelementptr inbounds i8, ptr %_x.i, i64 48, !dbg !2461
  store ptr %_3.sroa.0.0.copyload.i, ptr %full_range.sroa.3.sroa.2.sroa.2.0.full_range.sroa.3.sroa.2.0.full_range.sroa.3.0._0.sroa_idx.sroa_idx.sroa_idx.i.i, align 8, !dbg !2461, !alias.scope !2462, !noalias !2465
  %full_range.sroa.3.sroa.2.sroa.3.0.full_range.sroa.3.sroa.2.0.full_range.sroa.3.0._0.sroa_idx.sroa_idx.sroa_idx.i.i = getelementptr inbounds i8, ptr %_x.i, i64 56, !dbg !2461
  store i64 %_3.sroa.4.0.copyload.i, ptr %full_range.sroa.3.sroa.2.sroa.3.0.full_range.sroa.3.sroa.2.0.full_range.sroa.3.0._0.sroa_idx.sroa_idx.sroa_idx.i.i, align 8, !dbg !2461, !alias.scope !2462, !noalias !2465
  br label %"_ZN119_$LT$alloc..collections..btree..map..BTreeMap$LT$K$C$V$C$A$GT$$u20$as$u20$core..iter..traits..collect..IntoIterator$GT$9into_iter17h9cff904d629289c3E.exit.i", !dbg !2467

"_ZN119_$LT$alloc..collections..btree..map..BTreeMap$LT$K$C$V$C$A$GT$$u20$as$u20$core..iter..traits..collect..IntoIterator$GT$9into_iter17h9cff904d629289c3E.exit.i": ; preds = %bb1.i.i, %start
  %.sink17.i.i = phi i64 [ 1, %bb1.i.i ], [ 0, %start ], !dbg !2457
  %me.sroa.7.0.copyload.sink.i.i = phi i64 [ %_3.sroa.5.0.copyload.i, %bb1.i.i ], [ 0, %start ], !dbg !2457
  store i64 %.sink17.i.i, ptr %_x.i, align 8, !dbg !2457, !alias.scope !2462, !noalias !2465
  %1 = getelementptr inbounds i8, ptr %_x.i, i64 32, !dbg !2457
  store i64 %.sink17.i.i, ptr %1, align 8, !dbg !2457, !alias.scope !2462, !noalias !2465
  %2 = getelementptr inbounds i8, ptr %_x.i, i64 64, !dbg !2457
  store i64 %me.sroa.7.0.copyload.sink.i.i, ptr %2, align 8, !dbg !2457, !alias.scope !2462, !noalias !2465
  call void @llvm.dbg.value(metadata ptr %_x.i, metadata !2468, metadata !DIExpression()), !dbg !2474
  call void @llvm.dbg.value(metadata ptr %_x.i, metadata !2476, metadata !DIExpression()), !dbg !2505
  call void @llvm.lifetime.start.p0(i64 24, ptr nonnull %_2.i.i.i), !dbg !2507, !noalias !2508
; call alloc::collections::btree::map::IntoIter<K,V,A>::dying_next
  call fastcc void @"_ZN5alloc11collections5btree3map25IntoIter$LT$K$C$V$C$A$GT$10dying_next17h947a61e7f605bc72E"(ptr noalias nocapture noundef nonnull align 8 dereferenceable(24) %_2.i.i.i, ptr noalias noundef nonnull align 8 dereferenceable(72) %_x.i), !dbg !2507, !noalias !2320
  %3 = load ptr, ptr %_2.i.i.i, align 8, !dbg !2513, !noalias !2508, !noundef !13
  %4 = icmp eq ptr %3, null, !dbg !2513
  br i1 %4, label %"_ZN99_$LT$alloc..collections..btree..map..BTreeMap$LT$K$C$V$C$A$GT$$u20$as$u20$core..ops..drop..Drop$GT$4drop17h44bc32c3dc3c337dE.exit", label %bb3.lr.ph.i.i.i, !dbg !2513

bb3.lr.ph.i.i.i:                                  ; preds = %"_ZN119_$LT$alloc..collections..btree..map..BTreeMap$LT$K$C$V$C$A$GT$$u20$as$u20$core..iter..traits..collect..IntoIterator$GT$9into_iter17h9cff904d629289c3E.exit.i"
  %kv.sroa.22.0._2.sroa_idx.i.i.i = getelementptr inbounds i8, ptr %_2.i.i.i, i64 16
  br label %bb3.i.i.i, !dbg !2513

bb3.i.i.i:                                        ; preds = %bb4.i.i.i, %bb3.lr.ph.i.i.i
  %5 = phi ptr [ %3, %bb3.lr.ph.i.i.i ], [ %10, %bb4.i.i.i ]
  call void @llvm.dbg.value(metadata ptr %5, metadata !2483, metadata !DIExpression(DW_OP_LLVM_fragment, 0, 64)), !dbg !2514
  call void @llvm.dbg.value(metadata i64 poison, metadata !2483, metadata !DIExpression(DW_OP_LLVM_fragment, 64, 64)), !dbg !2514
  %kv.sroa.22.0.copyload.i.i.i = load i64, ptr %kv.sroa.22.0._2.sroa_idx.i.i.i, align 8, !dbg !2515, !noalias !2508
  call void @llvm.dbg.value(metadata i64 %kv.sroa.22.0.copyload.i.i.i, metadata !2483, metadata !DIExpression(DW_OP_LLVM_fragment, 128, 64)), !dbg !2514
  call void @llvm.dbg.value(metadata ptr %_x.i, metadata !2499, metadata !DIExpression()), !dbg !2516
  call void @llvm.dbg.declare(metadata ptr undef, metadata !2517, metadata !DIExpression()), !dbg !2529
  call void @llvm.dbg.value(metadata ptr %5, metadata !2526, metadata !DIExpression()), !dbg !2531
  %6 = getelementptr inbounds i8, ptr %5, i64 176, !dbg !2532
  call void @llvm.dbg.value(metadata ptr %6, metadata !2533, metadata !DIExpression(DW_OP_LLVM_fragment, 0, 64)), !dbg !2552
  call void @llvm.dbg.value(metadata i64 11, metadata !2533, metadata !DIExpression(DW_OP_LLVM_fragment, 64, 64)), !dbg !2552
  call void @llvm.dbg.value(metadata i64 %kv.sroa.22.0.copyload.i.i.i, metadata !2548, metadata !DIExpression()), !dbg !2552
  call void @llvm.dbg.value(metadata i64 %kv.sroa.22.0.copyload.i.i.i, metadata !2554, metadata !DIExpression()), !dbg !2570
  call void @llvm.dbg.value(metadata i64 %kv.sroa.22.0.copyload.i.i.i, metadata !2572, metadata !DIExpression()), !dbg !2579
  call void @llvm.dbg.value(metadata ptr %6, metadata !2568, metadata !DIExpression(DW_OP_LLVM_fragment, 0, 64)), !dbg !2570
  call void @llvm.dbg.value(metadata i64 11, metadata !2568, metadata !DIExpression(DW_OP_LLVM_fragment, 64, 64)), !dbg !2570
  call void @llvm.dbg.value(metadata ptr %6, metadata !2578, metadata !DIExpression()), !dbg !2579
  %self10.i.i.i.i = getelementptr inbounds %"core::mem::maybe_uninit::MaybeUninit<alloc::sync::Arc<dyn for<'a> core::ops::function::Fn(&'a libc::unix::linux_like::linux::gnu::b64::x86_64::siginfo_t) + core::marker::Send + core::marker::Sync>>", ptr %6, i64 %kv.sroa.22.0.copyload.i.i.i, !dbg !2581
  call void @llvm.dbg.value(metadata ptr %self10.i.i.i.i, metadata !2582, metadata !DIExpression()), !dbg !2590
  tail call void @llvm.experimental.noalias.scope.decl(metadata !2592), !dbg !2595
  call void @llvm.dbg.value(metadata ptr %self10.i.i.i.i, metadata !2596, metadata !DIExpression()), !dbg !2602
  tail call void @llvm.experimental.noalias.scope.decl(metadata !2604), !dbg !2607
  call void @llvm.dbg.value(metadata i64 1, metadata !2608, metadata !DIExpression()), !dbg !2617
  call void @llvm.dbg.value(metadata i8 1, metadata !2616, metadata !DIExpression()), !dbg !2617
  call void @llvm.dbg.value(metadata i64 1, metadata !2628, metadata !DIExpression()), !dbg !2637
  call void @llvm.dbg.value(metadata i8 1, metadata !2636, metadata !DIExpression()), !dbg !2637
  call void @llvm.dbg.value(metadata i8 2, metadata !2639, metadata !DIExpression()), !dbg !2645
  call void @llvm.dbg.value(metadata ptr %self10.i.i.i.i, metadata !2626, metadata !DIExpression()), !dbg !2647
  call void @llvm.dbg.value(metadata ptr %self10.i.i.i.i, metadata !2648, metadata !DIExpression()), !dbg !2660
  call void @llvm.dbg.value(metadata ptr %self10.i.i.i.i, metadata !2662, metadata !DIExpression()), !dbg !2671
  %self.0.i.i.i.i.i.i = load ptr, ptr %self10.i.i.i.i, align 8, !dbg !2673, !alias.scope !2674, !noalias !2508, !nonnull !13, !noundef !13
  call void @llvm.dbg.value(metadata ptr %self.0.i.i.i.i.i.i, metadata !2615, metadata !DIExpression()), !dbg !2617
  call void @llvm.dbg.value(metadata ptr %self.0.i.i.i.i.i.i, metadata !2635, metadata !DIExpression()), !dbg !2637
  %7 = atomicrmw sub ptr %self.0.i.i.i.i.i.i, i64 1 release, align 8, !dbg !2675, !noalias !2676
  %8 = icmp eq i64 %7, 1, !dbg !2677
  br i1 %8, label %bb2.i.i.i.i.i.i, label %bb4.i.i.i, !dbg !2677

bb2.i.i.i.i.i.i:                                  ; preds = %bb3.i.i.i
  fence acquire, !dbg !2678
; invoke alloc::sync::Arc<T,A>::drop_slow
  invoke fastcc void @"_ZN5alloc4sync16Arc$LT$T$C$A$GT$9drop_slow17hdc392d5b52c2e0ddE"(ptr noalias noundef nonnull align 8 dereferenceable(16) %self10.i.i.i.i)
          to label %bb4.i.i.i unwind label %cleanup.i.i.i, !dbg !2679, !noalias !2508

cleanup.i.i.i:                                    ; preds = %bb2.i.i.i.i.i.i
  %9 = landingpad { ptr, i32 }
          cleanup
; invoke core::ptr::drop_in_place<<alloc::collections::btree::map::IntoIter<K,V,A> as core::ops::drop::Drop>::drop::DropGuard<signal_hook_registry::ActionId,alloc::sync::Arc<dyn core::ops::function::Fn<(&libc::unix::linux_like::linux::gnu::b64::x86_64::siginfo_t,)>+Output = ()+core::marker::Send+core::marker::Sync>,alloc::alloc::Global>>
  invoke fastcc void @"_ZN4core3ptr416drop_in_place$LT$$LT$alloc..collections..btree..map..IntoIter$LT$K$C$V$C$A$GT$$u20$as$u20$core..ops..drop..Drop$GT$..drop..DropGuard$LT$signal_hook_registry..ActionId$C$alloc..sync..Arc$LT$dyn$u20$core..ops..function..Fn$LT$$LP$$RF$libc..unix..linux_like..linux..gnu..b64..x86_64..siginfo_t$C$$RP$$GT$$u2b$Output$u20$$u3d$$u20$$LP$$RP$$u2b$core..marker..Send$u2b$core..marker..Sync$GT$$C$alloc..alloc..Global$GT$$GT$17he368455877075de1E"(ptr %_x.i) #22
          to label %bb6.i.i.i unwind label %terminate.i.i.i, !dbg !2680, !noalias !2320

bb4.i.i.i:                                        ; preds = %bb2.i.i.i.i.i.i, %bb3.i.i.i
  call void @llvm.lifetime.end.p0(i64 24, ptr nonnull %_2.i.i.i), !dbg !2681, !noalias !2508
  call void @llvm.lifetime.start.p0(i64 24, ptr nonnull %_2.i.i.i), !dbg !2507, !noalias !2508
; call alloc::collections::btree::map::IntoIter<K,V,A>::dying_next
  call fastcc void @"_ZN5alloc11collections5btree3map25IntoIter$LT$K$C$V$C$A$GT$10dying_next17h947a61e7f605bc72E"(ptr noalias nocapture noundef nonnull align 8 dereferenceable(24) %_2.i.i.i, ptr noalias noundef nonnull align 8 dereferenceable(72) %_x.i), !dbg !2507, !noalias !2320
  %10 = load ptr, ptr %_2.i.i.i, align 8, !dbg !2513, !noalias !2508, !noundef !13
  %11 = icmp eq ptr %10, null, !dbg !2513
  br i1 %11, label %"_ZN99_$LT$alloc..collections..btree..map..BTreeMap$LT$K$C$V$C$A$GT$$u20$as$u20$core..ops..drop..Drop$GT$4drop17h44bc32c3dc3c337dE.exit", label %bb3.i.i.i, !dbg !2513

terminate.i.i.i:                                  ; preds = %cleanup.i.i.i
  %12 = landingpad { ptr, i32 }
          filter [0 x ptr] zeroinitializer
; call core::panicking::panic_in_cleanup
  call void @_ZN4core9panicking16panic_in_cleanup17h43442956f23e9cbeE() #23, !dbg !2682, !noalias !2320
  unreachable, !dbg !2682

bb6.i.i.i:                                        ; preds = %cleanup.i.i.i
  resume { ptr, i32 } %9, !dbg !2682

"_ZN99_$LT$alloc..collections..btree..map..BTreeMap$LT$K$C$V$C$A$GT$$u20$as$u20$core..ops..drop..Drop$GT$4drop17h44bc32c3dc3c337dE.exit": ; preds = %bb4.i.i.i, %"_ZN119_$LT$alloc..collections..btree..map..BTreeMap$LT$K$C$V$C$A$GT$$u20$as$u20$core..iter..traits..collect..IntoIterator$GT$9into_iter17h9cff904d629289c3E.exit.i"
  call void @llvm.lifetime.end.p0(i64 24, ptr nonnull %_2.i.i.i), !dbg !2681, !noalias !2508
  call void @llvm.lifetime.end.p0(i64 72, ptr nonnull %_x.i), !dbg !2683, !noalias !2320
  ret void, !dbg !2323
}

; core::ptr::drop_in_place<<alloc::collections::btree::map::IntoIter<K,V,A> as core::ops::drop::Drop>::drop::DropGuard<signal_hook_registry::ActionId,alloc::sync::Arc<dyn core::ops::function::Fn<(&libc::unix::linux_like::linux::gnu::b64::x86_64::siginfo_t,)>+Output = ()+core::marker::Send+core::marker::Sync>,alloc::alloc::Global>>
; Function Attrs: nonlazybind uwtable
define internal fastcc void @"_ZN4core3ptr416drop_in_place$LT$$LT$alloc..collections..btree..map..IntoIter$LT$K$C$V$C$A$GT$$u20$as$u20$core..ops..drop..Drop$GT$..drop..DropGuard$LT$signal_hook_registry..ActionId$C$alloc..sync..Arc$LT$dyn$u20$core..ops..function..Fn$LT$$LP$$RF$libc..unix..linux_like..linux..gnu..b64..x86_64..siginfo_t$C$$RP$$GT$$u2b$Output$u20$$u3d$$u20$$LP$$RP$$u2b$core..marker..Send$u2b$core..marker..Sync$GT$$C$alloc..alloc..Global$GT$$GT$17he368455877075de1E"(ptr nonnull %_1.0.val) unnamed_addr #1 !dbg !2684 {
start:
  %_2.i = alloca [24 x i8], align 8
  tail call void @llvm.dbg.value(metadata ptr undef, metadata !2689, metadata !DIExpression()), !dbg !2692
  call void @llvm.dbg.value(metadata ptr undef, metadata !2693, metadata !DIExpression()), !dbg !2702
  call void @llvm.lifetime.start.p0(i64 24, ptr nonnull %_2.i), !dbg !2704, !noalias !2705
; call alloc::collections::btree::map::IntoIter<K,V,A>::dying_next
  call fastcc void @"_ZN5alloc11collections5btree3map25IntoIter$LT$K$C$V$C$A$GT$10dying_next17h947a61e7f605bc72E"(ptr noalias nocapture noundef nonnull align 8 dereferenceable(24) %_2.i, ptr noalias noundef nonnull align 8 dereferenceable(72) %_1.0.val), !dbg !2704, !noalias !2705
  %0 = load ptr, ptr %_2.i, align 8, !dbg !2708, !noalias !2705, !noundef !13
  %1 = icmp eq ptr %0, null, !dbg !2708
  br i1 %1, label %"_ZN174_$LT$$LT$alloc..collections..btree..map..IntoIter$LT$K$C$V$C$A$GT$$u20$as$u20$core..ops..drop..Drop$GT$..drop..DropGuard$LT$K$C$V$C$A$GT$$u20$as$u20$core..ops..drop..Drop$GT$4drop17h7026bfdc893d9b67E.exit", label %bb3.lr.ph.i, !dbg !2708

bb3.lr.ph.i:                                      ; preds = %start
  %kv.sroa.22.0._2.sroa_idx.i = getelementptr inbounds i8, ptr %_2.i, i64 16
  br label %bb3.i, !dbg !2708

bb3.i:                                            ; preds = %"_ZN5alloc11collections5btree4node173Handle$LT$alloc..collections..btree..node..NodeRef$LT$alloc..collections..btree..node..marker..Dying$C$K$C$V$C$NodeType$GT$$C$alloc..collections..btree..node..marker..KV$GT$12drop_key_val17h11bc09f2215d4d5eE.exit.i", %bb3.lr.ph.i
  %2 = phi ptr [ %0, %bb3.lr.ph.i ], [ %6, %"_ZN5alloc11collections5btree4node173Handle$LT$alloc..collections..btree..node..NodeRef$LT$alloc..collections..btree..node..marker..Dying$C$K$C$V$C$NodeType$GT$$C$alloc..collections..btree..node..marker..KV$GT$12drop_key_val17h11bc09f2215d4d5eE.exit.i" ]
  call void @llvm.dbg.value(metadata ptr %2, metadata !2700, metadata !DIExpression(DW_OP_LLVM_fragment, 0, 64)), !dbg !2709
  call void @llvm.dbg.value(metadata i64 poison, metadata !2700, metadata !DIExpression(DW_OP_LLVM_fragment, 64, 64)), !dbg !2709
  %kv.sroa.22.0.copyload.i = load i64, ptr %kv.sroa.22.0._2.sroa_idx.i, align 8, !dbg !2710, !noalias !2705
  call void @llvm.dbg.value(metadata i64 %kv.sroa.22.0.copyload.i, metadata !2700, metadata !DIExpression(DW_OP_LLVM_fragment, 128, 64)), !dbg !2709
  call void @llvm.dbg.declare(metadata ptr undef, metadata !2517, metadata !DIExpression()), !dbg !2711
  call void @llvm.dbg.value(metadata ptr %2, metadata !2526, metadata !DIExpression()), !dbg !2713
  %3 = getelementptr inbounds i8, ptr %2, i64 176, !dbg !2714
  call void @llvm.dbg.value(metadata ptr %3, metadata !2533, metadata !DIExpression(DW_OP_LLVM_fragment, 0, 64)), !dbg !2715
  call void @llvm.dbg.value(metadata i64 11, metadata !2533, metadata !DIExpression(DW_OP_LLVM_fragment, 64, 64)), !dbg !2715
  call void @llvm.dbg.value(metadata i64 %kv.sroa.22.0.copyload.i, metadata !2548, metadata !DIExpression()), !dbg !2715
  call void @llvm.dbg.value(metadata i64 %kv.sroa.22.0.copyload.i, metadata !2554, metadata !DIExpression()), !dbg !2717
  call void @llvm.dbg.value(metadata i64 %kv.sroa.22.0.copyload.i, metadata !2572, metadata !DIExpression()), !dbg !2719
  call void @llvm.dbg.value(metadata ptr %3, metadata !2568, metadata !DIExpression(DW_OP_LLVM_fragment, 0, 64)), !dbg !2717
  call void @llvm.dbg.value(metadata i64 11, metadata !2568, metadata !DIExpression(DW_OP_LLVM_fragment, 64, 64)), !dbg !2717
  call void @llvm.dbg.value(metadata ptr %3, metadata !2578, metadata !DIExpression()), !dbg !2719
  %self10.i.i = getelementptr inbounds %"core::mem::maybe_uninit::MaybeUninit<alloc::sync::Arc<dyn for<'a> core::ops::function::Fn(&'a libc::unix::linux_like::linux::gnu::b64::x86_64::siginfo_t) + core::marker::Send + core::marker::Sync>>", ptr %3, i64 %kv.sroa.22.0.copyload.i, !dbg !2721
  call void @llvm.dbg.value(metadata ptr %self10.i.i, metadata !2582, metadata !DIExpression()), !dbg !2722
  tail call void @llvm.experimental.noalias.scope.decl(metadata !2724), !dbg !2727
  call void @llvm.dbg.value(metadata ptr %self10.i.i, metadata !2596, metadata !DIExpression()), !dbg !2728
  tail call void @llvm.experimental.noalias.scope.decl(metadata !2730), !dbg !2733
  call void @llvm.dbg.value(metadata i64 1, metadata !2608, metadata !DIExpression()), !dbg !2734
  call void @llvm.dbg.value(metadata i8 1, metadata !2616, metadata !DIExpression()), !dbg !2734
  call void @llvm.dbg.value(metadata i64 1, metadata !2628, metadata !DIExpression()), !dbg !2737
  call void @llvm.dbg.value(metadata i8 1, metadata !2636, metadata !DIExpression()), !dbg !2737
  call void @llvm.dbg.value(metadata i8 2, metadata !2639, metadata !DIExpression()), !dbg !2739
  call void @llvm.dbg.value(metadata ptr %self10.i.i, metadata !2626, metadata !DIExpression()), !dbg !2741
  call void @llvm.dbg.value(metadata ptr %self10.i.i, metadata !2648, metadata !DIExpression()), !dbg !2742
  call void @llvm.dbg.value(metadata ptr %self10.i.i, metadata !2662, metadata !DIExpression()), !dbg !2744
  %self.0.i.i.i.i = load ptr, ptr %self10.i.i, align 8, !dbg !2746, !alias.scope !2747, !noalias !2705, !nonnull !13, !noundef !13
  call void @llvm.dbg.value(metadata ptr %self.0.i.i.i.i, metadata !2615, metadata !DIExpression()), !dbg !2734
  call void @llvm.dbg.value(metadata ptr %self.0.i.i.i.i, metadata !2635, metadata !DIExpression()), !dbg !2737
  %4 = atomicrmw sub ptr %self.0.i.i.i.i, i64 1 release, align 8, !dbg !2748, !noalias !2749
  %5 = icmp eq i64 %4, 1, !dbg !2750
  br i1 %5, label %bb2.i.i.i.i, label %"_ZN5alloc11collections5btree4node173Handle$LT$alloc..collections..btree..node..NodeRef$LT$alloc..collections..btree..node..marker..Dying$C$K$C$V$C$NodeType$GT$$C$alloc..collections..btree..node..marker..KV$GT$12drop_key_val17h11bc09f2215d4d5eE.exit.i", !dbg !2750

bb2.i.i.i.i:                                      ; preds = %bb3.i
  fence acquire, !dbg !2751
; call alloc::sync::Arc<T,A>::drop_slow
  tail call fastcc void @"_ZN5alloc4sync16Arc$LT$T$C$A$GT$9drop_slow17hdc392d5b52c2e0ddE"(ptr noalias noundef nonnull align 8 dereferenceable(16) %self10.i.i), !dbg !2752, !noalias !2705
  br label %"_ZN5alloc11collections5btree4node173Handle$LT$alloc..collections..btree..node..NodeRef$LT$alloc..collections..btree..node..marker..Dying$C$K$C$V$C$NodeType$GT$$C$alloc..collections..btree..node..marker..KV$GT$12drop_key_val17h11bc09f2215d4d5eE.exit.i", !dbg !2752

"_ZN5alloc11collections5btree4node173Handle$LT$alloc..collections..btree..node..NodeRef$LT$alloc..collections..btree..node..marker..Dying$C$K$C$V$C$NodeType$GT$$C$alloc..collections..btree..node..marker..KV$GT$12drop_key_val17h11bc09f2215d4d5eE.exit.i": ; preds = %bb2.i.i.i.i, %bb3.i
  call void @llvm.lifetime.end.p0(i64 24, ptr nonnull %_2.i), !dbg !2753, !noalias !2705
  call void @llvm.lifetime.start.p0(i64 24, ptr nonnull %_2.i), !dbg !2704, !noalias !2705
; call alloc::collections::btree::map::IntoIter<K,V,A>::dying_next
  call fastcc void @"_ZN5alloc11collections5btree3map25IntoIter$LT$K$C$V$C$A$GT$10dying_next17h947a61e7f605bc72E"(ptr noalias nocapture noundef nonnull align 8 dereferenceable(24) %_2.i, ptr noalias noundef nonnull align 8 dereferenceable(72) %_1.0.val), !dbg !2704, !noalias !2705
  %6 = load ptr, ptr %_2.i, align 8, !dbg !2708, !noalias !2705, !noundef !13
  %7 = icmp eq ptr %6, null, !dbg !2708
  br i1 %7, label %"_ZN174_$LT$$LT$alloc..collections..btree..map..IntoIter$LT$K$C$V$C$A$GT$$u20$as$u20$core..ops..drop..Drop$GT$..drop..DropGuard$LT$K$C$V$C$A$GT$$u20$as$u20$core..ops..drop..Drop$GT$4drop17h7026bfdc893d9b67E.exit", label %bb3.i, !dbg !2708

"_ZN174_$LT$$LT$alloc..collections..btree..map..IntoIter$LT$K$C$V$C$A$GT$$u20$as$u20$core..ops..drop..Drop$GT$..drop..DropGuard$LT$K$C$V$C$A$GT$$u20$as$u20$core..ops..drop..Drop$GT$4drop17h7026bfdc893d9b67E.exit": ; preds = %"_ZN5alloc11collections5btree4node173Handle$LT$alloc..collections..btree..node..NodeRef$LT$alloc..collections..btree..node..marker..Dying$C$K$C$V$C$NodeType$GT$$C$alloc..collections..btree..node..marker..KV$GT$12drop_key_val17h11bc09f2215d4d5eE.exit.i", %start
  call void @llvm.lifetime.end.p0(i64 24, ptr nonnull %_2.i), !dbg !2753, !noalias !2705
  ret void, !dbg !2754
}

; core::ptr::drop_in_place<signal_hook_registry::SignalData>
; Function Attrs: nonlazybind uwtable
define internal fastcc void @"_ZN4core3ptr53drop_in_place$LT$signal_hook_registry..SignalData$GT$17hdcaee5f580eec33fE"(ptr noalias nocapture noundef readonly align 16 dereferenceable(64) %_1) unnamed_addr #1 !dbg !2755 {
start:
  tail call void @llvm.dbg.value(metadata ptr %_1, metadata !2759, metadata !DIExpression()), !dbg !2760
  tail call void @llvm.experimental.noalias.scope.decl(metadata !2761), !dbg !2764
  call void @llvm.dbg.value(metadata ptr %_1, metadata !2765, metadata !DIExpression()), !dbg !2773
  tail call void @llvm.experimental.noalias.scope.decl(metadata !2775), !dbg !2778
  call void @llvm.dbg.value(metadata ptr %_1, metadata !2779, metadata !DIExpression()), !dbg !2787
  tail call void @llvm.experimental.noalias.scope.decl(metadata !2789), !dbg !2792
  call void @llvm.dbg.value(metadata ptr %_1, metadata !2793, metadata !DIExpression()), !dbg !2801
  tail call void @llvm.experimental.noalias.scope.decl(metadata !2803), !dbg !2806
  call void @llvm.dbg.value(metadata ptr %_1, metadata !2807, metadata !DIExpression()), !dbg !2813
  tail call void @llvm.experimental.noalias.scope.decl(metadata !2815), !dbg !2818
  call void @llvm.dbg.value(metadata ptr %_1, metadata !2819, metadata !DIExpression()), !dbg !2832
  call void @llvm.dbg.value(metadata ptr %_1, metadata !2834, metadata !DIExpression()), !dbg !2841
  call void @llvm.dbg.value(metadata ptr %_1, metadata !2843, metadata !DIExpression()), !dbg !2854
  call void @llvm.dbg.value(metadata ptr undef, metadata !2830, metadata !DIExpression()), !dbg !2832
  call void @llvm.dbg.value(metadata ptr undef, metadata !2849, metadata !DIExpression()), !dbg !2854
  call void @llvm.dbg.value(metadata i64 192, metadata !2831, metadata !DIExpression(DW_OP_LLVM_fragment, 0, 64)), !dbg !2832
  call void @llvm.dbg.value(metadata i64 192, metadata !2850, metadata !DIExpression(DW_OP_LLVM_fragment, 0, 64)), !dbg !2854
  call void @llvm.dbg.value(metadata i64 16, metadata !2831, metadata !DIExpression(DW_OP_LLVM_fragment, 64, 64)), !dbg !2832
  call void @llvm.dbg.value(metadata i64 16, metadata !2850, metadata !DIExpression(DW_OP_LLVM_fragment, 64, 64)), !dbg !2854
  %0 = getelementptr inbounds i8, ptr %_1, i64 8, !dbg !2856, !unsafe_inst !1136
  %_5.i.i.i.i.i = load i64, ptr %0, align 8, !dbg !2856, !alias.scope !2857, !noundef !13
  %1 = icmp eq i64 %_5.i.i.i.i.i, 0, !dbg !2858, !unsafe_inst !1136
  br i1 %1, label %"_ZN4core3ptr97drop_in_place$LT$std..collections..hash..map..HashMap$LT$i32$C$signal_hook_registry..Slot$GT$$GT$17h0d8748305424d511E.exit", label %bb2.i.i.i.i.i, !dbg !2858, !unsafe_inst !1136

bb2.i.i.i.i.i:                                    ; preds = %start
  tail call void @llvm.experimental.noalias.scope.decl(metadata !2859), !dbg !2862
  call void @llvm.dbg.value(metadata ptr %_1, metadata !2863, metadata !DIExpression()), !dbg !2890
  call void @llvm.dbg.value(metadata ptr %_1, metadata !2892, metadata !DIExpression()), !dbg !2901
  %2 = getelementptr inbounds i8, ptr %_1, i64 24, !dbg !2903, !unsafe_inst !1136
  %_3.i.i.i.i.i.i = load i64, ptr %2, align 8, !dbg !2903, !alias.scope !2904, !noundef !13
  %3 = icmp eq i64 %_3.i.i.i.i.i.i, 0, !dbg !2903, !unsafe_inst !1136
  %self.val.pre.i.i.i.i.i = load ptr, ptr %_1, align 16, !dbg !2905, !alias.scope !2857
  br i1 %3, label %_ZN9hashbrown3raw13RawTableInner13drop_elements17h4323b0d1a0ebde14E.exit.i.i.i.i.i, label %bb2.i.i.i.i.i.i, !dbg !2903, !unsafe_inst !1136

bb2.i.i.i.i.i.i:                                  ; preds = %bb2.i.i.i.i.i
  call void @llvm.dbg.value(metadata ptr %self.val.pre.i.i.i.i.i, metadata !2899, metadata !DIExpression()), !dbg !2906
  call void @llvm.dbg.value(metadata i64 16, metadata !2907, metadata !DIExpression()), !dbg !2920
  call void @llvm.dbg.value(metadata ptr %self.val.pre.i.i.i.i.i, metadata !2929, metadata !DIExpression()), !dbg !2951
  call void @llvm.dbg.value(metadata ptr %self.val.pre.i.i.i.i.i, metadata !2952, metadata !DIExpression()), !dbg !2978
  call void @llvm.dbg.value(metadata ptr %self.val.pre.i.i.i.i.i, metadata !2919, metadata !DIExpression()), !dbg !2920
  call void @llvm.dbg.value(metadata ptr %self.val.pre.i.i.i.i.i, metadata !2930, metadata !DIExpression()), !dbg !2951
  call void @llvm.dbg.value(metadata i64 poison, metadata !2931, metadata !DIExpression(DW_OP_plus_uconst, 1, DW_OP_stack_value)), !dbg !2951
  call void @llvm.dbg.value(metadata !DIArgList(ptr poison, i64 poison), metadata !2946, metadata !DIExpression(DW_OP_LLVM_arg, 0, DW_OP_LLVM_arg, 1, DW_OP_plus_uconst, 1, DW_OP_constu, 1, DW_OP_mul, DW_OP_plus, DW_OP_stack_value)), !dbg !2980
  call void @llvm.dbg.value(metadata ptr %self.val.pre.i.i.i.i.i, metadata !2981, metadata !DIExpression()), !dbg !2989
  %4 = load <16 x i8>, ptr %self.val.pre.i.i.i.i.i, align 16, !dbg !2991, !noalias !2992
  call void @llvm.dbg.value(metadata <2 x i64> poison, metadata !2997, metadata !DIExpression()), !dbg !3004
  call void @llvm.dbg.value(metadata ptr undef, metadata !3013, metadata !DIExpression()), !dbg !3015
  call void @llvm.dbg.value(metadata <2 x i64> poison, metadata !3016, metadata !DIExpression()), !dbg !3044
  call void @llvm.dbg.value(metadata <16 x i8> zeroinitializer, metadata !3021, metadata !DIExpression()), !dbg !3046
  %5 = icmp slt <16 x i8> %4, zeroinitializer, !dbg !3047
  call void @llvm.dbg.value(metadata <16 x i8> poison, metadata !3042, metadata !DIExpression()), !dbg !3048
  %6 = bitcast <16 x i1> %5 to i16, !dbg !3049
  call void @llvm.dbg.value(metadata i16 %6, metadata !3050, metadata !DIExpression()), !dbg !3058
  %current_group.i.i.i.i.i.i.i = xor i16 %6, -1, !dbg !3060, !unsafe_inst !1136
  call void @llvm.dbg.value(metadata i16 %current_group.i.i.i.i.i.i.i, metadata !2947, metadata !DIExpression()), !dbg !3061
  %next_ctrl.i.i.i.i.i.i.i = getelementptr inbounds i8, ptr %self.val.pre.i.i.i.i.i, i64 16, !dbg !3062, !unsafe_inst !1136
  call void @llvm.dbg.value(metadata ptr %self.val.pre.i.i.i.i.i, metadata !2869, metadata !DIExpression(DW_OP_LLVM_fragment, 0, 64)), !dbg !3063
  call void @llvm.dbg.value(metadata ptr %next_ctrl.i.i.i.i.i.i.i, metadata !2869, metadata !DIExpression(DW_OP_LLVM_fragment, 64, 64)), !dbg !3063
  call void @llvm.dbg.value(metadata !DIArgList(ptr poison, i64 poison), metadata !2869, metadata !DIExpression(DW_OP_LLVM_arg, 0, DW_OP_LLVM_arg, 1, DW_OP_plus_uconst, 1, DW_OP_constu, 1, DW_OP_mul, DW_OP_plus, DW_OP_stack_value, DW_OP_LLVM_fragment, 128, 64)), !dbg !3063
  call void @llvm.dbg.value(metadata i16 %current_group.i.i.i.i.i.i.i, metadata !2869, metadata !DIExpression(DW_OP_LLVM_fragment, 192, 16)), !dbg !3063
  call void @llvm.dbg.value(metadata i64 %_3.i.i.i.i.i.i, metadata !2869, metadata !DIExpression(DW_OP_LLVM_fragment, 256, 64)), !dbg !3063
  call void @llvm.dbg.value(metadata ptr undef, metadata !3064, metadata !DIExpression()), !dbg !3086
  br label %bb2.i.i.i.i.i.i.i, !dbg !3088

bb2.i.i.i.i.i.i.i:                                ; preds = %bb6.i.i.i.i.i.i, %bb2.i.i.i.i.i.i
  %iter.sroa.0.016.i.i.i.i.i.i = phi ptr [ %self.val.pre.i.i.i.i.i, %bb2.i.i.i.i.i.i ], [ %iter.sroa.0.1.i.i.i.i.i.i, %bb6.i.i.i.i.i.i ]
  %iter.sroa.6.015.i.i.i.i.i.i = phi ptr [ %next_ctrl.i.i.i.i.i.i.i, %bb2.i.i.i.i.i.i ], [ %iter.sroa.6.1.i.i.i.i.i.i, %bb6.i.i.i.i.i.i ]
  %iter.sroa.106.014.i.i.i.i.i.i = phi i64 [ %_3.i.i.i.i.i.i, %bb2.i.i.i.i.i.i ], [ %15, %bb6.i.i.i.i.i.i ]
  %iter.sroa.85.013.i.i.i.i.i.i = phi i16 [ %current_group.i.i.i.i.i.i.i, %bb2.i.i.i.i.i.i ], [ %_18.i.i.i.i.i.i.i.i.i, %bb6.i.i.i.i.i.i ]
  call void @llvm.dbg.value(metadata ptr %iter.sroa.0.016.i.i.i.i.i.i, metadata !2869, metadata !DIExpression(DW_OP_LLVM_fragment, 0, 64)), !dbg !3063
  call void @llvm.dbg.value(metadata ptr %iter.sroa.6.015.i.i.i.i.i.i, metadata !2869, metadata !DIExpression(DW_OP_LLVM_fragment, 64, 64)), !dbg !3063
  call void @llvm.dbg.value(metadata i64 %iter.sroa.106.014.i.i.i.i.i.i, metadata !2869, metadata !DIExpression(DW_OP_LLVM_fragment, 256, 64)), !dbg !3063
  call void @llvm.dbg.value(metadata i16 %iter.sroa.85.013.i.i.i.i.i.i, metadata !2869, metadata !DIExpression(DW_OP_LLVM_fragment, 192, 16)), !dbg !3063
  call void @llvm.dbg.value(metadata i64 16, metadata !3089, metadata !DIExpression()), !dbg !3094
  call void @llvm.dbg.value(metadata ptr undef, metadata !3102, metadata !DIExpression()), !dbg !3106
  call void @llvm.dbg.value(metadata ptr undef, metadata !3107, metadata !DIExpression()), !dbg !3131
  call void @llvm.dbg.value(metadata i16 %iter.sroa.85.013.i.i.i.i.i.i, metadata !3133, metadata !DIExpression()), !dbg !3150
  %7 = icmp eq i16 %iter.sroa.85.013.i.i.i.i.i.i, 0, !dbg !3152
  br i1 %7, label %bb5.i.i.i.i.i.i.i.i, label %bb6.i.i.i.i.i.i, !dbg !3152

bb1.bb3_crit_edge.i.i.i.i.i.i.i.i:                ; preds = %bb5.i.i.i.i.i.i.i.i
  %self6.i.i.i.i.i.i.i.i = xor i16 %10, -1, !dbg !3153, !unsafe_inst !1136
  call void @llvm.dbg.value(metadata i16 %self6.i.i.i.i.i.i.i.i, metadata !3133, metadata !DIExpression()), !dbg !3150
  call void @llvm.dbg.value(metadata ptr %_17.i.i.i.i.i.i.i.i, metadata !2869, metadata !DIExpression(DW_OP_LLVM_fragment, 64, 64)), !dbg !3063
  call void @llvm.dbg.value(metadata ptr %11, metadata !2869, metadata !DIExpression(DW_OP_LLVM_fragment, 0, 64)), !dbg !3063
  br label %bb6.i.i.i.i.i.i, !dbg !3152

bb5.i.i.i.i.i.i.i.i:                              ; preds = %bb2.i.i.i.i.i.i.i, %bb5.i.i.i.i.i.i.i.i
  %_1721.i.i.i.i.i.i.i.i = phi ptr [ %_17.i.i.i.i.i.i.i.i, %bb5.i.i.i.i.i.i.i.i ], [ %iter.sroa.6.015.i.i.i.i.i.i, %bb2.i.i.i.i.i.i.i ], !dbg !3164
  %self.val1819.i.i.i.i.i.i.i.i = phi ptr [ %11, %bb5.i.i.i.i.i.i.i.i ], [ %iter.sroa.0.016.i.i.i.i.i.i, %bb2.i.i.i.i.i.i.i ]
  call void @llvm.dbg.value(metadata ptr %_1721.i.i.i.i.i.i.i.i, metadata !3165, metadata !DIExpression()), !dbg !3176
  call void @llvm.dbg.value(metadata ptr %_1721.i.i.i.i.i.i.i.i, metadata !2981, metadata !DIExpression()), !dbg !3178
  %8 = load <16 x i8>, ptr %_1721.i.i.i.i.i.i.i.i, align 16, !dbg !3180, !noalias !3181
  call void @llvm.dbg.value(metadata <2 x i64> poison, metadata !3188, metadata !DIExpression()), !dbg !3192
  call void @llvm.dbg.value(metadata ptr undef, metadata !3162, metadata !DIExpression()), !dbg !3194
  call void @llvm.dbg.value(metadata <2 x i64> poison, metadata !3016, metadata !DIExpression()), !dbg !3195
  call void @llvm.dbg.value(metadata <16 x i8> zeroinitializer, metadata !3021, metadata !DIExpression()), !dbg !3197
  %9 = icmp slt <16 x i8> %8, zeroinitializer, !dbg !3198
  call void @llvm.dbg.value(metadata <16 x i8> poison, metadata !3042, metadata !DIExpression()), !dbg !3199
  %10 = bitcast <16 x i1> %9 to i16, !dbg !3200
  call void @llvm.dbg.value(metadata i16 %10, metadata !3157, metadata !DIExpression()), !dbg !3201
  call void @llvm.dbg.value(metadata ptr undef, metadata !3202, metadata !DIExpression()), !dbg !3211
  call void @llvm.dbg.value(metadata i64 16, metadata !3208, metadata !DIExpression()), !dbg !3211
  call void @llvm.dbg.value(metadata i64 16, metadata !3213, metadata !DIExpression()), !dbg !3218
  call void @llvm.dbg.value(metadata ptr %self.val1819.i.i.i.i.i.i.i.i, metadata !3217, metadata !DIExpression()), !dbg !3218
  call void @llvm.dbg.value(metadata ptr %self.val1819.i.i.i.i.i.i.i.i, metadata !3220, metadata !DIExpression()), !dbg !3225
  call void @llvm.dbg.value(metadata i64 16, metadata !3227, metadata !DIExpression()), !dbg !3231
  call void @llvm.dbg.value(metadata i64 -16, metadata !3224, metadata !DIExpression()), !dbg !3225
  %11 = getelementptr inbounds { i32, [1 x i32], %Slot }, ptr %self.val1819.i.i.i.i.i.i.i.i, i64 -16, !dbg !3233, !unsafe_inst !1136
  call void @llvm.dbg.value(metadata ptr %_1721.i.i.i.i.i.i.i.i, metadata !3093, metadata !DIExpression()), !dbg !3094
  %_17.i.i.i.i.i.i.i.i = getelementptr inbounds i8, ptr %_1721.i.i.i.i.i.i.i.i, i64 16, !dbg !3234, !unsafe_inst !1136
  call void @llvm.dbg.value(metadata ptr undef, metadata !3107, metadata !DIExpression()), !dbg !3131
  call void @llvm.dbg.value(metadata i16 %10, metadata !3133, metadata !DIExpression(DW_OP_constu, 18446744073709551615, DW_OP_xor, DW_OP_stack_value)), !dbg !3150
  %12 = icmp eq i16 %10, -1, !dbg !3152
  br i1 %12, label %bb5.i.i.i.i.i.i.i.i, label %bb1.bb3_crit_edge.i.i.i.i.i.i.i.i, !dbg !3152

bb6.i.i.i.i.i.i:                                  ; preds = %bb1.bb3_crit_edge.i.i.i.i.i.i.i.i, %bb2.i.i.i.i.i.i.i
  %iter.sroa.6.1.i.i.i.i.i.i = phi ptr [ %_17.i.i.i.i.i.i.i.i, %bb1.bb3_crit_edge.i.i.i.i.i.i.i.i ], [ %iter.sroa.6.015.i.i.i.i.i.i, %bb2.i.i.i.i.i.i.i ], !dbg !3235
  %iter.sroa.0.1.i.i.i.i.i.i = phi ptr [ %11, %bb1.bb3_crit_edge.i.i.i.i.i.i.i.i ], [ %iter.sroa.0.016.i.i.i.i.i.i, %bb2.i.i.i.i.i.i.i ], !dbg !3235
  %self3.i.lcssa.i.i.i.i.i.i.i.i = phi i16 [ %self6.i.i.i.i.i.i.i.i, %bb1.bb3_crit_edge.i.i.i.i.i.i.i.i ], [ %iter.sroa.85.013.i.i.i.i.i.i, %bb2.i.i.i.i.i.i.i ], !dbg !3236
  call void @llvm.dbg.value(metadata i16 %self3.i.lcssa.i.i.i.i.i.i.i.i, metadata !3140, metadata !DIExpression()), !dbg !3237
  call void @llvm.dbg.value(metadata i16 %self3.i.lcssa.i.i.i.i.i.i.i.i, metadata !3238, metadata !DIExpression()), !dbg !3247
  call void @llvm.dbg.value(metadata i16 %self3.i.lcssa.i.i.i.i.i.i.i.i, metadata !3249, metadata !DIExpression()), !dbg !3257
  call void @llvm.dbg.value(metadata i16 poison, metadata !3114, metadata !DIExpression(DW_OP_LLVM_convert, 16, DW_ATE_unsigned, DW_OP_LLVM_convert, 64, DW_ATE_unsigned, DW_OP_stack_value)), !dbg !3259
  call void @llvm.dbg.value(metadata i16 %self3.i.lcssa.i.i.i.i.i.i.i.i, metadata !3260, metadata !DIExpression()), !dbg !3265
  call void @llvm.dbg.value(metadata i16 poison, metadata !3103, metadata !DIExpression(DW_OP_LLVM_convert, 16, DW_ATE_unsigned, DW_OP_LLVM_convert, 64, DW_ATE_unsigned, DW_OP_stack_value)), !dbg !3267
  call void @llvm.dbg.value(metadata ptr undef, metadata !3202, metadata !DIExpression()), !dbg !3268
  call void @llvm.dbg.value(metadata i16 poison, metadata !3208, metadata !DIExpression(DW_OP_LLVM_convert, 16, DW_ATE_unsigned, DW_OP_LLVM_convert, 64, DW_ATE_unsigned, DW_OP_stack_value)), !dbg !3268
  call void @llvm.dbg.value(metadata i16 poison, metadata !3213, metadata !DIExpression(DW_OP_LLVM_convert, 16, DW_ATE_unsigned, DW_OP_LLVM_convert, 64, DW_ATE_unsigned, DW_OP_stack_value)), !dbg !3270
  call void @llvm.dbg.value(metadata ptr %iter.sroa.0.1.i.i.i.i.i.i, metadata !3217, metadata !DIExpression()), !dbg !3270
  call void @llvm.dbg.value(metadata ptr %iter.sroa.0.1.i.i.i.i.i.i, metadata !3220, metadata !DIExpression()), !dbg !3272
  call void @llvm.dbg.value(metadata i16 poison, metadata !3227, metadata !DIExpression(DW_OP_LLVM_convert, 16, DW_ATE_unsigned, DW_OP_LLVM_convert, 64, DW_ATE_unsigned, DW_OP_stack_value)), !dbg !3274
  call void @llvm.dbg.value(metadata !DIArgList(i64 poison, i16 poison), metadata !3224, metadata !DIExpression(DW_OP_LLVM_arg, 0, DW_OP_LLVM_arg, 1, DW_OP_LLVM_convert, 16, DW_ATE_unsigned, DW_OP_LLVM_convert, 64, DW_ATE_unsigned, DW_OP_minus, DW_OP_stack_value)), !dbg !3272
  call void @llvm.dbg.value(metadata !DIArgList(ptr poison, i64 poison, i16 poison), metadata !3084, metadata !DIExpression(DW_OP_LLVM_arg, 0, DW_OP_LLVM_arg, 1, DW_OP_LLVM_arg, 2, DW_OP_LLVM_convert, 16, DW_ATE_unsigned, DW_OP_LLVM_convert, 64, DW_ATE_unsigned, DW_OP_minus, DW_OP_constu, 192, DW_OP_mul, DW_OP_plus, DW_OP_stack_value)), !dbg !3276
  call void @llvm.dbg.value(metadata ptr %iter.sroa.0.1.i.i.i.i.i.i, metadata !2869, metadata !DIExpression(DW_OP_LLVM_fragment, 0, 64)), !dbg !3063
  call void @llvm.dbg.value(metadata ptr %iter.sroa.6.1.i.i.i.i.i.i, metadata !2869, metadata !DIExpression(DW_OP_LLVM_fragment, 64, 64)), !dbg !3063
  call void @llvm.dbg.value(metadata i64 %iter.sroa.106.014.i.i.i.i.i.i, metadata !2869, metadata !DIExpression(DW_OP_constu, 1, DW_OP_minus, DW_OP_stack_value, DW_OP_LLVM_fragment, 256, 64)), !dbg !3063
  call void @llvm.dbg.value(metadata !DIArgList(i16 %self3.i.lcssa.i.i.i.i.i.i.i.i, i16 %self3.i.lcssa.i.i.i.i.i.i.i.i), metadata !2869, metadata !DIExpression(DW_OP_LLVM_arg, 0, DW_OP_constu, 1, DW_OP_minus, DW_OP_LLVM_arg, 1, DW_OP_and, DW_OP_stack_value, DW_OP_LLVM_fragment, 192, 16)), !dbg !3063
  %13 = tail call i16 @llvm.cttz.i16(i16 %self3.i.lcssa.i.i.i.i.i.i.i.i, i1 true), !dbg !3277, !range !3278
  call void @llvm.dbg.value(metadata i16 %13, metadata !3114, metadata !DIExpression(DW_OP_LLVM_convert, 16, DW_ATE_unsigned, DW_OP_LLVM_convert, 64, DW_ATE_unsigned, DW_OP_stack_value)), !dbg !3259
  call void @llvm.dbg.value(metadata i16 %13, metadata !3103, metadata !DIExpression(DW_OP_LLVM_convert, 16, DW_ATE_unsigned, DW_OP_LLVM_convert, 64, DW_ATE_unsigned, DW_OP_stack_value)), !dbg !3267
  call void @llvm.dbg.value(metadata i16 %13, metadata !3208, metadata !DIExpression(DW_OP_LLVM_convert, 16, DW_ATE_unsigned, DW_OP_LLVM_convert, 64, DW_ATE_unsigned, DW_OP_stack_value)), !dbg !3268
  call void @llvm.dbg.value(metadata i16 %13, metadata !3213, metadata !DIExpression(DW_OP_LLVM_convert, 16, DW_ATE_unsigned, DW_OP_LLVM_convert, 64, DW_ATE_unsigned, DW_OP_stack_value)), !dbg !3270
  call void @llvm.dbg.value(metadata i16 %13, metadata !3227, metadata !DIExpression(DW_OP_LLVM_convert, 16, DW_ATE_unsigned, DW_OP_LLVM_convert, 64, DW_ATE_unsigned, DW_OP_stack_value)), !dbg !3274
  call void @llvm.dbg.value(metadata !DIArgList(i64 0, i16 %13), metadata !3224, metadata !DIExpression(DW_OP_LLVM_arg, 0, DW_OP_LLVM_arg, 1, DW_OP_LLVM_convert, 16, DW_ATE_unsigned, DW_OP_LLVM_convert, 64, DW_ATE_unsigned, DW_OP_minus, DW_OP_stack_value)), !dbg !3272
  call void @llvm.dbg.value(metadata !DIArgList(ptr %iter.sroa.0.1.i.i.i.i.i.i, i64 0, i16 %13), metadata !3084, metadata !DIExpression(DW_OP_LLVM_arg, 0, DW_OP_LLVM_arg, 1, DW_OP_LLVM_arg, 2, DW_OP_LLVM_convert, 16, DW_ATE_unsigned, DW_OP_LLVM_convert, 64, DW_ATE_unsigned, DW_OP_minus, DW_OP_constu, 192, DW_OP_mul, DW_OP_plus, DW_OP_stack_value)), !dbg !3276
  %_9.i.i.i.i.i.i.i.i.i = zext nneg i16 %13 to i64, !dbg !3279
  call void @llvm.dbg.value(metadata i64 %_9.i.i.i.i.i.i.i.i.i, metadata !3114, metadata !DIExpression()), !dbg !3259
  call void @llvm.dbg.value(metadata i64 %_9.i.i.i.i.i.i.i.i.i, metadata !3103, metadata !DIExpression()), !dbg !3267
  call void @llvm.dbg.value(metadata i64 %_9.i.i.i.i.i.i.i.i.i, metadata !3208, metadata !DIExpression()), !dbg !3268
  call void @llvm.dbg.value(metadata i64 %_9.i.i.i.i.i.i.i.i.i, metadata !3213, metadata !DIExpression()), !dbg !3270
  call void @llvm.dbg.value(metadata i64 %_9.i.i.i.i.i.i.i.i.i, metadata !3227, metadata !DIExpression()), !dbg !3274
  call void @llvm.dbg.value(metadata !DIArgList(i64 0, i64 %_9.i.i.i.i.i.i.i.i.i), metadata !3224, metadata !DIExpression(DW_OP_LLVM_arg, 0, DW_OP_LLVM_arg, 1, DW_OP_minus, DW_OP_stack_value)), !dbg !3272
  call void @llvm.dbg.value(metadata !DIArgList(ptr %iter.sroa.0.1.i.i.i.i.i.i, i64 0, i64 %_9.i.i.i.i.i.i.i.i.i), metadata !3084, metadata !DIExpression(DW_OP_LLVM_arg, 0, DW_OP_LLVM_arg, 1, DW_OP_LLVM_arg, 2, DW_OP_minus, DW_OP_constu, 192, DW_OP_mul, DW_OP_plus, DW_OP_stack_value)), !dbg !3276
  %count.i.i.i.i.i.i.i.i.i = sub nsw i64 0, %_9.i.i.i.i.i.i.i.i.i, !dbg !3280, !unsafe_inst !1136
  call void @llvm.dbg.value(metadata i64 %count.i.i.i.i.i.i.i.i.i, metadata !3224, metadata !DIExpression()), !dbg !3272
  call void @llvm.dbg.value(metadata !DIArgList(ptr %iter.sroa.0.1.i.i.i.i.i.i, i64 %count.i.i.i.i.i.i.i.i.i), metadata !3084, metadata !DIExpression(DW_OP_LLVM_arg, 0, DW_OP_LLVM_arg, 1, DW_OP_constu, 192, DW_OP_mul, DW_OP_plus, DW_OP_stack_value)), !dbg !3276
  %14 = getelementptr inbounds { i32, [1 x i32], %Slot }, ptr %iter.sroa.0.1.i.i.i.i.i.i, i64 %count.i.i.i.i.i.i.i.i.i, !dbg !3281, !unsafe_inst !1136
  call void @llvm.dbg.value(metadata ptr %14, metadata !3084, metadata !DIExpression()), !dbg !3276
  %15 = add i64 %iter.sroa.106.014.i.i.i.i.i.i, -1, !dbg !3282
  call void @llvm.dbg.value(metadata i64 %15, metadata !2869, metadata !DIExpression(DW_OP_LLVM_fragment, 256, 64)), !dbg !3063
  %_19.i.i.i.i.i.i.i.i.i = add i16 %self3.i.lcssa.i.i.i.i.i.i.i.i, -1, !dbg !3283
  call void @llvm.dbg.value(metadata !DIArgList(i16 %_19.i.i.i.i.i.i.i.i.i, i16 %self3.i.lcssa.i.i.i.i.i.i.i.i), metadata !2869, metadata !DIExpression(DW_OP_LLVM_arg, 0, DW_OP_LLVM_arg, 1, DW_OP_and, DW_OP_stack_value, DW_OP_LLVM_fragment, 192, 16)), !dbg !3063
  %_18.i.i.i.i.i.i.i.i.i = and i16 %_19.i.i.i.i.i.i.i.i.i, %self3.i.lcssa.i.i.i.i.i.i.i.i, !dbg !3284
  call void @llvm.dbg.value(metadata i16 %_18.i.i.i.i.i.i.i.i.i, metadata !2869, metadata !DIExpression(DW_OP_LLVM_fragment, 192, 16)), !dbg !3063
  call void @llvm.dbg.value(metadata ptr %14, metadata !2888, metadata !DIExpression()), !dbg !3285
  call void @llvm.dbg.value(metadata ptr undef, metadata !2276, metadata !DIExpression()), !dbg !3286
  call void @llvm.dbg.value(metadata ptr %14, metadata !2285, metadata !DIExpression(DW_OP_constu, 192, DW_OP_minus, DW_OP_stack_value)), !dbg !3288
  call void @llvm.dbg.value(metadata ptr %14, metadata !2293, metadata !DIExpression(DW_OP_constu, 192, DW_OP_minus, DW_OP_stack_value)), !dbg !3290
  call void @llvm.dbg.value(metadata ptr %14, metadata !2298, metadata !DIExpression(DW_OP_constu, 192, DW_OP_minus, DW_OP_plus_uconst, 8, DW_OP_stack_value)), !dbg !3292
  %16 = getelementptr { i32, [1 x i32], %Slot }, ptr %14, i64 -1, i32 2, i32 1, !dbg !3294
; call core::ptr::drop_in_place<alloc::collections::btree::map::BTreeMap<signal_hook_registry::ActionId,alloc::sync::Arc<dyn core::ops::function::Fn<(&libc::unix::linux_like::linux::gnu::b64::x86_64::siginfo_t,)>+Output = ()+core::marker::Send+core::marker::Sync>>>
  tail call fastcc void @"_ZN4core3ptr318drop_in_place$LT$alloc..collections..btree..map..BTreeMap$LT$signal_hook_registry..ActionId$C$alloc..sync..Arc$LT$dyn$u20$core..ops..function..Fn$LT$$LP$$RF$libc..unix..linux_like..linux..gnu..b64..x86_64..siginfo_t$C$$RP$$GT$$u2b$Output$u20$$u3d$$u20$$LP$$RP$$u2b$core..marker..Send$u2b$core..marker..Sync$GT$$GT$$GT$17h97e919acb003ab65E"(ptr noalias noundef nonnull align 8 dereferenceable(24) %16), !dbg !3294, !noalias !2904
  call void @llvm.dbg.value(metadata ptr %iter.sroa.0.1.i.i.i.i.i.i, metadata !2869, metadata !DIExpression(DW_OP_LLVM_fragment, 0, 64)), !dbg !3063
  call void @llvm.dbg.value(metadata ptr %iter.sroa.6.1.i.i.i.i.i.i, metadata !2869, metadata !DIExpression(DW_OP_LLVM_fragment, 64, 64)), !dbg !3063
  call void @llvm.dbg.value(metadata i64 %15, metadata !2869, metadata !DIExpression(DW_OP_LLVM_fragment, 256, 64)), !dbg !3063
  call void @llvm.dbg.value(metadata i16 %_18.i.i.i.i.i.i.i.i.i, metadata !2869, metadata !DIExpression(DW_OP_LLVM_fragment, 192, 16)), !dbg !3063
  call void @llvm.dbg.value(metadata ptr undef, metadata !3064, metadata !DIExpression()), !dbg !3086
  %17 = icmp eq i64 %15, 0, !dbg !3088
  br i1 %17, label %_ZN9hashbrown3raw13RawTableInner13drop_elements17h4323b0d1a0ebde14E.exit.i.i.i.i.i, label %bb2.i.i.i.i.i.i.i, !dbg !3088

_ZN9hashbrown3raw13RawTableInner13drop_elements17h4323b0d1a0ebde14E.exit.i.i.i.i.i: ; preds = %bb6.i.i.i.i.i.i, %bb2.i.i.i.i.i
  call void @llvm.dbg.value(metadata ptr undef, metadata !3295, metadata !DIExpression()), !dbg !3315
  call void @llvm.dbg.value(metadata ptr undef, metadata !3317, metadata !DIExpression()), !dbg !3324
  call void @llvm.dbg.value(metadata i64 192, metadata !3305, metadata !DIExpression(DW_OP_LLVM_fragment, 0, 64)), !dbg !3315
  call void @llvm.dbg.value(metadata i64 16, metadata !3305, metadata !DIExpression(DW_OP_LLVM_fragment, 64, 64)), !dbg !3315
  %_4.i.i.i.i.i.i = add i64 %_5.i.i.i.i.i, 1, !dbg !3326, !unsafe_inst !1136
  call void @llvm.dbg.value(metadata i64 192, metadata !3327, metadata !DIExpression(DW_OP_LLVM_fragment, 0, 64)), !dbg !3366
  call void @llvm.dbg.value(metadata i64 16, metadata !3327, metadata !DIExpression(DW_OP_LLVM_fragment, 64, 64)), !dbg !3366
  call void @llvm.dbg.value(metadata i64 %_4.i.i.i.i.i.i, metadata !3346, metadata !DIExpression()), !dbg !3366
  call void @llvm.dbg.value(metadata i64 %_4.i.i.i.i.i.i, metadata !3368, metadata !DIExpression()), !dbg !3378
  call void @llvm.dbg.value(metadata i64 %_4.i.i.i.i.i.i, metadata !3380, metadata !DIExpression()), !dbg !3394
  call void @llvm.dbg.value(metadata i64 192, metadata !3347, metadata !DIExpression()), !dbg !3396
  call void @llvm.dbg.value(metadata i64 192, metadata !3374, metadata !DIExpression()), !dbg !3378
  call void @llvm.dbg.value(metadata i64 192, metadata !3390, metadata !DIExpression()), !dbg !3394
  call void @llvm.dbg.value(metadata i64 16, metadata !3349, metadata !DIExpression()), !dbg !3396
  %18 = tail call { i64, i1 } @llvm.umul.with.overflow.i64(i64 %_4.i.i.i.i.i.i, i64 192), !dbg !3397
  %_26.1.i.i.i.i.i.i.i = extractvalue { i64, i1 } %18, 1, !dbg !3397
  call void @llvm.dbg.value(metadata i1 %_26.1.i.i.i.i.i.i.i, metadata !3377, metadata !DIExpression(DW_OP_LLVM_convert, 1, DW_ATE_unsigned, DW_OP_LLVM_convert, 8, DW_ATE_unsigned, DW_OP_stack_value)), !dbg !3398
  call void @llvm.dbg.value(metadata i64 poison, metadata !3375, metadata !DIExpression()), !dbg !3398
  %19 = xor i1 %_26.1.i.i.i.i.i.i.i, true, !dbg !3399
  tail call void @llvm.assume(i1 %19), !dbg !3399
  %_26.0.i.i.i.i.i.i.i = extractvalue { i64, i1 } %18, 0, !dbg !3397
  call void @llvm.dbg.value(metadata i64 %_26.0.i.i.i.i.i.i.i, metadata !3375, metadata !DIExpression()), !dbg !3398
  call void @llvm.dbg.value(metadata i64 %_26.0.i.i.i.i.i.i.i, metadata !3350, metadata !DIExpression()), !dbg !3402
  call void @llvm.dbg.value(metadata i64 %_26.0.i.i.i.i.i.i.i, metadata !3403, metadata !DIExpression()), !dbg !3417
  call void @llvm.dbg.value(metadata i64 %_26.0.i.i.i.i.i.i.i, metadata !3419, metadata !DIExpression()), !dbg !3433
  %rhs16.i.i.i.i.i.i.i = add i64 %_5.i.i.i.i.i, 17, !dbg !3435
  call void @llvm.dbg.value(metadata i64 %rhs16.i.i.i.i.i.i.i, metadata !3413, metadata !DIExpression()), !dbg !3417
  call void @llvm.dbg.value(metadata i64 %rhs16.i.i.i.i.i.i.i, metadata !3429, metadata !DIExpression()), !dbg !3433
  %20 = tail call { i64, i1 } @llvm.uadd.with.overflow.i64(i64 %_26.0.i.i.i.i.i.i.i, i64 %rhs16.i.i.i.i.i.i.i), !dbg !3436
  %_42.1.i.i.i.i.i.i.i = extractvalue { i64, i1 } %20, 1, !dbg !3436
  call void @llvm.dbg.value(metadata i1 %_42.1.i.i.i.i.i.i.i, metadata !3416, metadata !DIExpression(DW_OP_LLVM_convert, 1, DW_ATE_unsigned, DW_OP_LLVM_convert, 8, DW_ATE_unsigned, DW_OP_stack_value)), !dbg !3437
  call void @llvm.dbg.value(metadata i64 poison, metadata !3414, metadata !DIExpression()), !dbg !3437
  %21 = xor i1 %_42.1.i.i.i.i.i.i.i, true, !dbg !3438
  tail call void @llvm.assume(i1 %21), !dbg !3438
  %_42.0.i.i.i.i.i.i.i = extractvalue { i64, i1 } %20, 0, !dbg !3436
  call void @llvm.dbg.value(metadata i64 %_42.0.i.i.i.i.i.i.i, metadata !3414, metadata !DIExpression()), !dbg !3437
  call void @llvm.dbg.value(metadata i64 %_42.0.i.i.i.i.i.i.i, metadata !3360, metadata !DIExpression()), !dbg !3440
  %_19.i.i.i.i.i.i.i = icmp ult i64 %_42.0.i.i.i.i.i.i.i, 9223372036854775793, !dbg !3441
  tail call void @llvm.assume(i1 %_19.i.i.i.i.i.i.i), !dbg !3441
  call void @llvm.dbg.value(metadata i64 16, metadata !3306, metadata !DIExpression(DW_OP_LLVM_fragment, 0, 64)), !dbg !3442
  call void @llvm.dbg.value(metadata i64 %_42.0.i.i.i.i.i.i.i, metadata !3306, metadata !DIExpression(DW_OP_LLVM_fragment, 64, 64)), !dbg !3442
  call void @llvm.dbg.value(metadata i64 %_26.0.i.i.i.i.i.i.i, metadata !3308, metadata !DIExpression()), !dbg !3442
  call void @llvm.dbg.value(metadata i64 %_26.0.i.i.i.i.i.i.i, metadata !3443, metadata !DIExpression()), !dbg !3448
  %22 = icmp ne ptr %self.val.pre.i.i.i.i.i, null
  tail call void @llvm.assume(i1 %22)
  call void @llvm.dbg.value(metadata ptr %self.val.pre.i.i.i.i.i, metadata !3447, metadata !DIExpression()), !dbg !3448
  call void @llvm.dbg.value(metadata ptr %self.val.pre.i.i.i.i.i, metadata !3450, metadata !DIExpression()), !dbg !3457
  call void @llvm.dbg.value(metadata i64 %_26.0.i.i.i.i.i.i.i, metadata !3459, metadata !DIExpression()), !dbg !3463
  call void @llvm.dbg.value(metadata !DIArgList(i64 0, i64 %_26.0.i.i.i.i.i.i.i), metadata !3456, metadata !DIExpression(DW_OP_LLVM_arg, 0, DW_OP_LLVM_arg, 1, DW_OP_minus, DW_OP_stack_value)), !dbg !3457
  call void @llvm.dbg.value(metadata !DIArgList(ptr %self.val.pre.i.i.i.i.i, i64 0, i64 %_26.0.i.i.i.i.i.i.i), metadata !2851, metadata !DIExpression(DW_OP_LLVM_arg, 0, DW_OP_LLVM_arg, 1, DW_OP_LLVM_arg, 2, DW_OP_minus, DW_OP_constu, 1, DW_OP_mul, DW_OP_plus, DW_OP_stack_value)), !dbg !3465
  call void @llvm.dbg.value(metadata i64 16, metadata !2853, metadata !DIExpression(DW_OP_LLVM_fragment, 0, 64)), !dbg !3465
  call void @llvm.dbg.value(metadata i64 %_42.0.i.i.i.i.i.i.i, metadata !2853, metadata !DIExpression(DW_OP_LLVM_fragment, 64, 64)), !dbg !3465
  call void @llvm.dbg.value(metadata i64 16, metadata !1811, metadata !DIExpression(DW_OP_LLVM_fragment, 0, 64)), !dbg !3466
  call void @llvm.dbg.value(metadata i64 %_42.0.i.i.i.i.i.i.i, metadata !1811, metadata !DIExpression(DW_OP_LLVM_fragment, 64, 64)), !dbg !3466
  call void @llvm.dbg.value(metadata ptr undef, metadata !1816, metadata !DIExpression()), !dbg !3466
  call void @llvm.dbg.value(metadata !DIArgList(ptr %self.val.pre.i.i.i.i.i, i64 0, i64 %_26.0.i.i.i.i.i.i.i), metadata !1817, metadata !DIExpression(DW_OP_LLVM_arg, 0, DW_OP_LLVM_arg, 1, DW_OP_LLVM_arg, 2, DW_OP_minus, DW_OP_constu, 1, DW_OP_mul, DW_OP_plus, DW_OP_stack_value)), !dbg !3466
  %23 = icmp eq i64 %_42.0.i.i.i.i.i.i.i, 0, !dbg !3468
  br i1 %23, label %"_ZN4core3ptr97drop_in_place$LT$std..collections..hash..map..HashMap$LT$i32$C$signal_hook_registry..Slot$GT$$GT$17h0d8748305424d511E.exit", label %bb1.i.i.i.i.i.i, !dbg !3468

bb1.i.i.i.i.i.i:                                  ; preds = %_ZN9hashbrown3raw13RawTableInner13drop_elements17h4323b0d1a0ebde14E.exit.i.i.i.i.i
  %count.i.i.i.i.i.i = sub nsw i64 0, %_26.0.i.i.i.i.i.i.i, !dbg !3469, !unsafe_inst !1136
  call void @llvm.dbg.value(metadata i64 %count.i.i.i.i.i.i, metadata !3456, metadata !DIExpression()), !dbg !3457
  call void @llvm.dbg.value(metadata !DIArgList(ptr %self.val.pre.i.i.i.i.i, i64 %count.i.i.i.i.i.i), metadata !2851, metadata !DIExpression(DW_OP_LLVM_arg, 0, DW_OP_LLVM_arg, 1, DW_OP_constu, 1, DW_OP_mul, DW_OP_plus, DW_OP_stack_value)), !dbg !3465
  call void @llvm.dbg.value(metadata !DIArgList(ptr %self.val.pre.i.i.i.i.i, i64 %count.i.i.i.i.i.i), metadata !1817, metadata !DIExpression(DW_OP_LLVM_arg, 0, DW_OP_LLVM_arg, 1, DW_OP_constu, 1, DW_OP_mul, DW_OP_plus, DW_OP_stack_value)), !dbg !3466
  %ptr.i.i.i.i.i.i = getelementptr inbounds i8, ptr %self.val.pre.i.i.i.i.i, i64 %count.i.i.i.i.i.i, !dbg !3470, !unsafe_inst !1136
  call void @llvm.dbg.value(metadata ptr %ptr.i.i.i.i.i.i, metadata !2851, metadata !DIExpression()), !dbg !3465
  call void @llvm.dbg.value(metadata ptr %ptr.i.i.i.i.i.i, metadata !1817, metadata !DIExpression()), !dbg !3466
  call void @llvm.dbg.value(metadata ptr %ptr.i.i.i.i.i.i, metadata !1820, metadata !DIExpression()), !dbg !3471
  call void @llvm.dbg.value(metadata i64 16, metadata !1826, metadata !DIExpression(DW_OP_LLVM_fragment, 0, 64)), !dbg !3471
  call void @llvm.dbg.value(metadata i64 %_42.0.i.i.i.i.i.i.i, metadata !1826, metadata !DIExpression(DW_OP_LLVM_fragment, 64, 64)), !dbg !3471
  tail call void @__rust_dealloc(ptr noundef nonnull %ptr.i.i.i.i.i.i, i64 noundef %_42.0.i.i.i.i.i.i.i, i64 noundef 16) #16, !dbg !3473, !noalias !2857
  br label %"_ZN4core3ptr97drop_in_place$LT$std..collections..hash..map..HashMap$LT$i32$C$signal_hook_registry..Slot$GT$$GT$17h0d8748305424d511E.exit", !dbg !3474

"_ZN4core3ptr97drop_in_place$LT$std..collections..hash..map..HashMap$LT$i32$C$signal_hook_registry..Slot$GT$$GT$17h0d8748305424d511E.exit": ; preds = %start, %_ZN9hashbrown3raw13RawTableInner13drop_elements17h4323b0d1a0ebde14E.exit.i.i.i.i.i, %bb1.i.i.i.i.i.i
  ret void, !dbg !2764
}

; core::ptr::drop_in_place<alloc::boxed::Box<signal_hook_registry::SignalData>>
; Function Attrs: nonlazybind uwtable
define internal fastcc void @"_ZN4core3ptr78drop_in_place$LT$alloc..boxed..Box$LT$signal_hook_registry..SignalData$GT$$GT$17hc20ef9b64400f589E"(ptr %_1.0.val) unnamed_addr #1 personality ptr @rust_eh_personality !dbg !3475 {
start:
  tail call void @llvm.dbg.value(metadata ptr undef, metadata !3480, metadata !DIExpression()), !dbg !3481
  tail call void @llvm.experimental.noalias.scope.decl(metadata !3482), !dbg !3485
  call void @llvm.dbg.value(metadata ptr %_1.0.val, metadata !2759, metadata !DIExpression()), !dbg !3486
  tail call void @llvm.experimental.noalias.scope.decl(metadata !3488), !dbg !3491
  call void @llvm.dbg.value(metadata ptr %_1.0.val, metadata !2765, metadata !DIExpression()), !dbg !3492
  tail call void @llvm.experimental.noalias.scope.decl(metadata !3494), !dbg !3497
  call void @llvm.dbg.value(metadata ptr %_1.0.val, metadata !2779, metadata !DIExpression()), !dbg !3498
  tail call void @llvm.experimental.noalias.scope.decl(metadata !3500), !dbg !3503
  call void @llvm.dbg.value(metadata ptr %_1.0.val, metadata !2793, metadata !DIExpression()), !dbg !3504
  tail call void @llvm.experimental.noalias.scope.decl(metadata !3506), !dbg !3509
  call void @llvm.dbg.value(metadata ptr %_1.0.val, metadata !2807, metadata !DIExpression()), !dbg !3510
  tail call void @llvm.experimental.noalias.scope.decl(metadata !3512), !dbg !3515
  call void @llvm.dbg.value(metadata ptr %_1.0.val, metadata !2819, metadata !DIExpression()), !dbg !3516
  call void @llvm.dbg.value(metadata ptr %_1.0.val, metadata !2834, metadata !DIExpression()), !dbg !3518
  call void @llvm.dbg.value(metadata ptr %_1.0.val, metadata !2843, metadata !DIExpression()), !dbg !3520
  call void @llvm.dbg.value(metadata ptr undef, metadata !2830, metadata !DIExpression()), !dbg !3516
  call void @llvm.dbg.value(metadata ptr undef, metadata !2849, metadata !DIExpression()), !dbg !3520
  call void @llvm.dbg.value(metadata i64 192, metadata !2831, metadata !DIExpression(DW_OP_LLVM_fragment, 0, 64)), !dbg !3516
  call void @llvm.dbg.value(metadata i64 192, metadata !2850, metadata !DIExpression(DW_OP_LLVM_fragment, 0, 64)), !dbg !3520
  call void @llvm.dbg.value(metadata i64 16, metadata !2831, metadata !DIExpression(DW_OP_LLVM_fragment, 64, 64)), !dbg !3516
  call void @llvm.dbg.value(metadata i64 16, metadata !2850, metadata !DIExpression(DW_OP_LLVM_fragment, 64, 64)), !dbg !3520
  %0 = getelementptr inbounds i8, ptr %_1.0.val, i64 8, !dbg !3522, !unsafe_inst !1136
  %_5.i.i.i.i.i.i = load i64, ptr %0, align 8, !dbg !3522, !alias.scope !3523, !noundef !13
  %1 = icmp eq i64 %_5.i.i.i.i.i.i, 0, !dbg !3524, !unsafe_inst !1136
  br i1 %1, label %bb3, label %bb2.i.i.i.i.i.i, !dbg !3524, !unsafe_inst !1136

bb2.i.i.i.i.i.i:                                  ; preds = %start
  tail call void @llvm.experimental.noalias.scope.decl(metadata !3525), !dbg !3528
  call void @llvm.dbg.value(metadata ptr %_1.0.val, metadata !2863, metadata !DIExpression()), !dbg !3529
  call void @llvm.dbg.value(metadata ptr %_1.0.val, metadata !2892, metadata !DIExpression()), !dbg !3531
  %2 = getelementptr inbounds i8, ptr %_1.0.val, i64 24, !dbg !3533, !unsafe_inst !1136
  %_3.i.i.i.i.i.i.i = load i64, ptr %2, align 8, !dbg !3533, !alias.scope !3534, !noundef !13
  %3 = icmp eq i64 %_3.i.i.i.i.i.i.i, 0, !dbg !3533, !unsafe_inst !1136
  %self.val.pre.i.i.i.i.i.i = load ptr, ptr %_1.0.val, align 8, !dbg !3535, !alias.scope !3523
  br i1 %3, label %_ZN9hashbrown3raw13RawTableInner13drop_elements17h4323b0d1a0ebde14E.exit.i.i.i.i.i.i, label %bb2.i.i.i.i.i.i.i, !dbg !3533, !unsafe_inst !1136

bb2.i.i.i.i.i.i.i:                                ; preds = %bb2.i.i.i.i.i.i
  call void @llvm.dbg.value(metadata ptr %self.val.pre.i.i.i.i.i.i, metadata !2899, metadata !DIExpression()), !dbg !3536
  call void @llvm.dbg.value(metadata i64 16, metadata !2907, metadata !DIExpression()), !dbg !3537
  call void @llvm.dbg.value(metadata ptr %self.val.pre.i.i.i.i.i.i, metadata !2929, metadata !DIExpression()), !dbg !3540
  call void @llvm.dbg.value(metadata ptr %self.val.pre.i.i.i.i.i.i, metadata !2952, metadata !DIExpression()), !dbg !3541
  call void @llvm.dbg.value(metadata ptr %self.val.pre.i.i.i.i.i.i, metadata !2919, metadata !DIExpression()), !dbg !3537
  call void @llvm.dbg.value(metadata ptr %self.val.pre.i.i.i.i.i.i, metadata !2930, metadata !DIExpression()), !dbg !3540
  call void @llvm.dbg.value(metadata i64 poison, metadata !2931, metadata !DIExpression(DW_OP_plus_uconst, 1, DW_OP_stack_value)), !dbg !3540
  call void @llvm.dbg.value(metadata !DIArgList(ptr poison, i64 poison), metadata !2946, metadata !DIExpression(DW_OP_LLVM_arg, 0, DW_OP_LLVM_arg, 1, DW_OP_plus_uconst, 1, DW_OP_constu, 1, DW_OP_mul, DW_OP_plus, DW_OP_stack_value)), !dbg !3543
  call void @llvm.dbg.value(metadata ptr %self.val.pre.i.i.i.i.i.i, metadata !2981, metadata !DIExpression()), !dbg !3544
  %4 = load <16 x i8>, ptr %self.val.pre.i.i.i.i.i.i, align 16, !dbg !3546, !noalias !3547
  call void @llvm.dbg.value(metadata <2 x i64> poison, metadata !2997, metadata !DIExpression()), !dbg !3552
  call void @llvm.dbg.value(metadata ptr undef, metadata !3013, metadata !DIExpression()), !dbg !3555
  call void @llvm.dbg.value(metadata <2 x i64> poison, metadata !3016, metadata !DIExpression()), !dbg !3556
  call void @llvm.dbg.value(metadata <16 x i8> zeroinitializer, metadata !3021, metadata !DIExpression()), !dbg !3558
  %5 = icmp slt <16 x i8> %4, zeroinitializer, !dbg !3559
  call void @llvm.dbg.value(metadata <16 x i8> poison, metadata !3042, metadata !DIExpression()), !dbg !3560
  %6 = bitcast <16 x i1> %5 to i16, !dbg !3561
  call void @llvm.dbg.value(metadata i16 %6, metadata !3050, metadata !DIExpression()), !dbg !3562
  %current_group.i.i.i.i.i.i.i.i = xor i16 %6, -1, !dbg !3564, !unsafe_inst !1136
  call void @llvm.dbg.value(metadata i16 %current_group.i.i.i.i.i.i.i.i, metadata !2947, metadata !DIExpression()), !dbg !3565
  %next_ctrl.i.i.i.i.i.i.i.i = getelementptr inbounds i8, ptr %self.val.pre.i.i.i.i.i.i, i64 16, !dbg !3566, !unsafe_inst !1136
  call void @llvm.dbg.value(metadata ptr %self.val.pre.i.i.i.i.i.i, metadata !2869, metadata !DIExpression(DW_OP_LLVM_fragment, 0, 64)), !dbg !3567
  call void @llvm.dbg.value(metadata ptr %next_ctrl.i.i.i.i.i.i.i.i, metadata !2869, metadata !DIExpression(DW_OP_LLVM_fragment, 64, 64)), !dbg !3567
  call void @llvm.dbg.value(metadata !DIArgList(ptr poison, i64 poison), metadata !2869, metadata !DIExpression(DW_OP_LLVM_arg, 0, DW_OP_LLVM_arg, 1, DW_OP_plus_uconst, 1, DW_OP_constu, 1, DW_OP_mul, DW_OP_plus, DW_OP_stack_value, DW_OP_LLVM_fragment, 128, 64)), !dbg !3567
  call void @llvm.dbg.value(metadata i16 %current_group.i.i.i.i.i.i.i.i, metadata !2869, metadata !DIExpression(DW_OP_LLVM_fragment, 192, 16)), !dbg !3567
  call void @llvm.dbg.value(metadata i64 %_3.i.i.i.i.i.i.i, metadata !2869, metadata !DIExpression(DW_OP_LLVM_fragment, 256, 64)), !dbg !3567
  call void @llvm.dbg.value(metadata ptr undef, metadata !3064, metadata !DIExpression()), !dbg !3568
  br label %bb2.i.i.i.i.i.i.i.i, !dbg !3570

bb2.i.i.i.i.i.i.i.i:                              ; preds = %.noexc, %bb2.i.i.i.i.i.i.i
  %iter.sroa.0.016.i.i.i.i.i.i.i = phi ptr [ %self.val.pre.i.i.i.i.i.i, %bb2.i.i.i.i.i.i.i ], [ %iter.sroa.0.1.i.i.i.i.i.i.i, %.noexc ]
  %iter.sroa.6.015.i.i.i.i.i.i.i = phi ptr [ %next_ctrl.i.i.i.i.i.i.i.i, %bb2.i.i.i.i.i.i.i ], [ %iter.sroa.6.1.i.i.i.i.i.i.i, %.noexc ]
  %iter.sroa.106.014.i.i.i.i.i.i.i = phi i64 [ %_3.i.i.i.i.i.i.i, %bb2.i.i.i.i.i.i.i ], [ %16, %.noexc ]
  %iter.sroa.85.013.i.i.i.i.i.i.i = phi i16 [ %current_group.i.i.i.i.i.i.i.i, %bb2.i.i.i.i.i.i.i ], [ %_18.i.i.i.i.i.i.i.i.i.i, %.noexc ]
  call void @llvm.dbg.value(metadata ptr %iter.sroa.0.016.i.i.i.i.i.i.i, metadata !2869, metadata !DIExpression(DW_OP_LLVM_fragment, 0, 64)), !dbg !3567
  call void @llvm.dbg.value(metadata ptr %iter.sroa.6.015.i.i.i.i.i.i.i, metadata !2869, metadata !DIExpression(DW_OP_LLVM_fragment, 64, 64)), !dbg !3567
  call void @llvm.dbg.value(metadata i64 %iter.sroa.106.014.i.i.i.i.i.i.i, metadata !2869, metadata !DIExpression(DW_OP_LLVM_fragment, 256, 64)), !dbg !3567
  call void @llvm.dbg.value(metadata i16 %iter.sroa.85.013.i.i.i.i.i.i.i, metadata !2869, metadata !DIExpression(DW_OP_LLVM_fragment, 192, 16)), !dbg !3567
  call void @llvm.dbg.value(metadata i64 16, metadata !3089, metadata !DIExpression()), !dbg !3571
  call void @llvm.dbg.value(metadata ptr undef, metadata !3102, metadata !DIExpression()), !dbg !3574
  call void @llvm.dbg.value(metadata ptr undef, metadata !3107, metadata !DIExpression()), !dbg !3575
  call void @llvm.dbg.value(metadata i16 %iter.sroa.85.013.i.i.i.i.i.i.i, metadata !3133, metadata !DIExpression()), !dbg !3577
  %7 = icmp eq i16 %iter.sroa.85.013.i.i.i.i.i.i.i, 0, !dbg !3579
  br i1 %7, label %bb5.i.i.i.i.i.i.i.i.i, label %bb6.i.i.i.i.i.i.i, !dbg !3579

bb1.bb3_crit_edge.i.i.i.i.i.i.i.i.i:              ; preds = %bb5.i.i.i.i.i.i.i.i.i
  %self6.i.i.i.i.i.i.i.i.i = xor i16 %10, -1, !dbg !3580, !unsafe_inst !1136
  call void @llvm.dbg.value(metadata i16 %self6.i.i.i.i.i.i.i.i.i, metadata !3133, metadata !DIExpression()), !dbg !3577
  call void @llvm.dbg.value(metadata ptr %_17.i.i.i.i.i.i.i.i.i, metadata !2869, metadata !DIExpression(DW_OP_LLVM_fragment, 64, 64)), !dbg !3567
  call void @llvm.dbg.value(metadata ptr %11, metadata !2869, metadata !DIExpression(DW_OP_LLVM_fragment, 0, 64)), !dbg !3567
  br label %bb6.i.i.i.i.i.i.i, !dbg !3579

bb5.i.i.i.i.i.i.i.i.i:                            ; preds = %bb2.i.i.i.i.i.i.i.i, %bb5.i.i.i.i.i.i.i.i.i
  %_1721.i.i.i.i.i.i.i.i.i = phi ptr [ %_17.i.i.i.i.i.i.i.i.i, %bb5.i.i.i.i.i.i.i.i.i ], [ %iter.sroa.6.015.i.i.i.i.i.i.i, %bb2.i.i.i.i.i.i.i.i ], !dbg !3583
  %self.val1819.i.i.i.i.i.i.i.i.i = phi ptr [ %11, %bb5.i.i.i.i.i.i.i.i.i ], [ %iter.sroa.0.016.i.i.i.i.i.i.i, %bb2.i.i.i.i.i.i.i.i ]
  call void @llvm.dbg.value(metadata ptr %_1721.i.i.i.i.i.i.i.i.i, metadata !3165, metadata !DIExpression()), !dbg !3584
  call void @llvm.dbg.value(metadata ptr %_1721.i.i.i.i.i.i.i.i.i, metadata !2981, metadata !DIExpression()), !dbg !3586
  %8 = load <16 x i8>, ptr %_1721.i.i.i.i.i.i.i.i.i, align 16, !dbg !3588, !noalias !3589
  call void @llvm.dbg.value(metadata <2 x i64> poison, metadata !3188, metadata !DIExpression()), !dbg !3596
  call void @llvm.dbg.value(metadata ptr undef, metadata !3162, metadata !DIExpression()), !dbg !3598
  call void @llvm.dbg.value(metadata <2 x i64> poison, metadata !3016, metadata !DIExpression()), !dbg !3599
  call void @llvm.dbg.value(metadata <16 x i8> zeroinitializer, metadata !3021, metadata !DIExpression()), !dbg !3601
  %9 = icmp slt <16 x i8> %8, zeroinitializer, !dbg !3602
  call void @llvm.dbg.value(metadata <16 x i8> poison, metadata !3042, metadata !DIExpression()), !dbg !3603
  %10 = bitcast <16 x i1> %9 to i16, !dbg !3604
  call void @llvm.dbg.value(metadata i16 %10, metadata !3157, metadata !DIExpression()), !dbg !3605
  call void @llvm.dbg.value(metadata ptr undef, metadata !3202, metadata !DIExpression()), !dbg !3606
  call void @llvm.dbg.value(metadata i64 16, metadata !3208, metadata !DIExpression()), !dbg !3606
  call void @llvm.dbg.value(metadata i64 16, metadata !3213, metadata !DIExpression()), !dbg !3608
  call void @llvm.dbg.value(metadata ptr %self.val1819.i.i.i.i.i.i.i.i.i, metadata !3217, metadata !DIExpression()), !dbg !3608
  call void @llvm.dbg.value(metadata ptr %self.val1819.i.i.i.i.i.i.i.i.i, metadata !3220, metadata !DIExpression()), !dbg !3610
  call void @llvm.dbg.value(metadata i64 16, metadata !3227, metadata !DIExpression()), !dbg !3612
  call void @llvm.dbg.value(metadata i64 -16, metadata !3224, metadata !DIExpression()), !dbg !3610
  %11 = getelementptr inbounds { i32, [1 x i32], %Slot }, ptr %self.val1819.i.i.i.i.i.i.i.i.i, i64 -16, !dbg !3614, !unsafe_inst !1136
  call void @llvm.dbg.value(metadata ptr %_1721.i.i.i.i.i.i.i.i.i, metadata !3093, metadata !DIExpression()), !dbg !3571
  %_17.i.i.i.i.i.i.i.i.i = getelementptr inbounds i8, ptr %_1721.i.i.i.i.i.i.i.i.i, i64 16, !dbg !3615, !unsafe_inst !1136
  call void @llvm.dbg.value(metadata ptr undef, metadata !3107, metadata !DIExpression()), !dbg !3575
  call void @llvm.dbg.value(metadata i16 %10, metadata !3133, metadata !DIExpression(DW_OP_constu, 18446744073709551615, DW_OP_xor, DW_OP_stack_value)), !dbg !3577
  %12 = icmp eq i16 %10, -1, !dbg !3579
  br i1 %12, label %bb5.i.i.i.i.i.i.i.i.i, label %bb1.bb3_crit_edge.i.i.i.i.i.i.i.i.i, !dbg !3579

bb6.i.i.i.i.i.i.i:                                ; preds = %bb1.bb3_crit_edge.i.i.i.i.i.i.i.i.i, %bb2.i.i.i.i.i.i.i.i
  %iter.sroa.6.1.i.i.i.i.i.i.i = phi ptr [ %_17.i.i.i.i.i.i.i.i.i, %bb1.bb3_crit_edge.i.i.i.i.i.i.i.i.i ], [ %iter.sroa.6.015.i.i.i.i.i.i.i, %bb2.i.i.i.i.i.i.i.i ], !dbg !3616
  %iter.sroa.0.1.i.i.i.i.i.i.i = phi ptr [ %11, %bb1.bb3_crit_edge.i.i.i.i.i.i.i.i.i ], [ %iter.sroa.0.016.i.i.i.i.i.i.i, %bb2.i.i.i.i.i.i.i.i ], !dbg !3616
  %self3.i.lcssa.i.i.i.i.i.i.i.i.i = phi i16 [ %self6.i.i.i.i.i.i.i.i.i, %bb1.bb3_crit_edge.i.i.i.i.i.i.i.i.i ], [ %iter.sroa.85.013.i.i.i.i.i.i.i, %bb2.i.i.i.i.i.i.i.i ], !dbg !3617
  call void @llvm.dbg.value(metadata i16 %self3.i.lcssa.i.i.i.i.i.i.i.i.i, metadata !3140, metadata !DIExpression()), !dbg !3618
  call void @llvm.dbg.value(metadata i16 %self3.i.lcssa.i.i.i.i.i.i.i.i.i, metadata !3238, metadata !DIExpression()), !dbg !3619
  call void @llvm.dbg.value(metadata i16 %self3.i.lcssa.i.i.i.i.i.i.i.i.i, metadata !3249, metadata !DIExpression()), !dbg !3621
  call void @llvm.dbg.value(metadata i16 poison, metadata !3114, metadata !DIExpression(DW_OP_LLVM_convert, 16, DW_ATE_unsigned, DW_OP_LLVM_convert, 64, DW_ATE_unsigned, DW_OP_stack_value)), !dbg !3623
  call void @llvm.dbg.value(metadata i16 %self3.i.lcssa.i.i.i.i.i.i.i.i.i, metadata !3260, metadata !DIExpression()), !dbg !3624
  call void @llvm.dbg.value(metadata i16 poison, metadata !3103, metadata !DIExpression(DW_OP_LLVM_convert, 16, DW_ATE_unsigned, DW_OP_LLVM_convert, 64, DW_ATE_unsigned, DW_OP_stack_value)), !dbg !3626
  call void @llvm.dbg.value(metadata ptr undef, metadata !3202, metadata !DIExpression()), !dbg !3627
  call void @llvm.dbg.value(metadata i16 poison, metadata !3208, metadata !DIExpression(DW_OP_LLVM_convert, 16, DW_ATE_unsigned, DW_OP_LLVM_convert, 64, DW_ATE_unsigned, DW_OP_stack_value)), !dbg !3627
  call void @llvm.dbg.value(metadata i16 poison, metadata !3213, metadata !DIExpression(DW_OP_LLVM_convert, 16, DW_ATE_unsigned, DW_OP_LLVM_convert, 64, DW_ATE_unsigned, DW_OP_stack_value)), !dbg !3629
  call void @llvm.dbg.value(metadata ptr %iter.sroa.0.1.i.i.i.i.i.i.i, metadata !3217, metadata !DIExpression()), !dbg !3629
  call void @llvm.dbg.value(metadata ptr %iter.sroa.0.1.i.i.i.i.i.i.i, metadata !3220, metadata !DIExpression()), !dbg !3631
  call void @llvm.dbg.value(metadata i16 poison, metadata !3227, metadata !DIExpression(DW_OP_LLVM_convert, 16, DW_ATE_unsigned, DW_OP_LLVM_convert, 64, DW_ATE_unsigned, DW_OP_stack_value)), !dbg !3633
  call void @llvm.dbg.value(metadata !DIArgList(i64 poison, i16 poison), metadata !3224, metadata !DIExpression(DW_OP_LLVM_arg, 0, DW_OP_LLVM_arg, 1, DW_OP_LLVM_convert, 16, DW_ATE_unsigned, DW_OP_LLVM_convert, 64, DW_ATE_unsigned, DW_OP_minus, DW_OP_stack_value)), !dbg !3631
  call void @llvm.dbg.value(metadata !DIArgList(ptr poison, i64 poison, i16 poison), metadata !3084, metadata !DIExpression(DW_OP_LLVM_arg, 0, DW_OP_LLVM_arg, 1, DW_OP_LLVM_arg, 2, DW_OP_LLVM_convert, 16, DW_ATE_unsigned, DW_OP_LLVM_convert, 64, DW_ATE_unsigned, DW_OP_minus, DW_OP_constu, 192, DW_OP_mul, DW_OP_plus, DW_OP_stack_value)), !dbg !3635
  call void @llvm.dbg.value(metadata ptr %iter.sroa.0.1.i.i.i.i.i.i.i, metadata !2869, metadata !DIExpression(DW_OP_LLVM_fragment, 0, 64)), !dbg !3567
  call void @llvm.dbg.value(metadata ptr %iter.sroa.6.1.i.i.i.i.i.i.i, metadata !2869, metadata !DIExpression(DW_OP_LLVM_fragment, 64, 64)), !dbg !3567
  call void @llvm.dbg.value(metadata i64 %iter.sroa.106.014.i.i.i.i.i.i.i, metadata !2869, metadata !DIExpression(DW_OP_constu, 1, DW_OP_minus, DW_OP_stack_value, DW_OP_LLVM_fragment, 256, 64)), !dbg !3567
  call void @llvm.dbg.value(metadata !DIArgList(i16 %self3.i.lcssa.i.i.i.i.i.i.i.i.i, i16 %self3.i.lcssa.i.i.i.i.i.i.i.i.i), metadata !2869, metadata !DIExpression(DW_OP_LLVM_arg, 0, DW_OP_constu, 1, DW_OP_minus, DW_OP_LLVM_arg, 1, DW_OP_and, DW_OP_stack_value, DW_OP_LLVM_fragment, 192, 16)), !dbg !3567
  %13 = tail call i16 @llvm.cttz.i16(i16 %self3.i.lcssa.i.i.i.i.i.i.i.i.i, i1 true), !dbg !3636, !range !3278
  call void @llvm.dbg.value(metadata i16 %13, metadata !3114, metadata !DIExpression(DW_OP_LLVM_convert, 16, DW_ATE_unsigned, DW_OP_LLVM_convert, 64, DW_ATE_unsigned, DW_OP_stack_value)), !dbg !3623
  call void @llvm.dbg.value(metadata i16 %13, metadata !3103, metadata !DIExpression(DW_OP_LLVM_convert, 16, DW_ATE_unsigned, DW_OP_LLVM_convert, 64, DW_ATE_unsigned, DW_OP_stack_value)), !dbg !3626
  call void @llvm.dbg.value(metadata i16 %13, metadata !3208, metadata !DIExpression(DW_OP_LLVM_convert, 16, DW_ATE_unsigned, DW_OP_LLVM_convert, 64, DW_ATE_unsigned, DW_OP_stack_value)), !dbg !3627
  call void @llvm.dbg.value(metadata i16 %13, metadata !3213, metadata !DIExpression(DW_OP_LLVM_convert, 16, DW_ATE_unsigned, DW_OP_LLVM_convert, 64, DW_ATE_unsigned, DW_OP_stack_value)), !dbg !3629
  call void @llvm.dbg.value(metadata i16 %13, metadata !3227, metadata !DIExpression(DW_OP_LLVM_convert, 16, DW_ATE_unsigned, DW_OP_LLVM_convert, 64, DW_ATE_unsigned, DW_OP_stack_value)), !dbg !3633
  call void @llvm.dbg.value(metadata !DIArgList(i64 0, i16 %13), metadata !3224, metadata !DIExpression(DW_OP_LLVM_arg, 0, DW_OP_LLVM_arg, 1, DW_OP_LLVM_convert, 16, DW_ATE_unsigned, DW_OP_LLVM_convert, 64, DW_ATE_unsigned, DW_OP_minus, DW_OP_stack_value)), !dbg !3631
  call void @llvm.dbg.value(metadata !DIArgList(ptr %iter.sroa.0.1.i.i.i.i.i.i.i, i64 0, i16 %13), metadata !3084, metadata !DIExpression(DW_OP_LLVM_arg, 0, DW_OP_LLVM_arg, 1, DW_OP_LLVM_arg, 2, DW_OP_LLVM_convert, 16, DW_ATE_unsigned, DW_OP_LLVM_convert, 64, DW_ATE_unsigned, DW_OP_minus, DW_OP_constu, 192, DW_OP_mul, DW_OP_plus, DW_OP_stack_value)), !dbg !3635
  %_9.i.i.i.i.i.i.i.i.i.i = zext nneg i16 %13 to i64, !dbg !3637
  call void @llvm.dbg.value(metadata i64 %_9.i.i.i.i.i.i.i.i.i.i, metadata !3114, metadata !DIExpression()), !dbg !3623
  call void @llvm.dbg.value(metadata i64 %_9.i.i.i.i.i.i.i.i.i.i, metadata !3103, metadata !DIExpression()), !dbg !3626
  call void @llvm.dbg.value(metadata i64 %_9.i.i.i.i.i.i.i.i.i.i, metadata !3208, metadata !DIExpression()), !dbg !3627
  call void @llvm.dbg.value(metadata i64 %_9.i.i.i.i.i.i.i.i.i.i, metadata !3213, metadata !DIExpression()), !dbg !3629
  call void @llvm.dbg.value(metadata i64 %_9.i.i.i.i.i.i.i.i.i.i, metadata !3227, metadata !DIExpression()), !dbg !3633
  call void @llvm.dbg.value(metadata !DIArgList(i64 0, i64 %_9.i.i.i.i.i.i.i.i.i.i), metadata !3224, metadata !DIExpression(DW_OP_LLVM_arg, 0, DW_OP_LLVM_arg, 1, DW_OP_minus, DW_OP_stack_value)), !dbg !3631
  call void @llvm.dbg.value(metadata !DIArgList(ptr %iter.sroa.0.1.i.i.i.i.i.i.i, i64 0, i64 %_9.i.i.i.i.i.i.i.i.i.i), metadata !3084, metadata !DIExpression(DW_OP_LLVM_arg, 0, DW_OP_LLVM_arg, 1, DW_OP_LLVM_arg, 2, DW_OP_minus, DW_OP_constu, 192, DW_OP_mul, DW_OP_plus, DW_OP_stack_value)), !dbg !3635
  %count.i.i.i.i.i.i.i.i.i.i = sub nsw i64 0, %_9.i.i.i.i.i.i.i.i.i.i, !dbg !3638, !unsafe_inst !1136
  call void @llvm.dbg.value(metadata i64 %count.i.i.i.i.i.i.i.i.i.i, metadata !3224, metadata !DIExpression()), !dbg !3631
  call void @llvm.dbg.value(metadata !DIArgList(ptr %iter.sroa.0.1.i.i.i.i.i.i.i, i64 %count.i.i.i.i.i.i.i.i.i.i), metadata !3084, metadata !DIExpression(DW_OP_LLVM_arg, 0, DW_OP_LLVM_arg, 1, DW_OP_constu, 192, DW_OP_mul, DW_OP_plus, DW_OP_stack_value)), !dbg !3635
  %14 = getelementptr inbounds { i32, [1 x i32], %Slot }, ptr %iter.sroa.0.1.i.i.i.i.i.i.i, i64 %count.i.i.i.i.i.i.i.i.i.i, !dbg !3639, !unsafe_inst !1136
  call void @llvm.dbg.value(metadata ptr %14, metadata !3084, metadata !DIExpression()), !dbg !3635
  call void @llvm.dbg.value(metadata i64 %iter.sroa.106.014.i.i.i.i.i.i.i, metadata !2869, metadata !DIExpression(DW_OP_constu, 1, DW_OP_minus, DW_OP_stack_value, DW_OP_LLVM_fragment, 256, 64)), !dbg !3567
  call void @llvm.dbg.value(metadata !DIArgList(i16 %self3.i.lcssa.i.i.i.i.i.i.i.i.i, i16 %self3.i.lcssa.i.i.i.i.i.i.i.i.i), metadata !2869, metadata !DIExpression(DW_OP_LLVM_arg, 0, DW_OP_constu, 1, DW_OP_minus, DW_OP_LLVM_arg, 1, DW_OP_and, DW_OP_stack_value, DW_OP_LLVM_fragment, 192, 16)), !dbg !3567
  call void @llvm.dbg.value(metadata !DIArgList(i16 %self3.i.lcssa.i.i.i.i.i.i.i.i.i, i16 %self3.i.lcssa.i.i.i.i.i.i.i.i.i), metadata !2869, metadata !DIExpression(DW_OP_LLVM_arg, 0, DW_OP_constu, 1, DW_OP_minus, DW_OP_LLVM_arg, 1, DW_OP_and, DW_OP_stack_value, DW_OP_LLVM_fragment, 192, 16)), !dbg !3567
  call void @llvm.dbg.value(metadata ptr %14, metadata !2888, metadata !DIExpression()), !dbg !3640
  call void @llvm.dbg.value(metadata ptr undef, metadata !2276, metadata !DIExpression()), !dbg !3641
  call void @llvm.dbg.value(metadata ptr %14, metadata !2285, metadata !DIExpression(DW_OP_constu, 192, DW_OP_minus, DW_OP_stack_value)), !dbg !3643
  call void @llvm.dbg.value(metadata ptr %14, metadata !2293, metadata !DIExpression(DW_OP_constu, 192, DW_OP_minus, DW_OP_stack_value)), !dbg !3645
  call void @llvm.dbg.value(metadata ptr %14, metadata !2298, metadata !DIExpression(DW_OP_constu, 192, DW_OP_minus, DW_OP_plus_uconst, 8, DW_OP_stack_value)), !dbg !3647
  %15 = getelementptr { i32, [1 x i32], %Slot }, ptr %14, i64 -1, i32 2, i32 1, !dbg !3649
; invoke core::ptr::drop_in_place<alloc::collections::btree::map::BTreeMap<signal_hook_registry::ActionId,alloc::sync::Arc<dyn core::ops::function::Fn<(&libc::unix::linux_like::linux::gnu::b64::x86_64::siginfo_t,)>+Output = ()+core::marker::Send+core::marker::Sync>>>
  invoke fastcc void @"_ZN4core3ptr318drop_in_place$LT$alloc..collections..btree..map..BTreeMap$LT$signal_hook_registry..ActionId$C$alloc..sync..Arc$LT$dyn$u20$core..ops..function..Fn$LT$$LP$$RF$libc..unix..linux_like..linux..gnu..b64..x86_64..siginfo_t$C$$RP$$GT$$u2b$Output$u20$$u3d$$u20$$LP$$RP$$u2b$core..marker..Send$u2b$core..marker..Sync$GT$$GT$$GT$17h97e919acb003ab65E"(ptr noalias noundef nonnull align 8 dereferenceable(24) %15)
          to label %.noexc unwind label %bb1, !dbg !3649

.noexc:                                           ; preds = %bb6.i.i.i.i.i.i.i
  %_19.i.i.i.i.i.i.i.i.i.i = add i16 %self3.i.lcssa.i.i.i.i.i.i.i.i.i, -1, !dbg !3650
  call void @llvm.dbg.value(metadata !DIArgList(i16 %_19.i.i.i.i.i.i.i.i.i.i, i16 %self3.i.lcssa.i.i.i.i.i.i.i.i.i), metadata !2869, metadata !DIExpression(DW_OP_LLVM_arg, 0, DW_OP_LLVM_arg, 1, DW_OP_and, DW_OP_stack_value, DW_OP_LLVM_fragment, 192, 16)), !dbg !3567
  %_18.i.i.i.i.i.i.i.i.i.i = and i16 %_19.i.i.i.i.i.i.i.i.i.i, %self3.i.lcssa.i.i.i.i.i.i.i.i.i, !dbg !3651
  call void @llvm.dbg.value(metadata i16 %_18.i.i.i.i.i.i.i.i.i.i, metadata !2869, metadata !DIExpression(DW_OP_LLVM_fragment, 192, 16)), !dbg !3567
  %16 = add i64 %iter.sroa.106.014.i.i.i.i.i.i.i, -1, !dbg !3652
  call void @llvm.dbg.value(metadata i64 %16, metadata !2869, metadata !DIExpression(DW_OP_LLVM_fragment, 256, 64)), !dbg !3567
  call void @llvm.dbg.value(metadata ptr %iter.sroa.0.1.i.i.i.i.i.i.i, metadata !2869, metadata !DIExpression(DW_OP_LLVM_fragment, 0, 64)), !dbg !3567
  call void @llvm.dbg.value(metadata ptr %iter.sroa.6.1.i.i.i.i.i.i.i, metadata !2869, metadata !DIExpression(DW_OP_LLVM_fragment, 64, 64)), !dbg !3567
  call void @llvm.dbg.value(metadata i64 %16, metadata !2869, metadata !DIExpression(DW_OP_LLVM_fragment, 256, 64)), !dbg !3567
  call void @llvm.dbg.value(metadata i16 %_18.i.i.i.i.i.i.i.i.i.i, metadata !2869, metadata !DIExpression(DW_OP_LLVM_fragment, 192, 16)), !dbg !3567
  call void @llvm.dbg.value(metadata ptr undef, metadata !3064, metadata !DIExpression()), !dbg !3568
  %17 = icmp eq i64 %16, 0, !dbg !3570
  br i1 %17, label %_ZN9hashbrown3raw13RawTableInner13drop_elements17h4323b0d1a0ebde14E.exit.i.i.i.i.i.i, label %bb2.i.i.i.i.i.i.i.i, !dbg !3570

_ZN9hashbrown3raw13RawTableInner13drop_elements17h4323b0d1a0ebde14E.exit.i.i.i.i.i.i: ; preds = %.noexc, %bb2.i.i.i.i.i.i
  call void @llvm.dbg.value(metadata ptr undef, metadata !3295, metadata !DIExpression()), !dbg !3653
  call void @llvm.dbg.value(metadata ptr undef, metadata !3317, metadata !DIExpression()), !dbg !3655
  call void @llvm.dbg.value(metadata i64 192, metadata !3305, metadata !DIExpression(DW_OP_LLVM_fragment, 0, 64)), !dbg !3653
  call void @llvm.dbg.value(metadata i64 16, metadata !3305, metadata !DIExpression(DW_OP_LLVM_fragment, 64, 64)), !dbg !3653
  %_4.i.i.i.i.i.i.i = add i64 %_5.i.i.i.i.i.i, 1, !dbg !3657, !unsafe_inst !1136
  call void @llvm.dbg.value(metadata i64 192, metadata !3327, metadata !DIExpression(DW_OP_LLVM_fragment, 0, 64)), !dbg !3658
  call void @llvm.dbg.value(metadata i64 16, metadata !3327, metadata !DIExpression(DW_OP_LLVM_fragment, 64, 64)), !dbg !3658
  call void @llvm.dbg.value(metadata i64 %_4.i.i.i.i.i.i.i, metadata !3346, metadata !DIExpression()), !dbg !3658
  call void @llvm.dbg.value(metadata i64 %_4.i.i.i.i.i.i.i, metadata !3368, metadata !DIExpression()), !dbg !3660
  call void @llvm.dbg.value(metadata i64 %_4.i.i.i.i.i.i.i, metadata !3380, metadata !DIExpression()), !dbg !3662
  call void @llvm.dbg.value(metadata i64 192, metadata !3347, metadata !DIExpression()), !dbg !3664
  call void @llvm.dbg.value(metadata i64 192, metadata !3374, metadata !DIExpression()), !dbg !3660
  call void @llvm.dbg.value(metadata i64 192, metadata !3390, metadata !DIExpression()), !dbg !3662
  call void @llvm.dbg.value(metadata i64 16, metadata !3349, metadata !DIExpression()), !dbg !3664
  %18 = tail call { i64, i1 } @llvm.umul.with.overflow.i64(i64 %_4.i.i.i.i.i.i.i, i64 192), !dbg !3665
  %_26.1.i.i.i.i.i.i.i.i = extractvalue { i64, i1 } %18, 1, !dbg !3665
  call void @llvm.dbg.value(metadata i1 %_26.1.i.i.i.i.i.i.i.i, metadata !3377, metadata !DIExpression(DW_OP_LLVM_convert, 1, DW_ATE_unsigned, DW_OP_LLVM_convert, 8, DW_ATE_unsigned, DW_OP_stack_value)), !dbg !3666
  call void @llvm.dbg.value(metadata i64 poison, metadata !3375, metadata !DIExpression()), !dbg !3666
  %19 = xor i1 %_26.1.i.i.i.i.i.i.i.i, true, !dbg !3667
  tail call void @llvm.assume(i1 %19), !dbg !3667
  %_26.0.i.i.i.i.i.i.i.i = extractvalue { i64, i1 } %18, 0, !dbg !3665
  call void @llvm.dbg.value(metadata i64 %_26.0.i.i.i.i.i.i.i.i, metadata !3375, metadata !DIExpression()), !dbg !3666
  call void @llvm.dbg.value(metadata i64 %_26.0.i.i.i.i.i.i.i.i, metadata !3350, metadata !DIExpression()), !dbg !3668
  call void @llvm.dbg.value(metadata i64 %_26.0.i.i.i.i.i.i.i.i, metadata !3403, metadata !DIExpression()), !dbg !3669
  call void @llvm.dbg.value(metadata i64 %_26.0.i.i.i.i.i.i.i.i, metadata !3419, metadata !DIExpression()), !dbg !3671
  %rhs16.i.i.i.i.i.i.i.i = add i64 %_5.i.i.i.i.i.i, 17, !dbg !3673
  call void @llvm.dbg.value(metadata i64 %rhs16.i.i.i.i.i.i.i.i, metadata !3413, metadata !DIExpression()), !dbg !3669
  call void @llvm.dbg.value(metadata i64 %rhs16.i.i.i.i.i.i.i.i, metadata !3429, metadata !DIExpression()), !dbg !3671
  %20 = tail call { i64, i1 } @llvm.uadd.with.overflow.i64(i64 %_26.0.i.i.i.i.i.i.i.i, i64 %rhs16.i.i.i.i.i.i.i.i), !dbg !3674
  %_42.1.i.i.i.i.i.i.i.i = extractvalue { i64, i1 } %20, 1, !dbg !3674
  call void @llvm.dbg.value(metadata i1 %_42.1.i.i.i.i.i.i.i.i, metadata !3416, metadata !DIExpression(DW_OP_LLVM_convert, 1, DW_ATE_unsigned, DW_OP_LLVM_convert, 8, DW_ATE_unsigned, DW_OP_stack_value)), !dbg !3675
  call void @llvm.dbg.value(metadata i64 poison, metadata !3414, metadata !DIExpression()), !dbg !3675
  %21 = xor i1 %_42.1.i.i.i.i.i.i.i.i, true, !dbg !3676
  tail call void @llvm.assume(i1 %21), !dbg !3676
  %_42.0.i.i.i.i.i.i.i.i = extractvalue { i64, i1 } %20, 0, !dbg !3674
  call void @llvm.dbg.value(metadata i64 %_42.0.i.i.i.i.i.i.i.i, metadata !3414, metadata !DIExpression()), !dbg !3675
  call void @llvm.dbg.value(metadata i64 %_42.0.i.i.i.i.i.i.i.i, metadata !3360, metadata !DIExpression()), !dbg !3677
  %_19.i.i.i.i.i.i.i.i = icmp ult i64 %_42.0.i.i.i.i.i.i.i.i, 9223372036854775793, !dbg !3678
  tail call void @llvm.assume(i1 %_19.i.i.i.i.i.i.i.i), !dbg !3678
  call void @llvm.dbg.value(metadata i64 16, metadata !3306, metadata !DIExpression(DW_OP_LLVM_fragment, 0, 64)), !dbg !3679
  call void @llvm.dbg.value(metadata i64 %_42.0.i.i.i.i.i.i.i.i, metadata !3306, metadata !DIExpression(DW_OP_LLVM_fragment, 64, 64)), !dbg !3679
  call void @llvm.dbg.value(metadata i64 %_26.0.i.i.i.i.i.i.i.i, metadata !3308, metadata !DIExpression()), !dbg !3679
  call void @llvm.dbg.value(metadata i64 %_26.0.i.i.i.i.i.i.i.i, metadata !3443, metadata !DIExpression()), !dbg !3680
  %22 = icmp ne ptr %self.val.pre.i.i.i.i.i.i, null
  tail call void @llvm.assume(i1 %22)
  call void @llvm.dbg.value(metadata ptr %self.val.pre.i.i.i.i.i.i, metadata !3447, metadata !DIExpression()), !dbg !3680
  call void @llvm.dbg.value(metadata ptr %self.val.pre.i.i.i.i.i.i, metadata !3450, metadata !DIExpression()), !dbg !3682
  call void @llvm.dbg.value(metadata i64 %_26.0.i.i.i.i.i.i.i.i, metadata !3459, metadata !DIExpression()), !dbg !3684
  call void @llvm.dbg.value(metadata !DIArgList(i64 0, i64 %_26.0.i.i.i.i.i.i.i.i), metadata !3456, metadata !DIExpression(DW_OP_LLVM_arg, 0, DW_OP_LLVM_arg, 1, DW_OP_minus, DW_OP_stack_value)), !dbg !3682
  call void @llvm.dbg.value(metadata !DIArgList(ptr %self.val.pre.i.i.i.i.i.i, i64 0, i64 %_26.0.i.i.i.i.i.i.i.i), metadata !2851, metadata !DIExpression(DW_OP_LLVM_arg, 0, DW_OP_LLVM_arg, 1, DW_OP_LLVM_arg, 2, DW_OP_minus, DW_OP_constu, 1, DW_OP_mul, DW_OP_plus, DW_OP_stack_value)), !dbg !3686
  call void @llvm.dbg.value(metadata i64 16, metadata !2853, metadata !DIExpression(DW_OP_LLVM_fragment, 0, 64)), !dbg !3686
  call void @llvm.dbg.value(metadata i64 %_42.0.i.i.i.i.i.i.i.i, metadata !2853, metadata !DIExpression(DW_OP_LLVM_fragment, 64, 64)), !dbg !3686
  call void @llvm.dbg.value(metadata i64 16, metadata !1811, metadata !DIExpression(DW_OP_LLVM_fragment, 0, 64)), !dbg !3687
  call void @llvm.dbg.value(metadata i64 %_42.0.i.i.i.i.i.i.i.i, metadata !1811, metadata !DIExpression(DW_OP_LLVM_fragment, 64, 64)), !dbg !3687
  call void @llvm.dbg.value(metadata ptr undef, metadata !1816, metadata !DIExpression()), !dbg !3687
  call void @llvm.dbg.value(metadata !DIArgList(ptr %self.val.pre.i.i.i.i.i.i, i64 0, i64 %_26.0.i.i.i.i.i.i.i.i), metadata !1817, metadata !DIExpression(DW_OP_LLVM_arg, 0, DW_OP_LLVM_arg, 1, DW_OP_LLVM_arg, 2, DW_OP_minus, DW_OP_constu, 1, DW_OP_mul, DW_OP_plus, DW_OP_stack_value)), !dbg !3687
  %23 = icmp eq i64 %_42.0.i.i.i.i.i.i.i.i, 0, !dbg !3689
  br i1 %23, label %bb3, label %bb1.i.i.i.i.i.i.i, !dbg !3689

bb1.i.i.i.i.i.i.i:                                ; preds = %_ZN9hashbrown3raw13RawTableInner13drop_elements17h4323b0d1a0ebde14E.exit.i.i.i.i.i.i
  %count.i.i.i.i.i.i.i = sub nsw i64 0, %_26.0.i.i.i.i.i.i.i.i, !dbg !3690, !unsafe_inst !1136
  call void @llvm.dbg.value(metadata i64 %count.i.i.i.i.i.i.i, metadata !3456, metadata !DIExpression()), !dbg !3682
  call void @llvm.dbg.value(metadata !DIArgList(ptr %self.val.pre.i.i.i.i.i.i, i64 %count.i.i.i.i.i.i.i), metadata !2851, metadata !DIExpression(DW_OP_LLVM_arg, 0, DW_OP_LLVM_arg, 1, DW_OP_constu, 1, DW_OP_mul, DW_OP_plus, DW_OP_stack_value)), !dbg !3686
  call void @llvm.dbg.value(metadata !DIArgList(ptr %self.val.pre.i.i.i.i.i.i, i64 %count.i.i.i.i.i.i.i), metadata !1817, metadata !DIExpression(DW_OP_LLVM_arg, 0, DW_OP_LLVM_arg, 1, DW_OP_constu, 1, DW_OP_mul, DW_OP_plus, DW_OP_stack_value)), !dbg !3687
  %ptr.i.i.i.i.i.i.i = getelementptr inbounds i8, ptr %self.val.pre.i.i.i.i.i.i, i64 %count.i.i.i.i.i.i.i, !dbg !3691, !unsafe_inst !1136
  call void @llvm.dbg.value(metadata ptr %ptr.i.i.i.i.i.i.i, metadata !2851, metadata !DIExpression()), !dbg !3686
  call void @llvm.dbg.value(metadata ptr %ptr.i.i.i.i.i.i.i, metadata !1817, metadata !DIExpression()), !dbg !3687
  call void @llvm.dbg.value(metadata ptr %ptr.i.i.i.i.i.i.i, metadata !1820, metadata !DIExpression()), !dbg !3692
  call void @llvm.dbg.value(metadata i64 16, metadata !1826, metadata !DIExpression(DW_OP_LLVM_fragment, 0, 64)), !dbg !3692
  call void @llvm.dbg.value(metadata i64 %_42.0.i.i.i.i.i.i.i.i, metadata !1826, metadata !DIExpression(DW_OP_LLVM_fragment, 64, 64)), !dbg !3692
  tail call void @__rust_dealloc(ptr noundef nonnull %ptr.i.i.i.i.i.i.i, i64 noundef %_42.0.i.i.i.i.i.i.i.i, i64 noundef 16) #16, !dbg !3694, !noalias !3523
  br label %bb3, !dbg !3695

bb3:                                              ; preds = %bb1.i.i.i.i.i.i.i, %_ZN9hashbrown3raw13RawTableInner13drop_elements17h4323b0d1a0ebde14E.exit.i.i.i.i.i.i, %start
  %24 = icmp ne ptr %_1.0.val, null
  tail call void @llvm.assume(i1 %24)
  call void @llvm.dbg.value(metadata ptr undef, metadata !3696, metadata !DIExpression()), !dbg !3715
  call void @llvm.dbg.value(metadata i64 64, metadata !3712, metadata !DIExpression(DW_OP_LLVM_fragment, 64, 64)), !dbg !3717
  call void @llvm.dbg.value(metadata i64 16, metadata !3712, metadata !DIExpression(DW_OP_LLVM_fragment, 0, 64)), !dbg !3717
  call void @llvm.dbg.value(metadata ptr %_1.0.val, metadata !3702, metadata !DIExpression()), !dbg !3718
  call void @llvm.dbg.value(metadata i64 16, metadata !1811, metadata !DIExpression(DW_OP_LLVM_fragment, 0, 64)), !dbg !3719
  call void @llvm.dbg.value(metadata i64 64, metadata !1811, metadata !DIExpression(DW_OP_LLVM_fragment, 64, 64)), !dbg !3719
  call void @llvm.dbg.value(metadata ptr undef, metadata !1816, metadata !DIExpression()), !dbg !3719
  call void @llvm.dbg.value(metadata ptr %_1.0.val, metadata !1817, metadata !DIExpression()), !dbg !3719
  call void @llvm.dbg.value(metadata ptr %_1.0.val, metadata !1820, metadata !DIExpression()), !dbg !3721
  call void @llvm.dbg.value(metadata i64 16, metadata !1826, metadata !DIExpression(DW_OP_LLVM_fragment, 0, 64)), !dbg !3721
  call void @llvm.dbg.value(metadata i64 64, metadata !1826, metadata !DIExpression(DW_OP_LLVM_fragment, 64, 64)), !dbg !3721
  tail call void @__rust_dealloc(ptr noundef nonnull %_1.0.val, i64 noundef 64, i64 noundef 16) #16, !dbg !3723
  ret void, !dbg !3485

bb1:                                              ; preds = %bb6.i.i.i.i.i.i.i
  %25 = landingpad { ptr, i32 }
          cleanup
  call void @llvm.dbg.value(metadata ptr undef, metadata !3696, metadata !DIExpression()), !dbg !3724
  call void @llvm.dbg.value(metadata i64 64, metadata !3712, metadata !DIExpression(DW_OP_LLVM_fragment, 64, 64)), !dbg !3726
  call void @llvm.dbg.value(metadata i64 16, metadata !3712, metadata !DIExpression(DW_OP_LLVM_fragment, 0, 64)), !dbg !3726
  call void @llvm.dbg.value(metadata ptr %_1.0.val, metadata !3702, metadata !DIExpression()), !dbg !3727
  call void @llvm.dbg.value(metadata i64 16, metadata !1811, metadata !DIExpression(DW_OP_LLVM_fragment, 0, 64)), !dbg !3728
  call void @llvm.dbg.value(metadata i64 64, metadata !1811, metadata !DIExpression(DW_OP_LLVM_fragment, 64, 64)), !dbg !3728
  call void @llvm.dbg.value(metadata ptr undef, metadata !1816, metadata !DIExpression()), !dbg !3728
  call void @llvm.dbg.value(metadata ptr %_1.0.val, metadata !1817, metadata !DIExpression()), !dbg !3728
  call void @llvm.dbg.value(metadata ptr %_1.0.val, metadata !1820, metadata !DIExpression()), !dbg !3730
  call void @llvm.dbg.value(metadata i64 16, metadata !1826, metadata !DIExpression(DW_OP_LLVM_fragment, 0, 64)), !dbg !3730
  call void @llvm.dbg.value(metadata i64 64, metadata !1826, metadata !DIExpression(DW_OP_LLVM_fragment, 64, 64)), !dbg !3730
  tail call void @__rust_dealloc(ptr noundef nonnull %_1.0.val, i64 noundef 64, i64 noundef 16) #16, !dbg !3732
  resume { ptr, i32 } %25, !dbg !3485
}

; core::ptr::drop_in_place<hashbrown::raw::RawTable<(i32,signal_hook_registry::Slot)>>
; Function Attrs: nonlazybind uwtable
define internal fastcc void @"_ZN4core3ptr93drop_in_place$LT$hashbrown..raw..RawTable$LT$$LP$i32$C$signal_hook_registry..Slot$RP$$GT$$GT$17hd97b3877e0dce594E"(ptr noalias nocapture noundef readonly align 8 dereferenceable(32) %_1) unnamed_addr #1 !dbg !2794 {
start:
  tail call void @llvm.dbg.value(metadata ptr %_1, metadata !2793, metadata !DIExpression()), !dbg !3733
  tail call void @llvm.experimental.noalias.scope.decl(metadata !3734), !dbg !3737
  call void @llvm.dbg.value(metadata ptr %_1, metadata !2807, metadata !DIExpression()), !dbg !3738
  tail call void @llvm.experimental.noalias.scope.decl(metadata !3740), !dbg !3743
  call void @llvm.dbg.value(metadata ptr %_1, metadata !2819, metadata !DIExpression()), !dbg !3744
  call void @llvm.dbg.value(metadata ptr %_1, metadata !2834, metadata !DIExpression()), !dbg !3746
  call void @llvm.dbg.value(metadata ptr %_1, metadata !2843, metadata !DIExpression()), !dbg !3748
  call void @llvm.dbg.value(metadata ptr undef, metadata !2830, metadata !DIExpression()), !dbg !3744
  call void @llvm.dbg.value(metadata ptr undef, metadata !2849, metadata !DIExpression()), !dbg !3748
  call void @llvm.dbg.value(metadata i64 192, metadata !2831, metadata !DIExpression(DW_OP_LLVM_fragment, 0, 64)), !dbg !3744
  call void @llvm.dbg.value(metadata i64 192, metadata !2850, metadata !DIExpression(DW_OP_LLVM_fragment, 0, 64)), !dbg !3748
  call void @llvm.dbg.value(metadata i64 16, metadata !2831, metadata !DIExpression(DW_OP_LLVM_fragment, 64, 64)), !dbg !3744
  call void @llvm.dbg.value(metadata i64 16, metadata !2850, metadata !DIExpression(DW_OP_LLVM_fragment, 64, 64)), !dbg !3748
  %0 = getelementptr inbounds i8, ptr %_1, i64 8, !dbg !3750, !unsafe_inst !1136
  %_5.i.i = load i64, ptr %0, align 8, !dbg !3750, !alias.scope !3751, !noundef !13
  %1 = icmp eq i64 %_5.i.i, 0, !dbg !3752, !unsafe_inst !1136
  br i1 %1, label %"_ZN79_$LT$hashbrown..raw..RawTable$LT$T$C$A$GT$$u20$as$u20$core..ops..drop..Drop$GT$4drop17hfa4f677a6ca5054fE.exit", label %bb2.i.i, !dbg !3752, !unsafe_inst !1136

bb2.i.i:                                          ; preds = %start
  tail call void @llvm.experimental.noalias.scope.decl(metadata !3753), !dbg !3756
  call void @llvm.dbg.value(metadata ptr %_1, metadata !2863, metadata !DIExpression()), !dbg !3757
  call void @llvm.dbg.value(metadata ptr %_1, metadata !2892, metadata !DIExpression()), !dbg !3759
  %2 = getelementptr inbounds i8, ptr %_1, i64 24, !dbg !3761, !unsafe_inst !1136
  %_3.i.i.i = load i64, ptr %2, align 8, !dbg !3761, !alias.scope !3762, !noundef !13
  %3 = icmp eq i64 %_3.i.i.i, 0, !dbg !3761, !unsafe_inst !1136
  %self.val.pre.i.i = load ptr, ptr %_1, align 8, !dbg !3763, !alias.scope !3751
  br i1 %3, label %_ZN9hashbrown3raw13RawTableInner13drop_elements17h4323b0d1a0ebde14E.exit.i.i, label %bb2.i.i.i, !dbg !3761, !unsafe_inst !1136

bb2.i.i.i:                                        ; preds = %bb2.i.i
  call void @llvm.dbg.value(metadata ptr %self.val.pre.i.i, metadata !2899, metadata !DIExpression()), !dbg !3764
  call void @llvm.dbg.value(metadata i64 16, metadata !2907, metadata !DIExpression()), !dbg !3765
  call void @llvm.dbg.value(metadata ptr %self.val.pre.i.i, metadata !2929, metadata !DIExpression()), !dbg !3768
  call void @llvm.dbg.value(metadata ptr %self.val.pre.i.i, metadata !2952, metadata !DIExpression()), !dbg !3769
  call void @llvm.dbg.value(metadata ptr %self.val.pre.i.i, metadata !2919, metadata !DIExpression()), !dbg !3765
  call void @llvm.dbg.value(metadata ptr %self.val.pre.i.i, metadata !2930, metadata !DIExpression()), !dbg !3768
  call void @llvm.dbg.value(metadata i64 poison, metadata !2931, metadata !DIExpression(DW_OP_plus_uconst, 1, DW_OP_stack_value)), !dbg !3768
  call void @llvm.dbg.value(metadata !DIArgList(ptr poison, i64 poison), metadata !2946, metadata !DIExpression(DW_OP_LLVM_arg, 0, DW_OP_LLVM_arg, 1, DW_OP_plus_uconst, 1, DW_OP_constu, 1, DW_OP_mul, DW_OP_plus, DW_OP_stack_value)), !dbg !3771
  call void @llvm.dbg.value(metadata ptr %self.val.pre.i.i, metadata !2981, metadata !DIExpression()), !dbg !3772
  %4 = load <16 x i8>, ptr %self.val.pre.i.i, align 16, !dbg !3774, !noalias !3775
  call void @llvm.dbg.value(metadata <2 x i64> poison, metadata !2997, metadata !DIExpression()), !dbg !3780
  call void @llvm.dbg.value(metadata ptr undef, metadata !3013, metadata !DIExpression()), !dbg !3783
  call void @llvm.dbg.value(metadata <2 x i64> poison, metadata !3016, metadata !DIExpression()), !dbg !3784
  call void @llvm.dbg.value(metadata <16 x i8> zeroinitializer, metadata !3021, metadata !DIExpression()), !dbg !3786
  %5 = icmp slt <16 x i8> %4, zeroinitializer, !dbg !3787
  call void @llvm.dbg.value(metadata <16 x i8> poison, metadata !3042, metadata !DIExpression()), !dbg !3788
  %6 = bitcast <16 x i1> %5 to i16, !dbg !3789
  call void @llvm.dbg.value(metadata i16 %6, metadata !3050, metadata !DIExpression()), !dbg !3790
  %current_group.i.i.i.i = xor i16 %6, -1, !dbg !3792, !unsafe_inst !1136
  call void @llvm.dbg.value(metadata i16 %current_group.i.i.i.i, metadata !2947, metadata !DIExpression()), !dbg !3793
  %next_ctrl.i.i.i.i = getelementptr inbounds i8, ptr %self.val.pre.i.i, i64 16, !dbg !3794, !unsafe_inst !1136
  call void @llvm.dbg.value(metadata ptr %self.val.pre.i.i, metadata !2869, metadata !DIExpression(DW_OP_LLVM_fragment, 0, 64)), !dbg !3795
  call void @llvm.dbg.value(metadata ptr %next_ctrl.i.i.i.i, metadata !2869, metadata !DIExpression(DW_OP_LLVM_fragment, 64, 64)), !dbg !3795
  call void @llvm.dbg.value(metadata !DIArgList(ptr poison, i64 poison), metadata !2869, metadata !DIExpression(DW_OP_LLVM_arg, 0, DW_OP_LLVM_arg, 1, DW_OP_plus_uconst, 1, DW_OP_constu, 1, DW_OP_mul, DW_OP_plus, DW_OP_stack_value, DW_OP_LLVM_fragment, 128, 64)), !dbg !3795
  call void @llvm.dbg.value(metadata i16 %current_group.i.i.i.i, metadata !2869, metadata !DIExpression(DW_OP_LLVM_fragment, 192, 16)), !dbg !3795
  call void @llvm.dbg.value(metadata i64 %_3.i.i.i, metadata !2869, metadata !DIExpression(DW_OP_LLVM_fragment, 256, 64)), !dbg !3795
  call void @llvm.dbg.value(metadata ptr undef, metadata !3064, metadata !DIExpression()), !dbg !3796
  br label %bb2.i.i.i.i, !dbg !3798

bb2.i.i.i.i:                                      ; preds = %bb6.i.i.i, %bb2.i.i.i
  %iter.sroa.0.016.i.i.i = phi ptr [ %self.val.pre.i.i, %bb2.i.i.i ], [ %iter.sroa.0.1.i.i.i, %bb6.i.i.i ]
  %iter.sroa.6.015.i.i.i = phi ptr [ %next_ctrl.i.i.i.i, %bb2.i.i.i ], [ %iter.sroa.6.1.i.i.i, %bb6.i.i.i ]
  %iter.sroa.106.014.i.i.i = phi i64 [ %_3.i.i.i, %bb2.i.i.i ], [ %15, %bb6.i.i.i ]
  %iter.sroa.85.013.i.i.i = phi i16 [ %current_group.i.i.i.i, %bb2.i.i.i ], [ %_18.i.i.i.i.i.i, %bb6.i.i.i ]
  call void @llvm.dbg.value(metadata ptr %iter.sroa.0.016.i.i.i, metadata !2869, metadata !DIExpression(DW_OP_LLVM_fragment, 0, 64)), !dbg !3795
  call void @llvm.dbg.value(metadata ptr %iter.sroa.6.015.i.i.i, metadata !2869, metadata !DIExpression(DW_OP_LLVM_fragment, 64, 64)), !dbg !3795
  call void @llvm.dbg.value(metadata i64 %iter.sroa.106.014.i.i.i, metadata !2869, metadata !DIExpression(DW_OP_LLVM_fragment, 256, 64)), !dbg !3795
  call void @llvm.dbg.value(metadata i16 %iter.sroa.85.013.i.i.i, metadata !2869, metadata !DIExpression(DW_OP_LLVM_fragment, 192, 16)), !dbg !3795
  call void @llvm.dbg.value(metadata i64 16, metadata !3089, metadata !DIExpression()), !dbg !3799
  call void @llvm.dbg.value(metadata ptr undef, metadata !3102, metadata !DIExpression()), !dbg !3802
  call void @llvm.dbg.value(metadata ptr undef, metadata !3107, metadata !DIExpression()), !dbg !3803
  call void @llvm.dbg.value(metadata i16 %iter.sroa.85.013.i.i.i, metadata !3133, metadata !DIExpression()), !dbg !3805
  %7 = icmp eq i16 %iter.sroa.85.013.i.i.i, 0, !dbg !3807
  br i1 %7, label %bb5.i.i.i.i.i, label %bb6.i.i.i, !dbg !3807

bb1.bb3_crit_edge.i.i.i.i.i:                      ; preds = %bb5.i.i.i.i.i
  %self6.i.i.i.i.i = xor i16 %10, -1, !dbg !3808, !unsafe_inst !1136
  call void @llvm.dbg.value(metadata i16 %self6.i.i.i.i.i, metadata !3133, metadata !DIExpression()), !dbg !3805
  call void @llvm.dbg.value(metadata ptr %_17.i.i.i.i.i, metadata !2869, metadata !DIExpression(DW_OP_LLVM_fragment, 64, 64)), !dbg !3795
  call void @llvm.dbg.value(metadata ptr %11, metadata !2869, metadata !DIExpression(DW_OP_LLVM_fragment, 0, 64)), !dbg !3795
  br label %bb6.i.i.i, !dbg !3807

bb5.i.i.i.i.i:                                    ; preds = %bb2.i.i.i.i, %bb5.i.i.i.i.i
  %_1721.i.i.i.i.i = phi ptr [ %_17.i.i.i.i.i, %bb5.i.i.i.i.i ], [ %iter.sroa.6.015.i.i.i, %bb2.i.i.i.i ], !dbg !3811
  %self.val1819.i.i.i.i.i = phi ptr [ %11, %bb5.i.i.i.i.i ], [ %iter.sroa.0.016.i.i.i, %bb2.i.i.i.i ]
  call void @llvm.dbg.value(metadata ptr %_1721.i.i.i.i.i, metadata !3165, metadata !DIExpression()), !dbg !3812
  call void @llvm.dbg.value(metadata ptr %_1721.i.i.i.i.i, metadata !2981, metadata !DIExpression()), !dbg !3814
  %8 = load <16 x i8>, ptr %_1721.i.i.i.i.i, align 16, !dbg !3816, !noalias !3817
  call void @llvm.dbg.value(metadata <2 x i64> poison, metadata !3188, metadata !DIExpression()), !dbg !3824
  call void @llvm.dbg.value(metadata ptr undef, metadata !3162, metadata !DIExpression()), !dbg !3826
  call void @llvm.dbg.value(metadata <2 x i64> poison, metadata !3016, metadata !DIExpression()), !dbg !3827
  call void @llvm.dbg.value(metadata <16 x i8> zeroinitializer, metadata !3021, metadata !DIExpression()), !dbg !3829
  %9 = icmp slt <16 x i8> %8, zeroinitializer, !dbg !3830
  call void @llvm.dbg.value(metadata <16 x i8> poison, metadata !3042, metadata !DIExpression()), !dbg !3831
  %10 = bitcast <16 x i1> %9 to i16, !dbg !3832
  call void @llvm.dbg.value(metadata i16 %10, metadata !3157, metadata !DIExpression()), !dbg !3833
  call void @llvm.dbg.value(metadata ptr undef, metadata !3202, metadata !DIExpression()), !dbg !3834
  call void @llvm.dbg.value(metadata i64 16, metadata !3208, metadata !DIExpression()), !dbg !3834
  call void @llvm.dbg.value(metadata i64 16, metadata !3213, metadata !DIExpression()), !dbg !3836
  call void @llvm.dbg.value(metadata ptr %self.val1819.i.i.i.i.i, metadata !3217, metadata !DIExpression()), !dbg !3836
  call void @llvm.dbg.value(metadata ptr %self.val1819.i.i.i.i.i, metadata !3220, metadata !DIExpression()), !dbg !3838
  call void @llvm.dbg.value(metadata i64 16, metadata !3227, metadata !DIExpression()), !dbg !3840
  call void @llvm.dbg.value(metadata i64 -16, metadata !3224, metadata !DIExpression()), !dbg !3838
  %11 = getelementptr inbounds { i32, [1 x i32], %Slot }, ptr %self.val1819.i.i.i.i.i, i64 -16, !dbg !3842, !unsafe_inst !1136
  call void @llvm.dbg.value(metadata ptr %_1721.i.i.i.i.i, metadata !3093, metadata !DIExpression()), !dbg !3799
  %_17.i.i.i.i.i = getelementptr inbounds i8, ptr %_1721.i.i.i.i.i, i64 16, !dbg !3843, !unsafe_inst !1136
  call void @llvm.dbg.value(metadata ptr undef, metadata !3107, metadata !DIExpression()), !dbg !3803
  call void @llvm.dbg.value(metadata i16 %10, metadata !3133, metadata !DIExpression(DW_OP_constu, 18446744073709551615, DW_OP_xor, DW_OP_stack_value)), !dbg !3805
  %12 = icmp eq i16 %10, -1, !dbg !3807
  br i1 %12, label %bb5.i.i.i.i.i, label %bb1.bb3_crit_edge.i.i.i.i.i, !dbg !3807

bb6.i.i.i:                                        ; preds = %bb1.bb3_crit_edge.i.i.i.i.i, %bb2.i.i.i.i
  %iter.sroa.6.1.i.i.i = phi ptr [ %_17.i.i.i.i.i, %bb1.bb3_crit_edge.i.i.i.i.i ], [ %iter.sroa.6.015.i.i.i, %bb2.i.i.i.i ], !dbg !3844
  %iter.sroa.0.1.i.i.i = phi ptr [ %11, %bb1.bb3_crit_edge.i.i.i.i.i ], [ %iter.sroa.0.016.i.i.i, %bb2.i.i.i.i ], !dbg !3844
  %self3.i.lcssa.i.i.i.i.i = phi i16 [ %self6.i.i.i.i.i, %bb1.bb3_crit_edge.i.i.i.i.i ], [ %iter.sroa.85.013.i.i.i, %bb2.i.i.i.i ], !dbg !3845
  call void @llvm.dbg.value(metadata i16 %self3.i.lcssa.i.i.i.i.i, metadata !3140, metadata !DIExpression()), !dbg !3846
  call void @llvm.dbg.value(metadata i16 %self3.i.lcssa.i.i.i.i.i, metadata !3238, metadata !DIExpression()), !dbg !3847
  call void @llvm.dbg.value(metadata i16 %self3.i.lcssa.i.i.i.i.i, metadata !3249, metadata !DIExpression()), !dbg !3849
  call void @llvm.dbg.value(metadata i16 poison, metadata !3114, metadata !DIExpression(DW_OP_LLVM_convert, 16, DW_ATE_unsigned, DW_OP_LLVM_convert, 64, DW_ATE_unsigned, DW_OP_stack_value)), !dbg !3851
  call void @llvm.dbg.value(metadata i16 %self3.i.lcssa.i.i.i.i.i, metadata !3260, metadata !DIExpression()), !dbg !3852
  call void @llvm.dbg.value(metadata i16 poison, metadata !3103, metadata !DIExpression(DW_OP_LLVM_convert, 16, DW_ATE_unsigned, DW_OP_LLVM_convert, 64, DW_ATE_unsigned, DW_OP_stack_value)), !dbg !3854
  call void @llvm.dbg.value(metadata ptr undef, metadata !3202, metadata !DIExpression()), !dbg !3855
  call void @llvm.dbg.value(metadata i16 poison, metadata !3208, metadata !DIExpression(DW_OP_LLVM_convert, 16, DW_ATE_unsigned, DW_OP_LLVM_convert, 64, DW_ATE_unsigned, DW_OP_stack_value)), !dbg !3855
  call void @llvm.dbg.value(metadata i16 poison, metadata !3213, metadata !DIExpression(DW_OP_LLVM_convert, 16, DW_ATE_unsigned, DW_OP_LLVM_convert, 64, DW_ATE_unsigned, DW_OP_stack_value)), !dbg !3857
  call void @llvm.dbg.value(metadata ptr %iter.sroa.0.1.i.i.i, metadata !3217, metadata !DIExpression()), !dbg !3857
  call void @llvm.dbg.value(metadata ptr %iter.sroa.0.1.i.i.i, metadata !3220, metadata !DIExpression()), !dbg !3859
  call void @llvm.dbg.value(metadata i16 poison, metadata !3227, metadata !DIExpression(DW_OP_LLVM_convert, 16, DW_ATE_unsigned, DW_OP_LLVM_convert, 64, DW_ATE_unsigned, DW_OP_stack_value)), !dbg !3861
  call void @llvm.dbg.value(metadata !DIArgList(i64 poison, i16 poison), metadata !3224, metadata !DIExpression(DW_OP_LLVM_arg, 0, DW_OP_LLVM_arg, 1, DW_OP_LLVM_convert, 16, DW_ATE_unsigned, DW_OP_LLVM_convert, 64, DW_ATE_unsigned, DW_OP_minus, DW_OP_stack_value)), !dbg !3859
  call void @llvm.dbg.value(metadata !DIArgList(ptr poison, i64 poison, i16 poison), metadata !3084, metadata !DIExpression(DW_OP_LLVM_arg, 0, DW_OP_LLVM_arg, 1, DW_OP_LLVM_arg, 2, DW_OP_LLVM_convert, 16, DW_ATE_unsigned, DW_OP_LLVM_convert, 64, DW_ATE_unsigned, DW_OP_minus, DW_OP_constu, 192, DW_OP_mul, DW_OP_plus, DW_OP_stack_value)), !dbg !3863
  call void @llvm.dbg.value(metadata ptr %iter.sroa.0.1.i.i.i, metadata !2869, metadata !DIExpression(DW_OP_LLVM_fragment, 0, 64)), !dbg !3795
  call void @llvm.dbg.value(metadata ptr %iter.sroa.6.1.i.i.i, metadata !2869, metadata !DIExpression(DW_OP_LLVM_fragment, 64, 64)), !dbg !3795
  call void @llvm.dbg.value(metadata i64 %iter.sroa.106.014.i.i.i, metadata !2869, metadata !DIExpression(DW_OP_constu, 1, DW_OP_minus, DW_OP_stack_value, DW_OP_LLVM_fragment, 256, 64)), !dbg !3795
  call void @llvm.dbg.value(metadata !DIArgList(i16 %self3.i.lcssa.i.i.i.i.i, i16 %self3.i.lcssa.i.i.i.i.i), metadata !2869, metadata !DIExpression(DW_OP_LLVM_arg, 0, DW_OP_constu, 1, DW_OP_minus, DW_OP_LLVM_arg, 1, DW_OP_and, DW_OP_stack_value, DW_OP_LLVM_fragment, 192, 16)), !dbg !3795
  %13 = tail call i16 @llvm.cttz.i16(i16 %self3.i.lcssa.i.i.i.i.i, i1 true), !dbg !3864, !range !3278
  call void @llvm.dbg.value(metadata i16 %13, metadata !3114, metadata !DIExpression(DW_OP_LLVM_convert, 16, DW_ATE_unsigned, DW_OP_LLVM_convert, 64, DW_ATE_unsigned, DW_OP_stack_value)), !dbg !3851
  call void @llvm.dbg.value(metadata i16 %13, metadata !3103, metadata !DIExpression(DW_OP_LLVM_convert, 16, DW_ATE_unsigned, DW_OP_LLVM_convert, 64, DW_ATE_unsigned, DW_OP_stack_value)), !dbg !3854
  call void @llvm.dbg.value(metadata i16 %13, metadata !3208, metadata !DIExpression(DW_OP_LLVM_convert, 16, DW_ATE_unsigned, DW_OP_LLVM_convert, 64, DW_ATE_unsigned, DW_OP_stack_value)), !dbg !3855
  call void @llvm.dbg.value(metadata i16 %13, metadata !3213, metadata !DIExpression(DW_OP_LLVM_convert, 16, DW_ATE_unsigned, DW_OP_LLVM_convert, 64, DW_ATE_unsigned, DW_OP_stack_value)), !dbg !3857
  call void @llvm.dbg.value(metadata i16 %13, metadata !3227, metadata !DIExpression(DW_OP_LLVM_convert, 16, DW_ATE_unsigned, DW_OP_LLVM_convert, 64, DW_ATE_unsigned, DW_OP_stack_value)), !dbg !3861
  call void @llvm.dbg.value(metadata !DIArgList(i64 0, i16 %13), metadata !3224, metadata !DIExpression(DW_OP_LLVM_arg, 0, DW_OP_LLVM_arg, 1, DW_OP_LLVM_convert, 16, DW_ATE_unsigned, DW_OP_LLVM_convert, 64, DW_ATE_unsigned, DW_OP_minus, DW_OP_stack_value)), !dbg !3859
  call void @llvm.dbg.value(metadata !DIArgList(ptr %iter.sroa.0.1.i.i.i, i64 0, i16 %13), metadata !3084, metadata !DIExpression(DW_OP_LLVM_arg, 0, DW_OP_LLVM_arg, 1, DW_OP_LLVM_arg, 2, DW_OP_LLVM_convert, 16, DW_ATE_unsigned, DW_OP_LLVM_convert, 64, DW_ATE_unsigned, DW_OP_minus, DW_OP_constu, 192, DW_OP_mul, DW_OP_plus, DW_OP_stack_value)), !dbg !3863
  %_9.i.i.i.i.i.i = zext nneg i16 %13 to i64, !dbg !3865
  call void @llvm.dbg.value(metadata i64 %_9.i.i.i.i.i.i, metadata !3114, metadata !DIExpression()), !dbg !3851
  call void @llvm.dbg.value(metadata i64 %_9.i.i.i.i.i.i, metadata !3103, metadata !DIExpression()), !dbg !3854
  call void @llvm.dbg.value(metadata i64 %_9.i.i.i.i.i.i, metadata !3208, metadata !DIExpression()), !dbg !3855
  call void @llvm.dbg.value(metadata i64 %_9.i.i.i.i.i.i, metadata !3213, metadata !DIExpression()), !dbg !3857
  call void @llvm.dbg.value(metadata i64 %_9.i.i.i.i.i.i, metadata !3227, metadata !DIExpression()), !dbg !3861
  call void @llvm.dbg.value(metadata !DIArgList(i64 0, i64 %_9.i.i.i.i.i.i), metadata !3224, metadata !DIExpression(DW_OP_LLVM_arg, 0, DW_OP_LLVM_arg, 1, DW_OP_minus, DW_OP_stack_value)), !dbg !3859
  call void @llvm.dbg.value(metadata !DIArgList(ptr %iter.sroa.0.1.i.i.i, i64 0, i64 %_9.i.i.i.i.i.i), metadata !3084, metadata !DIExpression(DW_OP_LLVM_arg, 0, DW_OP_LLVM_arg, 1, DW_OP_LLVM_arg, 2, DW_OP_minus, DW_OP_constu, 192, DW_OP_mul, DW_OP_plus, DW_OP_stack_value)), !dbg !3863
  %count.i.i.i.i.i.i = sub nsw i64 0, %_9.i.i.i.i.i.i, !dbg !3866, !unsafe_inst !1136
  call void @llvm.dbg.value(metadata i64 %count.i.i.i.i.i.i, metadata !3224, metadata !DIExpression()), !dbg !3859
  call void @llvm.dbg.value(metadata !DIArgList(ptr %iter.sroa.0.1.i.i.i, i64 %count.i.i.i.i.i.i), metadata !3084, metadata !DIExpression(DW_OP_LLVM_arg, 0, DW_OP_LLVM_arg, 1, DW_OP_constu, 192, DW_OP_mul, DW_OP_plus, DW_OP_stack_value)), !dbg !3863
  %14 = getelementptr inbounds { i32, [1 x i32], %Slot }, ptr %iter.sroa.0.1.i.i.i, i64 %count.i.i.i.i.i.i, !dbg !3867, !unsafe_inst !1136
  call void @llvm.dbg.value(metadata ptr %14, metadata !3084, metadata !DIExpression()), !dbg !3863
  %15 = add i64 %iter.sroa.106.014.i.i.i, -1, !dbg !3868
  call void @llvm.dbg.value(metadata i64 %15, metadata !2869, metadata !DIExpression(DW_OP_LLVM_fragment, 256, 64)), !dbg !3795
  %_19.i.i.i.i.i.i = add i16 %self3.i.lcssa.i.i.i.i.i, -1, !dbg !3869
  call void @llvm.dbg.value(metadata !DIArgList(i16 %_19.i.i.i.i.i.i, i16 %self3.i.lcssa.i.i.i.i.i), metadata !2869, metadata !DIExpression(DW_OP_LLVM_arg, 0, DW_OP_LLVM_arg, 1, DW_OP_and, DW_OP_stack_value, DW_OP_LLVM_fragment, 192, 16)), !dbg !3795
  %_18.i.i.i.i.i.i = and i16 %_19.i.i.i.i.i.i, %self3.i.lcssa.i.i.i.i.i, !dbg !3870
  call void @llvm.dbg.value(metadata i16 %_18.i.i.i.i.i.i, metadata !2869, metadata !DIExpression(DW_OP_LLVM_fragment, 192, 16)), !dbg !3795
  call void @llvm.dbg.value(metadata ptr %14, metadata !2888, metadata !DIExpression()), !dbg !3871
  call void @llvm.dbg.value(metadata ptr undef, metadata !2276, metadata !DIExpression()), !dbg !3872
  call void @llvm.dbg.value(metadata ptr %14, metadata !2285, metadata !DIExpression(DW_OP_constu, 192, DW_OP_minus, DW_OP_stack_value)), !dbg !3874
  call void @llvm.dbg.value(metadata ptr %14, metadata !2293, metadata !DIExpression(DW_OP_constu, 192, DW_OP_minus, DW_OP_stack_value)), !dbg !3876
  call void @llvm.dbg.value(metadata ptr %14, metadata !2298, metadata !DIExpression(DW_OP_constu, 192, DW_OP_minus, DW_OP_plus_uconst, 8, DW_OP_stack_value)), !dbg !3878
  %16 = getelementptr { i32, [1 x i32], %Slot }, ptr %14, i64 -1, i32 2, i32 1, !dbg !3880
; call core::ptr::drop_in_place<alloc::collections::btree::map::BTreeMap<signal_hook_registry::ActionId,alloc::sync::Arc<dyn core::ops::function::Fn<(&libc::unix::linux_like::linux::gnu::b64::x86_64::siginfo_t,)>+Output = ()+core::marker::Send+core::marker::Sync>>>
  tail call fastcc void @"_ZN4core3ptr318drop_in_place$LT$alloc..collections..btree..map..BTreeMap$LT$signal_hook_registry..ActionId$C$alloc..sync..Arc$LT$dyn$u20$core..ops..function..Fn$LT$$LP$$RF$libc..unix..linux_like..linux..gnu..b64..x86_64..siginfo_t$C$$RP$$GT$$u2b$Output$u20$$u3d$$u20$$LP$$RP$$u2b$core..marker..Send$u2b$core..marker..Sync$GT$$GT$$GT$17h97e919acb003ab65E"(ptr noalias noundef nonnull align 8 dereferenceable(24) %16), !dbg !3880, !noalias !3762
  call void @llvm.dbg.value(metadata ptr %iter.sroa.0.1.i.i.i, metadata !2869, metadata !DIExpression(DW_OP_LLVM_fragment, 0, 64)), !dbg !3795
  call void @llvm.dbg.value(metadata ptr %iter.sroa.6.1.i.i.i, metadata !2869, metadata !DIExpression(DW_OP_LLVM_fragment, 64, 64)), !dbg !3795
  call void @llvm.dbg.value(metadata i64 %15, metadata !2869, metadata !DIExpression(DW_OP_LLVM_fragment, 256, 64)), !dbg !3795
  call void @llvm.dbg.value(metadata i16 %_18.i.i.i.i.i.i, metadata !2869, metadata !DIExpression(DW_OP_LLVM_fragment, 192, 16)), !dbg !3795
  call void @llvm.dbg.value(metadata ptr undef, metadata !3064, metadata !DIExpression()), !dbg !3796
  %17 = icmp eq i64 %15, 0, !dbg !3798
  br i1 %17, label %_ZN9hashbrown3raw13RawTableInner13drop_elements17h4323b0d1a0ebde14E.exit.i.i, label %bb2.i.i.i.i, !dbg !3798

_ZN9hashbrown3raw13RawTableInner13drop_elements17h4323b0d1a0ebde14E.exit.i.i: ; preds = %bb6.i.i.i, %bb2.i.i
  call void @llvm.dbg.value(metadata ptr undef, metadata !3295, metadata !DIExpression()), !dbg !3881
  call void @llvm.dbg.value(metadata ptr undef, metadata !3317, metadata !DIExpression()), !dbg !3883
  call void @llvm.dbg.value(metadata i64 192, metadata !3305, metadata !DIExpression(DW_OP_LLVM_fragment, 0, 64)), !dbg !3881
  call void @llvm.dbg.value(metadata i64 16, metadata !3305, metadata !DIExpression(DW_OP_LLVM_fragment, 64, 64)), !dbg !3881
  %_4.i.i.i = add i64 %_5.i.i, 1, !dbg !3885, !unsafe_inst !1136
  call void @llvm.dbg.value(metadata i64 192, metadata !3327, metadata !DIExpression(DW_OP_LLVM_fragment, 0, 64)), !dbg !3886
  call void @llvm.dbg.value(metadata i64 16, metadata !3327, metadata !DIExpression(DW_OP_LLVM_fragment, 64, 64)), !dbg !3886
  call void @llvm.dbg.value(metadata i64 %_4.i.i.i, metadata !3346, metadata !DIExpression()), !dbg !3886
  call void @llvm.dbg.value(metadata i64 %_4.i.i.i, metadata !3368, metadata !DIExpression()), !dbg !3888
  call void @llvm.dbg.value(metadata i64 %_4.i.i.i, metadata !3380, metadata !DIExpression()), !dbg !3890
  call void @llvm.dbg.value(metadata i64 192, metadata !3347, metadata !DIExpression()), !dbg !3892
  call void @llvm.dbg.value(metadata i64 192, metadata !3374, metadata !DIExpression()), !dbg !3888
  call void @llvm.dbg.value(metadata i64 192, metadata !3390, metadata !DIExpression()), !dbg !3890
  call void @llvm.dbg.value(metadata i64 16, metadata !3349, metadata !DIExpression()), !dbg !3892
  %18 = tail call { i64, i1 } @llvm.umul.with.overflow.i64(i64 %_4.i.i.i, i64 192), !dbg !3893
  %_26.1.i.i.i.i = extractvalue { i64, i1 } %18, 1, !dbg !3893
  call void @llvm.dbg.value(metadata i1 %_26.1.i.i.i.i, metadata !3377, metadata !DIExpression(DW_OP_LLVM_convert, 1, DW_ATE_unsigned, DW_OP_LLVM_convert, 8, DW_ATE_unsigned, DW_OP_stack_value)), !dbg !3894
  call void @llvm.dbg.value(metadata i64 poison, metadata !3375, metadata !DIExpression()), !dbg !3894
  %19 = xor i1 %_26.1.i.i.i.i, true, !dbg !3895
  tail call void @llvm.assume(i1 %19), !dbg !3895
  %_26.0.i.i.i.i = extractvalue { i64, i1 } %18, 0, !dbg !3893
  call void @llvm.dbg.value(metadata i64 %_26.0.i.i.i.i, metadata !3375, metadata !DIExpression()), !dbg !3894
  call void @llvm.dbg.value(metadata i64 %_26.0.i.i.i.i, metadata !3350, metadata !DIExpression()), !dbg !3896
  call void @llvm.dbg.value(metadata i64 %_26.0.i.i.i.i, metadata !3403, metadata !DIExpression()), !dbg !3897
  call void @llvm.dbg.value(metadata i64 %_26.0.i.i.i.i, metadata !3419, metadata !DIExpression()), !dbg !3899
  %rhs16.i.i.i.i = add i64 %_5.i.i, 17, !dbg !3901
  call void @llvm.dbg.value(metadata i64 %rhs16.i.i.i.i, metadata !3413, metadata !DIExpression()), !dbg !3897
  call void @llvm.dbg.value(metadata i64 %rhs16.i.i.i.i, metadata !3429, metadata !DIExpression()), !dbg !3899
  %20 = tail call { i64, i1 } @llvm.uadd.with.overflow.i64(i64 %_26.0.i.i.i.i, i64 %rhs16.i.i.i.i), !dbg !3902
  %_42.1.i.i.i.i = extractvalue { i64, i1 } %20, 1, !dbg !3902
  call void @llvm.dbg.value(metadata i1 %_42.1.i.i.i.i, metadata !3416, metadata !DIExpression(DW_OP_LLVM_convert, 1, DW_ATE_unsigned, DW_OP_LLVM_convert, 8, DW_ATE_unsigned, DW_OP_stack_value)), !dbg !3903
  call void @llvm.dbg.value(metadata i64 poison, metadata !3414, metadata !DIExpression()), !dbg !3903
  %21 = xor i1 %_42.1.i.i.i.i, true, !dbg !3904
  tail call void @llvm.assume(i1 %21), !dbg !3904
  %_42.0.i.i.i.i = extractvalue { i64, i1 } %20, 0, !dbg !3902
  call void @llvm.dbg.value(metadata i64 %_42.0.i.i.i.i, metadata !3414, metadata !DIExpression()), !dbg !3903
  call void @llvm.dbg.value(metadata i64 %_42.0.i.i.i.i, metadata !3360, metadata !DIExpression()), !dbg !3905
  %_19.i.i.i.i = icmp ult i64 %_42.0.i.i.i.i, 9223372036854775793, !dbg !3906
  tail call void @llvm.assume(i1 %_19.i.i.i.i), !dbg !3906
  call void @llvm.dbg.value(metadata i64 16, metadata !3306, metadata !DIExpression(DW_OP_LLVM_fragment, 0, 64)), !dbg !3907
  call void @llvm.dbg.value(metadata i64 %_42.0.i.i.i.i, metadata !3306, metadata !DIExpression(DW_OP_LLVM_fragment, 64, 64)), !dbg !3907
  call void @llvm.dbg.value(metadata i64 %_26.0.i.i.i.i, metadata !3308, metadata !DIExpression()), !dbg !3907
  call void @llvm.dbg.value(metadata i64 %_26.0.i.i.i.i, metadata !3443, metadata !DIExpression()), !dbg !3908
  %22 = icmp ne ptr %self.val.pre.i.i, null
  tail call void @llvm.assume(i1 %22)
  call void @llvm.dbg.value(metadata ptr %self.val.pre.i.i, metadata !3447, metadata !DIExpression()), !dbg !3908
  call void @llvm.dbg.value(metadata ptr %self.val.pre.i.i, metadata !3450, metadata !DIExpression()), !dbg !3910
  call void @llvm.dbg.value(metadata i64 %_26.0.i.i.i.i, metadata !3459, metadata !DIExpression()), !dbg !3912
  call void @llvm.dbg.value(metadata !DIArgList(i64 0, i64 %_26.0.i.i.i.i), metadata !3456, metadata !DIExpression(DW_OP_LLVM_arg, 0, DW_OP_LLVM_arg, 1, DW_OP_minus, DW_OP_stack_value)), !dbg !3910
  call void @llvm.dbg.value(metadata !DIArgList(ptr %self.val.pre.i.i, i64 0, i64 %_26.0.i.i.i.i), metadata !2851, metadata !DIExpression(DW_OP_LLVM_arg, 0, DW_OP_LLVM_arg, 1, DW_OP_LLVM_arg, 2, DW_OP_minus, DW_OP_constu, 1, DW_OP_mul, DW_OP_plus, DW_OP_stack_value)), !dbg !3914
  call void @llvm.dbg.value(metadata i64 16, metadata !2853, metadata !DIExpression(DW_OP_LLVM_fragment, 0, 64)), !dbg !3914
  call void @llvm.dbg.value(metadata i64 %_42.0.i.i.i.i, metadata !2853, metadata !DIExpression(DW_OP_LLVM_fragment, 64, 64)), !dbg !3914
  call void @llvm.dbg.value(metadata i64 16, metadata !1811, metadata !DIExpression(DW_OP_LLVM_fragment, 0, 64)), !dbg !3915
  call void @llvm.dbg.value(metadata i64 %_42.0.i.i.i.i, metadata !1811, metadata !DIExpression(DW_OP_LLVM_fragment, 64, 64)), !dbg !3915
  call void @llvm.dbg.value(metadata ptr undef, metadata !1816, metadata !DIExpression()), !dbg !3915
  call void @llvm.dbg.value(metadata !DIArgList(ptr %self.val.pre.i.i, i64 0, i64 %_26.0.i.i.i.i), metadata !1817, metadata !DIExpression(DW_OP_LLVM_arg, 0, DW_OP_LLVM_arg, 1, DW_OP_LLVM_arg, 2, DW_OP_minus, DW_OP_constu, 1, DW_OP_mul, DW_OP_plus, DW_OP_stack_value)), !dbg !3915
  %23 = icmp eq i64 %_42.0.i.i.i.i, 0, !dbg !3917
  br i1 %23, label %"_ZN79_$LT$hashbrown..raw..RawTable$LT$T$C$A$GT$$u20$as$u20$core..ops..drop..Drop$GT$4drop17hfa4f677a6ca5054fE.exit", label %bb1.i.i.i, !dbg !3917

bb1.i.i.i:                                        ; preds = %_ZN9hashbrown3raw13RawTableInner13drop_elements17h4323b0d1a0ebde14E.exit.i.i
  %count.i.i.i = sub nsw i64 0, %_26.0.i.i.i.i, !dbg !3918, !unsafe_inst !1136
  call void @llvm.dbg.value(metadata i64 %count.i.i.i, metadata !3456, metadata !DIExpression()), !dbg !3910
  call void @llvm.dbg.value(metadata !DIArgList(ptr %self.val.pre.i.i, i64 %count.i.i.i), metadata !2851, metadata !DIExpression(DW_OP_LLVM_arg, 0, DW_OP_LLVM_arg, 1, DW_OP_constu, 1, DW_OP_mul, DW_OP_plus, DW_OP_stack_value)), !dbg !3914
  call void @llvm.dbg.value(metadata !DIArgList(ptr %self.val.pre.i.i, i64 %count.i.i.i), metadata !1817, metadata !DIExpression(DW_OP_LLVM_arg, 0, DW_OP_LLVM_arg, 1, DW_OP_constu, 1, DW_OP_mul, DW_OP_plus, DW_OP_stack_value)), !dbg !3915
  %ptr.i.i.i = getelementptr inbounds i8, ptr %self.val.pre.i.i, i64 %count.i.i.i, !dbg !3919, !unsafe_inst !1136
  call void @llvm.dbg.value(metadata ptr %ptr.i.i.i, metadata !2851, metadata !DIExpression()), !dbg !3914
  call void @llvm.dbg.value(metadata ptr %ptr.i.i.i, metadata !1817, metadata !DIExpression()), !dbg !3915
  call void @llvm.dbg.value(metadata ptr %ptr.i.i.i, metadata !1820, metadata !DIExpression()), !dbg !3920
  call void @llvm.dbg.value(metadata i64 16, metadata !1826, metadata !DIExpression(DW_OP_LLVM_fragment, 0, 64)), !dbg !3920
  call void @llvm.dbg.value(metadata i64 %_42.0.i.i.i.i, metadata !1826, metadata !DIExpression(DW_OP_LLVM_fragment, 64, 64)), !dbg !3920
  tail call void @__rust_dealloc(ptr noundef nonnull %ptr.i.i.i, i64 noundef %_42.0.i.i.i.i, i64 noundef 16) #16, !dbg !3922, !noalias !3751
  br label %"_ZN79_$LT$hashbrown..raw..RawTable$LT$T$C$A$GT$$u20$as$u20$core..ops..drop..Drop$GT$4drop17hfa4f677a6ca5054fE.exit", !dbg !3923

"_ZN79_$LT$hashbrown..raw..RawTable$LT$T$C$A$GT$$u20$as$u20$core..ops..drop..Drop$GT$4drop17hfa4f677a6ca5054fE.exit": ; preds = %start, %_ZN9hashbrown3raw13RawTableInner13drop_elements17h4323b0d1a0ebde14E.exit.i.i, %bb1.i.i.i
  ret void, !dbg !3737
}

; alloc::collections::btree::map::IntoIter<K,V,A>::dying_next
; Function Attrs: nonlazybind uwtable
define internal fastcc void @"_ZN5alloc11collections5btree3map25IntoIter$LT$K$C$V$C$A$GT$10dying_next17h947a61e7f605bc72E"(ptr dead_on_unwind noalias nocapture noundef writable writeonly align 8 dereferenceable(24) %_0, ptr noalias nocapture noundef align 8 dereferenceable(72) %self) unnamed_addr #1 personality ptr @rust_eh_personality !dbg !3924 {
start:
  %_3.i3.i = alloca [0 x i8], align 1
  tail call void @llvm.dbg.value(metadata ptr %self, metadata !3942, metadata !DIExpression()), !dbg !3943
  %0 = getelementptr inbounds i8, ptr %self, i64 64, !dbg !3944
  %_2 = load i64, ptr %0, align 8, !dbg !3944, !noundef !13
  %1 = icmp eq i64 %_2, 0, !dbg !3944
  br i1 %1, label %bb1, label %bb4, !dbg !3944

bb1:                                              ; preds = %start
  tail call void @llvm.experimental.noalias.scope.decl(metadata !3945), !dbg !3948
  call void @llvm.dbg.value(metadata ptr %self, metadata !3949, metadata !DIExpression()), !dbg !3960
  call void @llvm.dbg.declare(metadata ptr undef, metadata !3957, metadata !DIExpression()), !dbg !3962
  tail call void @llvm.experimental.noalias.scope.decl(metadata !3963), !dbg !3966
  call void @llvm.dbg.declare(metadata ptr poison, metadata !3967, metadata !DIExpression(DW_OP_LLVM_fragment, 64, 192)), !dbg !3978
  call void @llvm.dbg.declare(metadata ptr poison, metadata !3987, metadata !DIExpression(DW_OP_LLVM_fragment, 64, 192)), !dbg !4026
  call void @llvm.dbg.value(metadata ptr %self, metadata !4016, metadata !DIExpression()), !dbg !4027
  call void @llvm.dbg.value(metadata ptr %self, metadata !3996, metadata !DIExpression()), !dbg !4028
  call void @llvm.dbg.value(metadata ptr %self, metadata !3986, metadata !DIExpression()), !dbg !4029
  call void @llvm.dbg.value(metadata ptr %self, metadata !4030, metadata !DIExpression()), !dbg !4037
  call void @llvm.dbg.value(metadata ptr %self, metadata !3974, metadata !DIExpression()), !dbg !4039
  call void @llvm.dbg.value(metadata i64 0, metadata !3987, metadata !DIExpression(DW_OP_LLVM_fragment, 0, 64)), !dbg !4029
  call void @llvm.dbg.value(metadata i64 0, metadata !3967, metadata !DIExpression(DW_OP_LLVM_fragment, 0, 64)), !dbg !4039
  %result.sroa.0.0.copyload.i.i = load i64, ptr %self, align 8, !dbg !4040, !alias.scope !4041, !noalias !4042
  call void @llvm.dbg.value(metadata i64 %result.sroa.0.0.copyload.i.i, metadata !3988, metadata !DIExpression(DW_OP_LLVM_fragment, 0, 64)), !dbg !4044
  call void @llvm.dbg.value(metadata i64 %result.sroa.0.0.copyload.i.i, metadata !4045, metadata !DIExpression(DW_OP_LLVM_fragment, 0, 64)), !dbg !4071
  %result.sroa.5.0.self.sroa_idx.i.i = getelementptr inbounds i8, ptr %self, i64 8, !dbg !4040
  %result.sroa.5.sroa.0.0.copyload.i.i = load ptr, ptr %result.sroa.5.0.self.sroa_idx.i.i, align 8, !dbg !4040, !alias.scope !4041, !noalias !4042
  call void @llvm.dbg.value(metadata ptr %result.sroa.5.sroa.0.0.copyload.i.i, metadata !4045, metadata !DIExpression(DW_OP_LLVM_fragment, 64, 64)), !dbg !4071
  call void @llvm.dbg.value(metadata ptr %result.sroa.5.sroa.0.0.copyload.i.i, metadata !3988, metadata !DIExpression(DW_OP_LLVM_fragment, 64, 64)), !dbg !4044
  %result.sroa.5.sroa.5.0.result.sroa.5.0.self.sroa_idx.sroa_idx.i.i = getelementptr inbounds i8, ptr %self, i64 16, !dbg !4040
  %result.sroa.5.sroa.5.0.copyload.i.i = load ptr, ptr %result.sroa.5.sroa.5.0.result.sroa.5.0.self.sroa_idx.sroa_idx.i.i, align 8, !dbg !4040, !alias.scope !4041, !noalias !4042
  call void @llvm.dbg.value(metadata ptr %result.sroa.5.sroa.5.0.copyload.i.i, metadata !4045, metadata !DIExpression(DW_OP_LLVM_fragment, 128, 64)), !dbg !4071
  call void @llvm.dbg.value(metadata ptr %result.sroa.5.sroa.5.0.copyload.i.i, metadata !3988, metadata !DIExpression(DW_OP_LLVM_fragment, 128, 64)), !dbg !4044
  %result.sroa.5.sroa.6.0.result.sroa.5.0.self.sroa_idx.sroa_idx.i.i = getelementptr inbounds i8, ptr %self, i64 24, !dbg !4040
  %result.sroa.5.sroa.6.0.copyload.i.i = load i64, ptr %result.sroa.5.sroa.6.0.result.sroa.5.0.self.sroa_idx.sroa_idx.i.i, align 8, !dbg !4040, !alias.scope !4041, !noalias !4042
  call void @llvm.dbg.value(metadata i64 %result.sroa.5.sroa.6.0.copyload.i.i, metadata !4045, metadata !DIExpression(DW_OP_LLVM_fragment, 192, 64)), !dbg !4071
  call void @llvm.dbg.value(metadata i64 %result.sroa.5.sroa.6.0.copyload.i.i, metadata !3988, metadata !DIExpression(DW_OP_LLVM_fragment, 192, 64)), !dbg !4044
  store i64 0, ptr %self, align 8, !dbg !4073, !alias.scope !4041, !noalias !4042
  %switch.i.i = icmp eq i64 %result.sroa.0.0.copyload.i.i, 0, !dbg !4074
  br i1 %switch.i.i, label %"_ZN5alloc11collections5btree8navigate75LazyLeafRange$LT$alloc..collections..btree..node..marker..Dying$C$K$C$V$GT$16deallocating_end17he819e60ebe316b7bE.exit", label %bb8.i.i, !dbg !4074

bb8.i.i:                                          ; preds = %bb1
  %2 = icmp eq ptr %result.sroa.5.sroa.0.0.copyload.i.i, null, !dbg !4075
  br i1 %2, label %bb3.i.i, label %bb2.i, !dbg !4076

bb3.i.i:                                          ; preds = %bb8.i.i
  %3 = icmp ne ptr %result.sroa.5.sroa.5.0.copyload.i.i, null
  tail call void @llvm.assume(i1 %3)
  call void @llvm.dbg.value(metadata ptr %result.sroa.5.sroa.5.0.copyload.i.i, metadata !4021, metadata !DIExpression(DW_OP_LLVM_fragment, 0, 64)), !dbg !4077
  call void @llvm.dbg.value(metadata i64 %result.sroa.5.sroa.6.0.copyload.i.i, metadata !4021, metadata !DIExpression(DW_OP_LLVM_fragment, 64, 64)), !dbg !4077
  call void @llvm.dbg.value(metadata ptr %result.sroa.5.sroa.5.0.copyload.i.i, metadata !4078, metadata !DIExpression(DW_OP_LLVM_fragment, 0, 64)), !dbg !4107
  call void @llvm.dbg.value(metadata i64 %result.sroa.5.sroa.6.0.copyload.i.i, metadata !4078, metadata !DIExpression(DW_OP_LLVM_fragment, 64, 64)), !dbg !4107
  call void @llvm.dbg.value(metadata i64 %result.sroa.5.sroa.6.0.copyload.i.i, metadata !4084, metadata !DIExpression(DW_OP_LLVM_fragment, 64, 64)), !dbg !4109
  call void @llvm.dbg.value(metadata ptr %result.sroa.5.sroa.5.0.copyload.i.i, metadata !4084, metadata !DIExpression(DW_OP_LLVM_fragment, 0, 64)), !dbg !4109
  call void @llvm.dbg.value(metadata i64 %result.sroa.5.sroa.6.0.copyload.i.i, metadata !4110, metadata !DIExpression(DW_OP_LLVM_fragment, 64, 64)), !dbg !4133
  call void @llvm.dbg.value(metadata ptr %result.sroa.5.sroa.5.0.copyload.i.i, metadata !4110, metadata !DIExpression(DW_OP_LLVM_fragment, 0, 64)), !dbg !4133
  %4 = icmp eq i64 %result.sroa.5.sroa.6.0.copyload.i.i, 0, !dbg !4135
  br i1 %4, label %bb2.i, label %bb4.i.i.i.preheader, !dbg !4135

bb4.i.i.i.preheader:                              ; preds = %bb3.i.i
  %xtraiter30 = and i64 %result.sroa.5.sroa.6.0.copyload.i.i, 7, !dbg !4135
  %lcmp.mod31.not = icmp eq i64 %xtraiter30, 0, !dbg !4135
  br i1 %lcmp.mod31.not, label %bb4.i.i.i.prol.loopexit, label %bb4.i.i.i.prol, !dbg !4135

bb4.i.i.i.prol:                                   ; preds = %bb4.i.i.i.preheader, %bb4.i.i.i.prol
  %node2.sroa.0.08.i.i.i.prol = phi ptr [ %node.i.i.i.i.prol, %bb4.i.i.i.prol ], [ %result.sroa.5.sroa.5.0.copyload.i.i, %bb4.i.i.i.preheader ]
  %node.sroa.0.07.i.i.i.prol = phi i64 [ %_8.i.i.i.i.prol, %bb4.i.i.i.prol ], [ %result.sroa.5.sroa.6.0.copyload.i.i, %bb4.i.i.i.preheader ]
  %prol.iter32 = phi i64 [ %prol.iter32.next, %bb4.i.i.i.prol ], [ 0, %bb4.i.i.i.preheader ]
  call void @llvm.dbg.value(metadata ptr %node2.sroa.0.08.i.i.i.prol, metadata !4084, metadata !DIExpression(DW_OP_LLVM_fragment, 0, 64)), !dbg !4109
  call void @llvm.dbg.value(metadata i64 %node.sroa.0.07.i.i.i.prol, metadata !4084, metadata !DIExpression(DW_OP_LLVM_fragment, 64, 64)), !dbg !4109
  call void @llvm.dbg.value(metadata ptr %node2.sroa.0.08.i.i.i.prol, metadata !4088, metadata !DIExpression(DW_OP_LLVM_fragment, 0, 64)), !dbg !4136
  call void @llvm.dbg.value(metadata i64 %node.sroa.0.07.i.i.i.prol, metadata !4088, metadata !DIExpression(DW_OP_LLVM_fragment, 64, 64)), !dbg !4136
  call void @llvm.dbg.value(metadata ptr %node2.sroa.0.08.i.i.i.prol, metadata !4137, metadata !DIExpression(DW_OP_LLVM_fragment, 0, 64)), !dbg !4155
  call void @llvm.dbg.value(metadata i64 %node.sroa.0.07.i.i.i.prol, metadata !4137, metadata !DIExpression(DW_OP_LLVM_fragment, 64, 64)), !dbg !4155
  call void @llvm.dbg.value(metadata i64 0, metadata !4137, metadata !DIExpression(DW_OP_LLVM_fragment, 128, 64)), !dbg !4155
  call void @llvm.dbg.value(metadata ptr %node2.sroa.0.08.i.i.i.prol, metadata !4150, metadata !DIExpression()), !dbg !4157
  %_6.i.i.i.i.prol = getelementptr inbounds i8, ptr %node2.sroa.0.08.i.i.i.prol, i64 368, !dbg !4158
  call void @llvm.dbg.value(metadata ptr %_6.i.i.i.i.prol, metadata !4159, metadata !DIExpression()), !dbg !4168
  call void @llvm.dbg.value(metadata ptr %_6.i.i.i.i.prol, metadata !4170, metadata !DIExpression()), !dbg !4177
  call void @llvm.dbg.value(metadata ptr %_6.i.i.i.i.prol, metadata !4179, metadata !DIExpression()), !dbg !4183
  %node.i.i.i.i.prol = load ptr, ptr %_6.i.i.i.i.prol, align 8, !dbg !4185, !noalias !4186, !nonnull !13, !noundef !13
  call void @llvm.dbg.value(metadata ptr %node.i.i.i.i.prol, metadata !4153, metadata !DIExpression()), !dbg !4191
  %_8.i.i.i.i.prol = add i64 %node.sroa.0.07.i.i.i.prol, -1, !dbg !4192
  call void @llvm.dbg.value(metadata ptr %node.i.i.i.i.prol, metadata !4084, metadata !DIExpression(DW_OP_LLVM_fragment, 0, 64)), !dbg !4109
  call void @llvm.dbg.value(metadata i64 %_8.i.i.i.i.prol, metadata !4084, metadata !DIExpression(DW_OP_LLVM_fragment, 64, 64)), !dbg !4109
  call void @llvm.dbg.value(metadata i64 %_8.i.i.i.i.prol, metadata !4110, metadata !DIExpression(DW_OP_LLVM_fragment, 64, 64)), !dbg !4133
  call void @llvm.dbg.value(metadata ptr %node.i.i.i.i.prol, metadata !4110, metadata !DIExpression(DW_OP_LLVM_fragment, 0, 64)), !dbg !4133
  %prol.iter32.next = add i64 %prol.iter32, 1, !dbg !4135
  %prol.iter32.cmp.not = icmp eq i64 %prol.iter32.next, %xtraiter30, !dbg !4135
  br i1 %prol.iter32.cmp.not, label %bb4.i.i.i.prol.loopexit, label %bb4.i.i.i.prol, !dbg !4135, !llvm.loop !4193

bb4.i.i.i.prol.loopexit:                          ; preds = %bb4.i.i.i.prol, %bb4.i.i.i.preheader
  %node.i.i.i.i.lcssa.unr = phi ptr [ undef, %bb4.i.i.i.preheader ], [ %node.i.i.i.i.prol, %bb4.i.i.i.prol ]
  %node2.sroa.0.08.i.i.i.unr = phi ptr [ %result.sroa.5.sroa.5.0.copyload.i.i, %bb4.i.i.i.preheader ], [ %node.i.i.i.i.prol, %bb4.i.i.i.prol ]
  %node.sroa.0.07.i.i.i.unr = phi i64 [ %result.sroa.5.sroa.6.0.copyload.i.i, %bb4.i.i.i.preheader ], [ %_8.i.i.i.i.prol, %bb4.i.i.i.prol ]
  %5 = icmp ult i64 %result.sroa.5.sroa.6.0.copyload.i.i, 8, !dbg !4135
  br i1 %5, label %bb2.i, label %bb4.i.i.i, !dbg !4135

bb4.i.i.i:                                        ; preds = %bb4.i.i.i.prol.loopexit, %bb4.i.i.i
  %node2.sroa.0.08.i.i.i = phi ptr [ %node.i.i.i.i.7, %bb4.i.i.i ], [ %node2.sroa.0.08.i.i.i.unr, %bb4.i.i.i.prol.loopexit ]
  %node.sroa.0.07.i.i.i = phi i64 [ %_8.i.i.i.i.7, %bb4.i.i.i ], [ %node.sroa.0.07.i.i.i.unr, %bb4.i.i.i.prol.loopexit ]
  call void @llvm.dbg.value(metadata ptr %node2.sroa.0.08.i.i.i, metadata !4084, metadata !DIExpression(DW_OP_LLVM_fragment, 0, 64)), !dbg !4109
  call void @llvm.dbg.value(metadata i64 %node.sroa.0.07.i.i.i, metadata !4084, metadata !DIExpression(DW_OP_LLVM_fragment, 64, 64)), !dbg !4109
  call void @llvm.dbg.value(metadata ptr %node2.sroa.0.08.i.i.i, metadata !4088, metadata !DIExpression(DW_OP_LLVM_fragment, 0, 64)), !dbg !4136
  call void @llvm.dbg.value(metadata i64 %node.sroa.0.07.i.i.i, metadata !4088, metadata !DIExpression(DW_OP_LLVM_fragment, 64, 64)), !dbg !4136
  call void @llvm.dbg.value(metadata ptr %node2.sroa.0.08.i.i.i, metadata !4137, metadata !DIExpression(DW_OP_LLVM_fragment, 0, 64)), !dbg !4155
  call void @llvm.dbg.value(metadata i64 %node.sroa.0.07.i.i.i, metadata !4137, metadata !DIExpression(DW_OP_LLVM_fragment, 64, 64)), !dbg !4155
  call void @llvm.dbg.value(metadata i64 0, metadata !4137, metadata !DIExpression(DW_OP_LLVM_fragment, 128, 64)), !dbg !4155
  call void @llvm.dbg.value(metadata ptr %node2.sroa.0.08.i.i.i, metadata !4150, metadata !DIExpression()), !dbg !4157
  %_6.i.i.i.i = getelementptr inbounds i8, ptr %node2.sroa.0.08.i.i.i, i64 368, !dbg !4158
  call void @llvm.dbg.value(metadata ptr %_6.i.i.i.i, metadata !4159, metadata !DIExpression()), !dbg !4168
  call void @llvm.dbg.value(metadata ptr %_6.i.i.i.i, metadata !4170, metadata !DIExpression()), !dbg !4177
  call void @llvm.dbg.value(metadata ptr %_6.i.i.i.i, metadata !4179, metadata !DIExpression()), !dbg !4183
  %node.i.i.i.i = load ptr, ptr %_6.i.i.i.i, align 8, !dbg !4185, !noalias !4186, !nonnull !13, !noundef !13
  call void @llvm.dbg.value(metadata ptr %node.i.i.i.i, metadata !4153, metadata !DIExpression()), !dbg !4191
  call void @llvm.dbg.value(metadata ptr %node.i.i.i.i, metadata !4084, metadata !DIExpression(DW_OP_LLVM_fragment, 0, 64)), !dbg !4109
  call void @llvm.dbg.value(metadata i64 %node.sroa.0.07.i.i.i, metadata !4084, metadata !DIExpression(DW_OP_constu, 1, DW_OP_minus, DW_OP_stack_value, DW_OP_LLVM_fragment, 64, 64)), !dbg !4109
  call void @llvm.dbg.value(metadata i64 %node.sroa.0.07.i.i.i, metadata !4110, metadata !DIExpression(DW_OP_constu, 1, DW_OP_minus, DW_OP_stack_value, DW_OP_LLVM_fragment, 64, 64)), !dbg !4133
  call void @llvm.dbg.value(metadata ptr %node.i.i.i.i, metadata !4110, metadata !DIExpression(DW_OP_LLVM_fragment, 0, 64)), !dbg !4133
  call void @llvm.dbg.value(metadata ptr %node.i.i.i.i, metadata !4084, metadata !DIExpression(DW_OP_LLVM_fragment, 0, 64)), !dbg !4109
  call void @llvm.dbg.value(metadata i64 %node.sroa.0.07.i.i.i, metadata !4084, metadata !DIExpression(DW_OP_constu, 1, DW_OP_minus, DW_OP_stack_value, DW_OP_LLVM_fragment, 64, 64)), !dbg !4109
  call void @llvm.dbg.value(metadata ptr %node.i.i.i.i, metadata !4088, metadata !DIExpression(DW_OP_LLVM_fragment, 0, 64)), !dbg !4136
  call void @llvm.dbg.value(metadata i64 %node.sroa.0.07.i.i.i, metadata !4088, metadata !DIExpression(DW_OP_constu, 1, DW_OP_minus, DW_OP_stack_value, DW_OP_LLVM_fragment, 64, 64)), !dbg !4136
  call void @llvm.dbg.value(metadata ptr %node.i.i.i.i, metadata !4137, metadata !DIExpression(DW_OP_LLVM_fragment, 0, 64)), !dbg !4155
  call void @llvm.dbg.value(metadata i64 %node.sroa.0.07.i.i.i, metadata !4137, metadata !DIExpression(DW_OP_constu, 1, DW_OP_minus, DW_OP_stack_value, DW_OP_LLVM_fragment, 64, 64)), !dbg !4155
  call void @llvm.dbg.value(metadata i64 0, metadata !4137, metadata !DIExpression(DW_OP_LLVM_fragment, 128, 64)), !dbg !4155
  call void @llvm.dbg.value(metadata ptr %node.i.i.i.i, metadata !4150, metadata !DIExpression()), !dbg !4157
  %_6.i.i.i.i.1 = getelementptr inbounds i8, ptr %node.i.i.i.i, i64 368, !dbg !4158
  call void @llvm.dbg.value(metadata ptr %_6.i.i.i.i.1, metadata !4159, metadata !DIExpression()), !dbg !4168
  call void @llvm.dbg.value(metadata ptr %_6.i.i.i.i.1, metadata !4170, metadata !DIExpression()), !dbg !4177
  call void @llvm.dbg.value(metadata ptr %_6.i.i.i.i.1, metadata !4179, metadata !DIExpression()), !dbg !4183
  %node.i.i.i.i.1 = load ptr, ptr %_6.i.i.i.i.1, align 8, !dbg !4185, !noalias !4186, !nonnull !13, !noundef !13
  call void @llvm.dbg.value(metadata ptr %node.i.i.i.i.1, metadata !4153, metadata !DIExpression()), !dbg !4191
  call void @llvm.dbg.value(metadata ptr %node.i.i.i.i.1, metadata !4084, metadata !DIExpression(DW_OP_LLVM_fragment, 0, 64)), !dbg !4109
  call void @llvm.dbg.value(metadata i64 %node.sroa.0.07.i.i.i, metadata !4084, metadata !DIExpression(DW_OP_constu, 2, DW_OP_minus, DW_OP_stack_value, DW_OP_LLVM_fragment, 64, 64)), !dbg !4109
  call void @llvm.dbg.value(metadata i64 %node.sroa.0.07.i.i.i, metadata !4110, metadata !DIExpression(DW_OP_constu, 2, DW_OP_minus, DW_OP_stack_value, DW_OP_LLVM_fragment, 64, 64)), !dbg !4133
  call void @llvm.dbg.value(metadata ptr %node.i.i.i.i.1, metadata !4110, metadata !DIExpression(DW_OP_LLVM_fragment, 0, 64)), !dbg !4133
  call void @llvm.dbg.value(metadata ptr %node.i.i.i.i.1, metadata !4084, metadata !DIExpression(DW_OP_LLVM_fragment, 0, 64)), !dbg !4109
  call void @llvm.dbg.value(metadata i64 %node.sroa.0.07.i.i.i, metadata !4084, metadata !DIExpression(DW_OP_constu, 2, DW_OP_minus, DW_OP_stack_value, DW_OP_LLVM_fragment, 64, 64)), !dbg !4109
  call void @llvm.dbg.value(metadata ptr %node.i.i.i.i.1, metadata !4088, metadata !DIExpression(DW_OP_LLVM_fragment, 0, 64)), !dbg !4136
  call void @llvm.dbg.value(metadata i64 %node.sroa.0.07.i.i.i, metadata !4088, metadata !DIExpression(DW_OP_constu, 2, DW_OP_minus, DW_OP_stack_value, DW_OP_LLVM_fragment, 64, 64)), !dbg !4136
  call void @llvm.dbg.value(metadata ptr %node.i.i.i.i.1, metadata !4137, metadata !DIExpression(DW_OP_LLVM_fragment, 0, 64)), !dbg !4155
  call void @llvm.dbg.value(metadata i64 %node.sroa.0.07.i.i.i, metadata !4137, metadata !DIExpression(DW_OP_constu, 2, DW_OP_minus, DW_OP_stack_value, DW_OP_LLVM_fragment, 64, 64)), !dbg !4155
  call void @llvm.dbg.value(metadata i64 0, metadata !4137, metadata !DIExpression(DW_OP_LLVM_fragment, 128, 64)), !dbg !4155
  call void @llvm.dbg.value(metadata ptr %node.i.i.i.i.1, metadata !4150, metadata !DIExpression()), !dbg !4157
  %_6.i.i.i.i.2 = getelementptr inbounds i8, ptr %node.i.i.i.i.1, i64 368, !dbg !4158
  call void @llvm.dbg.value(metadata ptr %_6.i.i.i.i.2, metadata !4159, metadata !DIExpression()), !dbg !4168
  call void @llvm.dbg.value(metadata ptr %_6.i.i.i.i.2, metadata !4170, metadata !DIExpression()), !dbg !4177
  call void @llvm.dbg.value(metadata ptr %_6.i.i.i.i.2, metadata !4179, metadata !DIExpression()), !dbg !4183
  %node.i.i.i.i.2 = load ptr, ptr %_6.i.i.i.i.2, align 8, !dbg !4185, !noalias !4186, !nonnull !13, !noundef !13
  call void @llvm.dbg.value(metadata ptr %node.i.i.i.i.2, metadata !4153, metadata !DIExpression()), !dbg !4191
  call void @llvm.dbg.value(metadata ptr %node.i.i.i.i.2, metadata !4084, metadata !DIExpression(DW_OP_LLVM_fragment, 0, 64)), !dbg !4109
  call void @llvm.dbg.value(metadata i64 %node.sroa.0.07.i.i.i, metadata !4084, metadata !DIExpression(DW_OP_constu, 3, DW_OP_minus, DW_OP_stack_value, DW_OP_LLVM_fragment, 64, 64)), !dbg !4109
  call void @llvm.dbg.value(metadata i64 %node.sroa.0.07.i.i.i, metadata !4110, metadata !DIExpression(DW_OP_constu, 3, DW_OP_minus, DW_OP_stack_value, DW_OP_LLVM_fragment, 64, 64)), !dbg !4133
  call void @llvm.dbg.value(metadata ptr %node.i.i.i.i.2, metadata !4110, metadata !DIExpression(DW_OP_LLVM_fragment, 0, 64)), !dbg !4133
  call void @llvm.dbg.value(metadata ptr %node.i.i.i.i.2, metadata !4084, metadata !DIExpression(DW_OP_LLVM_fragment, 0, 64)), !dbg !4109
  call void @llvm.dbg.value(metadata i64 %node.sroa.0.07.i.i.i, metadata !4084, metadata !DIExpression(DW_OP_constu, 3, DW_OP_minus, DW_OP_stack_value, DW_OP_LLVM_fragment, 64, 64)), !dbg !4109
  call void @llvm.dbg.value(metadata ptr %node.i.i.i.i.2, metadata !4088, metadata !DIExpression(DW_OP_LLVM_fragment, 0, 64)), !dbg !4136
  call void @llvm.dbg.value(metadata i64 %node.sroa.0.07.i.i.i, metadata !4088, metadata !DIExpression(DW_OP_constu, 3, DW_OP_minus, DW_OP_stack_value, DW_OP_LLVM_fragment, 64, 64)), !dbg !4136
  call void @llvm.dbg.value(metadata ptr %node.i.i.i.i.2, metadata !4137, metadata !DIExpression(DW_OP_LLVM_fragment, 0, 64)), !dbg !4155
  call void @llvm.dbg.value(metadata i64 %node.sroa.0.07.i.i.i, metadata !4137, metadata !DIExpression(DW_OP_constu, 3, DW_OP_minus, DW_OP_stack_value, DW_OP_LLVM_fragment, 64, 64)), !dbg !4155
  call void @llvm.dbg.value(metadata i64 0, metadata !4137, metadata !DIExpression(DW_OP_LLVM_fragment, 128, 64)), !dbg !4155
  call void @llvm.dbg.value(metadata ptr %node.i.i.i.i.2, metadata !4150, metadata !DIExpression()), !dbg !4157
  %_6.i.i.i.i.3 = getelementptr inbounds i8, ptr %node.i.i.i.i.2, i64 368, !dbg !4158
  call void @llvm.dbg.value(metadata ptr %_6.i.i.i.i.3, metadata !4159, metadata !DIExpression()), !dbg !4168
  call void @llvm.dbg.value(metadata ptr %_6.i.i.i.i.3, metadata !4170, metadata !DIExpression()), !dbg !4177
  call void @llvm.dbg.value(metadata ptr %_6.i.i.i.i.3, metadata !4179, metadata !DIExpression()), !dbg !4183
  %node.i.i.i.i.3 = load ptr, ptr %_6.i.i.i.i.3, align 8, !dbg !4185, !noalias !4186, !nonnull !13, !noundef !13
  call void @llvm.dbg.value(metadata ptr %node.i.i.i.i.3, metadata !4153, metadata !DIExpression()), !dbg !4191
  call void @llvm.dbg.value(metadata ptr %node.i.i.i.i.3, metadata !4084, metadata !DIExpression(DW_OP_LLVM_fragment, 0, 64)), !dbg !4109
  call void @llvm.dbg.value(metadata i64 %node.sroa.0.07.i.i.i, metadata !4084, metadata !DIExpression(DW_OP_constu, 4, DW_OP_minus, DW_OP_stack_value, DW_OP_LLVM_fragment, 64, 64)), !dbg !4109
  call void @llvm.dbg.value(metadata i64 %node.sroa.0.07.i.i.i, metadata !4110, metadata !DIExpression(DW_OP_constu, 4, DW_OP_minus, DW_OP_stack_value, DW_OP_LLVM_fragment, 64, 64)), !dbg !4133
  call void @llvm.dbg.value(metadata ptr %node.i.i.i.i.3, metadata !4110, metadata !DIExpression(DW_OP_LLVM_fragment, 0, 64)), !dbg !4133
  call void @llvm.dbg.value(metadata ptr %node.i.i.i.i.3, metadata !4084, metadata !DIExpression(DW_OP_LLVM_fragment, 0, 64)), !dbg !4109
  call void @llvm.dbg.value(metadata i64 %node.sroa.0.07.i.i.i, metadata !4084, metadata !DIExpression(DW_OP_constu, 4, DW_OP_minus, DW_OP_stack_value, DW_OP_LLVM_fragment, 64, 64)), !dbg !4109
  call void @llvm.dbg.value(metadata ptr %node.i.i.i.i.3, metadata !4088, metadata !DIExpression(DW_OP_LLVM_fragment, 0, 64)), !dbg !4136
  call void @llvm.dbg.value(metadata i64 %node.sroa.0.07.i.i.i, metadata !4088, metadata !DIExpression(DW_OP_constu, 4, DW_OP_minus, DW_OP_stack_value, DW_OP_LLVM_fragment, 64, 64)), !dbg !4136
  call void @llvm.dbg.value(metadata ptr %node.i.i.i.i.3, metadata !4137, metadata !DIExpression(DW_OP_LLVM_fragment, 0, 64)), !dbg !4155
  call void @llvm.dbg.value(metadata i64 %node.sroa.0.07.i.i.i, metadata !4137, metadata !DIExpression(DW_OP_constu, 4, DW_OP_minus, DW_OP_stack_value, DW_OP_LLVM_fragment, 64, 64)), !dbg !4155
  call void @llvm.dbg.value(metadata i64 0, metadata !4137, metadata !DIExpression(DW_OP_LLVM_fragment, 128, 64)), !dbg !4155
  call void @llvm.dbg.value(metadata ptr %node.i.i.i.i.3, metadata !4150, metadata !DIExpression()), !dbg !4157
  %_6.i.i.i.i.4 = getelementptr inbounds i8, ptr %node.i.i.i.i.3, i64 368, !dbg !4158
  call void @llvm.dbg.value(metadata ptr %_6.i.i.i.i.4, metadata !4159, metadata !DIExpression()), !dbg !4168
  call void @llvm.dbg.value(metadata ptr %_6.i.i.i.i.4, metadata !4170, metadata !DIExpression()), !dbg !4177
  call void @llvm.dbg.value(metadata ptr %_6.i.i.i.i.4, metadata !4179, metadata !DIExpression()), !dbg !4183
  %node.i.i.i.i.4 = load ptr, ptr %_6.i.i.i.i.4, align 8, !dbg !4185, !noalias !4186, !nonnull !13, !noundef !13
  call void @llvm.dbg.value(metadata ptr %node.i.i.i.i.4, metadata !4153, metadata !DIExpression()), !dbg !4191
  call void @llvm.dbg.value(metadata ptr %node.i.i.i.i.4, metadata !4084, metadata !DIExpression(DW_OP_LLVM_fragment, 0, 64)), !dbg !4109
  call void @llvm.dbg.value(metadata i64 %node.sroa.0.07.i.i.i, metadata !4084, metadata !DIExpression(DW_OP_constu, 5, DW_OP_minus, DW_OP_stack_value, DW_OP_LLVM_fragment, 64, 64)), !dbg !4109
  call void @llvm.dbg.value(metadata i64 %node.sroa.0.07.i.i.i, metadata !4110, metadata !DIExpression(DW_OP_constu, 5, DW_OP_minus, DW_OP_stack_value, DW_OP_LLVM_fragment, 64, 64)), !dbg !4133
  call void @llvm.dbg.value(metadata ptr %node.i.i.i.i.4, metadata !4110, metadata !DIExpression(DW_OP_LLVM_fragment, 0, 64)), !dbg !4133
  call void @llvm.dbg.value(metadata ptr %node.i.i.i.i.4, metadata !4084, metadata !DIExpression(DW_OP_LLVM_fragment, 0, 64)), !dbg !4109
  call void @llvm.dbg.value(metadata i64 %node.sroa.0.07.i.i.i, metadata !4084, metadata !DIExpression(DW_OP_constu, 5, DW_OP_minus, DW_OP_stack_value, DW_OP_LLVM_fragment, 64, 64)), !dbg !4109
  call void @llvm.dbg.value(metadata ptr %node.i.i.i.i.4, metadata !4088, metadata !DIExpression(DW_OP_LLVM_fragment, 0, 64)), !dbg !4136
  call void @llvm.dbg.value(metadata i64 %node.sroa.0.07.i.i.i, metadata !4088, metadata !DIExpression(DW_OP_constu, 5, DW_OP_minus, DW_OP_stack_value, DW_OP_LLVM_fragment, 64, 64)), !dbg !4136
  call void @llvm.dbg.value(metadata ptr %node.i.i.i.i.4, metadata !4137, metadata !DIExpression(DW_OP_LLVM_fragment, 0, 64)), !dbg !4155
  call void @llvm.dbg.value(metadata i64 %node.sroa.0.07.i.i.i, metadata !4137, metadata !DIExpression(DW_OP_constu, 5, DW_OP_minus, DW_OP_stack_value, DW_OP_LLVM_fragment, 64, 64)), !dbg !4155
  call void @llvm.dbg.value(metadata i64 0, metadata !4137, metadata !DIExpression(DW_OP_LLVM_fragment, 128, 64)), !dbg !4155
  call void @llvm.dbg.value(metadata ptr %node.i.i.i.i.4, metadata !4150, metadata !DIExpression()), !dbg !4157
  %_6.i.i.i.i.5 = getelementptr inbounds i8, ptr %node.i.i.i.i.4, i64 368, !dbg !4158
  call void @llvm.dbg.value(metadata ptr %_6.i.i.i.i.5, metadata !4159, metadata !DIExpression()), !dbg !4168
  call void @llvm.dbg.value(metadata ptr %_6.i.i.i.i.5, metadata !4170, metadata !DIExpression()), !dbg !4177
  call void @llvm.dbg.value(metadata ptr %_6.i.i.i.i.5, metadata !4179, metadata !DIExpression()), !dbg !4183
  %node.i.i.i.i.5 = load ptr, ptr %_6.i.i.i.i.5, align 8, !dbg !4185, !noalias !4186, !nonnull !13, !noundef !13
  call void @llvm.dbg.value(metadata ptr %node.i.i.i.i.5, metadata !4153, metadata !DIExpression()), !dbg !4191
  call void @llvm.dbg.value(metadata ptr %node.i.i.i.i.5, metadata !4084, metadata !DIExpression(DW_OP_LLVM_fragment, 0, 64)), !dbg !4109
  call void @llvm.dbg.value(metadata i64 %node.sroa.0.07.i.i.i, metadata !4084, metadata !DIExpression(DW_OP_constu, 6, DW_OP_minus, DW_OP_stack_value, DW_OP_LLVM_fragment, 64, 64)), !dbg !4109
  call void @llvm.dbg.value(metadata i64 %node.sroa.0.07.i.i.i, metadata !4110, metadata !DIExpression(DW_OP_constu, 6, DW_OP_minus, DW_OP_stack_value, DW_OP_LLVM_fragment, 64, 64)), !dbg !4133
  call void @llvm.dbg.value(metadata ptr %node.i.i.i.i.5, metadata !4110, metadata !DIExpression(DW_OP_LLVM_fragment, 0, 64)), !dbg !4133
  call void @llvm.dbg.value(metadata ptr %node.i.i.i.i.5, metadata !4084, metadata !DIExpression(DW_OP_LLVM_fragment, 0, 64)), !dbg !4109
  call void @llvm.dbg.value(metadata i64 %node.sroa.0.07.i.i.i, metadata !4084, metadata !DIExpression(DW_OP_constu, 6, DW_OP_minus, DW_OP_stack_value, DW_OP_LLVM_fragment, 64, 64)), !dbg !4109
  call void @llvm.dbg.value(metadata ptr %node.i.i.i.i.5, metadata !4088, metadata !DIExpression(DW_OP_LLVM_fragment, 0, 64)), !dbg !4136
  call void @llvm.dbg.value(metadata i64 %node.sroa.0.07.i.i.i, metadata !4088, metadata !DIExpression(DW_OP_constu, 6, DW_OP_minus, DW_OP_stack_value, DW_OP_LLVM_fragment, 64, 64)), !dbg !4136
  call void @llvm.dbg.value(metadata ptr %node.i.i.i.i.5, metadata !4137, metadata !DIExpression(DW_OP_LLVM_fragment, 0, 64)), !dbg !4155
  call void @llvm.dbg.value(metadata i64 %node.sroa.0.07.i.i.i, metadata !4137, metadata !DIExpression(DW_OP_constu, 6, DW_OP_minus, DW_OP_stack_value, DW_OP_LLVM_fragment, 64, 64)), !dbg !4155
  call void @llvm.dbg.value(metadata i64 0, metadata !4137, metadata !DIExpression(DW_OP_LLVM_fragment, 128, 64)), !dbg !4155
  call void @llvm.dbg.value(metadata ptr %node.i.i.i.i.5, metadata !4150, metadata !DIExpression()), !dbg !4157
  %_6.i.i.i.i.6 = getelementptr inbounds i8, ptr %node.i.i.i.i.5, i64 368, !dbg !4158
  call void @llvm.dbg.value(metadata ptr %_6.i.i.i.i.6, metadata !4159, metadata !DIExpression()), !dbg !4168
  call void @llvm.dbg.value(metadata ptr %_6.i.i.i.i.6, metadata !4170, metadata !DIExpression()), !dbg !4177
  call void @llvm.dbg.value(metadata ptr %_6.i.i.i.i.6, metadata !4179, metadata !DIExpression()), !dbg !4183
  %node.i.i.i.i.6 = load ptr, ptr %_6.i.i.i.i.6, align 8, !dbg !4185, !noalias !4186, !nonnull !13, !noundef !13
  call void @llvm.dbg.value(metadata ptr %node.i.i.i.i.6, metadata !4153, metadata !DIExpression()), !dbg !4191
  call void @llvm.dbg.value(metadata ptr %node.i.i.i.i.6, metadata !4084, metadata !DIExpression(DW_OP_LLVM_fragment, 0, 64)), !dbg !4109
  call void @llvm.dbg.value(metadata i64 %node.sroa.0.07.i.i.i, metadata !4084, metadata !DIExpression(DW_OP_constu, 7, DW_OP_minus, DW_OP_stack_value, DW_OP_LLVM_fragment, 64, 64)), !dbg !4109
  call void @llvm.dbg.value(metadata i64 %node.sroa.0.07.i.i.i, metadata !4110, metadata !DIExpression(DW_OP_constu, 7, DW_OP_minus, DW_OP_stack_value, DW_OP_LLVM_fragment, 64, 64)), !dbg !4133
  call void @llvm.dbg.value(metadata ptr %node.i.i.i.i.6, metadata !4110, metadata !DIExpression(DW_OP_LLVM_fragment, 0, 64)), !dbg !4133
  call void @llvm.dbg.value(metadata ptr %node.i.i.i.i.6, metadata !4084, metadata !DIExpression(DW_OP_LLVM_fragment, 0, 64)), !dbg !4109
  call void @llvm.dbg.value(metadata i64 %node.sroa.0.07.i.i.i, metadata !4084, metadata !DIExpression(DW_OP_constu, 7, DW_OP_minus, DW_OP_stack_value, DW_OP_LLVM_fragment, 64, 64)), !dbg !4109
  call void @llvm.dbg.value(metadata ptr %node.i.i.i.i.6, metadata !4088, metadata !DIExpression(DW_OP_LLVM_fragment, 0, 64)), !dbg !4136
  call void @llvm.dbg.value(metadata i64 %node.sroa.0.07.i.i.i, metadata !4088, metadata !DIExpression(DW_OP_constu, 7, DW_OP_minus, DW_OP_stack_value, DW_OP_LLVM_fragment, 64, 64)), !dbg !4136
  call void @llvm.dbg.value(metadata ptr %node.i.i.i.i.6, metadata !4137, metadata !DIExpression(DW_OP_LLVM_fragment, 0, 64)), !dbg !4155
  call void @llvm.dbg.value(metadata i64 %node.sroa.0.07.i.i.i, metadata !4137, metadata !DIExpression(DW_OP_constu, 7, DW_OP_minus, DW_OP_stack_value, DW_OP_LLVM_fragment, 64, 64)), !dbg !4155
  call void @llvm.dbg.value(metadata i64 0, metadata !4137, metadata !DIExpression(DW_OP_LLVM_fragment, 128, 64)), !dbg !4155
  call void @llvm.dbg.value(metadata ptr %node.i.i.i.i.6, metadata !4150, metadata !DIExpression()), !dbg !4157
  %_6.i.i.i.i.7 = getelementptr inbounds i8, ptr %node.i.i.i.i.6, i64 368, !dbg !4158
  call void @llvm.dbg.value(metadata ptr %_6.i.i.i.i.7, metadata !4159, metadata !DIExpression()), !dbg !4168
  call void @llvm.dbg.value(metadata ptr %_6.i.i.i.i.7, metadata !4170, metadata !DIExpression()), !dbg !4177
  call void @llvm.dbg.value(metadata ptr %_6.i.i.i.i.7, metadata !4179, metadata !DIExpression()), !dbg !4183
  %node.i.i.i.i.7 = load ptr, ptr %_6.i.i.i.i.7, align 8, !dbg !4185, !noalias !4186, !nonnull !13, !noundef !13
  call void @llvm.dbg.value(metadata ptr %node.i.i.i.i.7, metadata !4153, metadata !DIExpression()), !dbg !4191
  %_8.i.i.i.i.7 = add i64 %node.sroa.0.07.i.i.i, -8, !dbg !4192
  call void @llvm.dbg.value(metadata ptr %node.i.i.i.i.7, metadata !4084, metadata !DIExpression(DW_OP_LLVM_fragment, 0, 64)), !dbg !4109
  call void @llvm.dbg.value(metadata i64 %_8.i.i.i.i.7, metadata !4084, metadata !DIExpression(DW_OP_LLVM_fragment, 64, 64)), !dbg !4109
  call void @llvm.dbg.value(metadata i64 %_8.i.i.i.i.7, metadata !4110, metadata !DIExpression(DW_OP_LLVM_fragment, 64, 64)), !dbg !4133
  call void @llvm.dbg.value(metadata ptr %node.i.i.i.i.7, metadata !4110, metadata !DIExpression(DW_OP_LLVM_fragment, 0, 64)), !dbg !4133
  %6 = icmp eq i64 %_8.i.i.i.i.7, 0, !dbg !4135
  br i1 %6, label %bb2.i, label %bb4.i.i.i, !dbg !4135

bb2.i:                                            ; preds = %bb4.i.i.i.prol.loopexit, %bb4.i.i.i, %bb3.i.i, %bb8.i.i
  %_3.sroa.8.0.ph.i = phi ptr [ %result.sroa.5.sroa.5.0.copyload.i.i, %bb8.i.i ], [ null, %bb3.i.i ], [ null, %bb4.i.i.i ], [ null, %bb4.i.i.i.prol.loopexit ]
  %_3.sroa.0.0.ph.i = phi ptr [ %result.sroa.5.sroa.0.0.copyload.i.i, %bb8.i.i ], [ %result.sroa.5.sroa.5.0.copyload.i.i, %bb3.i.i ], [ %node.i.i.i.i.lcssa.unr, %bb4.i.i.i.prol.loopexit ], [ %node.i.i.i.i.7, %bb4.i.i.i ]
  call void @llvm.dbg.value(metadata ptr %_3.sroa.0.0.ph.i, metadata !3958, metadata !DIExpression(DW_OP_LLVM_fragment, 0, 64)), !dbg !4195
  %7 = ptrtoint ptr %_3.sroa.8.0.ph.i to i64, !dbg !4196
  call void @llvm.dbg.value(metadata i64 %7, metadata !3958, metadata !DIExpression(DW_OP_LLVM_fragment, 64, 64)), !dbg !4195
  call void @llvm.dbg.value(metadata i64 poison, metadata !3958, metadata !DIExpression(DW_OP_LLVM_fragment, 128, 64)), !dbg !4195
  call void @llvm.dbg.declare(metadata ptr undef, metadata !4197, metadata !DIExpression()), !dbg !4214
  call void @llvm.dbg.declare(metadata ptr poison, metadata !4203, metadata !DIExpression()), !dbg !4216
  call void @llvm.dbg.value(metadata ptr %_3.sroa.0.0.ph.i, metadata !4204, metadata !DIExpression(DW_OP_LLVM_fragment, 0, 64)), !dbg !4217
  call void @llvm.dbg.value(metadata i64 %7, metadata !4204, metadata !DIExpression(DW_OP_LLVM_fragment, 64, 64)), !dbg !4217
  call void @llvm.dbg.value(metadata i64 poison, metadata !4204, metadata !DIExpression(DW_OP_LLVM_fragment, 128, 64)), !dbg !4217
  call void @llvm.dbg.value(metadata ptr %_3.sroa.0.0.ph.i, metadata !4218, metadata !DIExpression(DW_OP_LLVM_fragment, 0, 64)), !dbg !4244
  call void @llvm.dbg.value(metadata i64 %7, metadata !4218, metadata !DIExpression(DW_OP_LLVM_fragment, 64, 64)), !dbg !4244
  call void @llvm.dbg.declare(metadata ptr poison, metadata !4237, metadata !DIExpression()), !dbg !4246
  call void @llvm.dbg.value(metadata i64 %7, metadata !4238, metadata !DIExpression()), !dbg !4247
  call void @llvm.dbg.value(metadata ptr %_3.sroa.0.0.ph.i, metadata !4240, metadata !DIExpression()), !dbg !4248
  call void @llvm.dbg.value(metadata ptr %_3.sroa.0.0.ph.i, metadata !4249, metadata !DIExpression(DW_OP_LLVM_fragment, 0, 64)), !dbg !4272
  call void @llvm.dbg.value(metadata i64 %7, metadata !4249, metadata !DIExpression(DW_OP_LLVM_fragment, 64, 64)), !dbg !4272
  call void @llvm.dbg.value(metadata ptr %_3.sroa.0.0.ph.i, metadata !4270, metadata !DIExpression()), !dbg !4274
  %8 = getelementptr inbounds i8, ptr %_3.sroa.0.0.ph.i, i64 352, !dbg !4275
  %9 = load ptr, ptr %8, align 16, !dbg !4275, !noalias !4276, !noundef !13
  call void @llvm.dbg.value(metadata ptr undef, metadata !4281, metadata !DIExpression()), !dbg !4305
  %10 = icmp eq ptr %9, null, !dbg !4307
  br i1 %10, label %"_ZN5alloc11collections5btree8navigate263_$LT$impl$u20$alloc..collections..btree..node..Handle$LT$alloc..collections..btree..node..NodeRef$LT$alloc..collections..btree..node..marker..Dying$C$K$C$V$C$alloc..collections..btree..node..marker..Leaf$GT$$C$alloc..collections..btree..node..marker..Edge$GT$$GT$16deallocating_end17heb7afd8c41e913ebE.exit.i", label %bb4.i.i, !dbg !4308

bb4.i.i:                                          ; preds = %bb2.i, %bb4.i.i
  %11 = phi ptr [ %13, %bb4.i.i ], [ %9, %bb2.i ]
  %edge.sroa.0.05.i.i = phi ptr [ %11, %bb4.i.i ], [ %_3.sroa.0.0.ph.i, %bb2.i ]
  %edge.sroa.5.04.i.i = phi i64 [ %height.i.i.i.i, %bb4.i.i ], [ %7, %bb2.i ]
  call void @llvm.dbg.value(metadata ptr %edge.sroa.0.05.i.i, metadata !4204, metadata !DIExpression(DW_OP_LLVM_fragment, 0, 64)), !dbg !4217
  call void @llvm.dbg.value(metadata i64 %edge.sroa.5.04.i.i, metadata !4204, metadata !DIExpression(DW_OP_LLVM_fragment, 64, 64)), !dbg !4217
  call void @llvm.dbg.value(metadata ptr undef, metadata !4309, metadata !DIExpression()), !dbg !4329
  call void @llvm.dbg.value(metadata ptr poison, metadata !4326, metadata !DIExpression(DW_OP_LLVM_fragment, 0, 64)), !dbg !4329
  call void @llvm.dbg.value(metadata ptr undef, metadata !4326, metadata !DIExpression(DW_OP_LLVM_fragment, 64, 64)), !dbg !4329
  call void @llvm.dbg.value(metadata ptr undef, metadata !4327, metadata !DIExpression()), !dbg !4331
  call void @llvm.dbg.value(metadata ptr undef, metadata !4332, metadata !DIExpression()), !dbg !4340
  call void @llvm.dbg.value(metadata ptr poison, metadata !4338, metadata !DIExpression(DW_OP_deref)), !dbg !4340
  call void @llvm.dbg.value(metadata ptr undef, metadata !4339, metadata !DIExpression(DW_OP_deref)), !dbg !4340
  %height.i.i.i.i = add i64 %edge.sroa.5.04.i.i, 1, !dbg !4342
  call void @llvm.dbg.value(metadata i64 poison, metadata !4242, metadata !DIExpression(DW_OP_LLVM_fragment, 128, 64)), !dbg !4343
  call void @llvm.dbg.value(metadata i64 %height.i.i.i.i, metadata !4242, metadata !DIExpression(DW_OP_LLVM_fragment, 64, 64)), !dbg !4343
  call void @llvm.dbg.value(metadata ptr %11, metadata !4242, metadata !DIExpression(DW_OP_LLVM_fragment, 0, 64)), !dbg !4343
  %_11.not.i.i.i = icmp eq i64 %edge.sroa.5.04.i.i, 0, !dbg !4344
  %..i.i.i = select i1 %_11.not.i.i.i, i64 368, i64 464, !dbg !4343
  call void @llvm.dbg.value(metadata i64 16, metadata !1811, metadata !DIExpression(DW_OP_LLVM_fragment, 0, 64)), !dbg !4345
  call void @llvm.dbg.value(metadata i64 %..i.i.i, metadata !1811, metadata !DIExpression(DW_OP_LLVM_fragment, 64, 64)), !dbg !4345
  call void @llvm.dbg.value(metadata ptr undef, metadata !1816, metadata !DIExpression()), !dbg !4345
  call void @llvm.dbg.value(metadata ptr %edge.sroa.0.05.i.i, metadata !1817, metadata !DIExpression()), !dbg !4345
  call void @llvm.dbg.value(metadata ptr %edge.sroa.0.05.i.i, metadata !1820, metadata !DIExpression()), !dbg !4347
  call void @llvm.dbg.value(metadata i64 16, metadata !1826, metadata !DIExpression(DW_OP_LLVM_fragment, 0, 64)), !dbg !4347
  call void @llvm.dbg.value(metadata i64 %..i.i.i, metadata !1826, metadata !DIExpression(DW_OP_LLVM_fragment, 64, 64)), !dbg !4347
  tail call void @__rust_dealloc(ptr noundef nonnull %edge.sroa.0.05.i.i, i64 noundef %..i.i.i, i64 noundef 16) #16, !dbg !4349, !noalias !4350
  call void @llvm.dbg.value(metadata i64 %height.i.i.i.i, metadata !4212, metadata !DIExpression(DW_OP_LLVM_fragment, 64, 64)), !dbg !4351
  call void @llvm.dbg.value(metadata ptr %11, metadata !4212, metadata !DIExpression(DW_OP_LLVM_fragment, 0, 64)), !dbg !4351
  call void @llvm.dbg.value(metadata i64 poison, metadata !4212, metadata !DIExpression(DW_OP_LLVM_fragment, 128, 64)), !dbg !4351
  call void @llvm.dbg.value(metadata ptr %11, metadata !4204, metadata !DIExpression(DW_OP_LLVM_fragment, 0, 64)), !dbg !4217
  call void @llvm.dbg.value(metadata i64 %height.i.i.i.i, metadata !4204, metadata !DIExpression(DW_OP_LLVM_fragment, 64, 64)), !dbg !4217
  call void @llvm.dbg.value(metadata i64 poison, metadata !4204, metadata !DIExpression(DW_OP_LLVM_fragment, 128, 64)), !dbg !4217
  call void @llvm.dbg.value(metadata ptr %11, metadata !4218, metadata !DIExpression(DW_OP_LLVM_fragment, 0, 64)), !dbg !4244
  call void @llvm.dbg.value(metadata i64 %height.i.i.i.i, metadata !4218, metadata !DIExpression(DW_OP_LLVM_fragment, 64, 64)), !dbg !4244
  call void @llvm.dbg.declare(metadata ptr poison, metadata !4237, metadata !DIExpression()), !dbg !4246
  call void @llvm.dbg.value(metadata i64 %height.i.i.i.i, metadata !4238, metadata !DIExpression()), !dbg !4247
  call void @llvm.dbg.value(metadata ptr %11, metadata !4240, metadata !DIExpression()), !dbg !4248
  call void @llvm.dbg.value(metadata ptr %11, metadata !4249, metadata !DIExpression(DW_OP_LLVM_fragment, 0, 64)), !dbg !4272
  call void @llvm.dbg.value(metadata i64 %height.i.i.i.i, metadata !4249, metadata !DIExpression(DW_OP_LLVM_fragment, 64, 64)), !dbg !4272
  call void @llvm.dbg.value(metadata ptr %11, metadata !4270, metadata !DIExpression()), !dbg !4274
  %12 = getelementptr inbounds i8, ptr %11, i64 352, !dbg !4275
  %13 = load ptr, ptr %12, align 16, !dbg !4275, !noalias !4276, !noundef !13
  call void @llvm.dbg.value(metadata ptr undef, metadata !4281, metadata !DIExpression()), !dbg !4305
  %14 = icmp eq ptr %13, null, !dbg !4307
  br i1 %14, label %"_ZN5alloc11collections5btree8navigate263_$LT$impl$u20$alloc..collections..btree..node..Handle$LT$alloc..collections..btree..node..NodeRef$LT$alloc..collections..btree..node..marker..Dying$C$K$C$V$C$alloc..collections..btree..node..marker..Leaf$GT$$C$alloc..collections..btree..node..marker..Edge$GT$$GT$16deallocating_end17heb7afd8c41e913ebE.exit.i", label %bb4.i.i, !dbg !4308

"_ZN5alloc11collections5btree8navigate263_$LT$impl$u20$alloc..collections..btree..node..Handle$LT$alloc..collections..btree..node..NodeRef$LT$alloc..collections..btree..node..marker..Dying$C$K$C$V$C$alloc..collections..btree..node..marker..Leaf$GT$$C$alloc..collections..btree..node..marker..Edge$GT$$GT$16deallocating_end17heb7afd8c41e913ebE.exit.i": ; preds = %bb4.i.i, %bb2.i
  %edge.sroa.5.0.lcssa.i.i = phi i64 [ %7, %bb2.i ], [ %height.i.i.i.i, %bb4.i.i ], !dbg !4352
  %edge.sroa.0.0.lcssa.i.i = phi ptr [ %_3.sroa.0.0.ph.i, %bb2.i ], [ %11, %bb4.i.i ], !dbg !4352
  call void @llvm.dbg.value(metadata ptr null, metadata !4309, metadata !DIExpression()), !dbg !4329
  call void @llvm.dbg.value(metadata ptr poison, metadata !4326, metadata !DIExpression(DW_OP_LLVM_fragment, 0, 64)), !dbg !4329
  call void @llvm.dbg.value(metadata ptr undef, metadata !4326, metadata !DIExpression(DW_OP_LLVM_fragment, 64, 64)), !dbg !4329
  call void @llvm.dbg.value(metadata i64 poison, metadata !4242, metadata !DIExpression(DW_OP_LLVM_fragment, 128, 64)), !dbg !4343
  call void @llvm.dbg.value(metadata i64 poison, metadata !4242, metadata !DIExpression(DW_OP_LLVM_fragment, 64, 64)), !dbg !4343
  call void @llvm.dbg.value(metadata ptr undef, metadata !4242, metadata !DIExpression(DW_OP_LLVM_fragment, 0, 64)), !dbg !4343
  %_11.not.i2.i.i = icmp eq i64 %edge.sroa.5.0.lcssa.i.i, 0, !dbg !4344
  %..i3.i.i = select i1 %_11.not.i2.i.i, i64 368, i64 464, !dbg !4343
  call void @llvm.dbg.value(metadata i64 16, metadata !1811, metadata !DIExpression(DW_OP_LLVM_fragment, 0, 64)), !dbg !4345
  call void @llvm.dbg.value(metadata i64 %..i3.i.i, metadata !1811, metadata !DIExpression(DW_OP_LLVM_fragment, 64, 64)), !dbg !4345
  call void @llvm.dbg.value(metadata ptr undef, metadata !1816, metadata !DIExpression()), !dbg !4345
  call void @llvm.dbg.value(metadata ptr %edge.sroa.0.0.lcssa.i.i, metadata !1817, metadata !DIExpression()), !dbg !4345
  call void @llvm.dbg.value(metadata ptr %edge.sroa.0.0.lcssa.i.i, metadata !1820, metadata !DIExpression()), !dbg !4347
  call void @llvm.dbg.value(metadata i64 16, metadata !1826, metadata !DIExpression(DW_OP_LLVM_fragment, 0, 64)), !dbg !4347
  call void @llvm.dbg.value(metadata i64 %..i3.i.i, metadata !1826, metadata !DIExpression(DW_OP_LLVM_fragment, 64, 64)), !dbg !4347
  tail call void @__rust_dealloc(ptr noundef nonnull %edge.sroa.0.0.lcssa.i.i, i64 noundef %..i3.i.i, i64 noundef 16) #16, !dbg !4349, !noalias !4350
  br label %"_ZN5alloc11collections5btree8navigate75LazyLeafRange$LT$alloc..collections..btree..node..marker..Dying$C$K$C$V$GT$16deallocating_end17he819e60ebe316b7bE.exit", !dbg !4353

"_ZN5alloc11collections5btree8navigate75LazyLeafRange$LT$alloc..collections..btree..node..marker..Dying$C$K$C$V$GT$16deallocating_end17he819e60ebe316b7bE.exit": ; preds = %bb1, %"_ZN5alloc11collections5btree8navigate263_$LT$impl$u20$alloc..collections..btree..node..Handle$LT$alloc..collections..btree..node..NodeRef$LT$alloc..collections..btree..node..marker..Dying$C$K$C$V$C$alloc..collections..btree..node..marker..Leaf$GT$$C$alloc..collections..btree..node..marker..Edge$GT$$GT$16deallocating_end17heb7afd8c41e913ebE.exit.i"
  store ptr null, ptr %_0, align 8, !dbg !4354
  br label %bb7, !dbg !4355

bb4:                                              ; preds = %start
  %15 = add i64 %_2, -1, !dbg !4356
  store i64 %15, ptr %0, align 8, !dbg !4356
  tail call void @llvm.experimental.noalias.scope.decl(metadata !4357), !dbg !4360
  call void @llvm.dbg.value(metadata ptr %self, metadata !4361, metadata !DIExpression()), !dbg !4371
  call void @llvm.dbg.declare(metadata ptr undef, metadata !4367, metadata !DIExpression()), !dbg !4373
  call void @llvm.dbg.declare(metadata ptr undef, metadata !4374, metadata !DIExpression()), !dbg !4382
  tail call void @llvm.experimental.noalias.scope.decl(metadata !4384), !dbg !4387
  call void @llvm.dbg.value(metadata ptr %self, metadata !4388, metadata !DIExpression()), !dbg !4412
  %_3.i.i = load i64, ptr %self, align 8, !dbg !4414, !range !1274, !alias.scope !4415, !noalias !4416, !noundef !13
  %trunc.not.not.i.i = icmp eq i64 %_3.i.i, 0, !dbg !4414
  br i1 %trunc.not.not.i.i, label %bb6.i, label %bb1.i.i, !dbg !4414

bb1.i.i:                                          ; preds = %bb4
  %16 = getelementptr inbounds i8, ptr %self, i64 8, !dbg !4414
  %17 = load ptr, ptr %16, align 8, !dbg !4414, !alias.scope !4357, !noalias !4416, !noundef !13
  %18 = icmp eq ptr %17, null, !dbg !4414
  %19 = getelementptr inbounds i8, ptr %self, i64 16
  %20 = getelementptr inbounds i8, ptr %self, i64 24
  %_8.1.i.i = load i64, ptr %20, align 8, !dbg !4371, !alias.scope !4357, !noalias !4416
  br i1 %18, label %bb2.i.i, label %bb1.i.bb7_crit_edge.i, !dbg !4414

bb1.i.bb7_crit_edge.i:                            ; preds = %bb1.i.i
  %value.sroa.2.0.copyload.i.pre.i = load i64, ptr %19, align 8, !dbg !4418, !alias.scope !4453, !noalias !4456
  br label %bb7.i, !dbg !4414

bb2.i.i:                                          ; preds = %bb1.i.i
  call void @llvm.dbg.value(metadata ptr %16, metadata !4407, metadata !DIExpression(DW_OP_plus_uconst, 8, DW_OP_stack_value)), !dbg !4458
  call void @llvm.dbg.value(metadata ptr %16, metadata !4459, metadata !DIExpression(DW_OP_plus_uconst, 8, DW_OP_stack_value)), !dbg !4468
  %_8.0.i.i = load ptr, ptr %19, align 8, !dbg !4470, !alias.scope !4415, !noalias !4416, !nonnull !13, !noundef !13
  call void @llvm.dbg.value(metadata ptr %_8.0.i.i, metadata !4078, metadata !DIExpression(DW_OP_LLVM_fragment, 0, 64)), !dbg !4471
  call void @llvm.dbg.value(metadata i64 %_8.1.i.i, metadata !4078, metadata !DIExpression(DW_OP_LLVM_fragment, 64, 64)), !dbg !4471
  call void @llvm.dbg.value(metadata i64 %_8.1.i.i, metadata !4084, metadata !DIExpression(DW_OP_LLVM_fragment, 64, 64)), !dbg !4473
  call void @llvm.dbg.value(metadata ptr %_8.0.i.i, metadata !4084, metadata !DIExpression(DW_OP_LLVM_fragment, 0, 64)), !dbg !4473
  call void @llvm.dbg.value(metadata i64 %_8.1.i.i, metadata !4110, metadata !DIExpression(DW_OP_LLVM_fragment, 64, 64)), !dbg !4474
  call void @llvm.dbg.value(metadata ptr %_8.0.i.i, metadata !4110, metadata !DIExpression(DW_OP_LLVM_fragment, 0, 64)), !dbg !4474
  %21 = icmp eq i64 %_8.1.i.i, 0, !dbg !4476
  br i1 %21, label %"_ZN5alloc11collections5btree8navigate39LazyLeafRange$LT$BorrowType$C$K$C$V$GT$10init_front17h742bf9d5a01e9025E.exit.thread10.i", label %bb4.i.i.i1.preheader, !dbg !4476

bb4.i.i.i1.preheader:                             ; preds = %bb2.i.i
  %xtraiter = and i64 %_8.1.i.i, 7, !dbg !4476
  %lcmp.mod.not = icmp eq i64 %xtraiter, 0, !dbg !4476
  br i1 %lcmp.mod.not, label %bb4.i.i.i1.prol.loopexit, label %bb4.i.i.i1.prol, !dbg !4476

bb4.i.i.i1.prol:                                  ; preds = %bb4.i.i.i1.preheader, %bb4.i.i.i1.prol
  %node2.sroa.0.08.i.i.i2.prol = phi ptr [ %node.i.i.i.i5.prol, %bb4.i.i.i1.prol ], [ %_8.0.i.i, %bb4.i.i.i1.preheader ]
  %node.sroa.0.07.i.i.i3.prol = phi i64 [ %_8.i.i.i.i6.prol, %bb4.i.i.i1.prol ], [ %_8.1.i.i, %bb4.i.i.i1.preheader ]
  %prol.iter = phi i64 [ %prol.iter.next, %bb4.i.i.i1.prol ], [ 0, %bb4.i.i.i1.preheader ]
  call void @llvm.dbg.value(metadata ptr %node2.sroa.0.08.i.i.i2.prol, metadata !4084, metadata !DIExpression(DW_OP_LLVM_fragment, 0, 64)), !dbg !4473
