; ModuleID = 'spawn.286bc830a0e37119-cgu.0'
source_filename = "spawn.286bc830a0e37119-cgu.0"
target datalayout = "e-m:e-p270:32:32-p271:32:32-p272:64:64-i64:64-i128:128-f80:128-n8:16:32:64-S128"
target triple = "x86_64-unknown-linux-gnu"

%"std::sys::thread_local::fast_local::lazy::Storage<core::cell::RefCell<(parking::Parker, core::task::wake::Waker)>, ()>" = type { %"core::cell::UnsafeCell<std::sys::thread_local::fast_local::lazy::State<core::cell::RefCell<(parking::Parker, core::task::wake::Waker)>, ()>>" }
%"core::cell::UnsafeCell<std::sys::thread_local::fast_local::lazy::State<core::cell::RefCell<(parking::Parker, core::task::wake::Waker)>, ()>>" = type { %"std::sys::thread_local::fast_local::lazy::State<core::cell::RefCell<(parking::Parker, core::task::wake::Waker)>, ()>" }
%"std::sys::thread_local::fast_local::lazy::State<core::cell::RefCell<(parking::Parker, core::task::wake::Waker)>, ()>" = type { i64, [4 x i64] }

@alloc_1ccfc410ce4ba7704b8709f0d6e60294 = private unnamed_addr constant <{ [51 x i8] }> <{ [51 x i8] c"fatal runtime error: thread local panicked on drop\0A" }>, align 1
@alloc_f7c18d5ab6a04e64e435b4d6f64423e3 = private unnamed_addr constant <{ ptr, [8 x i8] }> <{ ptr @alloc_1ccfc410ce4ba7704b8709f0d6e60294, [8 x i8] c"3\00\00\00\00\00\00\00" }>, align 8
@alloc_3403da4d797952f84a23af0af5e865ca = private unnamed_addr constant <{ [40 x i8] }> <{ [40 x i8] c"\08\00\00\00\00\00\00\008\00\00\00\00\00\00\00(\00\00\00\00\00\00\00(\00\00\00\00\00\00\00(\00\00\00\00\00\00\00" }>, align 8
@alloc_9759292953199ec260c54435f4455cf6 = private unnamed_addr constant <{ ptr, ptr, ptr, ptr }> <{ ptr @"_ZN10async_task3raw28RawTask$LT$F$C$T$C$S$C$M$GT$11clone_waker17h823caf2824168b36E", ptr @"_ZN10async_task3raw28RawTask$LT$F$C$T$C$S$C$M$GT$4wake17ha9fbfb5dc1e9f3f7E", ptr @"_ZN10async_task3raw28RawTask$LT$F$C$T$C$S$C$M$GT$11wake_by_ref17h444ad9fef4e8980dE", ptr @"_ZN10async_task3raw28RawTask$LT$F$C$T$C$S$C$M$GT$10drop_waker17hdd5bc0965d5a06e4E" }>, align 8
@alloc_58433f55ee525f5b690e1c8c423c90c8 = private unnamed_addr constant <{ ptr, ptr, ptr, ptr }> <{ ptr @"_ZN10async_task3raw28RawTask$LT$F$C$T$C$S$C$M$GT$11clone_waker17hed7cb9514b66dd55E", ptr @"_ZN10async_task3raw28RawTask$LT$F$C$T$C$S$C$M$GT$4wake17ha9fbfb5dc1e9f3f7E", ptr @"_ZN10async_task3raw28RawTask$LT$F$C$T$C$S$C$M$GT$11wake_by_ref17h444ad9fef4e8980dE", ptr @"_ZN10async_task3raw28RawTask$LT$F$C$T$C$S$C$M$GT$10drop_waker17hdd5bc0965d5a06e4E" }>, align 8
@alloc_32525df41b4a71929614a1ca1f700d52 = private unnamed_addr constant <{ ptr, ptr, ptr, ptr, ptr, ptr, ptr, ptr }> <{ ptr @"_ZN10async_task3raw28RawTask$LT$F$C$T$C$S$C$M$GT$8schedule17h266d0feb160be71dE", ptr @"_ZN10async_task3raw28RawTask$LT$F$C$T$C$S$C$M$GT$11drop_future17h528d722a714d9b81E", ptr @"_ZN10async_task3raw28RawTask$LT$F$C$T$C$S$C$M$GT$10get_output17h9da173b5e21f3529E", ptr @"_ZN10async_task3raw28RawTask$LT$F$C$T$C$S$C$M$GT$8drop_ref17h52499c462782a34fE", ptr @"_ZN10async_task3raw28RawTask$LT$F$C$T$C$S$C$M$GT$7destroy17h2bce9ad0f75d2030E", ptr @"_ZN10async_task3raw28RawTask$LT$F$C$T$C$S$C$M$GT$3run17hc16b2e5ae2d38fdfE", ptr @"_ZN10async_task3raw28RawTask$LT$F$C$T$C$S$C$M$GT$11clone_waker17h823caf2824168b36E", ptr @alloc_3403da4d797952f84a23af0af5e865ca }>, align 8
@alloc_8297ab764a56b9850f073bd1d6dd450e = private unnamed_addr constant <{ ptr, ptr, ptr, ptr, ptr, ptr, ptr, ptr }> <{ ptr @"_ZN10async_task3raw28RawTask$LT$F$C$T$C$S$C$M$GT$8schedule17h266d0feb160be71dE", ptr @"_ZN10async_task3raw28RawTask$LT$F$C$T$C$S$C$M$GT$11drop_future17h528d722a714d9b81E", ptr @"_ZN10async_task3raw28RawTask$LT$F$C$T$C$S$C$M$GT$10get_output17h9da173b5e21f3529E", ptr @"_ZN10async_task3raw28RawTask$LT$F$C$T$C$S$C$M$GT$8drop_ref17h52499c462782a34fE", ptr @"_ZN10async_task3raw28RawTask$LT$F$C$T$C$S$C$M$GT$7destroy17h2bce9ad0f75d2030E", ptr @"_ZN10async_task3raw28RawTask$LT$F$C$T$C$S$C$M$GT$3run17hfffb3b48d98a1cbbE", ptr @"_ZN10async_task3raw28RawTask$LT$F$C$T$C$S$C$M$GT$11clone_waker17hed7cb9514b66dd55E", ptr @alloc_3403da4d797952f84a23af0af5e865ca }>, align 8
@alloc_2ee7ba9733a263ad3a32ba87b5ec3eae = private unnamed_addr constant <{ [70 x i8] }> <{ [70 x i8] c"cannot access a Thread Local Storage value during or after destruction" }>, align 1
@alloc_60630b0be9fdb524987e48b78df66792 = private unnamed_addr constant <{ [84 x i8] }> <{ [84 x i8] c"/home/arsalan/Documents/Github/unsafe-rust-benchmark/library/std/src/thread/local.rs" }>, align 1
@alloc_b24f42a2b7cb6ac8f25f6ece4dc312d5 = private unnamed_addr constant <{ ptr, [16 x i8] }> <{ ptr @alloc_60630b0be9fdb524987e48b78df66792, [16 x i8] c"T\00\00\00\00\00\00\00\04\01\00\00\1A\00\00\00" }>, align 8
@"_ZN12futures_lite6future8block_on5CACHE29_$u7b$$u7b$constant$u7d$$u7d$28_$u7b$$u7b$closure$u7d$$u7d$3VAL17h3108d5d0e560735aE" = external thread_local global %"std::sys::thread_local::fast_local::lazy::Storage<core::cell::RefCell<(parking::Parker, core::task::wake::Waker)>, ()>"
@alloc_8d68fcbc011419193bd208f22e2789d1 = private unnamed_addr constant <{ [28 x i8] }> <{ [28 x i8] c"failed to write whole buffer" }>, align 1
@alloc_626cc8bfd6c94d404aa777557e31db63 = private unnamed_addr constant <{ ptr, [9 x i8], [7 x i8] }> <{ ptr @alloc_8d68fcbc011419193bd208f22e2789d1, [9 x i8] c"\1C\00\00\00\00\00\00\00\17", [7 x i8] undef }>, align 8
@alloc_2316e63258fe9d5bdff37bf003386e61 = private unnamed_addr constant <{ [78 x i8] }> <{ [78 x i8] c"/home/arsalan/Documents/Github/unsafe-rust-benchmark/library/std/src/io/mod.rs" }>, align 1
@alloc_d9fb3a4fb251add6517075192273824f = private unnamed_addr constant <{ ptr, [16 x i8] }> <{ ptr @alloc_2316e63258fe9d5bdff37bf003386e61, [16 x i8] c"N\00\00\00\00\00\00\00\A9\06\00\00$\00\00\00" }>, align 8
@alloc_a439077caaee6bab9af745f1531d72a4 = private unnamed_addr constant <{ [86 x i8] }> <{ [86 x i8] c"a formatting trait implementation returned an error when the underlying stream did not" }>, align 1
@alloc_b715a4cb67d5838cf1e1986f5e19fc38 = private unnamed_addr constant <{ ptr, [8 x i8] }> <{ ptr @alloc_a439077caaee6bab9af745f1531d72a4, [8 x i8] c"V\00\00\00\00\00\00\00" }>, align 8
@vtable.0 = private constant <{ ptr, [16 x i8], ptr, ptr, ptr }> <{ ptr @"_ZN4core3ptr97drop_in_place$LT$std..io..Write..write_fmt..Adapter$LT$std..sys..pal..unix..stdio..Stderr$GT$$GT$17hfccbac54b3f37849E", [16 x i8] c"\10\00\00\00\00\00\00\00\08\00\00\00\00\00\00\00", ptr @"_ZN80_$LT$std..io..Write..write_fmt..Adapter$LT$T$GT$$u20$as$u20$core..fmt..Write$GT$9write_str17h6bc852d2dd516b13E", ptr @_ZN4core3fmt5Write10write_char17h8ba1ee9bd41dc752E, ptr @_ZN4core3fmt5Write9write_fmt17h2a9a4ad62d838c97E }>, align 8, !dbg !0
@alloc_d06916582962d4b81ada4001356ac2bb = private unnamed_addr constant <{ ptr, [16 x i8] }> <{ ptr @alloc_2316e63258fe9d5bdff37bf003386e61, [16 x i8] c"N\00\00\00\00\00\00\004\07\00\00\15\00\00\00" }>, align 8
@vtable.1 = private constant <{ [24 x i8], ptr, ptr, ptr }> <{ [24 x i8] c"\00\00\00\00\00\00\00\00\08\00\00\00\00\00\00\00\08\00\00\00\00\00\00\00", ptr @"_ZN4core3ops8function6FnOnce40call_once$u7b$$u7b$vtable.shim$u7d$$u7d$17he23930cc956aa7b5E", ptr @"_ZN3std2rt10lang_start28_$u7b$$u7b$closure$u7d$$u7d$17hf3ec2737315adbebE", ptr @"_ZN3std2rt10lang_start28_$u7b$$u7b$closure$u7d$$u7d$17hf3ec2737315adbebE" }>, align 8, !dbg !164
@alloc_374c9df73b8540d3e9b0cfbfed1be08c = private unnamed_addr constant <{ [25 x i8] }> <{ [25 x i8] c"overflow in Duration::new" }>, align 1
@alloc_b7c1c22a954085a45dacf7c670d25258 = private unnamed_addr constant <{ ptr, [8 x i8] }> <{ ptr @alloc_374c9df73b8540d3e9b0cfbfed1be08c, [8 x i8] c"\19\00\00\00\00\00\00\00" }>, align 8
@alloc_8b358ae686d38d8a24608308769d36ed = private unnamed_addr constant <{ [77 x i8] }> <{ [77 x i8] c"/home/arsalan/Documents/Github/unsafe-rust-benchmark/library/core/src/time.rs" }>, align 1
@alloc_780cce55eebcf3006d09c4f4f63d73b0 = private unnamed_addr constant <{ ptr, [16 x i8] }> <{ ptr @alloc_8b358ae686d38d8a24608308769d36ed, [16 x i8] c"M\00\00\00\00\00\00\00\DA\00\00\00\19\00\00\00" }>, align 8
@vtable.2 = private constant <{ [24 x i8], ptr }> <{ [24 x i8] c"\00\00\00\00\00\00\00\00\00\00\00\00\00\00\00\00\01\00\00\00\00\00\00\00", ptr @"_ZN68_$LT$std..thread..local..AccessError$u20$as$u20$core..fmt..Debug$GT$3fmt17hd13d32cbffe56fb6E" }>, align 8, !dbg !182
@alloc_830d8a7ce80e2e7f05fa6e4643272e13 = private unnamed_addr constant <{ [30 x i8] }> <{ [30 x i8] c"overflow when adding durations" }>, align 1
@alloc_0e0ace263d2d43510f52f9b9fd9a0036 = private unnamed_addr constant <{ ptr, [16 x i8] }> <{ ptr @alloc_8b358ae686d38d8a24608308769d36ed, [16 x i8] c"M\00\00\00\00\00\00\00l\04\00\00\1F\00\00\00" }>, align 8
@__rust_no_alloc_shim_is_unstable = external global i8
@alloc_3a85929d6f23c79aa9305a819860dd6e = private unnamed_addr constant <{ [28 x i8] }> <{ [28 x i8] c"Task polled after completion" }>, align 1
@alloc_b371304b0b381a68a37a7e927ec6850e = private unnamed_addr constant <{ [112 x i8] }> <{ [112 x i8] c"/home/arsalan/Documents/Github/unsafe-dyn-rust-expr/lib/finalcrates/Crates-Versions/async-task-4.7.1/src/task.rs" }>, align 1
@alloc_a934e854a0e50883add748ba6e6d07c3 = private unnamed_addr constant <{ ptr, [16 x i8] }> <{ ptr @alloc_b371304b0b381a68a37a7e927ec6850e, [16 x i8] c"p\00\00\00\00\00\00\00\C4\01\00\00-\00\00\00" }>, align 8
@alloc_535feda1c28281756113df2499f3c130 = private unnamed_addr constant <{ [16 x i8] }> <{ [16 x i8] c"benches/spawn.rs" }>, align 1
@alloc_e022a49024d0d9ed84fee10080196c33 = private unnamed_addr constant <{ ptr, [16 x i8] }> <{ ptr @alloc_535feda1c28281756113df2499f3c130, [16 x i8] c"\10\00\00\00\00\00\00\00\0B\00\00\00#\00\00\00" }>, align 8
@alloc_d2e1eb24d5504b2e1af19729d46ee3fa = private unnamed_addr constant <{ ptr, [16 x i8] }> <{ ptr @alloc_535feda1c28281756113df2499f3c130, [16 x i8] c"\10\00\00\00\00\00\00\00\12\00\00\002\00\00\00" }>, align 8
@alloc_cbddf474e3974183e8a9984e97114f46 = private unnamed_addr constant <{ [11 x i8] }> <{ [11 x i8] c"task_create" }>, align 1
@alloc_199e6a1819ba7327a6dda1ac17581442 = private unnamed_addr constant <{ [8 x i8], [16 x i8], [8 x i8], ptr, [8 x i8], [8 x i8], ptr, [16 x i8], [8 x i8], [36 x i8], [4 x i8], [8 x i8], ptr, [8 x i8] }> <{ [8 x i8] zeroinitializer, [16 x i8] undef, [8 x i8] c"\01\00\00\00\00\00\00\80", ptr @alloc_cbddf474e3974183e8a9984e97114f46, [8 x i8] c"\0B\00\00\00\00\00\00\00", [8 x i8] undef, ptr @alloc_535feda1c28281756113df2499f3c130, [16 x i8] c"\10\00\00\00\00\00\00\00\00\00\00\00\00\00\00\00", [8 x i8] undef, [36 x i8] c"\09\00\00\00\00\00\00\00\04\00\00\00\00\00\00\00\09\00\00\00\00\00\00\00\0F\00\00\00\00\00\00\00\00\00\00\03", [4 x i8] undef, [8 x i8] c"\01\00\00\00\00\00\00\00", ptr @_ZN4core3ops8function6FnOnce9call_once17hfeda370a378b4b73E, [8 x i8] undef }>, align 8
@alloc_51f058fed84b816a15bfb0864f58c609 = private unnamed_addr constant <{ [8 x i8] }> <{ [8 x i8] c"task_run" }>, align 1
@alloc_1794e0c0ab9458395fc4d55f000d3899 = private unnamed_addr constant <{ [8 x i8], [16 x i8], [8 x i8], ptr, [8 x i8], [8 x i8], ptr, [16 x i8], [8 x i8], [36 x i8], [4 x i8], [8 x i8], ptr, [8 x i8] }> <{ [8 x i8] zeroinitializer, [16 x i8] undef, [8 x i8] c"\01\00\00\00\00\00\00\80", ptr @alloc_51f058fed84b816a15bfb0864f58c609, [8 x i8] c"\08\00\00\00\00\00\00\00", [8 x i8] undef, ptr @alloc_535feda1c28281756113df2499f3c130, [16 x i8] c"\10\00\00\00\00\00\00\00\00\00\00\00\00\00\00\00", [8 x i8] undef, [36 x i8] c"\10\00\00\00\00\00\00\00\04\00\00\00\00\00\00\00\10\00\00\00\00\00\00\00\0C\00\00\00\00\00\00\00\00\00\00\03", [4 x i8] undef, [8 x i8] c"\01\00\00\00\00\00\00\00", ptr @_ZN4core3ops8function6FnOnce9call_once17h1c661135667cd070E, [8 x i8] undef }>, align 8
@alloc_d20f1c17c9c9d4bc34bf4f1cfa8ebcfd = private unnamed_addr constant <{ ptr, ptr }> <{ ptr @alloc_199e6a1819ba7327a6dda1ac17581442, ptr @alloc_1794e0c0ab9458395fc4d55f000d3899 }>, align 8
@__rustc_debug_gdb_scripts_section__ = linkonce_odr unnamed_addr constant [34 x i8] c"\01gdb_load_rust_pretty_printers.py\00", section ".debug_gdb_scripts", align 1
@__unsafe_metadata_table = internal constant [40 x { i32, i8, i8, i16 }] [{ i32, i8, i8, i16 } { i32 0, i8 1, i8 0, i16 0 }, { i32, i8, i8, i16 } { i32 1, i8 1, i8 0, i16 0 }, { i32, i8, i8, i16 } { i32 2, i8 1, i8 0, i16 0 }, { i32, i8, i8, i16 } { i32 3, i8 1, i8 0, i16 0 }, { i32, i8, i8, i16 } { i32 4, i8 0, i8 0, i16 0 }, { i32, i8, i8, i16 } { i32 5, i8 1, i8 0, i16 0 }, { i32, i8, i8, i16 } { i32 6, i8 1, i8 0, i16 0 }, { i32, i8, i8, i16 } { i32 7, i8 1, i8 0, i16 0 }, { i32, i8, i8, i16 } { i32 8, i8 1, i8 0, i16 0 }, { i32, i8, i8, i16 } { i32 9, i8 1, i8 0, i16 0 }, { i32, i8, i8, i16 } { i32 10, i8 1, i8 0, i16 0 }, { i32, i8, i8, i16 } { i32 11, i8 0, i8 0, i16 0 }, { i32, i8, i8, i16 } { i32 12, i8 0, i8 0, i16 0 }, { i32, i8, i8, i16 } { i32 13, i8 0, i8 0, i16 0 }, { i32, i8, i8, i16 } { i32 14, i8 0, i8 0, i16 0 }, { i32, i8, i8, i16 } { i32 15, i8 0, i8 0, i16 0 }, { i32, i8, i8, i16 } { i32 16, i8 0, i8 0, i16 0 }, { i32, i8, i8, i16 } { i32 17, i8 0, i8 0, i16 0 }, { i32, i8, i8, i16 } { i32 18, i8 0, i8 0, i16 0 }, { i32, i8, i8, i16 } { i32 19, i8 0, i8 0, i16 0 }, { i32, i8, i8, i16 } { i32 20, i8 0, i8 0, i16 0 }, { i32, i8, i8, i16 } { i32 21, i8 0, i8 0, i16 0 }, { i32, i8, i8, i16 } { i32 22, i8 0, i8 0, i16 0 }, { i32, i8, i8, i16 } { i32 23, i8 1, i8 0, i16 0 }, { i32, i8, i8, i16 } { i32 24, i8 0, i8 0, i16 0 }, { i32, i8, i8, i16 } { i32 25, i8 0, i8 0, i16 0 }, { i32, i8, i8, i16 } { i32 26, i8 1, i8 0, i16 0 }, { i32, i8, i8, i16 } { i32 27, i8 0, i8 0, i16 0 }, { i32, i8, i8, i16 } { i32 28, i8 1, i8 0, i16 0 }, { i32, i8, i8, i16 } { i32 29, i8 1, i8 0, i16 0 }, { i32, i8, i8, i16 } { i32 30, i8 0, i8 0, i16 0 }, { i32, i8, i8, i16 } { i32 31, i8 0, i8 0, i16 0 }, { i32, i8, i8, i16 } { i32 32, i8 0, i8 0, i16 0 }, { i32, i8, i8, i16 } { i32 33, i8 0, i8 0, i16 0 }, { i32, i8, i8, i16 } { i32 34, i8 1, i8 0, i16 0 }, { i32, i8, i8, i16 } { i32 35, i8 0, i8 0, i16 0 }, { i32, i8, i8, i16 } { i32 36, i8 0, i8 0, i16 0 }, { i32, i8, i8, i16 } { i32 37, i8 0, i8 0, i16 0 }, { i32, i8, i8, i16 } { i32 38, i8 0, i8 0, i16 0 }, { i32, i8, i8, i16 } { i32 39, i8 0, i8 0, i16 0 }], align 8
@llvm.global_ctors = appending global [1 x { i32, ptr, ptr }] [{ i32, ptr, ptr } { i32 0, ptr @__unsafe_module_init, ptr null }]
@llvm.global_dtors = appending global [1 x { i32, ptr, ptr }] [{ i32, ptr, ptr } { i32 0, ptr @__unsafe_dump_stats, ptr null }]

; async_task::raw::RawTask<F,T,S,M>::drop_waker
; Function Attrs: inlinehint nonlazybind uwtable
define internal void @"_ZN10async_task3raw28RawTask$LT$F$C$T$C$S$C$M$GT$10drop_waker17hdd5bc0965d5a06e4E"(ptr noundef %ptr) unnamed_addr #0 personality ptr @rust_eh_personality !dbg !306 !unsafe_count.func_id !479 {
start:
  call void @__unsafe_record_function(i32 0)
  %_2.i.i = alloca [0 x i8], align 1
  tail call void asm sideeffect "nop # marker_begin", ""() #19
  tail call void @llvm.dbg.value(metadata i64 256, metadata !480, metadata !DIExpression()), !dbg !491
  tail call void @llvm.dbg.value(metadata i8 3, metadata !490, metadata !DIExpression()), !dbg !491
  tail call void @llvm.dbg.value(metadata i64 256, metadata !493, metadata !DIExpression()), !dbg !502
  tail call void @llvm.dbg.value(metadata i8 3, metadata !501, metadata !DIExpression()), !dbg !502
  tail call void @llvm.dbg.value(metadata i64 265, metadata !504, metadata !DIExpression()), !dbg !513
  tail call void @llvm.dbg.value(metadata i8 1, metadata !512, metadata !DIExpression()), !dbg !513
  tail call void @llvm.dbg.value(metadata ptr %ptr, metadata !474, metadata !DIExpression()), !dbg !515
  tail call void @llvm.dbg.value(metadata ptr %ptr, metadata !475, metadata !DIExpression(DW_OP_LLVM_fragment, 0, 64)), !dbg !516
  tail call void @llvm.dbg.value(metadata ptr %ptr, metadata !475, metadata !DIExpression(DW_OP_plus_uconst, 40, DW_OP_stack_value, DW_OP_LLVM_fragment, 64, 64)), !dbg !516
  tail call void @llvm.dbg.value(metadata ptr %ptr, metadata !475, metadata !DIExpression(DW_OP_plus_uconst, 40, DW_OP_stack_value, DW_OP_LLVM_fragment, 128, 64)), !dbg !516
  tail call void @llvm.dbg.value(metadata ptr %ptr, metadata !475, metadata !DIExpression(DW_OP_plus_uconst, 40, DW_OP_stack_value, DW_OP_LLVM_fragment, 192, 64)), !dbg !516
  tail call void @llvm.dbg.value(metadata ptr %ptr, metadata !489, metadata !DIExpression(DW_OP_plus_uconst, 8, DW_OP_stack_value)), !dbg !491
  tail call void @llvm.dbg.value(metadata ptr %ptr, metadata !517, metadata !DIExpression(DW_OP_plus_uconst, 8, DW_OP_stack_value)), !dbg !528
  %_22 = getelementptr inbounds i8, ptr %ptr, i64 8, !dbg !530, !unsafe_inst !531, !unsafe_line_info !532
  tail call void @llvm.dbg.value(metadata ptr %_22, metadata !500, metadata !DIExpression()), !dbg !502
  %0 = atomicrmw sub ptr %_22, i64 256 acq_rel, align 8, !dbg !533, !unsafe_inst !531, !unsafe_line_info !534
  tail call void @llvm.dbg.value(metadata i64 %0, metadata !477, metadata !DIExpression(DW_OP_constu, 256, DW_OP_minus, DW_OP_stack_value)), !dbg !535
  %1 = and i64 %0, -256, !dbg !536
  %2 = icmp eq i64 %1, 256, !dbg !536
  tail call void asm sideeffect "nop # marker_end", ""() #19, !dbg !536
  tail call void asm sideeffect "nop # marker_begin", ""() #19, !dbg !535
  call void @__unsafe_record_block(i32 0, i32 7, i32 5, i16 0, i16 1, i16 0, i16 0, i16 1, i16 3), !dbg !536
  br i1 %2, label %bb1, label %bb7, !dbg !536, !unsafe_inst !531, !unsafe_line_info !537

bb1:                                              ; preds = %start
  %_6 = and i64 %0, 16, !dbg !538, !unsafe_inst !531, !unsafe_line_info !537
  %3 = icmp eq i64 %_6, 0, !dbg !538, !unsafe_inst !531, !unsafe_line_info !537
  tail call void asm sideeffect "nop # marker_end", ""() #19, !dbg !538
  tail call void asm sideeffect "nop # marker_begin", ""() #19, !dbg !535
  call void @__unsafe_record_block(i32 0, i32 3, i32 1, i16 0, i16 0, i16 0, i16 0, i16 0, i16 1), !dbg !538
  br i1 %3, label %bb2, label %bb6, !dbg !538, !unsafe_inst !531, !unsafe_line_info !537

bb7:                                              ; preds = %start
  tail call void asm sideeffect "nop # marker_end", ""() #19, !dbg !539
  call void @__unsafe_record_block(i32 0, i32 1, i32 0, i16 0, i16 0, i16 0, i16 0, i16 0, i16 0), !dbg !539
  br label %bb8, !dbg !539, !unsafe_inst !531, !unsafe_line_info !541

bb2:                                              ; preds = %bb1
  %_7 = and i64 %0, 12, !dbg !542, !unsafe_inst !531, !unsafe_line_info !543
  %4 = icmp eq i64 %_7, 0, !dbg !542, !unsafe_inst !531, !unsafe_line_info !543
  tail call void asm sideeffect "nop # marker_end", ""() #19, !dbg !542
  tail call void asm sideeffect "nop # marker_begin", ""() #19, !dbg !535
  call void @__unsafe_record_block(i32 0, i32 3, i32 1, i16 0, i16 0, i16 0, i16 0, i16 0, i16 1), !dbg !542
  br i1 %4, label %bb3, label %bb4, !dbg !542, !unsafe_inst !531, !unsafe_line_info !543

bb6:                                              ; preds = %bb1
  tail call void asm sideeffect "nop # marker_end", ""() #19, !dbg !539
  call void @__unsafe_record_block(i32 0, i32 1, i32 0, i16 0, i16 0, i16 0, i16 0, i16 0, i16 0), !dbg !539
  br label %bb8, !dbg !539, !unsafe_inst !531, !unsafe_line_info !541

bb3:                                              ; preds = %bb2
  tail call void @llvm.dbg.value(metadata ptr %ptr, metadata !511, metadata !DIExpression(DW_OP_plus_uconst, 8, DW_OP_stack_value)), !dbg !513
  tail call void @llvm.dbg.value(metadata i8 1, metadata !544, metadata !DIExpression()), !dbg !551
  tail call void @llvm.dbg.value(metadata ptr %_22, metadata !549, metadata !DIExpression()), !dbg !551
  tail call void @llvm.dbg.value(metadata i64 265, metadata !550, metadata !DIExpression()), !dbg !551
  store atomic i64 265, ptr %_22 release, align 8, !dbg !553
  tail call void asm sideeffect "nop # marker_begin", ""() #19
  call void @llvm.dbg.value(metadata ptr %ptr, metadata !554, metadata !DIExpression()), !dbg !565
  call void @llvm.dbg.value(metadata i1 false, metadata !558, metadata !DIExpression(DW_OP_LLVM_convert, 1, DW_ATE_unsigned, DW_OP_LLVM_convert, 8, DW_ATE_unsigned, DW_OP_stack_value)), !dbg !565
  call void @llvm.dbg.declare(metadata ptr undef, metadata !561, metadata !DIExpression()), !dbg !567
  call void @llvm.dbg.value(metadata ptr %ptr, metadata !559, metadata !DIExpression(DW_OP_LLVM_fragment, 0, 64)), !dbg !568
  call void @llvm.dbg.value(metadata ptr %ptr, metadata !559, metadata !DIExpression(DW_OP_plus_uconst, 40, DW_OP_stack_value, DW_OP_LLVM_fragment, 64, 64)), !dbg !568
  call void @llvm.dbg.value(metadata ptr %ptr, metadata !559, metadata !DIExpression(DW_OP_plus_uconst, 40, DW_OP_stack_value, DW_OP_LLVM_fragment, 128, 64)), !dbg !568
  call void @llvm.dbg.value(metadata ptr %ptr, metadata !559, metadata !DIExpression(DW_OP_plus_uconst, 40, DW_OP_stack_value, DW_OP_LLVM_fragment, 192, 64)), !dbg !568
  tail call void asm sideeffect "nop # marker_end", ""() #19, !dbg !569
  tail call void asm sideeffect "nop # marker_begin", ""() #19, !dbg !570
  %5 = icmp ne ptr %ptr, null
  tail call void @llvm.assume(i1 %5)
  call void @llvm.dbg.value(metadata ptr %ptr, metadata !563, metadata !DIExpression()), !dbg !571
  tail call void asm sideeffect "nop # marker_end", ""() #19, !dbg !572
  call void @llvm.dbg.value(metadata ptr undef, metadata !573, metadata !DIExpression()), !dbg !585
  call void @llvm.dbg.value(metadata ptr %ptr, metadata !581, metadata !DIExpression()), !dbg !585
  call void @llvm.dbg.value(metadata i1 false, metadata !582, metadata !DIExpression(DW_OP_LLVM_convert, 1, DW_ATE_unsigned, DW_OP_LLVM_convert, 8, DW_ATE_unsigned, DW_OP_stack_value)), !dbg !585
  call void @llvm.dbg.value(metadata ptr %ptr, metadata !587, metadata !DIExpression()), !dbg !603
  call void @llvm.dbg.value(metadata ptr undef, metadata !596, metadata !DIExpression()), !dbg !603
  call void @llvm.dbg.value(metadata ptr %ptr, metadata !605, metadata !DIExpression()), !dbg !612
  call void @__unsafe_record_block(i32 0, i32 4, i32 2, i16 0, i16 0, i16 1, i16 0, i16 0, i16 1), !dbg !614
; invoke core::ptr::drop_in_place<async_task::runnable::Runnable>
  invoke fastcc void @"_ZN4core3ptr51drop_in_place$LT$async_task..runnable..Runnable$GT$17h3660e7f9ebcd5a5cE"(ptr nonnull %ptr)
          to label %"_ZN10async_task3raw28RawTask$LT$F$C$T$C$S$C$M$GT$8schedule17h39227753fbe4dcbdE.exit" unwind label %cleanup.i, !dbg !614

common.resume:                                    ; preds = %cleanup.i.i, %cleanup.i
  %common.resume.op = phi { ptr, i32 } [ %6, %cleanup.i ], [ %11, %cleanup.i.i ]
  call void @__unsafe_record_block(i32 0, i32 2, i32 0, i16 0, i16 0, i16 0, i16 0, i16 0, i16 0), !dbg !535
  resume { ptr, i32 } %common.resume.op, !dbg !535, !unsafe_inst !531, !unsafe_line_info !615

cleanup.i:                                        ; preds = %bb3
  %6 = landingpad { ptr, i32 }
          cleanup
  tail call void asm sideeffect "nop # marker_begin", ""() #19, !dbg !616
  tail call void asm sideeffect "nop # marker_end", ""() #19, !dbg !616
  tail call void asm sideeffect "nop # marker_begin", ""() #19, !dbg !617
  tail call void asm sideeffect "nop # marker_end", ""() #19, !dbg !617
  call void @__unsafe_record_block(i32 0, i32 2, i32 0, i16 0, i16 0, i16 0, i16 0, i16 0, i16 0)
  br label %common.resume

"_ZN10async_task3raw28RawTask$LT$F$C$T$C$S$C$M$GT$8schedule17h39227753fbe4dcbdE.exit": ; preds = %bb3
  tail call void asm sideeffect "nop # marker_begin", ""() #19, !dbg !618
  tail call void asm sideeffect "nop # marker_end", ""() #19, !dbg !616
  tail call void asm sideeffect "nop # marker_begin", ""() #19, !dbg !616
  tail call void asm sideeffect "nop # marker_end", ""() #19, !dbg !619
  tail call void asm sideeffect "nop # marker_end", ""() #19, !dbg !620
  call void @__unsafe_record_block(i32 0, i32 1, i32 0, i16 0, i16 0, i16 0, i16 0, i16 0, i16 0), !dbg !620
  br label %bb5, !dbg !620, !unsafe_inst !531, !unsafe_line_info !621

bb4:                                              ; preds = %bb2
  tail call void asm sideeffect "nop # marker_begin", ""() #19
  call void @llvm.dbg.value(metadata ptr %ptr, metadata !622, metadata !DIExpression()), !dbg !630
  call void @llvm.dbg.value(metadata ptr %ptr, metadata !626, metadata !DIExpression(DW_OP_LLVM_fragment, 0, 64)), !dbg !632
  call void @llvm.dbg.value(metadata ptr %ptr, metadata !626, metadata !DIExpression(DW_OP_plus_uconst, 40, DW_OP_stack_value, DW_OP_LLVM_fragment, 64, 64)), !dbg !632
  call void @llvm.dbg.value(metadata ptr %ptr, metadata !626, metadata !DIExpression(DW_OP_plus_uconst, 40, DW_OP_stack_value, DW_OP_LLVM_fragment, 128, 64)), !dbg !632
  call void @llvm.dbg.value(metadata ptr %ptr, metadata !626, metadata !DIExpression(DW_OP_plus_uconst, 40, DW_OP_stack_value, DW_OP_LLVM_fragment, 192, 64)), !dbg !632
  call void @llvm.dbg.value(metadata i64 8, metadata !628, metadata !DIExpression(DW_OP_LLVM_fragment, 0, 64)), !dbg !633
  call void @llvm.dbg.value(metadata i64 56, metadata !628, metadata !DIExpression(DW_OP_LLVM_fragment, 64, 64)), !dbg !633
  call void @llvm.dbg.value(metadata i64 poison, metadata !628, metadata !DIExpression(DW_OP_LLVM_fragment, 128, 64)), !dbg !633
  call void @llvm.dbg.value(metadata i64 poison, metadata !628, metadata !DIExpression(DW_OP_LLVM_fragment, 192, 64)), !dbg !633
  call void @llvm.dbg.value(metadata i64 poison, metadata !628, metadata !DIExpression(DW_OP_LLVM_fragment, 256, 64)), !dbg !633
  %7 = getelementptr i8, ptr %ptr, i64 16, !dbg !634
  %raw.val.val.i = load ptr, ptr %7, align 8, !dbg !634, !noundef !29
  %8 = getelementptr i8, ptr %ptr, i64 24, !dbg !634
  %raw.val.val19.i = load ptr, ptr %8, align 8, !dbg !634
  call void @llvm.lifetime.start.p0(i64 0, ptr nonnull %_2.i.i), !dbg !635
  call void @llvm.dbg.declare(metadata ptr undef, metadata !691, metadata !DIExpression()), !dbg !699
  call void @llvm.dbg.value(metadata ptr undef, metadata !690, metadata !DIExpression(DW_OP_LLVM_fragment, 0, 64)), !dbg !700
  call void @llvm.dbg.value(metadata ptr undef, metadata !690, metadata !DIExpression(DW_OP_LLVM_fragment, 64, 64)), !dbg !700
  call void @llvm.dbg.value(metadata ptr undef, metadata !682, metadata !DIExpression(DW_OP_deref)), !dbg !701
  call void @llvm.dbg.value(metadata ptr undef, metadata !683, metadata !DIExpression(DW_OP_plus_uconst, 8, DW_OP_deref)), !dbg !701
  call void @llvm.dbg.value(metadata ptr undef, metadata !668, metadata !DIExpression()), !dbg !702
  call void @llvm.dbg.value(metadata ptr undef, metadata !658, metadata !DIExpression()), !dbg !703
  call void @llvm.dbg.value(metadata ptr undef, metadata !649, metadata !DIExpression()), !dbg !704
  call void @llvm.dbg.value(metadata ptr undef, metadata !642, metadata !DIExpression()), !dbg !705
  %9 = icmp eq ptr %raw.val.val.i, null, !dbg !635
  call void @__unsafe_record_block(i32 0, i32 7, i32 7, i16 2, i16 0, i16 1, i16 0, i16 2, i16 2), !dbg !635
  br i1 %9, label %"_ZN10async_task3raw28RawTask$LT$F$C$T$C$S$C$M$GT$7destroy17h2bce9ad0f75d2030E.exit", label %bb2.i.i.i.i.i.i, !dbg !635

bb2.i.i.i.i.i.i:                                  ; preds = %bb4
  call void @llvm.dbg.value(metadata ptr undef, metadata !706, metadata !DIExpression()), !dbg !712
  call void @llvm.dbg.value(metadata ptr undef, metadata !714, metadata !DIExpression()), !dbg !722
  %10 = getelementptr inbounds i8, ptr %raw.val.val.i, i64 24, !dbg !724
  %_2.i.i.i.i.i.i.i.i = load ptr, ptr %10, align 8, !dbg !724, !nonnull !29, !noundef !29
  call void @__unsafe_record_block(i32 0, i32 3, i32 0, i16 0, i16 0, i16 0, i16 0, i16 0, i16 0), !dbg !724
  invoke void %_2.i.i.i.i.i.i.i.i(ptr noundef %raw.val.val19.i)
          to label %"_ZN10async_task3raw28RawTask$LT$F$C$T$C$S$C$M$GT$7destroy17h2bce9ad0f75d2030E.exit" unwind label %cleanup.i.i, !dbg !724

cleanup.i.i:                                      ; preds = %bb2.i.i.i.i.i.i
  %11 = landingpad { ptr, i32 }
          cleanup
  call void @llvm.dbg.value(metadata ptr %_2.i.i, metadata !725, metadata !DIExpression()), !dbg !733
  call void @__unsafe_record_block(i32 0, i32 2, i32 0, i16 0, i16 0, i16 0, i16 0, i16 0, i16 0), !dbg !735
; invoke <async_task::utils::abort_on_panic::Bomb as core::ops::drop::Drop>::drop
  invoke void @"_ZN81_$LT$async_task..utils..abort_on_panic..Bomb$u20$as$u20$core..ops..drop..Drop$GT$4drop17hbbde9adaede740a0E"(ptr noalias noundef nonnull align 1 %_2.i.i)
          to label %common.resume unwind label %terminate.i.i, !dbg !735

terminate.i.i:                                    ; preds = %cleanup.i.i
  %12 = landingpad { ptr, i32 }
          filter [0 x ptr] zeroinitializer
; call core::panicking::panic_in_cleanup
  call void @_ZN4core9panicking16panic_in_cleanup17h43442956f23e9cbeE() #20, !dbg !736
  call void @__unsafe_record_block(i32 0, i32 3, i32 0, i16 0, i16 0, i16 0, i16 0, i16 0, i16 0), !dbg !736
  unreachable, !dbg !736

"_ZN10async_task3raw28RawTask$LT$F$C$T$C$S$C$M$GT$7destroy17h2bce9ad0f75d2030E.exit": ; preds = %bb4, %bb2.i.i.i.i.i.i
  call void @llvm.lifetime.end.p0(i64 0, ptr nonnull %_2.i.i), !dbg !737
  call void @llvm.dbg.value(metadata ptr %ptr, metadata !738, metadata !DIExpression()), !dbg !748
  call void @llvm.dbg.value(metadata i64 8, metadata !747, metadata !DIExpression(DW_OP_LLVM_fragment, 0, 64)), !dbg !748
  call void @llvm.dbg.value(metadata i64 56, metadata !747, metadata !DIExpression(DW_OP_LLVM_fragment, 64, 64)), !dbg !748
  tail call void @__rust_dealloc(ptr noundef nonnull %ptr, i64 noundef 56, i64 noundef 8) #19, !dbg !750, !unsafe_inst !531, !unsafe_line_info !751
  tail call void asm sideeffect "nop # marker_end", ""() #19, !dbg !752
  tail call void asm sideeffect "nop # marker_end", ""() #19, !dbg !753
  call void @__unsafe_record_block(i32 0, i32 3, i32 0, i16 0, i16 0, i16 0, i16 0, i16 0, i16 0), !dbg !753
  br label %bb5, !dbg !753, !unsafe_inst !531, !unsafe_line_info !754

bb5:                                              ; preds = %"_ZN10async_task3raw28RawTask$LT$F$C$T$C$S$C$M$GT$7destroy17h2bce9ad0f75d2030E.exit", %"_ZN10async_task3raw28RawTask$LT$F$C$T$C$S$C$M$GT$8schedule17h39227753fbe4dcbdE.exit"
  tail call void asm sideeffect "nop # marker_begin", ""() #19, !dbg !755
  tail call void asm sideeffect "nop # marker_end", ""() #19, !dbg !755
  call void @__unsafe_record_block(i32 0, i32 1, i32 0, i16 0, i16 0, i16 0, i16 0, i16 0, i16 0), !dbg !755
  br label %bb8, !dbg !755, !unsafe_inst !531, !unsafe_line_info !537

bb8:                                              ; preds = %bb7, %bb6, %bb5
  tail call void asm sideeffect "nop # marker_begin", ""() #19, !dbg !756
  tail call void asm sideeffect "nop # marker_end", ""() #19, !dbg !756
  call void @__unsafe_record_block(i32 0, i32 1, i32 0, i16 0, i16 0, i16 0, i16 0, i16 0, i16 0), !dbg !756
  ret void, !dbg !756, !unsafe_inst !531, !unsafe_line_info !757
}

; async_task::raw::RawTask<F,T,S,M>::get_output
; Function Attrs: nonlazybind uwtable
define internal noundef ptr @"_ZN10async_task3raw28RawTask$LT$F$C$T$C$S$C$M$GT$10get_output17h9da173b5e21f3529E"(ptr noundef readnone %ptr) unnamed_addr #1 !dbg !758 !unsafe_count.func_id !786 {
start:
  call void @__unsafe_record_function(i32 1)
  tail call void asm sideeffect "nop # marker_begin", ""() #19
  tail call void @llvm.dbg.value(metadata ptr %ptr, metadata !783, metadata !DIExpression()), !dbg !787
  tail call void @llvm.dbg.value(metadata ptr %ptr, metadata !788, metadata !DIExpression()), !dbg !800
  tail call void @llvm.dbg.value(metadata i64 poison, metadata !795, metadata !DIExpression(DW_OP_LLVM_fragment, 64, 64)), !dbg !802
  tail call void @llvm.dbg.value(metadata i64 poison, metadata !795, metadata !DIExpression(DW_OP_LLVM_fragment, 0, 64)), !dbg !802
  tail call void @llvm.dbg.value(metadata i64 40, metadata !795, metadata !DIExpression(DW_OP_LLVM_fragment, 128, 64)), !dbg !802
  tail call void @llvm.dbg.value(metadata i64 40, metadata !795, metadata !DIExpression(DW_OP_LLVM_fragment, 192, 64)), !dbg !802
  tail call void @llvm.dbg.value(metadata i64 40, metadata !795, metadata !DIExpression(DW_OP_LLVM_fragment, 256, 64)), !dbg !802
  tail call void @llvm.dbg.value(metadata i64 40, metadata !803, metadata !DIExpression()), !dbg !821
  tail call void @llvm.dbg.value(metadata ptr %ptr, metadata !797, metadata !DIExpression()), !dbg !823
  tail call void @llvm.dbg.value(metadata ptr %ptr, metadata !818, metadata !DIExpression()), !dbg !821
  %_10 = getelementptr inbounds i8, ptr %ptr, i64 40, !dbg !824, !unsafe_inst !531, !unsafe_line_info !825
  tail call void asm sideeffect "nop # marker_end", ""() #19, !dbg !826
  call void @__unsafe_record_block(i32 1, i32 3, i32 1, i16 0, i16 0, i16 0, i16 0, i16 1, i16 0), !dbg !826
  ret ptr %_10, !dbg !826, !unsafe_inst !531, !unsafe_line_info !827
}

; async_task::raw::RawTask<F,T,S,M>::clone_waker
; Function Attrs: nonlazybind uwtable
define internal { ptr, ptr } @"_ZN10async_task3raw28RawTask$LT$F$C$T$C$S$C$M$GT$11clone_waker17h823caf2824168b36E"(ptr noundef %ptr) unnamed_addr #1 !dbg !828 !unsafe_count.func_id !836 {
start:
  call void @__unsafe_record_function(i32 2)
  tail call void asm sideeffect "nop # marker_begin", ""() #19
  tail call void @llvm.dbg.value(metadata i64 256, metadata !837, metadata !DIExpression()), !dbg !844
  tail call void @llvm.dbg.value(metadata i8 0, metadata !843, metadata !DIExpression()), !dbg !844
  tail call void @llvm.dbg.value(metadata i64 256, metadata !846, metadata !DIExpression()), !dbg !852
  tail call void @llvm.dbg.value(metadata i8 0, metadata !851, metadata !DIExpression()), !dbg !852
  tail call void @llvm.dbg.value(metadata ptr %ptr, metadata !831, metadata !DIExpression()), !dbg !854
  tail call void @llvm.dbg.value(metadata ptr %ptr, metadata !832, metadata !DIExpression(DW_OP_LLVM_fragment, 0, 64)), !dbg !855
  tail call void @llvm.dbg.value(metadata ptr %ptr, metadata !832, metadata !DIExpression(DW_OP_plus_uconst, 40, DW_OP_stack_value, DW_OP_LLVM_fragment, 64, 64)), !dbg !855
  tail call void @llvm.dbg.value(metadata ptr %ptr, metadata !832, metadata !DIExpression(DW_OP_plus_uconst, 40, DW_OP_stack_value, DW_OP_LLVM_fragment, 128, 64)), !dbg !855
  tail call void @llvm.dbg.value(metadata ptr %ptr, metadata !832, metadata !DIExpression(DW_OP_plus_uconst, 40, DW_OP_stack_value, DW_OP_LLVM_fragment, 192, 64)), !dbg !855
  tail call void @llvm.dbg.value(metadata ptr %ptr, metadata !842, metadata !DIExpression(DW_OP_plus_uconst, 8, DW_OP_stack_value)), !dbg !844
  tail call void @llvm.dbg.value(metadata ptr %ptr, metadata !856, metadata !DIExpression(DW_OP_plus_uconst, 8, DW_OP_stack_value)), !dbg !860
  %_18 = getelementptr inbounds i8, ptr %ptr, i64 8, !dbg !862, !unsafe_inst !531, !unsafe_line_info !532
  tail call void @llvm.dbg.value(metadata ptr %_18, metadata !850, metadata !DIExpression()), !dbg !852
  %0 = atomicrmw add ptr %_18, i64 256 monotonic, align 8, !dbg !863, !unsafe_inst !531, !unsafe_line_info !864
  tail call void @llvm.dbg.value(metadata i64 %0, metadata !834, metadata !DIExpression()), !dbg !865
  %_4 = icmp slt i64 %0, 0, !dbg !866
  tail call void asm sideeffect "nop # marker_end", ""() #19, !dbg !866
  tail call void asm sideeffect "nop # marker_begin", ""() #19, !dbg !854
  call void @__unsafe_record_block(i32 2, i32 5, i32 4, i16 0, i16 1, i16 0, i16 0, i16 1, i16 2), !dbg !866
  br i1 %_4, label %bb1, label %bb2, !dbg !866, !unsafe_inst !531, !unsafe_line_info !867

bb2:                                              ; preds = %start
  %1 = insertvalue { ptr, ptr } { ptr @alloc_9759292953199ec260c54435f4455cf6, ptr poison }, ptr %ptr, 1, !dbg !868, !unsafe_inst !531, !unsafe_line_info !869
  tail call void asm sideeffect "nop # marker_end", ""() #19, !dbg !868
  call void @__unsafe_record_block(i32 2, i32 2, i32 0, i16 0, i16 0, i16 0, i16 0, i16 0, i16 0), !dbg !868
  ret { ptr, ptr } %1, !dbg !868, !unsafe_inst !531, !unsafe_line_info !869

bb1:                                              ; preds = %start
; call async_task::utils::abort
  tail call void @_ZN10async_task5utils5abort17h48c6b38d5e83bb69E() #21, !dbg !870, !unsafe_inst !531, !unsafe_line_info !871
  call void @__unsafe_record_block(i32 2, i32 2, i32 0, i16 0, i16 0, i16 0, i16 0, i16 0, i16 0), !dbg !870
  unreachable, !dbg !870
}

; async_task::raw::RawTask<F,T,S,M>::clone_waker
; Function Attrs: nonlazybind uwtable
define internal { ptr, ptr } @"_ZN10async_task3raw28RawTask$LT$F$C$T$C$S$C$M$GT$11clone_waker17hed7cb9514b66dd55E"(ptr noundef %ptr) unnamed_addr #1 !dbg !872 !unsafe_count.func_id !880 {
start:
  call void @__unsafe_record_function(i32 3)
  tail call void asm sideeffect "nop # marker_begin", ""() #19
  tail call void @llvm.dbg.value(metadata i64 256, metadata !881, metadata !DIExpression()), !dbg !887
  tail call void @llvm.dbg.value(metadata i8 0, metadata !886, metadata !DIExpression()), !dbg !887
  tail call void @llvm.dbg.value(metadata i64 256, metadata !889, metadata !DIExpression()), !dbg !895
  tail call void @llvm.dbg.value(metadata i8 0, metadata !894, metadata !DIExpression()), !dbg !895
  tail call void @llvm.dbg.value(metadata ptr %ptr, metadata !875, metadata !DIExpression()), !dbg !897
  tail call void @llvm.dbg.value(metadata ptr %ptr, metadata !876, metadata !DIExpression(DW_OP_LLVM_fragment, 0, 64)), !dbg !898
  tail call void @llvm.dbg.value(metadata ptr %ptr, metadata !876, metadata !DIExpression(DW_OP_plus_uconst, 40, DW_OP_stack_value, DW_OP_LLVM_fragment, 64, 64)), !dbg !898
  tail call void @llvm.dbg.value(metadata ptr %ptr, metadata !876, metadata !DIExpression(DW_OP_plus_uconst, 40, DW_OP_stack_value, DW_OP_LLVM_fragment, 128, 64)), !dbg !898
  tail call void @llvm.dbg.value(metadata ptr %ptr, metadata !876, metadata !DIExpression(DW_OP_plus_uconst, 40, DW_OP_stack_value, DW_OP_LLVM_fragment, 192, 64)), !dbg !898
  tail call void @llvm.dbg.value(metadata ptr %ptr, metadata !885, metadata !DIExpression(DW_OP_plus_uconst, 8, DW_OP_stack_value)), !dbg !887
  tail call void @llvm.dbg.value(metadata ptr %ptr, metadata !899, metadata !DIExpression(DW_OP_plus_uconst, 8, DW_OP_stack_value)), !dbg !903
  %_18 = getelementptr inbounds i8, ptr %ptr, i64 8, !dbg !905, !unsafe_inst !531, !unsafe_line_info !532
  tail call void @llvm.dbg.value(metadata ptr %_18, metadata !893, metadata !DIExpression()), !dbg !895
  %0 = atomicrmw add ptr %_18, i64 256 monotonic, align 8, !dbg !906, !unsafe_inst !531, !unsafe_line_info !864
  tail call void @llvm.dbg.value(metadata i64 %0, metadata !878, metadata !DIExpression()), !dbg !907
  %_4 = icmp slt i64 %0, 0, !dbg !908
  tail call void asm sideeffect "nop # marker_end", ""() #19, !dbg !908
  tail call void asm sideeffect "nop # marker_begin", ""() #19, !dbg !897
  call void @__unsafe_record_block(i32 3, i32 5, i32 4, i16 0, i16 1, i16 0, i16 0, i16 1, i16 2), !dbg !908
  br i1 %_4, label %bb1, label %bb2, !dbg !908, !unsafe_inst !531, !unsafe_line_info !867

bb2:                                              ; preds = %start
  %1 = insertvalue { ptr, ptr } { ptr @alloc_58433f55ee525f5b690e1c8c423c90c8, ptr poison }, ptr %ptr, 1, !dbg !909, !unsafe_inst !531, !unsafe_line_info !869
  tail call void asm sideeffect "nop # marker_end", ""() #19, !dbg !909
  call void @__unsafe_record_block(i32 3, i32 2, i32 0, i16 0, i16 0, i16 0, i16 0, i16 0, i16 0), !dbg !909
  ret { ptr, ptr } %1, !dbg !909, !unsafe_inst !531, !unsafe_line_info !869

bb1:                                              ; preds = %start
; call async_task::utils::abort
  tail call void @_ZN10async_task5utils5abort17h48c6b38d5e83bb69E() #21, !dbg !910, !unsafe_inst !531, !unsafe_line_info !871
  call void @__unsafe_record_block(i32 3, i32 2, i32 0, i16 0, i16 0, i16 0, i16 0, i16 0, i16 0), !dbg !910
  unreachable, !dbg !910
}

; async_task::raw::RawTask<F,T,S,M>::drop_future
; Function Attrs: inlinehint nonlazybind uwtable
define internal void @"_ZN10async_task3raw28RawTask$LT$F$C$T$C$S$C$M$GT$11drop_future17h528d722a714d9b81E"(ptr nocapture readnone %ptr) unnamed_addr #0 personality ptr @rust_eh_personality !dbg !911 !unsafe_count.func_id !917 {
start:
  call void @__unsafe_record_function(i32 4)
  tail call void asm sideeffect "nop # marker_begin", ""() #19
  tail call void @llvm.dbg.value(metadata ptr poison, metadata !914, metadata !DIExpression()), !dbg !918
  tail call void asm sideeffect "nop # marker_end", ""() #19, !dbg !919
  call void @__unsafe_record_block(i32 4, i32 2, i32 0, i16 0, i16 0, i16 0, i16 0, i16 0, i16 0), !dbg !919
  ret void, !dbg !919, !unsafe_inst !531, !unsafe_line_info !920
}

; async_task::raw::RawTask<F,T,S,M>::wake_by_ref
; Function Attrs: nonlazybind uwtable
define internal void @"_ZN10async_task3raw28RawTask$LT$F$C$T$C$S$C$M$GT$11wake_by_ref17h444ad9fef4e8980dE"(ptr noundef %ptr) unnamed_addr #1 !dbg !921 !unsafe_count.func_id !937 {
start:
  call void @__unsafe_record_function(i32 5)
  tail call void asm sideeffect "nop # marker_begin", ""() #19
  tail call void @llvm.dbg.value(metadata i8 2, metadata !938, metadata !DIExpression()), !dbg !946
  tail call void @llvm.dbg.value(metadata i8 3, metadata !948, metadata !DIExpression()), !dbg !980
  tail call void @llvm.dbg.value(metadata i8 2, metadata !973, metadata !DIExpression()), !dbg !980
  tail call void @llvm.dbg.value(metadata i8 3, metadata !978, metadata !DIExpression()), !dbg !982
  tail call void @llvm.dbg.value(metadata i8 2, metadata !979, metadata !DIExpression()), !dbg !982
  tail call void @llvm.dbg.value(metadata ptr %ptr, metadata !924, metadata !DIExpression()), !dbg !984
  tail call void @llvm.dbg.value(metadata ptr %ptr, metadata !925, metadata !DIExpression(DW_OP_LLVM_fragment, 0, 64)), !dbg !985
  tail call void @llvm.dbg.value(metadata ptr %ptr, metadata !925, metadata !DIExpression(DW_OP_plus_uconst, 40, DW_OP_stack_value, DW_OP_LLVM_fragment, 64, 64)), !dbg !985
  tail call void @llvm.dbg.value(metadata ptr %ptr, metadata !925, metadata !DIExpression(DW_OP_plus_uconst, 40, DW_OP_stack_value, DW_OP_LLVM_fragment, 128, 64)), !dbg !985
  tail call void @llvm.dbg.value(metadata ptr %ptr, metadata !925, metadata !DIExpression(DW_OP_plus_uconst, 40, DW_OP_stack_value, DW_OP_LLVM_fragment, 192, 64)), !dbg !985
  tail call void @llvm.dbg.value(metadata ptr %ptr, metadata !945, metadata !DIExpression(DW_OP_plus_uconst, 8, DW_OP_stack_value)), !dbg !946
  tail call void @llvm.dbg.value(metadata ptr %ptr, metadata !986, metadata !DIExpression(DW_OP_plus_uconst, 8, DW_OP_stack_value)), !dbg !994
  %_47 = getelementptr inbounds i8, ptr %ptr, i64 8, !dbg !996, !unsafe_inst !531, !unsafe_line_info !532
  tail call void @llvm.dbg.value(metadata i8 2, metadata !997, metadata !DIExpression()), !dbg !1004
  tail call void @llvm.dbg.value(metadata ptr %_47, metadata !1003, metadata !DIExpression()), !dbg !1004
  %0 = load atomic i64, ptr %_47 acquire, align 8, !dbg !1006
  tail call void @llvm.dbg.value(metadata i64 %0, metadata !927, metadata !DIExpression()), !dbg !1007
  tail call void asm sideeffect "nop # marker_end", ""() #19, !dbg !1008
  tail call void @llvm.dbg.value(metadata i64 %0, metadata !927, metadata !DIExpression()), !dbg !1007
  tail call void asm sideeffect "nop # marker_begin", ""() #19, !dbg !1009
  %_451 = and i64 %0, 12, !dbg !1009, !unsafe_inst !531, !unsafe_line_info !1010
  %1 = icmp eq i64 %_451, 0, !dbg !1009, !unsafe_inst !531, !unsafe_line_info !1010
  tail call void asm sideeffect "nop # marker_end", ""() #19, !dbg !1009
  call void @__unsafe_record_block(i32 5, i32 6, i32 4, i16 1, i16 0, i16 0, i16 0, i16 1, i16 2), !dbg !1009
  br i1 %1, label %bb3, label %bb2, !dbg !1009, !unsafe_inst !531, !unsafe_line_info !1010

bb3:                                              ; preds = %start, %bb20
  %state.sroa.0.052 = phi i64 [ %.pn46, %bb20 ], [ %0, %start ]
  tail call void @llvm.dbg.value(metadata i64 %state.sroa.0.052, metadata !927, metadata !DIExpression()), !dbg !1007
  tail call void asm sideeffect "nop # marker_begin", ""() #19, !dbg !1011
  %_6 = and i64 %state.sroa.0.052, 1, !dbg !1011, !unsafe_inst !531, !unsafe_line_info !1012
  %2 = icmp eq i64 %_6, 0, !dbg !1011, !unsafe_inst !531, !unsafe_line_info !1012
  tail call void asm sideeffect "nop # marker_end", ""() #19, !dbg !1011
  tail call void asm sideeffect "nop # marker_begin", ""() #19, !dbg !1007
  call void @__unsafe_record_block(i32 5, i32 4, i32 3, i16 0, i16 0, i16 0, i16 0, i16 0, i16 3), !dbg !1011
  br i1 %2, label %bb5, label %bb4, !dbg !1011, !unsafe_inst !531, !unsafe_line_info !1012

bb2:                                              ; preds = %bb20, %start
  tail call void asm sideeffect "nop # marker_begin", ""() #19, !dbg !1013
  tail call void asm sideeffect "nop # marker_end", ""() #19, !dbg !1013
  call void @__unsafe_record_block(i32 5, i32 1, i32 0, i16 0, i16 0, i16 0, i16 0, i16 0, i16 0), !dbg !1013
  br label %bb22, !dbg !1013, !unsafe_inst !531, !unsafe_line_info !541

bb5:                                              ; preds = %bb3
  %_15 = and i64 %state.sroa.0.052, 2, !dbg !1015, !unsafe_inst !531, !unsafe_line_info !1016
  %3 = icmp eq i64 %_15, 0, !dbg !1015, !unsafe_inst !531, !unsafe_line_info !1016
  tail call void asm sideeffect "nop # marker_end", ""() #19, !dbg !1015
  tail call void asm sideeffect "nop # marker_begin", ""() #19, !dbg !1007
  tail call void asm sideeffect "nop # marker_end", ""() #19, !dbg !1017
  %4 = add i64 %state.sroa.0.052, 257, !dbg !1015
  %5 = or disjoint i64 %state.sroa.0.052, 1, !dbg !1015
  %new.sroa.0.0 = select i1 %3, i64 %4, i64 %5, !dbg !1015
  tail call void @llvm.dbg.value(metadata i64 %new.sroa.0.0, metadata !931, metadata !DIExpression()), !dbg !1018
  tail call void asm sideeffect "nop # marker_begin", ""() #19, !dbg !1019
  tail call void @llvm.dbg.value(metadata ptr %ptr, metadata !974, metadata !DIExpression(DW_OP_plus_uconst, 8, DW_OP_stack_value)), !dbg !982
  tail call void @llvm.dbg.value(metadata i64 %state.sroa.0.052, metadata !976, metadata !DIExpression()), !dbg !982
  tail call void @llvm.dbg.value(metadata i64 %new.sroa.0.0, metadata !977, metadata !DIExpression()), !dbg !982
  tail call void @llvm.dbg.value(metadata i8 3, metadata !1020, metadata !DIExpression()), !dbg !1032
  tail call void @llvm.dbg.value(metadata i8 2, metadata !1028, metadata !DIExpression()), !dbg !1032
  tail call void @llvm.dbg.value(metadata ptr %_47, metadata !1025, metadata !DIExpression()), !dbg !1032
  tail call void @llvm.dbg.value(metadata i64 %state.sroa.0.052, metadata !1026, metadata !DIExpression()), !dbg !1032
  tail call void @llvm.dbg.value(metadata i64 %new.sroa.0.0, metadata !1027, metadata !DIExpression()), !dbg !1032
  %6 = cmpxchg weak ptr %_47, i64 %state.sroa.0.052, i64 %new.sroa.0.0 acq_rel acquire, align 8, !dbg !1034
  %7 = extractvalue { i64, i1 } %6, 1, !dbg !1034
  tail call void asm sideeffect "nop # marker_end", ""() #19, !dbg !1035
  tail call void asm sideeffect "nop # marker_begin", ""() #19, !dbg !1018
  tail call void asm sideeffect "nop # marker_end", ""() #19, !dbg !1007
  call void @__unsafe_record_block(i32 5, i32 8, i32 2, i16 0, i16 1, i16 0, i16 0, i16 0, i16 1), !dbg !1035
  br i1 %7, label %bb13, label %bb20, !dbg !1035

bb4:                                              ; preds = %bb3
  tail call void @llvm.dbg.value(metadata ptr %ptr, metadata !970, metadata !DIExpression(DW_OP_plus_uconst, 8, DW_OP_stack_value)), !dbg !980
  tail call void @llvm.dbg.value(metadata i64 %state.sroa.0.052, metadata !971, metadata !DIExpression()), !dbg !980
  tail call void @llvm.dbg.value(metadata i64 %state.sroa.0.052, metadata !972, metadata !DIExpression()), !dbg !980
  tail call void @llvm.dbg.value(metadata i8 3, metadata !1020, metadata !DIExpression()), !dbg !1036
  tail call void @llvm.dbg.value(metadata i8 2, metadata !1028, metadata !DIExpression()), !dbg !1036
  tail call void @llvm.dbg.value(metadata ptr %_47, metadata !1025, metadata !DIExpression()), !dbg !1036
  tail call void @llvm.dbg.value(metadata i64 %state.sroa.0.052, metadata !1026, metadata !DIExpression()), !dbg !1036
  tail call void @llvm.dbg.value(metadata i64 %state.sroa.0.052, metadata !1027, metadata !DIExpression()), !dbg !1036
  %8 = cmpxchg weak ptr %_47, i64 %state.sroa.0.052, i64 %state.sroa.0.052 acq_rel acquire, align 8, !dbg !1038
  %9 = extractvalue { i64, i1 } %8, 1, !dbg !1038
  tail call void asm sideeffect "nop # marker_end", ""() #19, !dbg !1039
  tail call void asm sideeffect "nop # marker_begin", ""() #19, !dbg !1007
  tail call void asm sideeffect "nop # marker_end", ""() #19, !dbg !1007
  call void @__unsafe_record_block(i32 5, i32 3, i32 0, i16 0, i16 0, i16 0, i16 0, i16 0, i16 0), !dbg !1039
  br i1 %9, label %bb21, label %bb20, !dbg !1039

bb13:                                             ; preds = %bb5
  tail call void asm sideeffect "nop # marker_begin", ""() #19, !dbg !1018
  call void @__unsafe_record_block(i32 5, i32 1, i32 1, i16 0, i16 0, i16 0, i16 0, i16 0, i16 1), !dbg !1040
  br i1 %3, label %bb14, label %bb18, !dbg !1040, !unsafe_inst !531, !unsafe_line_info !1041

bb14:                                             ; preds = %bb13
  %_27 = icmp slt i64 %state.sroa.0.052, 0, !dbg !1042
  tail call void asm sideeffect "nop # marker_end", ""() #19, !dbg !1042
  tail call void asm sideeffect "nop # marker_begin", ""() #19, !dbg !1018
  call void @__unsafe_record_block(i32 5, i32 2, i32 1, i16 0, i16 0, i16 0, i16 0, i16 0, i16 1), !dbg !1042
  br i1 %_27, label %bb15, label %bb16, !dbg !1042, !unsafe_inst !531, !unsafe_line_info !1043

bb18:                                             ; preds = %bb13
  tail call void asm sideeffect "nop # marker_end", ""() #19, !dbg !1044
  call void @__unsafe_record_block(i32 5, i32 1, i32 0, i16 0, i16 0, i16 0, i16 0, i16 0, i16 0), !dbg !1044
  br label %bb19, !dbg !1044, !unsafe_inst !531, !unsafe_line_info !1041

bb16:                                             ; preds = %bb14
  tail call void @llvm.dbg.value(metadata ptr %ptr, metadata !933, metadata !DIExpression()), !dbg !1045
  call void @llvm.dbg.value(metadata ptr undef, metadata !573, metadata !DIExpression()), !dbg !1046
  call void @llvm.dbg.value(metadata ptr %ptr, metadata !581, metadata !DIExpression()), !dbg !1046
  call void @llvm.dbg.value(metadata i1 false, metadata !582, metadata !DIExpression(DW_OP_LLVM_convert, 1, DW_ATE_unsigned, DW_OP_LLVM_convert, 8, DW_ATE_unsigned, DW_OP_stack_value)), !dbg !1046
  call void @llvm.dbg.value(metadata ptr %ptr, metadata !587, metadata !DIExpression()), !dbg !1048
  call void @llvm.dbg.value(metadata ptr undef, metadata !596, metadata !DIExpression()), !dbg !1048
  call void @llvm.dbg.value(metadata ptr %ptr, metadata !605, metadata !DIExpression()), !dbg !1050
; call core::ptr::drop_in_place<async_task::runnable::Runnable>
  tail call fastcc void @"_ZN4core3ptr51drop_in_place$LT$async_task..runnable..Runnable$GT$17h3660e7f9ebcd5a5cE"(ptr nonnull %ptr), !dbg !1052
  tail call void asm sideeffect "nop # marker_end", ""() #19, !dbg !1044
  call void @__unsafe_record_block(i32 5, i32 2, i32 0, i16 0, i16 0, i16 0, i16 0, i16 0, i16 0), !dbg !1044
  br label %bb19, !dbg !1044, !unsafe_inst !531, !unsafe_line_info !1041

bb15:                                             ; preds = %bb14
; call async_task::utils::abort
  tail call void @_ZN10async_task5utils5abort17h48c6b38d5e83bb69E() #21, !dbg !1053, !unsafe_inst !531, !unsafe_line_info !1054
  call void @__unsafe_record_block(i32 5, i32 2, i32 0, i16 0, i16 0, i16 0, i16 0, i16 0, i16 0), !dbg !1053
  unreachable, !dbg !1053

bb19:                                             ; preds = %bb18, %bb16
  tail call void asm sideeffect "nop # marker_begin", ""() #19, !dbg !1055
  tail call void asm sideeffect "nop # marker_end", ""() #19, !dbg !1013
  call void @__unsafe_record_block(i32 5, i32 1, i32 0, i16 0, i16 0, i16 0, i16 0, i16 0, i16 0), !dbg !1013
  br label %bb21, !dbg !1013, !unsafe_inst !531, !unsafe_line_info !541

bb21:                                             ; preds = %bb4, %bb19
  tail call void asm sideeffect "nop # marker_begin", ""() #19, !dbg !1013
  tail call void asm sideeffect "nop # marker_end", ""() #19, !dbg !1013
  call void @__unsafe_record_block(i32 5, i32 1, i32 0, i16 0, i16 0, i16 0, i16 0, i16 0, i16 0), !dbg !1013
  br label %bb22, !dbg !1013, !unsafe_inst !531, !unsafe_line_info !541

bb20:                                             ; preds = %bb5, %bb4
  %.pn48 = phi { i64, i1 } [ %8, %bb4 ], [ %6, %bb5 ]
  %.pn46 = extractvalue { i64, i1 } %.pn48, 0, !dbg !1056
  tail call void @llvm.dbg.value(metadata i64 %.pn46, metadata !927, metadata !DIExpression()), !dbg !1007
  tail call void asm sideeffect "nop # marker_begin", ""() #19, !dbg !1008
  tail call void asm sideeffect "nop # marker_end", ""() #19, !dbg !1008
  tail call void asm sideeffect "nop # marker_begin", ""() #19, !dbg !1009
  %_4 = and i64 %.pn46, 12, !dbg !1009, !unsafe_inst !531, !unsafe_line_info !1010
  %10 = icmp eq i64 %_4, 0, !dbg !1009, !unsafe_inst !531, !unsafe_line_info !1010
  tail call void asm sideeffect "nop # marker_end", ""() #19, !dbg !1009
  call void @__unsafe_record_block(i32 5, i32 5, i32 2, i16 0, i16 0, i16 0, i16 0, i16 0, i16 2), !dbg !1009
  br i1 %10, label %bb3, label %bb2, !dbg !1009, !unsafe_inst !531, !unsafe_line_info !1010

bb22:                                             ; preds = %bb2, %bb21
  tail call void asm sideeffect "nop # marker_begin", ""() #19, !dbg !1058
  tail call void asm sideeffect "nop # marker_end", ""() #19, !dbg !1059
  call void @__unsafe_record_block(i32 5, i32 1, i32 0, i16 0, i16 0, i16 0, i16 0, i16 0, i16 0), !dbg !1059
  ret void, !dbg !1059, !unsafe_inst !531, !unsafe_line_info !1060
}

; async_task::raw::RawTask<F,T,S,M>::run
; Function Attrs: nonlazybind uwtable
define internal noundef zeroext i1 @"_ZN10async_task3raw28RawTask$LT$F$C$T$C$S$C$M$GT$3run17hc16b2e5ae2d38fdfE"(ptr noundef %ptr) unnamed_addr #1 personality ptr @rust_eh_personality !dbg !1061 !unsafe_count.func_id !1183 {
start:
  call void @__unsafe_record_function(i32 6)
  %_2.i299 = alloca [0 x i8], align 1
  tail call void asm sideeffect "nop # marker_begin", ""() #19
  tail call void @llvm.dbg.value(metadata i8 2, metadata !1184, metadata !DIExpression()), !dbg !1189
  tail call void @llvm.dbg.value(metadata i64 -2, metadata !1191, metadata !DIExpression()), !dbg !1198
  tail call void @llvm.dbg.value(metadata i8 3, metadata !1197, metadata !DIExpression()), !dbg !1198
  tail call void @llvm.dbg.value(metadata i64 -2, metadata !1200, metadata !DIExpression()), !dbg !1206
  tail call void @llvm.dbg.value(metadata i8 3, metadata !1205, metadata !DIExpression()), !dbg !1206
  tail call void @llvm.dbg.value(metadata i8 3, metadata !1208, metadata !DIExpression()), !dbg !1228
  tail call void @llvm.dbg.value(metadata i8 2, metadata !1215, metadata !DIExpression()), !dbg !1228
  call void @llvm.dbg.declare(metadata ptr undef, metadata !1230, metadata !DIExpression()), !dbg !1258
  tail call void @llvm.dbg.value(metadata i8 3, metadata !1220, metadata !DIExpression()), !dbg !1260
  tail call void @llvm.dbg.value(metadata i8 2, metadata !1221, metadata !DIExpression()), !dbg !1260
  tail call void @llvm.dbg.value(metadata i8 3, metadata !1226, metadata !DIExpression()), !dbg !1262
  tail call void @llvm.dbg.value(metadata i8 2, metadata !1227, metadata !DIExpression()), !dbg !1262
  tail call void @llvm.dbg.value(metadata ptr %ptr, metadata !1064, metadata !DIExpression()), !dbg !1264
  tail call void @llvm.dbg.value(metadata ptr %ptr, metadata !1265, metadata !DIExpression()), !dbg !1291
  tail call void @llvm.dbg.value(metadata ptr %ptr, metadata !1293, metadata !DIExpression()), !dbg !1307
  tail call void @llvm.dbg.value(metadata ptr %ptr, metadata !1299, metadata !DIExpression()), !dbg !1309
  tail call void @llvm.dbg.value(metadata ptr %ptr, metadata !1303, metadata !DIExpression()), !dbg !1311
  call void @llvm.dbg.declare(metadata ptr undef, metadata !1157, metadata !DIExpression()), !dbg !1313
  call void @llvm.dbg.declare(metadata ptr undef, metadata !1256, metadata !DIExpression()), !dbg !1314
  tail call void @llvm.dbg.value(metadata i64 poison, metadata !1269, metadata !DIExpression(DW_OP_LLVM_fragment, 64, 64)), !dbg !1315
  tail call void @llvm.dbg.value(metadata i64 poison, metadata !1269, metadata !DIExpression(DW_OP_LLVM_fragment, 0, 64)), !dbg !1315
  tail call void @llvm.dbg.value(metadata i64 40, metadata !1269, metadata !DIExpression(DW_OP_LLVM_fragment, 128, 64)), !dbg !1315
  tail call void @llvm.dbg.value(metadata i64 40, metadata !1316, metadata !DIExpression()), !dbg !1354
  tail call void @llvm.dbg.value(metadata i64 40, metadata !1269, metadata !DIExpression(DW_OP_LLVM_fragment, 192, 64)), !dbg !1315
  tail call void @llvm.dbg.value(metadata i64 40, metadata !1269, metadata !DIExpression(DW_OP_LLVM_fragment, 256, 64)), !dbg !1315
  tail call void @llvm.dbg.value(metadata ptr %ptr, metadata !1271, metadata !DIExpression()), !dbg !1356
  tail call void @llvm.dbg.value(metadata ptr %ptr, metadata !1320, metadata !DIExpression()), !dbg !1354
  %_140 = getelementptr inbounds i8, ptr %ptr, i64 40, !dbg !1357, !unsafe_inst !531, !unsafe_line_info !825
  tail call void @llvm.dbg.value(metadata ptr %_140, metadata !1358, metadata !DIExpression()), !dbg !1365
  tail call void @llvm.dbg.value(metadata ptr %_140, metadata !1367, metadata !DIExpression()), !dbg !1372
  tail call void @llvm.dbg.value(metadata ptr %ptr, metadata !1065, metadata !DIExpression(DW_OP_LLVM_fragment, 0, 64)), !dbg !1374
  tail call void @llvm.dbg.value(metadata ptr %_140, metadata !1065, metadata !DIExpression(DW_OP_LLVM_fragment, 64, 64)), !dbg !1374
  tail call void @llvm.dbg.value(metadata ptr %_140, metadata !1065, metadata !DIExpression(DW_OP_LLVM_fragment, 128, 64)), !dbg !1374
  tail call void @llvm.dbg.value(metadata ptr %_140, metadata !1065, metadata !DIExpression(DW_OP_LLVM_fragment, 192, 64)), !dbg !1374
  tail call void @llvm.dbg.value(metadata ptr @alloc_9759292953199ec260c54435f4455cf6, metadata !1067, metadata !DIExpression(DW_OP_LLVM_fragment, 0, 64)), !dbg !1375
  tail call void @llvm.dbg.value(metadata ptr %ptr, metadata !1067, metadata !DIExpression(DW_OP_LLVM_fragment, 64, 64)), !dbg !1375
  tail call void @llvm.dbg.value(metadata ptr undef, metadata !1073, metadata !DIExpression()), !dbg !1376
  tail call void @llvm.dbg.value(metadata ptr %ptr, metadata !1188, metadata !DIExpression(DW_OP_plus_uconst, 8, DW_OP_stack_value)), !dbg !1189
  tail call void @llvm.dbg.value(metadata ptr %ptr, metadata !1377, metadata !DIExpression(DW_OP_plus_uconst, 8, DW_OP_stack_value)), !dbg !1389
  %_148 = getelementptr inbounds i8, ptr %ptr, i64 8, !dbg !1391, !unsafe_inst !531, !unsafe_line_info !532
  tail call void @llvm.dbg.value(metadata i8 2, metadata !997, metadata !DIExpression()), !dbg !1392
  tail call void @llvm.dbg.value(metadata ptr %_148, metadata !1003, metadata !DIExpression()), !dbg !1392
  %0 = load atomic i64, ptr %_148 acquire, align 8, !dbg !1394
  tail call void @llvm.dbg.value(metadata i64 %0, metadata !1125, metadata !DIExpression()), !dbg !1395
  tail call void asm sideeffect "nop # marker_end", ""() #19, !dbg !1396
  tail call void @llvm.dbg.value(metadata i64 %0, metadata !1125, metadata !DIExpression()), !dbg !1395
  tail call void asm sideeffect "nop # marker_begin", ""() #19, !dbg !1397
  %_12323 = and i64 %0, 8, !dbg !1397, !unsafe_inst !531, !unsafe_line_info !1398
  %1 = icmp eq i64 %_12323, 0, !dbg !1397, !unsafe_inst !531, !unsafe_line_info !1398
  tail call void asm sideeffect "nop # marker_end", ""() #19, !dbg !1397
  call void @__unsafe_record_block(i32 6, i32 8, i32 5, i16 1, i16 0, i16 0, i16 0, i16 2, i16 2), !dbg !1397
  br i1 %1, label %bb13, label %bb2, !dbg !1397, !unsafe_inst !531, !unsafe_line_info !1398

bb13:                                             ; preds = %start, %bb15
  %state.sroa.0.0324 = phi i64 [ %9, %bb15 ], [ %0, %start ]
  tail call void @llvm.dbg.value(metadata i64 %state.sroa.0.0324, metadata !1125, metadata !DIExpression()), !dbg !1395
  tail call void asm sideeffect "nop # marker_begin", ""() #19, !dbg !1399
  tail call void @llvm.dbg.value(metadata ptr %ptr, metadata !1212, metadata !DIExpression(DW_OP_plus_uconst, 8, DW_OP_stack_value)), !dbg !1228
  tail call void @llvm.dbg.value(metadata i64 %state.sroa.0.0324, metadata !1213, metadata !DIExpression()), !dbg !1228
  %_30 = and i64 %state.sroa.0.0324, -12, !dbg !1400, !unsafe_inst !531, !unsafe_line_info !1401
  %new31 = or disjoint i64 %_30, 2, !dbg !1400, !unsafe_inst !531, !unsafe_line_info !1401
  tail call void @llvm.dbg.value(metadata i64 %_30, metadata !1214, metadata !DIExpression(DW_OP_constu, 2, DW_OP_or, DW_OP_stack_value)), !dbg !1228
  tail call void @llvm.dbg.value(metadata i8 3, metadata !1020, metadata !DIExpression()), !dbg !1402
  tail call void @llvm.dbg.value(metadata i8 2, metadata !1028, metadata !DIExpression()), !dbg !1402
  tail call void @llvm.dbg.value(metadata ptr %_148, metadata !1025, metadata !DIExpression()), !dbg !1402
  tail call void @llvm.dbg.value(metadata i64 %state.sroa.0.0324, metadata !1026, metadata !DIExpression()), !dbg !1402
  tail call void @llvm.dbg.value(metadata i64 %_30, metadata !1027, metadata !DIExpression(DW_OP_constu, 2, DW_OP_or, DW_OP_stack_value)), !dbg !1402
  %2 = cmpxchg weak ptr %_148, i64 %state.sroa.0.0324, i64 %new31 acq_rel acquire, align 8, !dbg !1404
  %3 = extractvalue { i64, i1 } %2, 1, !dbg !1404
  tail call void asm sideeffect "nop # marker_end", ""() #19, !dbg !1405
  call void @__unsafe_record_block(i32 6, i32 6, i32 4, i16 0, i16 1, i16 0, i16 0, i16 0, i16 3), !dbg !1405
  br i1 %3, label %bb16, label %bb15, !dbg !1405

bb2:                                              ; preds = %bb15, %start
  tail call void asm sideeffect "nop # marker_begin", ""() #19, !dbg !1406
  tail call void @llvm.dbg.value(metadata ptr %ptr, metadata !1196, metadata !DIExpression(DW_OP_plus_uconst, 8, DW_OP_stack_value)), !dbg !1198
  tail call void @llvm.dbg.value(metadata ptr %_148, metadata !1204, metadata !DIExpression()), !dbg !1206
  %4 = atomicrmw and ptr %_148, i64 -2 acq_rel, align 8, !dbg !1407, !unsafe_inst !531, !unsafe_line_info !1408
  tail call void @llvm.dbg.value(metadata i64 %4, metadata !1127, metadata !DIExpression()), !dbg !1409
  tail call void @llvm.dbg.value(metadata ptr null, metadata !1129, metadata !DIExpression(DW_OP_LLVM_fragment, 0, 64)), !dbg !1410
  %_18 = and i64 %4, 32, !dbg !1411, !unsafe_inst !531, !unsafe_line_info !1412
  %5 = icmp eq i64 %_18, 0, !dbg !1411, !unsafe_inst !531, !unsafe_line_info !1412
  tail call void asm sideeffect "nop # marker_end", ""() #19, !dbg !1411
  tail call void asm sideeffect "nop # marker_begin", ""() #19, !dbg !1410
  tail call void asm sideeffect "nop # marker_end", ""() #19, !dbg !1410
  call void @__unsafe_record_block(i32 6, i32 4, i32 3, i16 0, i16 1, i16 0, i16 0, i16 0, i16 2), !dbg !1411
  br i1 %5, label %bb8, label %bb3, !dbg !1411, !unsafe_inst !531, !unsafe_line_info !1412

bb16:                                             ; preds = %bb13
  tail call void asm sideeffect "nop # marker_begin", ""() #19, !dbg !1413
  tail call void @llvm.dbg.value(metadata i64 %_30, metadata !1125, metadata !DIExpression(DW_OP_constu, 2, DW_OP_or, DW_OP_stack_value)), !dbg !1395
  tail call void @llvm.dbg.value(metadata ptr %ptr, metadata !1135, metadata !DIExpression(DW_OP_LLVM_fragment, 0, 64)), !dbg !1414
  tail call void @llvm.dbg.value(metadata ptr %_140, metadata !1135, metadata !DIExpression(DW_OP_LLVM_fragment, 64, 64)), !dbg !1414
  tail call void @llvm.dbg.value(metadata ptr %_140, metadata !1135, metadata !DIExpression(DW_OP_LLVM_fragment, 128, 64)), !dbg !1414
  tail call void @llvm.dbg.value(metadata ptr %_140, metadata !1135, metadata !DIExpression(DW_OP_LLVM_fragment, 192, 64)), !dbg !1414
  %6 = getelementptr inbounds i8, ptr %ptr, i64 32, !dbg !1415, !unsafe_inst !531, !unsafe_line_info !1416
  %7 = load i8, ptr %6, align 8, !dbg !1415, !range !1417, !noundef !29, !unsafe_inst !531, !unsafe_line_info !1416
  %_38.not = icmp eq i8 %7, 0, !dbg !1415
  tail call void asm sideeffect "nop # marker_end", ""() #19, !dbg !1415
  tail call void asm sideeffect "nop # marker_begin", ""() #19, !dbg !1414
  tail call void asm sideeffect "nop # marker_end", ""() #19, !dbg !1414
  %8 = load i8, ptr %_140, align 1, !dbg !1414, !range !1418, !noundef !29
  %switch.i = icmp eq i8 %8, 0, !dbg !1414
  call void @__unsafe_record_block(i32 6, i32 6, i32 3, i16 1, i16 0, i16 0, i16 0, i16 1, i16 1), !dbg !1415
  br i1 %_38.not, label %bb18, label %bb17, !dbg !1415, !unsafe_inst !531, !unsafe_line_info !1416

bb15:                                             ; preds = %bb13
  %9 = extractvalue { i64, i1 } %2, 0, !dbg !1404
  tail call void asm sideeffect "nop # marker_begin", ""() #19, !dbg !1419
  tail call void @llvm.dbg.value(metadata i64 %9, metadata !1125, metadata !DIExpression()), !dbg !1395
  tail call void asm sideeffect "nop # marker_end", ""() #19, !dbg !1396
  tail call void asm sideeffect "nop # marker_begin", ""() #19, !dbg !1397
  %_12 = and i64 %9, 8, !dbg !1397, !unsafe_inst !531, !unsafe_line_info !1398
  %10 = icmp eq i64 %_12, 0, !dbg !1397, !unsafe_inst !531, !unsafe_line_info !1398
  tail call void asm sideeffect "nop # marker_end", ""() #19, !dbg !1397
  call void @__unsafe_record_block(i32 6, i32 4, i32 2, i16 0, i16 0, i16 0, i16 0, i16 0, i16 2), !dbg !1397
  br i1 %10, label %bb13, label %bb2, !dbg !1397, !unsafe_inst !531, !unsafe_line_info !1398

bb18:                                             ; preds = %bb16
  call void @llvm.dbg.value(metadata ptr %_140, metadata !1420, metadata !DIExpression()), !dbg !1433
  call void @llvm.dbg.value(metadata ptr undef, metadata !1432, metadata !DIExpression()), !dbg !1433
  call void @__unsafe_record_block(i32 6, i32 1, i32 0, i16 0, i16 0, i16 0, i16 0, i16 0, i16 0), !dbg !1435
  br i1 %switch.i, label %bb115, label %panic.i, !dbg !1435

panic.i:                                          ; preds = %bb18
  call void @__unsafe_record_block(i32 6, i32 1, i32 0, i16 0, i16 0, i16 0, i16 0, i16 0, i16 0), !dbg !1435
; invoke core::panicking::panic_const::panic_const_async_fn_resumed
  invoke void @_ZN4core9panicking11panic_const28panic_const_async_fn_resumed17hb36b4da0d6ec92b0E(ptr noalias noundef nonnull readonly align 8 dereferenceable(24) @alloc_e022a49024d0d9ed84fee10080196c33) #21
          to label %.noexc unwind label %cleanup, !dbg !1435

.noexc:                                           ; preds = %panic.i
  call void @__unsafe_record_block(i32 6, i32 1, i32 0, i16 0, i16 0, i16 0, i16 0, i16 0, i16 0), !dbg !1435
  unreachable, !dbg !1435

bb17:                                             ; preds = %bb16
  tail call void @llvm.dbg.value(metadata ptr undef, metadata !1436, metadata !DIExpression(DW_OP_LLVM_fragment, 0, 64)), !dbg !1472
  tail call void @llvm.dbg.value(metadata ptr undef, metadata !1436, metadata !DIExpression(DW_OP_LLVM_fragment, 64, 64)), !dbg !1472
  call void @llvm.dbg.value(metadata ptr undef, metadata !1474, metadata !DIExpression(DW_OP_LLVM_fragment, 0, 64)), !dbg !1504
  call void @llvm.dbg.value(metadata ptr undef, metadata !1474, metadata !DIExpression(DW_OP_LLVM_fragment, 64, 64)), !dbg !1504
  call void @llvm.dbg.value(metadata ptr undef, metadata !1479, metadata !DIExpression(DW_OP_LLVM_fragment, 0, 64)), !dbg !1506
  call void @llvm.dbg.value(metadata ptr undef, metadata !1479, metadata !DIExpression(DW_OP_LLVM_fragment, 64, 64)), !dbg !1506
  call void @llvm.dbg.value(metadata ptr undef, metadata !1501, metadata !DIExpression()), !dbg !1507
  call void @llvm.dbg.value(metadata ptr undef, metadata !1508, metadata !DIExpression()), !dbg !1520
  call void @llvm.dbg.value(metadata ptr undef, metadata !1513, metadata !DIExpression()), !dbg !1522
  call void @llvm.dbg.value(metadata ptr undef, metadata !1516, metadata !DIExpression()), !dbg !1523
  call void @llvm.dbg.value(metadata ptr undef, metadata !1518, metadata !DIExpression(DW_OP_LLVM_fragment, 0, 64)), !dbg !1524
  call void @llvm.dbg.value(metadata ptr poison, metadata !1518, metadata !DIExpression(DW_OP_LLVM_fragment, 64, 64)), !dbg !1524
  call void @llvm.dbg.declare(metadata ptr undef, metadata !1525, metadata !DIExpression()), !dbg !1536
  call void @llvm.dbg.value(metadata ptr undef, metadata !1532, metadata !DIExpression(DW_OP_LLVM_fragment, 0, 64)), !dbg !1538
  call void @llvm.dbg.value(metadata ptr undef, metadata !1532, metadata !DIExpression(DW_OP_LLVM_fragment, 64, 64)), !dbg !1538
  call void @llvm.dbg.declare(metadata ptr undef, metadata !1533, metadata !DIExpression()), !dbg !1536
  call void @llvm.dbg.value(metadata ptr undef, metadata !1539, metadata !DIExpression(DW_OP_LLVM_fragment, 0, 64)), !dbg !1549
  call void @llvm.dbg.value(metadata ptr undef, metadata !1539, metadata !DIExpression(DW_OP_LLVM_fragment, 64, 64)), !dbg !1549
  call void @llvm.dbg.declare(metadata ptr undef, metadata !1545, metadata !DIExpression()), !dbg !1551
  call void @llvm.dbg.value(metadata ptr undef, metadata !1552, metadata !DIExpression(DW_OP_deref, DW_OP_deref)), !dbg !1559
  call void @llvm.dbg.value(metadata ptr undef, metadata !1558, metadata !DIExpression(DW_OP_deref, DW_OP_plus_uconst, 8, DW_OP_deref)), !dbg !1559
  call void @llvm.dbg.value(metadata ptr %_140, metadata !1420, metadata !DIExpression()), !dbg !1561
  call void @llvm.dbg.value(metadata ptr undef, metadata !1432, metadata !DIExpression()), !dbg !1561
  call void @__unsafe_record_block(i32 6, i32 1, i32 0, i16 0, i16 0, i16 0, i16 0, i16 0, i16 0), !dbg !1563
  br i1 %switch.i, label %bb2.i, label %panic.i.i.i.i.i.i, !dbg !1563

panic.i.i.i.i.i.i:                                ; preds = %bb17
  call void @__unsafe_record_block(i32 6, i32 1, i32 0, i16 0, i16 0, i16 0, i16 0, i16 0, i16 0), !dbg !1563
; invoke core::panicking::panic_const::panic_const_async_fn_resumed
  invoke void @_ZN4core9panicking11panic_const28panic_const_async_fn_resumed17hb36b4da0d6ec92b0E(ptr noalias noundef nonnull readonly align 8 dereferenceable(24) @alloc_e022a49024d0d9ed84fee10080196c33) #21
          to label %.noexc.i unwind label %catch.i.i, !dbg !1563, !noalias !1564

.noexc.i:                                         ; preds = %panic.i.i.i.i.i.i
  call void @__unsafe_record_block(i32 6, i32 1, i32 0, i16 0, i16 0, i16 0, i16 0, i16 0, i16 0), !dbg !1563
  unreachable, !dbg !1563

catch.i.i:                                        ; preds = %panic.i.i.i.i.i.i
  %11 = landingpad { ptr, i32 }
          cleanup
          catch ptr null, !dbg !1568
  %12 = extractvalue { ptr, i32 } %11, 0, !dbg !1568
  call void @llvm.dbg.value(metadata ptr undef, metadata !1569, metadata !DIExpression()), !dbg !1581
  call void @llvm.dbg.value(metadata ptr %12, metadata !1574, metadata !DIExpression()), !dbg !1581
  call void @llvm.dbg.value(metadata ptr undef, metadata !1575, metadata !DIExpression()), !dbg !1583
  call void @llvm.dbg.value(metadata ptr undef, metadata !1577, metadata !DIExpression()), !dbg !1584
  call void @__unsafe_record_block(i32 6, i32 3, i32 0, i16 0, i16 0, i16 0, i16 0, i16 0, i16 0), !dbg !1585
; invoke std::panicking::try::cleanup
  %13 = invoke { ptr, ptr } @_ZN3std9panicking3try7cleanup17hd6ade9b987c70092E(ptr noundef %12)
          to label %bb3.i unwind label %terminate.i.i, !dbg !1585

terminate.i.i:                                    ; preds = %catch.i.i
  %14 = landingpad { ptr, i32 }
          filter [0 x ptr] zeroinitializer
; call core::panicking::panic_cannot_unwind
  tail call void @_ZN4core9panicking19panic_cannot_unwind17h3f96c9c07954d1a5E() #20, !dbg !1586, !noalias !1564
  call void @__unsafe_record_block(i32 6, i32 3, i32 0, i16 0, i16 0, i16 0, i16 0, i16 0, i16 0), !dbg !1586
  unreachable, !dbg !1586

bb2.i:                                            ; preds = %bb17
  store i8 1, ptr %_140, align 1, !dbg !1587, !noalias !1588
  call void @llvm.dbg.value(metadata ptr poison, metadata !1479, metadata !DIExpression(DW_OP_LLVM_fragment, 64, 64)), !dbg !1506
  call void @llvm.dbg.value(metadata i64 undef, metadata !1479, metadata !DIExpression(DW_OP_constu, 18446744073709551360, DW_OP_and, DW_OP_stack_value, DW_OP_LLVM_fragment, 0, 64)), !dbg !1506
  call void @__unsafe_record_block(i32 6, i32 2, i32 0, i16 0, i16 0, i16 0, i16 0, i16 0, i16 0), !dbg !1591
  br label %bb111, !dbg !1591

bb3.i:                                            ; preds = %catch.i.i
  %obj.0.i.i = extractvalue { ptr, ptr } %13, 0, !dbg !1585
  %obj.1.i.i = extractvalue { ptr, ptr } %13, 1, !dbg !1585
  call void @llvm.dbg.value(metadata ptr %obj.0.i.i, metadata !1479, metadata !DIExpression(DW_OP_LLVM_fragment, 0, 64)), !dbg !1506
  call void @llvm.dbg.value(metadata ptr %obj.1.i.i, metadata !1479, metadata !DIExpression(DW_OP_LLVM_fragment, 64, 64)), !dbg !1506
  %15 = icmp ne ptr %obj.0.i.i, null
  tail call void @llvm.assume(i1 %15)
  call void @__unsafe_record_block(i32 6, i32 5, i32 0, i16 0, i16 0, i16 0, i16 0, i16 0, i16 0), !dbg !1591
  br label %bb111, !dbg !1591

bb103:                                            ; preds = %bb99, %bb101, %cleanup
  %_128.sroa.0.0 = phi i1 [ false, %bb99 ], [ false, %bb101 ], [ true, %cleanup ], !dbg !1395
  %.pn144.pn = phi { ptr, i32 } [ %.pn144, %bb99 ], [ %.pn144, %bb101 ], [ %16, %cleanup ]
  call void asm sideeffect "nop # marker_begin", ""() #19, !dbg !1592
  call void asm sideeffect "nop # marker_end", ""() #19, !dbg !1592
  call void @__unsafe_record_block(i32 6, i32 3, i32 0, i16 0, i16 0, i16 0, i16 0, i16 0, i16 0), !dbg !1592
  br i1 %_128.sroa.0.0, label %bb102, label %bb78, !dbg !1592, !unsafe_inst !531, !unsafe_line_info !1593

cleanup:                                          ; preds = %panic.i
  %16 = landingpad { ptr, i32 }
          cleanup
  call void @__unsafe_record_block(i32 6, i32 2, i32 0, i16 0, i16 0, i16 0, i16 0, i16 0, i16 0)
  br label %bb103

bb115:                                            ; preds = %bb18
  store i8 1, ptr %_140, align 1, !dbg !1594
  tail call void @llvm.dbg.value(metadata i8 0, metadata !1255, metadata !DIExpression()), !dbg !1595
  tail call void asm sideeffect "nop # marker_begin", ""() #19, !dbg !1596
  tail call void asm sideeffect "nop # marker_end", ""() #19, !dbg !1597
  tail call void asm sideeffect "nop # marker_begin", ""() #19, !dbg !1598
  tail call void asm sideeffect "nop # marker_end", ""() #19, !dbg !1598
  tail call void asm sideeffect "nop # marker_begin", ""() #19, !dbg !1599
  tail call void @llvm.dbg.value(metadata ptr null, metadata !1141, metadata !DIExpression(DW_OP_LLVM_fragment, 64, 64)), !dbg !1600
  tail call void @llvm.dbg.value(metadata i64 0, metadata !1141, metadata !DIExpression(DW_OP_LLVM_fragment, 0, 64)), !dbg !1600
  tail call void asm sideeffect "nop # marker_end", ""() #19, !dbg !1601
  tail call void asm sideeffect "nop # marker_begin", ""() #19, !dbg !1602
  tail call void asm sideeffect "nop # marker_end", ""() #19, !dbg !1603
  call void @__unsafe_record_block(i32 6, i32 2, i32 0, i16 0, i16 0, i16 0, i16 0, i16 0, i16 0), !dbg !1603
  br label %bb24, !dbg !1603, !unsafe_inst !531, !unsafe_line_info !1416

bb24:                                             ; preds = %bb82, %bb115
  %poll.sroa.0.0 = phi i64 [ 0, %bb115 ], [ %poll.sroa.0.1, %bb82 ], !dbg !1414
  %poll.sroa.8.0 = phi ptr [ null, %bb115 ], [ %poll.sroa.8.1, %bb82 ], !dbg !1414
  %poll.sroa.13.0 = phi ptr [ undef, %bb115 ], [ %_39.sroa.6.0, %bb82 ]
  tail call void @llvm.dbg.value(metadata ptr %poll.sroa.13.0, metadata !1141, metadata !DIExpression(DW_OP_LLVM_fragment, 128, 64)), !dbg !1600
  tail call void @llvm.dbg.value(metadata ptr %poll.sroa.8.0, metadata !1141, metadata !DIExpression(DW_OP_LLVM_fragment, 64, 64)), !dbg !1600
  tail call void @llvm.dbg.value(metadata i64 %poll.sroa.0.0, metadata !1141, metadata !DIExpression(DW_OP_LLVM_fragment, 0, 64)), !dbg !1600
  tail call void asm sideeffect "nop # marker_begin", ""() #19, !dbg !1604
  tail call void asm sideeffect "nop # marker_end", ""() #19, !dbg !1605
  %trunc135.not = icmp eq i64 %poll.sroa.0.0, 0, !dbg !1605
  tail call void asm sideeffect "nop # marker_begin", ""() #19, !dbg !1600
  tail call void asm sideeffect "nop # marker_end", ""() #19, !dbg !1600
  call void @__unsafe_record_block(i32 6, i32 5, i32 0, i16 0, i16 0, i16 0, i16 0, i16 0, i16 0), !dbg !1605
  br i1 %trunc135.not, label %bb116, label %bb50, !dbg !1605

bb111:                                            ; preds = %bb3.i, %bb2.i
  %_39.sroa.0.0 = phi ptr [ null, %bb2.i ], [ %obj.0.i.i, %bb3.i ], !dbg !1507
  %_39.sroa.6.0 = phi ptr [ null, %bb2.i ], [ %obj.1.i.i, %bb3.i ], !dbg !1507
  tail call void asm sideeffect "nop # marker_begin", ""() #19, !dbg !1473
  %17 = icmp eq ptr %_39.sroa.0.0, null, !dbg !1473
  tail call void asm sideeffect "nop # marker_end", ""() #19, !dbg !1606
  tail call void asm sideeffect "nop # marker_begin", ""() #19, !dbg !1414
  call void @__unsafe_record_block(i32 6, i32 4, i32 2, i16 0, i16 0, i16 0, i16 0, i16 0, i16 2), !dbg !1606
  br i1 %17, label %bb19, label %bb20, !dbg !1606

bb19:                                             ; preds = %bb111
  %18 = ptrtoint ptr %_39.sroa.6.0 to i64, !dbg !1473
  tail call void asm sideeffect "nop # marker_end", ""() #19, !dbg !1606
  %19 = and i64 %18, 255, !dbg !1606
  %trunc.not = icmp ne i64 %19, 0, !dbg !1606
  tail call void asm sideeffect "nop # marker_begin", ""() #19, !dbg !1414
  tail call void asm sideeffect "nop # marker_end", ""() #19, !dbg !1414
  %. = zext i1 %trunc.not to i64, !dbg !1414
  call void @__unsafe_record_block(i32 6, i32 5, i32 0, i16 0, i16 0, i16 0, i16 0, i16 0, i16 0), !dbg !1414
  br label %bb82, !dbg !1414, !unsafe_inst !531, !unsafe_line_info !1607

bb20:                                             ; preds = %bb111
  %20 = icmp ne ptr %_39.sroa.6.0, null
  tail call void @llvm.assume(i1 %20)
  tail call void @llvm.dbg.value(metadata ptr %_39.sroa.0.0, metadata !1141, metadata !DIExpression(DW_OP_LLVM_fragment, 64, 64)), !dbg !1600
  tail call void @llvm.dbg.value(metadata ptr %_39.sroa.6.0, metadata !1141, metadata !DIExpression(DW_OP_LLVM_fragment, 128, 64)), !dbg !1600
  tail call void @llvm.dbg.value(metadata i64 0, metadata !1141, metadata !DIExpression(DW_OP_LLVM_fragment, 0, 64)), !dbg !1600
  tail call void asm sideeffect "nop # marker_end", ""() #19, !dbg !1608
  call void @__unsafe_record_block(i32 6, i32 3, i32 0, i16 0, i16 0, i16 0, i16 0, i16 0, i16 0), !dbg !1608
  br label %bb82, !dbg !1608, !unsafe_inst !531, !unsafe_line_info !1609

bb82:                                             ; preds = %bb19, %bb20
  %poll.sroa.0.1 = phi i64 [ 0, %bb20 ], [ %., %bb19 ], !dbg !1414
  %poll.sroa.8.1 = phi ptr [ %_39.sroa.0.0, %bb20 ], [ null, %bb19 ]
  tail call void @llvm.dbg.value(metadata ptr %_39.sroa.6.0, metadata !1141, metadata !DIExpression(DW_OP_LLVM_fragment, 128, 64)), !dbg !1600
  tail call void @llvm.dbg.value(metadata ptr %poll.sroa.8.1, metadata !1141, metadata !DIExpression(DW_OP_LLVM_fragment, 64, 64)), !dbg !1600
  tail call void @llvm.dbg.value(metadata i64 %poll.sroa.0.1, metadata !1141, metadata !DIExpression(DW_OP_LLVM_fragment, 0, 64)), !dbg !1600
  tail call void asm sideeffect "nop # marker_begin", ""() #19, !dbg !1610
  tail call void asm sideeffect "nop # marker_end", ""() #19, !dbg !1603
  call void @__unsafe_record_block(i32 6, i32 3, i32 0, i16 0, i16 0, i16 0, i16 0, i16 0, i16 0), !dbg !1603
  br label %bb24, !dbg !1603, !unsafe_inst !531, !unsafe_line_info !1416

bb98:                                             ; preds = %bb95, %cleanup.body.i, %bb94, %bb96
  %.pn142 = phi { ptr, i32 } [ %.pn139, %bb94 ], [ %.pn139, %bb96 ], [ %42, %cleanup.body.i ], [ %.pn139, %bb95 ]
  call void asm sideeffect "nop # marker_begin", ""() #19, !dbg !1611
  call void asm sideeffect "nop # marker_end", ""() #19, !dbg !1611
  call void @__unsafe_record_block(i32 6, i32 2, i32 0, i16 0, i16 0, i16 0, i16 0, i16 0, i16 0), !dbg !1611
  br label %bb101, !dbg !1611

bb116:                                            ; preds = %bb24
  tail call void @llvm.dbg.value(metadata ptr %poll.sroa.8.0, metadata !1161, metadata !DIExpression(DW_OP_LLVM_fragment, 0, 64)), !dbg !1612
  tail call void @llvm.dbg.value(metadata ptr %poll.sroa.13.0, metadata !1161, metadata !DIExpression(DW_OP_LLVM_fragment, 64, 64)), !dbg !1612
  tail call void @llvm.dbg.value(metadata ptr %ptr, metadata !1301, metadata !DIExpression(DW_OP_LLVM_fragment, 0, 64)), !dbg !1613
  tail call void @llvm.dbg.value(metadata ptr %_140, metadata !1301, metadata !DIExpression(DW_OP_LLVM_fragment, 64, 64)), !dbg !1613
  tail call void @llvm.dbg.value(metadata ptr %_140, metadata !1301, metadata !DIExpression(DW_OP_LLVM_fragment, 128, 64)), !dbg !1613
  tail call void @llvm.dbg.value(metadata ptr %_140, metadata !1301, metadata !DIExpression(DW_OP_LLVM_fragment, 192, 64)), !dbg !1613
  tail call void asm sideeffect "nop # marker_begin", ""() #19, !dbg !1614
  tail call void @llvm.dbg.value(metadata ptr %poll.sroa.8.0, metadata !1364, metadata !DIExpression(DW_OP_LLVM_fragment, 0, 64)), !dbg !1365
  tail call void @llvm.dbg.value(metadata ptr %poll.sroa.8.0, metadata !1371, metadata !DIExpression(DW_OP_LLVM_fragment, 0, 64)), !dbg !1372
  tail call void @llvm.dbg.value(metadata ptr %poll.sroa.13.0, metadata !1364, metadata !DIExpression(DW_OP_LLVM_fragment, 64, 64)), !dbg !1365
  tail call void @llvm.dbg.value(metadata ptr %poll.sroa.13.0, metadata !1371, metadata !DIExpression(DW_OP_LLVM_fragment, 64, 64)), !dbg !1372
  store ptr %poll.sroa.8.0, ptr %_140, align 8, !dbg !1615, !unsafe_inst !531, !unsafe_line_info !1616
  %21 = getelementptr i8, ptr %ptr, i64 48, !dbg !1615
  store ptr %poll.sroa.13.0, ptr %21, align 8, !dbg !1615, !unsafe_inst !531, !unsafe_line_info !1616
  tail call void asm sideeffect "nop # marker_end", ""() #19, !dbg !1617
  tail call void @llvm.dbg.value(metadata i64 %_30, metadata !1125, metadata !DIExpression(DW_OP_constu, 2, DW_OP_or, DW_OP_stack_value)), !dbg !1395
  tail call void asm sideeffect "nop # marker_begin", ""() #19, !dbg !1618
  %_59337 = and i64 %state.sroa.0.0324, 16, !dbg !1619, !unsafe_inst !531, !unsafe_line_info !1620
  %22 = icmp eq i64 %_59337, 0, !dbg !1619, !unsafe_inst !531, !unsafe_line_info !1620
  tail call void asm sideeffect "nop # marker_end", ""() #19, !dbg !1619
  tail call void asm sideeffect "nop # marker_begin", ""() #19, !dbg !1612
  tail call void asm sideeffect "nop # marker_end", ""() #19, !dbg !1621
  tail call void @llvm.dbg.value(metadata i64 %23, metadata !1163, metadata !DIExpression()), !dbg !1622
  tail call void @llvm.dbg.value(metadata i64 %23, metadata !1163, metadata !DIExpression()), !dbg !1622
  %.332338 = select i1 %22, i64 -32, i64 -8, !dbg !1621
  %.333339 = select i1 %22, i64 12, i64 4, !dbg !1621
  %_62340 = and i64 %_30, %.332338, !dbg !1612
  %23 = or disjoint i64 %_62340, %.333339, !dbg !1612
  tail call void @llvm.dbg.value(metadata i64 %23, metadata !1163, metadata !DIExpression()), !dbg !1622
  tail call void asm sideeffect "nop # marker_begin", ""() #19, !dbg !1623
  tail call void @llvm.dbg.value(metadata ptr %ptr, metadata !1216, metadata !DIExpression(DW_OP_plus_uconst, 8, DW_OP_stack_value)), !dbg !1260
  tail call void @llvm.dbg.value(metadata i64 %_30, metadata !1218, metadata !DIExpression(DW_OP_constu, 2, DW_OP_or, DW_OP_stack_value)), !dbg !1260
  tail call void @llvm.dbg.value(metadata i64 %23, metadata !1219, metadata !DIExpression()), !dbg !1260
  tail call void asm sideeffect "nop # marker_end", ""() #19, !dbg !1624
  tail call void @llvm.dbg.value(metadata i8 3, metadata !1020, metadata !DIExpression()), !dbg !1625
  tail call void @llvm.dbg.value(metadata i8 2, metadata !1028, metadata !DIExpression()), !dbg !1625
  tail call void @llvm.dbg.value(metadata ptr %_148, metadata !1025, metadata !DIExpression()), !dbg !1625
  tail call void @llvm.dbg.value(metadata i64 %_30, metadata !1026, metadata !DIExpression(DW_OP_constu, 2, DW_OP_or, DW_OP_stack_value)), !dbg !1625
  tail call void @llvm.dbg.value(metadata i64 %23, metadata !1027, metadata !DIExpression()), !dbg !1625
  %24 = cmpxchg weak ptr %_148, i64 %new31, i64 %23 acq_rel acquire, align 8, !dbg !1627
  %25 = extractvalue { i64, i1 } %24, 1, !dbg !1627
  tail call void asm sideeffect "nop # marker_begin", ""() #19, !dbg !1623
  tail call void asm sideeffect "nop # marker_end", ""() #19, !dbg !1628
  call void @__unsafe_record_block(i32 6, i32 12, i32 5, i16 0, i16 2, i16 0, i16 0, i16 1, i16 2), !dbg !1628
  br i1 %25, label %bb32, label %bb31, !dbg !1628

bb32:                                             ; preds = %bb31, %bb116
  %state.sroa.0.1.lcssa = phi i64 [ %new31, %bb116 ], [ %27, %bb31 ], !dbg !1395
  %.lcssa = phi i1 [ %22, %bb116 ], [ %28, %bb31 ], !dbg !1619
  tail call void asm sideeffect "nop # marker_begin", ""() #19, !dbg !1629
  tail call void asm sideeffect "nop # marker_end", ""() #19, !dbg !1629
  tail call void asm sideeffect "nop # marker_begin", ""() #19, !dbg !1630
  call void @__unsafe_record_block(i32 6, i32 3, i32 1, i16 0, i16 0, i16 0, i16 0, i16 0, i16 1), !dbg !1629
  br i1 %.lcssa, label %bb33, label %bb34, !dbg !1629, !unsafe_inst !531, !unsafe_line_info !1631

bb31:                                             ; preds = %bb116, %bb31
  %26 = phi { i64, i1 } [ %30, %bb31 ], [ %24, %bb116 ]
  %27 = extractvalue { i64, i1 } %26, 0, !dbg !1627
  tail call void asm sideeffect "nop # marker_begin", ""() #19, !dbg !1632
  tail call void @llvm.dbg.value(metadata i64 %27, metadata !1125, metadata !DIExpression()), !dbg !1395
  tail call void asm sideeffect "nop # marker_end", ""() #19, !dbg !1617
  tail call void asm sideeffect "nop # marker_begin", ""() #19, !dbg !1618
  %_59 = and i64 %27, 16, !dbg !1619, !unsafe_inst !531, !unsafe_line_info !1620
  %28 = icmp eq i64 %_59, 0, !dbg !1619, !unsafe_inst !531, !unsafe_line_info !1620
  tail call void asm sideeffect "nop # marker_end", ""() #19, !dbg !1619
  tail call void asm sideeffect "nop # marker_begin", ""() #19, !dbg !1612
  tail call void asm sideeffect "nop # marker_end", ""() #19, !dbg !1621
  tail call void @llvm.dbg.value(metadata i64 %29, metadata !1163, metadata !DIExpression()), !dbg !1622
  %.332 = select i1 %28, i64 -32, i64 -8, !dbg !1621
  %.333 = select i1 %28, i64 12, i64 4, !dbg !1621
  %_62 = and i64 %27, %.332, !dbg !1612
  %29 = or disjoint i64 %_62, %.333, !dbg !1612
  tail call void asm sideeffect "nop # marker_begin", ""() #19, !dbg !1623
  tail call void @llvm.dbg.value(metadata ptr %ptr, metadata !1216, metadata !DIExpression(DW_OP_plus_uconst, 8, DW_OP_stack_value)), !dbg !1260
  tail call void @llvm.dbg.value(metadata i64 %27, metadata !1218, metadata !DIExpression()), !dbg !1260
  tail call void @llvm.dbg.value(metadata i64 %29, metadata !1219, metadata !DIExpression()), !dbg !1260
  tail call void asm sideeffect "nop # marker_end", ""() #19, !dbg !1624
  tail call void @llvm.dbg.value(metadata i8 3, metadata !1020, metadata !DIExpression()), !dbg !1625
  tail call void @llvm.dbg.value(metadata i8 2, metadata !1028, metadata !DIExpression()), !dbg !1625
  tail call void @llvm.dbg.value(metadata ptr %_148, metadata !1025, metadata !DIExpression()), !dbg !1625
  tail call void @llvm.dbg.value(metadata i64 %27, metadata !1026, metadata !DIExpression()), !dbg !1625
  tail call void @llvm.dbg.value(metadata i64 %29, metadata !1027, metadata !DIExpression()), !dbg !1625
  %30 = cmpxchg weak ptr %_148, i64 %27, i64 %29 acq_rel acquire, align 8, !dbg !1627
  %31 = extractvalue { i64, i1 } %30, 1, !dbg !1627
  tail call void asm sideeffect "nop # marker_begin", ""() #19, !dbg !1623
  tail call void asm sideeffect "nop # marker_end", ""() #19, !dbg !1628
  call void @__unsafe_record_block(i32 6, i32 11, i32 2, i16 0, i16 0, i16 0, i16 0, i16 0, i16 2), !dbg !1628
  br i1 %31, label %bb32, label %bb31, !dbg !1628

bb33:                                             ; preds = %bb32
  tail call void asm sideeffect "nop # marker_end", ""() #19, !dbg !1633
  call void @__unsafe_record_block(i32 6, i32 1, i32 0, i16 0, i16 0, i16 0, i16 0, i16 0, i16 0), !dbg !1633
  br label %bb36, !dbg !1633, !unsafe_inst !531, !unsafe_line_info !1631

bb34:                                             ; preds = %bb32
  %_75 = and i64 %state.sroa.0.1.lcssa, 8, !dbg !1634, !unsafe_inst !531, !unsafe_line_info !1631
  %32 = icmp eq i64 %_75, 0, !dbg !1634, !unsafe_inst !531, !unsafe_line_info !1631
  tail call void asm sideeffect "nop # marker_end", ""() #19, !dbg !1634
  tail call void asm sideeffect "nop # marker_begin", ""() #19, !dbg !1630
  tail call void asm sideeffect "nop # marker_end", ""() #19, !dbg !1630
  call void @__unsafe_record_block(i32 6, i32 3, i32 0, i16 0, i16 0, i16 0, i16 0, i16 0, i16 0), !dbg !1634
  br i1 %32, label %bb39, label %bb36, !dbg !1634, !unsafe_inst !531, !unsafe_line_info !1631

bb36:                                             ; preds = %bb34, %bb33
  tail call void asm sideeffect "nop # marker_begin", ""() #19, !dbg !1635
  tail call void asm sideeffect "nop # marker_end", ""() #19, !dbg !1636
  %.val174.val = load ptr, ptr %_140, align 8, !dbg !1636, !noundef !29
  %.val174.val175 = load ptr, ptr %21, align 8, !dbg !1636
  call void @llvm.lifetime.start.p0(i64 0, ptr nonnull %_2.i299), !dbg !1637
  call void @llvm.dbg.declare(metadata ptr undef, metadata !1663, metadata !DIExpression()), !dbg !1669
  call void @llvm.dbg.value(metadata ptr undef, metadata !1662, metadata !DIExpression()), !dbg !1670
  call void @llvm.dbg.value(metadata ptr undef, metadata !1657, metadata !DIExpression(DW_OP_deref)), !dbg !1671
  call void @llvm.dbg.value(metadata ptr undef, metadata !1647, metadata !DIExpression()), !dbg !1672
  call void @llvm.dbg.value(metadata ptr undef, metadata !1642, metadata !DIExpression()), !dbg !1673
  %33 = icmp eq ptr %.val174.val, null, !dbg !1637
  call void @__unsafe_record_block(i32 6, i32 5, i32 0, i16 0, i16 0, i16 0, i16 0, i16 0, i16 0), !dbg !1637
  br i1 %33, label %bb37, label %bb2.i.i.i, !dbg !1637

bb2.i.i.i:                                        ; preds = %bb36
  %34 = icmp ne ptr %.val174.val175, null
  tail call void @llvm.assume(i1 %34)
  call void @llvm.dbg.value(metadata ptr undef, metadata !1674, metadata !DIExpression()), !dbg !1680
  %35 = load ptr, ptr %.val174.val175, align 8, !dbg !1682, !invariant.load !29
  %.not.i.i.i.i = icmp eq ptr %35, null, !dbg !1682
  call void @__unsafe_record_block(i32 6, i32 5, i32 0, i16 0, i16 0, i16 0, i16 0, i16 0, i16 0), !dbg !1682
  br i1 %.not.i.i.i.i, label %bb3.i.i.i.i, label %is_not_null.i.i.i.i, !dbg !1682

is_not_null.i.i.i.i:                              ; preds = %bb2.i.i.i
  call void @__unsafe_record_block(i32 6, i32 1, i32 0, i16 0, i16 0, i16 0, i16 0, i16 0, i16 0), !dbg !1682
  invoke void %35(ptr noundef nonnull align 1 %.val174.val)
          to label %bb3.i.i.i.i unwind label %cleanup.i.i.i.i, !dbg !1682

bb3.i.i.i.i:                                      ; preds = %is_not_null.i.i.i.i, %bb2.i.i.i
  call void @llvm.dbg.value(metadata ptr undef, metadata !1683, metadata !DIExpression()), !dbg !1714
  call void @llvm.dbg.value(metadata ptr %.val174.val, metadata !1692, metadata !DIExpression(DW_OP_LLVM_fragment, 0, 64)), !dbg !1716
  call void @llvm.dbg.value(metadata ptr %.val174.val175, metadata !1692, metadata !DIExpression(DW_OP_LLVM_fragment, 64, 64)), !dbg !1716
  call void @llvm.dbg.value(metadata ptr %.val174.val, metadata !1717, metadata !DIExpression(DW_OP_LLVM_fragment, 0, 64)), !dbg !1728
  call void @llvm.dbg.value(metadata ptr %.val174.val, metadata !1730, metadata !DIExpression(DW_OP_LLVM_fragment, 0, 64)), !dbg !1736
  call void @llvm.dbg.value(metadata ptr %.val174.val, metadata !1738, metadata !DIExpression(DW_OP_LLVM_fragment, 0, 64)), !dbg !1742
  call void @llvm.dbg.value(metadata ptr %.val174.val175, metadata !1717, metadata !DIExpression(DW_OP_LLVM_fragment, 64, 64)), !dbg !1728
  call void @llvm.dbg.value(metadata ptr %.val174.val175, metadata !1730, metadata !DIExpression(DW_OP_LLVM_fragment, 64, 64)), !dbg !1736
  call void @llvm.dbg.value(metadata ptr %.val174.val175, metadata !1738, metadata !DIExpression(DW_OP_LLVM_fragment, 64, 64)), !dbg !1742
  %36 = getelementptr inbounds i8, ptr %.val174.val175, i64 8, !dbg !1744
  %37 = load i64, ptr %36, align 8, !dbg !1744, !range !1745, !invariant.load !29
  %38 = getelementptr inbounds i8, ptr %.val174.val175, i64 16, !dbg !1744
  call void @llvm.dbg.value(metadata i64 %37, metadata !1725, metadata !DIExpression()), !dbg !1746
  call void @llvm.dbg.value(metadata i64 %37, metadata !1747, metadata !DIExpression()), !dbg !1755
  %39 = load i64, ptr %38, align 8, !dbg !1757, !range !1758, !invariant.load !29
  call void @llvm.dbg.value(metadata i64 %39, metadata !1727, metadata !DIExpression()), !dbg !1746
  call void @llvm.dbg.value(metadata i64 %39, metadata !1754, metadata !DIExpression()), !dbg !1755
  call void @llvm.dbg.value(metadata i64 %39, metadata !1759, metadata !DIExpression()), !dbg !1767
  %40 = icmp ult i64 %39, -9223372036854775807, !dbg !1769
  tail call void @llvm.assume(i1 %40), !dbg !1769
  call void @llvm.dbg.value(metadata i64 %37, metadata !1709, metadata !DIExpression(DW_OP_LLVM_fragment, 64, 64)), !dbg !1770
  call void @llvm.dbg.value(metadata i64 %39, metadata !1709, metadata !DIExpression(DW_OP_LLVM_fragment, 0, 64)), !dbg !1770
  %41 = icmp eq i64 %37, 0, !dbg !1771
  call void @__unsafe_record_block(i32 6, i32 8, i32 0, i16 0, i16 0, i16 0, i16 0, i16 0, i16 0), !dbg !1771
  br i1 %41, label %bb37, label %bb1.i.i.i.i.i, !dbg !1771

bb1.i.i.i.i.i:                                    ; preds = %bb3.i.i.i.i
  call void @llvm.dbg.value(metadata i64 %39, metadata !1772, metadata !DIExpression(DW_OP_LLVM_fragment, 0, 64)), !dbg !1784
  call void @llvm.dbg.value(metadata i64 %37, metadata !1772, metadata !DIExpression(DW_OP_LLVM_fragment, 64, 64)), !dbg !1784
  call void @llvm.dbg.value(metadata ptr undef, metadata !1782, metadata !DIExpression()), !dbg !1784
  call void @llvm.dbg.value(metadata ptr %.val174.val, metadata !1783, metadata !DIExpression()), !dbg !1784
  call void @llvm.dbg.value(metadata ptr %.val174.val, metadata !1786, metadata !DIExpression()), !dbg !1791
  call void @llvm.dbg.value(metadata i64 %39, metadata !1790, metadata !DIExpression(DW_OP_LLVM_fragment, 0, 64)), !dbg !1791
  call void @llvm.dbg.value(metadata i64 %37, metadata !1790, metadata !DIExpression(DW_OP_LLVM_fragment, 64, 64)), !dbg !1791
  tail call void @__rust_dealloc(ptr noundef nonnull %.val174.val, i64 noundef %37, i64 noundef %39) #19, !dbg !1793
  call void @__unsafe_record_block(i32 6, i32 2, i32 0, i16 0, i16 0, i16 0, i16 0, i16 0, i16 0), !dbg !1794
  br label %bb37, !dbg !1794

cleanup.i.i.i.i:                                  ; preds = %is_not_null.i.i.i.i
  %42 = landingpad { ptr, i32 }
          cleanup
  call void @llvm.dbg.value(metadata ptr undef, metadata !1683, metadata !DIExpression()), !dbg !1795
  call void @llvm.dbg.value(metadata ptr %.val174.val, metadata !1692, metadata !DIExpression(DW_OP_LLVM_fragment, 0, 64)), !dbg !1797
  call void @llvm.dbg.value(metadata ptr %.val174.val175, metadata !1692, metadata !DIExpression(DW_OP_LLVM_fragment, 64, 64)), !dbg !1797
  call void @llvm.dbg.value(metadata ptr %.val174.val, metadata !1717, metadata !DIExpression(DW_OP_LLVM_fragment, 0, 64)), !dbg !1798
  call void @llvm.dbg.value(metadata ptr %.val174.val, metadata !1730, metadata !DIExpression(DW_OP_LLVM_fragment, 0, 64)), !dbg !1800
  call void @llvm.dbg.value(metadata ptr %.val174.val, metadata !1738, metadata !DIExpression(DW_OP_LLVM_fragment, 0, 64)), !dbg !1802
  call void @llvm.dbg.value(metadata ptr %.val174.val175, metadata !1717, metadata !DIExpression(DW_OP_LLVM_fragment, 64, 64)), !dbg !1798
  call void @llvm.dbg.value(metadata ptr %.val174.val175, metadata !1730, metadata !DIExpression(DW_OP_LLVM_fragment, 64, 64)), !dbg !1800
  call void @llvm.dbg.value(metadata ptr %.val174.val175, metadata !1738, metadata !DIExpression(DW_OP_LLVM_fragment, 64, 64)), !dbg !1802
  %43 = getelementptr inbounds i8, ptr %.val174.val175, i64 8, !dbg !1804
  %44 = load i64, ptr %43, align 8, !dbg !1804, !range !1745, !invariant.load !29
  %45 = getelementptr inbounds i8, ptr %.val174.val175, i64 16, !dbg !1804
  call void @llvm.dbg.value(metadata i64 %44, metadata !1725, metadata !DIExpression()), !dbg !1805
  call void @llvm.dbg.value(metadata i64 %44, metadata !1747, metadata !DIExpression()), !dbg !1806
  %46 = load i64, ptr %45, align 8, !dbg !1808, !range !1758, !invariant.load !29
  call void @llvm.dbg.value(metadata i64 %46, metadata !1727, metadata !DIExpression()), !dbg !1805
  call void @llvm.dbg.value(metadata i64 %46, metadata !1754, metadata !DIExpression()), !dbg !1806
  call void @llvm.dbg.value(metadata i64 %46, metadata !1759, metadata !DIExpression()), !dbg !1809
  %47 = icmp ult i64 %46, -9223372036854775807, !dbg !1811
  tail call void @llvm.assume(i1 %47), !dbg !1811
  call void @llvm.dbg.value(metadata i64 %44, metadata !1709, metadata !DIExpression(DW_OP_LLVM_fragment, 64, 64)), !dbg !1812
  call void @llvm.dbg.value(metadata i64 %46, metadata !1709, metadata !DIExpression(DW_OP_LLVM_fragment, 0, 64)), !dbg !1812
  %48 = icmp eq i64 %44, 0, !dbg !1813
  call void @__unsafe_record_block(i32 6, i32 9, i32 0, i16 0, i16 0, i16 0, i16 0, i16 0, i16 0), !dbg !1813
  br i1 %48, label %cleanup.body.i, label %bb1.i4.i.i.i.i, !dbg !1813

bb1.i4.i.i.i.i:                                   ; preds = %cleanup.i.i.i.i
  call void @llvm.dbg.value(metadata i64 %46, metadata !1772, metadata !DIExpression(DW_OP_LLVM_fragment, 0, 64)), !dbg !1814
  call void @llvm.dbg.value(metadata i64 %44, metadata !1772, metadata !DIExpression(DW_OP_LLVM_fragment, 64, 64)), !dbg !1814
  call void @llvm.dbg.value(metadata ptr undef, metadata !1782, metadata !DIExpression()), !dbg !1814
  call void @llvm.dbg.value(metadata ptr %.val174.val, metadata !1783, metadata !DIExpression()), !dbg !1814
  call void @llvm.dbg.value(metadata ptr %.val174.val, metadata !1786, metadata !DIExpression()), !dbg !1816
  call void @llvm.dbg.value(metadata i64 %46, metadata !1790, metadata !DIExpression(DW_OP_LLVM_fragment, 0, 64)), !dbg !1816
  call void @llvm.dbg.value(metadata i64 %44, metadata !1790, metadata !DIExpression(DW_OP_LLVM_fragment, 64, 64)), !dbg !1816
  tail call void @__rust_dealloc(ptr noundef nonnull %.val174.val, i64 noundef %44, i64 noundef %46) #19, !dbg !1818
  call void @__unsafe_record_block(i32 6, i32 2, i32 0, i16 0, i16 0, i16 0, i16 0, i16 0, i16 0), !dbg !1819
  br label %cleanup.body.i, !dbg !1819

cleanup.body.i:                                   ; preds = %bb1.i4.i.i.i.i, %cleanup.i.i.i.i
  call void @llvm.dbg.value(metadata ptr %_2.i299, metadata !725, metadata !DIExpression()), !dbg !1820
  call void @__unsafe_record_block(i32 6, i32 1, i32 0, i16 0, i16 0, i16 0, i16 0, i16 0, i16 0), !dbg !1822
; invoke <async_task::utils::abort_on_panic::Bomb as core::ops::drop::Drop>::drop
  invoke void @"_ZN81_$LT$async_task..utils..abort_on_panic..Bomb$u20$as$u20$core..ops..drop..Drop$GT$4drop17hbbde9adaede740a0E"(ptr noalias noundef nonnull align 1 %_2.i299)
          to label %bb98 unwind label %terminate.i, !dbg !1822

terminate.i:                                      ; preds = %cleanup.body.i
  %49 = landingpad { ptr, i32 }
          filter [0 x ptr] zeroinitializer
; call core::panicking::panic_in_cleanup
  call void @_ZN4core9panicking16panic_in_cleanup17h43442956f23e9cbeE() #20, !dbg !1823
  call void @__unsafe_record_block(i32 6, i32 3, i32 0, i16 0, i16 0, i16 0, i16 0, i16 0, i16 0), !dbg !1823
  unreachable, !dbg !1823

bb39:                                             ; preds = %bb34, %bb37
  tail call void asm sideeffect "nop # marker_begin", ""() #19, !dbg !1824
  tail call void @llvm.dbg.value(metadata ptr null, metadata !1165, metadata !DIExpression(DW_OP_LLVM_fragment, 0, 64)), !dbg !1825
  %_81 = and i64 %state.sroa.0.1.lcssa, 32, !dbg !1826, !unsafe_inst !531, !unsafe_line_info !1827
  %50 = icmp eq i64 %_81, 0, !dbg !1826, !unsafe_inst !531, !unsafe_line_info !1827
  tail call void asm sideeffect "nop # marker_end", ""() #19, !dbg !1826
  tail call void asm sideeffect "nop # marker_begin", ""() #19, !dbg !1825
  tail call void asm sideeffect "nop # marker_end", ""() #19, !dbg !1825
  call void @__unsafe_record_block(i32 6, i32 3, i32 2, i16 0, i16 0, i16 0, i16 0, i16 0, i16 2), !dbg !1826
  br i1 %50, label %bb45, label %bb40, !dbg !1826, !unsafe_inst !531, !unsafe_line_info !1827

bb37:                                             ; preds = %bb1.i.i.i.i.i, %bb3.i.i.i.i, %bb36
  call void @llvm.lifetime.end.p0(i64 0, ptr nonnull %_2.i299), !dbg !1828
  tail call void asm sideeffect "nop # marker_begin", ""() #19, !dbg !1829
  tail call void asm sideeffect "nop # marker_end", ""() #19, !dbg !1829
  call void @__unsafe_record_block(i32 6, i32 2, i32 0, i16 0, i16 0, i16 0, i16 0, i16 0, i16 0), !dbg !1829
  br label %bb39, !dbg !1829, !unsafe_inst !531, !unsafe_line_info !1631

bb40:                                             ; preds = %bb39
  tail call void asm sideeffect "nop # marker_begin", ""() #19, !noalias !1830
  tail call void asm sideeffect "nop # marker_end", ""() #19, !noalias !1830
  call void @llvm.dbg.value(metadata i64 128, metadata !1833, metadata !DIExpression()), !dbg !1840
  call void @llvm.dbg.value(metadata i8 3, metadata !1839, metadata !DIExpression()), !dbg !1840
  call void @llvm.dbg.value(metadata i64 128, metadata !1875, metadata !DIExpression()), !dbg !1881
  call void @llvm.dbg.value(metadata i8 3, metadata !1880, metadata !DIExpression()), !dbg !1881
  call void @llvm.dbg.value(metadata ptr poison, metadata !1883, metadata !DIExpression(DW_OP_LLVM_fragment, 0, 64)), !dbg !1893
  call void @llvm.dbg.value(metadata ptr poison, metadata !1883, metadata !DIExpression(DW_OP_LLVM_fragment, 64, 64)), !dbg !1893
  call void @llvm.dbg.value(metadata ptr poison, metadata !1904, metadata !DIExpression(DW_OP_LLVM_fragment, 0, 64)), !dbg !1911
  call void @llvm.dbg.value(metadata ptr poison, metadata !1904, metadata !DIExpression(DW_OP_LLVM_fragment, 64, 64)), !dbg !1911
  call void @llvm.dbg.value(metadata i64 -161, metadata !1913, metadata !DIExpression()), !dbg !1919
  call void @llvm.dbg.value(metadata i8 1, metadata !1918, metadata !DIExpression()), !dbg !1919
  call void @llvm.dbg.value(metadata i64 -161, metadata !1921, metadata !DIExpression()), !dbg !1927
  call void @llvm.dbg.value(metadata i8 1, metadata !1926, metadata !DIExpression()), !dbg !1927
  call void @llvm.dbg.value(metadata ptr null, metadata !1863, metadata !DIExpression()), !dbg !1929
  call void @llvm.dbg.value(metadata ptr %ptr, metadata !1862, metadata !DIExpression()), !dbg !1929
  call void @llvm.dbg.value(metadata ptr %ptr, metadata !1838, metadata !DIExpression(DW_OP_plus_uconst, 8, DW_OP_stack_value)), !dbg !1840
  call void @llvm.dbg.value(metadata ptr %_148, metadata !1879, metadata !DIExpression()), !dbg !1881
  %51 = atomicrmw or ptr %_148, i64 128 acq_rel, align 8, !dbg !1930, !noalias !1830
  call void @llvm.dbg.value(metadata i64 %51, metadata !1864, metadata !DIExpression()), !dbg !1931
  %_6.i = and i64 %51, 192, !dbg !1932
  %52 = icmp eq i64 %_6.i, 0, !dbg !1932
  call void @__unsafe_record_block(i32 6, i32 4, i32 0, i16 0, i16 0, i16 0, i16 0, i16 0, i16 0), !dbg !1932
  br i1 %52, label %bb1.i, label %bb42, !dbg !1932

bb1.i:                                            ; preds = %bb40
  tail call void asm sideeffect "nop # marker_begin", ""() #19, !dbg !1933, !noalias !1830
  call void @llvm.dbg.value(metadata ptr %ptr, metadata !1934, metadata !DIExpression(DW_OP_plus_uconst, 16, DW_OP_stack_value)), !dbg !1942
  %_26.i = getelementptr inbounds i8, ptr %ptr, i64 16, !dbg !1944
  call void @llvm.dbg.value(metadata ptr %_26.i, metadata !1902, metadata !DIExpression()), !dbg !1945
  call void @llvm.dbg.value(metadata ptr %_26.i, metadata !1890, metadata !DIExpression()), !dbg !1893
  call void @llvm.dbg.value(metadata ptr %_26.i, metadata !1946, metadata !DIExpression()), !dbg !1953
  call void @llvm.dbg.value(metadata ptr %_26.i, metadata !1910, metadata !DIExpression()), !dbg !1911
  tail call void asm sideeffect "nop # marker_end", ""() #19, !dbg !1955, !noalias !1830
  %53 = load ptr, ptr %_26.i, align 8, !dbg !1955, !noalias !1830, !align !1956, !noundef !29
  %54 = getelementptr inbounds i8, ptr %ptr, i64 24, !dbg !1955
  %55 = load ptr, ptr %54, align 8, !dbg !1955, !noalias !1830
  call void @llvm.dbg.value(metadata ptr %53, metadata !1866, metadata !DIExpression(DW_OP_LLVM_fragment, 0, 64)), !dbg !1957
  call void @llvm.dbg.value(metadata ptr %53, metadata !1891, metadata !DIExpression(DW_OP_LLVM_fragment, 0, 64)), !dbg !1958
  call void @llvm.dbg.value(metadata ptr %55, metadata !1866, metadata !DIExpression(DW_OP_LLVM_fragment, 64, 64)), !dbg !1957
  call void @llvm.dbg.value(metadata ptr %55, metadata !1891, metadata !DIExpression(DW_OP_LLVM_fragment, 64, 64)), !dbg !1958
  store ptr null, ptr %_26.i, align 8, !dbg !1959, !noalias !1830
  call void @llvm.dbg.value(metadata ptr %ptr, metadata !1917, metadata !DIExpression(DW_OP_plus_uconst, 8, DW_OP_stack_value)), !dbg !1919
  call void @llvm.dbg.value(metadata ptr %_148, metadata !1925, metadata !DIExpression()), !dbg !1927
  %56 = atomicrmw and ptr %_148, i64 -161 release, align 8, !dbg !1960, !noalias !1830
  %57 = icmp eq ptr %53, null, !dbg !1961
  %spec.select317 = select i1 %57, ptr undef, ptr %55, !dbg !1961
  call void @__unsafe_record_block(i32 6, i32 9, i32 1, i16 0, i16 0, i16 0, i16 0, i16 1, i16 0), !dbg !1961
  br label %bb42, !dbg !1961

bb45:                                             ; preds = %bb39, %bb42
  %awaiter8.sroa.0.0 = phi ptr [ %_0.sroa.0.1.i, %bb42 ], [ null, %bb39 ], !dbg !1622
  %awaiter8.sroa.12.0 = phi ptr [ %_0.sroa.4.1.i, %bb42 ], [ undef, %bb39 ]
  tail call void @llvm.dbg.value(metadata ptr %awaiter8.sroa.12.0, metadata !1165, metadata !DIExpression(DW_OP_LLVM_fragment, 64, 64)), !dbg !1825
  tail call void @llvm.dbg.value(metadata ptr %awaiter8.sroa.0.0, metadata !1165, metadata !DIExpression(DW_OP_LLVM_fragment, 0, 64)), !dbg !1825
  tail call void asm sideeffect "nop # marker_begin", ""() #19, !dbg !1962
  tail call void asm sideeffect "nop # marker_end", ""() #19, !dbg !1962
  tail call void asm sideeffect "nop # marker_begin", ""() #19
  call void @llvm.dbg.value(metadata i64 256, metadata !1963, metadata !DIExpression()), !dbg !1969
  call void @llvm.dbg.value(metadata i8 3, metadata !1968, metadata !DIExpression()), !dbg !1969
  call void @llvm.dbg.value(metadata i64 256, metadata !1980, metadata !DIExpression()), !dbg !1986
  call void @llvm.dbg.value(metadata i8 3, metadata !1985, metadata !DIExpression()), !dbg !1986
  call void @llvm.dbg.value(metadata ptr %ptr, metadata !1975, metadata !DIExpression()), !dbg !1988
  call void @llvm.dbg.value(metadata ptr %ptr, metadata !1976, metadata !DIExpression(DW_OP_LLVM_fragment, 0, 64)), !dbg !1989
  call void @llvm.dbg.value(metadata ptr %ptr, metadata !1976, metadata !DIExpression(DW_OP_plus_uconst, 40, DW_OP_stack_value, DW_OP_LLVM_fragment, 64, 64)), !dbg !1989
  call void @llvm.dbg.value(metadata ptr %ptr, metadata !1976, metadata !DIExpression(DW_OP_plus_uconst, 40, DW_OP_stack_value, DW_OP_LLVM_fragment, 128, 64)), !dbg !1989
  call void @llvm.dbg.value(metadata ptr %ptr, metadata !1976, metadata !DIExpression(DW_OP_plus_uconst, 40, DW_OP_stack_value, DW_OP_LLVM_fragment, 192, 64)), !dbg !1989
  call void @llvm.dbg.value(metadata ptr %ptr, metadata !1967, metadata !DIExpression(DW_OP_plus_uconst, 8, DW_OP_stack_value)), !dbg !1969
  call void @llvm.dbg.value(metadata ptr %_148, metadata !1984, metadata !DIExpression()), !dbg !1986
  %58 = atomicrmw sub ptr %_148, i64 256 acq_rel, align 8, !dbg !1990, !unsafe_inst !531, !unsafe_line_info !534
  call void @llvm.dbg.value(metadata i64 %58, metadata !1977, metadata !DIExpression(DW_OP_constu, 256, DW_OP_minus, DW_OP_stack_value)), !dbg !1991
  %59 = and i64 %58, -256, !dbg !1992
  %60 = icmp eq i64 %59, 256, !dbg !1992
  tail call void asm sideeffect "nop # marker_end", ""() #19, !dbg !1992
  tail call void asm sideeffect "nop # marker_begin", ""() #19, !dbg !1991
  call void @__unsafe_record_block(i32 6, i32 6, i32 4, i16 0, i16 1, i16 0, i16 0, i16 0, i16 3), !dbg !1992
  br i1 %60, label %bb1.i180, label %bb4.i, !dbg !1992, !unsafe_inst !531, !unsafe_line_info !1993

bb1.i180:                                         ; preds = %bb45
  %_6.i181 = and i64 %58, 16, !dbg !1994, !unsafe_inst !531, !unsafe_line_info !1993
  %61 = icmp eq i64 %_6.i181, 0, !dbg !1994, !unsafe_inst !531, !unsafe_line_info !1993
  tail call void asm sideeffect "nop # marker_end", ""() #19, !dbg !1994
  tail call void asm sideeffect "nop # marker_begin", ""() #19, !dbg !1991
  call void @__unsafe_record_block(i32 6, i32 3, i32 1, i16 0, i16 0, i16 0, i16 0, i16 0, i16 1), !dbg !1994
  br i1 %61, label %bb2.i183, label %bb3.i182, !dbg !1994, !unsafe_inst !531, !unsafe_line_info !1993

bb4.i:                                            ; preds = %bb45
  tail call void asm sideeffect "nop # marker_end", ""() #19, !dbg !1995
  call void @__unsafe_record_block(i32 6, i32 1, i32 0, i16 0, i16 0, i16 0, i16 0, i16 0, i16 0), !dbg !1995
  br label %bb46, !dbg !1995, !unsafe_inst !531, !unsafe_line_info !541

bb2.i183:                                         ; preds = %bb1.i180
  tail call void asm sideeffect "nop # marker_begin", ""() #19
  call void @llvm.dbg.value(metadata ptr %ptr, metadata !1997, metadata !DIExpression()), !dbg !2005
  call void @llvm.dbg.value(metadata ptr %ptr, metadata !2001, metadata !DIExpression(DW_OP_LLVM_fragment, 0, 64)), !dbg !2007
  call void @llvm.dbg.value(metadata ptr %ptr, metadata !2001, metadata !DIExpression(DW_OP_plus_uconst, 40, DW_OP_stack_value, DW_OP_LLVM_fragment, 64, 64)), !dbg !2007
  call void @llvm.dbg.value(metadata ptr %ptr, metadata !2001, metadata !DIExpression(DW_OP_plus_uconst, 40, DW_OP_stack_value, DW_OP_LLVM_fragment, 128, 64)), !dbg !2007
  call void @llvm.dbg.value(metadata ptr %ptr, metadata !2001, metadata !DIExpression(DW_OP_plus_uconst, 40, DW_OP_stack_value, DW_OP_LLVM_fragment, 192, 64)), !dbg !2007
  call void @llvm.dbg.value(metadata i64 8, metadata !2003, metadata !DIExpression(DW_OP_LLVM_fragment, 0, 64)), !dbg !2008
  call void @llvm.dbg.value(metadata i64 56, metadata !2003, metadata !DIExpression(DW_OP_LLVM_fragment, 64, 64)), !dbg !2008
  call void @llvm.dbg.value(metadata i64 poison, metadata !2003, metadata !DIExpression(DW_OP_LLVM_fragment, 128, 64)), !dbg !2008
  call void @llvm.dbg.value(metadata i64 poison, metadata !2003, metadata !DIExpression(DW_OP_LLVM_fragment, 192, 64)), !dbg !2008
  call void @llvm.dbg.value(metadata i64 poison, metadata !2003, metadata !DIExpression(DW_OP_LLVM_fragment, 256, 64)), !dbg !2008
  %62 = getelementptr i8, ptr %ptr, i64 16, !dbg !2009
  %raw.val.val.i.i = load ptr, ptr %62, align 8, !dbg !2009, !noundef !29
  %63 = getelementptr i8, ptr %ptr, i64 24, !dbg !2009
  %raw.val.val19.i.i = load ptr, ptr %63, align 8, !dbg !2009
  call void @llvm.lifetime.start.p0(i64 0, ptr nonnull %_2.i299), !dbg !2010
  call void @llvm.dbg.declare(metadata ptr undef, metadata !2034, metadata !DIExpression()), !dbg !2040
  call void @llvm.dbg.value(metadata ptr undef, metadata !2033, metadata !DIExpression(DW_OP_LLVM_fragment, 0, 64)), !dbg !2041
  call void @llvm.dbg.value(metadata ptr undef, metadata !2033, metadata !DIExpression(DW_OP_LLVM_fragment, 64, 64)), !dbg !2041
  call void @llvm.dbg.value(metadata ptr undef, metadata !2027, metadata !DIExpression(DW_OP_deref)), !dbg !2042
  call void @llvm.dbg.value(metadata ptr undef, metadata !2028, metadata !DIExpression(DW_OP_plus_uconst, 8, DW_OP_deref)), !dbg !2042
  call void @llvm.dbg.value(metadata ptr undef, metadata !2017, metadata !DIExpression()), !dbg !2043
  call void @llvm.dbg.value(metadata ptr undef, metadata !658, metadata !DIExpression()), !dbg !2044
  call void @llvm.dbg.value(metadata ptr undef, metadata !649, metadata !DIExpression()), !dbg !2045
  call void @llvm.dbg.value(metadata ptr undef, metadata !642, metadata !DIExpression()), !dbg !2046
  %64 = icmp eq ptr %raw.val.val.i.i, null, !dbg !2010
  call void @__unsafe_record_block(i32 6, i32 7, i32 7, i16 2, i16 0, i16 1, i16 0, i16 2, i16 2), !dbg !2010
  br i1 %64, label %"_ZN10async_task3raw28RawTask$LT$F$C$T$C$S$C$M$GT$7destroy17hee0db9d7e7757924E.exit.i", label %bb2.i.i.i.i.i.i.i, !dbg !2010

bb2.i.i.i.i.i.i.i:                                ; preds = %bb2.i183
  call void @llvm.dbg.value(metadata ptr undef, metadata !706, metadata !DIExpression()), !dbg !2047
  call void @llvm.dbg.value(metadata ptr undef, metadata !714, metadata !DIExpression()), !dbg !2049
  %65 = getelementptr inbounds i8, ptr %raw.val.val.i.i, i64 24, !dbg !2051
  %_2.i.i.i.i.i.i.i.i.i = load ptr, ptr %65, align 8, !dbg !2051, !nonnull !29, !noundef !29
  call void @__unsafe_record_block(i32 6, i32 3, i32 0, i16 0, i16 0, i16 0, i16 0, i16 0, i16 0), !dbg !2051
  invoke void %_2.i.i.i.i.i.i.i.i.i(ptr noundef %raw.val.val19.i.i)
          to label %"_ZN10async_task3raw28RawTask$LT$F$C$T$C$S$C$M$GT$7destroy17hee0db9d7e7757924E.exit.i" unwind label %cleanup.i.i.i, !dbg !2051

cleanup.i.i.i:                                    ; preds = %bb2.i.i.i.i.i.i.i
  %66 = landingpad { ptr, i32 }
          cleanup
  call void @llvm.dbg.value(metadata ptr %_2.i299, metadata !725, metadata !DIExpression()), !dbg !2052
  call void @__unsafe_record_block(i32 6, i32 2, i32 0, i16 0, i16 0, i16 0, i16 0, i16 0, i16 0), !dbg !2054
; invoke <async_task::utils::abort_on_panic::Bomb as core::ops::drop::Drop>::drop
  invoke void @"_ZN81_$LT$async_task..utils..abort_on_panic..Bomb$u20$as$u20$core..ops..drop..Drop$GT$4drop17hbbde9adaede740a0E"(ptr noalias noundef nonnull align 1 %_2.i299)
          to label %bb96 unwind label %terminate.i.i.i, !dbg !2054

terminate.i.i.i:                                  ; preds = %cleanup.i.i.i
  %67 = landingpad { ptr, i32 }
          filter [0 x ptr] zeroinitializer
; call core::panicking::panic_in_cleanup
  call void @_ZN4core9panicking16panic_in_cleanup17h43442956f23e9cbeE() #20, !dbg !2055
  call void @__unsafe_record_block(i32 6, i32 3, i32 0, i16 0, i16 0, i16 0, i16 0, i16 0, i16 0), !dbg !2055
  unreachable, !dbg !2055

"_ZN10async_task3raw28RawTask$LT$F$C$T$C$S$C$M$GT$7destroy17hee0db9d7e7757924E.exit.i": ; preds = %bb2.i.i.i.i.i.i.i, %bb2.i183
  call void @llvm.lifetime.end.p0(i64 0, ptr nonnull %_2.i299), !dbg !2056
  call void @llvm.dbg.value(metadata ptr %ptr, metadata !2057, metadata !DIExpression()), !dbg !2062
  call void @llvm.dbg.value(metadata i64 8, metadata !2061, metadata !DIExpression(DW_OP_LLVM_fragment, 0, 64)), !dbg !2062
  call void @llvm.dbg.value(metadata i64 56, metadata !2061, metadata !DIExpression(DW_OP_LLVM_fragment, 64, 64)), !dbg !2062
  tail call void @__rust_dealloc(ptr noundef nonnull %ptr, i64 noundef 56, i64 noundef 8) #19, !dbg !2064, !unsafe_inst !531, !unsafe_line_info !751
  tail call void asm sideeffect "nop # marker_end", ""() #19, !dbg !2065
  tail call void asm sideeffect "nop # marker_end", ""() #19, !dbg !2066
  call void @__unsafe_record_block(i32 6, i32 3, i32 0, i16 0, i16 0, i16 0, i16 0, i16 0, i16 0), !dbg !2066
  br label %bb46, !dbg !2066, !unsafe_inst !531, !unsafe_line_info !2067

bb3.i182:                                         ; preds = %bb1.i180
  tail call void asm sideeffect "nop # marker_end", ""() #19, !dbg !1995
  call void @__unsafe_record_block(i32 6, i32 1, i32 0, i16 0, i16 0, i16 0, i16 0, i16 0, i16 0), !dbg !1995
  br label %bb46, !dbg !1995, !unsafe_inst !531, !unsafe_line_info !541

bb96:                                             ; preds = %cleanup.i, %cleanup.i.i.i
  %_124.sroa.0.1 = phi i1 [ true, %cleanup.i.i.i ], [ false, %cleanup.i ], !dbg !1825
  %.pn139 = phi { ptr, i32 } [ %66, %cleanup.i.i.i ], [ %70, %cleanup.i ]
  tail call void @llvm.dbg.value(metadata ptr %awaiter8.sroa.12.0, metadata !1165, metadata !DIExpression(DW_OP_LLVM_fragment, 64, 64)), !dbg !1825
  tail call void @llvm.dbg.value(metadata ptr %awaiter8.sroa.0.0, metadata !1165, metadata !DIExpression(DW_OP_LLVM_fragment, 0, 64)), !dbg !1825
  call void asm sideeffect "nop # marker_begin", ""() #19, !dbg !2068
  %.not141 = icmp eq ptr %awaiter8.sroa.0.0, null, !dbg !2068
  call void asm sideeffect "nop # marker_end", ""() #19, !dbg !2068
  call void @__unsafe_record_block(i32 6, i32 4, i32 1, i16 0, i16 0, i16 0, i16 0, i16 0, i16 1), !dbg !2068
  br i1 %.not141, label %bb98, label %bb94, !dbg !2068, !unsafe_inst !531, !unsafe_line_info !2069

bb42:                                             ; preds = %bb1.i, %bb40
  %_0.sroa.0.1.i = phi ptr [ null, %bb40 ], [ %53, %bb1.i ], !dbg !1931
  %_0.sroa.4.1.i = phi ptr [ undef, %bb40 ], [ %spec.select317, %bb1.i ], !dbg !1931
  tail call void asm sideeffect "nop # marker_begin", ""() #19, !dbg !2070
  tail call void asm sideeffect "nop # marker_end", ""() #19, !dbg !2070
  call void @llvm.dbg.value(metadata ptr undef, metadata !642, metadata !DIExpression()), !dbg !2071
  tail call void asm sideeffect "nop # marker_begin", ""() #19, !dbg !2070
  tail call void @llvm.dbg.value(metadata ptr %_0.sroa.0.1.i, metadata !1165, metadata !DIExpression(DW_OP_LLVM_fragment, 0, 64)), !dbg !1825
  tail call void @llvm.dbg.value(metadata ptr %_0.sroa.4.1.i, metadata !1165, metadata !DIExpression(DW_OP_LLVM_fragment, 64, 64)), !dbg !1825
  tail call void asm sideeffect "nop # marker_end", ""() #19, !dbg !2073
  call void @__unsafe_record_block(i32 6, i32 3, i32 0, i16 0, i16 0, i16 0, i16 0, i16 0, i16 0), !dbg !2073
  br label %bb45, !dbg !2073, !unsafe_inst !531, !unsafe_line_info !1827

bb46:                                             ; preds = %bb3.i182, %"_ZN10async_task3raw28RawTask$LT$F$C$T$C$S$C$M$GT$7destroy17hee0db9d7e7757924E.exit.i", %bb4.i
  tail call void asm sideeffect "nop # marker_begin", ""() #19, !dbg !2074
  tail call void asm sideeffect "nop # marker_end", ""() #19, !dbg !2074
  tail call void asm sideeffect "nop # marker_begin", ""() #19, !dbg !2075
  %68 = icmp eq ptr %awaiter8.sroa.0.0, null, !dbg !2075
  tail call void asm sideeffect "nop # marker_end", ""() #19, !dbg !2075
  tail call void asm sideeffect "nop # marker_begin", ""() #19, !dbg !1622
  tail call void asm sideeffect "nop # marker_end", ""() #19, !dbg !1622
  call void @__unsafe_record_block(i32 6, i32 2, i32 1, i16 0, i16 0, i16 0, i16 0, i16 0, i16 1), !dbg !2075
  br i1 %68, label %bb83, label %bb47, !dbg !2075

bb47:                                             ; preds = %bb46
  tail call void @llvm.dbg.value(metadata ptr %awaiter8.sroa.0.0, metadata !1167, metadata !DIExpression(DW_OP_LLVM_fragment, 0, 64)), !dbg !2076
  tail call void @llvm.dbg.value(metadata ptr %awaiter8.sroa.12.0, metadata !1167, metadata !DIExpression(DW_OP_LLVM_fragment, 64, 64)), !dbg !2076
  %69 = getelementptr i8, ptr %awaiter8.sroa.0.0, i64 8, !dbg !2077
  %w.0.val = load ptr, ptr %69, align 8, !dbg !2077, !nonnull !29, !noundef !29
  call void @llvm.lifetime.start.p0(i64 0, ptr nonnull %_2.i299)
  call void @llvm.dbg.declare(metadata ptr undef, metadata !2078, metadata !DIExpression()), !dbg !2092
  call void @llvm.dbg.value(metadata ptr undef, metadata !2087, metadata !DIExpression(DW_OP_LLVM_fragment, 0, 64)), !dbg !2094
  call void @llvm.dbg.value(metadata ptr %awaiter8.sroa.12.0, metadata !2087, metadata !DIExpression(DW_OP_LLVM_fragment, 64, 64)), !dbg !2094
  call void @llvm.dbg.value(metadata ptr undef, metadata !2095, metadata !DIExpression(DW_OP_LLVM_fragment, 0, 64)), !dbg !2098
  call void @llvm.dbg.value(metadata ptr %awaiter8.sroa.12.0, metadata !2095, metadata !DIExpression(DW_OP_LLVM_fragment, 64, 64)), !dbg !2098
  call void @llvm.dbg.value(metadata ptr undef, metadata !2100, metadata !DIExpression(DW_OP_LLVM_fragment, 0, 64)), !dbg !2111
  call void @llvm.dbg.value(metadata ptr %awaiter8.sroa.12.0, metadata !2100, metadata !DIExpression(DW_OP_LLVM_fragment, 64, 64)), !dbg !2111
  call void @llvm.dbg.value(metadata ptr %w.0.val, metadata !2107, metadata !DIExpression()), !dbg !2113
  call void @llvm.dbg.value(metadata ptr %awaiter8.sroa.12.0, metadata !2109, metadata !DIExpression()), !dbg !2114
  call void @__unsafe_record_block(i32 6, i32 4, i32 0, i16 0, i16 0, i16 0, i16 0, i16 0, i16 0), !dbg !2115
  invoke void %w.0.val(ptr noundef %awaiter8.sroa.12.0)
          to label %bb48 unwind label %cleanup.i, !dbg !2115

cleanup.i:                                        ; preds = %bb47
  %70 = landingpad { ptr, i32 }
          cleanup
  call void @llvm.dbg.value(metadata ptr %_2.i299, metadata !725, metadata !DIExpression()), !dbg !2116
  call void @__unsafe_record_block(i32 6, i32 2, i32 0, i16 0, i16 0, i16 0, i16 0, i16 0, i16 0), !dbg !2118
; invoke <async_task::utils::abort_on_panic::Bomb as core::ops::drop::Drop>::drop
  invoke void @"_ZN81_$LT$async_task..utils..abort_on_panic..Bomb$u20$as$u20$core..ops..drop..Drop$GT$4drop17hbbde9adaede740a0E"(ptr noalias noundef nonnull align 1 %_2.i299)
          to label %bb96 unwind label %terminate.i191, !dbg !2118

terminate.i191:                                   ; preds = %cleanup.i
  %71 = landingpad { ptr, i32 }
          filter [0 x ptr] zeroinitializer
; call core::panicking::panic_in_cleanup
  call void @_ZN4core9panicking16panic_in_cleanup17h43442956f23e9cbeE() #20, !dbg !2119
  call void @__unsafe_record_block(i32 6, i32 3, i32 0, i16 0, i16 0, i16 0, i16 0, i16 0, i16 0), !dbg !2119
  unreachable, !dbg !2119

bb48:                                             ; preds = %bb47
  call void @llvm.lifetime.end.p0(i64 0, ptr nonnull %_2.i299), !dbg !2120
  tail call void asm sideeffect "nop # marker_begin", ""() #19, !dbg !2068
  tail call void asm sideeffect "nop # marker_end", ""() #19, !dbg !2068
  call void @__unsafe_record_block(i32 6, i32 2, i32 0, i16 0, i16 0, i16 0, i16 0, i16 0, i16 0), !dbg !2068
  br label %bb83, !dbg !2068

bb83:                                             ; preds = %bb46, %bb48
  tail call void asm sideeffect "nop # marker_begin", ""() #19, !dbg !2068
  tail call void asm sideeffect "nop # marker_end", ""() #19, !dbg !1611
  call void @__unsafe_record_block(i32 6, i32 1, i32 0, i16 0, i16 0, i16 0, i16 0, i16 0, i16 0), !dbg !1611
  br label %bb76, !dbg !1611, !unsafe_inst !531, !unsafe_line_info !2121

bb76:                                             ; preds = %bb75, %bb83
  tail call void asm sideeffect "nop # marker_begin", ""() #19, !dbg !2122
  tail call void asm sideeffect "nop # marker_end", ""() #19, !dbg !2123
  call void @__unsafe_record_block(i32 6, i32 1, i32 0, i16 0, i16 0, i16 0, i16 0, i16 0, i16 0), !dbg !2123
  br label %bb90, !dbg !2123, !unsafe_inst !531, !unsafe_line_info !2124

bb94:                                             ; preds = %bb96
  call void asm sideeffect "nop # marker_begin", ""() #19, !dbg !2068
  call void asm sideeffect "nop # marker_end", ""() #19, !dbg !2068
  call void @__unsafe_record_block(i32 6, i32 1, i32 0, i16 0, i16 0, i16 0, i16 0, i16 0, i16 0), !dbg !2068
  br i1 %_124.sroa.0.1, label %bb95, label %bb98, !dbg !2068, !unsafe_inst !531, !unsafe_line_info !2069

bb95:                                             ; preds = %bb94
  call void asm sideeffect "nop # marker_begin", ""() #19, !dbg !2068
  call void asm sideeffect "nop # marker_end", ""() #19, !dbg !2068
  call void @llvm.dbg.value(metadata ptr undef, metadata !706, metadata !DIExpression()), !dbg !2125
  call void @llvm.dbg.value(metadata ptr undef, metadata !714, metadata !DIExpression()), !dbg !2127
  %72 = getelementptr inbounds i8, ptr %awaiter8.sroa.0.0, i64 24, !dbg !2129
  %_2.i.i197 = load ptr, ptr %72, align 8, !dbg !2129, !nonnull !29, !noundef !29
  call void @__unsafe_record_block(i32 6, i32 3, i32 0, i16 0, i16 0, i16 0, i16 0, i16 0, i16 0), !dbg !2129
  invoke void %_2.i.i197(ptr noundef %awaiter8.sroa.12.0)
          to label %bb98 unwind label %terminate, !dbg !2129

terminate:                                        ; preds = %bb105, %bb92, %bb95, %bb102
  %73 = landingpad { ptr, i32 }
          filter [0 x ptr] zeroinitializer
; call core::panicking::panic_in_cleanup
  call void @_ZN4core9panicking16panic_in_cleanup17h43442956f23e9cbeE() #20, !dbg !2130
  call void @__unsafe_record_block(i32 6, i32 3, i32 0, i16 0, i16 0, i16 0, i16 0, i16 0, i16 0), !dbg !2130
  unreachable, !dbg !2130

bb101:                                            ; preds = %bb92, %cleanup.i.i.i214, %cleanup.i220, %bb98, %bb91, %bb93
  %.pn144 = phi { ptr, i32 } [ %.pn136, %bb91 ], [ %.pn136, %bb93 ], [ %.pn142, %bb98 ], [ %94, %cleanup.i220 ], [ %91, %cleanup.i.i.i214 ], [ %.pn136, %bb92 ]
  call void asm sideeffect "nop # marker_begin", ""() #19, !dbg !2131
  call void asm sideeffect "nop # marker_end", ""() #19, !dbg !2131
  call void @__unsafe_record_block(i32 6, i32 2, i32 0, i16 0, i16 0, i16 0, i16 0, i16 0, i16 0), !dbg !2131
  br i1 %trunc135.not, label %bb99, label %bb103, !dbg !2131, !unsafe_inst !531, !unsafe_line_info !1593

bb50:                                             ; preds = %bb24, %bb58
  %state.sroa.0.2 = phi i64 [ %79, %bb58 ], [ %new31, %bb24 ], !dbg !1395
  %future_dropped.sroa.0.0 = phi i8 [ %future_dropped.sroa.0.1, %bb58 ], [ 0, %bb24 ], !dbg !2132
  tail call void @llvm.dbg.value(metadata i8 %future_dropped.sroa.0.0, metadata !1171, metadata !DIExpression()), !dbg !2133
  tail call void @llvm.dbg.value(metadata i64 %state.sroa.0.2, metadata !1125, metadata !DIExpression()), !dbg !1395
  tail call void asm sideeffect "nop # marker_begin", ""() #19, !dbg !2134
  %_93 = and i64 %state.sroa.0.2, 8, !dbg !2135, !unsafe_inst !531, !unsafe_line_info !2136
  %74 = icmp eq i64 %_93, 0, !dbg !2135, !unsafe_inst !531, !unsafe_line_info !2136
  tail call void asm sideeffect "nop # marker_end", ""() #19, !dbg !2135
  tail call void asm sideeffect "nop # marker_begin", ""() #19, !dbg !2133
  tail call void asm sideeffect "nop # marker_end", ""() #19, !dbg !2137
  tail call void @llvm.dbg.value(metadata i64 %75, metadata !1173, metadata !DIExpression()), !dbg !2138
  tail call void @llvm.dbg.value(metadata i64 %75, metadata !1173, metadata !DIExpression()), !dbg !2138
  %.334 = select i1 %74, i64 -11, i64 -4, !dbg !2137
  %75 = and i64 %state.sroa.0.2, %.334, !dbg !2133
  tail call void @llvm.dbg.value(metadata i64 %75, metadata !1173, metadata !DIExpression()), !dbg !2138
  tail call void asm sideeffect "nop # marker_begin", ""() #19, !dbg !2139
  tail call void asm sideeffect "nop # marker_end", ""() #19, !dbg !2139
  tail call void asm sideeffect "nop # marker_begin", ""() #19, !dbg !2138
  call void @__unsafe_record_block(i32 6, i32 7, i32 3, i16 0, i16 0, i16 0, i16 0, i16 0, i16 3), !dbg !2139
  br i1 %74, label %bb56, label %bb54, !dbg !2139, !unsafe_inst !531, !unsafe_line_info !2140

bb56:                                             ; preds = %bb50
  tail call void asm sideeffect "nop # marker_end", ""() #19, !dbg !2141
  call void @__unsafe_record_block(i32 6, i32 1, i32 0, i16 0, i16 0, i16 0, i16 0, i16 0, i16 0), !dbg !2141
  br label %bb119, !dbg !2141, !unsafe_inst !531, !unsafe_line_info !541

bb54:                                             ; preds = %bb50
  %76 = and i8 %future_dropped.sroa.0.0, 1, !dbg !2143
  %_100.not = icmp eq i8 %76, 0, !dbg !2143
  tail call void asm sideeffect "nop # marker_end", ""() #19, !dbg !2143
  call void @__unsafe_record_block(i32 6, i32 3, i32 0, i16 0, i16 0, i16 0, i16 0, i16 0, i16 0), !dbg !2143
  br i1 %_100.not, label %bb118, label %bb119, !dbg !2143, !unsafe_inst !531, !unsafe_line_info !2140

bb118:                                            ; preds = %bb54
  tail call void asm sideeffect "nop # marker_begin", ""() #19, !dbg !2144
  tail call void @llvm.dbg.value(metadata ptr %ptr, metadata !1305, metadata !DIExpression(DW_OP_LLVM_fragment, 0, 64)), !dbg !2145
  tail call void @llvm.dbg.value(metadata ptr %_140, metadata !1305, metadata !DIExpression(DW_OP_LLVM_fragment, 64, 64)), !dbg !2145
  tail call void @llvm.dbg.value(metadata ptr %_140, metadata !1305, metadata !DIExpression(DW_OP_LLVM_fragment, 128, 64)), !dbg !2145
  tail call void @llvm.dbg.value(metadata ptr %_140, metadata !1305, metadata !DIExpression(DW_OP_LLVM_fragment, 192, 64)), !dbg !2145
  tail call void asm sideeffect "nop # marker_end", ""() #19, !dbg !2146
  tail call void asm sideeffect "nop # marker_begin", ""() #19, !dbg !2147
  tail call void @llvm.dbg.value(metadata i8 1, metadata !1171, metadata !DIExpression()), !dbg !2133
  tail call void asm sideeffect "nop # marker_end", ""() #19, !dbg !2148
  call void @__unsafe_record_block(i32 6, i32 1, i32 0, i16 0, i16 0, i16 0, i16 0, i16 0, i16 0), !dbg !2148
  br label %bb119, !dbg !2148, !unsafe_inst !531, !unsafe_line_info !2140

bb119:                                            ; preds = %bb56, %bb54, %bb118
  %future_dropped.sroa.0.1 = phi i8 [ %future_dropped.sroa.0.0, %bb56 ], [ %future_dropped.sroa.0.0, %bb54 ], [ 1, %bb118 ], !dbg !1600
  tail call void @llvm.dbg.value(metadata i8 %future_dropped.sroa.0.1, metadata !1171, metadata !DIExpression()), !dbg !2133
  tail call void asm sideeffect "nop # marker_begin", ""() #19, !dbg !2149
  tail call void @llvm.dbg.value(metadata ptr %ptr, metadata !1222, metadata !DIExpression(DW_OP_plus_uconst, 8, DW_OP_stack_value)), !dbg !1262
  tail call void @llvm.dbg.value(metadata i64 %state.sroa.0.2, metadata !1224, metadata !DIExpression()), !dbg !1262
  tail call void @llvm.dbg.value(metadata i64 %75, metadata !1225, metadata !DIExpression()), !dbg !1262
  tail call void asm sideeffect "nop # marker_end", ""() #19, !dbg !2150
  tail call void @llvm.dbg.value(metadata i8 3, metadata !1020, metadata !DIExpression()), !dbg !2151
  tail call void @llvm.dbg.value(metadata i8 2, metadata !1028, metadata !DIExpression()), !dbg !2151
  tail call void @llvm.dbg.value(metadata ptr %_148, metadata !1025, metadata !DIExpression()), !dbg !2151
  tail call void @llvm.dbg.value(metadata i64 %state.sroa.0.2, metadata !1026, metadata !DIExpression()), !dbg !2151
  tail call void @llvm.dbg.value(metadata i64 %75, metadata !1027, metadata !DIExpression()), !dbg !2151
  %77 = cmpxchg weak ptr %_148, i64 %state.sroa.0.2, i64 %75 acq_rel acquire, align 8, !dbg !2153
  %78 = extractvalue { i64, i1 } %77, 1, !dbg !2153
  %79 = extractvalue { i64, i1 } %77, 0, !dbg !2153
  tail call void asm sideeffect "nop # marker_begin", ""() #19, !dbg !2149
  tail call void asm sideeffect "nop # marker_end", ""() #19, !dbg !2154
  tail call void asm sideeffect "nop # marker_begin", ""() #19, !dbg !2138
  call void @__unsafe_record_block(i32 6, i32 5, i32 1, i16 0, i16 0, i16 0, i16 0, i16 0, i16 1), !dbg !2154
  br i1 %78, label %bb59, label %bb58, !dbg !2154

bb59:                                             ; preds = %bb119
  tail call void @llvm.dbg.value(metadata i64 %79, metadata !1175, metadata !DIExpression()), !dbg !2155
  %_108 = and i64 %79, 8, !dbg !2156, !unsafe_inst !531, !unsafe_line_info !2157
  %80 = icmp eq i64 %_108, 0, !dbg !2156, !unsafe_inst !531, !unsafe_line_info !2157
  tail call void asm sideeffect "nop # marker_end", ""() #19, !dbg !2156
  tail call void asm sideeffect "nop # marker_begin", ""() #19, !dbg !2155
  tail call void asm sideeffect "nop # marker_end", ""() #19, !dbg !2155
  tail call void asm sideeffect "nop # marker_begin", ""() #19, !dbg !2155
  tail call void asm sideeffect "nop # marker_end", ""() #19, !dbg !2155
  call void @__unsafe_record_block(i32 6, i32 3, i32 0, i16 0, i16 0, i16 0, i16 0, i16 0, i16 0), !dbg !2156
  br i1 %80, label %bb70, label %bb60, !dbg !2156, !unsafe_inst !531, !unsafe_line_info !2157

bb58:                                             ; preds = %bb119
  tail call void @llvm.dbg.value(metadata i64 %79, metadata !1125, metadata !DIExpression()), !dbg !1395
  tail call void asm sideeffect "nop # marker_end", ""() #19, !dbg !2158
  call void @__unsafe_record_block(i32 6, i32 1, i32 0, i16 0, i16 0, i16 0, i16 0, i16 0, i16 0), !dbg !2158
  br label %bb50, !dbg !2158, !unsafe_inst !531, !unsafe_line_info !2159

bb70:                                             ; preds = %bb59
  %_118 = and i64 %79, 1, !dbg !2160, !unsafe_inst !531, !unsafe_line_info !2161
  %81 = icmp eq i64 %_118, 0, !dbg !2160, !unsafe_inst !531, !unsafe_line_info !2161
  tail call void asm sideeffect "nop # marker_begin", ""() #19
  call void @__unsafe_record_block(i32 6, i32 3, i32 1, i16 0, i16 0, i16 0, i16 0, i16 0, i16 1), !dbg !2160
  br i1 %81, label %bb73, label %bb71, !dbg !2160, !unsafe_inst !531, !unsafe_line_info !2161

bb60:                                             ; preds = %bb59
  tail call void @llvm.dbg.value(metadata ptr null, metadata !1177, metadata !DIExpression(DW_OP_LLVM_fragment, 0, 64)), !dbg !2162
  %_110 = and i64 %79, 32, !dbg !2163, !unsafe_inst !531, !unsafe_line_info !2164
  %82 = icmp eq i64 %_110, 0, !dbg !2163, !unsafe_inst !531, !unsafe_line_info !2164
  call void @__unsafe_record_block(i32 6, i32 3, i32 0, i16 0, i16 0, i16 0, i16 0, i16 0, i16 0), !dbg !2163
  br i1 %82, label %bb66, label %bb61, !dbg !2163, !unsafe_inst !531, !unsafe_line_info !2164

bb73:                                             ; preds = %bb70
  call void @llvm.dbg.value(metadata i64 256, metadata !1963, metadata !DIExpression()), !dbg !2165
  call void @llvm.dbg.value(metadata i8 3, metadata !1968, metadata !DIExpression()), !dbg !2165
  call void @llvm.dbg.value(metadata i64 256, metadata !1980, metadata !DIExpression()), !dbg !2168
  call void @llvm.dbg.value(metadata i8 3, metadata !1985, metadata !DIExpression()), !dbg !2168
  call void @llvm.dbg.value(metadata ptr %ptr, metadata !1975, metadata !DIExpression()), !dbg !2170
  call void @llvm.dbg.value(metadata ptr %ptr, metadata !1976, metadata !DIExpression(DW_OP_LLVM_fragment, 0, 64)), !dbg !2171
  call void @llvm.dbg.value(metadata ptr %ptr, metadata !1976, metadata !DIExpression(DW_OP_plus_uconst, 40, DW_OP_stack_value, DW_OP_LLVM_fragment, 64, 64)), !dbg !2171
  call void @llvm.dbg.value(metadata ptr %ptr, metadata !1976, metadata !DIExpression(DW_OP_plus_uconst, 40, DW_OP_stack_value, DW_OP_LLVM_fragment, 128, 64)), !dbg !2171
  call void @llvm.dbg.value(metadata ptr %ptr, metadata !1976, metadata !DIExpression(DW_OP_plus_uconst, 40, DW_OP_stack_value, DW_OP_LLVM_fragment, 192, 64)), !dbg !2171
  call void @llvm.dbg.value(metadata ptr %ptr, metadata !1967, metadata !DIExpression(DW_OP_plus_uconst, 8, DW_OP_stack_value)), !dbg !2165
  call void @llvm.dbg.value(metadata ptr %_148, metadata !1984, metadata !DIExpression()), !dbg !2168
  %83 = atomicrmw sub ptr %_148, i64 256 acq_rel, align 8, !dbg !2172, !unsafe_inst !531, !unsafe_line_info !534
  call void @llvm.dbg.value(metadata i64 %83, metadata !1977, metadata !DIExpression(DW_OP_constu, 256, DW_OP_minus, DW_OP_stack_value)), !dbg !2173
  %84 = and i64 %83, -256, !dbg !2174
  %85 = icmp eq i64 %84, 256, !dbg !2174
  tail call void asm sideeffect "nop # marker_end", ""() #19, !dbg !2174
  tail call void asm sideeffect "nop # marker_begin", ""() #19, !dbg !2173
  call void @__unsafe_record_block(i32 6, i32 4, i32 1, i16 0, i16 0, i16 0, i16 0, i16 0, i16 1), !dbg !2174
  br i1 %85, label %bb1.i206, label %bb4.i205, !dbg !2174, !unsafe_inst !531, !unsafe_line_info !1993

bb1.i206:                                         ; preds = %bb73
  %_6.i207 = and i64 %83, 16, !dbg !2175, !unsafe_inst !531, !unsafe_line_info !1993
  %86 = icmp eq i64 %_6.i207, 0, !dbg !2175, !unsafe_inst !531, !unsafe_line_info !1993
  tail call void asm sideeffect "nop # marker_end", ""() #19, !dbg !2175
  tail call void asm sideeffect "nop # marker_begin", ""() #19, !dbg !2173
  call void @__unsafe_record_block(i32 6, i32 3, i32 1, i16 0, i16 0, i16 0, i16 0, i16 0, i16 1), !dbg !2175
  br i1 %86, label %bb2.i209, label %bb3.i208, !dbg !2175, !unsafe_inst !531, !unsafe_line_info !1993

bb4.i205:                                         ; preds = %bb73
  tail call void asm sideeffect "nop # marker_end", ""() #19, !dbg !2176
  call void @__unsafe_record_block(i32 6, i32 1, i32 0, i16 0, i16 0, i16 0, i16 0, i16 0, i16 0), !dbg !2176
  br label %bb74, !dbg !2176, !unsafe_inst !531, !unsafe_line_info !541

bb2.i209:                                         ; preds = %bb1.i206
  tail call void asm sideeffect "nop # marker_begin", ""() #19
  call void @llvm.dbg.value(metadata ptr %ptr, metadata !1997, metadata !DIExpression()), !dbg !2177
  call void @llvm.dbg.value(metadata ptr %ptr, metadata !2001, metadata !DIExpression(DW_OP_LLVM_fragment, 0, 64)), !dbg !2179
  call void @llvm.dbg.value(metadata ptr %ptr, metadata !2001, metadata !DIExpression(DW_OP_plus_uconst, 40, DW_OP_stack_value, DW_OP_LLVM_fragment, 64, 64)), !dbg !2179
  call void @llvm.dbg.value(metadata ptr %ptr, metadata !2001, metadata !DIExpression(DW_OP_plus_uconst, 40, DW_OP_stack_value, DW_OP_LLVM_fragment, 128, 64)), !dbg !2179
  call void @llvm.dbg.value(metadata ptr %ptr, metadata !2001, metadata !DIExpression(DW_OP_plus_uconst, 40, DW_OP_stack_value, DW_OP_LLVM_fragment, 192, 64)), !dbg !2179
  call void @llvm.dbg.value(metadata i64 8, metadata !2003, metadata !DIExpression(DW_OP_LLVM_fragment, 0, 64)), !dbg !2180
  call void @llvm.dbg.value(metadata i64 56, metadata !2003, metadata !DIExpression(DW_OP_LLVM_fragment, 64, 64)), !dbg !2180
  call void @llvm.dbg.value(metadata i64 poison, metadata !2003, metadata !DIExpression(DW_OP_LLVM_fragment, 128, 64)), !dbg !2180
  call void @llvm.dbg.value(metadata i64 poison, metadata !2003, metadata !DIExpression(DW_OP_LLVM_fragment, 192, 64)), !dbg !2180
  call void @llvm.dbg.value(metadata i64 poison, metadata !2003, metadata !DIExpression(DW_OP_LLVM_fragment, 256, 64)), !dbg !2180
  %87 = getelementptr i8, ptr %ptr, i64 16, !dbg !2181
  %raw.val.val.i.i210 = load ptr, ptr %87, align 8, !dbg !2181, !noundef !29
  %88 = getelementptr i8, ptr %ptr, i64 24, !dbg !2181
  %raw.val.val19.i.i211 = load ptr, ptr %88, align 8, !dbg !2181
  call void @llvm.lifetime.start.p0(i64 0, ptr nonnull %_2.i299), !dbg !2182
  call void @llvm.dbg.declare(metadata ptr undef, metadata !2034, metadata !DIExpression()), !dbg !2189
  call void @llvm.dbg.value(metadata ptr undef, metadata !2033, metadata !DIExpression(DW_OP_LLVM_fragment, 0, 64)), !dbg !2190
  call void @llvm.dbg.value(metadata ptr undef, metadata !2033, metadata !DIExpression(DW_OP_LLVM_fragment, 64, 64)), !dbg !2190
  call void @llvm.dbg.value(metadata ptr undef, metadata !2027, metadata !DIExpression(DW_OP_deref)), !dbg !2191
  call void @llvm.dbg.value(metadata ptr undef, metadata !2028, metadata !DIExpression(DW_OP_plus_uconst, 8, DW_OP_deref)), !dbg !2191
  call void @llvm.dbg.value(metadata ptr undef, metadata !2017, metadata !DIExpression()), !dbg !2192
  call void @llvm.dbg.value(metadata ptr undef, metadata !658, metadata !DIExpression()), !dbg !2193
  call void @llvm.dbg.value(metadata ptr undef, metadata !649, metadata !DIExpression()), !dbg !2194
  call void @llvm.dbg.value(metadata ptr undef, metadata !642, metadata !DIExpression()), !dbg !2195
  %89 = icmp eq ptr %raw.val.val.i.i210, null, !dbg !2182
  call void @__unsafe_record_block(i32 6, i32 7, i32 7, i16 2, i16 0, i16 1, i16 0, i16 2, i16 2), !dbg !2182
  br i1 %89, label %"_ZN10async_task3raw28RawTask$LT$F$C$T$C$S$C$M$GT$7destroy17hee0db9d7e7757924E.exit.i217", label %bb2.i.i.i.i.i.i.i212, !dbg !2182

bb2.i.i.i.i.i.i.i212:                             ; preds = %bb2.i209
  call void @llvm.dbg.value(metadata ptr undef, metadata !706, metadata !DIExpression()), !dbg !2196
  call void @llvm.dbg.value(metadata ptr undef, metadata !714, metadata !DIExpression()), !dbg !2198
  %90 = getelementptr inbounds i8, ptr %raw.val.val.i.i210, i64 24, !dbg !2200
  %_2.i.i.i.i.i.i.i.i.i213 = load ptr, ptr %90, align 8, !dbg !2200, !nonnull !29, !noundef !29
  call void @__unsafe_record_block(i32 6, i32 3, i32 0, i16 0, i16 0, i16 0, i16 0, i16 0, i16 0), !dbg !2200
  invoke void %_2.i.i.i.i.i.i.i.i.i213(ptr noundef %raw.val.val19.i.i211)
          to label %"_ZN10async_task3raw28RawTask$LT$F$C$T$C$S$C$M$GT$7destroy17hee0db9d7e7757924E.exit.i217" unwind label %cleanup.i.i.i214, !dbg !2200

cleanup.i.i.i214:                                 ; preds = %bb2.i.i.i.i.i.i.i212
  %91 = landingpad { ptr, i32 }
          cleanup
  call void @llvm.dbg.value(metadata ptr %_2.i299, metadata !725, metadata !DIExpression()), !dbg !2201
  call void @__unsafe_record_block(i32 6, i32 2, i32 0, i16 0, i16 0, i16 0, i16 0, i16 0, i16 0), !dbg !2203
; invoke <async_task::utils::abort_on_panic::Bomb as core::ops::drop::Drop>::drop
  invoke void @"_ZN81_$LT$async_task..utils..abort_on_panic..Bomb$u20$as$u20$core..ops..drop..Drop$GT$4drop17hbbde9adaede740a0E"(ptr noalias noundef nonnull align 1 %_2.i299)
          to label %bb101 unwind label %terminate.i.i.i215, !dbg !2203

terminate.i.i.i215:                               ; preds = %cleanup.i.i.i214
  %92 = landingpad { ptr, i32 }
          filter [0 x ptr] zeroinitializer
; call core::panicking::panic_in_cleanup
  call void @_ZN4core9panicking16panic_in_cleanup17h43442956f23e9cbeE() #20, !dbg !2204
  call void @__unsafe_record_block(i32 6, i32 3, i32 0, i16 0, i16 0, i16 0, i16 0, i16 0, i16 0), !dbg !2204
  unreachable, !dbg !2204

"_ZN10async_task3raw28RawTask$LT$F$C$T$C$S$C$M$GT$7destroy17hee0db9d7e7757924E.exit.i217": ; preds = %bb2.i.i.i.i.i.i.i212, %bb2.i209
  call void @llvm.lifetime.end.p0(i64 0, ptr nonnull %_2.i299), !dbg !2205
  call void @llvm.dbg.value(metadata ptr %ptr, metadata !2057, metadata !DIExpression()), !dbg !2206
  call void @llvm.dbg.value(metadata i64 8, metadata !2061, metadata !DIExpression(DW_OP_LLVM_fragment, 0, 64)), !dbg !2206
  call void @llvm.dbg.value(metadata i64 56, metadata !2061, metadata !DIExpression(DW_OP_LLVM_fragment, 64, 64)), !dbg !2206
  tail call void @__rust_dealloc(ptr noundef nonnull %ptr, i64 noundef 56, i64 noundef 8) #19, !dbg !2208, !unsafe_inst !531, !unsafe_line_info !751
  tail call void asm sideeffect "nop # marker_end", ""() #19, !dbg !2209
  tail call void asm sideeffect "nop # marker_end", ""() #19, !dbg !2210
  call void @__unsafe_record_block(i32 6, i32 3, i32 0, i16 0, i16 0, i16 0, i16 0, i16 0, i16 0), !dbg !2210
  br label %bb74, !dbg !2210, !unsafe_inst !531, !unsafe_line_info !2067

bb3.i208:                                         ; preds = %bb1.i206
  tail call void asm sideeffect "nop # marker_end", ""() #19, !dbg !2176
  call void @__unsafe_record_block(i32 6, i32 1, i32 0, i16 0, i16 0, i16 0, i16 0, i16 0, i16 0), !dbg !2176
  br label %bb74, !dbg !2176, !unsafe_inst !531, !unsafe_line_info !541

bb71:                                             ; preds = %bb70
  call void @llvm.dbg.value(metadata ptr %ptr, metadata !2211, metadata !DIExpression()), !dbg !2222
  call void @llvm.dbg.value(metadata i1 true, metadata !2215, metadata !DIExpression(DW_OP_LLVM_convert, 1, DW_ATE_unsigned, DW_OP_LLVM_convert, 8, DW_ATE_unsigned, DW_OP_stack_value)), !dbg !2222
  call void @llvm.dbg.declare(metadata ptr undef, metadata !2218, metadata !DIExpression()), !dbg !2224
  call void @llvm.dbg.value(metadata ptr %ptr, metadata !2216, metadata !DIExpression(DW_OP_LLVM_fragment, 0, 64)), !dbg !2225
  call void @llvm.dbg.value(metadata ptr %ptr, metadata !2216, metadata !DIExpression(DW_OP_plus_uconst, 40, DW_OP_stack_value, DW_OP_LLVM_fragment, 64, 64)), !dbg !2225
  call void @llvm.dbg.value(metadata ptr %ptr, metadata !2216, metadata !DIExpression(DW_OP_plus_uconst, 40, DW_OP_stack_value, DW_OP_LLVM_fragment, 128, 64)), !dbg !2225
  call void @llvm.dbg.value(metadata ptr %ptr, metadata !2216, metadata !DIExpression(DW_OP_plus_uconst, 40, DW_OP_stack_value, DW_OP_LLVM_fragment, 192, 64)), !dbg !2225
  tail call void asm sideeffect "nop # marker_end", ""() #19, !dbg !2226
  tail call void asm sideeffect "nop # marker_begin", ""() #19, !dbg !2227
  %93 = icmp ne ptr %ptr, null
  tail call void @llvm.assume(i1 %93)
  call void @llvm.dbg.value(metadata ptr %ptr, metadata !2220, metadata !DIExpression()), !dbg !2228
  tail call void asm sideeffect "nop # marker_end", ""() #19, !dbg !2229
  call void @llvm.dbg.value(metadata ptr undef, metadata !573, metadata !DIExpression()), !dbg !2230
  call void @llvm.dbg.value(metadata ptr %ptr, metadata !581, metadata !DIExpression()), !dbg !2230
  call void @llvm.dbg.value(metadata i1 true, metadata !582, metadata !DIExpression(DW_OP_LLVM_convert, 1, DW_ATE_unsigned, DW_OP_LLVM_convert, 8, DW_ATE_unsigned, DW_OP_stack_value)), !dbg !2230
  call void @llvm.dbg.value(metadata ptr %ptr, metadata !587, metadata !DIExpression()), !dbg !2232
  call void @llvm.dbg.value(metadata ptr undef, metadata !596, metadata !DIExpression()), !dbg !2232
  call void @llvm.dbg.value(metadata ptr %ptr, metadata !605, metadata !DIExpression()), !dbg !2234
  call void @__unsafe_record_block(i32 6, i32 3, i32 2, i16 0, i16 0, i16 1, i16 0, i16 0, i16 1), !dbg !2236
; invoke core::ptr::drop_in_place<async_task::runnable::Runnable>
  invoke fastcc void @"_ZN4core3ptr51drop_in_place$LT$async_task..runnable..Runnable$GT$17h3660e7f9ebcd5a5cE"(ptr nonnull %ptr)
          to label %bb72 unwind label %cleanup.i220, !dbg !2236

cleanup.i220:                                     ; preds = %bb71
  %94 = landingpad { ptr, i32 }
          cleanup
  tail call void asm sideeffect "nop # marker_begin", ""() #19, !dbg !2237
  tail call void asm sideeffect "nop # marker_end", ""() #19, !dbg !2237
  tail call void asm sideeffect "nop # marker_begin", ""() #19, !dbg !2238
  tail call void asm sideeffect "nop # marker_end", ""() #19, !dbg !2238
  call void @__unsafe_record_block(i32 6, i32 2, i32 0, i16 0, i16 0, i16 0, i16 0, i16 0, i16 0)
  br label %bb101

bb74:                                             ; preds = %bb3.i208, %"_ZN10async_task3raw28RawTask$LT$F$C$T$C$S$C$M$GT$7destroy17hee0db9d7e7757924E.exit.i217", %bb4.i205
  tail call void asm sideeffect "nop # marker_begin", ""() #19, !dbg !2239
  tail call void asm sideeffect "nop # marker_end", ""() #19, !dbg !2239
  tail call void asm sideeffect "nop # marker_begin", ""() #19, !dbg !2240
  tail call void asm sideeffect "nop # marker_end", ""() #19, !dbg !2240
  call void @__unsafe_record_block(i32 6, i32 1, i32 0, i16 0, i16 0, i16 0, i16 0, i16 0, i16 0), !dbg !2240
  br label %bb75, !dbg !2240, !unsafe_inst !531, !unsafe_line_info !2157

bb75:                                             ; preds = %bb86, %bb74
  tail call void asm sideeffect "nop # marker_begin", ""() #19, !dbg !2241
  tail call void asm sideeffect "nop # marker_end", ""() #19, !dbg !2242
  call void @__unsafe_record_block(i32 6, i32 1, i32 0, i16 0, i16 0, i16 0, i16 0, i16 0, i16 0), !dbg !2242
  br label %bb76, !dbg !2242, !unsafe_inst !531, !unsafe_line_info !2243

bb72:                                             ; preds = %bb71
  tail call void asm sideeffect "nop # marker_begin", ""() #19, !dbg !2244
  tail call void asm sideeffect "nop # marker_end", ""() #19, !dbg !2237
  tail call void asm sideeffect "nop # marker_begin", ""() #19, !dbg !2237
  tail call void asm sideeffect "nop # marker_end", ""() #19, !dbg !2245
  tail call void asm sideeffect "nop # marker_begin", ""() #19, !dbg !2246
  tail call void asm sideeffect "nop # marker_end", ""() #19, !dbg !2247
  call void @__unsafe_record_block(i32 6, i32 1, i32 0, i16 0, i16 0, i16 0, i16 0, i16 0, i16 0), !dbg !2247
  br label %bb90, !dbg !2247, !unsafe_inst !531, !unsafe_line_info !541

bb90:                                             ; preds = %bb76, %bb72
  %_0.sroa.0.0 = phi i1 [ false, %bb76 ], [ true, %bb72 ], !dbg !1600
  tail call void asm sideeffect "nop # marker_begin", ""() #19, !dbg !2131
  tail call void asm sideeffect "nop # marker_end", ""() #19, !dbg !2249
  call void @__unsafe_record_block(i32 6, i32 2, i32 0, i16 0, i16 0, i16 0, i16 0, i16 0, i16 0), !dbg !2249
  br label %bb77, !dbg !2249, !unsafe_inst !531, !unsafe_line_info !541

bb61:                                             ; preds = %bb60
  tail call void asm sideeffect "nop # marker_begin", ""() #19, !noalias !2251
  tail call void asm sideeffect "nop # marker_end", ""() #19, !noalias !2251
  call void @llvm.dbg.value(metadata i64 128, metadata !1833, metadata !DIExpression()), !dbg !2254
  call void @llvm.dbg.value(metadata i8 3, metadata !1839, metadata !DIExpression()), !dbg !2254
  call void @llvm.dbg.value(metadata i64 128, metadata !1875, metadata !DIExpression()), !dbg !2257
  call void @llvm.dbg.value(metadata i8 3, metadata !1880, metadata !DIExpression()), !dbg !2257
  call void @llvm.dbg.value(metadata ptr poison, metadata !1883, metadata !DIExpression(DW_OP_LLVM_fragment, 0, 64)), !dbg !2259
  call void @llvm.dbg.value(metadata ptr poison, metadata !1883, metadata !DIExpression(DW_OP_LLVM_fragment, 64, 64)), !dbg !2259
  call void @llvm.dbg.value(metadata ptr poison, metadata !1904, metadata !DIExpression(DW_OP_LLVM_fragment, 0, 64)), !dbg !2262
  call void @llvm.dbg.value(metadata ptr poison, metadata !1904, metadata !DIExpression(DW_OP_LLVM_fragment, 64, 64)), !dbg !2262
  call void @llvm.dbg.value(metadata i64 -161, metadata !1913, metadata !DIExpression()), !dbg !2264
  call void @llvm.dbg.value(metadata i8 1, metadata !1918, metadata !DIExpression()), !dbg !2264
  call void @llvm.dbg.value(metadata i64 -161, metadata !1921, metadata !DIExpression()), !dbg !2266
  call void @llvm.dbg.value(metadata i8 1, metadata !1926, metadata !DIExpression()), !dbg !2266
  call void @llvm.dbg.value(metadata ptr null, metadata !1863, metadata !DIExpression()), !dbg !2268
  call void @llvm.dbg.value(metadata ptr %ptr, metadata !1862, metadata !DIExpression()), !dbg !2268
  call void @llvm.dbg.value(metadata ptr %ptr, metadata !1838, metadata !DIExpression(DW_OP_plus_uconst, 8, DW_OP_stack_value)), !dbg !2254
  call void @llvm.dbg.value(metadata ptr %_148, metadata !1879, metadata !DIExpression()), !dbg !2257
  %95 = atomicrmw or ptr %_148, i64 128 acq_rel, align 8, !dbg !2269, !noalias !2251
  call void @llvm.dbg.value(metadata i64 %95, metadata !1864, metadata !DIExpression()), !dbg !2270
  %_6.i226 = and i64 %95, 192, !dbg !2271
  %96 = icmp eq i64 %_6.i226, 0, !dbg !2271
  call void @__unsafe_record_block(i32 6, i32 4, i32 0, i16 0, i16 0, i16 0, i16 0, i16 0, i16 0), !dbg !2271
  br i1 %96, label %bb1.i229, label %bb63, !dbg !2271

bb1.i229:                                         ; preds = %bb61
  tail call void asm sideeffect "nop # marker_begin", ""() #19, !dbg !2272, !noalias !2251
  call void @llvm.dbg.value(metadata ptr %ptr, metadata !1934, metadata !DIExpression(DW_OP_plus_uconst, 16, DW_OP_stack_value)), !dbg !2273
  %_26.i230 = getelementptr inbounds i8, ptr %ptr, i64 16, !dbg !2275
  call void @llvm.dbg.value(metadata ptr %_26.i230, metadata !1902, metadata !DIExpression()), !dbg !2276
  call void @llvm.dbg.value(metadata ptr %_26.i230, metadata !1890, metadata !DIExpression()), !dbg !2259
  call void @llvm.dbg.value(metadata ptr %_26.i230, metadata !1946, metadata !DIExpression()), !dbg !2277
  call void @llvm.dbg.value(metadata ptr %_26.i230, metadata !1910, metadata !DIExpression()), !dbg !2262
  tail call void asm sideeffect "nop # marker_end", ""() #19, !dbg !2279, !noalias !2251
  %97 = load ptr, ptr %_26.i230, align 8, !dbg !2279, !noalias !2251, !align !1956, !noundef !29
  %98 = getelementptr inbounds i8, ptr %ptr, i64 24, !dbg !2279
  %99 = load ptr, ptr %98, align 8, !dbg !2279, !noalias !2251
  call void @llvm.dbg.value(metadata ptr %97, metadata !1866, metadata !DIExpression(DW_OP_LLVM_fragment, 0, 64)), !dbg !2280
  call void @llvm.dbg.value(metadata ptr %97, metadata !1891, metadata !DIExpression(DW_OP_LLVM_fragment, 0, 64)), !dbg !2281
  call void @llvm.dbg.value(metadata ptr %99, metadata !1866, metadata !DIExpression(DW_OP_LLVM_fragment, 64, 64)), !dbg !2280
  call void @llvm.dbg.value(metadata ptr %99, metadata !1891, metadata !DIExpression(DW_OP_LLVM_fragment, 64, 64)), !dbg !2281
  store ptr null, ptr %_26.i230, align 8, !dbg !2282, !noalias !2251
  call void @llvm.dbg.value(metadata ptr %ptr, metadata !1917, metadata !DIExpression(DW_OP_plus_uconst, 8, DW_OP_stack_value)), !dbg !2264
  call void @llvm.dbg.value(metadata ptr %_148, metadata !1925, metadata !DIExpression()), !dbg !2266
  %100 = atomicrmw and ptr %_148, i64 -161 release, align 8, !dbg !2283, !noalias !2251
  %101 = icmp eq ptr %97, null, !dbg !2284
  %spec.select319 = select i1 %101, ptr undef, ptr %99, !dbg !2284
  call void @__unsafe_record_block(i32 6, i32 9, i32 1, i16 0, i16 0, i16 0, i16 0, i16 1, i16 0), !dbg !2284
  br label %bb63, !dbg !2284

bb66:                                             ; preds = %bb60, %bb63
  %awaiter10.sroa.0.0 = phi ptr [ %_0.sroa.0.1.i227, %bb63 ], [ null, %bb60 ], !dbg !2155
  %awaiter10.sroa.12.0 = phi ptr [ %_0.sroa.4.1.i228, %bb63 ], [ undef, %bb60 ]
  tail call void @llvm.dbg.value(metadata ptr %awaiter10.sroa.12.0, metadata !1177, metadata !DIExpression(DW_OP_LLVM_fragment, 64, 64)), !dbg !2162
  tail call void @llvm.dbg.value(metadata ptr %awaiter10.sroa.0.0, metadata !1177, metadata !DIExpression(DW_OP_LLVM_fragment, 0, 64)), !dbg !2162
  tail call void asm sideeffect "nop # marker_begin", ""() #19, !dbg !2285
  tail call void asm sideeffect "nop # marker_end", ""() #19, !dbg !2285
  tail call void asm sideeffect "nop # marker_begin", ""() #19
  call void @llvm.dbg.value(metadata i64 256, metadata !1963, metadata !DIExpression()), !dbg !2286
  call void @llvm.dbg.value(metadata i8 3, metadata !1968, metadata !DIExpression()), !dbg !2286
  call void @llvm.dbg.value(metadata i64 256, metadata !1980, metadata !DIExpression()), !dbg !2289
  call void @llvm.dbg.value(metadata i8 3, metadata !1985, metadata !DIExpression()), !dbg !2289
  call void @llvm.dbg.value(metadata ptr %ptr, metadata !1975, metadata !DIExpression()), !dbg !2291
  call void @llvm.dbg.value(metadata ptr %ptr, metadata !1976, metadata !DIExpression(DW_OP_LLVM_fragment, 0, 64)), !dbg !2292
  call void @llvm.dbg.value(metadata ptr %ptr, metadata !1976, metadata !DIExpression(DW_OP_plus_uconst, 40, DW_OP_stack_value, DW_OP_LLVM_fragment, 64, 64)), !dbg !2292
  call void @llvm.dbg.value(metadata ptr %ptr, metadata !1976, metadata !DIExpression(DW_OP_plus_uconst, 40, DW_OP_stack_value, DW_OP_LLVM_fragment, 128, 64)), !dbg !2292
  call void @llvm.dbg.value(metadata ptr %ptr, metadata !1976, metadata !DIExpression(DW_OP_plus_uconst, 40, DW_OP_stack_value, DW_OP_LLVM_fragment, 192, 64)), !dbg !2292
  call void @llvm.dbg.value(metadata ptr %ptr, metadata !1967, metadata !DIExpression(DW_OP_plus_uconst, 8, DW_OP_stack_value)), !dbg !2286
  call void @llvm.dbg.value(metadata ptr %_148, metadata !1984, metadata !DIExpression()), !dbg !2289
  %102 = atomicrmw sub ptr %_148, i64 256 acq_rel, align 8, !dbg !2293, !unsafe_inst !531, !unsafe_line_info !534
  call void @llvm.dbg.value(metadata i64 %102, metadata !1977, metadata !DIExpression(DW_OP_constu, 256, DW_OP_minus, DW_OP_stack_value)), !dbg !2294
  %103 = and i64 %102, -256, !dbg !2295
  %104 = icmp eq i64 %103, 256, !dbg !2295
  tail call void asm sideeffect "nop # marker_end", ""() #19, !dbg !2295
  tail call void asm sideeffect "nop # marker_begin", ""() #19, !dbg !2294
  call void @__unsafe_record_block(i32 6, i32 6, i32 4, i16 0, i16 1, i16 0, i16 0, i16 0, i16 3), !dbg !2295
  br i1 %104, label %bb1.i236, label %bb4.i235, !dbg !2295, !unsafe_inst !531, !unsafe_line_info !1993

bb1.i236:                                         ; preds = %bb66
  %_6.i237 = and i64 %102, 16, !dbg !2296, !unsafe_inst !531, !unsafe_line_info !1993
  %105 = icmp eq i64 %_6.i237, 0, !dbg !2296, !unsafe_inst !531, !unsafe_line_info !1993
  tail call void asm sideeffect "nop # marker_end", ""() #19, !dbg !2296
  tail call void asm sideeffect "nop # marker_begin", ""() #19, !dbg !2294
  call void @__unsafe_record_block(i32 6, i32 3, i32 1, i16 0, i16 0, i16 0, i16 0, i16 0, i16 1), !dbg !2296
  br i1 %105, label %bb2.i239, label %bb3.i238, !dbg !2296, !unsafe_inst !531, !unsafe_line_info !1993

bb4.i235:                                         ; preds = %bb66
  tail call void asm sideeffect "nop # marker_end", ""() #19, !dbg !2297
  call void @__unsafe_record_block(i32 6, i32 1, i32 0, i16 0, i16 0, i16 0, i16 0, i16 0, i16 0), !dbg !2297
  br label %bb67, !dbg !2297, !unsafe_inst !531, !unsafe_line_info !541

bb2.i239:                                         ; preds = %bb1.i236
  tail call void asm sideeffect "nop # marker_begin", ""() #19
  call void @llvm.dbg.value(metadata ptr %ptr, metadata !1997, metadata !DIExpression()), !dbg !2298
  call void @llvm.dbg.value(metadata ptr %ptr, metadata !2001, metadata !DIExpression(DW_OP_LLVM_fragment, 0, 64)), !dbg !2300
  call void @llvm.dbg.value(metadata ptr %ptr, metadata !2001, metadata !DIExpression(DW_OP_plus_uconst, 40, DW_OP_stack_value, DW_OP_LLVM_fragment, 64, 64)), !dbg !2300
  call void @llvm.dbg.value(metadata ptr %ptr, metadata !2001, metadata !DIExpression(DW_OP_plus_uconst, 40, DW_OP_stack_value, DW_OP_LLVM_fragment, 128, 64)), !dbg !2300
  call void @llvm.dbg.value(metadata ptr %ptr, metadata !2001, metadata !DIExpression(DW_OP_plus_uconst, 40, DW_OP_stack_value, DW_OP_LLVM_fragment, 192, 64)), !dbg !2300
  call void @llvm.dbg.value(metadata i64 8, metadata !2003, metadata !DIExpression(DW_OP_LLVM_fragment, 0, 64)), !dbg !2301
  call void @llvm.dbg.value(metadata i64 56, metadata !2003, metadata !DIExpression(DW_OP_LLVM_fragment, 64, 64)), !dbg !2301
  call void @llvm.dbg.value(metadata i64 poison, metadata !2003, metadata !DIExpression(DW_OP_LLVM_fragment, 128, 64)), !dbg !2301
  call void @llvm.dbg.value(metadata i64 poison, metadata !2003, metadata !DIExpression(DW_OP_LLVM_fragment, 192, 64)), !dbg !2301
  call void @llvm.dbg.value(metadata i64 poison, metadata !2003, metadata !DIExpression(DW_OP_LLVM_fragment, 256, 64)), !dbg !2301
  %106 = getelementptr i8, ptr %ptr, i64 16, !dbg !2302
  %raw.val.val.i.i240 = load ptr, ptr %106, align 8, !dbg !2302, !noundef !29
  %107 = getelementptr i8, ptr %ptr, i64 24, !dbg !2302
  %raw.val.val19.i.i241 = load ptr, ptr %107, align 8, !dbg !2302
  call void @llvm.lifetime.start.p0(i64 0, ptr nonnull %_2.i299), !dbg !2303
  call void @llvm.dbg.declare(metadata ptr undef, metadata !2034, metadata !DIExpression()), !dbg !2310
  call void @llvm.dbg.value(metadata ptr undef, metadata !2033, metadata !DIExpression(DW_OP_LLVM_fragment, 0, 64)), !dbg !2311
  call void @llvm.dbg.value(metadata ptr undef, metadata !2033, metadata !DIExpression(DW_OP_LLVM_fragment, 64, 64)), !dbg !2311
  call void @llvm.dbg.value(metadata ptr undef, metadata !2027, metadata !DIExpression(DW_OP_deref)), !dbg !2312
  call void @llvm.dbg.value(metadata ptr undef, metadata !2028, metadata !DIExpression(DW_OP_plus_uconst, 8, DW_OP_deref)), !dbg !2312
  call void @llvm.dbg.value(metadata ptr undef, metadata !2017, metadata !DIExpression()), !dbg !2313
  call void @llvm.dbg.value(metadata ptr undef, metadata !658, metadata !DIExpression()), !dbg !2314
  call void @llvm.dbg.value(metadata ptr undef, metadata !649, metadata !DIExpression()), !dbg !2315
  call void @llvm.dbg.value(metadata ptr undef, metadata !642, metadata !DIExpression()), !dbg !2316
  %108 = icmp eq ptr %raw.val.val.i.i240, null, !dbg !2303
  call void @__unsafe_record_block(i32 6, i32 7, i32 7, i16 2, i16 0, i16 1, i16 0, i16 2, i16 2), !dbg !2303
  br i1 %108, label %"_ZN10async_task3raw28RawTask$LT$F$C$T$C$S$C$M$GT$7destroy17hee0db9d7e7757924E.exit.i247", label %bb2.i.i.i.i.i.i.i242, !dbg !2303

bb2.i.i.i.i.i.i.i242:                             ; preds = %bb2.i239
  call void @llvm.dbg.value(metadata ptr undef, metadata !706, metadata !DIExpression()), !dbg !2317
  call void @llvm.dbg.value(metadata ptr undef, metadata !714, metadata !DIExpression()), !dbg !2319
  %109 = getelementptr inbounds i8, ptr %raw.val.val.i.i240, i64 24, !dbg !2321
  %_2.i.i.i.i.i.i.i.i.i243 = load ptr, ptr %109, align 8, !dbg !2321, !nonnull !29, !noundef !29
  call void @__unsafe_record_block(i32 6, i32 3, i32 0, i16 0, i16 0, i16 0, i16 0, i16 0, i16 0), !dbg !2321
  invoke void %_2.i.i.i.i.i.i.i.i.i243(ptr noundef %raw.val.val19.i.i241)
          to label %"_ZN10async_task3raw28RawTask$LT$F$C$T$C$S$C$M$GT$7destroy17hee0db9d7e7757924E.exit.i247" unwind label %cleanup.i.i.i244, !dbg !2321

cleanup.i.i.i244:                                 ; preds = %bb2.i.i.i.i.i.i.i242
  %110 = landingpad { ptr, i32 }
          cleanup
  call void @llvm.dbg.value(metadata ptr %_2.i299, metadata !725, metadata !DIExpression()), !dbg !2322
  call void @__unsafe_record_block(i32 6, i32 2, i32 0, i16 0, i16 0, i16 0, i16 0, i16 0, i16 0), !dbg !2324
; invoke <async_task::utils::abort_on_panic::Bomb as core::ops::drop::Drop>::drop
  invoke void @"_ZN81_$LT$async_task..utils..abort_on_panic..Bomb$u20$as$u20$core..ops..drop..Drop$GT$4drop17hbbde9adaede740a0E"(ptr noalias noundef nonnull align 1 %_2.i299)
          to label %bb93 unwind label %terminate.i.i.i245, !dbg !2324

terminate.i.i.i245:                               ; preds = %cleanup.i.i.i244
  %111 = landingpad { ptr, i32 }
          filter [0 x ptr] zeroinitializer
; call core::panicking::panic_in_cleanup
  call void @_ZN4core9panicking16panic_in_cleanup17h43442956f23e9cbeE() #20, !dbg !2325
  call void @__unsafe_record_block(i32 6, i32 3, i32 0, i16 0, i16 0, i16 0, i16 0, i16 0, i16 0), !dbg !2325
  unreachable, !dbg !2325

"_ZN10async_task3raw28RawTask$LT$F$C$T$C$S$C$M$GT$7destroy17hee0db9d7e7757924E.exit.i247": ; preds = %bb2.i.i.i.i.i.i.i242, %bb2.i239
  call void @llvm.lifetime.end.p0(i64 0, ptr nonnull %_2.i299), !dbg !2326
  call void @llvm.dbg.value(metadata ptr %ptr, metadata !2057, metadata !DIExpression()), !dbg !2327
  call void @llvm.dbg.value(metadata i64 8, metadata !2061, metadata !DIExpression(DW_OP_LLVM_fragment, 0, 64)), !dbg !2327
  call void @llvm.dbg.value(metadata i64 56, metadata !2061, metadata !DIExpression(DW_OP_LLVM_fragment, 64, 64)), !dbg !2327
  tail call void @__rust_dealloc(ptr noundef nonnull %ptr, i64 noundef 56, i64 noundef 8) #19, !dbg !2329, !unsafe_inst !531, !unsafe_line_info !751
  tail call void asm sideeffect "nop # marker_end", ""() #19, !dbg !2330
  tail call void asm sideeffect "nop # marker_end", ""() #19, !dbg !2331
  call void @__unsafe_record_block(i32 6, i32 3, i32 0, i16 0, i16 0, i16 0, i16 0, i16 0, i16 0), !dbg !2331
  br label %bb67, !dbg !2331, !unsafe_inst !531, !unsafe_line_info !2067

bb3.i238:                                         ; preds = %bb1.i236
  tail call void asm sideeffect "nop # marker_end", ""() #19, !dbg !2297
  call void @__unsafe_record_block(i32 6, i32 1, i32 0, i16 0, i16 0, i16 0, i16 0, i16 0, i16 0), !dbg !2297
  br label %bb67, !dbg !2297, !unsafe_inst !531, !unsafe_line_info !541

bb93:                                             ; preds = %cleanup.i256, %cleanup.i.i.i244
  %_125.sroa.0.1 = phi i1 [ true, %cleanup.i.i.i244 ], [ false, %cleanup.i256 ], !dbg !2162
  %.pn136 = phi { ptr, i32 } [ %110, %cleanup.i.i.i244 ], [ %114, %cleanup.i256 ]
  tail call void @llvm.dbg.value(metadata ptr %awaiter10.sroa.12.0, metadata !1177, metadata !DIExpression(DW_OP_LLVM_fragment, 64, 64)), !dbg !2162
  tail call void @llvm.dbg.value(metadata ptr %awaiter10.sroa.0.0, metadata !1177, metadata !DIExpression(DW_OP_LLVM_fragment, 0, 64)), !dbg !2162
  call void asm sideeffect "nop # marker_begin", ""() #19, !dbg !2332
  %.not138 = icmp eq ptr %awaiter10.sroa.0.0, null, !dbg !2332
  call void asm sideeffect "nop # marker_end", ""() #19, !dbg !2332
  call void @__unsafe_record_block(i32 6, i32 4, i32 1, i16 0, i16 0, i16 0, i16 0, i16 0, i16 1), !dbg !2332
  br i1 %.not138, label %bb101, label %bb91, !dbg !2332, !unsafe_inst !531, !unsafe_line_info !2161

bb63:                                             ; preds = %bb1.i229, %bb61
  %_0.sroa.0.1.i227 = phi ptr [ null, %bb61 ], [ %97, %bb1.i229 ], !dbg !2270
  %_0.sroa.4.1.i228 = phi ptr [ undef, %bb61 ], [ %spec.select319, %bb1.i229 ], !dbg !2270
  tail call void asm sideeffect "nop # marker_begin", ""() #19, !dbg !2333
  tail call void asm sideeffect "nop # marker_end", ""() #19, !dbg !2333
  call void @llvm.dbg.value(metadata ptr undef, metadata !642, metadata !DIExpression()), !dbg !2334
  tail call void asm sideeffect "nop # marker_begin", ""() #19, !dbg !2333
  tail call void @llvm.dbg.value(metadata ptr %_0.sroa.0.1.i227, metadata !1177, metadata !DIExpression(DW_OP_LLVM_fragment, 0, 64)), !dbg !2162
  tail call void @llvm.dbg.value(metadata ptr %_0.sroa.4.1.i228, metadata !1177, metadata !DIExpression(DW_OP_LLVM_fragment, 64, 64)), !dbg !2162
  tail call void asm sideeffect "nop # marker_end", ""() #19, !dbg !2336
  call void @__unsafe_record_block(i32 6, i32 3, i32 0, i16 0, i16 0, i16 0, i16 0, i16 0, i16 0), !dbg !2336
  br label %bb66, !dbg !2336, !unsafe_inst !531, !unsafe_line_info !2164

bb67:                                             ; preds = %bb3.i238, %"_ZN10async_task3raw28RawTask$LT$F$C$T$C$S$C$M$GT$7destroy17hee0db9d7e7757924E.exit.i247", %bb4.i235
  tail call void asm sideeffect "nop # marker_begin", ""() #19, !dbg !2337
  tail call void asm sideeffect "nop # marker_end", ""() #19, !dbg !2337
  tail call void asm sideeffect "nop # marker_begin", ""() #19, !dbg !2338
  %112 = icmp eq ptr %awaiter10.sroa.0.0, null, !dbg !2338
  tail call void asm sideeffect "nop # marker_end", ""() #19, !dbg !2338
  tail call void asm sideeffect "nop # marker_begin", ""() #19, !dbg !2155
  tail call void asm sideeffect "nop # marker_end", ""() #19, !dbg !2155
  call void @__unsafe_record_block(i32 6, i32 2, i32 1, i16 0, i16 0, i16 0, i16 0, i16 0, i16 1), !dbg !2338
  br i1 %112, label %bb86, label %bb68, !dbg !2338

bb68:                                             ; preds = %bb67
  tail call void @llvm.dbg.value(metadata ptr %awaiter10.sroa.0.0, metadata !1179, metadata !DIExpression(DW_OP_LLVM_fragment, 0, 64)), !dbg !2339
  tail call void @llvm.dbg.value(metadata ptr %awaiter10.sroa.12.0, metadata !1179, metadata !DIExpression(DW_OP_LLVM_fragment, 64, 64)), !dbg !2339
  %113 = getelementptr i8, ptr %awaiter10.sroa.0.0, i64 8, !dbg !2340
  %w.086.val = load ptr, ptr %113, align 8, !dbg !2340, !nonnull !29, !noundef !29
  call void @llvm.lifetime.start.p0(i64 0, ptr nonnull %_2.i299)
  call void @llvm.dbg.declare(metadata ptr undef, metadata !2341, metadata !DIExpression()), !dbg !2355
  call void @llvm.dbg.value(metadata ptr undef, metadata !2350, metadata !DIExpression(DW_OP_LLVM_fragment, 0, 64)), !dbg !2357
  call void @llvm.dbg.value(metadata ptr %awaiter10.sroa.12.0, metadata !2350, metadata !DIExpression(DW_OP_LLVM_fragment, 64, 64)), !dbg !2357
  call void @llvm.dbg.value(metadata ptr undef, metadata !2358, metadata !DIExpression(DW_OP_LLVM_fragment, 0, 64)), !dbg !2361
  call void @llvm.dbg.value(metadata ptr %awaiter10.sroa.12.0, metadata !2358, metadata !DIExpression(DW_OP_LLVM_fragment, 64, 64)), !dbg !2361
  call void @llvm.dbg.value(metadata ptr undef, metadata !2363, metadata !DIExpression(DW_OP_LLVM_fragment, 0, 64)), !dbg !2371
  call void @llvm.dbg.value(metadata ptr %awaiter10.sroa.12.0, metadata !2363, metadata !DIExpression(DW_OP_LLVM_fragment, 64, 64)), !dbg !2371
  call void @llvm.dbg.value(metadata ptr %w.086.val, metadata !2367, metadata !DIExpression()), !dbg !2373
  call void @llvm.dbg.value(metadata ptr %awaiter10.sroa.12.0, metadata !2369, metadata !DIExpression()), !dbg !2374
  call void @__unsafe_record_block(i32 6, i32 4, i32 0, i16 0, i16 0, i16 0, i16 0, i16 0, i16 0), !dbg !2375
  invoke void %w.086.val(ptr noundef %awaiter10.sroa.12.0)
          to label %bb69 unwind label %cleanup.i256, !dbg !2375

cleanup.i256:                                     ; preds = %bb68
  %114 = landingpad { ptr, i32 }
          cleanup
  call void @llvm.dbg.value(metadata ptr %_2.i299, metadata !725, metadata !DIExpression()), !dbg !2376
  call void @__unsafe_record_block(i32 6, i32 2, i32 0, i16 0, i16 0, i16 0, i16 0, i16 0, i16 0), !dbg !2378
; invoke <async_task::utils::abort_on_panic::Bomb as core::ops::drop::Drop>::drop
  invoke void @"_ZN81_$LT$async_task..utils..abort_on_panic..Bomb$u20$as$u20$core..ops..drop..Drop$GT$4drop17hbbde9adaede740a0E"(ptr noalias noundef nonnull align 1 %_2.i299)
          to label %bb93 unwind label %terminate.i257, !dbg !2378

terminate.i257:                                   ; preds = %cleanup.i256
  %115 = landingpad { ptr, i32 }
          filter [0 x ptr] zeroinitializer
; call core::panicking::panic_in_cleanup
  call void @_ZN4core9panicking16panic_in_cleanup17h43442956f23e9cbeE() #20, !dbg !2379
  call void @__unsafe_record_block(i32 6, i32 3, i32 0, i16 0, i16 0, i16 0, i16 0, i16 0, i16 0), !dbg !2379
  unreachable, !dbg !2379

bb69:                                             ; preds = %bb68
  call void @llvm.lifetime.end.p0(i64 0, ptr nonnull %_2.i299), !dbg !2380
  tail call void asm sideeffect "nop # marker_begin", ""() #19, !dbg !2332
  tail call void asm sideeffect "nop # marker_end", ""() #19, !dbg !2332
  call void @__unsafe_record_block(i32 6, i32 2, i32 0, i16 0, i16 0, i16 0, i16 0, i16 0, i16 0), !dbg !2332
  br label %bb86, !dbg !2332

bb86:                                             ; preds = %bb67, %bb69
  tail call void asm sideeffect "nop # marker_begin", ""() #19, !dbg !2332
  tail call void asm sideeffect "nop # marker_end", ""() #19, !dbg !2240
  call void @__unsafe_record_block(i32 6, i32 1, i32 0, i16 0, i16 0, i16 0, i16 0, i16 0, i16 0), !dbg !2240
  br label %bb75, !dbg !2240, !unsafe_inst !531, !unsafe_line_info !2157

bb77:                                             ; preds = %bb79, %bb90
  %_0.sroa.0.1 = phi i1 [ %_0.sroa.0.0, %bb90 ], [ false, %bb79 ], !dbg !1395
  tail call void asm sideeffect "nop # marker_begin", ""() #19, !dbg !2381
  tail call void asm sideeffect "nop # marker_end", ""() #19, !dbg !2382
  call void @__unsafe_record_block(i32 6, i32 2, i32 0, i16 0, i16 0, i16 0, i16 0, i16 0, i16 0), !dbg !2382
  ret i1 %_0.sroa.0.1, !dbg !2382, !unsafe_inst !531, !unsafe_line_info !1593

bb91:                                             ; preds = %bb93
  call void asm sideeffect "nop # marker_begin", ""() #19, !dbg !2332
  call void asm sideeffect "nop # marker_end", ""() #19, !dbg !2332
  call void @__unsafe_record_block(i32 6, i32 1, i32 0, i16 0, i16 0, i16 0, i16 0, i16 0, i16 0), !dbg !2332
  br i1 %_125.sroa.0.1, label %bb92, label %bb101, !dbg !2332, !unsafe_inst !531, !unsafe_line_info !2161

bb92:                                             ; preds = %bb91
  call void asm sideeffect "nop # marker_begin", ""() #19, !dbg !2332
  call void asm sideeffect "nop # marker_end", ""() #19, !dbg !2332
  call void @llvm.dbg.value(metadata ptr undef, metadata !706, metadata !DIExpression()), !dbg !2383
  call void @llvm.dbg.value(metadata ptr undef, metadata !714, metadata !DIExpression()), !dbg !2385
  %116 = getelementptr inbounds i8, ptr %awaiter10.sroa.0.0, i64 24, !dbg !2387
  %_2.i.i265 = load ptr, ptr %116, align 8, !dbg !2387, !nonnull !29, !noundef !29
  call void @__unsafe_record_block(i32 6, i32 3, i32 0, i16 0, i16 0, i16 0, i16 0, i16 0, i16 0), !dbg !2387
  invoke void %_2.i.i265(ptr noundef %awaiter10.sroa.12.0)
          to label %bb101 unwind label %terminate, !dbg !2387

bb99:                                             ; preds = %bb101
  call void asm sideeffect "nop # marker_begin", ""() #19, !dbg !2131
  call void asm sideeffect "nop # marker_end", ""() #19, !dbg !2131
  call void @__unsafe_record_block(i32 6, i32 1, i32 0, i16 0, i16 0, i16 0, i16 0, i16 0, i16 0), !dbg !2131
  br label %bb103, !dbg !2131

bb78:                                             ; preds = %bb105, %bb102, %bb104, %bb106, %bb103
  %.pn144.pn.pn = phi { ptr, i32 } [ %.pn144.pn, %bb102 ], [ %.pn144.pn, %bb103 ], [ %.pn, %bb104 ], [ %.pn, %bb106 ], [ %.pn, %bb105 ]
  call void asm sideeffect "nop # marker_begin", ""() #19, !dbg !2130
  call void asm sideeffect "nop # marker_end", ""() #19, !dbg !2130
  call void @__unsafe_record_block(i32 6, i32 2, i32 0, i16 0, i16 0, i16 0, i16 0, i16 0, i16 0), !dbg !2130
  resume { ptr, i32 } %.pn144.pn.pn, !dbg !2130, !unsafe_inst !531, !unsafe_line_info !2388

bb102:                                            ; preds = %bb103
  call void asm sideeffect "nop # marker_begin", ""() #19, !dbg !1592
  call void asm sideeffect "nop # marker_end", ""() #19, !dbg !1592
  call void @__unsafe_record_block(i32 6, i32 1, i32 0, i16 0, i16 0, i16 0, i16 0, i16 0, i16 0), !dbg !1592
; invoke core::ptr::drop_in_place<async_task::raw::RawTask<F,T,S,M>::run::Guard<spawn::task_run::{{closure}}::{{closure}},(),core::mem::drop<async_task::runnable::Runnable>,()>>
  invoke fastcc void @"_ZN4core3ptr237drop_in_place$LT$async_task..raw..RawTask$LT$F$C$T$C$S$C$M$GT$..run..Guard$LT$spawn..task_run..$u7b$$u7b$closure$u7d$$u7d$..$u7b$$u7b$closure$u7d$$u7d$$C$$LP$$RP$$C$core..mem..drop$LT$async_task..runnable..Runnable$GT$$C$$LP$$RP$$GT$$GT$17h565481f2c1e741bfE"(ptr %ptr) #22
          to label %bb78 unwind label %terminate, !dbg !1592

bb3:                                              ; preds = %bb2
  tail call void asm sideeffect "nop # marker_begin", ""() #19, !noalias !2389
  tail call void asm sideeffect "nop # marker_end", ""() #19, !noalias !2389
  call void @llvm.dbg.value(metadata i64 128, metadata !1833, metadata !DIExpression()), !dbg !2392
  call void @llvm.dbg.value(metadata i8 3, metadata !1839, metadata !DIExpression()), !dbg !2392
  call void @llvm.dbg.value(metadata i64 128, metadata !1875, metadata !DIExpression()), !dbg !2395
  call void @llvm.dbg.value(metadata i8 3, metadata !1880, metadata !DIExpression()), !dbg !2395
  call void @llvm.dbg.value(metadata ptr poison, metadata !1883, metadata !DIExpression(DW_OP_LLVM_fragment, 0, 64)), !dbg !2397
  call void @llvm.dbg.value(metadata ptr poison, metadata !1883, metadata !DIExpression(DW_OP_LLVM_fragment, 64, 64)), !dbg !2397
  call void @llvm.dbg.value(metadata ptr poison, metadata !1904, metadata !DIExpression(DW_OP_LLVM_fragment, 0, 64)), !dbg !2400
  call void @llvm.dbg.value(metadata ptr poison, metadata !1904, metadata !DIExpression(DW_OP_LLVM_fragment, 64, 64)), !dbg !2400
  call void @llvm.dbg.value(metadata i64 -161, metadata !1913, metadata !DIExpression()), !dbg !2402
  call void @llvm.dbg.value(metadata i8 1, metadata !1918, metadata !DIExpression()), !dbg !2402
  call void @llvm.dbg.value(metadata i64 -161, metadata !1921, metadata !DIExpression()), !dbg !2404
  call void @llvm.dbg.value(metadata i8 1, metadata !1926, metadata !DIExpression()), !dbg !2404
  call void @llvm.dbg.value(metadata ptr null, metadata !1863, metadata !DIExpression()), !dbg !2406
  call void @llvm.dbg.value(metadata ptr %ptr, metadata !1862, metadata !DIExpression()), !dbg !2406
  call void @llvm.dbg.value(metadata ptr %ptr, metadata !1838, metadata !DIExpression(DW_OP_plus_uconst, 8, DW_OP_stack_value)), !dbg !2392
  call void @llvm.dbg.value(metadata ptr %_148, metadata !1879, metadata !DIExpression()), !dbg !2395
  %117 = atomicrmw or ptr %_148, i64 128 acq_rel, align 8, !dbg !2407, !noalias !2389
  call void @llvm.dbg.value(metadata i64 %117, metadata !1864, metadata !DIExpression()), !dbg !2408
  %_6.i270 = and i64 %117, 192, !dbg !2409
  %118 = icmp eq i64 %_6.i270, 0, !dbg !2409
  call void @__unsafe_record_block(i32 6, i32 4, i32 0, i16 0, i16 0, i16 0, i16 0, i16 0, i16 0), !dbg !2409
  br i1 %118, label %bb1.i273, label %bb5, !dbg !2409

bb1.i273:                                         ; preds = %bb3
  tail call void asm sideeffect "nop # marker_begin", ""() #19, !dbg !2410, !noalias !2389
  call void @llvm.dbg.value(metadata ptr %ptr, metadata !1934, metadata !DIExpression(DW_OP_plus_uconst, 16, DW_OP_stack_value)), !dbg !2411
  %_26.i274 = getelementptr inbounds i8, ptr %ptr, i64 16, !dbg !2413
  call void @llvm.dbg.value(metadata ptr %_26.i274, metadata !1902, metadata !DIExpression()), !dbg !2414
  call void @llvm.dbg.value(metadata ptr %_26.i274, metadata !1890, metadata !DIExpression()), !dbg !2397
  call void @llvm.dbg.value(metadata ptr %_26.i274, metadata !1946, metadata !DIExpression()), !dbg !2415
  call void @llvm.dbg.value(metadata ptr %_26.i274, metadata !1910, metadata !DIExpression()), !dbg !2400
  tail call void asm sideeffect "nop # marker_end", ""() #19, !dbg !2417, !noalias !2389
  %119 = load ptr, ptr %_26.i274, align 8, !dbg !2417, !noalias !2389, !align !1956, !noundef !29
  %120 = getelementptr inbounds i8, ptr %ptr, i64 24, !dbg !2417
  %121 = load ptr, ptr %120, align 8, !dbg !2417, !noalias !2389
  call void @llvm.dbg.value(metadata ptr %119, metadata !1866, metadata !DIExpression(DW_OP_LLVM_fragment, 0, 64)), !dbg !2418
  call void @llvm.dbg.value(metadata ptr %119, metadata !1891, metadata !DIExpression(DW_OP_LLVM_fragment, 0, 64)), !dbg !2419
  call void @llvm.dbg.value(metadata ptr %121, metadata !1866, metadata !DIExpression(DW_OP_LLVM_fragment, 64, 64)), !dbg !2418
  call void @llvm.dbg.value(metadata ptr %121, metadata !1891, metadata !DIExpression(DW_OP_LLVM_fragment, 64, 64)), !dbg !2419
  store ptr null, ptr %_26.i274, align 8, !dbg !2420, !noalias !2389
  call void @llvm.dbg.value(metadata ptr %ptr, metadata !1917, metadata !DIExpression(DW_OP_plus_uconst, 8, DW_OP_stack_value)), !dbg !2402
  call void @llvm.dbg.value(metadata ptr %_148, metadata !1925, metadata !DIExpression()), !dbg !2404
  %122 = atomicrmw and ptr %_148, i64 -161 release, align 8, !dbg !2421, !noalias !2389
  %123 = icmp eq ptr %119, null, !dbg !2422
  %spec.select321 = select i1 %123, ptr undef, ptr %121, !dbg !2422
  call void @__unsafe_record_block(i32 6, i32 9, i32 1, i16 0, i16 0, i16 0, i16 0, i16 1, i16 0), !dbg !2422
  br label %bb5, !dbg !2422

bb8:                                              ; preds = %bb2, %bb5
  %awaiter.sroa.12.0 = phi ptr [ %_0.sroa.4.1.i272, %bb5 ], [ undef, %bb2 ]
  %awaiter.sroa.0.0 = phi ptr [ %_0.sroa.0.1.i271, %bb5 ], [ null, %bb2 ], !dbg !1409
  tail call void @llvm.dbg.value(metadata ptr %awaiter.sroa.0.0, metadata !1129, metadata !DIExpression(DW_OP_LLVM_fragment, 0, 64)), !dbg !1410
  tail call void @llvm.dbg.value(metadata ptr %awaiter.sroa.12.0, metadata !1129, metadata !DIExpression(DW_OP_LLVM_fragment, 64, 64)), !dbg !1410
  tail call void asm sideeffect "nop # marker_begin", ""() #19, !dbg !2423
  tail call void asm sideeffect "nop # marker_end", ""() #19, !dbg !2423
  tail call void asm sideeffect "nop # marker_begin", ""() #19
  call void @llvm.dbg.value(metadata i64 256, metadata !1963, metadata !DIExpression()), !dbg !2424
  call void @llvm.dbg.value(metadata i8 3, metadata !1968, metadata !DIExpression()), !dbg !2424
  call void @llvm.dbg.value(metadata i64 256, metadata !1980, metadata !DIExpression()), !dbg !2427
  call void @llvm.dbg.value(metadata i8 3, metadata !1985, metadata !DIExpression()), !dbg !2427
  call void @llvm.dbg.value(metadata ptr %ptr, metadata !1975, metadata !DIExpression()), !dbg !2429
  call void @llvm.dbg.value(metadata ptr %ptr, metadata !1976, metadata !DIExpression(DW_OP_LLVM_fragment, 0, 64)), !dbg !2430
  call void @llvm.dbg.value(metadata ptr %ptr, metadata !1976, metadata !DIExpression(DW_OP_plus_uconst, 40, DW_OP_stack_value, DW_OP_LLVM_fragment, 64, 64)), !dbg !2430
  call void @llvm.dbg.value(metadata ptr %ptr, metadata !1976, metadata !DIExpression(DW_OP_plus_uconst, 40, DW_OP_stack_value, DW_OP_LLVM_fragment, 128, 64)), !dbg !2430
  call void @llvm.dbg.value(metadata ptr %ptr, metadata !1976, metadata !DIExpression(DW_OP_plus_uconst, 40, DW_OP_stack_value, DW_OP_LLVM_fragment, 192, 64)), !dbg !2430
  call void @llvm.dbg.value(metadata ptr %ptr, metadata !1967, metadata !DIExpression(DW_OP_plus_uconst, 8, DW_OP_stack_value)), !dbg !2424
  call void @llvm.dbg.value(metadata ptr %_148, metadata !1984, metadata !DIExpression()), !dbg !2427
  %124 = atomicrmw sub ptr %_148, i64 256 acq_rel, align 8, !dbg !2431, !unsafe_inst !531, !unsafe_line_info !534
  call void @llvm.dbg.value(metadata i64 %124, metadata !1977, metadata !DIExpression(DW_OP_constu, 256, DW_OP_minus, DW_OP_stack_value)), !dbg !2432
  %125 = and i64 %124, -256, !dbg !2433
  %126 = icmp eq i64 %125, 256, !dbg !2433
  tail call void asm sideeffect "nop # marker_end", ""() #19, !dbg !2433
  tail call void asm sideeffect "nop # marker_begin", ""() #19, !dbg !2432
  call void @__unsafe_record_block(i32 6, i32 6, i32 4, i16 0, i16 1, i16 0, i16 0, i16 0, i16 3), !dbg !2433
  br i1 %126, label %bb1.i280, label %bb4.i279, !dbg !2433, !unsafe_inst !531, !unsafe_line_info !1993

bb1.i280:                                         ; preds = %bb8
  %_6.i281 = and i64 %124, 16, !dbg !2434, !unsafe_inst !531, !unsafe_line_info !1993
  %127 = icmp eq i64 %_6.i281, 0, !dbg !2434, !unsafe_inst !531, !unsafe_line_info !1993
  tail call void asm sideeffect "nop # marker_end", ""() #19, !dbg !2434
  tail call void asm sideeffect "nop # marker_begin", ""() #19, !dbg !2432
  call void @__unsafe_record_block(i32 6, i32 3, i32 1, i16 0, i16 0, i16 0, i16 0, i16 0, i16 1), !dbg !2434
  br i1 %127, label %bb2.i283, label %bb3.i282, !dbg !2434, !unsafe_inst !531, !unsafe_line_info !1993

bb4.i279:                                         ; preds = %bb8
  tail call void asm sideeffect "nop # marker_end", ""() #19, !dbg !2435
  call void @__unsafe_record_block(i32 6, i32 1, i32 0, i16 0, i16 0, i16 0, i16 0, i16 0, i16 0), !dbg !2435
  br label %bb9, !dbg !2435, !unsafe_inst !531, !unsafe_line_info !541

bb2.i283:                                         ; preds = %bb1.i280
  tail call void asm sideeffect "nop # marker_begin", ""() #19
  call void @llvm.dbg.value(metadata ptr %ptr, metadata !1997, metadata !DIExpression()), !dbg !2436
  call void @llvm.dbg.value(metadata ptr %ptr, metadata !2001, metadata !DIExpression(DW_OP_LLVM_fragment, 0, 64)), !dbg !2438
  call void @llvm.dbg.value(metadata ptr %ptr, metadata !2001, metadata !DIExpression(DW_OP_plus_uconst, 40, DW_OP_stack_value, DW_OP_LLVM_fragment, 64, 64)), !dbg !2438
  call void @llvm.dbg.value(metadata ptr %ptr, metadata !2001, metadata !DIExpression(DW_OP_plus_uconst, 40, DW_OP_stack_value, DW_OP_LLVM_fragment, 128, 64)), !dbg !2438
  call void @llvm.dbg.value(metadata ptr %ptr, metadata !2001, metadata !DIExpression(DW_OP_plus_uconst, 40, DW_OP_stack_value, DW_OP_LLVM_fragment, 192, 64)), !dbg !2438
  call void @llvm.dbg.value(metadata i64 8, metadata !2003, metadata !DIExpression(DW_OP_LLVM_fragment, 0, 64)), !dbg !2439
  call void @llvm.dbg.value(metadata i64 56, metadata !2003, metadata !DIExpression(DW_OP_LLVM_fragment, 64, 64)), !dbg !2439
  call void @llvm.dbg.value(metadata i64 poison, metadata !2003, metadata !DIExpression(DW_OP_LLVM_fragment, 128, 64)), !dbg !2439
  call void @llvm.dbg.value(metadata i64 poison, metadata !2003, metadata !DIExpression(DW_OP_LLVM_fragment, 192, 64)), !dbg !2439
  call void @llvm.dbg.value(metadata i64 poison, metadata !2003, metadata !DIExpression(DW_OP_LLVM_fragment, 256, 64)), !dbg !2439
  %128 = getelementptr i8, ptr %ptr, i64 16, !dbg !2440
  %raw.val.val.i.i284 = load ptr, ptr %128, align 8, !dbg !2440, !noundef !29
  %129 = getelementptr i8, ptr %ptr, i64 24, !dbg !2440
  %raw.val.val19.i.i285 = load ptr, ptr %129, align 8, !dbg !2440
  call void @llvm.lifetime.start.p0(i64 0, ptr nonnull %_2.i299), !dbg !2441
  call void @llvm.dbg.declare(metadata ptr undef, metadata !2034, metadata !DIExpression()), !dbg !2448
  call void @llvm.dbg.value(metadata ptr undef, metadata !2033, metadata !DIExpression(DW_OP_LLVM_fragment, 0, 64)), !dbg !2449
  call void @llvm.dbg.value(metadata ptr undef, metadata !2033, metadata !DIExpression(DW_OP_LLVM_fragment, 64, 64)), !dbg !2449
  call void @llvm.dbg.value(metadata ptr undef, metadata !2027, metadata !DIExpression(DW_OP_deref)), !dbg !2450
  call void @llvm.dbg.value(metadata ptr undef, metadata !2028, metadata !DIExpression(DW_OP_plus_uconst, 8, DW_OP_deref)), !dbg !2450
  call void @llvm.dbg.value(metadata ptr undef, metadata !2017, metadata !DIExpression()), !dbg !2451
  call void @llvm.dbg.value(metadata ptr undef, metadata !658, metadata !DIExpression()), !dbg !2452
  call void @llvm.dbg.value(metadata ptr undef, metadata !649, metadata !DIExpression()), !dbg !2453
  call void @llvm.dbg.value(metadata ptr undef, metadata !642, metadata !DIExpression()), !dbg !2454
  %130 = icmp eq ptr %raw.val.val.i.i284, null, !dbg !2441
  call void @__unsafe_record_block(i32 6, i32 7, i32 7, i16 2, i16 0, i16 1, i16 0, i16 2, i16 2), !dbg !2441
  br i1 %130, label %"_ZN10async_task3raw28RawTask$LT$F$C$T$C$S$C$M$GT$7destroy17hee0db9d7e7757924E.exit.i291", label %bb2.i.i.i.i.i.i.i286, !dbg !2441

bb2.i.i.i.i.i.i.i286:                             ; preds = %bb2.i283
  call void @llvm.dbg.value(metadata ptr undef, metadata !706, metadata !DIExpression()), !dbg !2455
  call void @llvm.dbg.value(metadata ptr undef, metadata !714, metadata !DIExpression()), !dbg !2457
  %131 = getelementptr inbounds i8, ptr %raw.val.val.i.i284, i64 24, !dbg !2459
  %_2.i.i.i.i.i.i.i.i.i287 = load ptr, ptr %131, align 8, !dbg !2459, !nonnull !29, !noundef !29
  call void @__unsafe_record_block(i32 6, i32 3, i32 0, i16 0, i16 0, i16 0, i16 0, i16 0, i16 0), !dbg !2459
  invoke void %_2.i.i.i.i.i.i.i.i.i287(ptr noundef %raw.val.val19.i.i285)
          to label %"_ZN10async_task3raw28RawTask$LT$F$C$T$C$S$C$M$GT$7destroy17hee0db9d7e7757924E.exit.i291" unwind label %cleanup.i.i.i288, !dbg !2459

cleanup.i.i.i288:                                 ; preds = %bb2.i.i.i.i.i.i.i286
  %132 = landingpad { ptr, i32 }
          cleanup
  call void @llvm.dbg.value(metadata ptr %_2.i299, metadata !725, metadata !DIExpression()), !dbg !2460
  call void @__unsafe_record_block(i32 6, i32 2, i32 0, i16 0, i16 0, i16 0, i16 0, i16 0, i16 0), !dbg !2462
; invoke <async_task::utils::abort_on_panic::Bomb as core::ops::drop::Drop>::drop
  invoke void @"_ZN81_$LT$async_task..utils..abort_on_panic..Bomb$u20$as$u20$core..ops..drop..Drop$GT$4drop17hbbde9adaede740a0E"(ptr noalias noundef nonnull align 1 %_2.i299)
          to label %bb106 unwind label %terminate.i.i.i289, !dbg !2462

terminate.i.i.i289:                               ; preds = %cleanup.i.i.i288
  %133 = landingpad { ptr, i32 }
          filter [0 x ptr] zeroinitializer
; call core::panicking::panic_in_cleanup
  call void @_ZN4core9panicking16panic_in_cleanup17h43442956f23e9cbeE() #20, !dbg !2463
  call void @__unsafe_record_block(i32 6, i32 3, i32 0, i16 0, i16 0, i16 0, i16 0, i16 0, i16 0), !dbg !2463
  unreachable, !dbg !2463

"_ZN10async_task3raw28RawTask$LT$F$C$T$C$S$C$M$GT$7destroy17hee0db9d7e7757924E.exit.i291": ; preds = %bb2.i.i.i.i.i.i.i286, %bb2.i283
  call void @llvm.lifetime.end.p0(i64 0, ptr nonnull %_2.i299), !dbg !2464
  call void @llvm.dbg.value(metadata ptr %ptr, metadata !2057, metadata !DIExpression()), !dbg !2465
  call void @llvm.dbg.value(metadata i64 8, metadata !2061, metadata !DIExpression(DW_OP_LLVM_fragment, 0, 64)), !dbg !2465
  call void @llvm.dbg.value(metadata i64 56, metadata !2061, metadata !DIExpression(DW_OP_LLVM_fragment, 64, 64)), !dbg !2465
  tail call void @__rust_dealloc(ptr noundef nonnull %ptr, i64 noundef 56, i64 noundef 8) #19, !dbg !2467, !unsafe_inst !531, !unsafe_line_info !751
  tail call void asm sideeffect "nop # marker_end", ""() #19, !dbg !2468
  tail call void asm sideeffect "nop # marker_end", ""() #19, !dbg !2469
  call void @__unsafe_record_block(i32 6, i32 3, i32 0, i16 0, i16 0, i16 0, i16 0, i16 0, i16 0), !dbg !2469
  br label %bb9, !dbg !2469, !unsafe_inst !531, !unsafe_line_info !2067

bb3.i282:                                         ; preds = %bb1.i280
  tail call void asm sideeffect "nop # marker_end", ""() #19, !dbg !2435
  call void @__unsafe_record_block(i32 6, i32 1, i32 0, i16 0, i16 0, i16 0, i16 0, i16 0, i16 0), !dbg !2435
  br label %bb9, !dbg !2435, !unsafe_inst !531, !unsafe_line_info !541

bb106:                                            ; preds = %cleanup.i300, %cleanup.i.i.i288
  %_123.sroa.0.1 = phi i1 [ true, %cleanup.i.i.i288 ], [ false, %cleanup.i300 ], !dbg !1410
  %.pn = phi { ptr, i32 } [ %132, %cleanup.i.i.i288 ], [ %136, %cleanup.i300 ]
  tail call void @llvm.dbg.value(metadata ptr %awaiter.sroa.0.0, metadata !1129, metadata !DIExpression(DW_OP_LLVM_fragment, 0, 64)), !dbg !1410
  tail call void @llvm.dbg.value(metadata ptr %awaiter.sroa.12.0, metadata !1129, metadata !DIExpression(DW_OP_LLVM_fragment, 64, 64)), !dbg !1410
  call void asm sideeffect "nop # marker_begin", ""() #19, !dbg !2470
  %.not = icmp eq ptr %awaiter.sroa.0.0, null, !dbg !2470
  call void asm sideeffect "nop # marker_end", ""() #19, !dbg !2470
  call void @__unsafe_record_block(i32 6, i32 4, i32 1, i16 0, i16 0, i16 0, i16 0, i16 0, i16 1), !dbg !2470
  br i1 %.not, label %bb78, label %bb104, !dbg !2470, !unsafe_inst !531, !unsafe_line_info !2471

bb5:                                              ; preds = %bb1.i273, %bb3
  %_0.sroa.0.1.i271 = phi ptr [ null, %bb3 ], [ %119, %bb1.i273 ], !dbg !2408
  %_0.sroa.4.1.i272 = phi ptr [ undef, %bb3 ], [ %spec.select321, %bb1.i273 ], !dbg !2408
  tail call void asm sideeffect "nop # marker_begin", ""() #19, !dbg !2472
  tail call void asm sideeffect "nop # marker_end", ""() #19, !dbg !2472
  call void @llvm.dbg.value(metadata ptr undef, metadata !642, metadata !DIExpression()), !dbg !2473
  tail call void asm sideeffect "nop # marker_begin", ""() #19, !dbg !2472
  tail call void @llvm.dbg.value(metadata ptr %_0.sroa.0.1.i271, metadata !1129, metadata !DIExpression(DW_OP_LLVM_fragment, 0, 64)), !dbg !1410
  tail call void @llvm.dbg.value(metadata ptr %_0.sroa.4.1.i272, metadata !1129, metadata !DIExpression(DW_OP_LLVM_fragment, 64, 64)), !dbg !1410
  tail call void asm sideeffect "nop # marker_end", ""() #19, !dbg !2475
  call void @__unsafe_record_block(i32 6, i32 3, i32 0, i16 0, i16 0, i16 0, i16 0, i16 0, i16 0), !dbg !2475
  br label %bb8, !dbg !2475, !unsafe_inst !531, !unsafe_line_info !1412

bb9:                                              ; preds = %bb3.i282, %"_ZN10async_task3raw28RawTask$LT$F$C$T$C$S$C$M$GT$7destroy17hee0db9d7e7757924E.exit.i291", %bb4.i279
  tail call void asm sideeffect "nop # marker_begin", ""() #19, !dbg !2476
  tail call void asm sideeffect "nop # marker_end", ""() #19, !dbg !2476
  tail call void asm sideeffect "nop # marker_begin", ""() #19, !dbg !2477
  %134 = icmp eq ptr %awaiter.sroa.0.0, null, !dbg !2477
  tail call void asm sideeffect "nop # marker_end", ""() #19, !dbg !2477
  tail call void asm sideeffect "nop # marker_begin", ""() #19, !dbg !1410
  tail call void asm sideeffect "nop # marker_end", ""() #19, !dbg !1409
  call void @__unsafe_record_block(i32 6, i32 2, i32 1, i16 0, i16 0, i16 0, i16 0, i16 0, i16 1), !dbg !2477
  br i1 %134, label %bb79, label %bb10, !dbg !2477

bb10:                                             ; preds = %bb9
  tail call void @llvm.dbg.value(metadata ptr %awaiter.sroa.0.0, metadata !1131, metadata !DIExpression(DW_OP_LLVM_fragment, 0, 64)), !dbg !2478
  tail call void @llvm.dbg.value(metadata ptr %awaiter.sroa.12.0, metadata !1131, metadata !DIExpression(DW_OP_LLVM_fragment, 64, 64)), !dbg !2478
  %135 = getelementptr i8, ptr %awaiter.sroa.0.0, i64 8, !dbg !2479
  %w.0111.val = load ptr, ptr %135, align 8, !dbg !2479, !nonnull !29, !noundef !29
  call void @llvm.lifetime.start.p0(i64 0, ptr nonnull %_2.i299)
  call void @llvm.dbg.declare(metadata ptr undef, metadata !2480, metadata !DIExpression()), !dbg !2494
  call void @llvm.dbg.value(metadata ptr undef, metadata !2489, metadata !DIExpression(DW_OP_LLVM_fragment, 0, 64)), !dbg !2496
  call void @llvm.dbg.value(metadata ptr %awaiter.sroa.12.0, metadata !2489, metadata !DIExpression(DW_OP_LLVM_fragment, 64, 64)), !dbg !2496
  call void @llvm.dbg.value(metadata ptr undef, metadata !2497, metadata !DIExpression(DW_OP_LLVM_fragment, 0, 64)), !dbg !2500
  call void @llvm.dbg.value(metadata ptr %awaiter.sroa.12.0, metadata !2497, metadata !DIExpression(DW_OP_LLVM_fragment, 64, 64)), !dbg !2500
  call void @llvm.dbg.value(metadata ptr undef, metadata !2502, metadata !DIExpression(DW_OP_LLVM_fragment, 0, 64)), !dbg !2510
  call void @llvm.dbg.value(metadata ptr %awaiter.sroa.12.0, metadata !2502, metadata !DIExpression(DW_OP_LLVM_fragment, 64, 64)), !dbg !2510
  call void @llvm.dbg.value(metadata ptr %w.0111.val, metadata !2506, metadata !DIExpression()), !dbg !2512
  call void @llvm.dbg.value(metadata ptr %awaiter.sroa.12.0, metadata !2508, metadata !DIExpression()), !dbg !2513
  call void @__unsafe_record_block(i32 6, i32 4, i32 0, i16 0, i16 0, i16 0, i16 0, i16 0, i16 0), !dbg !2514
  invoke void %w.0111.val(ptr noundef %awaiter.sroa.12.0)
          to label %bb11 unwind label %cleanup.i300, !dbg !2514

cleanup.i300:                                     ; preds = %bb10
  %136 = landingpad { ptr, i32 }
          cleanup
  call void @llvm.dbg.value(metadata ptr %_2.i299, metadata !725, metadata !DIExpression()), !dbg !2515
  call void @__unsafe_record_block(i32 6, i32 2, i32 0, i16 0, i16 0, i16 0, i16 0, i16 0, i16 0), !dbg !2517
; invoke <async_task::utils::abort_on_panic::Bomb as core::ops::drop::Drop>::drop
  invoke void @"_ZN81_$LT$async_task..utils..abort_on_panic..Bomb$u20$as$u20$core..ops..drop..Drop$GT$4drop17hbbde9adaede740a0E"(ptr noalias noundef nonnull align 1 %_2.i299)
          to label %bb106 unwind label %terminate.i301, !dbg !2517

terminate.i301:                                   ; preds = %cleanup.i300
  %137 = landingpad { ptr, i32 }
          filter [0 x ptr] zeroinitializer
; call core::panicking::panic_in_cleanup
  call void @_ZN4core9panicking16panic_in_cleanup17h43442956f23e9cbeE() #20, !dbg !2518
  call void @__unsafe_record_block(i32 6, i32 3, i32 0, i16 0, i16 0, i16 0, i16 0, i16 0, i16 0), !dbg !2518
  unreachable, !dbg !2518

bb11:                                             ; preds = %bb10
  call void @llvm.lifetime.end.p0(i64 0, ptr nonnull %_2.i299), !dbg !2519
  tail call void asm sideeffect "nop # marker_begin", ""() #19, !dbg !2520
  tail call void asm sideeffect "nop # marker_end", ""() #19, !dbg !2470
  call void @__unsafe_record_block(i32 6, i32 2, i32 0, i16 0, i16 0, i16 0, i16 0, i16 0, i16 0), !dbg !2470
  br label %bb79, !dbg !2470

bb79:                                             ; preds = %bb9, %bb11
  tail call void asm sideeffect "nop # marker_begin", ""() #19, !dbg !2470
  tail call void asm sideeffect "nop # marker_end", ""() #19, !dbg !2249
  call void @__unsafe_record_block(i32 6, i32 1, i32 0, i16 0, i16 0, i16 0, i16 0, i16 0, i16 0), !dbg !2249
  br label %bb77, !dbg !2249, !unsafe_inst !531, !unsafe_line_info !541

bb104:                                            ; preds = %bb106
  call void asm sideeffect "nop # marker_begin", ""() #19, !dbg !2470
  call void asm sideeffect "nop # marker_end", ""() #19, !dbg !2470
  call void @__unsafe_record_block(i32 6, i32 1, i32 0, i16 0, i16 0, i16 0, i16 0, i16 0, i16 0), !dbg !2470
  br i1 %_123.sroa.0.1, label %bb105, label %bb78, !dbg !2470, !unsafe_inst !531, !unsafe_line_info !2471

bb105:                                            ; preds = %bb104
  call void asm sideeffect "nop # marker_begin", ""() #19, !dbg !2470
  call void asm sideeffect "nop # marker_end", ""() #19, !dbg !2470
  call void @llvm.dbg.value(metadata ptr undef, metadata !706, metadata !DIExpression()), !dbg !2521
  call void @llvm.dbg.value(metadata ptr undef, metadata !714, metadata !DIExpression()), !dbg !2523
  %138 = getelementptr inbounds i8, ptr %awaiter.sroa.0.0, i64 24, !dbg !2525
  %_2.i.i307 = load ptr, ptr %138, align 8, !dbg !2525, !nonnull !29, !noundef !29
  call void @__unsafe_record_block(i32 6, i32 3, i32 0, i16 0, i16 0, i16 0, i16 0, i16 0, i16 0), !dbg !2525
  invoke void %_2.i.i307(ptr noundef %awaiter.sroa.12.0)
          to label %bb78 unwind label %terminate, !dbg !2525
}

; async_task::raw::RawTask<F,T,S,M>::run
; Function Attrs: nonlazybind uwtable
define internal noundef zeroext i1 @"_ZN10async_task3raw28RawTask$LT$F$C$T$C$S$C$M$GT$3run17hfffb3b48d98a1cbbE"(ptr noundef %ptr) unnamed_addr #1 personality ptr @rust_eh_personality !dbg !2526 !unsafe_count.func_id !2579 {
start:
  call void @__unsafe_record_function(i32 7)
  %_2.i299 = alloca [0 x i8], align 1
  tail call void asm sideeffect "nop # marker_begin", ""() #19
  tail call void @llvm.dbg.value(metadata i8 2, metadata !2580, metadata !DIExpression()), !dbg !2585
  tail call void @llvm.dbg.value(metadata i64 -2, metadata !2587, metadata !DIExpression()), !dbg !2593
  tail call void @llvm.dbg.value(metadata i8 3, metadata !2592, metadata !DIExpression()), !dbg !2593
  tail call void @llvm.dbg.value(metadata i64 -2, metadata !2595, metadata !DIExpression()), !dbg !2601
  tail call void @llvm.dbg.value(metadata i8 3, metadata !2600, metadata !DIExpression()), !dbg !2601
  tail call void @llvm.dbg.value(metadata i8 3, metadata !2603, metadata !DIExpression()), !dbg !2623
  tail call void @llvm.dbg.value(metadata i8 2, metadata !2610, metadata !DIExpression()), !dbg !2623
  call void @llvm.dbg.declare(metadata ptr undef, metadata !2625, metadata !DIExpression()), !dbg !2632
  tail call void @llvm.dbg.value(metadata i8 3, metadata !2615, metadata !DIExpression()), !dbg !2634
  tail call void @llvm.dbg.value(metadata i8 2, metadata !2616, metadata !DIExpression()), !dbg !2634
  tail call void @llvm.dbg.value(metadata i8 3, metadata !2621, metadata !DIExpression()), !dbg !2636
  tail call void @llvm.dbg.value(metadata i8 2, metadata !2622, metadata !DIExpression()), !dbg !2636
  tail call void @llvm.dbg.value(metadata ptr %ptr, metadata !2529, metadata !DIExpression()), !dbg !2638
  tail call void @llvm.dbg.value(metadata ptr %ptr, metadata !2639, metadata !DIExpression()), !dbg !2668
  tail call void @llvm.dbg.value(metadata ptr %ptr, metadata !2670, metadata !DIExpression()), !dbg !2685
  tail call void @llvm.dbg.value(metadata ptr %ptr, metadata !2677, metadata !DIExpression()), !dbg !2687
  tail call void @llvm.dbg.value(metadata ptr %ptr, metadata !2681, metadata !DIExpression()), !dbg !2689
  call void @llvm.dbg.declare(metadata ptr undef, metadata !2553, metadata !DIExpression()), !dbg !2691
  call void @llvm.dbg.declare(metadata ptr undef, metadata !2630, metadata !DIExpression()), !dbg !2692
  tail call void @llvm.dbg.value(metadata i64 poison, metadata !2646, metadata !DIExpression(DW_OP_LLVM_fragment, 64, 64)), !dbg !2693
  tail call void @llvm.dbg.value(metadata i64 poison, metadata !2646, metadata !DIExpression(DW_OP_LLVM_fragment, 0, 64)), !dbg !2693
  tail call void @llvm.dbg.value(metadata i64 40, metadata !2646, metadata !DIExpression(DW_OP_LLVM_fragment, 128, 64)), !dbg !2693
  tail call void @llvm.dbg.value(metadata i64 40, metadata !2694, metadata !DIExpression()), !dbg !2732
  tail call void @llvm.dbg.value(metadata i64 40, metadata !2646, metadata !DIExpression(DW_OP_LLVM_fragment, 192, 64)), !dbg !2693
  tail call void @llvm.dbg.value(metadata i64 40, metadata !2646, metadata !DIExpression(DW_OP_LLVM_fragment, 256, 64)), !dbg !2693
  tail call void @llvm.dbg.value(metadata ptr %ptr, metadata !2648, metadata !DIExpression()), !dbg !2734
  tail call void @llvm.dbg.value(metadata ptr %ptr, metadata !2698, metadata !DIExpression()), !dbg !2732
  %_140 = getelementptr inbounds i8, ptr %ptr, i64 40, !dbg !2735, !unsafe_inst !531, !unsafe_line_info !825
  tail call void @llvm.dbg.value(metadata ptr %_140, metadata !2736, metadata !DIExpression()), !dbg !2741
  tail call void @llvm.dbg.value(metadata ptr %_140, metadata !2743, metadata !DIExpression()), !dbg !2748
  tail call void @llvm.dbg.value(metadata ptr %ptr, metadata !2530, metadata !DIExpression(DW_OP_LLVM_fragment, 0, 64)), !dbg !2750
  tail call void @llvm.dbg.value(metadata ptr %_140, metadata !2530, metadata !DIExpression(DW_OP_LLVM_fragment, 64, 64)), !dbg !2750
  tail call void @llvm.dbg.value(metadata ptr %_140, metadata !2530, metadata !DIExpression(DW_OP_LLVM_fragment, 128, 64)), !dbg !2750
  tail call void @llvm.dbg.value(metadata ptr %_140, metadata !2530, metadata !DIExpression(DW_OP_LLVM_fragment, 192, 64)), !dbg !2750
  tail call void @llvm.dbg.value(metadata ptr @alloc_58433f55ee525f5b690e1c8c423c90c8, metadata !2532, metadata !DIExpression(DW_OP_LLVM_fragment, 0, 64)), !dbg !2751
  tail call void @llvm.dbg.value(metadata ptr %ptr, metadata !2532, metadata !DIExpression(DW_OP_LLVM_fragment, 64, 64)), !dbg !2751
  tail call void @llvm.dbg.value(metadata ptr undef, metadata !2534, metadata !DIExpression()), !dbg !2752
  tail call void @llvm.dbg.value(metadata ptr %ptr, metadata !2584, metadata !DIExpression(DW_OP_plus_uconst, 8, DW_OP_stack_value)), !dbg !2585
  tail call void @llvm.dbg.value(metadata ptr %ptr, metadata !2753, metadata !DIExpression(DW_OP_plus_uconst, 8, DW_OP_stack_value)), !dbg !2765
  %_148 = getelementptr inbounds i8, ptr %ptr, i64 8, !dbg !2767, !unsafe_inst !531, !unsafe_line_info !532
  tail call void @llvm.dbg.value(metadata i8 2, metadata !997, metadata !DIExpression()), !dbg !2768
  tail call void @llvm.dbg.value(metadata ptr %_148, metadata !1003, metadata !DIExpression()), !dbg !2768
  %0 = load atomic i64, ptr %_148 acquire, align 8, !dbg !2770
  tail call void @llvm.dbg.value(metadata i64 %0, metadata !2536, metadata !DIExpression()), !dbg !2771
  tail call void asm sideeffect "nop # marker_end", ""() #19, !dbg !2772
  tail call void @llvm.dbg.value(metadata i64 %0, metadata !2536, metadata !DIExpression()), !dbg !2771
  tail call void asm sideeffect "nop # marker_begin", ""() #19, !dbg !2773
  %_12323 = and i64 %0, 8, !dbg !2773, !unsafe_inst !531, !unsafe_line_info !1398
  %1 = icmp eq i64 %_12323, 0, !dbg !2773, !unsafe_inst !531, !unsafe_line_info !1398
  tail call void asm sideeffect "nop # marker_end", ""() #19, !dbg !2773
  call void @__unsafe_record_block(i32 7, i32 8, i32 5, i16 1, i16 0, i16 0, i16 0, i16 2, i16 2), !dbg !2773
  br i1 %1, label %bb13, label %bb2, !dbg !2773, !unsafe_inst !531, !unsafe_line_info !1398

bb13:                                             ; preds = %start, %bb15
  %state.sroa.0.0324 = phi i64 [ %9, %bb15 ], [ %0, %start ]
  tail call void @llvm.dbg.value(metadata i64 %state.sroa.0.0324, metadata !2536, metadata !DIExpression()), !dbg !2771
  tail call void asm sideeffect "nop # marker_begin", ""() #19, !dbg !2774
  tail call void @llvm.dbg.value(metadata ptr %ptr, metadata !2607, metadata !DIExpression(DW_OP_plus_uconst, 8, DW_OP_stack_value)), !dbg !2623
  tail call void @llvm.dbg.value(metadata i64 %state.sroa.0.0324, metadata !2608, metadata !DIExpression()), !dbg !2623
  %_30 = and i64 %state.sroa.0.0324, -12, !dbg !2775, !unsafe_inst !531, !unsafe_line_info !1401
  %new31 = or disjoint i64 %_30, 2, !dbg !2775, !unsafe_inst !531, !unsafe_line_info !1401
  tail call void @llvm.dbg.value(metadata i64 %_30, metadata !2609, metadata !DIExpression(DW_OP_constu, 2, DW_OP_or, DW_OP_stack_value)), !dbg !2623
  tail call void @llvm.dbg.value(metadata i8 3, metadata !1020, metadata !DIExpression()), !dbg !2776
  tail call void @llvm.dbg.value(metadata i8 2, metadata !1028, metadata !DIExpression()), !dbg !2776
  tail call void @llvm.dbg.value(metadata ptr %_148, metadata !1025, metadata !DIExpression()), !dbg !2776
  tail call void @llvm.dbg.value(metadata i64 %state.sroa.0.0324, metadata !1026, metadata !DIExpression()), !dbg !2776
  tail call void @llvm.dbg.value(metadata i64 %_30, metadata !1027, metadata !DIExpression(DW_OP_constu, 2, DW_OP_or, DW_OP_stack_value)), !dbg !2776
  %2 = cmpxchg weak ptr %_148, i64 %state.sroa.0.0324, i64 %new31 acq_rel acquire, align 8, !dbg !2778
  %3 = extractvalue { i64, i1 } %2, 1, !dbg !2778
  tail call void asm sideeffect "nop # marker_end", ""() #19, !dbg !2779
  call void @__unsafe_record_block(i32 7, i32 6, i32 4, i16 0, i16 1, i16 0, i16 0, i16 0, i16 3), !dbg !2779
  br i1 %3, label %bb16, label %bb15, !dbg !2779

bb2:                                              ; preds = %bb15, %start
  tail call void asm sideeffect "nop # marker_begin", ""() #19, !dbg !2780
  tail call void @llvm.dbg.value(metadata ptr %ptr, metadata !2591, metadata !DIExpression(DW_OP_plus_uconst, 8, DW_OP_stack_value)), !dbg !2593
  tail call void @llvm.dbg.value(metadata ptr %_148, metadata !2599, metadata !DIExpression()), !dbg !2601
  %4 = atomicrmw and ptr %_148, i64 -2 acq_rel, align 8, !dbg !2781, !unsafe_inst !531, !unsafe_line_info !1408
  tail call void @llvm.dbg.value(metadata i64 %4, metadata !2538, metadata !DIExpression()), !dbg !2782
  tail call void @llvm.dbg.value(metadata ptr null, metadata !2540, metadata !DIExpression(DW_OP_LLVM_fragment, 0, 64)), !dbg !2783
  %_18 = and i64 %4, 32, !dbg !2784, !unsafe_inst !531, !unsafe_line_info !1412
  %5 = icmp eq i64 %_18, 0, !dbg !2784, !unsafe_inst !531, !unsafe_line_info !1412
  tail call void asm sideeffect "nop # marker_end", ""() #19, !dbg !2784
  tail call void asm sideeffect "nop # marker_begin", ""() #19, !dbg !2783
  tail call void asm sideeffect "nop # marker_end", ""() #19, !dbg !2783
  call void @__unsafe_record_block(i32 7, i32 4, i32 3, i16 0, i16 1, i16 0, i16 0, i16 0, i16 2), !dbg !2784
  br i1 %5, label %bb8, label %bb3, !dbg !2784, !unsafe_inst !531, !unsafe_line_info !1412

bb16:                                             ; preds = %bb13
  tail call void asm sideeffect "nop # marker_begin", ""() #19, !dbg !2785
  tail call void @llvm.dbg.value(metadata i64 %_30, metadata !2536, metadata !DIExpression(DW_OP_constu, 2, DW_OP_or, DW_OP_stack_value)), !dbg !2771
  tail call void @llvm.dbg.value(metadata ptr %ptr, metadata !2546, metadata !DIExpression(DW_OP_LLVM_fragment, 0, 64)), !dbg !2786
  tail call void @llvm.dbg.value(metadata ptr %_140, metadata !2546, metadata !DIExpression(DW_OP_LLVM_fragment, 64, 64)), !dbg !2786
  tail call void @llvm.dbg.value(metadata ptr %_140, metadata !2546, metadata !DIExpression(DW_OP_LLVM_fragment, 128, 64)), !dbg !2786
  tail call void @llvm.dbg.value(metadata ptr %_140, metadata !2546, metadata !DIExpression(DW_OP_LLVM_fragment, 192, 64)), !dbg !2786
  %6 = getelementptr inbounds i8, ptr %ptr, i64 32, !dbg !2787, !unsafe_inst !531, !unsafe_line_info !1416
  %7 = load i8, ptr %6, align 8, !dbg !2787, !range !1417, !noundef !29, !unsafe_inst !531, !unsafe_line_info !1416
  %_38.not = icmp eq i8 %7, 0, !dbg !2787
  tail call void asm sideeffect "nop # marker_end", ""() #19, !dbg !2787
  tail call void asm sideeffect "nop # marker_begin", ""() #19, !dbg !2786
  tail call void asm sideeffect "nop # marker_end", ""() #19, !dbg !2786
  %8 = load i8, ptr %_140, align 1, !dbg !2786, !range !1418, !noundef !29
  %switch.i = icmp eq i8 %8, 0, !dbg !2786
  call void @__unsafe_record_block(i32 7, i32 6, i32 3, i16 1, i16 0, i16 0, i16 0, i16 1, i16 1), !dbg !2787
  br i1 %_38.not, label %bb18, label %bb17, !dbg !2787, !unsafe_inst !531, !unsafe_line_info !1416

bb15:                                             ; preds = %bb13
  %9 = extractvalue { i64, i1 } %2, 0, !dbg !2778
  tail call void asm sideeffect "nop # marker_begin", ""() #19, !dbg !2788
  tail call void @llvm.dbg.value(metadata i64 %9, metadata !2536, metadata !DIExpression()), !dbg !2771
  tail call void asm sideeffect "nop # marker_end", ""() #19, !dbg !2772
  tail call void asm sideeffect "nop # marker_begin", ""() #19, !dbg !2773
  %_12 = and i64 %9, 8, !dbg !2773, !unsafe_inst !531, !unsafe_line_info !1398
  %10 = icmp eq i64 %_12, 0, !dbg !2773, !unsafe_inst !531, !unsafe_line_info !1398
  tail call void asm sideeffect "nop # marker_end", ""() #19, !dbg !2773
  call void @__unsafe_record_block(i32 7, i32 4, i32 2, i16 0, i16 0, i16 0, i16 0, i16 0, i16 2), !dbg !2773
  br i1 %10, label %bb13, label %bb2, !dbg !2773, !unsafe_inst !531, !unsafe_line_info !1398

bb18:                                             ; preds = %bb16
  call void @llvm.dbg.value(metadata ptr %_140, metadata !2789, metadata !DIExpression()), !dbg !2801
  call void @llvm.dbg.value(metadata ptr undef, metadata !2800, metadata !DIExpression()), !dbg !2801
  call void @__unsafe_record_block(i32 7, i32 1, i32 0, i16 0, i16 0, i16 0, i16 0, i16 0, i16 0), !dbg !2803
  br i1 %switch.i, label %bb115, label %panic.i, !dbg !2803

panic.i:                                          ; preds = %bb18
  call void @__unsafe_record_block(i32 7, i32 1, i32 0, i16 0, i16 0, i16 0, i16 0, i16 0, i16 0), !dbg !2803
; invoke core::panicking::panic_const::panic_const_async_fn_resumed
  invoke void @_ZN4core9panicking11panic_const28panic_const_async_fn_resumed17hb36b4da0d6ec92b0E(ptr noalias noundef nonnull readonly align 8 dereferenceable(24) @alloc_d2e1eb24d5504b2e1af19729d46ee3fa) #21
          to label %.noexc unwind label %cleanup, !dbg !2803

.noexc:                                           ; preds = %panic.i
  call void @__unsafe_record_block(i32 7, i32 1, i32 0, i16 0, i16 0, i16 0, i16 0, i16 0, i16 0), !dbg !2803
  unreachable, !dbg !2803

bb17:                                             ; preds = %bb16
  tail call void @llvm.dbg.value(metadata ptr undef, metadata !2804, metadata !DIExpression(DW_OP_LLVM_fragment, 0, 64)), !dbg !2822
  tail call void @llvm.dbg.value(metadata ptr undef, metadata !2804, metadata !DIExpression(DW_OP_LLVM_fragment, 64, 64)), !dbg !2822
  call void @llvm.dbg.value(metadata ptr undef, metadata !2824, metadata !DIExpression(DW_OP_LLVM_fragment, 0, 64)), !dbg !2842
  call void @llvm.dbg.value(metadata ptr undef, metadata !2824, metadata !DIExpression(DW_OP_LLVM_fragment, 64, 64)), !dbg !2842
  call void @llvm.dbg.value(metadata ptr undef, metadata !2827, metadata !DIExpression(DW_OP_LLVM_fragment, 0, 64)), !dbg !2844
  call void @llvm.dbg.value(metadata ptr undef, metadata !2827, metadata !DIExpression(DW_OP_LLVM_fragment, 64, 64)), !dbg !2844
  call void @llvm.dbg.value(metadata ptr undef, metadata !2839, metadata !DIExpression()), !dbg !2845
  call void @llvm.dbg.value(metadata ptr undef, metadata !2846, metadata !DIExpression()), !dbg !2856
  call void @llvm.dbg.value(metadata ptr undef, metadata !2849, metadata !DIExpression()), !dbg !2858
  call void @llvm.dbg.value(metadata ptr undef, metadata !2852, metadata !DIExpression()), !dbg !2859
  call void @llvm.dbg.value(metadata ptr undef, metadata !2854, metadata !DIExpression(DW_OP_LLVM_fragment, 0, 64)), !dbg !2860
  call void @llvm.dbg.value(metadata ptr poison, metadata !2854, metadata !DIExpression(DW_OP_LLVM_fragment, 64, 64)), !dbg !2860
  call void @llvm.dbg.declare(metadata ptr undef, metadata !2861, metadata !DIExpression()), !dbg !2870
  call void @llvm.dbg.value(metadata ptr undef, metadata !2866, metadata !DIExpression(DW_OP_LLVM_fragment, 0, 64)), !dbg !2872
  call void @llvm.dbg.value(metadata ptr undef, metadata !2866, metadata !DIExpression(DW_OP_LLVM_fragment, 64, 64)), !dbg !2872
  call void @llvm.dbg.declare(metadata ptr undef, metadata !2867, metadata !DIExpression()), !dbg !2870
  call void @llvm.dbg.value(metadata ptr undef, metadata !2873, metadata !DIExpression(DW_OP_LLVM_fragment, 0, 64)), !dbg !2881
  call void @llvm.dbg.value(metadata ptr undef, metadata !2873, metadata !DIExpression(DW_OP_LLVM_fragment, 64, 64)), !dbg !2881
  call void @llvm.dbg.declare(metadata ptr undef, metadata !2878, metadata !DIExpression()), !dbg !2883
  call void @llvm.dbg.value(metadata ptr undef, metadata !2884, metadata !DIExpression(DW_OP_deref, DW_OP_deref)), !dbg !2891
  call void @llvm.dbg.value(metadata ptr undef, metadata !2890, metadata !DIExpression(DW_OP_deref, DW_OP_plus_uconst, 8, DW_OP_deref)), !dbg !2891
  call void @llvm.dbg.value(metadata ptr %_140, metadata !2789, metadata !DIExpression()), !dbg !2893
  call void @llvm.dbg.value(metadata ptr undef, metadata !2800, metadata !DIExpression()), !dbg !2893
  call void @__unsafe_record_block(i32 7, i32 1, i32 0, i16 0, i16 0, i16 0, i16 0, i16 0, i16 0), !dbg !2895
  br i1 %switch.i, label %bb2.i, label %panic.i.i.i.i.i.i, !dbg !2895

panic.i.i.i.i.i.i:                                ; preds = %bb17
  call void @__unsafe_record_block(i32 7, i32 1, i32 0, i16 0, i16 0, i16 0, i16 0, i16 0, i16 0), !dbg !2895
; invoke core::panicking::panic_const::panic_const_async_fn_resumed
  invoke void @_ZN4core9panicking11panic_const28panic_const_async_fn_resumed17hb36b4da0d6ec92b0E(ptr noalias noundef nonnull readonly align 8 dereferenceable(24) @alloc_d2e1eb24d5504b2e1af19729d46ee3fa) #21
          to label %.noexc.i unwind label %catch.i.i, !dbg !2895, !noalias !2896

.noexc.i:                                         ; preds = %panic.i.i.i.i.i.i
  call void @__unsafe_record_block(i32 7, i32 1, i32 0, i16 0, i16 0, i16 0, i16 0, i16 0, i16 0), !dbg !2895
  unreachable, !dbg !2895

catch.i.i:                                        ; preds = %panic.i.i.i.i.i.i
  %11 = landingpad { ptr, i32 }
          cleanup
          catch ptr null, !dbg !2900
  %12 = extractvalue { ptr, i32 } %11, 0, !dbg !2900
  call void @llvm.dbg.value(metadata ptr undef, metadata !2901, metadata !DIExpression()), !dbg !2911
  call void @llvm.dbg.value(metadata ptr %12, metadata !2904, metadata !DIExpression()), !dbg !2911
  call void @llvm.dbg.value(metadata ptr undef, metadata !2905, metadata !DIExpression()), !dbg !2913
  call void @llvm.dbg.value(metadata ptr undef, metadata !2907, metadata !DIExpression()), !dbg !2914
  call void @__unsafe_record_block(i32 7, i32 3, i32 0, i16 0, i16 0, i16 0, i16 0, i16 0, i16 0), !dbg !2915
; invoke std::panicking::try::cleanup
  %13 = invoke { ptr, ptr } @_ZN3std9panicking3try7cleanup17hd6ade9b987c70092E(ptr noundef %12)
          to label %bb3.i unwind label %terminate.i.i, !dbg !2915

terminate.i.i:                                    ; preds = %catch.i.i
  %14 = landingpad { ptr, i32 }
          filter [0 x ptr] zeroinitializer
; call core::panicking::panic_cannot_unwind
  tail call void @_ZN4core9panicking19panic_cannot_unwind17h3f96c9c07954d1a5E() #20, !dbg !2916, !noalias !2896
  call void @__unsafe_record_block(i32 7, i32 3, i32 0, i16 0, i16 0, i16 0, i16 0, i16 0, i16 0), !dbg !2916
  unreachable, !dbg !2916

bb2.i:                                            ; preds = %bb17
  store i8 1, ptr %_140, align 1, !dbg !2917, !noalias !2918
  call void @llvm.dbg.value(metadata ptr poison, metadata !2827, metadata !DIExpression(DW_OP_LLVM_fragment, 64, 64)), !dbg !2844
  call void @llvm.dbg.value(metadata i64 undef, metadata !2827, metadata !DIExpression(DW_OP_constu, 18446744073709551360, DW_OP_and, DW_OP_stack_value, DW_OP_LLVM_fragment, 0, 64)), !dbg !2844
  call void @__unsafe_record_block(i32 7, i32 2, i32 0, i16 0, i16 0, i16 0, i16 0, i16 0, i16 0), !dbg !2921
  br label %bb111, !dbg !2921

bb3.i:                                            ; preds = %catch.i.i
  %obj.0.i.i = extractvalue { ptr, ptr } %13, 0, !dbg !2915
  %obj.1.i.i = extractvalue { ptr, ptr } %13, 1, !dbg !2915
  call void @llvm.dbg.value(metadata ptr %obj.0.i.i, metadata !2827, metadata !DIExpression(DW_OP_LLVM_fragment, 0, 64)), !dbg !2844
  call void @llvm.dbg.value(metadata ptr %obj.1.i.i, metadata !2827, metadata !DIExpression(DW_OP_LLVM_fragment, 64, 64)), !dbg !2844
  %15 = icmp ne ptr %obj.0.i.i, null
  tail call void @llvm.assume(i1 %15)
  call void @__unsafe_record_block(i32 7, i32 5, i32 0, i16 0, i16 0, i16 0, i16 0, i16 0, i16 0), !dbg !2921
  br label %bb111, !dbg !2921

bb103:                                            ; preds = %bb99, %bb101, %cleanup
  %_128.sroa.0.0 = phi i1 [ false, %bb99 ], [ false, %bb101 ], [ true, %cleanup ], !dbg !2771
  %.pn144.pn = phi { ptr, i32 } [ %.pn144, %bb99 ], [ %.pn144, %bb101 ], [ %16, %cleanup ]
  call void asm sideeffect "nop # marker_begin", ""() #19, !dbg !2922
  call void asm sideeffect "nop # marker_end", ""() #19, !dbg !2922
  call void @__unsafe_record_block(i32 7, i32 3, i32 0, i16 0, i16 0, i16 0, i16 0, i16 0, i16 0), !dbg !2922
  br i1 %_128.sroa.0.0, label %bb102, label %bb78, !dbg !2922, !unsafe_inst !531, !unsafe_line_info !1593

cleanup:                                          ; preds = %panic.i
  %16 = landingpad { ptr, i32 }
          cleanup
  call void @__unsafe_record_block(i32 7, i32 2, i32 0, i16 0, i16 0, i16 0, i16 0, i16 0, i16 0)
  br label %bb103

bb115:                                            ; preds = %bb18
  store i8 1, ptr %_140, align 1, !dbg !2923
  tail call void @llvm.dbg.value(metadata i8 0, metadata !2629, metadata !DIExpression()), !dbg !2924
  tail call void asm sideeffect "nop # marker_begin", ""() #19, !dbg !2925
  tail call void asm sideeffect "nop # marker_end", ""() #19, !dbg !2926
  tail call void asm sideeffect "nop # marker_begin", ""() #19, !dbg !2927
  tail call void asm sideeffect "nop # marker_end", ""() #19, !dbg !2927
  tail call void asm sideeffect "nop # marker_begin", ""() #19, !dbg !2928
  tail call void @llvm.dbg.value(metadata ptr null, metadata !2551, metadata !DIExpression(DW_OP_LLVM_fragment, 64, 64)), !dbg !2929
  tail call void @llvm.dbg.value(metadata i64 0, metadata !2551, metadata !DIExpression(DW_OP_LLVM_fragment, 0, 64)), !dbg !2929
  tail call void asm sideeffect "nop # marker_end", ""() #19, !dbg !2930
  tail call void asm sideeffect "nop # marker_begin", ""() #19, !dbg !2931
  tail call void asm sideeffect "nop # marker_end", ""() #19, !dbg !2932
  call void @__unsafe_record_block(i32 7, i32 2, i32 0, i16 0, i16 0, i16 0, i16 0, i16 0, i16 0), !dbg !2932
  br label %bb24, !dbg !2932, !unsafe_inst !531, !unsafe_line_info !1416

bb24:                                             ; preds = %bb82, %bb115
  %poll.sroa.0.0 = phi i64 [ 0, %bb115 ], [ %poll.sroa.0.1, %bb82 ], !dbg !2786
  %poll.sroa.8.0 = phi ptr [ null, %bb115 ], [ %poll.sroa.8.1, %bb82 ], !dbg !2786
  %poll.sroa.13.0 = phi ptr [ undef, %bb115 ], [ %_39.sroa.6.0, %bb82 ]
  tail call void @llvm.dbg.value(metadata ptr %poll.sroa.13.0, metadata !2551, metadata !DIExpression(DW_OP_LLVM_fragment, 128, 64)), !dbg !2929
  tail call void @llvm.dbg.value(metadata ptr %poll.sroa.8.0, metadata !2551, metadata !DIExpression(DW_OP_LLVM_fragment, 64, 64)), !dbg !2929
  tail call void @llvm.dbg.value(metadata i64 %poll.sroa.0.0, metadata !2551, metadata !DIExpression(DW_OP_LLVM_fragment, 0, 64)), !dbg !2929
  tail call void asm sideeffect "nop # marker_begin", ""() #19, !dbg !2933
  tail call void asm sideeffect "nop # marker_end", ""() #19, !dbg !2934
  %trunc135.not = icmp eq i64 %poll.sroa.0.0, 0, !dbg !2934
  tail call void asm sideeffect "nop # marker_begin", ""() #19, !dbg !2929
  tail call void asm sideeffect "nop # marker_end", ""() #19, !dbg !2929
  call void @__unsafe_record_block(i32 7, i32 5, i32 0, i16 0, i16 0, i16 0, i16 0, i16 0, i16 0), !dbg !2934
  br i1 %trunc135.not, label %bb116, label %bb50, !dbg !2934

bb111:                                            ; preds = %bb3.i, %bb2.i
  %_39.sroa.0.0 = phi ptr [ null, %bb2.i ], [ %obj.0.i.i, %bb3.i ], !dbg !2845
  %_39.sroa.6.0 = phi ptr [ null, %bb2.i ], [ %obj.1.i.i, %bb3.i ], !dbg !2845
  tail call void asm sideeffect "nop # marker_begin", ""() #19, !dbg !2823
  %17 = icmp eq ptr %_39.sroa.0.0, null, !dbg !2823
  tail call void asm sideeffect "nop # marker_end", ""() #19, !dbg !2935
  tail call void asm sideeffect "nop # marker_begin", ""() #19, !dbg !2786
  call void @__unsafe_record_block(i32 7, i32 4, i32 2, i16 0, i16 0, i16 0, i16 0, i16 0, i16 2), !dbg !2935
  br i1 %17, label %bb19, label %bb20, !dbg !2935

bb19:                                             ; preds = %bb111
  %18 = ptrtoint ptr %_39.sroa.6.0 to i64, !dbg !2823
  tail call void asm sideeffect "nop # marker_end", ""() #19, !dbg !2935
  %19 = and i64 %18, 255, !dbg !2935
  %trunc.not = icmp ne i64 %19, 0, !dbg !2935
  tail call void asm sideeffect "nop # marker_begin", ""() #19, !dbg !2786
  tail call void asm sideeffect "nop # marker_end", ""() #19, !dbg !2786
  %. = zext i1 %trunc.not to i64, !dbg !2786
  call void @__unsafe_record_block(i32 7, i32 5, i32 0, i16 0, i16 0, i16 0, i16 0, i16 0, i16 0), !dbg !2786
  br label %bb82, !dbg !2786, !unsafe_inst !531, !unsafe_line_info !1607

bb20:                                             ; preds = %bb111
  %20 = icmp ne ptr %_39.sroa.6.0, null
  tail call void @llvm.assume(i1 %20)
  tail call void @llvm.dbg.value(metadata ptr %_39.sroa.0.0, metadata !2551, metadata !DIExpression(DW_OP_LLVM_fragment, 64, 64)), !dbg !2929
  tail call void @llvm.dbg.value(metadata ptr %_39.sroa.6.0, metadata !2551, metadata !DIExpression(DW_OP_LLVM_fragment, 128, 64)), !dbg !2929
  tail call void @llvm.dbg.value(metadata i64 0, metadata !2551, metadata !DIExpression(DW_OP_LLVM_fragment, 0, 64)), !dbg !2929
  tail call void asm sideeffect "nop # marker_end", ""() #19, !dbg !2936
  call void @__unsafe_record_block(i32 7, i32 3, i32 0, i16 0, i16 0, i16 0, i16 0, i16 0, i16 0), !dbg !2936
  br label %bb82, !dbg !2936, !unsafe_inst !531, !unsafe_line_info !1609

bb82:                                             ; preds = %bb19, %bb20
  %poll.sroa.0.1 = phi i64 [ 0, %bb20 ], [ %., %bb19 ], !dbg !2786
  %poll.sroa.8.1 = phi ptr [ %_39.sroa.0.0, %bb20 ], [ null, %bb19 ]
  tail call void @llvm.dbg.value(metadata ptr %_39.sroa.6.0, metadata !2551, metadata !DIExpression(DW_OP_LLVM_fragment, 128, 64)), !dbg !2929
  tail call void @llvm.dbg.value(metadata ptr %poll.sroa.8.1, metadata !2551, metadata !DIExpression(DW_OP_LLVM_fragment, 64, 64)), !dbg !2929
  tail call void @llvm.dbg.value(metadata i64 %poll.sroa.0.1, metadata !2551, metadata !DIExpression(DW_OP_LLVM_fragment, 0, 64)), !dbg !2929
  tail call void asm sideeffect "nop # marker_begin", ""() #19, !dbg !2937
  tail call void asm sideeffect "nop # marker_end", ""() #19, !dbg !2932
  call void @__unsafe_record_block(i32 7, i32 3, i32 0, i16 0, i16 0, i16 0, i16 0, i16 0, i16 0), !dbg !2932
  br label %bb24, !dbg !2932, !unsafe_inst !531, !unsafe_line_info !1416

bb98:                                             ; preds = %bb95, %cleanup.body.i, %bb94, %bb96
  %.pn142 = phi { ptr, i32 } [ %.pn139, %bb94 ], [ %.pn139, %bb96 ], [ %42, %cleanup.body.i ], [ %.pn139, %bb95 ]
  call void asm sideeffect "nop # marker_begin", ""() #19, !dbg !2938
  call void asm sideeffect "nop # marker_end", ""() #19, !dbg !2938
  call void @__unsafe_record_block(i32 7, i32 2, i32 0, i16 0, i16 0, i16 0, i16 0, i16 0, i16 0), !dbg !2938
  br label %bb101, !dbg !2938

bb116:                                            ; preds = %bb24
  tail call void @llvm.dbg.value(metadata ptr %poll.sroa.8.0, metadata !2557, metadata !DIExpression(DW_OP_LLVM_fragment, 0, 64)), !dbg !2939
  tail call void @llvm.dbg.value(metadata ptr %poll.sroa.13.0, metadata !2557, metadata !DIExpression(DW_OP_LLVM_fragment, 64, 64)), !dbg !2939
  tail call void @llvm.dbg.value(metadata ptr %ptr, metadata !2679, metadata !DIExpression(DW_OP_LLVM_fragment, 0, 64)), !dbg !2940
  tail call void @llvm.dbg.value(metadata ptr %_140, metadata !2679, metadata !DIExpression(DW_OP_LLVM_fragment, 64, 64)), !dbg !2940
  tail call void @llvm.dbg.value(metadata ptr %_140, metadata !2679, metadata !DIExpression(DW_OP_LLVM_fragment, 128, 64)), !dbg !2940
  tail call void @llvm.dbg.value(metadata ptr %_140, metadata !2679, metadata !DIExpression(DW_OP_LLVM_fragment, 192, 64)), !dbg !2940
  tail call void asm sideeffect "nop # marker_begin", ""() #19, !dbg !2941
  tail call void @llvm.dbg.value(metadata ptr %poll.sroa.8.0, metadata !2740, metadata !DIExpression(DW_OP_LLVM_fragment, 0, 64)), !dbg !2741
  tail call void @llvm.dbg.value(metadata ptr %poll.sroa.8.0, metadata !2747, metadata !DIExpression(DW_OP_LLVM_fragment, 0, 64)), !dbg !2748
  tail call void @llvm.dbg.value(metadata ptr %poll.sroa.13.0, metadata !2740, metadata !DIExpression(DW_OP_LLVM_fragment, 64, 64)), !dbg !2741
  tail call void @llvm.dbg.value(metadata ptr %poll.sroa.13.0, metadata !2747, metadata !DIExpression(DW_OP_LLVM_fragment, 64, 64)), !dbg !2748
  store ptr %poll.sroa.8.0, ptr %_140, align 8, !dbg !2942, !unsafe_inst !531, !unsafe_line_info !1616
  %21 = getelementptr i8, ptr %ptr, i64 48, !dbg !2942
  store ptr %poll.sroa.13.0, ptr %21, align 8, !dbg !2942, !unsafe_inst !531, !unsafe_line_info !1616
  tail call void asm sideeffect "nop # marker_end", ""() #19, !dbg !2943
  tail call void @llvm.dbg.value(metadata i64 %_30, metadata !2536, metadata !DIExpression(DW_OP_constu, 2, DW_OP_or, DW_OP_stack_value)), !dbg !2771
  tail call void asm sideeffect "nop # marker_begin", ""() #19, !dbg !2944
  %_59337 = and i64 %state.sroa.0.0324, 16, !dbg !2945, !unsafe_inst !531, !unsafe_line_info !1620
  %22 = icmp eq i64 %_59337, 0, !dbg !2945, !unsafe_inst !531, !unsafe_line_info !1620
  tail call void asm sideeffect "nop # marker_end", ""() #19, !dbg !2945
  tail call void asm sideeffect "nop # marker_begin", ""() #19, !dbg !2939
  tail call void asm sideeffect "nop # marker_end", ""() #19, !dbg !2946
  tail call void @llvm.dbg.value(metadata i64 %23, metadata !2559, metadata !DIExpression()), !dbg !2947
  tail call void @llvm.dbg.value(metadata i64 %23, metadata !2559, metadata !DIExpression()), !dbg !2947
  %.332338 = select i1 %22, i64 -32, i64 -8, !dbg !2946
  %.333339 = select i1 %22, i64 12, i64 4, !dbg !2946
  %_62340 = and i64 %_30, %.332338, !dbg !2939
  %23 = or disjoint i64 %_62340, %.333339, !dbg !2939
  tail call void @llvm.dbg.value(metadata i64 %23, metadata !2559, metadata !DIExpression()), !dbg !2947
  tail call void asm sideeffect "nop # marker_begin", ""() #19, !dbg !2948
  tail call void @llvm.dbg.value(metadata ptr %ptr, metadata !2611, metadata !DIExpression(DW_OP_plus_uconst, 8, DW_OP_stack_value)), !dbg !2634
  tail call void @llvm.dbg.value(metadata i64 %_30, metadata !2613, metadata !DIExpression(DW_OP_constu, 2, DW_OP_or, DW_OP_stack_value)), !dbg !2634
  tail call void @llvm.dbg.value(metadata i64 %23, metadata !2614, metadata !DIExpression()), !dbg !2634
  tail call void asm sideeffect "nop # marker_end", ""() #19, !dbg !2949
  tail call void @llvm.dbg.value(metadata i8 3, metadata !1020, metadata !DIExpression()), !dbg !2950
  tail call void @llvm.dbg.value(metadata i8 2, metadata !1028, metadata !DIExpression()), !dbg !2950
  tail call void @llvm.dbg.value(metadata ptr %_148, metadata !1025, metadata !DIExpression()), !dbg !2950
  tail call void @llvm.dbg.value(metadata i64 %_30, metadata !1026, metadata !DIExpression(DW_OP_constu, 2, DW_OP_or, DW_OP_stack_value)), !dbg !2950
  tail call void @llvm.dbg.value(metadata i64 %23, metadata !1027, metadata !DIExpression()), !dbg !2950
  %24 = cmpxchg weak ptr %_148, i64 %new31, i64 %23 acq_rel acquire, align 8, !dbg !2952
  %25 = extractvalue { i64, i1 } %24, 1, !dbg !2952
  tail call void asm sideeffect "nop # marker_begin", ""() #19, !dbg !2948
  tail call void asm sideeffect "nop # marker_end", ""() #19, !dbg !2953
  call void @__unsafe_record_block(i32 7, i32 12, i32 5, i16 0, i16 2, i16 0, i16 0, i16 1, i16 2), !dbg !2953
  br i1 %25, label %bb32, label %bb31, !dbg !2953

bb32:                                             ; preds = %bb31, %bb116
  %state.sroa.0.1.lcssa = phi i64 [ %new31, %bb116 ], [ %27, %bb31 ], !dbg !2771
  %.lcssa = phi i1 [ %22, %bb116 ], [ %28, %bb31 ], !dbg !2945
  tail call void asm sideeffect "nop # marker_begin", ""() #19, !dbg !2954
  tail call void asm sideeffect "nop # marker_end", ""() #19, !dbg !2954
  tail call void asm sideeffect "nop # marker_begin", ""() #19, !dbg !2955
  call void @__unsafe_record_block(i32 7, i32 3, i32 1, i16 0, i16 0, i16 0, i16 0, i16 0, i16 1), !dbg !2954
  br i1 %.lcssa, label %bb33, label %bb34, !dbg !2954, !unsafe_inst !531, !unsafe_line_info !1631

bb31:                                             ; preds = %bb116, %bb31
  %26 = phi { i64, i1 } [ %30, %bb31 ], [ %24, %bb116 ]
  %27 = extractvalue { i64, i1 } %26, 0, !dbg !2952
  tail call void asm sideeffect "nop # marker_begin", ""() #19, !dbg !2956
  tail call void @llvm.dbg.value(metadata i64 %27, metadata !2536, metadata !DIExpression()), !dbg !2771
  tail call void asm sideeffect "nop # marker_end", ""() #19, !dbg !2943
  tail call void asm sideeffect "nop # marker_begin", ""() #19, !dbg !2944
  %_59 = and i64 %27, 16, !dbg !2945, !unsafe_inst !531, !unsafe_line_info !1620
  %28 = icmp eq i64 %_59, 0, !dbg !2945, !unsafe_inst !531, !unsafe_line_info !1620
  tail call void asm sideeffect "nop # marker_end", ""() #19, !dbg !2945
  tail call void asm sideeffect "nop # marker_begin", ""() #19, !dbg !2939
  tail call void asm sideeffect "nop # marker_end", ""() #19, !dbg !2946
  tail call void @llvm.dbg.value(metadata i64 %29, metadata !2559, metadata !DIExpression()), !dbg !2947
  %.332 = select i1 %28, i64 -32, i64 -8, !dbg !2946
  %.333 = select i1 %28, i64 12, i64 4, !dbg !2946
  %_62 = and i64 %27, %.332, !dbg !2939
  %29 = or disjoint i64 %_62, %.333, !dbg !2939
  tail call void asm sideeffect "nop # marker_begin", ""() #19, !dbg !2948
  tail call void @llvm.dbg.value(metadata ptr %ptr, metadata !2611, metadata !DIExpression(DW_OP_plus_uconst, 8, DW_OP_stack_value)), !dbg !2634
  tail call void @llvm.dbg.value(metadata i64 %27, metadata !2613, metadata !DIExpression()), !dbg !2634
  tail call void @llvm.dbg.value(metadata i64 %29, metadata !2614, metadata !DIExpression()), !dbg !2634
  tail call void asm sideeffect "nop # marker_end", ""() #19, !dbg !2949
  tail call void @llvm.dbg.value(metadata i8 3, metadata !1020, metadata !DIExpression()), !dbg !2950
  tail call void @llvm.dbg.value(metadata i8 2, metadata !1028, metadata !DIExpression()), !dbg !2950
  tail call void @llvm.dbg.value(metadata ptr %_148, metadata !1025, metadata !DIExpression()), !dbg !2950
  tail call void @llvm.dbg.value(metadata i64 %27, metadata !1026, metadata !DIExpression()), !dbg !2950
  tail call void @llvm.dbg.value(metadata i64 %29, metadata !1027, metadata !DIExpression()), !dbg !2950
  %30 = cmpxchg weak ptr %_148, i64 %27, i64 %29 acq_rel acquire, align 8, !dbg !2952
  %31 = extractvalue { i64, i1 } %30, 1, !dbg !2952
  tail call void asm sideeffect "nop # marker_begin", ""() #19, !dbg !2948
  tail call void asm sideeffect "nop # marker_end", ""() #19, !dbg !2953
  call void @__unsafe_record_block(i32 7, i32 11, i32 2, i16 0, i16 0, i16 0, i16 0, i16 0, i16 2), !dbg !2953
  br i1 %31, label %bb32, label %bb31, !dbg !2953

bb33:                                             ; preds = %bb32
  tail call void asm sideeffect "nop # marker_end", ""() #19, !dbg !2957
  call void @__unsafe_record_block(i32 7, i32 1, i32 0, i16 0, i16 0, i16 0, i16 0, i16 0, i16 0), !dbg !2957
  br label %bb36, !dbg !2957, !unsafe_inst !531, !unsafe_line_info !1631

bb34:                                             ; preds = %bb32
  %_75 = and i64 %state.sroa.0.1.lcssa, 8, !dbg !2958, !unsafe_inst !531, !unsafe_line_info !1631
  %32 = icmp eq i64 %_75, 0, !dbg !2958, !unsafe_inst !531, !unsafe_line_info !1631
  tail call void asm sideeffect "nop # marker_end", ""() #19, !dbg !2958
  tail call void asm sideeffect "nop # marker_begin", ""() #19, !dbg !2955
  tail call void asm sideeffect "nop # marker_end", ""() #19, !dbg !2955
  call void @__unsafe_record_block(i32 7, i32 3, i32 0, i16 0, i16 0, i16 0, i16 0, i16 0, i16 0), !dbg !2958
  br i1 %32, label %bb39, label %bb36, !dbg !2958, !unsafe_inst !531, !unsafe_line_info !1631

bb36:                                             ; preds = %bb34, %bb33
  tail call void asm sideeffect "nop # marker_begin", ""() #19, !dbg !2959
  tail call void asm sideeffect "nop # marker_end", ""() #19, !dbg !2960
  %.val174.val = load ptr, ptr %_140, align 8, !dbg !2960, !noundef !29
  %.val174.val175 = load ptr, ptr %21, align 8, !dbg !2960
  call void @llvm.lifetime.start.p0(i64 0, ptr nonnull %_2.i299), !dbg !2961
  call void @llvm.dbg.declare(metadata ptr undef, metadata !2981, metadata !DIExpression()), !dbg !2987
  call void @llvm.dbg.value(metadata ptr undef, metadata !2980, metadata !DIExpression()), !dbg !2988
  call void @llvm.dbg.value(metadata ptr undef, metadata !2975, metadata !DIExpression(DW_OP_deref)), !dbg !2989
  call void @llvm.dbg.value(metadata ptr undef, metadata !2966, metadata !DIExpression()), !dbg !2990
  call void @llvm.dbg.value(metadata ptr undef, metadata !1642, metadata !DIExpression()), !dbg !2991
  %33 = icmp eq ptr %.val174.val, null, !dbg !2961
  call void @__unsafe_record_block(i32 7, i32 5, i32 0, i16 0, i16 0, i16 0, i16 0, i16 0, i16 0), !dbg !2961
  br i1 %33, label %bb37, label %bb2.i.i.i, !dbg !2961

bb2.i.i.i:                                        ; preds = %bb36
  %34 = icmp ne ptr %.val174.val175, null
  tail call void @llvm.assume(i1 %34)
  call void @llvm.dbg.value(metadata ptr undef, metadata !1674, metadata !DIExpression()), !dbg !2992
  %35 = load ptr, ptr %.val174.val175, align 8, !dbg !2994, !invariant.load !29
  %.not.i.i.i.i = icmp eq ptr %35, null, !dbg !2994
  call void @__unsafe_record_block(i32 7, i32 5, i32 0, i16 0, i16 0, i16 0, i16 0, i16 0, i16 0), !dbg !2994
  br i1 %.not.i.i.i.i, label %bb3.i.i.i.i, label %is_not_null.i.i.i.i, !dbg !2994

is_not_null.i.i.i.i:                              ; preds = %bb2.i.i.i
  call void @__unsafe_record_block(i32 7, i32 1, i32 0, i16 0, i16 0, i16 0, i16 0, i16 0, i16 0), !dbg !2994
  invoke void %35(ptr noundef nonnull align 1 %.val174.val)
          to label %bb3.i.i.i.i unwind label %cleanup.i.i.i.i, !dbg !2994

bb3.i.i.i.i:                                      ; preds = %is_not_null.i.i.i.i, %bb2.i.i.i
  call void @llvm.dbg.value(metadata ptr undef, metadata !1683, metadata !DIExpression()), !dbg !2995
  call void @llvm.dbg.value(metadata ptr %.val174.val, metadata !1692, metadata !DIExpression(DW_OP_LLVM_fragment, 0, 64)), !dbg !2997
  call void @llvm.dbg.value(metadata ptr %.val174.val175, metadata !1692, metadata !DIExpression(DW_OP_LLVM_fragment, 64, 64)), !dbg !2997
  call void @llvm.dbg.value(metadata ptr %.val174.val, metadata !1717, metadata !DIExpression(DW_OP_LLVM_fragment, 0, 64)), !dbg !2998
  call void @llvm.dbg.value(metadata ptr %.val174.val, metadata !1730, metadata !DIExpression(DW_OP_LLVM_fragment, 0, 64)), !dbg !3000
  call void @llvm.dbg.value(metadata ptr %.val174.val, metadata !1738, metadata !DIExpression(DW_OP_LLVM_fragment, 0, 64)), !dbg !3002
  call void @llvm.dbg.value(metadata ptr %.val174.val175, metadata !1717, metadata !DIExpression(DW_OP_LLVM_fragment, 64, 64)), !dbg !2998
  call void @llvm.dbg.value(metadata ptr %.val174.val175, metadata !1730, metadata !DIExpression(DW_OP_LLVM_fragment, 64, 64)), !dbg !3000
  call void @llvm.dbg.value(metadata ptr %.val174.val175, metadata !1738, metadata !DIExpression(DW_OP_LLVM_fragment, 64, 64)), !dbg !3002
  %36 = getelementptr inbounds i8, ptr %.val174.val175, i64 8, !dbg !3004
  %37 = load i64, ptr %36, align 8, !dbg !3004, !range !1745, !invariant.load !29
  %38 = getelementptr inbounds i8, ptr %.val174.val175, i64 16, !dbg !3004
  call void @llvm.dbg.value(metadata i64 %37, metadata !1725, metadata !DIExpression()), !dbg !3005
  call void @llvm.dbg.value(metadata i64 %37, metadata !1747, metadata !DIExpression()), !dbg !3006
  %39 = load i64, ptr %38, align 8, !dbg !3008, !range !1758, !invariant.load !29
  call void @llvm.dbg.value(metadata i64 %39, metadata !1727, metadata !DIExpression()), !dbg !3005
  call void @llvm.dbg.value(metadata i64 %39, metadata !1754, metadata !DIExpression()), !dbg !3006
  call void @llvm.dbg.value(metadata i64 %39, metadata !1759, metadata !DIExpression()), !dbg !3009
  %40 = icmp ult i64 %39, -9223372036854775807, !dbg !3011
  tail call void @llvm.assume(i1 %40), !dbg !3011
  call void @llvm.dbg.value(metadata i64 %37, metadata !1709, metadata !DIExpression(DW_OP_LLVM_fragment, 64, 64)), !dbg !3012
  call void @llvm.dbg.value(metadata i64 %39, metadata !1709, metadata !DIExpression(DW_OP_LLVM_fragment, 0, 64)), !dbg !3012
  %41 = icmp eq i64 %37, 0, !dbg !3013
  call void @__unsafe_record_block(i32 7, i32 8, i32 0, i16 0, i16 0, i16 0, i16 0, i16 0, i16 0), !dbg !3013
  br i1 %41, label %bb37, label %bb1.i.i.i.i.i, !dbg !3013

bb1.i.i.i.i.i:                                    ; preds = %bb3.i.i.i.i
  call void @llvm.dbg.value(metadata i64 %39, metadata !1772, metadata !DIExpression(DW_OP_LLVM_fragment, 0, 64)), !dbg !3014
  call void @llvm.dbg.value(metadata i64 %37, metadata !1772, metadata !DIExpression(DW_OP_LLVM_fragment, 64, 64)), !dbg !3014
  call void @llvm.dbg.value(metadata ptr undef, metadata !1782, metadata !DIExpression()), !dbg !3014
  call void @llvm.dbg.value(metadata ptr %.val174.val, metadata !1783, metadata !DIExpression()), !dbg !3014
  call void @llvm.dbg.value(metadata ptr %.val174.val, metadata !1786, metadata !DIExpression()), !dbg !3016
  call void @llvm.dbg.value(metadata i64 %39, metadata !1790, metadata !DIExpression(DW_OP_LLVM_fragment, 0, 64)), !dbg !3016
  call void @llvm.dbg.value(metadata i64 %37, metadata !1790, metadata !DIExpression(DW_OP_LLVM_fragment, 64, 64)), !dbg !3016
  tail call void @__rust_dealloc(ptr noundef nonnull %.val174.val, i64 noundef %37, i64 noundef %39) #19, !dbg !3018
  call void @__unsafe_record_block(i32 7, i32 2, i32 0, i16 0, i16 0, i16 0, i16 0, i16 0, i16 0), !dbg !3019
  br label %bb37, !dbg !3019

cleanup.i.i.i.i:                                  ; preds = %is_not_null.i.i.i.i
  %42 = landingpad { ptr, i32 }
          cleanup
  call void @llvm.dbg.value(metadata ptr undef, metadata !1683, metadata !DIExpression()), !dbg !3020
  call void @llvm.dbg.value(metadata ptr %.val174.val, metadata !1692, metadata !DIExpression(DW_OP_LLVM_fragment, 0, 64)), !dbg !3022
  call void @llvm.dbg.value(metadata ptr %.val174.val175, metadata !1692, metadata !DIExpression(DW_OP_LLVM_fragment, 64, 64)), !dbg !3022
  call void @llvm.dbg.value(metadata ptr %.val174.val, metadata !1717, metadata !DIExpression(DW_OP_LLVM_fragment, 0, 64)), !dbg !3023
  call void @llvm.dbg.value(metadata ptr %.val174.val, metadata !1730, metadata !DIExpression(DW_OP_LLVM_fragment, 0, 64)), !dbg !3025
  call void @llvm.dbg.value(metadata ptr %.val174.val, metadata !1738, metadata !DIExpression(DW_OP_LLVM_fragment, 0, 64)), !dbg !3027
  call void @llvm.dbg.value(metadata ptr %.val174.val175, metadata !1717, metadata !DIExpression(DW_OP_LLVM_fragment, 64, 64)), !dbg !3023
  call void @llvm.dbg.value(metadata ptr %.val174.val175, metadata !1730, metadata !DIExpression(DW_OP_LLVM_fragment, 64, 64)), !dbg !3025
  call void @llvm.dbg.value(metadata ptr %.val174.val175, metadata !1738, metadata !DIExpression(DW_OP_LLVM_fragment, 64, 64)), !dbg !3027
  %43 = getelementptr inbounds i8, ptr %.val174.val175, i64 8, !dbg !3029
  %44 = load i64, ptr %43, align 8, !dbg !3029, !range !1745, !invariant.load !29
  %45 = getelementptr inbounds i8, ptr %.val174.val175, i64 16, !dbg !3029
  call void @llvm.dbg.value(metadata i64 %44, metadata !1725, metadata !DIExpression()), !dbg !3030
  call void @llvm.dbg.value(metadata i64 %44, metadata !1747, metadata !DIExpression()), !dbg !3031
  %46 = load i64, ptr %45, align 8, !dbg !3033, !range !1758, !invariant.load !29
  call void @llvm.dbg.value(metadata i64 %46, metadata !1727, metadata !DIExpression()), !dbg !3030
  call void @llvm.dbg.value(metadata i64 %46, metadata !1754, metadata !DIExpression()), !dbg !3031
  call void @llvm.dbg.value(metadata i64 %46, metadata !1759, metadata !DIExpression()), !dbg !3034
  %47 = icmp ult i64 %46, -9223372036854775807, !dbg !3036
  tail call void @llvm.assume(i1 %47), !dbg !3036
  call void @llvm.dbg.value(metadata i64 %44, metadata !1709, metadata !DIExpression(DW_OP_LLVM_fragment, 64, 64)), !dbg !3037
  call void @llvm.dbg.value(metadata i64 %46, metadata !1709, metadata !DIExpression(DW_OP_LLVM_fragment, 0, 64)), !dbg !3037
  %48 = icmp eq i64 %44, 0, !dbg !3038
  call void @__unsafe_record_block(i32 7, i32 9, i32 0, i16 0, i16 0, i16 0, i16 0, i16 0, i16 0), !dbg !3038
  br i1 %48, label %cleanup.body.i, label %bb1.i4.i.i.i.i, !dbg !3038

bb1.i4.i.i.i.i:                                   ; preds = %cleanup.i.i.i.i
  call void @llvm.dbg.value(metadata i64 %46, metadata !1772, metadata !DIExpression(DW_OP_LLVM_fragment, 0, 64)), !dbg !3039
  call void @llvm.dbg.value(metadata i64 %44, metadata !1772, metadata !DIExpression(DW_OP_LLVM_fragment, 64, 64)), !dbg !3039
  call void @llvm.dbg.value(metadata ptr undef, metadata !1782, metadata !DIExpression()), !dbg !3039
  call void @llvm.dbg.value(metadata ptr %.val174.val, metadata !1783, metadata !DIExpression()), !dbg !3039
  call void @llvm.dbg.value(metadata ptr %.val174.val, metadata !1786, metadata !DIExpression()), !dbg !3041
  call void @llvm.dbg.value(metadata i64 %46, metadata !1790, metadata !DIExpression(DW_OP_LLVM_fragment, 0, 64)), !dbg !3041
  call void @llvm.dbg.value(metadata i64 %44, metadata !1790, metadata !DIExpression(DW_OP_LLVM_fragment, 64, 64)), !dbg !3041
  tail call void @__rust_dealloc(ptr noundef nonnull %.val174.val, i64 noundef %44, i64 noundef %46) #19, !dbg !3043
  call void @__unsafe_record_block(i32 7, i32 2, i32 0, i16 0, i16 0, i16 0, i16 0, i16 0, i16 0), !dbg !3044
  br label %cleanup.body.i, !dbg !3044

cleanup.body.i:                                   ; preds = %bb1.i4.i.i.i.i, %cleanup.i.i.i.i
  call void @llvm.dbg.value(metadata ptr %_2.i299, metadata !725, metadata !DIExpression()), !dbg !3045
  call void @__unsafe_record_block(i32 7, i32 1, i32 0, i16 0, i16 0, i16 0, i16 0, i16 0, i16 0), !dbg !3047
; invoke <async_task::utils::abort_on_panic::Bomb as core::ops::drop::Drop>::drop
  invoke void @"_ZN81_$LT$async_task..utils..abort_on_panic..Bomb$u20$as$u20$core..ops..drop..Drop$GT$4drop17hbbde9adaede740a0E"(ptr noalias noundef nonnull align 1 %_2.i299)
          to label %bb98 unwind label %terminate.i, !dbg !3047

terminate.i:                                      ; preds = %cleanup.body.i
  %49 = landingpad { ptr, i32 }
          filter [0 x ptr] zeroinitializer
; call core::panicking::panic_in_cleanup
  call void @_ZN4core9panicking16panic_in_cleanup17h43442956f23e9cbeE() #20, !dbg !3048
  call void @__unsafe_record_block(i32 7, i32 3, i32 0, i16 0, i16 0, i16 0, i16 0, i16 0, i16 0), !dbg !3048
  unreachable, !dbg !3048

bb39:                                             ; preds = %bb34, %bb37
  tail call void asm sideeffect "nop # marker_begin", ""() #19, !dbg !3049
  tail call void @llvm.dbg.value(metadata ptr null, metadata !2561, metadata !DIExpression(DW_OP_LLVM_fragment, 0, 64)), !dbg !3050
  %_81 = and i64 %state.sroa.0.1.lcssa, 32, !dbg !3051, !unsafe_inst !531, !unsafe_line_info !1827
  %50 = icmp eq i64 %_81, 0, !dbg !3051, !unsafe_inst !531, !unsafe_line_info !1827
  tail call void asm sideeffect "nop # marker_end", ""() #19, !dbg !3051
  tail call void asm sideeffect "nop # marker_begin", ""() #19, !dbg !3050
  tail call void asm sideeffect "nop # marker_end", ""() #19, !dbg !3050
  call void @__unsafe_record_block(i32 7, i32 3, i32 2, i16 0, i16 0, i16 0, i16 0, i16 0, i16 2), !dbg !3051
  br i1 %50, label %bb45, label %bb40, !dbg !3051, !unsafe_inst !531, !unsafe_line_info !1827

bb37:                                             ; preds = %bb1.i.i.i.i.i, %bb3.i.i.i.i, %bb36
  call void @llvm.lifetime.end.p0(i64 0, ptr nonnull %_2.i299), !dbg !3052
  tail call void asm sideeffect "nop # marker_begin", ""() #19, !dbg !3053
  tail call void asm sideeffect "nop # marker_end", ""() #19, !dbg !3053
  call void @__unsafe_record_block(i32 7, i32 2, i32 0, i16 0, i16 0, i16 0, i16 0, i16 0, i16 0), !dbg !3053
  br label %bb39, !dbg !3053, !unsafe_inst !531, !unsafe_line_info !1631

bb40:                                             ; preds = %bb39
  tail call void asm sideeffect "nop # marker_begin", ""() #19, !noalias !3054
  tail call void asm sideeffect "nop # marker_end", ""() #19, !noalias !3054
  call void @llvm.dbg.value(metadata i64 128, metadata !1833, metadata !DIExpression()), !dbg !3057
  call void @llvm.dbg.value(metadata i8 3, metadata !1839, metadata !DIExpression()), !dbg !3057
  call void @llvm.dbg.value(metadata i64 128, metadata !1875, metadata !DIExpression()), !dbg !3060
  call void @llvm.dbg.value(metadata i8 3, metadata !1880, metadata !DIExpression()), !dbg !3060
  call void @llvm.dbg.value(metadata ptr poison, metadata !1883, metadata !DIExpression(DW_OP_LLVM_fragment, 0, 64)), !dbg !3062
  call void @llvm.dbg.value(metadata ptr poison, metadata !1883, metadata !DIExpression(DW_OP_LLVM_fragment, 64, 64)), !dbg !3062
  call void @llvm.dbg.value(metadata ptr poison, metadata !1904, metadata !DIExpression(DW_OP_LLVM_fragment, 0, 64)), !dbg !3065
  call void @llvm.dbg.value(metadata ptr poison, metadata !1904, metadata !DIExpression(DW_OP_LLVM_fragment, 64, 64)), !dbg !3065
  call void @llvm.dbg.value(metadata i64 -161, metadata !1913, metadata !DIExpression()), !dbg !3067
  call void @llvm.dbg.value(metadata i8 1, metadata !1918, metadata !DIExpression()), !dbg !3067
  call void @llvm.dbg.value(metadata i64 -161, metadata !1921, metadata !DIExpression()), !dbg !3069
  call void @llvm.dbg.value(metadata i8 1, metadata !1926, metadata !DIExpression()), !dbg !3069
  call void @llvm.dbg.value(metadata ptr null, metadata !1863, metadata !DIExpression()), !dbg !3071
  call void @llvm.dbg.value(metadata ptr %ptr, metadata !1862, metadata !DIExpression()), !dbg !3071
  call void @llvm.dbg.value(metadata ptr %ptr, metadata !1838, metadata !DIExpression(DW_OP_plus_uconst, 8, DW_OP_stack_value)), !dbg !3057
  call void @llvm.dbg.value(metadata ptr %_148, metadata !1879, metadata !DIExpression()), !dbg !3060
  %51 = atomicrmw or ptr %_148, i64 128 acq_rel, align 8, !dbg !3072, !noalias !3054
  call void @llvm.dbg.value(metadata i64 %51, metadata !1864, metadata !DIExpression()), !dbg !3073
  %_6.i = and i64 %51, 192, !dbg !3074
  %52 = icmp eq i64 %_6.i, 0, !dbg !3074
  call void @__unsafe_record_block(i32 7, i32 4, i32 0, i16 0, i16 0, i16 0, i16 0, i16 0, i16 0), !dbg !3074
  br i1 %52, label %bb1.i, label %bb42, !dbg !3074

bb1.i:                                            ; preds = %bb40
  tail call void asm sideeffect "nop # marker_begin", ""() #19, !dbg !3075, !noalias !3054
  call void @llvm.dbg.value(metadata ptr %ptr, metadata !1934, metadata !DIExpression(DW_OP_plus_uconst, 16, DW_OP_stack_value)), !dbg !3076
  %_26.i = getelementptr inbounds i8, ptr %ptr, i64 16, !dbg !3078
  call void @llvm.dbg.value(metadata ptr %_26.i, metadata !1902, metadata !DIExpression()), !dbg !3079
  call void @llvm.dbg.value(metadata ptr %_26.i, metadata !1890, metadata !DIExpression()), !dbg !3062
  call void @llvm.dbg.value(metadata ptr %_26.i, metadata !1946, metadata !DIExpression()), !dbg !3080
  call void @llvm.dbg.value(metadata ptr %_26.i, metadata !1910, metadata !DIExpression()), !dbg !3065
  tail call void asm sideeffect "nop # marker_end", ""() #19, !dbg !3082, !noalias !3054
  %53 = load ptr, ptr %_26.i, align 8, !dbg !3082, !noalias !3054, !align !1956, !noundef !29
  %54 = getelementptr inbounds i8, ptr %ptr, i64 24, !dbg !3082
  %55 = load ptr, ptr %54, align 8, !dbg !3082, !noalias !3054
  call void @llvm.dbg.value(metadata ptr %53, metadata !1866, metadata !DIExpression(DW_OP_LLVM_fragment, 0, 64)), !dbg !3083
  call void @llvm.dbg.value(metadata ptr %53, metadata !1891, metadata !DIExpression(DW_OP_LLVM_fragment, 0, 64)), !dbg !3084
  call void @llvm.dbg.value(metadata ptr %55, metadata !1866, metadata !DIExpression(DW_OP_LLVM_fragment, 64, 64)), !dbg !3083
  call void @llvm.dbg.value(metadata ptr %55, metadata !1891, metadata !DIExpression(DW_OP_LLVM_fragment, 64, 64)), !dbg !3084
  store ptr null, ptr %_26.i, align 8, !dbg !3085, !noalias !3054
  call void @llvm.dbg.value(metadata ptr %ptr, metadata !1917, metadata !DIExpression(DW_OP_plus_uconst, 8, DW_OP_stack_value)), !dbg !3067
  call void @llvm.dbg.value(metadata ptr %_148, metadata !1925, metadata !DIExpression()), !dbg !3069
  %56 = atomicrmw and ptr %_148, i64 -161 release, align 8, !dbg !3086, !noalias !3054
  %57 = icmp eq ptr %53, null, !dbg !3087
  %spec.select317 = select i1 %57, ptr undef, ptr %55, !dbg !3087
  call void @__unsafe_record_block(i32 7, i32 9, i32 1, i16 0, i16 0, i16 0, i16 0, i16 1, i16 0), !dbg !3087
  br label %bb42, !dbg !3087

bb45:                                             ; preds = %bb39, %bb42
  %awaiter8.sroa.0.0 = phi ptr [ %_0.sroa.0.1.i, %bb42 ], [ null, %bb39 ], !dbg !2947
  %awaiter8.sroa.12.0 = phi ptr [ %_0.sroa.4.1.i, %bb42 ], [ undef, %bb39 ]
  tail call void @llvm.dbg.value(metadata ptr %awaiter8.sroa.12.0, metadata !2561, metadata !DIExpression(DW_OP_LLVM_fragment, 64, 64)), !dbg !3050
  tail call void @llvm.dbg.value(metadata ptr %awaiter8.sroa.0.0, metadata !2561, metadata !DIExpression(DW_OP_LLVM_fragment, 0, 64)), !dbg !3050
  tail call void asm sideeffect "nop # marker_begin", ""() #19, !dbg !3088
  tail call void asm sideeffect "nop # marker_end", ""() #19, !dbg !3088
  tail call void asm sideeffect "nop # marker_begin", ""() #19
  call void @llvm.dbg.value(metadata i64 256, metadata !3089, metadata !DIExpression()), !dbg !3095
  call void @llvm.dbg.value(metadata i8 3, metadata !3094, metadata !DIExpression()), !dbg !3095
  call void @llvm.dbg.value(metadata i64 256, metadata !3106, metadata !DIExpression()), !dbg !3112
  call void @llvm.dbg.value(metadata i8 3, metadata !3111, metadata !DIExpression()), !dbg !3112
  call void @llvm.dbg.value(metadata ptr %ptr, metadata !3101, metadata !DIExpression()), !dbg !3114
  call void @llvm.dbg.value(metadata ptr %ptr, metadata !3102, metadata !DIExpression(DW_OP_LLVM_fragment, 0, 64)), !dbg !3115
