; ModuleID = 'tracing_core.5c3ec50f55875a0f-cgu.0'
source_filename = "tracing_core.5c3ec50f55875a0f-cgu.0"
target datalayout = "e-m:e-p270:32:32-p271:32:32-p272:64:64-i64:64-i128:128-f80:128-n8:16:32:64-S128"
target triple = "x86_64-unknown-linux-gnu"

%"core::option::Option<&dyn field::Value>" = type { ptr, [1 x i64] }
%"core::fmt::rt::Argument<'_>" = type { %"core::fmt::rt::ArgumentType<'_>" }
%"core::fmt::rt::ArgumentType<'_>" = type { [1 x i64], ptr }

@vtable.0 = private constant <{ [24 x i8], ptr }> <{ [24 x i8] c"\00\00\00\00\00\00\00\00\08\00\00\00\00\00\00\00\08\00\00\00\00\00\00\00", ptr @"_ZN79_$LT$tracing_core..field..DisplayValue$LT$T$GT$$u20$as$u20$core..fmt..Debug$GT$3fmt17he6fc54907e4cf2d7E" }>, align 8, !dbg !0
@vtable.1 = private constant <{ [24 x i8], ptr }> <{ [24 x i8] c"\00\00\00\00\00\00\00\00\08\00\00\00\00\00\00\00\08\00\00\00\00\00\00\00", ptr @"_ZN42_$LT$$RF$T$u20$as$u20$core..fmt..Debug$GT$3fmt17h98deaf3e4776d19fE" }>, align 8, !dbg !27
@vtable.3 = private constant <{ [24 x i8], ptr }> <{ [24 x i8] c"\00\00\00\00\00\00\00\00\08\00\00\00\00\00\00\00\08\00\00\00\00\00\00\00", ptr @"_ZN42_$LT$$RF$T$u20$as$u20$core..fmt..Debug$GT$3fmt17h85edd91399d497d0E" }>, align 8, !dbg !35
@vtable.4 = private constant <{ [24 x i8], ptr }> <{ [24 x i8] c"\00\00\00\00\00\00\00\00\08\00\00\00\00\00\00\00\08\00\00\00\00\00\00\00", ptr @"_ZN42_$LT$$RF$T$u20$as$u20$core..fmt..Debug$GT$3fmt17h49a007c955939cb0E" }>, align 8, !dbg !151
@alloc_9bc96f7544a2a4e30fc9ca495ef8a128 = private unnamed_addr constant <{ [20 x i8] }> <{ [20 x i8] c"Arc counter overflow" }>, align 1
@alloc_7742fec9f2f2fc19935953991c560506 = private unnamed_addr constant <{ ptr, [8 x i8] }> <{ ptr @alloc_9bc96f7544a2a4e30fc9ca495ef8a128, [8 x i8] c"\14\00\00\00\00\00\00\00" }>, align 8
@alloc_d2eedeb181f35d1cc719bc1229bfadb2 = private unnamed_addr constant <{ [78 x i8] }> <{ [78 x i8] c"/home/arsalan/Documents/Github/unsafe-rust-benchmark/library/alloc/src/sync.rs" }>, align 1
@alloc_81c063577ec6f7dad1902094dfce8f20 = private unnamed_addr constant <{ ptr, [16 x i8] }> <{ ptr @alloc_d2eedeb181f35d1cc719bc1229bfadb2, [16 x i8] c"N\00\00\00\00\00\00\00\80\06\00\00\0D\00\00\00" }>, align 8
@alloc_b99730e73100e73a81f4fbfe74b3821d = private unnamed_addr constant <{ ptr, [8 x i8] }> <{ ptr inttoptr (i64 1 to ptr), [8 x i8] zeroinitializer }>, align 8
@alloc_94ba6b0fb563836cd65c60d36566c8a2 = private unnamed_addr constant <{ ptr, [16 x i8] }> <{ ptr @alloc_d2eedeb181f35d1cc719bc1229bfadb2, [16 x i8] c"N\00\00\00\00\00\00\00f\0B\00\00\0D\00\00\00" }>, align 8
@__rust_no_alloc_shim_is_unstable = external global i8
@alloc_e7155f9cf10893ab2e58393a6c5d3d17 = private unnamed_addr constant <{ [42 x i8] }> <{ [42 x i8] c"Lazy instance has previously been poisoned" }>, align 1
@alloc_86d0e2a8aa1d89fa1097fdb15ba92e22 = private unnamed_addr constant <{ [98 x i8] }> <{ [98 x i8] c"/home/arsalan/.cargo/registry/src/index.crates.io-1949cf8c6b5b557f/tracing-core-0.1.32/src/lazy.rs" }>, align 1
@alloc_4fdaa2f791b8103cdee888034880dd0e = private unnamed_addr constant <{ ptr, [16 x i8] }> <{ ptr @alloc_86d0e2a8aa1d89fa1097fdb15ba92e22, [16 x i8] c"b\00\00\00\00\00\00\00:\00\00\00\19\00\00\00" }>, align 8
@alloc_a500d906b91607583596fa15e63c2ada = private unnamed_addr constant <{ [40 x i8] }> <{ [40 x i8] c"internal error: entered unreachable code" }>, align 1
@alloc_0f26341b0c9cc81b1a0f15efb9914885 = private unnamed_addr constant <{ [103 x i8] }> <{ [103 x i8] c"/home/arsalan/.cargo/registry/src/index.crates.io-1949cf8c6b5b557f/tracing-core-0.1.32/src/spin/once.rs" }>, align 1
@alloc_73ce285c6953441f90163801e4524c2b = private unnamed_addr constant <{ ptr, [16 x i8] }> <{ ptr @alloc_0f26341b0c9cc81b1a0f15efb9914885, [16 x i8] c"g\00\00\00\00\00\00\00l\00\00\00\1F\00\00\00" }>, align 8
@alloc_b41ce9db6ff9e09c515cee5b4d05db5e = private unnamed_addr constant <{ [17 x i8] }> <{ [17 x i8] c"Once has panicked" }>, align 1
@alloc_cdaa584137f3dccce6c57c06dfa95713 = private unnamed_addr constant <{ ptr, [16 x i8] }> <{ ptr @alloc_0f26341b0c9cc81b1a0f15efb9914885, [16 x i8] c"g\00\00\00\00\00\00\00r\00\00\00\1D\00\00\00" }>, align 8
@_ZN12tracing_core8callsite9CALLSITES17hccc57102ec60b6c5E = internal global <{ [9 x i8], [7 x i8] }> <{ [9 x i8] zeroinitializer, [7 x i8] undef }>, align 8, !dbg !160
@_ZN12tracing_core8callsite16LOCKED_CALLSITES17he8d4287cb4f62c95E = internal global <{ [16 x i8], [32 x i8], ptr }> <{ [16 x i8] zeroinitializer, [32 x i8] undef, ptr @"_ZN93_$LT$tracing_core..stdlib..no_std..sync..Mutex$LT$T$GT$$u20$as$u20$core..default..Default$GT$7default17ha5f43ac28b0a1575E" }>, align 8, !dbg !170
@alloc_503140222242820641f911db3ed4657e = private unnamed_addr constant <{ [11 x i8] }> <{ [11 x i8] c"Identifier(" }>, align 1
@alloc_9e3f62b0e6490cc45676dc85f910c2d0 = private unnamed_addr constant <{ [1 x i8] }> <{ [1 x i8] c")" }>, align 1
@alloc_43b664ae1be7c27d2b64d337d06ee259 = private unnamed_addr constant <{ ptr, [8 x i8], ptr, [8 x i8] }> <{ ptr @alloc_503140222242820641f911db3ed4657e, [8 x i8] c"\0B\00\00\00\00\00\00\00", ptr @alloc_9e3f62b0e6490cc45676dc85f910c2d0, [8 x i8] c"\01\00\00\00\00\00\00\00" }>, align 8
@alloc_7c4a35abe39d12fbace5bb918eccb4d2 = private unnamed_addr constant <{ [102 x i8] }> <{ [102 x i8] c"/home/arsalan/.cargo/registry/src/index.crates.io-1949cf8c6b5b557f/tracing-core-0.1.32/src/callsite.rs" }>, align 1
@alloc_8f09441a490f06039b746ef0758a962e = private unnamed_addr constant <{ [251 x i8] }> <{ [251 x i8] c"Attempted to register a `DefaultCallsite` that already exists! This will cause an infinite loop when attempting to read from the callsite cache. This is likely a bug! You should only need to call `DefaultCallsite::register` once per `DefaultCallsite`." }>, align 1
@alloc_90908afe2b3cb5c3b7219ed94b2e58e0 = private unnamed_addr constant <{ ptr, [8 x i8] }> <{ ptr @alloc_8f09441a490f06039b746ef0758a962e, [8 x i8] c"\FB\00\00\00\00\00\00\00" }>, align 8
@alloc_8b6c6d3d0a4e43ad7cf6079e15f18a28 = private unnamed_addr constant <{ ptr, [16 x i8] }> <{ ptr @alloc_7c4a35abe39d12fbace5bb918eccb4d2, [16 x i8] c"f\00\00\00\00\00\00\00\BD\01\00\00\0D\00\00\00" }>, align 8
@_ZN12tracing_core10dispatcher6EXISTS17h5eb0de3fb9590007E = local_unnamed_addr global <{ [1 x i8] }> zeroinitializer, align 1, !dbg !286
@_ZN12tracing_core10dispatcher11GLOBAL_INIT17h32115fdb9b27e6eeE = global <{ [8 x i8] }> zeroinitializer, align 8, !dbg !290
@0 = private unnamed_addr constant <{ [24 x i8], ptr, ptr, ptr, ptr, ptr, ptr, ptr, ptr, ptr, ptr, ptr, ptr, ptr, ptr, ptr, ptr }> <{ [24 x i8] c"\00\00\00\00\00\00\00\00\00\00\00\00\00\00\00\00\01\00\00\00\00\00\00\00", ptr @_ZN12tracing_core10subscriber10Subscriber20on_register_dispatch17ha792bb13ab2b8e8cE, ptr @"_ZN95_$LT$tracing_core..subscriber..NoSubscriber$u20$as$u20$tracing_core..subscriber..Subscriber$GT$17register_callsite17h8849f2754265206bE", ptr @"_ZN95_$LT$tracing_core..subscriber..NoSubscriber$u20$as$u20$tracing_core..subscriber..Subscriber$GT$7enabled17h59bf96fdb7d01718E", ptr @_ZN12tracing_core10subscriber10Subscriber14max_level_hint17he308a3f132f04ce9E, ptr @"_ZN95_$LT$tracing_core..subscriber..NoSubscriber$u20$as$u20$tracing_core..subscriber..Subscriber$GT$8new_span17ha2c98a33d6568d7fE", ptr @"_ZN95_$LT$tracing_core..subscriber..NoSubscriber$u20$as$u20$tracing_core..subscriber..Subscriber$GT$19record_follows_from17hf00eece7e63cbff1E", ptr @"_ZN95_$LT$tracing_core..subscriber..NoSubscriber$u20$as$u20$tracing_core..subscriber..Subscriber$GT$19record_follows_from17hf00eece7e63cbff1E", ptr @_ZN12tracing_core10subscriber10Subscriber13event_enabled17h8bc0af98e1685927E, ptr @_ZN12tracing_core10subscriber10Subscriber20on_register_dispatch17ha792bb13ab2b8e8cE, ptr @_ZN12tracing_core10subscriber10Subscriber20on_register_dispatch17ha792bb13ab2b8e8cE, ptr @_ZN12tracing_core10subscriber10Subscriber20on_register_dispatch17ha792bb13ab2b8e8cE, ptr @_ZN12tracing_core10subscriber10Subscriber10clone_span17hcce844392909038aE, ptr @_ZN12tracing_core10subscriber10Subscriber9drop_span17h4844bac156f07a4cE, ptr @_ZN12tracing_core10subscriber10Subscriber9try_close17hfe11bb5c6efebf3aE, ptr @_ZN12tracing_core10subscriber10Subscriber12current_span17h317a31ee7b0a652cE, ptr @_ZN12tracing_core10subscriber10Subscriber12downcast_raw17hbc7ae84e9baf6ca8E }>, align 8
@_ZN12tracing_core10dispatcher15GLOBAL_DISPATCH17h87fe84e1b4a2c89aE = global <{ [8 x i8], ptr, ptr }> <{ [8 x i8] zeroinitializer, ptr @_ZN12tracing_core10dispatcher13NO_SUBSCRIBER17h03311d1c194bfc5eE, ptr @0 }>, align 8, !dbg !292
@_ZN12tracing_core10dispatcher4NONE17h6e5b38c8436baf83E = local_unnamed_addr constant <{ [8 x i8], ptr, ptr }> <{ [8 x i8] zeroinitializer, ptr @_ZN12tracing_core10dispatcher13NO_SUBSCRIBER17h03311d1c194bfc5eE, ptr @0 }>, align 8, !dbg !347
@_ZN12tracing_core10dispatcher13NO_SUBSCRIBER17h03311d1c194bfc5eE = constant <{}> zeroinitializer, align 1, !dbg !349
@alloc_ebc30d894eb510ed001acc21438d27dd = private unnamed_addr constant <{ [21 x i8] }> <{ [21 x i8] c"SetGlobalDefaultError" }>, align 1
@alloc_53d93c79c5538ea9fe1bc3021c1d0339 = private unnamed_addr constant <{ [54 x i8] }> <{ [54 x i8] c"a global default trace dispatcher has already been set" }>, align 1
@alloc_f8c180d127f76253d8b0ba3c2f7c03c5 = private unnamed_addr constant <{ ptr, [8 x i8] }> <{ ptr @alloc_53d93c79c5538ea9fe1bc3021c1d0339, [8 x i8] c"6\00\00\00\00\00\00\00" }>, align 8
@vtable.6 = private constant <{ [24 x i8], ptr }> <{ [24 x i8] c"\00\00\00\00\00\00\00\00\10\00\00\00\00\00\00\00\08\00\00\00\00\00\00\00", ptr @"_ZN42_$LT$$RF$T$u20$as$u20$core..fmt..Debug$GT$3fmt17hef0e5e260df77f6aE" }>, align 8, !dbg !355
@alloc_879000ae03dd4f5496953339cda50049 = private unnamed_addr constant <{ [16 x i8] }> <{ [16 x i8] c"Dispatch::Global" }>, align 1
@vtable.7 = private constant <{ [24 x i8], ptr }> <{ [24 x i8] c"\00\00\00\00\00\00\00\000\00\00\00\00\00\00\00\08\00\00\00\00\00\00\00", ptr @"_ZN57_$LT$core..fmt..Arguments$u20$as$u20$core..fmt..Debug$GT$3fmt17h88ad6f5138354091E" }>, align 8, !dbg !363
@alloc_cbcaca0a3c346416e2ba67d5e90552e9 = private unnamed_addr constant <{ [16 x i8] }> <{ [16 x i8] c"Dispatch::Scoped" }>, align 1
@alloc_5102b066aecb2d4b9e33349ad3e60d77 = private unnamed_addr constant <{ [20 x i8] }> <{ [20 x i8] c"WeakDispatch::Global" }>, align 1
@alloc_b3a9533104ad39d42127e7d27b1dbdc0 = private unnamed_addr constant <{ [20 x i8] }> <{ [20 x i8] c"WeakDispatch::Scoped" }>, align 1
@vtable.8 = private constant <{ [24 x i8], ptr }> <{ [24 x i8] c"\00\00\00\00\00\00\00\00\08\00\00\00\00\00\00\00\08\00\00\00\00\00\00\00", ptr @"_ZN4core3fmt5float50_$LT$impl$u20$core..fmt..Debug$u20$for$u20$f64$GT$3fmt17hcfb45aa61acd41d0E" }>, align 8, !dbg !498
@vtable.9 = private constant <{ [24 x i8], ptr }> <{ [24 x i8] c"\00\00\00\00\00\00\00\00\08\00\00\00\00\00\00\00\08\00\00\00\00\00\00\00", ptr @"_ZN4core3fmt3num50_$LT$impl$u20$core..fmt..Debug$u20$for$u20$i64$GT$3fmt17h9594b9700afa1c19E" }>, align 8, !dbg !507
@vtable.a = private constant <{ [24 x i8], ptr }> <{ [24 x i8] c"\00\00\00\00\00\00\00\00\08\00\00\00\00\00\00\00\08\00\00\00\00\00\00\00", ptr @"_ZN4core3fmt3num50_$LT$impl$u20$core..fmt..Debug$u20$for$u20$u64$GT$3fmt17hf3b4b1fe0b8575eeE" }>, align 8, !dbg !516
@vtable.b = private constant <{ [24 x i8], ptr }> <{ [24 x i8] c"\00\00\00\00\00\00\00\00\10\00\00\00\00\00\00\00\10\00\00\00\00\00\00\00", ptr @"_ZN4core3fmt3num51_$LT$impl$u20$core..fmt..Debug$u20$for$u20$i128$GT$3fmt17h03cfe2750cd92d6aE" }>, align 8, !dbg !524
@vtable.c = private constant <{ [24 x i8], ptr }> <{ [24 x i8] c"\00\00\00\00\00\00\00\00\10\00\00\00\00\00\00\00\10\00\00\00\00\00\00\00", ptr @"_ZN4core3fmt3num51_$LT$impl$u20$core..fmt..Debug$u20$for$u20$u128$GT$3fmt17h8f93e174137ef5e1E" }>, align 8, !dbg !533
@vtable.d = private constant <{ [24 x i8], ptr }> <{ [24 x i8] c"\00\00\00\00\00\00\00\00\01\00\00\00\00\00\00\00\01\00\00\00\00\00\00\00", ptr @"_ZN41_$LT$bool$u20$as$u20$core..fmt..Debug$GT$3fmt17h40eba7a03f944241E" }>, align 8, !dbg !542
@vtable.e = private constant <{ [24 x i8], ptr, ptr, ptr, ptr, ptr, ptr, ptr, ptr }> <{ [24 x i8] c"\00\00\00\00\00\00\00\00\10\00\00\00\00\00\00\00\08\00\00\00\00\00\00\00", ptr @_ZN12tracing_core5field5Visit10record_f6417h572fd8c3844e2a15E, ptr @_ZN12tracing_core5field5Visit10record_i6417h9aec1f0c31556e95E, ptr @_ZN12tracing_core5field5Visit10record_u6417h1be5f20697c7457aE, ptr @_ZN12tracing_core5field5Visit11record_i12817h17a331958e04b877E, ptr @_ZN12tracing_core5field5Visit11record_u12817h6393692ab0f2be6aE, ptr @_ZN12tracing_core5field5Visit11record_bool17h6fedd21a39c55acfE, ptr @_ZN12tracing_core5field5Visit10record_str17h1f8d7ec9ac9ee8eaE, ptr @"_ZN48_$LT$F$u20$as$u20$tracing_core..field..Visit$GT$12record_debug17h54ed70e6689e110cE" }>, align 8, !dbg !551
@"_ZN71_$LT$dyn$u20$tracing_core..field..Value$u20$as$u20$core..fmt..Debug$GT$3fmt13NULL_CALLSITE17hcf8556c390a89c56E" = internal constant <{}> zeroinitializer, align 1, !dbg !574
@alloc_8ad935d77b0dfc418264195f03e2ec01 = private unnamed_addr constant <{ [50 x i8] }> <{ [50 x i8] c"you somehow managed to register the null callsite?" }>, align 1
@alloc_3fb8efaafa34f1fc7211b8fe89908185 = private unnamed_addr constant <{ ptr, [8 x i8] }> <{ ptr @alloc_8ad935d77b0dfc418264195f03e2ec01, [8 x i8] c"2\00\00\00\00\00\00\00" }>, align 8
@alloc_52b3a24627b09a2a2402c50a054c3b6a = private unnamed_addr constant <{ [42 x i8] }> <{ [42 x i8] c"internal error: entered unreachable code: " }>, align 1
@alloc_f323dd3c87687f4dcb7c5081f5bac745 = private unnamed_addr constant <{ ptr, [8 x i8] }> <{ ptr @alloc_52b3a24627b09a2a2402c50a054c3b6a, [8 x i8] c"*\00\00\00\00\00\00\00" }>, align 8
@alloc_107097f03ec884f9b050b3750127165d = private unnamed_addr constant <{ [99 x i8] }> <{ [99 x i8] c"/home/arsalan/.cargo/registry/src/index.crates.io-1949cf8c6b5b557f/tracing-core-0.1.32/src/field.rs" }>, align 1
@alloc_9dfa5632970e976fcdded0adb3f2430d = private unnamed_addr constant <{ ptr, [16 x i8] }> <{ ptr @alloc_107097f03ec884f9b050b3750127165d, [16 x i8] c"c\00\00\00\00\00\00\00\86\02\00\00\11\00\00\00" }>, align 8
@alloc_dd0f5e41f2607a390004724718d29650 = private unnamed_addr constant <{ [48 x i8] }> <{ [48 x i8] c"you somehow managed to access the null callsite?" }>, align 1
@alloc_b97d342c0ce742904bee9fb9edda8162 = private unnamed_addr constant <{ ptr, [8 x i8] }> <{ ptr @alloc_dd0f5e41f2607a390004724718d29650, [8 x i8] c"0\00\00\00\00\00\00\00" }>, align 8
@alloc_20219bf53982546907ad41267242fa7d = private unnamed_addr constant <{ ptr, [16 x i8] }> <{ ptr @alloc_107097f03ec884f9b050b3750127165d, [16 x i8] c"c\00\00\00\00\00\00\00\8A\02\00\00\11\00\00\00" }>, align 8
@1 = private unnamed_addr constant <{ [24 x i8], ptr, ptr, ptr }> <{ [24 x i8] c"\00\00\00\00\00\00\00\00\00\00\00\00\00\00\00\00\01\00\00\00\00\00\00\00", ptr @"_ZN142_$LT$$LT$dyn$u20$tracing_core..field..Value$u20$as$u20$core..fmt..Debug$GT$..fmt..NullCallsite$u20$as$u20$tracing_core..callsite..Callsite$GT$12set_interest17hfdb988743395a678E", ptr @"_ZN142_$LT$$LT$dyn$u20$tracing_core..field..Value$u20$as$u20$core..fmt..Debug$GT$..fmt..NullCallsite$u20$as$u20$tracing_core..callsite..Callsite$GT$8metadata17h8708b28ac76970c5E", ptr @_ZN12tracing_core8callsite8Callsite15private_type_id17hd9b12631d8cb9b1fE }>, align 8
@"_ZN71_$LT$dyn$u20$tracing_core..field..Value$u20$as$u20$core..fmt..Debug$GT$3fmt5FIELD17h4729a8c26fe982dcE" = internal constant <{ ptr, [8 x i8], ptr, ptr, [8 x i8] }> <{ ptr inttoptr (i64 8 to ptr), [8 x i8] zeroinitializer, ptr @"_ZN71_$LT$dyn$u20$tracing_core..field..Value$u20$as$u20$core..fmt..Debug$GT$3fmt13NULL_CALLSITE17hcf8556c390a89c56E", ptr @1, [8 x i8] zeroinitializer }>, align 8, !dbg !578
@alloc_fa955ef68e230585a8b3c337dca73608 = private unnamed_addr constant <{ ptr, [16 x i8] }> <{ ptr @alloc_107097f03ec884f9b050b3750127165d, [16 x i8] c"c\00\00\00\00\00\00\00\04\03\00\00\09\00\00\00" }>, align 8
@alloc_516180cd34a44aa327d920e4616e4b85 = private unnamed_addr constant <{ [8 x i8] }> <{ [8 x i8] c"FieldSet" }>, align 1
@alloc_1e1711359b46eafe189a751ef242204d = private unnamed_addr constant <{ [5 x i8] }> <{ [5 x i8] c"names" }>, align 1
@vtable.f = private constant <{ [24 x i8], ptr }> <{ [24 x i8] c"\00\00\00\00\00\00\00\00\10\00\00\00\00\00\00\00\08\00\00\00\00\00\00\00", ptr @"_ZN42_$LT$$RF$T$u20$as$u20$core..fmt..Debug$GT$3fmt17h4eaf4f0f4453e392E" }>, align 8, !dbg !584
@alloc_fd7a24723d634e0b232be85c1359a7f4 = private unnamed_addr constant <{ [8 x i8] }> <{ [8 x i8] c"callsite" }>, align 1
@vtable.g = private constant <{ [24 x i8], ptr }> <{ [24 x i8] c"\00\00\00\00\00\00\00\00\10\00\00\00\00\00\00\00\08\00\00\00\00\00\00\00", ptr @"_ZN71_$LT$tracing_core..callsite..Identifier$u20$as$u20$core..fmt..Debug$GT$3fmt17h08e616ba041d1fe4E" }>, align 8, !dbg !592
@alloc_96038c4efec03c312d60c23065d38d9d = private unnamed_addr constant <{ [8 x i8] }> <{ [8 x i8] c"ValueSet" }>, align 1
@vtable.h = private constant <{ [24 x i8], ptr, ptr, ptr, ptr, ptr, ptr, ptr, ptr }> <{ [24 x i8] c"\00\00\00\00\00\00\00\00\10\00\00\00\00\00\00\00\08\00\00\00\00\00\00\00", ptr @_ZN12tracing_core5field5Visit10record_f6417h000e35dc0abbe7fbE, ptr @_ZN12tracing_core5field5Visit10record_i6417hc688cdaa734c45c7E, ptr @_ZN12tracing_core5field5Visit10record_u6417h0917dfbf0f1a3eefE, ptr @_ZN12tracing_core5field5Visit11record_i12817hdfd2a12ab4a201b4E, ptr @_ZN12tracing_core5field5Visit11record_u12817h801f4dcfce008166E, ptr @_ZN12tracing_core5field5Visit11record_bool17ha6412164a39a13cdE, ptr @_ZN12tracing_core5field5Visit10record_str17hbe70fea8f3fc0fdaE, ptr @"_ZN79_$LT$core..fmt..builders..DebugStruct$u20$as$u20$tracing_core..field..Visit$GT$12record_debug17hf6d6a8f103ed6435E" }>, align 8, !dbg !600
@vtable.i = private constant <{ [24 x i8], ptr, ptr, ptr, ptr, ptr, ptr, ptr, ptr }> <{ [24 x i8] c"\00\00\00\00\00\00\00\00\10\00\00\00\00\00\00\00\08\00\00\00\00\00\00\00", ptr @_ZN12tracing_core5field5Visit10record_f6417h73343a7ae77226dbE, ptr @_ZN12tracing_core5field5Visit10record_i6417h17ef869c5196e5adE, ptr @_ZN12tracing_core5field5Visit10record_u6417h28b2d3b7faf7054dE, ptr @_ZN12tracing_core5field5Visit11record_i12817h23e623cbfe6107feE, ptr @_ZN12tracing_core5field5Visit11record_u12817hfeec671692bdce2dE, ptr @_ZN12tracing_core5field5Visit11record_bool17hc41eb38f3e2cd409E, ptr @_ZN12tracing_core5field5Visit10record_str17h860257d31b8fb40eE, ptr @"_ZN76_$LT$core..fmt..builders..DebugMap$u20$as$u20$tracing_core..field..Visit$GT$12record_debug17hb05565a60f7fafbeE" }>, align 8, !dbg !621
@_ZN12tracing_core8metadata9MAX_LEVEL17h2def28f3c9fb9790E = global <{ [8 x i8] }> <{ [8 x i8] c"\05\00\00\00\00\00\00\00" }>, align 8, !dbg !646
@alloc_3b8c95b91c663a5a9387bddd44e7b465 = private unnamed_addr constant <{ [1 x i8] }> <{ [1 x i8] c":" }>, align 1
@alloc_53bbcdd97572d2c3c09f92b4c4bff4ad = private unnamed_addr constant <{ ptr, [8 x i8], ptr, [8 x i8] }> <{ ptr inttoptr (i64 1 to ptr), [8 x i8] zeroinitializer, ptr @alloc_3b8c95b91c663a5a9387bddd44e7b465, [8 x i8] c"\01\00\00\00\00\00\00\00" }>, align 8
@alloc_9be8b34068d390ab60fc02559663c197 = private unnamed_addr constant <{ [8 x i8] }> <{ [8 x i8] c"Metadata" }>, align 1
@alloc_f00db71d77c58f05d86c38101680e143 = private unnamed_addr constant <{ [4 x i8] }> <{ [4 x i8] c"name" }>, align 1
@alloc_5de5b778237022f7dfbd4b14eca9b832 = private unnamed_addr constant <{ [6 x i8] }> <{ [6 x i8] c"target" }>, align 1
@alloc_0111fe86b05ecb68d77beaa0646d3caa = private unnamed_addr constant <{ [5 x i8] }> <{ [5 x i8] c"level" }>, align 1
@vtable.j = private constant <{ [24 x i8], ptr }> <{ [24 x i8] c"\00\00\00\00\00\00\00\00\08\00\00\00\00\00\00\00\08\00\00\00\00\00\00\00", ptr @"_ZN66_$LT$tracing_core..metadata..Level$u20$as$u20$core..fmt..Debug$GT$3fmt17h7203b2f48f3fdec3E" }>, align 8, !dbg !649
@alloc_846dc7a16a9288ad50db549f0e5b194d = private unnamed_addr constant <{ [11 x i8] }> <{ [11 x i8] c"module_path" }>, align 1
@alloc_228b951a53cd2b066a5833c8dc256a67 = private unnamed_addr constant <{ [4 x i8] }> <{ [4 x i8] c"line" }>, align 1
@vtable.k = private constant <{ [24 x i8], ptr }> <{ [24 x i8] c"\00\00\00\00\00\00\00\00\04\00\00\00\00\00\00\00\04\00\00\00\00\00\00\00", ptr @"_ZN4core3fmt3num50_$LT$impl$u20$core..fmt..Debug$u20$for$u20$u32$GT$3fmt17hf891af710521ab67E" }>, align 8, !dbg !657
@alloc_de7c89bfbe8cfcddfe41d5ea20bd02ee = private unnamed_addr constant <{ [4 x i8] }> <{ [4 x i8] c"file" }>, align 1
@alloc_574d1a2219ebd7ae8db35e273d007636 = private unnamed_addr constant <{ [8 x i8] }> <{ [8 x i8] c"location" }>, align 1
@alloc_10eebfcd8e87fbf6a791cad38ebcc548 = private unnamed_addr constant <{ [6 x i8] }> <{ [6 x i8] c"fields" }>, align 1
@alloc_a5d866b1768ad3f826bccdb004a1a8ae = private unnamed_addr constant <{ [4 x i8] }> <{ [4 x i8] c"kind" }>, align 1
@vtable.l = private constant <{ [24 x i8], ptr }> <{ [24 x i8] c"\00\00\00\00\00\00\00\00\01\00\00\00\00\00\00\00\01\00\00\00\00\00\00\00", ptr @"_ZN65_$LT$tracing_core..metadata..Kind$u20$as$u20$core..fmt..Debug$GT$3fmt17hae8ea82422ea7a43E" }>, align 8, !dbg !665
@alloc_34f4a0ac6cb1c8c035ab8c4a60331f03 = private unnamed_addr constant <{ [5 x i8] }> <{ [5 x i8] c"Kind(" }>, align 1
@alloc_02ed2670164832c5524f717574eb8d32 = private unnamed_addr constant <{ [5 x i8] }> <{ [5 x i8] c"EVENT" }>, align 1
@alloc_215acf1bed2bbe533557746e7a739ee5 = private unnamed_addr constant <{ [4 x i8] }> <{ [4 x i8] c"SPAN" }>, align 1
@alloc_f22998a2ac637eb4c503d109d2eaea38 = private unnamed_addr constant <{ [4 x i8] }> <{ [4 x i8] c"HINT" }>, align 1
@alloc_a73d0e35045fd787c81346701178a687 = private unnamed_addr constant <{ [3 x i8] }> <{ [3 x i8] c" | " }>, align 1
@alloc_c48efc3c7774160b55f9544665da6049 = private unnamed_addr constant <{ [5 x i8] }> <{ [5 x i8] c"TRACE" }>, align 1
@alloc_7ef91ea9956d1aada07140680929d02f = private unnamed_addr constant <{ [5 x i8] }> <{ [5 x i8] c"DEBUG" }>, align 1
@alloc_1591955be0eee093da4dc18f50ed5668 = private unnamed_addr constant <{ [4 x i8] }> <{ [4 x i8] c"INFO" }>, align 1
@alloc_1d41abab50566e38b6b37c068c764830 = private unnamed_addr constant <{ [4 x i8] }> <{ [4 x i8] c"WARN" }>, align 1
@alloc_40a65520fe7375e1882a80e8cef489a0 = private unnamed_addr constant <{ [5 x i8] }> <{ [5 x i8] c"ERROR" }>, align 1
@alloc_3f7b77ecc8a3c421d9a84c3c3ee05b1c = private unnamed_addr constant <{ [5 x i8] }> <{ [5 x i8] c"error" }>, align 1
@alloc_b00725a0f1e3029dc3e8f34f3adc95de = private unnamed_addr constant <{ [4 x i8] }> <{ [4 x i8] c"warn" }>, align 1
@alloc_de851d3808df3e9c4c7c0aadc50a5875 = private unnamed_addr constant <{ [4 x i8] }> <{ [4 x i8] c"info" }>, align 1
@alloc_49980782a71042ae11e58a340900d8a3 = private unnamed_addr constant <{ [5 x i8] }> <{ [5 x i8] c"debug" }>, align 1
@alloc_1ad24d4fe7e9b8f6cb220e41327fe52b = private unnamed_addr constant <{ [5 x i8] }> <{ [5 x i8] c"trace" }>, align 1
@alloc_df4284b1e03e55b2355574dee80a1ddd = private unnamed_addr constant <{ [3 x i8] }> <{ [3 x i8] c"off" }>, align 1
@alloc_ba5d1e5e84cef71659fdd66a19433c57 = private unnamed_addr constant <{ [16 x i8] }> <{ [16 x i8] c"LevelFilter::OFF" }>, align 1
@alloc_8044418ba082997ac2c69b3329e8cd9b = private unnamed_addr constant <{ [18 x i8] }> <{ [18 x i8] c"LevelFilter::TRACE" }>, align 1
@alloc_3351c332417751a1f29ce94e6dcfc484 = private unnamed_addr constant <{ [18 x i8] }> <{ [18 x i8] c"LevelFilter::DEBUG" }>, align 1
@alloc_2ca80e0a3e98d25bc918c08252fa0a32 = private unnamed_addr constant <{ [17 x i8] }> <{ [17 x i8] c"LevelFilter::INFO" }>, align 1
@alloc_f75298cf97290928a5e0df64f014bbdb = private unnamed_addr constant <{ [17 x i8] }> <{ [17 x i8] c"LevelFilter::WARN" }>, align 1
@alloc_41ef2caf7d150b85aa38b601145ca36a = private unnamed_addr constant <{ [18 x i8] }> <{ [18 x i8] c"LevelFilter::ERROR" }>, align 1
@alloc_f1b2d9db9e435c1857ca0d0a32f96146 = private unnamed_addr constant <{ [95 x i8] }> <{ [95 x i8] c"error parsing level: expected one of \22error\22, \22warn\22, \22info\22, \22debug\22, \22trace\22, or a number 1-5" }>, align 1
@alloc_9e3934112089228aec2714d6865bed15 = private unnamed_addr constant <{ [109 x i8] }> <{ [109 x i8] c"error parsing level filter: expected one of \22off\22, \22error\22, \22warn\22, \22info\22, \22debug\22, \22trace\22, or a number 0-5" }>, align 1
@alloc_0f65039384c524763c2cb40f9770b8ae = private unnamed_addr constant <{ [20 x i8] }> <{ [20 x i8] c"span IDs must be > 0" }>, align 1
@alloc_b33d1d1d946a9b5df178c8d21ddf7522 = private unnamed_addr constant <{ [98 x i8] }> <{ [98 x i8] c"/home/arsalan/.cargo/registry/src/index.crates.io-1949cf8c6b5b557f/tracing-core-0.1.32/src/span.rs" }>, align 1
@alloc_d20f76274d354f7d69b9bbad5a03b390 = private unnamed_addr constant <{ ptr, [16 x i8] }> <{ ptr @alloc_b33d1d1d946a9b5df178c8d21ddf7522, [16 x i8] c"b\00\00\00\00\00\00\00F\00\00\00\1F\00\00\00" }>, align 8
@alloc_3aab3716b8f5d9b5b4b2d52b15defac5 = private unnamed_addr constant <{ [5 x i8] }> <{ [5 x i8] c"Level" }>, align 1
@vtable.m = private constant <{ [24 x i8], ptr }> <{ [24 x i8] c"\00\00\00\00\00\00\00\00\08\00\00\00\00\00\00\00\08\00\00\00\00\00\00\00", ptr @"_ZN42_$LT$$RF$T$u20$as$u20$core..fmt..Debug$GT$3fmt17hb9a34101affb7ba7E" }>, align 8, !dbg !673
@alloc_4b13bf5cea81ca32c6d1d69992d360a0 = private unnamed_addr constant <{ [5 x i8] }> <{ [5 x i8] c"Trace" }>, align 1
@alloc_96abca9bcf0289be18b0174890500370 = private unnamed_addr constant <{ [5 x i8] }> <{ [5 x i8] c"Debug" }>, align 1
@alloc_24ea6de08d0b53dc6bee442c0c1bf938 = private unnamed_addr constant <{ [4 x i8] }> <{ [4 x i8] c"Info" }>, align 1
@alloc_13474ff3506fd5ad1ece37f1529fd5b7 = private unnamed_addr constant <{ [4 x i8] }> <{ [4 x i8] c"Warn" }>, align 1
@alloc_99ac8a81a24cac863217ce4a5cbfabea = private unnamed_addr constant <{ [5 x i8] }> <{ [5 x i8] c"Error" }>, align 1
@"switch.table._ZN42_$LT$$RF$T$u20$as$u20$core..fmt..Debug$GT$3fmt17hb9a34101affb7ba7E" = private unnamed_addr constant [5 x i64] [i64 5, i64 5, i64 4, i64 4, i64 5], align 8
@"reltable._ZN42_$LT$$RF$T$u20$as$u20$core..fmt..Debug$GT$3fmt17hb9a34101affb7ba7E" = private unnamed_addr constant [5 x i32] [i32 trunc (i64 sub (i64 ptrtoint (ptr @alloc_4b13bf5cea81ca32c6d1d69992d360a0 to i64), i64 ptrtoint (ptr @"reltable._ZN42_$LT$$RF$T$u20$as$u20$core..fmt..Debug$GT$3fmt17hb9a34101affb7ba7E" to i64)) to i32), i32 trunc (i64 sub (i64 ptrtoint (ptr @alloc_96abca9bcf0289be18b0174890500370 to i64), i64 ptrtoint (ptr @"reltable._ZN42_$LT$$RF$T$u20$as$u20$core..fmt..Debug$GT$3fmt17hb9a34101affb7ba7E" to i64)) to i32), i32 trunc (i64 sub (i64 ptrtoint (ptr @alloc_24ea6de08d0b53dc6bee442c0c1bf938 to i64), i64 ptrtoint (ptr @"reltable._ZN42_$LT$$RF$T$u20$as$u20$core..fmt..Debug$GT$3fmt17hb9a34101affb7ba7E" to i64)) to i32), i32 trunc (i64 sub (i64 ptrtoint (ptr @alloc_13474ff3506fd5ad1ece37f1529fd5b7 to i64), i64 ptrtoint (ptr @"reltable._ZN42_$LT$$RF$T$u20$as$u20$core..fmt..Debug$GT$3fmt17hb9a34101affb7ba7E" to i64)) to i32), i32 trunc (i64 sub (i64 ptrtoint (ptr @alloc_99ac8a81a24cac863217ce4a5cbfabea to i64), i64 ptrtoint (ptr @"reltable._ZN42_$LT$$RF$T$u20$as$u20$core..fmt..Debug$GT$3fmt17hb9a34101affb7ba7E" to i64)) to i32)], align 4

@"_ZN52_$LT$usize$u20$as$u20$tracing_core..field..Value$GT$6record17h8a6d01f389eceae0E" = unnamed_addr alias void (ptr, ptr, ptr, ptr), ptr @"_ZN50_$LT$u64$u20$as$u20$tracing_core..field..Value$GT$6record17h5d09cca3f3f8788bE"
@"_ZN87_$LT$core..num..nonzero..NonZero$LT$usize$GT$$u20$as$u20$tracing_core..field..Value$GT$6record17h170451679ff747ffE" = unnamed_addr alias void (ptr, ptr, ptr, ptr), ptr @"_ZN85_$LT$core..num..nonzero..NonZero$LT$u64$GT$$u20$as$u20$tracing_core..field..Value$GT$6record17h655eb8461fbccb7fE"
@"_ZN52_$LT$isize$u20$as$u20$tracing_core..field..Value$GT$6record17hfb6b031236e1ffe5E" = unnamed_addr alias void (ptr, ptr, ptr, ptr), ptr @"_ZN50_$LT$i64$u20$as$u20$tracing_core..field..Value$GT$6record17h27421c705a355f3eE"
@"_ZN87_$LT$core..num..nonzero..NonZero$LT$isize$GT$$u20$as$u20$tracing_core..field..Value$GT$6record17h43509129e518c356E" = unnamed_addr alias void (ptr, ptr, ptr, ptr), ptr @"_ZN85_$LT$core..num..nonzero..NonZero$LT$i64$GT$$u20$as$u20$tracing_core..field..Value$GT$6record17hdb83df2dadccaae0E"

; <bool as core::fmt::Debug>::fmt
; Function Attrs: inlinehint nonlazybind uwtable
define internal noundef zeroext i1 @"_ZN41_$LT$bool$u20$as$u20$core..fmt..Debug$GT$3fmt17h40eba7a03f944241E"(ptr noalias noundef readonly align 1 dereferenceable(1) %self, ptr noalias noundef align 8 dereferenceable(64) %f) unnamed_addr #0 !dbg !816 {
start:
  tail call void @llvm.dbg.value(metadata ptr %self, metadata !823, metadata !DIExpression()), !dbg !825
  tail call void @llvm.dbg.value(metadata ptr %f, metadata !824, metadata !DIExpression()), !dbg !825
; call <bool as core::fmt::Display>::fmt
  %_0 = tail call noundef zeroext i1 @"_ZN43_$LT$bool$u20$as$u20$core..fmt..Display$GT$3fmt17he691df9786a4e217E"(ptr noalias noundef nonnull readonly align 1 dereferenceable(1) %self, ptr noalias noundef nonnull align 8 dereferenceable(64) %f), !dbg !826
  ret i1 %_0, !dbg !827
}

; <&T as core::fmt::Debug>::fmt
; Function Attrs: nonlazybind uwtable
define internal noundef zeroext i1 @"_ZN42_$LT$$RF$T$u20$as$u20$core..fmt..Debug$GT$3fmt17h49a007c955939cb0E"(ptr noalias nocapture noundef readonly align 8 dereferenceable(8) %self, ptr noalias noundef align 8 dereferenceable(64) %f) unnamed_addr #1 !dbg !828 {
start:
  tail call void @llvm.dbg.value(metadata ptr %self, metadata !834, metadata !DIExpression()), !dbg !836
  tail call void @llvm.dbg.value(metadata ptr %f, metadata !835, metadata !DIExpression()), !dbg !836
  %_3 = load ptr, ptr %self, align 8, !dbg !837, !nonnull !24, !align !838, !noundef !24
  %_3.val = load ptr, ptr %_3, align 8, !dbg !839, !noundef !24
  call void @llvm.dbg.value(metadata ptr undef, metadata !840, metadata !DIExpression()), !dbg !847
  call void @llvm.dbg.value(metadata ptr undef, metadata !849, metadata !DIExpression()), !dbg !855
  call void @llvm.dbg.value(metadata ptr %f, metadata !846, metadata !DIExpression()), !dbg !847
  call void @llvm.dbg.value(metadata ptr %f, metadata !854, metadata !DIExpression()), !dbg !855
  call void @llvm.dbg.value(metadata ptr %f, metadata !857, metadata !DIExpression()), !dbg !865
  call void @llvm.dbg.value(metadata ptr undef, metadata !864, metadata !DIExpression()), !dbg !865
  call void @llvm.dbg.value(metadata ptr %_3.val, metadata !867, metadata !DIExpression()), !dbg !877
  %_7.i = ptrtoint ptr %_3.val to i64, !dbg !879
; call core::fmt::pointer_fmt_inner
  %_0.i = tail call noundef zeroext i1 @_ZN4core3fmt17pointer_fmt_inner17hf8cee1e5871a135cE(i64 noundef %_7.i, ptr noalias noundef nonnull align 8 dereferenceable(64) %f), !dbg !880
  ret i1 %_0.i, !dbg !881
}

; <&T as core::fmt::Debug>::fmt
; Function Attrs: nonlazybind uwtable
define internal noundef zeroext i1 @"_ZN42_$LT$$RF$T$u20$as$u20$core..fmt..Debug$GT$3fmt17h4eaf4f0f4453e392E"(ptr noalias nocapture noundef readonly align 8 dereferenceable(16) %self, ptr noalias noundef align 8 dereferenceable(64) %f) unnamed_addr #1 personality ptr @rust_eh_personality !dbg !882 {
start:
  %entry.i.i = alloca [8 x i8], align 8
  %_5.i = alloca [16 x i8], align 8
  tail call void @llvm.dbg.value(metadata ptr %self, metadata !887, metadata !DIExpression()), !dbg !889
  tail call void @llvm.dbg.value(metadata ptr %f, metadata !888, metadata !DIExpression()), !dbg !889
  %_3.0 = load ptr, ptr %self, align 8, !dbg !890, !nonnull !24, !align !838, !noundef !24
  %0 = getelementptr inbounds i8, ptr %self, i64 8, !dbg !890
  %_3.1 = load i64, ptr %0, align 8, !dbg !890, !noundef !24
  call void @llvm.dbg.value(metadata ptr %_3.0, metadata !891, metadata !DIExpression(DW_OP_LLVM_fragment, 0, 64)), !dbg !898
  call void @llvm.dbg.value(metadata ptr %_3.0, metadata !900, metadata !DIExpression(DW_OP_LLVM_fragment, 0, 64)), !dbg !920
  call void @llvm.dbg.value(metadata ptr %_3.0, metadata !922, metadata !DIExpression(DW_OP_LLVM_fragment, 0, 64)), !dbg !934
  call void @llvm.dbg.value(metadata i64 %_3.1, metadata !891, metadata !DIExpression(DW_OP_LLVM_fragment, 64, 64)), !dbg !898
  call void @llvm.dbg.value(metadata i64 %_3.1, metadata !900, metadata !DIExpression(DW_OP_LLVM_fragment, 64, 64)), !dbg !920
  call void @llvm.dbg.value(metadata i64 %_3.1, metadata !922, metadata !DIExpression(DW_OP_LLVM_fragment, 64, 64)), !dbg !934
  call void @llvm.dbg.value(metadata ptr %f, metadata !897, metadata !DIExpression()), !dbg !898
  call void @llvm.lifetime.start.p0(i64 16, ptr nonnull %_5.i), !dbg !936, !noalias !937
; call core::fmt::Formatter::debug_list
  call void @_ZN4core3fmt9Formatter10debug_list17hce1082af628ba6fcE(ptr noalias nocapture noundef nonnull sret([16 x i8]) align 8 dereferenceable(16) %_5.i, ptr noalias noundef nonnull align 8 dereferenceable(64) %f), !dbg !936, !noalias !941
  call void @llvm.dbg.value(metadata i64 %_3.1, metadata !928, metadata !DIExpression()), !dbg !942
  call void @llvm.dbg.value(metadata i64 %_3.1, metadata !943, metadata !DIExpression()), !dbg !954
  call void @llvm.dbg.value(metadata ptr %_3.0, metadata !930, metadata !DIExpression()), !dbg !956
  call void @llvm.dbg.value(metadata ptr %_3.0, metadata !953, metadata !DIExpression()), !dbg !954
  %_12.i = getelementptr inbounds { ptr, i64 }, ptr %_3.0, i64 %_3.1, !dbg !957
  call void @llvm.dbg.value(metadata ptr %_5.i, metadata !958, metadata !DIExpression()), !dbg !982
  call void @llvm.dbg.value(metadata ptr %_3.0, metadata !977, metadata !DIExpression(DW_OP_LLVM_fragment, 0, 64)), !dbg !982
  call void @llvm.dbg.value(metadata ptr %_12.i, metadata !977, metadata !DIExpression(DW_OP_LLVM_fragment, 64, 64)), !dbg !982
  call void @llvm.dbg.declare(metadata ptr %entry.i.i, metadata !980, metadata !DIExpression()), !dbg !984
  call void @llvm.dbg.value(metadata ptr %_3.0, metadata !978, metadata !DIExpression(DW_OP_LLVM_fragment, 0, 64)), !dbg !985
  call void @llvm.dbg.value(metadata ptr %_12.i, metadata !978, metadata !DIExpression(DW_OP_LLVM_fragment, 64, 64)), !dbg !985
  call void @llvm.dbg.value(metadata ptr %_3.0, metadata !978, metadata !DIExpression(DW_OP_LLVM_fragment, 0, 64)), !dbg !985
  call void @llvm.dbg.value(metadata ptr undef, metadata !986, metadata !DIExpression()), !dbg !1009
  call void @llvm.dbg.value(metadata ptr undef, metadata !1011, metadata !DIExpression()), !dbg !1018
  call void @llvm.dbg.value(metadata ptr %_12.i, metadata !1007, metadata !DIExpression()), !dbg !1020
  call void @llvm.dbg.value(metadata ptr undef, metadata !1021, metadata !DIExpression()), !dbg !1031
  call void @llvm.dbg.value(metadata ptr undef, metadata !1030, metadata !DIExpression()), !dbg !1031
  %1 = icmp eq i64 %_3.1, 0, !dbg !1033
  br i1 %1, label %"_ZN48_$LT$$u5b$T$u5d$$u20$as$u20$core..fmt..Debug$GT$3fmt17hb8295bf8a613aac8E.exit", label %bb5.i.i, !dbg !1034

bb5.i.i:                                          ; preds = %start, %bb5.i.i
  %iter.sroa.0.06.i.i = phi ptr [ %_14.i.i.i.i, %bb5.i.i ], [ %_3.0, %start ]
  call void @llvm.dbg.value(metadata ptr %iter.sroa.0.06.i.i, metadata !978, metadata !DIExpression(DW_OP_LLVM_fragment, 0, 64)), !dbg !985
  call void @llvm.dbg.value(metadata ptr undef, metadata !1035, metadata !DIExpression()), !dbg !1050
  call void @llvm.dbg.value(metadata i64 1, metadata !1041, metadata !DIExpression()), !dbg !1050
  call void @llvm.dbg.value(metadata i64 1, metadata !1052, metadata !DIExpression()), !dbg !1060
  call void @llvm.dbg.value(metadata ptr %iter.sroa.0.06.i.i, metadata !1042, metadata !DIExpression()), !dbg !1062
  call void @llvm.dbg.value(metadata ptr undef, metadata !1047, metadata !DIExpression(DW_OP_plus_uconst, 8, DW_OP_stack_value)), !dbg !1063
  call void @llvm.dbg.value(metadata ptr %iter.sroa.0.06.i.i, metadata !1059, metadata !DIExpression()), !dbg !1060
  %_14.i.i.i.i = getelementptr inbounds { ptr, i64 }, ptr %iter.sroa.0.06.i.i, i64 1, !dbg !1064
  call void @llvm.dbg.value(metadata ptr %_14.i.i.i.i, metadata !978, metadata !DIExpression(DW_OP_LLVM_fragment, 0, 64)), !dbg !985
  call void @llvm.lifetime.start.p0(i64 8, ptr nonnull %entry.i.i), !dbg !1065, !noalias !1066
  store ptr %iter.sroa.0.06.i.i, ptr %entry.i.i, align 8, !dbg !1065, !noalias !1066
; call core::fmt::builders::DebugList::entry
  %_9.i.i = call noundef align 8 dereferenceable(16) ptr @_ZN4core3fmt8builders9DebugList5entry17he5a4465e1dd4a691E(ptr noalias noundef nonnull align 8 dereferenceable(16) %_5.i, ptr noundef nonnull align 1 %entry.i.i, ptr noalias noundef nonnull readonly align 8 dereferenceable(32) @vtable.1), !dbg !1069
  call void @llvm.lifetime.end.p0(i64 8, ptr nonnull %entry.i.i), !dbg !1070, !noalias !1066
  call void @llvm.dbg.value(metadata ptr undef, metadata !986, metadata !DIExpression()), !dbg !1009
  call void @llvm.dbg.value(metadata ptr undef, metadata !1011, metadata !DIExpression()), !dbg !1018
  call void @llvm.dbg.value(metadata ptr %_12.i, metadata !1007, metadata !DIExpression()), !dbg !1020
  call void @llvm.dbg.value(metadata ptr undef, metadata !1021, metadata !DIExpression()), !dbg !1031
  call void @llvm.dbg.value(metadata ptr undef, metadata !1030, metadata !DIExpression()), !dbg !1031
  %2 = icmp eq ptr %_14.i.i.i.i, %_12.i, !dbg !1033
  br i1 %2, label %"_ZN48_$LT$$u5b$T$u5d$$u20$as$u20$core..fmt..Debug$GT$3fmt17hb8295bf8a613aac8E.exit", label %bb5.i.i, !dbg !1034

"_ZN48_$LT$$u5b$T$u5d$$u20$as$u20$core..fmt..Debug$GT$3fmt17hb8295bf8a613aac8E.exit": ; preds = %bb5.i.i, %start
  call void @llvm.dbg.value(metadata ptr poison, metadata !978, metadata !DIExpression(DW_OP_LLVM_fragment, 0, 64)), !dbg !985
; call core::fmt::builders::DebugList::finish
  %_0.i = call noundef zeroext i1 @_ZN4core3fmt8builders9DebugList6finish17h9fea27fe6baef614E(ptr noalias noundef nonnull align 8 dereferenceable(16) %_5.i), !dbg !936
  call void @llvm.lifetime.end.p0(i64 16, ptr nonnull %_5.i), !dbg !1071, !noalias !937
  ret i1 %_0.i, !dbg !1072
}

; <&T as core::fmt::Debug>::fmt
; Function Attrs: nonlazybind uwtable
define internal noundef zeroext i1 @"_ZN42_$LT$$RF$T$u20$as$u20$core..fmt..Debug$GT$3fmt17h85edd91399d497d0E"(ptr noalias nocapture noundef readonly align 8 dereferenceable(8) %self, ptr noalias noundef align 8 dereferenceable(64) %f) unnamed_addr #1 !dbg !1073 {
start:
  tail call void @llvm.dbg.value(metadata ptr %self, metadata !1078, metadata !DIExpression()), !dbg !1082
  tail call void @llvm.dbg.value(metadata ptr %f, metadata !1079, metadata !DIExpression()), !dbg !1082
  %_3 = load ptr, ptr %self, align 8, !dbg !1083, !nonnull !24, !align !838, !noundef !24
  %_3.val = load ptr, ptr %_3, align 8, !dbg !1084, !noundef !24
  call void @llvm.dbg.value(metadata ptr undef, metadata !1085, metadata !DIExpression()), !dbg !1090
  call void @llvm.dbg.value(metadata ptr undef, metadata !1092, metadata !DIExpression()), !dbg !1097
  call void @llvm.dbg.value(metadata ptr %f, metadata !1089, metadata !DIExpression()), !dbg !1090
  call void @llvm.dbg.value(metadata ptr %f, metadata !1096, metadata !DIExpression()), !dbg !1097
  call void @llvm.dbg.value(metadata ptr %_3.val, metadata !1099, metadata !DIExpression()), !dbg !1103
  %_3.i = ptrtoint ptr %_3.val to i64, !dbg !1105
; call core::fmt::pointer_fmt_inner
  %_0.i = tail call noundef zeroext i1 @_ZN4core3fmt17pointer_fmt_inner17hf8cee1e5871a135cE(i64 noundef %_3.i, ptr noalias noundef nonnull align 8 dereferenceable(64) %f), !dbg !1106
  ret i1 %_0.i, !dbg !1107
}

; <&T as core::fmt::Debug>::fmt
; Function Attrs: nonlazybind uwtable
define internal noundef zeroext i1 @"_ZN42_$LT$$RF$T$u20$as$u20$core..fmt..Debug$GT$3fmt17h98deaf3e4776d19fE"(ptr noalias nocapture noundef readonly align 8 dereferenceable(8) %self, ptr noalias noundef align 8 dereferenceable(64) %f) unnamed_addr #1 !dbg !1108 {
start:
  tail call void @llvm.dbg.value(metadata ptr %self, metadata !1113, metadata !DIExpression()), !dbg !1115
  tail call void @llvm.dbg.value(metadata ptr %f, metadata !1114, metadata !DIExpression()), !dbg !1115
  %_3 = load ptr, ptr %self, align 8, !dbg !1116, !nonnull !24, !align !838, !noundef !24
  tail call void @llvm.experimental.noalias.scope.decl(metadata !1117), !dbg !1120
  call void @llvm.dbg.value(metadata ptr %_3, metadata !1121, metadata !DIExpression()), !dbg !1127
  call void @llvm.dbg.value(metadata ptr %f, metadata !1126, metadata !DIExpression()), !dbg !1127
  %_3.0.i = load ptr, ptr %_3, align 8, !dbg !1129, !alias.scope !1117, !noalias !1130, !nonnull !24, !align !1132, !noundef !24
  %0 = getelementptr inbounds i8, ptr %_3, i64 8, !dbg !1129
  %_3.1.i = load i64, ptr %0, align 8, !dbg !1129, !alias.scope !1117, !noalias !1130, !noundef !24
; call <str as core::fmt::Debug>::fmt
  %_0.i = tail call noundef zeroext i1 @"_ZN40_$LT$str$u20$as$u20$core..fmt..Debug$GT$3fmt17h8addf800304f3e1bE"(ptr noalias noundef nonnull readonly align 1 %_3.0.i, i64 noundef %_3.1.i, ptr noalias noundef nonnull align 8 dereferenceable(64) %f), !dbg !1133, !noalias !1117
  ret i1 %_0.i, !dbg !1134
}

; <&T as core::fmt::Debug>::fmt
; Function Attrs: nonlazybind uwtable
define internal noundef zeroext i1 @"_ZN42_$LT$$RF$T$u20$as$u20$core..fmt..Debug$GT$3fmt17hacadaea14e5b5311E"(ptr noalias nocapture noundef readonly align 8 dereferenceable(16) %self, ptr noalias noundef align 8 dereferenceable(64) %f) unnamed_addr #1 !dbg !1135 {
start:
  tail call void @llvm.dbg.value(metadata ptr %self, metadata !1150, metadata !DIExpression()), !dbg !1154
  tail call void @llvm.dbg.value(metadata ptr %f, metadata !1151, metadata !DIExpression()), !dbg !1154
  %_3.0 = load ptr, ptr %self, align 8, !dbg !1155, !nonnull !24, !align !1132, !noundef !24
  %0 = getelementptr inbounds i8, ptr %self, i64 8, !dbg !1155
  %_3.1 = load ptr, ptr %0, align 8, !dbg !1155, !nonnull !24, !align !838, !noundef !24
  %1 = getelementptr inbounds i8, ptr %_3.1, i64 24, !dbg !1156
  %2 = load ptr, ptr %1, align 8, !dbg !1156, !invariant.load !24, !nonnull !24
  %_0 = tail call noundef zeroext i1 %2(ptr noundef nonnull align 1 %_3.0, ptr noalias noundef nonnull align 8 dereferenceable(64) %f), !dbg !1156
  ret i1 %_0, !dbg !1157
}

; <&T as core::fmt::Debug>::fmt
; Function Attrs: nonlazybind uwtable
define internal noundef zeroext i1 @"_ZN42_$LT$$RF$T$u20$as$u20$core..fmt..Debug$GT$3fmt17hb9a34101affb7ba7E"(ptr noalias nocapture noundef readonly align 8 dereferenceable(8) %self, ptr noalias noundef align 8 dereferenceable(64) %f) unnamed_addr #1 !dbg !1158 {
start:
  tail call void @llvm.dbg.value(metadata ptr %self, metadata !1163, metadata !DIExpression()), !dbg !1167
  tail call void @llvm.dbg.value(metadata ptr %f, metadata !1164, metadata !DIExpression()), !dbg !1167
  %_3 = load ptr, ptr %self, align 8, !dbg !1168, !nonnull !24, !align !838, !noundef !24
  %_3.val = load i64, ptr %_3, align 8, !dbg !1169, !range !1170, !noundef !24
  call void @llvm.dbg.value(metadata ptr undef, metadata !1171, metadata !DIExpression()), !dbg !1178
  call void @llvm.dbg.value(metadata ptr %f, metadata !1177, metadata !DIExpression()), !dbg !1178
  %switch.gep = getelementptr inbounds [5 x i64], ptr @"switch.table._ZN42_$LT$$RF$T$u20$as$u20$core..fmt..Debug$GT$3fmt17hb9a34101affb7ba7E", i64 0, i64 %_3.val, !dbg !1180
  %switch.load = load i64, ptr %switch.gep, align 8, !dbg !1180
  %reltable.shift = shl i64 %_3.val, 2, !dbg !1180
  %reltable.intrinsic = call ptr @llvm.load.relative.i64(ptr @"reltable._ZN42_$LT$$RF$T$u20$as$u20$core..fmt..Debug$GT$3fmt17hb9a34101affb7ba7E", i64 %reltable.shift), !dbg !1180
; call core::fmt::Formatter::write_str
  %_0.i = tail call noundef zeroext i1 @_ZN4core3fmt9Formatter9write_str17h35be9e09c65db375E(ptr noalias noundef nonnull align 8 dereferenceable(64) %f, ptr noalias noundef nonnull readonly align 1 %reltable.intrinsic, i64 noundef %switch.load), !dbg !1180
  ret i1 %_0.i, !dbg !1181
}

; <&T as core::fmt::Debug>::fmt
; Function Attrs: nonlazybind uwtable
define internal noundef zeroext i1 @"_ZN42_$LT$$RF$T$u20$as$u20$core..fmt..Debug$GT$3fmt17hef0e5e260df77f6aE"(ptr noalias nocapture noundef readonly align 8 dereferenceable(16) %self, ptr noalias noundef align 8 dereferenceable(64) %f) unnamed_addr #1 !dbg !1122 {
start:
  tail call void @llvm.dbg.value(metadata ptr %self, metadata !1121, metadata !DIExpression()), !dbg !1182
  tail call void @llvm.dbg.value(metadata ptr %f, metadata !1126, metadata !DIExpression()), !dbg !1182
  %_3.0 = load ptr, ptr %self, align 8, !dbg !1183, !nonnull !24, !align !1132, !noundef !24
  %0 = getelementptr inbounds i8, ptr %self, i64 8, !dbg !1183
  %_3.1 = load i64, ptr %0, align 8, !dbg !1183, !noundef !24
; call <str as core::fmt::Debug>::fmt
  %_0 = tail call noundef zeroext i1 @"_ZN40_$LT$str$u20$as$u20$core..fmt..Debug$GT$3fmt17h8addf800304f3e1bE"(ptr noalias noundef nonnull readonly align 1 %_3.0, i64 noundef %_3.1, ptr noalias noundef nonnull align 8 dereferenceable(64) %f), !dbg !1184
  ret i1 %_0, !dbg !1185
}

; <&T as core::fmt::Display>::fmt
; Function Attrs: nonlazybind uwtable
define internal noundef zeroext i1 @"_ZN44_$LT$$RF$T$u20$as$u20$core..fmt..Display$GT$3fmt17h38ca8e752c557c60E"(ptr noalias nocapture noundef readonly align 8 dereferenceable(8) %self, ptr noalias noundef align 8 dereferenceable(64) %f) unnamed_addr #1 !dbg !1186 {
start:
  tail call void @llvm.dbg.value(metadata ptr %self, metadata !1193, metadata !DIExpression()), !dbg !1197
  tail call void @llvm.dbg.value(metadata ptr %f, metadata !1194, metadata !DIExpression()), !dbg !1197
  %_3 = load ptr, ptr %self, align 8, !dbg !1198, !nonnull !24, !align !838, !noundef !24
  tail call void @llvm.experimental.noalias.scope.decl(metadata !1199), !dbg !1202
  call void @llvm.dbg.value(metadata ptr %_3, metadata !1203, metadata !DIExpression()), !dbg !1210
  call void @llvm.dbg.value(metadata ptr %f, metadata !1209, metadata !DIExpression()), !dbg !1210
  tail call void @llvm.experimental.noalias.scope.decl(metadata !1212), !dbg !1215
  call void @llvm.dbg.value(metadata ptr %_3, metadata !1216, metadata !DIExpression()), !dbg !1222
  %0 = getelementptr inbounds i8, ptr %_3, i64 32, !dbg !1224
  %_2.i.i = load i64, ptr %0, align 8, !dbg !1224, !alias.scope !1225, !noalias !1226, !noundef !24
  %1 = getelementptr inbounds i8, ptr %_3, i64 8, !dbg !1228
  %_5.1.i.i = load i64, ptr %1, align 8, !dbg !1228, !alias.scope !1225, !noalias !1226, !noundef !24
  %_4.i.i = icmp ult i64 %_2.i.i, %_5.1.i.i, !dbg !1228
  br i1 %_4.i.i, label %"_ZN65_$LT$tracing_core..field..Field$u20$as$u20$core..fmt..Display$GT$3fmt17hbf1d722439ee72c8E.exit", label %panic.i.i, !dbg !1228

panic.i.i:                                        ; preds = %start
; call core::panicking::panic_bounds_check
  tail call void @_ZN4core9panicking18panic_bounds_check17h5e416f3b4df94489E(i64 noundef %_2.i.i, i64 noundef %_5.1.i.i, ptr noalias noundef nonnull readonly align 8 dereferenceable(24) @alloc_fa955ef68e230585a8b3c337dca73608) #31, !dbg !1228, !noalias !1229
  unreachable, !dbg !1228

"_ZN65_$LT$tracing_core..field..Field$u20$as$u20$core..fmt..Display$GT$3fmt17hbf1d722439ee72c8E.exit": ; preds = %start
  %_5.0.i.i = load ptr, ptr %_3, align 8, !dbg !1228, !alias.scope !1225, !noalias !1226, !nonnull !24, !align !838, !noundef !24
  %2 = getelementptr inbounds [0 x { ptr, i64 }], ptr %_5.0.i.i, i64 0, i64 %_2.i.i, !dbg !1228
  %_0.0.i.i = load ptr, ptr %2, align 8, !dbg !1228, !noalias !1229, !nonnull !24, !align !1132, !noundef !24
  %3 = getelementptr inbounds i8, ptr %2, i64 8, !dbg !1228
  %_0.1.i.i = load i64, ptr %3, align 8, !dbg !1228, !noalias !1229, !noundef !24
; call core::fmt::Formatter::pad
  %_0.i = tail call noundef zeroext i1 @_ZN4core3fmt9Formatter3pad17h7a36b2c624c9ffbaE(ptr noalias noundef nonnull align 8 dereferenceable(64) %f, ptr noalias noundef nonnull readonly align 1 %_0.0.i.i, i64 noundef %_0.1.i.i), !dbg !1230, !noalias !1199
  ret i1 %_0.i, !dbg !1231
}

; <&T as core::fmt::Display>::fmt
; Function Attrs: nonlazybind uwtable
define internal noundef zeroext i1 @"_ZN44_$LT$$RF$T$u20$as$u20$core..fmt..Display$GT$3fmt17h8ba88027a6549233E"(ptr noalias nocapture noundef readonly align 8 dereferenceable(16) %self, ptr noalias noundef align 8 dereferenceable(64) %f) unnamed_addr #1 !dbg !1232 {
start:
  tail call void @llvm.dbg.value(metadata ptr %self, metadata !1234, metadata !DIExpression()), !dbg !1236
  tail call void @llvm.dbg.value(metadata ptr %f, metadata !1235, metadata !DIExpression()), !dbg !1236
  %_3.0 = load ptr, ptr %self, align 8, !dbg !1237, !nonnull !24, !align !1132, !noundef !24
  %0 = getelementptr inbounds i8, ptr %self, i64 8, !dbg !1237
  %_3.1 = load i64, ptr %0, align 8, !dbg !1237, !noundef !24
; call <str as core::fmt::Display>::fmt
  %_0 = tail call noundef zeroext i1 @"_ZN42_$LT$str$u20$as$u20$core..fmt..Display$GT$3fmt17h49e1caa39cb6eebbE"(ptr noalias noundef nonnull readonly align 1 %_3.0, i64 noundef %_3.1, ptr noalias noundef nonnull align 8 dereferenceable(64) %f), !dbg !1238
  ret i1 %_0, !dbg !1239
}

; <&T as core::fmt::Pointer>::fmt
; Function Attrs: nonlazybind uwtable
define internal noundef zeroext i1 @"_ZN44_$LT$$RF$T$u20$as$u20$core..fmt..Pointer$GT$3fmt17h80e098708ef207c4E"(ptr noalias nocapture noundef readonly align 8 dereferenceable(16) %self, ptr noalias noundef align 8 dereferenceable(64) %f) unnamed_addr #1 !dbg !1240 {
start:
  tail call void @llvm.dbg.value(metadata ptr %self, metadata !1246, metadata !DIExpression()), !dbg !1248
  tail call void @llvm.dbg.value(metadata ptr %f, metadata !1247, metadata !DIExpression()), !dbg !1248
  tail call void @llvm.dbg.value(metadata ptr %f, metadata !1249, metadata !DIExpression()), !dbg !1261
  %_5.0 = load ptr, ptr %self, align 8, !dbg !1263, !nonnull !24, !align !1132, !noundef !24
  tail call void @llvm.dbg.value(metadata ptr undef, metadata !1260, metadata !DIExpression()), !dbg !1261
  tail call void @llvm.dbg.value(metadata ptr %_5.0, metadata !1264, metadata !DIExpression()), !dbg !1268
  %_6 = ptrtoint ptr %_5.0 to i64, !dbg !1270
; call core::fmt::pointer_fmt_inner
  %_0 = tail call noundef zeroext i1 @_ZN4core3fmt17pointer_fmt_inner17hf8cee1e5871a135cE(i64 noundef %_6, ptr noalias noundef nonnull align 8 dereferenceable(64) %f), !dbg !1271
  ret i1 %_0, !dbg !1272
}

; <&T as core::fmt::Pointer>::fmt
; Function Attrs: nonlazybind uwtable
define internal noundef zeroext i1 @"_ZN44_$LT$$RF$T$u20$as$u20$core..fmt..Pointer$GT$3fmt17h9e94e3ab2e44e325E"(ptr noalias nocapture noundef readonly align 8 dereferenceable(8) %self, ptr noalias noundef align 8 dereferenceable(64) %f) unnamed_addr #1 !dbg !1273 {
start:
  tail call void @llvm.dbg.value(metadata ptr %self, metadata !1283, metadata !DIExpression()), !dbg !1287
  tail call void @llvm.dbg.value(metadata ptr %f, metadata !1284, metadata !DIExpression()), !dbg !1287
  tail call void @llvm.dbg.value(metadata ptr %f, metadata !1288, metadata !DIExpression()), !dbg !1297
  %_5 = load ptr, ptr %self, align 8, !dbg !1299, !nonnull !24, !align !838, !noundef !24
  tail call void @llvm.dbg.value(metadata ptr undef, metadata !1296, metadata !DIExpression()), !dbg !1297
  tail call void @llvm.dbg.value(metadata ptr %_5, metadata !1300, metadata !DIExpression()), !dbg !1304
  %_6 = ptrtoint ptr %_5 to i64, !dbg !1306
; call core::fmt::pointer_fmt_inner
  %_0 = tail call noundef zeroext i1 @_ZN4core3fmt17pointer_fmt_inner17hf8cee1e5871a135cE(i64 noundef %_6, ptr noalias noundef nonnull align 8 dereferenceable(64) %f), !dbg !1307
  ret i1 %_0, !dbg !1308
}

; core::fmt::num::<impl core::fmt::Debug for i64>::fmt
; Function Attrs: inlinehint nonlazybind uwtable
define internal noundef zeroext i1 @"_ZN4core3fmt3num50_$LT$impl$u20$core..fmt..Debug$u20$for$u20$i64$GT$3fmt17h9594b9700afa1c19E"(ptr noalias noundef readonly align 8 dereferenceable(8) %self, ptr noalias noundef align 8 dereferenceable(64) %f) unnamed_addr #0 !dbg !1309 {
start:
  tail call void @llvm.dbg.value(metadata ptr %self, metadata !1317, metadata !DIExpression()), !dbg !1319
  tail call void @llvm.dbg.value(metadata ptr %f, metadata !1318, metadata !DIExpression()), !dbg !1319
  tail call void @llvm.dbg.value(metadata ptr %f, metadata !1320, metadata !DIExpression()), !dbg !1328
  tail call void @llvm.dbg.value(metadata ptr %f, metadata !1330, metadata !DIExpression()), !dbg !1335
  %0 = getelementptr inbounds i8, ptr %f, i64 52, !dbg !1337
  %_4 = load i32, ptr %0, align 4, !dbg !1337, !noundef !24
  %_3 = and i32 %_4, 16, !dbg !1337
  %1 = icmp eq i32 %_3, 0, !dbg !1338
  br i1 %1, label %bb2, label %bb1, !dbg !1338

bb2:                                              ; preds = %start
  %_5 = and i32 %_4, 32, !dbg !1339
  %2 = icmp eq i32 %_5, 0, !dbg !1340
  br i1 %2, label %bb4, label %bb3, !dbg !1340

bb1:                                              ; preds = %start
; call core::fmt::num::<impl core::fmt::LowerHex for i64>::fmt
  %3 = tail call noundef zeroext i1 @"_ZN4core3fmt3num53_$LT$impl$u20$core..fmt..LowerHex$u20$for$u20$i64$GT$3fmt17h03102e737f7b1ca8E"(ptr noalias noundef nonnull readonly align 8 dereferenceable(8) %self, ptr noalias noundef nonnull align 8 dereferenceable(64) %f), !dbg !1341
  br label %bb6, !dbg !1341

bb4:                                              ; preds = %bb2
; call core::fmt::num::imp::<impl core::fmt::Display for i64>::fmt
  %4 = tail call noundef zeroext i1 @"_ZN4core3fmt3num3imp52_$LT$impl$u20$core..fmt..Display$u20$for$u20$i64$GT$3fmt17h4d6e5db9f03e76fbE"(ptr noalias noundef nonnull readonly align 8 dereferenceable(8) %self, ptr noalias noundef nonnull align 8 dereferenceable(64) %f), !dbg !1342
  br label %bb6, !dbg !1342

bb3:                                              ; preds = %bb2
; call core::fmt::num::<impl core::fmt::UpperHex for i64>::fmt
  %5 = tail call noundef zeroext i1 @"_ZN4core3fmt3num53_$LT$impl$u20$core..fmt..UpperHex$u20$for$u20$i64$GT$3fmt17h9776f39be326abd0E"(ptr noalias noundef nonnull readonly align 8 dereferenceable(8) %self, ptr noalias noundef nonnull align 8 dereferenceable(64) %f), !dbg !1343
  br label %bb6, !dbg !1343

bb6:                                              ; preds = %bb4, %bb3, %bb1
  %_0.sroa.0.0.in = phi i1 [ %4, %bb4 ], [ %5, %bb3 ], [ %3, %bb1 ]
  ret i1 %_0.sroa.0.0.in, !dbg !1344
}

; core::fmt::num::<impl core::fmt::Debug for u32>::fmt
; Function Attrs: inlinehint nonlazybind uwtable
define internal noundef zeroext i1 @"_ZN4core3fmt3num50_$LT$impl$u20$core..fmt..Debug$u20$for$u20$u32$GT$3fmt17hf891af710521ab67E"(ptr noalias noundef readonly align 4 dereferenceable(4) %self, ptr noalias noundef align 8 dereferenceable(64) %f) unnamed_addr #0 !dbg !1345 {
start:
  tail call void @llvm.dbg.value(metadata ptr %self, metadata !1351, metadata !DIExpression()), !dbg !1353
  tail call void @llvm.dbg.value(metadata ptr %f, metadata !1352, metadata !DIExpression()), !dbg !1353
  tail call void @llvm.dbg.value(metadata ptr %f, metadata !1354, metadata !DIExpression()), !dbg !1358
  tail call void @llvm.dbg.value(metadata ptr %f, metadata !1360, metadata !DIExpression()), !dbg !1364
  %0 = getelementptr inbounds i8, ptr %f, i64 52, !dbg !1366
  %_4 = load i32, ptr %0, align 4, !dbg !1366, !noundef !24
  %_3 = and i32 %_4, 16, !dbg !1366
  %1 = icmp eq i32 %_3, 0, !dbg !1367
  br i1 %1, label %bb2, label %bb1, !dbg !1367

bb2:                                              ; preds = %start
  %_5 = and i32 %_4, 32, !dbg !1368
  %2 = icmp eq i32 %_5, 0, !dbg !1369
  br i1 %2, label %bb4, label %bb3, !dbg !1369

bb1:                                              ; preds = %start
; call core::fmt::num::<impl core::fmt::LowerHex for u32>::fmt
  %3 = tail call noundef zeroext i1 @"_ZN4core3fmt3num53_$LT$impl$u20$core..fmt..LowerHex$u20$for$u20$u32$GT$3fmt17h07f79dd16b39935fE"(ptr noalias noundef nonnull readonly align 4 dereferenceable(4) %self, ptr noalias noundef nonnull align 8 dereferenceable(64) %f), !dbg !1370
  br label %bb6, !dbg !1370

bb4:                                              ; preds = %bb2
; call core::fmt::num::imp::<impl core::fmt::Display for u32>::fmt
  %4 = tail call noundef zeroext i1 @"_ZN4core3fmt3num3imp52_$LT$impl$u20$core..fmt..Display$u20$for$u20$u32$GT$3fmt17h2bca854f0e3dfdc9E"(ptr noalias noundef nonnull readonly align 4 dereferenceable(4) %self, ptr noalias noundef nonnull align 8 dereferenceable(64) %f), !dbg !1371
  br label %bb6, !dbg !1371

bb3:                                              ; preds = %bb2
; call core::fmt::num::<impl core::fmt::UpperHex for u32>::fmt
  %5 = tail call noundef zeroext i1 @"_ZN4core3fmt3num53_$LT$impl$u20$core..fmt..UpperHex$u20$for$u20$u32$GT$3fmt17h3eaafe46ae0cfb90E"(ptr noalias noundef nonnull readonly align 4 dereferenceable(4) %self, ptr noalias noundef nonnull align 8 dereferenceable(64) %f), !dbg !1372
  br label %bb6, !dbg !1372

bb6:                                              ; preds = %bb4, %bb3, %bb1
  %_0.sroa.0.0.in = phi i1 [ %4, %bb4 ], [ %5, %bb3 ], [ %3, %bb1 ]
  ret i1 %_0.sroa.0.0.in, !dbg !1373
}

; core::fmt::num::<impl core::fmt::Debug for u64>::fmt
; Function Attrs: inlinehint nonlazybind uwtable
define internal noundef zeroext i1 @"_ZN4core3fmt3num50_$LT$impl$u20$core..fmt..Debug$u20$for$u20$u64$GT$3fmt17hf3b4b1fe0b8575eeE"(ptr noalias noundef readonly align 8 dereferenceable(8) %self, ptr noalias noundef align 8 dereferenceable(64) %f) unnamed_addr #0 !dbg !1374 {
start:
  tail call void @llvm.dbg.value(metadata ptr %self, metadata !1380, metadata !DIExpression()), !dbg !1382
  tail call void @llvm.dbg.value(metadata ptr %f, metadata !1381, metadata !DIExpression()), !dbg !1382
  tail call void @llvm.dbg.value(metadata ptr %f, metadata !1383, metadata !DIExpression()), !dbg !1387
  tail call void @llvm.dbg.value(metadata ptr %f, metadata !1389, metadata !DIExpression()), !dbg !1393
  %0 = getelementptr inbounds i8, ptr %f, i64 52, !dbg !1395
  %_4 = load i32, ptr %0, align 4, !dbg !1395, !noundef !24
  %_3 = and i32 %_4, 16, !dbg !1395
  %1 = icmp eq i32 %_3, 0, !dbg !1396
  br i1 %1, label %bb2, label %bb1, !dbg !1396

bb2:                                              ; preds = %start
  %_5 = and i32 %_4, 32, !dbg !1397
  %2 = icmp eq i32 %_5, 0, !dbg !1398
  br i1 %2, label %bb4, label %bb3, !dbg !1398

bb1:                                              ; preds = %start
; call core::fmt::num::<impl core::fmt::LowerHex for u64>::fmt
  %3 = tail call noundef zeroext i1 @"_ZN4core3fmt3num53_$LT$impl$u20$core..fmt..LowerHex$u20$for$u20$u64$GT$3fmt17hb613d61cf5457bc2E"(ptr noalias noundef nonnull readonly align 8 dereferenceable(8) %self, ptr noalias noundef nonnull align 8 dereferenceable(64) %f), !dbg !1399
  br label %bb6, !dbg !1399

bb4:                                              ; preds = %bb2
; call core::fmt::num::imp::<impl core::fmt::Display for u64>::fmt
  %4 = tail call noundef zeroext i1 @"_ZN4core3fmt3num3imp52_$LT$impl$u20$core..fmt..Display$u20$for$u20$u64$GT$3fmt17hc7ee99daaeefde73E"(ptr noalias noundef nonnull readonly align 8 dereferenceable(8) %self, ptr noalias noundef nonnull align 8 dereferenceable(64) %f), !dbg !1400
  br label %bb6, !dbg !1400

bb3:                                              ; preds = %bb2
; call core::fmt::num::<impl core::fmt::UpperHex for u64>::fmt
  %5 = tail call noundef zeroext i1 @"_ZN4core3fmt3num53_$LT$impl$u20$core..fmt..UpperHex$u20$for$u20$u64$GT$3fmt17he7726eb1d6454ad2E"(ptr noalias noundef nonnull readonly align 8 dereferenceable(8) %self, ptr noalias noundef nonnull align 8 dereferenceable(64) %f), !dbg !1401
  br label %bb6, !dbg !1401

bb6:                                              ; preds = %bb4, %bb3, %bb1
  %_0.sroa.0.0.in = phi i1 [ %4, %bb4 ], [ %5, %bb3 ], [ %3, %bb1 ]
  ret i1 %_0.sroa.0.0.in, !dbg !1402
}

; core::fmt::num::<impl core::fmt::Debug for i128>::fmt
; Function Attrs: inlinehint nonlazybind uwtable
define internal noundef zeroext i1 @"_ZN4core3fmt3num51_$LT$impl$u20$core..fmt..Debug$u20$for$u20$i128$GT$3fmt17h03cfe2750cd92d6aE"(ptr noalias noundef readonly align 16 dereferenceable(16) %self, ptr noalias noundef align 8 dereferenceable(64) %f) unnamed_addr #0 !dbg !1403 {
start:
  tail call void @llvm.dbg.value(metadata ptr %self, metadata !1409, metadata !DIExpression()), !dbg !1411
  tail call void @llvm.dbg.value(metadata ptr %f, metadata !1410, metadata !DIExpression()), !dbg !1411
  tail call void @llvm.dbg.value(metadata ptr %f, metadata !1412, metadata !DIExpression()), !dbg !1416
  tail call void @llvm.dbg.value(metadata ptr %f, metadata !1418, metadata !DIExpression()), !dbg !1422
  %0 = getelementptr inbounds i8, ptr %f, i64 52, !dbg !1424
  %_4 = load i32, ptr %0, align 4, !dbg !1424, !noundef !24
  %_3 = and i32 %_4, 16, !dbg !1424
  %1 = icmp eq i32 %_3, 0, !dbg !1425
  br i1 %1, label %bb2, label %bb1, !dbg !1425

bb2:                                              ; preds = %start
  %_5 = and i32 %_4, 32, !dbg !1426
  %2 = icmp eq i32 %_5, 0, !dbg !1427
  br i1 %2, label %bb4, label %bb3, !dbg !1427

bb1:                                              ; preds = %start
; call core::fmt::num::<impl core::fmt::LowerHex for i128>::fmt
  %3 = tail call noundef zeroext i1 @"_ZN4core3fmt3num54_$LT$impl$u20$core..fmt..LowerHex$u20$for$u20$i128$GT$3fmt17h77a5db242224b1cfE"(ptr noalias noundef nonnull readonly align 16 dereferenceable(16) %self, ptr noalias noundef nonnull align 8 dereferenceable(64) %f), !dbg !1428
  br label %bb6, !dbg !1428

bb4:                                              ; preds = %bb2
; call core::fmt::num::<impl core::fmt::Display for i128>::fmt
  %4 = tail call noundef zeroext i1 @"_ZN4core3fmt3num53_$LT$impl$u20$core..fmt..Display$u20$for$u20$i128$GT$3fmt17h8a0854989bd1bd1dE"(ptr noalias noundef nonnull readonly align 16 dereferenceable(16) %self, ptr noalias noundef nonnull align 8 dereferenceable(64) %f), !dbg !1429
  br label %bb6, !dbg !1429

bb3:                                              ; preds = %bb2
; call core::fmt::num::<impl core::fmt::UpperHex for i128>::fmt
  %5 = tail call noundef zeroext i1 @"_ZN4core3fmt3num54_$LT$impl$u20$core..fmt..UpperHex$u20$for$u20$i128$GT$3fmt17h26ee7a6ab8e46479E"(ptr noalias noundef nonnull readonly align 16 dereferenceable(16) %self, ptr noalias noundef nonnull align 8 dereferenceable(64) %f), !dbg !1430
  br label %bb6, !dbg !1430

bb6:                                              ; preds = %bb4, %bb3, %bb1
  %_0.sroa.0.0.in = phi i1 [ %4, %bb4 ], [ %5, %bb3 ], [ %3, %bb1 ]
  ret i1 %_0.sroa.0.0.in, !dbg !1431
}

; core::fmt::num::<impl core::fmt::Debug for u128>::fmt
; Function Attrs: inlinehint nonlazybind uwtable
define internal noundef zeroext i1 @"_ZN4core3fmt3num51_$LT$impl$u20$core..fmt..Debug$u20$for$u20$u128$GT$3fmt17h8f93e174137ef5e1E"(ptr noalias noundef readonly align 16 dereferenceable(16) %self, ptr noalias noundef align 8 dereferenceable(64) %f) unnamed_addr #0 !dbg !1432 {
start:
  tail call void @llvm.dbg.value(metadata ptr %self, metadata !1438, metadata !DIExpression()), !dbg !1440
  tail call void @llvm.dbg.value(metadata ptr %f, metadata !1439, metadata !DIExpression()), !dbg !1440
  tail call void @llvm.dbg.value(metadata ptr %f, metadata !1441, metadata !DIExpression()), !dbg !1445
  tail call void @llvm.dbg.value(metadata ptr %f, metadata !1447, metadata !DIExpression()), !dbg !1451
  %0 = getelementptr inbounds i8, ptr %f, i64 52, !dbg !1453
  %_4 = load i32, ptr %0, align 4, !dbg !1453, !noundef !24
  %_3 = and i32 %_4, 16, !dbg !1453
  %1 = icmp eq i32 %_3, 0, !dbg !1454
  br i1 %1, label %bb2, label %bb1, !dbg !1454

bb2:                                              ; preds = %start
  %_5 = and i32 %_4, 32, !dbg !1455
  %2 = icmp eq i32 %_5, 0, !dbg !1456
  br i1 %2, label %bb4, label %bb3, !dbg !1456

bb1:                                              ; preds = %start
; call core::fmt::num::<impl core::fmt::LowerHex for u128>::fmt
  %3 = tail call noundef zeroext i1 @"_ZN4core3fmt3num54_$LT$impl$u20$core..fmt..LowerHex$u20$for$u20$u128$GT$3fmt17hb9ebc83445b55e7cE"(ptr noalias noundef nonnull readonly align 16 dereferenceable(16) %self, ptr noalias noundef nonnull align 8 dereferenceable(64) %f), !dbg !1457
  br label %bb6, !dbg !1457

bb4:                                              ; preds = %bb2
; call core::fmt::num::<impl core::fmt::Display for u128>::fmt
  %4 = tail call noundef zeroext i1 @"_ZN4core3fmt3num53_$LT$impl$u20$core..fmt..Display$u20$for$u20$u128$GT$3fmt17h53f8c3c9c9658b88E"(ptr noalias noundef nonnull readonly align 16 dereferenceable(16) %self, ptr noalias noundef nonnull align 8 dereferenceable(64) %f), !dbg !1458
  br label %bb6, !dbg !1458

bb3:                                              ; preds = %bb2
; call core::fmt::num::<impl core::fmt::UpperHex for u128>::fmt
  %5 = tail call noundef zeroext i1 @"_ZN4core3fmt3num54_$LT$impl$u20$core..fmt..UpperHex$u20$for$u20$u128$GT$3fmt17h5c04816cf0184144E"(ptr noalias noundef nonnull readonly align 16 dereferenceable(16) %self, ptr noalias noundef nonnull align 8 dereferenceable(64) %f), !dbg !1459
  br label %bb6, !dbg !1459

bb6:                                              ; preds = %bb4, %bb3, %bb1
  %_0.sroa.0.0.in = phi i1 [ %4, %bb4 ], [ %5, %bb3 ], [ %3, %bb1 ]
  ret i1 %_0.sroa.0.0.in, !dbg !1460
}

; core::panicking::assert_failed
; Function Attrs: cold noinline noreturn nonlazybind uwtable
define internal fastcc void @_ZN4core9panicking13assert_failed17h700d196a8b4ecd41E(ptr noalias noundef readonly align 8 dereferenceable(8) %0, ptr noalias noundef readonly align 8 dereferenceable(8) %1, ptr noalias nocapture noundef readonly align 8 dereferenceable(48) %args) unnamed_addr #2 !dbg !1461 {
start:
  %right = alloca [8 x i8], align 8
  %left = alloca [8 x i8], align 8
  store ptr %0, ptr %left, align 8
  store ptr %1, ptr %right, align 8
  tail call void @llvm.dbg.value(metadata i8 1, metadata !1487, metadata !DIExpression()), !dbg !1493
  call void @llvm.dbg.declare(metadata ptr %left, metadata !1488, metadata !DIExpression()), !dbg !1494
  call void @llvm.dbg.declare(metadata ptr %right, metadata !1489, metadata !DIExpression()), !dbg !1495
  call void @llvm.dbg.declare(metadata ptr %args, metadata !1490, metadata !DIExpression()), !dbg !1496
; call core::panicking::assert_failed_inner
  call void @_ZN4core9panicking19assert_failed_inner17h1275fc7deb7ee94bE(i8 noundef 1, ptr noundef nonnull align 1 %left, ptr noalias noundef nonnull readonly align 8 dereferenceable(32) @vtable.3, ptr noundef nonnull align 1 %right, ptr noalias noundef nonnull readonly align 8 dereferenceable(32) @vtable.4, ptr noalias nocapture noundef nonnull readonly align 8 dereferenceable(48) %args, ptr noalias noundef nonnull readonly align 8 dereferenceable(24) @alloc_8b6c6d3d0a4e43ad7cf6079e15f18a28) #31, !dbg !1497
  unreachable, !dbg !1497
}

; alloc::sync::Arc<T,A>::downgrade::panic_cold_display
; Function Attrs: cold noinline noreturn nonlazybind uwtable
define internal fastcc void @"_ZN5alloc4sync16Arc$LT$T$C$A$GT$9downgrade18panic_cold_display17hfe19b393678e781eE"() unnamed_addr #2 !dbg !1498 {
start:
  %_5 = alloca [16 x i8], align 8
  %_3 = alloca [48 x i8], align 8
  tail call void @llvm.dbg.value(metadata ptr @alloc_b99730e73100e73a81f4fbfe74b3821d, metadata !1506, metadata !DIExpression()), !dbg !1520
  tail call void @llvm.dbg.value(metadata ptr @alloc_7742fec9f2f2fc19935953991c560506, metadata !1505, metadata !DIExpression()), !dbg !1527
  tail call void @llvm.dbg.value(metadata ptr @alloc_7742fec9f2f2fc19935953991c560506, metadata !1525, metadata !DIExpression()), !dbg !1528
  call void @llvm.lifetime.start.p0(i64 48, ptr nonnull %_3), !dbg !1521
  call void @llvm.lifetime.start.p0(i64 16, ptr nonnull %_5), !dbg !1521
  store ptr @alloc_7742fec9f2f2fc19935953991c560506, ptr %_5, align 8, !dbg !1521
  %_6.sroa.4.0..sroa_idx = getelementptr inbounds i8, ptr %_5, i64 8, !dbg !1521
  store ptr @"_ZN44_$LT$$RF$T$u20$as$u20$core..fmt..Display$GT$3fmt17h8ba88027a6549233E", ptr %_6.sroa.4.0..sroa_idx, align 8, !dbg !1521
  tail call void @llvm.dbg.value(metadata ptr %_5, metadata !1519, metadata !DIExpression()), !dbg !1520
  store ptr @alloc_b99730e73100e73a81f4fbfe74b3821d, ptr %_3, align 8, !dbg !1529
  %0 = getelementptr inbounds i8, ptr %_3, i64 8, !dbg !1529
  store i64 1, ptr %0, align 8, !dbg !1529
  %1 = getelementptr inbounds i8, ptr %_3, i64 32, !dbg !1529
  store ptr null, ptr %1, align 8, !dbg !1529
  %2 = getelementptr inbounds i8, ptr %_3, i64 16, !dbg !1529
  store ptr %_5, ptr %2, align 8, !dbg !1529
  %3 = getelementptr inbounds i8, ptr %_3, i64 24, !dbg !1529
  store i64 1, ptr %3, align 8, !dbg !1529
; call core::panicking::panic_fmt
  call void @_ZN4core9panicking9panic_fmt17h3111a7beccfa68f5E(ptr noalias nocapture noundef nonnull readonly align 8 dereferenceable(48) %_3, ptr noalias noundef nonnull readonly align 8 dereferenceable(24) @alloc_81c063577ec6f7dad1902094dfce8f20) #31, !dbg !1530
  unreachable, !dbg !1530
}

; alloc::sync::Arc<T,A>::drop_slow
; Function Attrs: noinline nonlazybind uwtable
define internal fastcc void @"_ZN5alloc4sync16Arc$LT$T$C$A$GT$9drop_slow17h0d7dd5be7c3fd7c8E"(ptr noalias nocapture noundef readonly align 8 dereferenceable(16) %self) unnamed_addr #3 !dbg !1531 {
start:
  tail call void @llvm.dbg.value(metadata ptr %self, metadata !1538, metadata !DIExpression()), !dbg !1539
  tail call void @llvm.dbg.value(metadata ptr %self, metadata !1540, metadata !DIExpression()), !dbg !1551
  %self.0 = load ptr, ptr %self, align 8, !dbg !1553, !nonnull !24, !noundef !24
  %0 = getelementptr inbounds i8, ptr %self, i64 8, !dbg !1553
  %self.1 = load ptr, ptr %0, align 8, !dbg !1553, !nonnull !24, !align !838, !noundef !24
  %1 = getelementptr inbounds i8, ptr %self.1, i64 16, !dbg !1552
  %2 = load i64, ptr %1, align 8, !dbg !1552, !range !1554, !invariant.load !24
  %self.1.val = load ptr, ptr %self.1, align 8, !dbg !1555
  call void @llvm.dbg.value(metadata !DIArgList(ptr %self.0, i64 %2), metadata !1556, metadata !DIExpression(DW_OP_LLVM_arg, 0, DW_OP_LLVM_arg, 1, DW_OP_constu, 1, DW_OP_minus, DW_OP_constu, 18446744073709551600, DW_OP_and, DW_OP_constu, 1, DW_OP_mul, DW_OP_plus, DW_OP_plus_uconst, 16, DW_OP_stack_value, DW_OP_LLVM_fragment, 0, 64)), !dbg !1566
  call void @llvm.dbg.value(metadata ptr undef, metadata !1556, metadata !DIExpression(DW_OP_LLVM_fragment, 64, 64)), !dbg !1566
  %.not.i = icmp eq ptr %self.1.val, null, !dbg !1568
  br i1 %.not.i, label %"_ZN4core3ptr111drop_in_place$LT$dyn$u20$tracing_core..subscriber..Subscriber$u2b$core..marker..Send$u2b$core..marker..Sync$GT$17ha1fbcc35e2f6724eE.exit", label %is_not_null.i, !dbg !1568

is_not_null.i:                                    ; preds = %start
  %3 = add i64 %2, -1, !dbg !1552
  call void @llvm.dbg.value(metadata !DIArgList(ptr %self.0, i64 %3), metadata !1556, metadata !DIExpression(DW_OP_LLVM_arg, 0, DW_OP_LLVM_arg, 1, DW_OP_constu, 18446744073709551600, DW_OP_and, DW_OP_constu, 1, DW_OP_mul, DW_OP_plus, DW_OP_plus_uconst, 16, DW_OP_stack_value, DW_OP_LLVM_fragment, 0, 64)), !dbg !1566
  %4 = and i64 %3, -16, !dbg !1552
  call void @llvm.dbg.value(metadata !DIArgList(ptr %self.0, i64 %4), metadata !1556, metadata !DIExpression(DW_OP_LLVM_arg, 0, DW_OP_LLVM_arg, 1, DW_OP_constu, 1, DW_OP_mul, DW_OP_plus, DW_OP_plus_uconst, 16, DW_OP_stack_value, DW_OP_LLVM_fragment, 0, 64)), !dbg !1566
  %5 = getelementptr i8, ptr %self.0, i64 %4, !dbg !1552
  call void @llvm.dbg.value(metadata ptr %5, metadata !1556, metadata !DIExpression(DW_OP_plus_uconst, 16, DW_OP_stack_value, DW_OP_LLVM_fragment, 0, 64)), !dbg !1566
  %_3.0 = getelementptr i8, ptr %5, i64 16, !dbg !1552
  call void @llvm.dbg.value(metadata ptr %_3.0, metadata !1556, metadata !DIExpression(DW_OP_LLVM_fragment, 0, 64)), !dbg !1566
  tail call void %self.1.val(ptr noundef nonnull align 1 %_3.0), !dbg !1568
  br label %"_ZN4core3ptr111drop_in_place$LT$dyn$u20$tracing_core..subscriber..Subscriber$u2b$core..marker..Send$u2b$core..marker..Sync$GT$17ha1fbcc35e2f6724eE.exit", !dbg !1568

"_ZN4core3ptr111drop_in_place$LT$dyn$u20$tracing_core..subscriber..Subscriber$u2b$core..marker..Send$u2b$core..marker..Sync$GT$17ha1fbcc35e2f6724eE.exit": ; preds = %start, %is_not_null.i
  tail call void @llvm.dbg.value(metadata ptr %self.0, metadata !1569, metadata !DIExpression(DW_OP_LLVM_fragment, 0, 64)), !dbg !1586
  tail call void @llvm.dbg.value(metadata ptr %self.1, metadata !1569, metadata !DIExpression(DW_OP_LLVM_fragment, 64, 64)), !dbg !1586
  tail call void @llvm.dbg.value(metadata ptr %self, metadata !1569, metadata !DIExpression(DW_OP_plus_uconst, 16, DW_OP_stack_value, DW_OP_LLVM_fragment, 128, 64)), !dbg !1586
  call void @llvm.dbg.value(metadata ptr undef, metadata !1588, metadata !DIExpression()), !dbg !1594
  call void @llvm.dbg.value(metadata i64 1, metadata !1596, metadata !DIExpression()), !dbg !1607
  call void @llvm.dbg.value(metadata i8 1, metadata !1606, metadata !DIExpression()), !dbg !1607
  call void @llvm.dbg.value(metadata i64 1, metadata !1625, metadata !DIExpression()), !dbg !1633
  call void @llvm.dbg.value(metadata i8 1, metadata !1632, metadata !DIExpression()), !dbg !1633
  call void @llvm.dbg.value(metadata i8 2, metadata !1635, metadata !DIExpression()), !dbg !1641
  call void @llvm.dbg.value(metadata ptr undef, metadata !1616, metadata !DIExpression()), !dbg !1643
  call void @llvm.dbg.value(metadata ptr undef, metadata !1644, metadata !DIExpression()), !dbg !1671
  call void @llvm.dbg.value(metadata ptr %self.0, metadata !1673, metadata !DIExpression(DW_OP_LLVM_fragment, 0, 64)), !dbg !1681
  call void @llvm.dbg.value(metadata ptr poison, metadata !1673, metadata !DIExpression(DW_OP_LLVM_fragment, 64, 64)), !dbg !1681
  call void @llvm.dbg.value(metadata ptr %self.0, metadata !1665, metadata !DIExpression(DW_OP_LLVM_fragment, 0, 64)), !dbg !1683
  call void @llvm.dbg.value(metadata ptr poison, metadata !1665, metadata !DIExpression(DW_OP_LLVM_fragment, 64, 64)), !dbg !1683
  %_15.i.i = icmp eq ptr %self.0, inttoptr (i64 -1 to ptr), !dbg !1684
  br i1 %_15.i.i, label %"_ZN4core3ptr163drop_in_place$LT$alloc..sync..Weak$LT$dyn$u20$tracing_core..subscriber..Subscriber$u2b$core..marker..Send$u2b$core..marker..Sync$C$$RF$alloc..alloc..Global$GT$$GT$17h6cc329b2d90cf563E.exit", label %bb7.i.i, !dbg !1685

bb7.i.i:                                          ; preds = %"_ZN4core3ptr111drop_in_place$LT$dyn$u20$tracing_core..subscriber..Subscriber$u2b$core..marker..Send$u2b$core..marker..Sync$GT$17ha1fbcc35e2f6724eE.exit"
  %_18.i.i = getelementptr inbounds i8, ptr %self.0, i64 8, !dbg !1686
  call void @llvm.dbg.value(metadata ptr %_18.i.i, metadata !1617, metadata !DIExpression(DW_OP_LLVM_fragment, 0, 64)), !dbg !1687
  call void @llvm.dbg.value(metadata ptr %_18.i.i, metadata !1622, metadata !DIExpression(DW_OP_LLVM_fragment, 0, 64)), !dbg !1688
  call void @llvm.dbg.value(metadata ptr %_18.i.i, metadata !1605, metadata !DIExpression()), !dbg !1607
  call void @llvm.dbg.value(metadata ptr %self.0, metadata !1617, metadata !DIExpression(DW_OP_LLVM_fragment, 64, 64)), !dbg !1687
  call void @llvm.dbg.value(metadata ptr %self.0, metadata !1622, metadata !DIExpression(DW_OP_LLVM_fragment, 64, 64)), !dbg !1688
  call void @llvm.dbg.value(metadata ptr %_18.i.i, metadata !1631, metadata !DIExpression()), !dbg !1633
  %6 = atomicrmw sub ptr %_18.i.i, i64 1 release, align 8, !dbg !1689, !noalias !1690
  %7 = icmp eq i64 %6, 1, !dbg !1695
  br i1 %7, label %bb1.i.i, label %"_ZN4core3ptr163drop_in_place$LT$alloc..sync..Weak$LT$dyn$u20$tracing_core..subscriber..Subscriber$u2b$core..marker..Send$u2b$core..marker..Sync$C$$RF$alloc..alloc..Global$GT$$GT$17h6cc329b2d90cf563E.exit", !dbg !1695

bb1.i.i:                                          ; preds = %bb7.i.i
  fence acquire, !dbg !1696
  call void @llvm.dbg.value(metadata ptr poison, metadata !1697, metadata !DIExpression(DW_OP_LLVM_fragment, 0, 64)), !dbg !1717
  call void @llvm.dbg.value(metadata ptr poison, metadata !1719, metadata !DIExpression(DW_OP_LLVM_fragment, 0, 64)), !dbg !1725
  call void @llvm.dbg.value(metadata ptr %self.1, metadata !1697, metadata !DIExpression(DW_OP_LLVM_fragment, 64, 64)), !dbg !1717
  call void @llvm.dbg.value(metadata ptr %self.1, metadata !1719, metadata !DIExpression(DW_OP_LLVM_fragment, 64, 64)), !dbg !1725
  %8 = getelementptr inbounds i8, ptr %self.1, i64 8, !dbg !1727
  %9 = load i64, ptr %8, align 8, !dbg !1727, !range !1728, !invariant.load !24, !noalias !1690
  %10 = tail call i64 @llvm.umax.i64(i64 %2, i64 8), !dbg !1727
  %11 = add nuw i64 %10, 15, !dbg !1727
  %12 = add i64 %11, %9, !dbg !1727
  %13 = sub i64 0, %10, !dbg !1727
  %14 = and i64 %12, %13, !dbg !1727
  call void @llvm.dbg.value(metadata i64 %14, metadata !1714, metadata !DIExpression()), !dbg !1729
  call void @llvm.dbg.value(metadata i64 %14, metadata !1730, metadata !DIExpression()), !dbg !1738
  call void @llvm.dbg.value(metadata i64 %10, metadata !1716, metadata !DIExpression()), !dbg !1729
  call void @llvm.dbg.value(metadata i64 %10, metadata !1737, metadata !DIExpression()), !dbg !1738
  call void @llvm.dbg.value(metadata i64 %10, metadata !1740, metadata !DIExpression()), !dbg !1748
  %15 = icmp ult i64 %2, -9223372036854775807, !dbg !1750
  tail call void @llvm.assume(i1 %15), !dbg !1750
  call void @llvm.dbg.value(metadata ptr undef, metadata !1751, metadata !DIExpression()), !dbg !1766
  call void @llvm.dbg.value(metadata ptr %self.0, metadata !1763, metadata !DIExpression()), !dbg !1766
  call void @llvm.dbg.value(metadata i64 %10, metadata !1764, metadata !DIExpression(DW_OP_LLVM_fragment, 0, 64)), !dbg !1766
  call void @llvm.dbg.value(metadata i64 %14, metadata !1764, metadata !DIExpression(DW_OP_LLVM_fragment, 64, 64)), !dbg !1766
  call void @llvm.dbg.value(metadata i64 %10, metadata !1768, metadata !DIExpression(DW_OP_LLVM_fragment, 0, 64)), !dbg !1777
  call void @llvm.dbg.value(metadata i64 %14, metadata !1768, metadata !DIExpression(DW_OP_LLVM_fragment, 64, 64)), !dbg !1777
  call void @llvm.dbg.value(metadata ptr undef, metadata !1775, metadata !DIExpression()), !dbg !1777
  call void @llvm.dbg.value(metadata ptr %self.0, metadata !1776, metadata !DIExpression()), !dbg !1777
  %16 = icmp eq i64 %14, 0, !dbg !1779
  br i1 %16, label %"_ZN4core3ptr163drop_in_place$LT$alloc..sync..Weak$LT$dyn$u20$tracing_core..subscriber..Subscriber$u2b$core..marker..Send$u2b$core..marker..Sync$C$$RF$alloc..alloc..Global$GT$$GT$17h6cc329b2d90cf563E.exit", label %bb1.i.i.i.i, !dbg !1779

bb1.i.i.i.i:                                      ; preds = %bb1.i.i
  call void @llvm.dbg.value(metadata ptr %self.0, metadata !1780, metadata !DIExpression()), !dbg !1788
  call void @llvm.dbg.value(metadata i64 %10, metadata !1787, metadata !DIExpression(DW_OP_LLVM_fragment, 0, 64)), !dbg !1788
  call void @llvm.dbg.value(metadata i64 %14, metadata !1787, metadata !DIExpression(DW_OP_LLVM_fragment, 64, 64)), !dbg !1788
  tail call void @__rust_dealloc(ptr noundef nonnull %self.0, i64 noundef %14, i64 noundef %10) #20, !dbg !1790, !noalias !1690
  br label %"_ZN4core3ptr163drop_in_place$LT$alloc..sync..Weak$LT$dyn$u20$tracing_core..subscriber..Subscriber$u2b$core..marker..Send$u2b$core..marker..Sync$C$$RF$alloc..alloc..Global$GT$$GT$17h6cc329b2d90cf563E.exit", !dbg !1791

"_ZN4core3ptr163drop_in_place$LT$alloc..sync..Weak$LT$dyn$u20$tracing_core..subscriber..Subscriber$u2b$core..marker..Send$u2b$core..marker..Sync$C$$RF$alloc..alloc..Global$GT$$GT$17h6cc329b2d90cf563E.exit": ; preds = %"_ZN4core3ptr111drop_in_place$LT$dyn$u20$tracing_core..subscriber..Subscriber$u2b$core..marker..Send$u2b$core..marker..Sync$GT$17ha1fbcc35e2f6724eE.exit", %bb7.i.i, %bb1.i.i, %bb1.i.i.i.i
  ret void, !dbg !1792
}

; alloc::sync::Weak<T,A>::upgrade::checked_increment::panic_cold_display
; Function Attrs: cold noinline noreturn nonlazybind uwtable
define internal fastcc void @"_ZN5alloc4sync17Weak$LT$T$C$A$GT$7upgrade17checked_increment18panic_cold_display17h5e45acdaede193bbE"() unnamed_addr #2 !dbg !1793 {
start:
  %_5 = alloca [16 x i8], align 8
  %_3 = alloca [48 x i8], align 8
  tail call void @llvm.dbg.value(metadata ptr @alloc_b99730e73100e73a81f4fbfe74b3821d, metadata !1799, metadata !DIExpression()), !dbg !1804
  tail call void @llvm.dbg.value(metadata ptr @alloc_7742fec9f2f2fc19935953991c560506, metadata !1798, metadata !DIExpression()), !dbg !1811
  tail call void @llvm.dbg.value(metadata ptr @alloc_7742fec9f2f2fc19935953991c560506, metadata !1809, metadata !DIExpression()), !dbg !1812
  call void @llvm.lifetime.start.p0(i64 48, ptr nonnull %_3), !dbg !1805
  call void @llvm.lifetime.start.p0(i64 16, ptr nonnull %_5), !dbg !1805
  store ptr @alloc_7742fec9f2f2fc19935953991c560506, ptr %_5, align 8, !dbg !1805
  %_6.sroa.4.0..sroa_idx = getelementptr inbounds i8, ptr %_5, i64 8, !dbg !1805
  store ptr @"_ZN44_$LT$$RF$T$u20$as$u20$core..fmt..Display$GT$3fmt17h8ba88027a6549233E", ptr %_6.sroa.4.0..sroa_idx, align 8, !dbg !1805
  tail call void @llvm.dbg.value(metadata ptr %_5, metadata !1803, metadata !DIExpression()), !dbg !1804
  store ptr @alloc_b99730e73100e73a81f4fbfe74b3821d, ptr %_3, align 8, !dbg !1813
  %0 = getelementptr inbounds i8, ptr %_3, i64 8, !dbg !1813
  store i64 1, ptr %0, align 8, !dbg !1813
  %1 = getelementptr inbounds i8, ptr %_3, i64 32, !dbg !1813
  store ptr null, ptr %1, align 8, !dbg !1813
  %2 = getelementptr inbounds i8, ptr %_3, i64 16, !dbg !1813
  store ptr %_5, ptr %2, align 8, !dbg !1813
  %3 = getelementptr inbounds i8, ptr %_3, i64 24, !dbg !1813
  store i64 1, ptr %3, align 8, !dbg !1813
; call core::panicking::panic_fmt
  call void @_ZN4core9panicking9panic_fmt17h3111a7beccfa68f5E(ptr noalias nocapture noundef nonnull readonly align 8 dereferenceable(48) %_3, ptr noalias noundef nonnull readonly align 8 dereferenceable(24) @alloc_94ba6b0fb563836cd65c60d36566c8a2) #31, !dbg !1814
  unreachable, !dbg !1814
}

; alloc::raw_vec::finish_grow
; Function Attrs: noinline nounwind nonlazybind uwtable
define internal fastcc void @_ZN5alloc7raw_vec11finish_grow17h97aad9715dd5b12bE(ptr dead_on_unwind noalias nocapture noundef writable writeonly align 8 dereferenceable(24) %_0, i64 noundef %0, i64 %1, ptr noalias nocapture noundef readonly align 8 dereferenceable(24) %current_memory) unnamed_addr #4 !dbg !1815 {
start:
  call void @llvm.dbg.declare(metadata ptr undef, metadata !1969, metadata !DIExpression()), !dbg !2001
  call void @llvm.dbg.declare(metadata ptr undef, metadata !2003, metadata !DIExpression()), !dbg !2022
  tail call void @llvm.dbg.value(metadata i64 %0, metadata !1894, metadata !DIExpression(DW_OP_LLVM_fragment, 0, 64)), !dbg !2024
  tail call void @llvm.dbg.value(metadata i64 %0, metadata !1996, metadata !DIExpression(DW_OP_LLVM_fragment, 0, 64)), !dbg !2025
  tail call void @llvm.dbg.value(metadata i64 %1, metadata !1894, metadata !DIExpression(DW_OP_LLVM_fragment, 64, 64)), !dbg !2024
  tail call void @llvm.dbg.value(metadata i64 %1, metadata !1996, metadata !DIExpression(DW_OP_LLVM_fragment, 64, 64)), !dbg !2025
  call void @llvm.dbg.declare(metadata ptr %current_memory, metadata !1895, metadata !DIExpression()), !dbg !2026
  tail call void @llvm.dbg.value(metadata ptr undef, metadata !1896, metadata !DIExpression()), !dbg !2024
  %2 = icmp eq i64 %0, 0, !dbg !2027
  br i1 %2, label %bb8, label %bb9, !dbg !2028

bb9:                                              ; preds = %start
  tail call void @llvm.dbg.value(metadata i64 %0, metadata !1897, metadata !DIExpression(DW_OP_LLVM_fragment, 0, 64)), !dbg !2029
  tail call void @llvm.dbg.value(metadata i64 %1, metadata !1897, metadata !DIExpression(DW_OP_LLVM_fragment, 64, 64)), !dbg !2029
  %3 = getelementptr inbounds i8, ptr %current_memory, i64 8, !dbg !2030
  %4 = load i64, ptr %3, align 8, !dbg !2030, !range !2031, !noundef !24
  %5 = icmp eq i64 %4, 0, !dbg !2030
  br i1 %5, label %bb2, label %bb3, !dbg !2030

bb8:                                              ; preds = %start
  tail call void @llvm.dbg.value(metadata i64 0, metadata !1899, metadata !DIExpression(DW_OP_LLVM_fragment, 0, 64)), !dbg !2032
  tail call void @llvm.dbg.value(metadata i64 0, metadata !2033, metadata !DIExpression(DW_OP_LLVM_fragment, 0, 64)), !dbg !2043
  tail call void @llvm.dbg.value(metadata i64 undef, metadata !1899, metadata !DIExpression(DW_OP_LLVM_fragment, 64, 64)), !dbg !2032
  tail call void @llvm.dbg.value(metadata i64 undef, metadata !2033, metadata !DIExpression(DW_OP_LLVM_fragment, 64, 64)), !dbg !2043
  tail call void @llvm.dbg.value(metadata i64 0, metadata !2040, metadata !DIExpression(DW_OP_LLVM_fragment, 0, 64)), !dbg !2045
  tail call void @llvm.dbg.value(metadata i64 undef, metadata !2040, metadata !DIExpression(DW_OP_LLVM_fragment, 64, 64)), !dbg !2045
  %6 = getelementptr inbounds i8, ptr %_0, i64 8, !dbg !2046
  store i64 0, ptr %6, align 8, !dbg !2046
  br label %bb7, !dbg !2047

bb3:                                              ; preds = %bb9
  %ptr = load ptr, ptr %current_memory, align 8, !dbg !2048, !nonnull !24, !noundef !24
  tail call void @llvm.dbg.value(metadata ptr %ptr, metadata !1957, metadata !DIExpression()), !dbg !2049
  %7 = getelementptr inbounds i8, ptr %current_memory, i64 16, !dbg !2050
  %8 = load i64, ptr %7, align 8, !dbg !2050, !noundef !24
  tail call void @llvm.dbg.value(metadata i64 %4, metadata !1959, metadata !DIExpression(DW_OP_LLVM_fragment, 0, 64)), !dbg !2049
  tail call void @llvm.dbg.value(metadata i64 %8, metadata !1959, metadata !DIExpression(DW_OP_LLVM_fragment, 64, 64)), !dbg !2049
  %cond = icmp eq i64 %4, %0, !dbg !2051
  tail call void @llvm.dbg.value(metadata i1 %cond, metadata !2052, metadata !DIExpression(DW_OP_LLVM_convert, 1, DW_ATE_unsigned, DW_OP_LLVM_convert, 8, DW_ATE_unsigned, DW_OP_stack_value)), !dbg !2060
  tail call void @llvm.assume(i1 %cond), !dbg !2062
  call void @llvm.dbg.value(metadata ptr undef, metadata !2063, metadata !DIExpression()), !dbg !2071
  call void @llvm.dbg.value(metadata ptr %ptr, metadata !2068, metadata !DIExpression()), !dbg !2071
  call void @llvm.dbg.value(metadata i64 %4, metadata !2069, metadata !DIExpression(DW_OP_LLVM_fragment, 0, 64)), !dbg !2071
  call void @llvm.dbg.value(metadata i64 %8, metadata !2069, metadata !DIExpression(DW_OP_LLVM_fragment, 64, 64)), !dbg !2071
  call void @llvm.dbg.value(metadata i64 %0, metadata !2070, metadata !DIExpression(DW_OP_LLVM_fragment, 0, 64)), !dbg !2071
  call void @llvm.dbg.value(metadata i64 %1, metadata !2070, metadata !DIExpression(DW_OP_LLVM_fragment, 64, 64)), !dbg !2071
  call void @llvm.dbg.value(metadata i64 %4, metadata !2073, metadata !DIExpression(DW_OP_LLVM_fragment, 0, 64)), !dbg !2117
  call void @llvm.dbg.value(metadata i64 %8, metadata !2073, metadata !DIExpression(DW_OP_LLVM_fragment, 64, 64)), !dbg !2117
  call void @llvm.dbg.value(metadata i64 %0, metadata !2081, metadata !DIExpression(DW_OP_LLVM_fragment, 0, 64)), !dbg !2117
  call void @llvm.dbg.value(metadata i64 %1, metadata !2081, metadata !DIExpression(DW_OP_LLVM_fragment, 64, 64)), !dbg !2117
  call void @llvm.dbg.value(metadata ptr undef, metadata !2079, metadata !DIExpression()), !dbg !2117
  call void @llvm.dbg.value(metadata ptr %ptr, metadata !2080, metadata !DIExpression()), !dbg !2117
  call void @llvm.dbg.value(metadata i1 false, metadata !2082, metadata !DIExpression(DW_OP_LLVM_convert, 1, DW_ATE_unsigned, DW_OP_LLVM_convert, 8, DW_ATE_unsigned, DW_OP_stack_value)), !dbg !2117
  call void @llvm.dbg.value(metadata i64 %8, metadata !2083, metadata !DIExpression()), !dbg !2119
  %9 = icmp eq i64 %8, 0, !dbg !2120
  br i1 %9, label %bb1.i.i, label %bb3.i.i, !dbg !2120

bb1.i.i:                                          ; preds = %bb3
  call void @llvm.dbg.value(metadata i64 %0, metadata !2121, metadata !DIExpression(DW_OP_LLVM_fragment, 0, 64)), !dbg !2139
  call void @llvm.dbg.value(metadata i64 %1, metadata !2121, metadata !DIExpression(DW_OP_LLVM_fragment, 64, 64)), !dbg !2139
  call void @llvm.dbg.value(metadata ptr undef, metadata !2127, metadata !DIExpression()), !dbg !2139
  call void @llvm.dbg.value(metadata i1 false, metadata !2128, metadata !DIExpression(DW_OP_LLVM_convert, 1, DW_ATE_unsigned, DW_OP_LLVM_convert, 8, DW_ATE_unsigned, DW_OP_stack_value)), !dbg !2139
  call void @llvm.dbg.value(metadata i64 %1, metadata !2129, metadata !DIExpression()), !dbg !2141
  %10 = icmp eq i64 %1, 0, !dbg !2142
  br i1 %10, label %bb2.i.i.i, label %bb5.i.i.i, !dbg !2142

bb2.i.i.i:                                        ; preds = %bb1.i.i
  call void @llvm.dbg.value(metadata ptr undef, metadata !2143, metadata !DIExpression()), !dbg !2149
  call void @llvm.dbg.value(metadata i64 %0, metadata !2151, metadata !DIExpression()), !dbg !2157
  %ptr.i.i.i.i = getelementptr i8, ptr null, i64 %0, !dbg !2159
  br label %bb6, !dbg !2160

bb5.i.i.i:                                        ; preds = %bb1.i.i
  call void @llvm.dbg.value(metadata ptr @__rust_no_alloc_shim_is_unstable, metadata !2161, metadata !DIExpression()), !dbg !2167
  call void @llvm.dbg.value(metadata i64 %0, metadata !2173, metadata !DIExpression(DW_OP_LLVM_fragment, 0, 64)), !dbg !2175
  call void @llvm.dbg.value(metadata i64 %1, metadata !2173, metadata !DIExpression(DW_OP_LLVM_fragment, 64, 64)), !dbg !2175
  %11 = load volatile i8, ptr @__rust_no_alloc_shim_is_unstable, align 1, !dbg !2176
  %_0.i.i.i.i = tail call noalias noundef ptr @__rust_alloc(i64 noundef %1, i64 noundef %0) #20, !dbg !2177
  call void @llvm.dbg.value(metadata ptr %_0.i.i.i.i, metadata !2131, metadata !DIExpression()), !dbg !2178
  call void @llvm.dbg.value(metadata ptr %_0.i.i.i.i, metadata !2131, metadata !DIExpression()), !dbg !2178
  call void @llvm.dbg.value(metadata ptr %_0.i.i.i.i, metadata !2179, metadata !DIExpression()), !dbg !2199
  br label %bb6, !dbg !2201

bb3.i.i:                                          ; preds = %bb3
  call void @llvm.dbg.value(metadata ptr undef, metadata !2085, metadata !DIExpression()), !dbg !2119
  call void @llvm.dbg.value(metadata i64 %1, metadata !2086, metadata !DIExpression()), !dbg !2202
  %cond.i.i = icmp ule i64 %8, %1, !dbg !2203
  call void @llvm.dbg.value(metadata i1 %cond.i.i, metadata !2204, metadata !DIExpression(DW_OP_LLVM_convert, 1, DW_ATE_unsigned, DW_OP_LLVM_convert, 8, DW_ATE_unsigned, DW_OP_stack_value)), !dbg !2208
  tail call void @llvm.assume(i1 %cond.i.i), !dbg !2210
  call void @llvm.dbg.value(metadata ptr %ptr, metadata !2211, metadata !DIExpression()), !dbg !2219
  call void @llvm.dbg.value(metadata i64 %4, metadata !2217, metadata !DIExpression(DW_OP_LLVM_fragment, 0, 64)), !dbg !2219
  call void @llvm.dbg.value(metadata i64 %8, metadata !2217, metadata !DIExpression(DW_OP_LLVM_fragment, 64, 64)), !dbg !2219
  call void @llvm.dbg.value(metadata i64 %1, metadata !2218, metadata !DIExpression()), !dbg !2219
  %12 = tail call noundef ptr @__rust_realloc(ptr noundef nonnull %ptr, i64 noundef %8, i64 noundef %0, i64 noundef %1) #20, !dbg !2221
  call void @llvm.dbg.value(metadata ptr %12, metadata !2088, metadata !DIExpression()), !dbg !2222
  call void @llvm.dbg.value(metadata ptr %12, metadata !2223, metadata !DIExpression()), !dbg !2227
  br label %bb6, !dbg !2229

bb2:                                              ; preds = %bb9
  call void @llvm.dbg.value(metadata ptr undef, metadata !2230, metadata !DIExpression()), !dbg !2236
  call void @llvm.dbg.value(metadata i64 %0, metadata !2235, metadata !DIExpression(DW_OP_LLVM_fragment, 0, 64)), !dbg !2236
  call void @llvm.dbg.value(metadata i64 %1, metadata !2235, metadata !DIExpression(DW_OP_LLVM_fragment, 64, 64)), !dbg !2236
  call void @llvm.dbg.value(metadata i64 %0, metadata !2121, metadata !DIExpression(DW_OP_LLVM_fragment, 0, 64)), !dbg !2238
  call void @llvm.dbg.value(metadata i64 %1, metadata !2121, metadata !DIExpression(DW_OP_LLVM_fragment, 64, 64)), !dbg !2238
  call void @llvm.dbg.value(metadata ptr undef, metadata !2127, metadata !DIExpression()), !dbg !2238
  call void @llvm.dbg.value(metadata i1 false, metadata !2128, metadata !DIExpression(DW_OP_LLVM_convert, 1, DW_ATE_unsigned, DW_OP_LLVM_convert, 8, DW_ATE_unsigned, DW_OP_stack_value)), !dbg !2238
  call void @llvm.dbg.value(metadata i64 %1, metadata !2129, metadata !DIExpression()), !dbg !2240
  %13 = icmp eq i64 %1, 0, !dbg !2241
  br i1 %13, label %bb2.i.i34, label %bb5.i.i, !dbg !2241

bb2.i.i34:                                        ; preds = %bb2
  call void @llvm.dbg.value(metadata ptr undef, metadata !2143, metadata !DIExpression()), !dbg !2242
  call void @llvm.dbg.value(metadata i64 %0, metadata !2151, metadata !DIExpression()), !dbg !2244
  %ptr.i.i.i = getelementptr i8, ptr null, i64 %0, !dbg !2246
  br label %bb6, !dbg !2247

bb5.i.i:                                          ; preds = %bb2
  call void @llvm.dbg.value(metadata ptr @__rust_no_alloc_shim_is_unstable, metadata !2161, metadata !DIExpression()), !dbg !2248
  call void @llvm.dbg.value(metadata i64 %0, metadata !2173, metadata !DIExpression(DW_OP_LLVM_fragment, 0, 64)), !dbg !2251
  call void @llvm.dbg.value(metadata i64 %1, metadata !2173, metadata !DIExpression(DW_OP_LLVM_fragment, 64, 64)), !dbg !2251
  %14 = load volatile i8, ptr @__rust_no_alloc_shim_is_unstable, align 1, !dbg !2252
  %_0.i.i.i = tail call noalias noundef ptr @__rust_alloc(i64 noundef %1, i64 noundef %0) #20, !dbg !2253
  call void @llvm.dbg.value(metadata ptr %_0.i.i.i, metadata !2131, metadata !DIExpression()), !dbg !2254
  call void @llvm.dbg.value(metadata ptr %_0.i.i.i, metadata !2179, metadata !DIExpression()), !dbg !2255
  br label %bb6, !dbg !2257

bb6:                                              ; preds = %bb5.i.i, %bb2.i.i34, %bb3.i.i, %bb5.i.i.i, %bb2.i.i.i
  %_0.sroa.0.0.i.i33.pn = phi ptr [ %12, %bb3.i.i ], [ %ptr.i.i.i.i, %bb2.i.i.i ], [ %_0.i.i.i.i, %bb5.i.i.i ], [ %ptr.i.i.i, %bb2.i.i34 ], [ %_0.i.i.i, %bb5.i.i ]
  tail call void @llvm.dbg.value(metadata i64 poison, metadata !1939, metadata !DIExpression(DW_OP_LLVM_fragment, 64, 64)), !dbg !2258
  tail call void @llvm.dbg.value(metadata ptr %_0.sroa.0.0.i.i33.pn, metadata !1939, metadata !DIExpression(DW_OP_LLVM_fragment, 0, 64)), !dbg !2258
  tail call void @llvm.dbg.value(metadata ptr %_0.sroa.0.0.i.i33.pn, metadata !2018, metadata !DIExpression(DW_OP_LLVM_fragment, 0, 64)), !dbg !2259
  tail call void @llvm.dbg.value(metadata i64 poison, metadata !2018, metadata !DIExpression(DW_OP_LLVM_fragment, 64, 64)), !dbg !2259
  tail call void @llvm.dbg.value(metadata ptr undef, metadata !2019, metadata !DIExpression()), !dbg !2259
  %15 = icmp eq ptr %_0.sroa.0.0.i.i33.pn, null, !dbg !2260
  %16 = getelementptr inbounds i8, ptr %_0, i64 8, !dbg !2259
  %17 = getelementptr inbounds i8, ptr %_0, i64 16, !dbg !2259
  br i1 %15, label %bb13, label %bb14, !dbg !2261

bb14:                                             ; preds = %bb6
  tail call void @llvm.dbg.value(metadata i64 %1, metadata !1939, metadata !DIExpression(DW_OP_LLVM_fragment, 64, 64)), !dbg !2258
  tail call void @llvm.dbg.value(metadata i64 %1, metadata !2018, metadata !DIExpression(DW_OP_LLVM_fragment, 64, 64)), !dbg !2259
  tail call void @llvm.dbg.value(metadata ptr %_0.sroa.0.0.i.i33.pn, metadata !2020, metadata !DIExpression(DW_OP_LLVM_fragment, 0, 64)), !dbg !2262
  tail call void @llvm.dbg.value(metadata i64 %1, metadata !2020, metadata !DIExpression(DW_OP_LLVM_fragment, 64, 64)), !dbg !2262
  store ptr %_0.sroa.0.0.i.i33.pn, ptr %16, align 8, !dbg !2263
  store i64 %1, ptr %17, align 8, !dbg !2263
  br label %bb7, !dbg !2264

bb13:                                             ; preds = %bb6
  store i64 %0, ptr %16, align 8, !dbg !2265
  store i64 %1, ptr %17, align 8, !dbg !2265
  br label %bb7, !dbg !2266

bb7:                                              ; preds = %bb14, %bb13, %bb8
  %storemerge32 = phi i64 [ 1, %bb8 ], [ 0, %bb14 ], [ 1, %bb13 ], !dbg !2024
  store i64 %storemerge32, ptr %_0, align 8, !dbg !2024
  ret void, !dbg !2047
}

; alloc::raw_vec::RawVec<T,A>::grow_one
; Function Attrs: noinline nonlazybind uwtable
define internal fastcc void @"_ZN5alloc7raw_vec19RawVec$LT$T$C$A$GT$8grow_one17hffa2b55708b94644E"(ptr noalias nocapture noundef align 8 dereferenceable(16) %self) unnamed_addr #3 personality ptr @rust_eh_personality !dbg !2267 {
start:
  %_17.i = alloca [24 x i8], align 8
  %self5.i = alloca [24 x i8], align 8
  tail call void @llvm.dbg.value(metadata ptr %self, metadata !2273, metadata !DIExpression()), !dbg !2276
  %_3 = load i64, ptr %self, align 8, !dbg !2277, !noundef !24
  tail call void @llvm.experimental.noalias.scope.decl(metadata !2278), !dbg !2281
  call void @llvm.dbg.value(metadata i64 4, metadata !2282, metadata !DIExpression()), !dbg !2293
  call void @llvm.dbg.value(metadata i64 4, metadata !2336, metadata !DIExpression()), !dbg !2347
  call void @llvm.dbg.value(metadata ptr %self, metadata !2316, metadata !DIExpression()), !dbg !2349
  call void @llvm.dbg.value(metadata ptr %self, metadata !2350, metadata !DIExpression()), !dbg !2359
  call void @llvm.dbg.value(metadata i64 %_3, metadata !2317, metadata !DIExpression()), !dbg !2349
  call void @llvm.dbg.value(metadata i64 %_3, metadata !2361, metadata !DIExpression()), !dbg !2373
  call void @llvm.dbg.value(metadata i64 %_3, metadata !2375, metadata !DIExpression()), !dbg !2389
  call void @llvm.dbg.value(metadata i64 1, metadata !2318, metadata !DIExpression()), !dbg !2349
  call void @llvm.dbg.value(metadata i64 1, metadata !2369, metadata !DIExpression()), !dbg !2373
  call void @llvm.dbg.value(metadata i64 1, metadata !2385, metadata !DIExpression()), !dbg !2389
  call void @llvm.dbg.declare(metadata ptr %self5.i, metadata !2391, metadata !DIExpression()), !dbg !2420
  %0 = tail call { i64, i1 } @llvm.uadd.with.overflow.i64(i64 %_3, i64 1), !dbg !2422
  %_25.1.i = extractvalue { i64, i1 } %0, 1, !dbg !2422
  call void @llvm.dbg.value(metadata i1 %_25.1.i, metadata !2372, metadata !DIExpression(DW_OP_LLVM_convert, 1, DW_ATE_unsigned, DW_OP_LLVM_convert, 8, DW_ATE_unsigned, DW_OP_stack_value)), !dbg !2423
  call void @llvm.dbg.value(metadata i64 poison, metadata !2370, metadata !DIExpression()), !dbg !2423
  br i1 %_25.1.i, label %bb2, label %bb10.i, !dbg !2424

bb10.i:                                           ; preds = %start
  %_25.0.i = extractvalue { i64, i1 } %0, 0, !dbg !2422
  call void @llvm.dbg.value(metadata i64 %_25.0.i, metadata !2370, metadata !DIExpression()), !dbg !2423
  call void @llvm.dbg.value(metadata i64 %_25.0.i, metadata !2319, metadata !DIExpression()), !dbg !2427
  call void @llvm.dbg.value(metadata i64 %_25.0.i, metadata !2291, metadata !DIExpression()), !dbg !2428
  call void @llvm.dbg.value(metadata i64 %_25.0.i, metadata !2343, metadata !DIExpression()), !dbg !2430
  %v1.i = shl i64 %_3, 1, !dbg !2432
  call void @llvm.dbg.value(metadata i64 %v1.i, metadata !2289, metadata !DIExpression()), !dbg !2428
  call void @llvm.dbg.value(metadata i64 %v1.i, metadata !2341, metadata !DIExpression()), !dbg !2430
  call void @llvm.dbg.value(metadata i64 %v1.i, metadata !2433, metadata !DIExpression()), !dbg !2445
  call void @llvm.dbg.value(metadata i64 %_25.0.i, metadata !2441, metadata !DIExpression()), !dbg !2445
  call void @llvm.dbg.declare(metadata ptr undef, metadata !2442, metadata !DIExpression()), !dbg !2447
  %_0.sroa.0.0.sroa.speculated.i.i = tail call noundef i64 @llvm.umax.i64(i64 %v1.i, i64 %_25.0.i), !dbg !2445
  call void @llvm.dbg.value(metadata i64 %_0.sroa.0.0.sroa.speculated.i.i, metadata !2324, metadata !DIExpression()), !dbg !2448
  call void @llvm.dbg.value(metadata i64 %_0.sroa.0.0.sroa.speculated.i.i, metadata !2292, metadata !DIExpression()), !dbg !2293
  call void @llvm.dbg.value(metadata i64 %_0.sroa.0.0.sroa.speculated.i.i, metadata !2344, metadata !DIExpression()), !dbg !2347
  call void @llvm.dbg.value(metadata i64 4, metadata !2433, metadata !DIExpression()), !dbg !2449
  call void @llvm.dbg.value(metadata i64 %_0.sroa.0.0.sroa.speculated.i.i, metadata !2441, metadata !DIExpression()), !dbg !2449
  call void @llvm.dbg.declare(metadata ptr undef, metadata !2442, metadata !DIExpression()), !dbg !2451
  %_0.sroa.0.0.sroa.speculated.i27.i = tail call noundef i64 @llvm.umax.i64(i64 %_0.sroa.0.0.sroa.speculated.i.i, i64 4), !dbg !2449
  call void @llvm.dbg.value(metadata i64 %_0.sroa.0.0.sroa.speculated.i27.i, metadata !2325, metadata !DIExpression()), !dbg !2452
  call void @llvm.dbg.value(metadata i64 %_0.sroa.0.0.sroa.speculated.i27.i, metadata !2453, metadata !DIExpression()), !dbg !2460
  call void @llvm.dbg.value(metadata i64 %_0.sroa.0.0.sroa.speculated.i27.i, metadata !2358, metadata !DIExpression()), !dbg !2359
  call void @llvm.dbg.value(metadata i64 16, metadata !2462, metadata !DIExpression()), !dbg !2473
  call void @llvm.dbg.value(metadata i64 8, metadata !2469, metadata !DIExpression()), !dbg !2473
  call void @llvm.dbg.value(metadata i64 %_0.sroa.0.0.sroa.speculated.i27.i, metadata !2470, metadata !DIExpression()), !dbg !2473
  %_4.i.i = icmp ugt i64 %_0.sroa.0.0.sroa.speculated.i.i, 576460752303423487, !dbg !2475
  %array_size.i.i = shl nuw nsw i64 %_0.sroa.0.0.sroa.speculated.i27.i, 4, !dbg !2475
  %_0.sroa.3.0.i.i = select i1 %_4.i.i, i64 undef, i64 %array_size.i.i, !dbg !2475
  %_0.sroa.0.0.i.i = select i1 %_4.i.i, i64 0, i64 8, !dbg !2475
  call void @llvm.dbg.value(metadata i64 %_0.sroa.0.0.i.i, metadata !2327, metadata !DIExpression(DW_OP_LLVM_fragment, 0, 64)), !dbg !2476
  call void @llvm.dbg.value(metadata i64 %_0.sroa.3.0.i.i, metadata !2327, metadata !DIExpression(DW_OP_LLVM_fragment, 64, 64)), !dbg !2476
  call void @llvm.lifetime.start.p0(i64 24, ptr nonnull %self5.i), !dbg !2477, !noalias !2278
  call void @llvm.lifetime.start.p0(i64 24, ptr nonnull %_17.i), !dbg !2478, !noalias !2278
  %1 = getelementptr inbounds i8, ptr %self, i64 8, !dbg !2478
  call void @llvm.dbg.value(metadata ptr undef, metadata !2479, metadata !DIExpression()), !dbg !2492
  %2 = icmp eq i64 %_3, 0, !dbg !2494
  br i1 %2, label %"_ZN5alloc7raw_vec19RawVec$LT$T$C$A$GT$14current_memory17hf615e6d34a575acaE.exit.i", label %bb4.i.i, !dbg !2494

bb4.i.i:                                          ; preds = %bb10.i
  %self.val26.i = load ptr, ptr %1, align 8, !dbg !2478, !alias.scope !2278, !nonnull !24, !noundef !24
  call void @llvm.dbg.value(metadata i64 8, metadata !2486, metadata !DIExpression()), !dbg !2495
  call void @llvm.dbg.value(metadata i64 16, metadata !2496, metadata !DIExpression()), !dbg !2501
  call void @llvm.dbg.value(metadata i64 %_3, metadata !2500, metadata !DIExpression()), !dbg !2501
  %size.i.i = shl nuw i64 %_3, 4, !dbg !2503
  call void @llvm.dbg.value(metadata i64 %size.i.i, metadata !2488, metadata !DIExpression()), !dbg !2504
  call void @llvm.dbg.value(metadata i64 8, metadata !2490, metadata !DIExpression(DW_OP_LLVM_fragment, 0, 64)), !dbg !2505
  call void @llvm.dbg.value(metadata i64 %size.i.i, metadata !2490, metadata !DIExpression(DW_OP_LLVM_fragment, 64, 64)), !dbg !2505
  store ptr %self.val26.i, ptr %_17.i, align 8, !dbg !2506, !alias.scope !2507, !noalias !2278
  %_9.sroa.5.0._0.sroa_idx.i.i = getelementptr inbounds i8, ptr %_17.i, i64 16, !dbg !2506
  store i64 %size.i.i, ptr %_9.sroa.5.0._0.sroa_idx.i.i, align 8, !dbg !2506, !alias.scope !2507, !noalias !2278
  br label %"_ZN5alloc7raw_vec19RawVec$LT$T$C$A$GT$14current_memory17hf615e6d34a575acaE.exit.i", !dbg !2510

"_ZN5alloc7raw_vec19RawVec$LT$T$C$A$GT$14current_memory17hf615e6d34a575acaE.exit.i": ; preds = %bb4.i.i, %bb10.i
  %.sink.i.i = phi i64 [ 8, %bb4.i.i ], [ 0, %bb10.i ], !dbg !2492
  %3 = getelementptr inbounds i8, ptr %_17.i, i64 8, !dbg !2492
  store i64 %.sink.i.i, ptr %3, align 8, !dbg !2492, !alias.scope !2507, !noalias !2278
; call alloc::raw_vec::finish_grow
  call fastcc void @_ZN5alloc7raw_vec11finish_grow17h97aad9715dd5b12bE(ptr noalias nocapture noundef nonnull align 8 dereferenceable(24) %self5.i, i64 noundef %_0.sroa.0.0.i.i, i64 %_0.sroa.3.0.i.i, ptr noalias nocapture noundef nonnull readonly align 8 dereferenceable(24) %_17.i), !dbg !2477, !noalias !2278
  call void @llvm.lifetime.end.p0(i64 24, ptr nonnull %_17.i), !dbg !2511, !noalias !2278
  %_39.i = load i64, ptr %self5.i, align 8, !dbg !2512, !range !2513, !noalias !2278, !noundef !24
  %trunc.not.i = icmp eq i64 %_39.i, 0, !dbg !2514
  %4 = getelementptr inbounds i8, ptr %self5.i, i64 8, !dbg !2515
  br i1 %trunc.not.i, label %bb3, label %bb14.i, !dbg !2514

bb14.i:                                           ; preds = %"_ZN5alloc7raw_vec19RawVec$LT$T$C$A$GT$14current_memory17hf615e6d34a575acaE.exit.i"
  %e.0.i = load i64, ptr %4, align 8, !dbg !2516, !range !2031, !noalias !2278, !noundef !24
  %5 = getelementptr inbounds i8, ptr %self5.i, i64 16, !dbg !2516
  %e.1.i = load i64, ptr %5, align 8, !dbg !2516, !noalias !2278
  call void @llvm.lifetime.end.p0(i64 24, ptr nonnull %self5.i), !dbg !2517, !noalias !2278
  br label %bb2, !dbg !2518

bb2:                                              ; preds = %bb14.i, %start
  %_0.sroa.4.0.i.ph = phi i64 [ undef, %start ], [ %e.1.i, %bb14.i ]
  %_0.sroa.0.0.i.ph = phi i64 [ 0, %start ], [ %e.0.i, %bb14.i ]
  tail call void @llvm.dbg.value(metadata i64 %_0.sroa.0.0.i.ph, metadata !2274, metadata !DIExpression(DW_OP_LLVM_fragment, 0, 64)), !dbg !2521
  tail call void @llvm.dbg.value(metadata i64 %_0.sroa.4.0.i.ph, metadata !2274, metadata !DIExpression(DW_OP_LLVM_fragment, 64, 64)), !dbg !2521
; call alloc::raw_vec::handle_error
  tail call void @_ZN5alloc7raw_vec12handle_error17hbecd345b13023a3fE(i64 noundef %_0.sroa.0.0.i.ph, i64 %_0.sroa.4.0.i.ph) #31, !dbg !2522
  unreachable, !dbg !2522

bb3:                                              ; preds = %"_ZN5alloc7raw_vec19RawVec$LT$T$C$A$GT$14current_memory17hf615e6d34a575acaE.exit.i"
  %v.0.i = load ptr, ptr %4, align 8, !dbg !2523, !noalias !2278, !nonnull !24, !noundef !24
  call void @llvm.lifetime.end.p0(i64 24, ptr nonnull %self5.i), !dbg !2517, !noalias !2278
  call void @llvm.dbg.value(metadata ptr %v.0.i, metadata !2329, metadata !DIExpression(DW_OP_LLVM_fragment, 0, 64)), !dbg !2524
  call void @llvm.dbg.value(metadata ptr %v.0.i, metadata !2357, metadata !DIExpression(DW_OP_LLVM_fragment, 0, 64)), !dbg !2359
  call void @llvm.dbg.value(metadata i64 poison, metadata !2329, metadata !DIExpression(DW_OP_LLVM_fragment, 64, 64)), !dbg !2524
  call void @llvm.dbg.value(metadata i64 poison, metadata !2357, metadata !DIExpression(DW_OP_LLVM_fragment, 64, 64)), !dbg !2359
  store ptr %v.0.i, ptr %1, align 8, !dbg !2525, !alias.scope !2278
  store i64 %_0.sroa.0.0.sroa.speculated.i27.i, ptr %self, align 8, !dbg !2526, !alias.scope !2278
  ret void, !dbg !2527
}

; tracing_core::spin::once::Once<T>::call_once
; Function Attrs: nonlazybind uwtable
define internal fastcc void @"_ZN12tracing_core4spin4once13Once$LT$T$GT$9call_once17h0448dfad145d647aE"(ptr noalias nocapture noundef readonly align 8 dereferenceable(8) %builder) unnamed_addr #1 personality ptr @rust_eh_personality !dbg !2528 {
start:
  %_15 = alloca [32 x i8], align 8
  %_14.sroa.5 = alloca [32 x i8], align 8
  call void @llvm.dbg.declare(metadata ptr undef, metadata !2559, metadata !DIExpression(DW_OP_LLVM_fragment, 72, 56)), !dbg !2567
  tail call void @llvm.dbg.value(metadata i8 4, metadata !2568, metadata !DIExpression()), !dbg !2579
  tail call void @llvm.dbg.value(metadata i64 0, metadata !2581, metadata !DIExpression()), !dbg !2607
  tail call void @llvm.dbg.value(metadata i64 1, metadata !2604, metadata !DIExpression()), !dbg !2607
  tail call void @llvm.dbg.value(metadata i8 4, metadata !2605, metadata !DIExpression()), !dbg !2607
  tail call void @llvm.dbg.value(metadata i8 4, metadata !2606, metadata !DIExpression()), !dbg !2607
  tail call void @llvm.dbg.value(metadata i64 2, metadata !2609, metadata !DIExpression()), !dbg !2618
  tail call void @llvm.dbg.value(metadata i8 4, metadata !2617, metadata !DIExpression()), !dbg !2618
  tail call void @llvm.dbg.value(metadata i8 4, metadata !2578, metadata !DIExpression()), !dbg !2620
  tail call void @llvm.dbg.value(metadata ptr @_ZN12tracing_core8callsite16LOCKED_CALLSITES17he8d4287cb4f62c95E, metadata !2546, metadata !DIExpression()), !dbg !2622
  tail call void @llvm.dbg.value(metadata ptr @_ZN12tracing_core8callsite16LOCKED_CALLSITES17he8d4287cb4f62c95E, metadata !2623, metadata !DIExpression()), !dbg !2636
  tail call void @llvm.dbg.value(metadata ptr %builder, metadata !2547, metadata !DIExpression()), !dbg !2622
  tail call void @llvm.dbg.value(metadata ptr @_ZN12tracing_core8callsite16LOCKED_CALLSITES17he8d4287cb4f62c95E, metadata !2575, metadata !DIExpression()), !dbg !2579
  tail call void @llvm.dbg.value(metadata i8 4, metadata !2638, metadata !DIExpression()), !dbg !2645
  tail call void @llvm.dbg.value(metadata ptr @_ZN12tracing_core8callsite16LOCKED_CALLSITES17he8d4287cb4f62c95E, metadata !2644, metadata !DIExpression()), !dbg !2645
  %0 = load atomic i64, ptr @_ZN12tracing_core8callsite16LOCKED_CALLSITES17he8d4287cb4f62c95E seq_cst, align 8, !dbg !2647
  tail call void @llvm.dbg.value(metadata i64 %0, metadata !2548, metadata !DIExpression()), !dbg !2648
  %_5 = icmp eq i64 %0, 0, !dbg !2649
  br i1 %_5, label %bb1, label %bb10.preheader, !dbg !2649

bb10.preheader:                                   ; preds = %bb1, %start
  %status.sroa.0.1.ph = phi i64 [ %3, %bb1 ], [ %0, %start ]
  br label %bb10, !dbg !2650

bb1:                                              ; preds = %start
  tail call void @llvm.dbg.value(metadata ptr @_ZN12tracing_core8callsite16LOCKED_CALLSITES17he8d4287cb4f62c95E, metadata !2603, metadata !DIExpression()), !dbg !2607
  tail call void @llvm.dbg.value(metadata i8 4, metadata !2651, metadata !DIExpression()), !dbg !2663
  tail call void @llvm.dbg.value(metadata i8 4, metadata !2659, metadata !DIExpression()), !dbg !2663
  tail call void @llvm.dbg.value(metadata ptr @_ZN12tracing_core8callsite16LOCKED_CALLSITES17he8d4287cb4f62c95E, metadata !2656, metadata !DIExpression()), !dbg !2663
  tail call void @llvm.dbg.value(metadata i64 0, metadata !2657, metadata !DIExpression()), !dbg !2663
  tail call void @llvm.dbg.value(metadata i64 1, metadata !2658, metadata !DIExpression()), !dbg !2663
  %1 = cmpxchg ptr @_ZN12tracing_core8callsite16LOCKED_CALLSITES17he8d4287cb4f62c95E, i64 0, i64 1 seq_cst seq_cst, align 8, !dbg !2665
  %2 = extractvalue { i64, i1 } %1, 1, !dbg !2665
  %3 = extractvalue { i64, i1 } %1, 0, !dbg !2665
  br i1 %2, label %bb4, label %bb10.preheader, !dbg !2666

bb2:                                              ; preds = %bb10
  unreachable, !dbg !2667

bb4:                                              ; preds = %bb1
  tail call void @llvm.dbg.value(metadata i64 %3, metadata !2550, metadata !DIExpression()), !dbg !2668
  tail call void @llvm.dbg.value(metadata ptr @_ZN12tracing_core8callsite16LOCKED_CALLSITES17he8d4287cb4f62c95E, metadata !2559, metadata !DIExpression(DW_OP_LLVM_fragment, 0, 64)), !dbg !2669
  tail call void @llvm.dbg.value(metadata i8 1, metadata !2559, metadata !DIExpression(DW_OP_LLVM_fragment, 64, 8)), !dbg !2669
  call void @llvm.lifetime.start.p0(i64 32, ptr nonnull %_14.sroa.5), !dbg !2670
  call void @llvm.lifetime.start.p0(i64 32, ptr nonnull %_15), !dbg !2671, !unsafe_inst !2672
  %builder.val = load ptr, ptr %builder, align 8, !dbg !2671, !nonnull !24, !align !838, !noundef !24
  call void @llvm.dbg.value(metadata ptr undef, metadata !2673, metadata !DIExpression(DW_OP_deref)), !dbg !2681
  call void @llvm.dbg.value(metadata ptr %builder.val, metadata !2683, metadata !DIExpression(DW_OP_plus_uconst, 48, DW_OP_stack_value)), !dbg !2692
  call void @llvm.dbg.value(metadata ptr %builder.val, metadata !2694, metadata !DIExpression(DW_OP_plus_uconst, 48, DW_OP_stack_value)), !dbg !2702
  call void @llvm.dbg.value(metadata ptr null, metadata !2701, metadata !DIExpression()), !dbg !2702
  call void @llvm.dbg.value(metadata ptr null, metadata !2704, metadata !DIExpression()), !dbg !2715
  call void @llvm.dbg.value(metadata ptr null, metadata !2717, metadata !DIExpression()), !dbg !2724
  call void @llvm.dbg.value(metadata ptr %builder.val, metadata !2726, metadata !DIExpression(DW_OP_plus_uconst, 48, DW_OP_stack_value)), !dbg !2734
  %_12.i = getelementptr inbounds i8, ptr %builder.val, i64 48, !dbg !2736
  call void @llvm.dbg.value(metadata ptr %_12.i, metadata !2711, metadata !DIExpression()), !dbg !2715
  call void @llvm.dbg.value(metadata ptr %_12.i, metadata !2737, metadata !DIExpression()), !dbg !2744
  call void @llvm.dbg.value(metadata ptr %_12.i, metadata !2723, metadata !DIExpression()), !dbg !2724
  %4 = load ptr, ptr %_12.i, align 8, !dbg !2746, !noalias !2747, !noundef !24
  call void @llvm.dbg.value(metadata ptr %4, metadata !2713, metadata !DIExpression()), !dbg !2750
  store ptr null, ptr %_12.i, align 8, !dbg !2751, !noalias !2747
  %5 = icmp eq ptr %4, null, !dbg !2752
  br i1 %5, label %bb2.i, label %bb3.i, !dbg !2753

bb2.i:                                            ; preds = %bb4
; invoke core::panicking::panic
  invoke void @_ZN4core9panicking5panic17hdc606204151d5569E(ptr noalias noundef nonnull readonly align 1 @alloc_e7155f9cf10893ab2e58393a6c5d3d17, i64 noundef 42, ptr noalias noundef nonnull readonly align 8 dereferenceable(24) @alloc_4fdaa2f791b8103cdee888034880dd0e) #31
          to label %.noexc unwind label %cleanup8, !dbg !2754

.noexc:                                           ; preds = %bb2.i
  unreachable, !dbg !2754

bb3.i:                                            ; preds = %bb4
  call void @llvm.dbg.value(metadata ptr %4, metadata !2679, metadata !DIExpression()), !dbg !2755
  call void @llvm.dbg.value(metadata ptr %4, metadata !2756, metadata !DIExpression()), !dbg !2768
  call void @llvm.dbg.declare(metadata ptr undef, metadata !2764, metadata !DIExpression()), !dbg !2770
  invoke void %4(ptr noalias nocapture noundef nonnull sret([32 x i8]) align 8 dereferenceable(32) %_15)
          to label %bb5 unwind label %cleanup8, !dbg !2770

cleanup8:                                         ; preds = %bb3.i, %bb2.i
  %6 = landingpad { ptr, i32 }
          cleanup
  call void @llvm.dbg.value(metadata ptr undef, metadata !2771, metadata !DIExpression()), !dbg !2779
  call void @llvm.dbg.value(metadata i64 3, metadata !2781, metadata !DIExpression()), !dbg !2787
  call void @llvm.dbg.value(metadata i8 4, metadata !2786, metadata !DIExpression()), !dbg !2787
  call void @llvm.dbg.value(metadata ptr undef, metadata !2795, metadata !DIExpression()), !dbg !2797
  call void @llvm.dbg.value(metadata ptr @_ZN12tracing_core8callsite16LOCKED_CALLSITES17he8d4287cb4f62c95E, metadata !2785, metadata !DIExpression()), !dbg !2787
  call void @llvm.dbg.value(metadata i8 4, metadata !2798, metadata !DIExpression()), !dbg !2805
  call void @llvm.dbg.value(metadata ptr @_ZN12tracing_core8callsite16LOCKED_CALLSITES17he8d4287cb4f62c95E, metadata !2803, metadata !DIExpression()), !dbg !2805
  call void @llvm.dbg.value(metadata i64 3, metadata !2804, metadata !DIExpression()), !dbg !2805
  store atomic i64 3, ptr @_ZN12tracing_core8callsite16LOCKED_CALLSITES17he8d4287cb4f62c95E seq_cst, align 8, !dbg !2807, !noalias !2808
  resume { ptr, i32 } %6, !dbg !2811

bb5:                                              ; preds = %bb3.i
  call void @llvm.memcpy.p0.p0.i64(ptr noundef nonnull align 8 dereferenceable(32) %_14.sroa.5, ptr noundef nonnull align 8 dereferenceable(32) %_15, i64 32, i1 false), !dbg !2670
  call void @llvm.lifetime.end.p0(i64 32, ptr nonnull %_15), !dbg !2812, !unsafe_inst !2672
  call void @llvm.dbg.value(metadata ptr getelementptr inbounds (<{ [16 x i8], [32 x i8], ptr }>, ptr @_ZN12tracing_core8callsite16LOCKED_CALLSITES17he8d4287cb4f62c95E, i64 0, i32 0, i64 8), metadata !2813, metadata !DIExpression()), !dbg !2819
  %_2.i = load i64, ptr getelementptr inbounds (<{ [16 x i8], [32 x i8], ptr }>, ptr @_ZN12tracing_core8callsite16LOCKED_CALLSITES17he8d4287cb4f62c95E, i64 0, i32 0, i64 8), align 8, !dbg !2821, !range !2513, !noundef !24
  %7 = icmp eq i64 %_2.i, 0, !dbg !2821
  br i1 %7, label %"_ZN4core3ptr53drop_in_place$LT$tracing_core..spin..once..Finish$GT$17h1ef46d9061aaa0dbE.exit42", label %bb2.i39, !dbg !2821

bb2.i39:                                          ; preds = %bb5
  call void @llvm.dbg.value(metadata ptr getelementptr inbounds (<{ [16 x i8], [32 x i8], ptr }>, ptr @_ZN12tracing_core8callsite16LOCKED_CALLSITES17he8d4287cb4f62c95E, i64 0, i32 1, i64 0), metadata !2822, metadata !DIExpression()), !dbg !2828
  call void @llvm.dbg.value(metadata ptr getelementptr inbounds (<{ [16 x i8], [32 x i8], ptr }>, ptr @_ZN12tracing_core8callsite16LOCKED_CALLSITES17he8d4287cb4f62c95E, i64 0, i32 1, i64 0), metadata !2830, metadata !DIExpression()), !dbg !2838
  call void @llvm.dbg.value(metadata ptr getelementptr inbounds (<{ [16 x i8], [32 x i8], ptr }>, ptr @_ZN12tracing_core8callsite16LOCKED_CALLSITES17he8d4287cb4f62c95E, i64 0, i32 1, i64 8), metadata !2840, metadata !DIExpression()), !dbg !2848
  call void @llvm.dbg.value(metadata ptr getelementptr inbounds (<{ [16 x i8], [32 x i8], ptr }>, ptr @_ZN12tracing_core8callsite16LOCKED_CALLSITES17he8d4287cb4f62c95E, i64 0, i32 1, i64 8), metadata !2850, metadata !DIExpression()), !dbg !2856
  call void @llvm.dbg.value(metadata ptr getelementptr inbounds (<{ [16 x i8], [32 x i8], ptr }>, ptr @_ZN12tracing_core8callsite16LOCKED_CALLSITES17he8d4287cb4f62c95E, i64 0, i32 1, i64 8), metadata !2858, metadata !DIExpression()), !dbg !2866
  call void @llvm.dbg.value(metadata ptr getelementptr inbounds (<{ [16 x i8], [32 x i8], ptr }>, ptr @_ZN12tracing_core8callsite16LOCKED_CALLSITES17he8d4287cb4f62c95E, i64 0, i32 1, i64 8), metadata !2868, metadata !DIExpression()), !dbg !2875
  %.val.i.i1.i.i.i.i.i = load i64, ptr getelementptr inbounds (<{ [16 x i8], [32 x i8], ptr }>, ptr @_ZN12tracing_core8callsite16LOCKED_CALLSITES17he8d4287cb4f62c95E, i64 0, i32 1, i64 8), align 8, !dbg !2877, !noundef !24
  call void @llvm.dbg.value(metadata ptr undef, metadata !2479, metadata !DIExpression()), !dbg !2878
  %8 = icmp eq i64 %.val.i.i1.i.i.i.i.i, 0, !dbg !2880
  br i1 %8, label %"_ZN4core3ptr53drop_in_place$LT$tracing_core..spin..once..Finish$GT$17h1ef46d9061aaa0dbE.exit42", label %bb2.i.i2.i.i.i.i.i, !dbg !2880

bb2.i.i2.i.i.i.i.i:                               ; preds = %bb2.i39
  %.val1.i.i3.i.i.i.i.i = load ptr, ptr getelementptr inbounds (<{ [16 x i8], [32 x i8], ptr }>, ptr @_ZN12tracing_core8callsite16LOCKED_CALLSITES17he8d4287cb4f62c95E, i64 0, i32 1, i64 16), align 8, !dbg !2877, !nonnull !24, !noundef !24
  call void @llvm.dbg.value(metadata i64 8, metadata !2486, metadata !DIExpression()), !dbg !2881
  call void @llvm.dbg.value(metadata i64 16, metadata !2496, metadata !DIExpression()), !dbg !2882
  call void @llvm.dbg.value(metadata i64 %.val.i.i1.i.i.i.i.i, metadata !2500, metadata !DIExpression()), !dbg !2882
  call void @llvm.dbg.value(metadata ptr %.val1.i.i3.i.i.i.i.i, metadata !2872, metadata !DIExpression()), !dbg !2884
  call void @llvm.dbg.value(metadata i64 8, metadata !2874, metadata !DIExpression(DW_OP_LLVM_fragment, 0, 64)), !dbg !2884
  call void @llvm.dbg.value(metadata i64 %.val.i.i1.i.i.i.i.i, metadata !2874, metadata !DIExpression(DW_OP_constu, 4, DW_OP_shl, DW_OP_stack_value, DW_OP_LLVM_fragment, 64, 64)), !dbg !2884
  call void @llvm.dbg.value(metadata i64 8, metadata !1768, metadata !DIExpression(DW_OP_LLVM_fragment, 0, 64)), !dbg !2885
  call void @llvm.dbg.value(metadata i64 %.val.i.i1.i.i.i.i.i, metadata !1768, metadata !DIExpression(DW_OP_constu, 4, DW_OP_shl, DW_OP_stack_value, DW_OP_LLVM_fragment, 64, 64)), !dbg !2885
  call void @llvm.dbg.value(metadata ptr undef, metadata !1775, metadata !DIExpression()), !dbg !2885
  call void @llvm.dbg.value(metadata ptr %.val1.i.i3.i.i.i.i.i, metadata !1776, metadata !DIExpression()), !dbg !2885
  %size.i.i.i4.i.i.i.i.i = shl nuw i64 %.val.i.i1.i.i.i.i.i, 4, !dbg !2887
  call void @llvm.dbg.value(metadata i64 %size.i.i.i4.i.i.i.i.i, metadata !2874, metadata !DIExpression(DW_OP_LLVM_fragment, 64, 64)), !dbg !2884
  call void @llvm.dbg.value(metadata i64 %size.i.i.i4.i.i.i.i.i, metadata !1768, metadata !DIExpression(DW_OP_LLVM_fragment, 64, 64)), !dbg !2885
  call void @llvm.dbg.value(metadata ptr %.val1.i.i3.i.i.i.i.i, metadata !1780, metadata !DIExpression()), !dbg !2888
  call void @llvm.dbg.value(metadata i64 8, metadata !1787, metadata !DIExpression(DW_OP_LLVM_fragment, 0, 64)), !dbg !2888
  call void @llvm.dbg.value(metadata i64 %size.i.i.i4.i.i.i.i.i, metadata !1787, metadata !DIExpression(DW_OP_LLVM_fragment, 64, 64)), !dbg !2888
  tail call void @__rust_dealloc(ptr noundef nonnull %.val1.i.i3.i.i.i.i.i, i64 noundef %size.i.i.i4.i.i.i.i.i, i64 noundef 8) #20, !dbg !2890
  br label %"_ZN4core3ptr53drop_in_place$LT$tracing_core..spin..once..Finish$GT$17h1ef46d9061aaa0dbE.exit42", !dbg !2891

"_ZN4core3ptr53drop_in_place$LT$tracing_core..spin..once..Finish$GT$17h1ef46d9061aaa0dbE.exit42": ; preds = %bb2.i.i2.i.i.i.i.i, %bb2.i39, %bb5
  store i64 1, ptr getelementptr inbounds (<{ [16 x i8], [32 x i8], ptr }>, ptr @_ZN12tracing_core8callsite16LOCKED_CALLSITES17he8d4287cb4f62c95E, i64 0, i32 0, i64 8), align 8, !dbg !2892
  call void @llvm.memcpy.p0.p0.i64(ptr noundef nonnull align 8 dereferenceable(32) getelementptr inbounds (<{ [16 x i8], [32 x i8], ptr }>, ptr @_ZN12tracing_core8callsite16LOCKED_CALLSITES17he8d4287cb4f62c95E, i64 0, i32 1, i64 0), ptr noundef nonnull align 8 dereferenceable(32) %_14.sroa.5, i64 32, i1 false), !dbg !2892
  call void @llvm.lifetime.end.p0(i64 32, ptr nonnull %_14.sroa.5), !dbg !2812
  tail call void @llvm.dbg.value(metadata i8 0, metadata !2559, metadata !DIExpression(DW_OP_LLVM_fragment, 64, 8)), !dbg !2669
  tail call void @llvm.dbg.value(metadata ptr @_ZN12tracing_core8callsite16LOCKED_CALLSITES17he8d4287cb4f62c95E, metadata !2616, metadata !DIExpression()), !dbg !2618
  tail call void @llvm.dbg.value(metadata i8 4, metadata !2798, metadata !DIExpression()), !dbg !2893
  tail call void @llvm.dbg.value(metadata ptr @_ZN12tracing_core8callsite16LOCKED_CALLSITES17he8d4287cb4f62c95E, metadata !2803, metadata !DIExpression()), !dbg !2893
  tail call void @llvm.dbg.value(metadata i64 2, metadata !2804, metadata !DIExpression()), !dbg !2893
  store atomic i64 2, ptr @_ZN12tracing_core8callsite16LOCKED_CALLSITES17he8d4287cb4f62c95E seq_cst, align 8, !dbg !2895
  call void @llvm.dbg.value(metadata ptr undef, metadata !2771, metadata !DIExpression()), !dbg !2896
  call void @llvm.dbg.value(metadata i64 3, metadata !2781, metadata !DIExpression()), !dbg !2898
  call void @llvm.dbg.value(metadata i8 4, metadata !2786, metadata !DIExpression()), !dbg !2898
  call void @llvm.dbg.value(metadata ptr undef, metadata !2795, metadata !DIExpression()), !dbg !2901
  br label %bb16, !dbg !2902

bb16:                                             ; preds = %bb14, %"_ZN4core3ptr53drop_in_place$LT$tracing_core..spin..once..Finish$GT$17h1ef46d9061aaa0dbE.exit42"
  ret void, !dbg !2904

bb10:                                             ; preds = %bb10.preheader, %bb12
  %status.sroa.0.1 = phi i64 [ %9, %bb12 ], [ %status.sroa.0.1.ph, %bb10.preheader ], !dbg !2648
  tail call void @llvm.dbg.value(metadata i64 %status.sroa.0.1, metadata !2548, metadata !DIExpression()), !dbg !2648
  switch i64 %status.sroa.0.1, label %bb2 [
    i64 0, label %bb11
    i64 1, label %bb12
    i64 3, label %bb13
    i64 2, label %bb14
  ], !dbg !2650

bb11:                                             ; preds = %bb10
; call core::panicking::panic
  tail call void @_ZN4core9panicking5panic17hdc606204151d5569E(ptr noalias noundef nonnull readonly align 1 @alloc_a500d906b91607583596fa15e63c2ada, i64 noundef 40, ptr noalias noundef nonnull readonly align 8 dereferenceable(24) @alloc_73ce285c6953441f90163801e4524c2b) #31, !dbg !2905
  unreachable

bb12:                                             ; preds = %bb10
  tail call void @llvm.x86.sse2.pause() #20, !dbg !2906
  tail call void @llvm.dbg.value(metadata ptr @_ZN12tracing_core8callsite16LOCKED_CALLSITES17he8d4287cb4f62c95E, metadata !2576, metadata !DIExpression()), !dbg !2620
  tail call void @llvm.dbg.value(metadata i8 4, metadata !2638, metadata !DIExpression()), !dbg !2919
  tail call void @llvm.dbg.value(metadata ptr @_ZN12tracing_core8callsite16LOCKED_CALLSITES17he8d4287cb4f62c95E, metadata !2644, metadata !DIExpression()), !dbg !2919
  %9 = load atomic i64, ptr @_ZN12tracing_core8callsite16LOCKED_CALLSITES17he8d4287cb4f62c95E seq_cst, align 8, !dbg !2921
  br label %bb10

bb13:                                             ; preds = %bb10
; call core::panicking::panic
  tail call void @_ZN4core9panicking5panic17hdc606204151d5569E(ptr noalias noundef nonnull readonly align 1 @alloc_b41ce9db6ff9e09c515cee5b4d05db5e, i64 noundef 17, ptr noalias noundef nonnull readonly align 8 dereferenceable(24) @alloc_cdaa584137f3dccce6c57c06dfa95713) #31, !dbg !2922
  unreachable

bb14:                                             ; preds = %bb10
  tail call void @llvm.dbg.value(metadata ptr getelementptr inbounds (<{ [16 x i8], [32 x i8], ptr }>, ptr @_ZN12tracing_core8callsite16LOCKED_CALLSITES17he8d4287cb4f62c95E, i64 0, i32 0, i64 8), metadata !2923, metadata !DIExpression()), !dbg !2951
  %_50 = load i64, ptr getelementptr inbounds (<{ [16 x i8], [32 x i8], ptr }>, ptr @_ZN12tracing_core8callsite16LOCKED_CALLSITES17he8d4287cb4f62c95E, i64 0, i32 0, i64 8), align 8, !dbg !2953, !range !2513, !noundef !24
  %_53 = icmp ne i64 %_50, 0, !dbg !2954
  tail call void @llvm.assume(i1 %_53), !dbg !2954
  br label %bb16, !dbg !2902
}

; <tracing_core::spin::once::Finish as core::ops::drop::Drop>::drop
; Function Attrs: mustprogress nofree norecurse nounwind nonlazybind willreturn memory(readwrite, inaccessiblemem: none) uwtable
define void @"_ZN74_$LT$tracing_core..spin..once..Finish$u20$as$u20$core..ops..drop..Drop$GT$4drop17hdc95fa13ff6928b0E"(ptr noalias nocapture noundef readonly align 8 dereferenceable(16) %self) unnamed_addr #5 !dbg !2789 {
start:
  tail call void @llvm.dbg.value(metadata i64 3, metadata !2781, metadata !DIExpression()), !dbg !2955
  tail call void @llvm.dbg.value(metadata i8 4, metadata !2786, metadata !DIExpression()), !dbg !2955
  tail call void @llvm.dbg.value(metadata ptr %self, metadata !2795, metadata !DIExpression()), !dbg !2957
  %0 = getelementptr inbounds i8, ptr %self, i64 8, !dbg !2958
  %1 = load i8, ptr %0, align 8, !dbg !2958, !range !2959, !noundef !24
  %_2.not = icmp eq i8 %1, 0, !dbg !2958
  br i1 %_2.not, label %bb2, label %bb1, !dbg !2958

bb2:                                              ; preds = %bb1, %start
  ret void, !dbg !2960

bb1:                                              ; preds = %start
  %self1 = load ptr, ptr %self, align 8, !dbg !2961, !nonnull !24, !align !838, !noundef !24
  tail call void @llvm.dbg.value(metadata ptr %self1, metadata !2785, metadata !DIExpression()), !dbg !2955
  tail call void @llvm.dbg.value(metadata i8 4, metadata !2798, metadata !DIExpression()), !dbg !2962
  tail call void @llvm.dbg.value(metadata ptr %self1, metadata !2803, metadata !DIExpression()), !dbg !2962
  tail call void @llvm.dbg.value(metadata i64 3, metadata !2804, metadata !DIExpression()), !dbg !2962
  store atomic i64 3, ptr %self1 seq_cst, align 8, !dbg !2964
  br label %bb2, !dbg !2965
}

; tracing_core::callsite::Callsite::private_type_id
; Function Attrs: inlinehint mustprogress nofree norecurse nosync nounwind nonlazybind willreturn memory(none) uwtable
define internal { i64, i64 } @_ZN12tracing_core8callsite8Callsite15private_type_id17hd9b12631d8cb9b1fE(ptr noalias nocapture nonnull readonly align 1 %self) unnamed_addr #6 !dbg !2966 {
start:
  tail call void @llvm.dbg.value(metadata ptr poison, metadata !2989, metadata !DIExpression()), !dbg !2993
  call void @llvm.dbg.declare(metadata ptr undef, metadata !2990, metadata !DIExpression()), !dbg !2994
  ret { i64, i64 } { i64 7962694903289978919, i64 3327322908508026355 }, !dbg !2995
}

; tracing_core::callsite::rebuild_interest_cache
; Function Attrs: nonlazybind uwtable
define void @_ZN12tracing_core8callsite22rebuild_interest_cache17h0e85d89fba3970beE() unnamed_addr #1 !dbg !2996 {
start:
; call tracing_core::callsite::Callsites::rebuild_interest
  tail call fastcc void @_ZN12tracing_core8callsite9Callsites16rebuild_interest17h4975a6207117263dE(ptr noalias noundef readonly align 8 dereferenceable_or_null(24) null), !dbg !2997
  ret void, !dbg !2998
}

; tracing_core::callsite::register
; Function Attrs: nonlazybind uwtable
define void @_ZN12tracing_core8callsite8register17h5b653342544deebaE(ptr noundef nonnull align 1 %callsite.0, ptr noalias noundef readonly align 8 dereferenceable(48) %callsite.1) unnamed_addr #1 personality ptr @rust_eh_personality !dbg !2999 {
bb3.i.i:
  %_14.i = alloca [48 x i8], align 8
  %_8.i = alloca [8 x i8], align 8
  %head.i = alloca [8 x i8], align 8
  %_11.i = alloca [8 x i8], align 8
  tail call void @llvm.dbg.value(metadata ptr %callsite.0, metadata !3003, metadata !DIExpression(DW_OP_LLVM_fragment, 0, 64)), !dbg !3006
  tail call void @llvm.dbg.value(metadata ptr %callsite.1, metadata !3003, metadata !DIExpression(DW_OP_LLVM_fragment, 64, 64)), !dbg !3006
  tail call void @llvm.experimental.noalias.scope.decl(metadata !3007), !dbg !3010
  call void @llvm.dbg.value(metadata ptr %callsite.0, metadata !3011, metadata !DIExpression(DW_OP_LLVM_fragment, 0, 64)), !dbg !3057
  call void @llvm.dbg.value(metadata ptr %callsite.1, metadata !3011, metadata !DIExpression(DW_OP_LLVM_fragment, 64, 64)), !dbg !3057
  call void @llvm.dbg.value(metadata ptr undef, metadata !3034, metadata !DIExpression()), !dbg !3057
  %0 = getelementptr inbounds i8, ptr %callsite.1, i64 32, !dbg !3059
  %1 = load ptr, ptr %0, align 8, !dbg !3059, !invariant.load !24, !alias.scope !3007, !nonnull !24
  %2 = tail call noundef align 8 dereferenceable(120) ptr %1(ptr noundef nonnull align 1 %callsite.0), !dbg !3059, !noalias !3007
  call void @llvm.dbg.value(metadata ptr %2, metadata !3035, metadata !DIExpression()), !dbg !3060
  call void @llvm.dbg.value(metadata i8 3, metadata !3037, metadata !DIExpression()), !dbg !3061
  call void @llvm.dbg.value(metadata ptr undef, metadata !3062, metadata !DIExpression(DW_OP_LLVM_fragment, 0, 64)), !dbg !3080
  call void @llvm.dbg.value(metadata ptr undef, metadata !3062, metadata !DIExpression(DW_OP_LLVM_fragment, 64, 64)), !dbg !3080
  call void @llvm.dbg.value(metadata ptr undef, metadata !3077, metadata !DIExpression()), !dbg !3080
  call void @llvm.dbg.value(metadata ptr @_ZN12tracing_core10dispatcher11GLOBAL_INIT17h32115fdb9b27e6eeE, metadata !3082, metadata !DIExpression()), !dbg !3087
  call void @llvm.dbg.value(metadata i8 4, metadata !3086, metadata !DIExpression()), !dbg !3087
  call void @llvm.dbg.value(metadata ptr undef, metadata !3098, metadata !DIExpression(DW_OP_LLVM_fragment, 0, 64)), !dbg !3102
  call void @llvm.dbg.value(metadata ptr undef, metadata !3098, metadata !DIExpression(DW_OP_LLVM_fragment, 64, 64)), !dbg !3102
  call void @llvm.dbg.value(metadata i8 4, metadata !2638, metadata !DIExpression()), !dbg !3103
  call void @llvm.dbg.value(metadata ptr @_ZN12tracing_core10dispatcher11GLOBAL_INIT17h32115fdb9b27e6eeE, metadata !2644, metadata !DIExpression()), !dbg !3103
  %3 = load atomic i64, ptr @_ZN12tracing_core10dispatcher11GLOBAL_INIT17h32115fdb9b27e6eeE seq_cst, align 8, !dbg !3105, !noalias !3106
  %_6.not.i.i.i = icmp ne i64 %3, 2, !dbg !3113
  call void @llvm.dbg.value(metadata ptr undef, metadata !3114, metadata !DIExpression(DW_OP_deref, DW_OP_deref)), !dbg !3126
  call void @llvm.dbg.value(metadata ptr undef, metadata !3121, metadata !DIExpression(DW_OP_deref, DW_OP_plus_uconst, 8, DW_OP_deref)), !dbg !3126
  call void @llvm.dbg.value(metadata ptr poison, metadata !3120, metadata !DIExpression()), !dbg !3126
  call void @llvm.dbg.value(metadata ptr poison, metadata !3128, metadata !DIExpression()), !dbg !3135
  call void @llvm.dbg.value(metadata ptr poison, metadata !3137, metadata !DIExpression()), !dbg !3149
  call void @llvm.dbg.value(metadata ptr %2, metadata !3134, metadata !DIExpression()), !dbg !3135
  %_ZN12tracing_core10dispatcher15GLOBAL_DISPATCH17h87fe84e1b4a2c89aE.val.i.i.i = load i64, ptr @_ZN12tracing_core10dispatcher15GLOBAL_DISPATCH17h87fe84e1b4a2c89aE, align 8, !dbg !3151, !noalias !3106
  %trunc.not.i.i4.i.i.i = icmp eq i64 %_ZN12tracing_core10dispatcher15GLOBAL_DISPATCH17h87fe84e1b4a2c89aE.val.i.i.i, 0, !dbg !3152
  %trunc.not.i.i.i.i.i = select i1 %_6.not.i.i.i, i1 true, i1 %trunc.not.i.i4.i.i.i, !dbg !3152
  %.val.i.i.i = load ptr, ptr getelementptr inbounds (<{ [8 x i8], ptr, ptr }>, ptr @_ZN12tracing_core10dispatcher15GLOBAL_DISPATCH17h87fe84e1b4a2c89aE, i64 0, i32 1), align 8, !dbg !3149, !noalias !3106
  %s.0.i.i.i.i.i = select i1 %_6.not.i.i.i, ptr @_ZN12tracing_core10dispatcher13NO_SUBSCRIBER17h03311d1c194bfc5eE, ptr %.val.i.i.i, !dbg !3149
  %.val6.i.i.i = load ptr, ptr getelementptr inbounds (<{ [8 x i8], ptr, ptr }>, ptr @_ZN12tracing_core10dispatcher15GLOBAL_DISPATCH17h87fe84e1b4a2c89aE, i64 0, i32 2), align 8, !dbg !3149, !noalias !3106
  br i1 %trunc.not.i.i.i.i.i, label %_ZN12tracing_core8callsite25rebuild_callsite_interest17h3735a8b6f8b892fcE.exit, label %bb3.i.i.i.i.i, !dbg !3152

bb3.i.i.i.i.i:                                    ; preds = %bb3.i.i
  call void @llvm.dbg.value(metadata ptr poison, metadata !3146, metadata !DIExpression(DW_OP_plus_uconst, 8, DW_OP_stack_value)), !dbg !3153
  %4 = getelementptr inbounds i8, ptr %.val6.i.i.i, i64 16, !dbg !3154
  %5 = load i64, ptr %4, align 8, !dbg !3154, !range !1554, !invariant.load !24, !noalias !3155
  %6 = add i64 %5, -1, !dbg !3154
  %7 = and i64 %6, -16, !dbg !3154
  %8 = getelementptr i8, ptr %.val.i.i.i, i64 %7, !dbg !3154
  %_8.0.i.i.i.i.i = getelementptr i8, ptr %8, i64 16, !dbg !3154
  br label %_ZN12tracing_core8callsite25rebuild_callsite_interest17h3735a8b6f8b892fcE.exit, !dbg !3161

_ZN12tracing_core8callsite25rebuild_callsite_interest17h3735a8b6f8b892fcE.exit: ; preds = %bb3.i.i, %bb3.i.i.i.i.i
  %_4.sroa.0.0.i.i.i.i.i = phi ptr [ %_8.0.i.i.i.i.i, %bb3.i.i.i.i.i ], [ %s.0.i.i.i.i.i, %bb3.i.i ], !dbg !3149
  %s.1.i.i.i.i.i = select i1 %_6.not.i.i.i, ptr @0, ptr %.val6.i.i.i, !dbg !3149
  %9 = getelementptr inbounds i8, ptr %s.1.i.i.i.i.i, i64 32, !dbg !3080
  %10 = load ptr, ptr %9, align 8, !dbg !3080, !invariant.load !24, !noalias !3162, !nonnull !24
  %_0.i.i.i.i.i = tail call noundef i8 %10(ptr noundef align 1 %_4.sroa.0.0.i.i.i.i.i, ptr noalias noundef nonnull readonly align 8 dereferenceable(120) %2), !dbg !3080, !range !3163, !noalias !3162
  call void @llvm.dbg.value(metadata i8 %_0.i.i.i.i.i, metadata !3055, metadata !DIExpression()), !dbg !3164
  %11 = getelementptr inbounds i8, ptr %callsite.1, i64 24, !dbg !3165
  %12 = load ptr, ptr %11, align 8, !dbg !3165, !invariant.load !24, !alias.scope !3007, !nonnull !24
  tail call void %12(ptr noundef nonnull align 1 %callsite.0, i8 noundef %_0.i.i.i.i.i), !dbg !3165, !noalias !3007
  %13 = getelementptr inbounds i8, ptr %callsite.1, i64 40, !dbg !3166
  %14 = load ptr, ptr %13, align 8, !dbg !3166, !invariant.load !24, !nonnull !24
  %15 = tail call { i64, i64 } %14(ptr noundef nonnull align 1 %callsite.0), !dbg !3166
  %16 = extractvalue { i64, i64 } %15, 0, !dbg !3166
  tail call void @llvm.dbg.value(metadata ptr undef, metadata !3167, metadata !DIExpression()), !dbg !3177
  tail call void @llvm.dbg.value(metadata ptr undef, metadata !3176, metadata !DIExpression()), !dbg !3177
  tail call void @llvm.dbg.value(metadata ptr undef, metadata !3178, metadata !DIExpression()), !dbg !3192
  tail call void @llvm.dbg.value(metadata ptr undef, metadata !3188, metadata !DIExpression()), !dbg !3192
  tail call void @llvm.dbg.value(metadata ptr undef, metadata !3194, metadata !DIExpression()), !dbg !3206
  tail call void @llvm.dbg.value(metadata ptr undef, metadata !3202, metadata !DIExpression()), !dbg !3206
  %_22 = icmp eq i64 %16, -6046748299848140927, !dbg !3208
  %17 = extractvalue { i64, i64 } %15, 1
  %_5 = icmp eq i64 %17, -1328586242009975340
  %or.cond = select i1 %_22, i1 %_5, i1 false, !dbg !3207
  br i1 %or.cond, label %bb3, label %bb5, !dbg !3207

bb5:                                              ; preds = %_ZN12tracing_core8callsite25rebuild_callsite_interest17h3735a8b6f8b892fcE.exit
  call void @llvm.dbg.value(metadata ptr @_ZN12tracing_core8callsite16LOCKED_CALLSITES17he8d4287cb4f62c95E, metadata !3209, metadata !DIExpression()), !dbg !3216
  call void @llvm.dbg.value(metadata ptr @_ZN12tracing_core8callsite16LOCKED_CALLSITES17he8d4287cb4f62c95E, metadata !3235, metadata !DIExpression()), !dbg !3240
  call void @llvm.dbg.value(metadata i8 1, metadata !3242, metadata !DIExpression()), !dbg !3251
  call void @llvm.dbg.value(metadata i8 1, metadata !3250, metadata !DIExpression()), !dbg !3251
  call void @llvm.dbg.value(metadata ptr @_ZN12tracing_core8callsite9CALLSITES17hccc57102ec60b6c5E, metadata !3224, metadata !DIExpression()), !dbg !3253
  call void @llvm.dbg.value(metadata ptr %callsite.0, metadata !3225, metadata !DIExpression(DW_OP_LLVM_fragment, 0, 64)), !dbg !3253
  call void @llvm.dbg.value(metadata ptr %callsite.1, metadata !3225, metadata !DIExpression(DW_OP_LLVM_fragment, 64, 64)), !dbg !3253
  call void @llvm.lifetime.start.p0(i64 8, ptr nonnull %_11.i), !dbg !3254, !noalias !3255
  store ptr @_ZN12tracing_core8callsite16LOCKED_CALLSITES17he8d4287cb4f62c95E, ptr %_11.i, align 8, !dbg !3254, !noalias !3255
; call tracing_core::spin::once::Once<T>::call_once
  call fastcc void @"_ZN12tracing_core4spin4once13Once$LT$T$GT$9call_once17h0448dfad145d647aE"(ptr noalias noundef nonnull readonly align 8 dereferenceable(8) %_11.i), !dbg !3258
  call void @llvm.lifetime.end.p0(i64 8, ptr nonnull %_11.i), !dbg !3259, !noalias !3255
  call void @llvm.dbg.value(metadata ptr getelementptr inbounds (<{ [16 x i8], [32 x i8], ptr }>, ptr @_ZN12tracing_core8callsite16LOCKED_CALLSITES17he8d4287cb4f62c95E, i64 0, i32 1, i64 0), metadata !3260, metadata !DIExpression()), !dbg !3283
  call void @llvm.dbg.value(metadata ptr getelementptr inbounds (<{ [16 x i8], [32 x i8], ptr }>, ptr @_ZN12tracing_core8callsite16LOCKED_CALLSITES17he8d4287cb4f62c95E, i64 0, i32 1, i64 0), metadata !3285, metadata !DIExpression()), !dbg !3294
  call void @llvm.dbg.value(metadata i8 0, metadata !3296, metadata !DIExpression()), !dbg !3304
  call void @llvm.dbg.value(metadata ptr getelementptr inbounds (<{ [16 x i8], [32 x i8], ptr }>, ptr @_ZN12tracing_core8callsite16LOCKED_CALLSITES17he8d4287cb4f62c95E, i64 0, i32 1, i64 0), metadata !3311, metadata !DIExpression()), !dbg !3313
  call void @llvm.dbg.value(metadata ptr getelementptr inbounds (<{ [16 x i8], [32 x i8], ptr }>, ptr @_ZN12tracing_core8callsite16LOCKED_CALLSITES17he8d4287cb4f62c95E, i64 0, i32 1, i64 0), metadata !3314, metadata !DIExpression()), !dbg !3344
  call void @llvm.dbg.value(metadata i1 false, metadata !3336, metadata !DIExpression(DW_OP_LLVM_convert, 1, DW_ATE_unsigned, DW_OP_LLVM_convert, 8, DW_ATE_unsigned, DW_OP_stack_value)), !dbg !3344
  call void @llvm.dbg.value(metadata i1 true, metadata !3337, metadata !DIExpression(DW_OP_LLVM_convert, 1, DW_ATE_unsigned, DW_OP_LLVM_convert, 8, DW_ATE_unsigned, DW_OP_stack_value)), !dbg !3344
  call void @llvm.dbg.value(metadata i8 2, metadata !3338, metadata !DIExpression()), !dbg !3344
  call void @llvm.dbg.value(metadata i8 0, metadata !3339, metadata !DIExpression()), !dbg !3344
  call void @llvm.dbg.value(metadata i8 2, metadata !3346, metadata !DIExpression()), !dbg !3373
  call void @llvm.dbg.value(metadata i8 0, metadata !3369, metadata !DIExpression()), !dbg !3373
  call void @llvm.dbg.value(metadata ptr getelementptr inbounds (<{ [16 x i8], [32 x i8], ptr }>, ptr @_ZN12tracing_core8callsite16LOCKED_CALLSITES17he8d4287cb4f62c95E, i64 0, i32 1, i64 0), metadata !3366, metadata !DIExpression()), !dbg !3373
  call void @llvm.dbg.value(metadata i8 0, metadata !3367, metadata !DIExpression()), !dbg !3373
  call void @llvm.dbg.value(metadata i8 1, metadata !3368, metadata !DIExpression()), !dbg !3373
  %18 = cmpxchg weak ptr getelementptr inbounds (<{ [16 x i8], [32 x i8], ptr }>, ptr @_ZN12tracing_core8callsite16LOCKED_CALLSITES17he8d4287cb4f62c95E, i64 0, i32 1, i64 0), i8 0, i8 1 acquire monotonic, align 1, !dbg !3375, !noalias !3255
  %19 = extractvalue { i8, i1 } %18, 1, !dbg !3375
  call void @llvm.dbg.value(metadata ptr undef, metadata !3376, metadata !DIExpression()), !dbg !3384
  call void @llvm.dbg.value(metadata ptr undef, metadata !3386, metadata !DIExpression()), !dbg !3391
  br i1 %19, label %bb8.i, label %bb3.preheader.i.i.i, !dbg !3393

bb1.loopexit.i.i.i:                               ; preds = %bb4.i.i.i, %bb3.preheader.i.i.i
  call void @llvm.dbg.value(metadata ptr getelementptr inbounds (<{ [16 x i8], [32 x i8], ptr }>, ptr @_ZN12tracing_core8callsite16LOCKED_CALLSITES17he8d4287cb4f62c95E, i64 0, i32 1, i64 0), metadata !3314, metadata !DIExpression()), !dbg !3344
  call void @llvm.dbg.value(metadata i1 false, metadata !3336, metadata !DIExpression(DW_OP_LLVM_convert, 1, DW_ATE_unsigned, DW_OP_LLVM_convert, 8, DW_ATE_unsigned, DW_OP_stack_value)), !dbg !3344
  call void @llvm.dbg.value(metadata i1 true, metadata !3337, metadata !DIExpression(DW_OP_LLVM_convert, 1, DW_ATE_unsigned, DW_OP_LLVM_convert, 8, DW_ATE_unsigned, DW_OP_stack_value)), !dbg !3344
  call void @llvm.dbg.value(metadata i8 2, metadata !3338, metadata !DIExpression()), !dbg !3344
  call void @llvm.dbg.value(metadata i8 0, metadata !3339, metadata !DIExpression()), !dbg !3344
  call void @llvm.dbg.value(metadata i8 2, metadata !3346, metadata !DIExpression()), !dbg !3373
  call void @llvm.dbg.value(metadata i8 0, metadata !3369, metadata !DIExpression()), !dbg !3373
  call void @llvm.dbg.value(metadata ptr getelementptr inbounds (<{ [16 x i8], [32 x i8], ptr }>, ptr @_ZN12tracing_core8callsite16LOCKED_CALLSITES17he8d4287cb4f62c95E, i64 0, i32 1, i64 0), metadata !3366, metadata !DIExpression()), !dbg !3373
  call void @llvm.dbg.value(metadata i8 0, metadata !3367, metadata !DIExpression()), !dbg !3373
  call void @llvm.dbg.value(metadata i8 1, metadata !3368, metadata !DIExpression()), !dbg !3373
  %20 = cmpxchg weak ptr getelementptr inbounds (<{ [16 x i8], [32 x i8], ptr }>, ptr @_ZN12tracing_core8callsite16LOCKED_CALLSITES17he8d4287cb4f62c95E, i64 0, i32 1, i64 0), i8 0, i8 1 acquire monotonic, align 1, !dbg !3375, !noalias !3255
  %21 = extractvalue { i8, i1 } %20, 1, !dbg !3375
  call void @llvm.dbg.value(metadata ptr undef, metadata !3376, metadata !DIExpression()), !dbg !3384
  call void @llvm.dbg.value(metadata ptr undef, metadata !3386, metadata !DIExpression()), !dbg !3391
  br i1 %21, label %bb8.i, label %bb3.preheader.i.i.i, !dbg !3393

bb3.preheader.i.i.i:                              ; preds = %bb5, %bb1.loopexit.i.i.i
  call void @llvm.dbg.value(metadata ptr getelementptr inbounds (<{ [16 x i8], [32 x i8], ptr }>, ptr @_ZN12tracing_core8callsite16LOCKED_CALLSITES17he8d4287cb4f62c95E, i64 0, i32 1, i64 0), metadata !3303, metadata !DIExpression()), !dbg !3304
  call void @llvm.dbg.value(metadata i8 0, metadata !3395, metadata !DIExpression()), !dbg !3401
  call void @llvm.dbg.value(metadata ptr getelementptr inbounds (<{ [16 x i8], [32 x i8], ptr }>, ptr @_ZN12tracing_core8callsite16LOCKED_CALLSITES17he8d4287cb4f62c95E, i64 0, i32 1, i64 0), metadata !3400, metadata !DIExpression()), !dbg !3401
  %22 = load atomic i8, ptr getelementptr inbounds (<{ [16 x i8], [32 x i8], ptr }>, ptr @_ZN12tracing_core8callsite16LOCKED_CALLSITES17he8d4287cb4f62c95E, i64 0, i32 1, i64 0) monotonic, align 8, !dbg !3403, !noalias !3255
  %23 = icmp eq i8 %22, 0, !dbg !3404
  br i1 %23, label %bb1.loopexit.i.i.i, label %bb4.i.i.i, !dbg !3404

bb4.i.i.i:                                        ; preds = %bb3.preheader.i.i.i, %bb4.i.i.i
  tail call void @llvm.x86.sse2.pause() #20, !dbg !3405, !noalias !3255
  call void @llvm.dbg.value(metadata ptr getelementptr inbounds (<{ [16 x i8], [32 x i8], ptr }>, ptr @_ZN12tracing_core8callsite16LOCKED_CALLSITES17he8d4287cb4f62c95E, i64 0, i32 1, i64 0), metadata !3303, metadata !DIExpression()), !dbg !3304
  call void @llvm.dbg.value(metadata i8 0, metadata !3395, metadata !DIExpression()), !dbg !3401
  call void @llvm.dbg.value(metadata ptr getelementptr inbounds (<{ [16 x i8], [32 x i8], ptr }>, ptr @_ZN12tracing_core8callsite16LOCKED_CALLSITES17he8d4287cb4f62c95E, i64 0, i32 1, i64 0), metadata !3400, metadata !DIExpression()), !dbg !3401
  %24 = load atomic i8, ptr getelementptr inbounds (<{ [16 x i8], [32 x i8], ptr }>, ptr @_ZN12tracing_core8callsite16LOCKED_CALLSITES17he8d4287cb4f62c95E, i64 0, i32 1, i64 0) monotonic, align 8, !dbg !3403, !noalias !3255
  %25 = icmp eq i8 %24, 0, !dbg !3404
  br i1 %25, label %bb1.loopexit.i.i.i, label %bb4.i.i.i, !dbg !3404

bb8.i:                                            ; preds = %bb1.loopexit.i.i.i, %bb5
  call void @llvm.dbg.value(metadata ptr getelementptr inbounds (<{ [16 x i8], [32 x i8], ptr }>, ptr @_ZN12tracing_core8callsite16LOCKED_CALLSITES17he8d4287cb4f62c95E, i64 0, i32 1, i64 0), metadata !3226, metadata !DIExpression(DW_OP_LLVM_fragment, 0, 64)), !dbg !3412
  call void @llvm.dbg.value(metadata ptr getelementptr inbounds (<{ [16 x i8], [32 x i8], ptr }>, ptr @_ZN12tracing_core8callsite16LOCKED_CALLSITES17he8d4287cb4f62c95E, i64 0, i32 1, i64 8), metadata !3226, metadata !DIExpression(DW_OP_LLVM_fragment, 64, 64)), !dbg !3412
  call void @llvm.dbg.value(metadata ptr @_ZN12tracing_core8callsite9CALLSITES17hccc57102ec60b6c5E, metadata !3249, metadata !DIExpression(DW_OP_plus_uconst, 8, DW_OP_stack_value)), !dbg !3251
  call void @llvm.dbg.value(metadata i8 1, metadata !3413, metadata !DIExpression()), !dbg !3420
  call void @llvm.dbg.value(metadata ptr getelementptr inbounds (<{ [9 x i8], [7 x i8] }>, ptr @_ZN12tracing_core8callsite9CALLSITES17hccc57102ec60b6c5E, i64 0, i32 0, i64 8), metadata !3418, metadata !DIExpression()), !dbg !3420
  call void @llvm.dbg.value(metadata i8 1, metadata !3419, metadata !DIExpression()), !dbg !3420
  store atomic i8 1, ptr getelementptr inbounds (<{ [9 x i8], [7 x i8] }>, ptr @_ZN12tracing_core8callsite9CALLSITES17hccc57102ec60b6c5E, i64 0, i32 0, i64 8) release, align 8, !dbg !3422, !noalias !3255
  tail call void @llvm.experimental.noalias.scope.decl(metadata !3423), !dbg !3426
  call void @llvm.dbg.value(metadata ptr getelementptr inbounds (<{ [16 x i8], [32 x i8], ptr }>, ptr @_ZN12tracing_core8callsite16LOCKED_CALLSITES17he8d4287cb4f62c95E, i64 0, i32 1, i64 8), metadata !3427, metadata !DIExpression()), !dbg !3440
  call void @llvm.dbg.value(metadata ptr getelementptr inbounds (<{ [16 x i8], [32 x i8], ptr }>, ptr @_ZN12tracing_core8callsite16LOCKED_CALLSITES17he8d4287cb4f62c95E, i64 0, i32 1, i64 8), metadata !3442, metadata !DIExpression()), !dbg !3449
  call void @llvm.dbg.value(metadata ptr %callsite.0, metadata !3434, metadata !DIExpression(DW_OP_LLVM_fragment, 0, 64)), !dbg !3440
  call void @llvm.dbg.value(metadata ptr %callsite.1, metadata !3434, metadata !DIExpression(DW_OP_LLVM_fragment, 64, 64)), !dbg !3440
  %len.i.i = load i64, ptr getelementptr inbounds (<{ [16 x i8], [32 x i8], ptr }>, ptr @_ZN12tracing_core8callsite16LOCKED_CALLSITES17he8d4287cb4f62c95E, i64 0, i32 1, i64 24), align 8, !dbg !3451, !alias.scope !3423, !noalias !3452, !noundef !24
  call void @llvm.dbg.value(metadata i64 %len.i.i, metadata !3435, metadata !DIExpression()), !dbg !3454
  call void @llvm.dbg.value(metadata i64 %len.i.i, metadata !3455, metadata !DIExpression()), !dbg !3462
  call void @llvm.dbg.value(metadata ptr getelementptr inbounds (<{ [16 x i8], [32 x i8], ptr }>, ptr @_ZN12tracing_core8callsite16LOCKED_CALLSITES17he8d4287cb4f62c95E, i64 0, i32 1, i64 8), metadata !3464, metadata !DIExpression()), !dbg !3471
  %26 = load i64, ptr getelementptr inbounds (<{ [16 x i8], [32 x i8], ptr }>, ptr @_ZN12tracing_core8callsite16LOCKED_CALLSITES17he8d4287cb4f62c95E, i64 0, i32 1, i64 8), align 8, !dbg !3473, !alias.scope !3423, !noalias !3452, !noundef !24
  %_4.i.i = icmp eq i64 %len.i.i, %26, !dbg !3474
  br i1 %_4.i.i, label %bb1.i.i9, label %_ZN12tracing_core8callsite9Callsites8push_dyn17h0462639f4b0cbb43E.exit, !dbg !3474

bb1.i.i9:                                         ; preds = %bb8.i
; invoke alloc::raw_vec::RawVec<T,A>::grow_one
  invoke fastcc void @"_ZN5alloc7raw_vec19RawVec$LT$T$C$A$GT$8grow_one17hffa2b55708b94644E"(ptr noalias noundef nonnull align 8 dereferenceable(16) getelementptr inbounds (<{ [16 x i8], [32 x i8], ptr }>, ptr @_ZN12tracing_core8callsite16LOCKED_CALLSITES17he8d4287cb4f62c95E, i64 0, i32 1, i64 8))
          to label %_ZN12tracing_core8callsite9Callsites8push_dyn17h0462639f4b0cbb43E.exit unwind label %bb6.i, !dbg !3475, !noalias !3255

bb6.i:                                            ; preds = %bb1.i.i9
  %27 = landingpad { ptr, i32 }
          cleanup
  call void @llvm.dbg.value(metadata ptr undef, metadata !3476, metadata !DIExpression()), !dbg !3483
  call void @llvm.dbg.value(metadata i8 0, metadata !3485, metadata !DIExpression()), !dbg !3491
  call void @llvm.dbg.value(metadata i8 1, metadata !3490, metadata !DIExpression()), !dbg !3491
  call void @llvm.dbg.value(metadata ptr undef, metadata !3499, metadata !DIExpression()), !dbg !3501
  call void @llvm.dbg.value(metadata ptr getelementptr inbounds (<{ [16 x i8], [32 x i8], ptr }>, ptr @_ZN12tracing_core8callsite16LOCKED_CALLSITES17he8d4287cb4f62c95E, i64 0, i32 1, i64 0), metadata !3489, metadata !DIExpression()), !dbg !3491
  call void @llvm.dbg.value(metadata i8 1, metadata !3413, metadata !DIExpression()), !dbg !3502
  call void @llvm.dbg.value(metadata ptr getelementptr inbounds (<{ [16 x i8], [32 x i8], ptr }>, ptr @_ZN12tracing_core8callsite16LOCKED_CALLSITES17he8d4287cb4f62c95E, i64 0, i32 1, i64 0), metadata !3418, metadata !DIExpression()), !dbg !3502
  call void @llvm.dbg.value(metadata i8 0, metadata !3419, metadata !DIExpression()), !dbg !3502
  store atomic i8 0, ptr getelementptr inbounds (<{ [16 x i8], [32 x i8], ptr }>, ptr @_ZN12tracing_core8callsite16LOCKED_CALLSITES17he8d4287cb4f62c95E, i64 0, i32 1, i64 0) release, align 8, !dbg !3504, !noalias !3505
  resume { ptr, i32 } %27, !dbg !3510

_ZN12tracing_core8callsite9Callsites8push_dyn17h0462639f4b0cbb43E.exit: ; preds = %bb8.i, %bb1.i.i9
  call void @llvm.dbg.value(metadata ptr getelementptr inbounds (<{ [16 x i8], [32 x i8], ptr }>, ptr @_ZN12tracing_core8callsite16LOCKED_CALLSITES17he8d4287cb4f62c95E, i64 0, i32 1, i64 8), metadata !3511, metadata !DIExpression()), !dbg !3518
  %self3.i.i = load ptr, ptr getelementptr inbounds (<{ [16 x i8], [32 x i8], ptr }>, ptr @_ZN12tracing_core8callsite16LOCKED_CALLSITES17he8d4287cb4f62c95E, i64 0, i32 1, i64 16), align 8, !dbg !3520, !alias.scope !3423, !noalias !3452, !nonnull !24, !noundef !24
  call void @llvm.dbg.value(metadata ptr %self3.i.i, metadata !3461, metadata !DIExpression()), !dbg !3462
  %end.i.i = getelementptr inbounds { ptr, ptr }, ptr %self3.i.i, i64 %len.i.i, !dbg !3521
  call void @llvm.dbg.value(metadata ptr %end.i.i, metadata !3437, metadata !DIExpression()), !dbg !3522
  call void @llvm.dbg.value(metadata ptr %end.i.i, metadata !3523, metadata !DIExpression()), !dbg !3530
  call void @llvm.dbg.value(metadata ptr %callsite.0, metadata !3529, metadata !DIExpression(DW_OP_LLVM_fragment, 0, 64)), !dbg !3530
  call void @llvm.dbg.value(metadata ptr %callsite.1, metadata !3529, metadata !DIExpression(DW_OP_LLVM_fragment, 64, 64)), !dbg !3530
  store ptr %callsite.0, ptr %end.i.i, align 8, !dbg !3532, !noalias !3533
  %28 = getelementptr inbounds i8, ptr %end.i.i, i64 8, !dbg !3532
  store ptr %callsite.1, ptr %28, align 8, !dbg !3532, !noalias !3533
  %29 = add i64 %len.i.i, 1, !dbg !3534
  store i64 %29, ptr getelementptr inbounds (<{ [16 x i8], [32 x i8], ptr }>, ptr @_ZN12tracing_core8callsite16LOCKED_CALLSITES17he8d4287cb4f62c95E, i64 0, i32 1, i64 24), align 8, !dbg !3534, !alias.scope !3423, !noalias !3452
  call void @llvm.dbg.value(metadata ptr undef, metadata !3476, metadata !DIExpression()), !dbg !3535
  call void @llvm.dbg.value(metadata i8 0, metadata !3485, metadata !DIExpression()), !dbg !3537
  call void @llvm.dbg.value(metadata i8 1, metadata !3490, metadata !DIExpression()), !dbg !3537
  call void @llvm.dbg.value(metadata ptr undef, metadata !3499, metadata !DIExpression()), !dbg !3540
  call void @llvm.dbg.value(metadata ptr getelementptr inbounds (<{ [16 x i8], [32 x i8], ptr }>, ptr @_ZN12tracing_core8callsite16LOCKED_CALLSITES17he8d4287cb4f62c95E, i64 0, i32 1, i64 0), metadata !3489, metadata !DIExpression()), !dbg !3537
  call void @llvm.dbg.value(metadata i8 1, metadata !3413, metadata !DIExpression()), !dbg !3541
  call void @llvm.dbg.value(metadata ptr getelementptr inbounds (<{ [16 x i8], [32 x i8], ptr }>, ptr @_ZN12tracing_core8callsite16LOCKED_CALLSITES17he8d4287cb4f62c95E, i64 0, i32 1, i64 0), metadata !3418, metadata !DIExpression()), !dbg !3541
  call void @llvm.dbg.value(metadata i8 0, metadata !3419, metadata !DIExpression()), !dbg !3541
  store atomic i8 0, ptr getelementptr inbounds (<{ [16 x i8], [32 x i8], ptr }>, ptr @_ZN12tracing_core8callsite16LOCKED_CALLSITES17he8d4287cb4f62c95E, i64 0, i32 1, i64 0) release, align 8, !dbg !3543, !noalias !3544
  br label %bb6, !dbg !3549

bb3:                                              ; preds = %_ZN12tracing_core8callsite25rebuild_callsite_interest17h3735a8b6f8b892fcE.exit
  tail call void @llvm.dbg.value(metadata ptr %callsite.0, metadata !3004, metadata !DIExpression()), !dbg !3550
  call void @llvm.lifetime.start.p0(i64 8, ptr nonnull %_8.i), !dbg !3551
  call void @llvm.dbg.value(metadata i8 1, metadata !3566, metadata !DIExpression()), !dbg !3572
  call void @llvm.dbg.value(metadata i8 2, metadata !3573, metadata !DIExpression()), !dbg !3582
  call void @llvm.dbg.value(metadata i8 1, metadata !3584, metadata !DIExpression()), !dbg !3593
  call void @llvm.dbg.value(metadata i8 3, metadata !3595, metadata !DIExpression()), !dbg !3621
  call void @llvm.dbg.value(metadata i8 2, metadata !3620, metadata !DIExpression()), !dbg !3621
  call void @llvm.dbg.value(metadata ptr @_ZN12tracing_core8callsite9CALLSITES17hccc57102ec60b6c5E, metadata !3558, metadata !DIExpression()), !dbg !3623
  call void @llvm.dbg.value(metadata ptr %callsite.0, metadata !3559, metadata !DIExpression()), !dbg !3623
  call void @llvm.dbg.declare(metadata ptr %head.i, metadata !3560, metadata !DIExpression()), !dbg !3624
  call void @llvm.lifetime.start.p0(i64 8, ptr nonnull %head.i), !dbg !3551
  call void @llvm.dbg.value(metadata ptr @_ZN12tracing_core8callsite9CALLSITES17hccc57102ec60b6c5E, metadata !3581, metadata !DIExpression()), !dbg !3582
  call void @llvm.dbg.value(metadata i8 2, metadata !3625, metadata !DIExpression()), !dbg !3632
  call void @llvm.dbg.value(metadata ptr @_ZN12tracing_core8callsite9CALLSITES17hccc57102ec60b6c5E, metadata !3631, metadata !DIExpression()), !dbg !3632
  %30 = load atomic ptr, ptr @_ZN12tracing_core8callsite9CALLSITES17hccc57102ec60b6c5E acquire, align 8, !dbg !3634
  %_29.i = getelementptr inbounds i8, ptr %callsite.0, i64 8
  br label %bb1.i, !dbg !3635

bb1.i:                                            ; preds = %bb3.i, %bb3
  %storemerge.i = phi ptr [ %30, %bb3 ], [ %33, %bb3.i ], !dbg !3623
  store ptr %storemerge.i, ptr %head.i, align 8, !dbg !3623
  call void @llvm.dbg.value(metadata ptr %callsite.0, metadata !3591, metadata !DIExpression(DW_OP_plus_uconst, 8, DW_OP_stack_value)), !dbg !3593
  call void @llvm.dbg.value(metadata ptr %storemerge.i, metadata !3592, metadata !DIExpression()), !dbg !3593
  call void @llvm.dbg.value(metadata i8 1, metadata !3636, metadata !DIExpression()), !dbg !3644
  call void @llvm.dbg.value(metadata ptr %_29.i, metadata !3642, metadata !DIExpression()), !dbg !3644
  call void @llvm.dbg.value(metadata ptr %storemerge.i, metadata !3643, metadata !DIExpression()), !dbg !3644
  store atomic ptr %storemerge.i, ptr %_29.i release, align 8, !dbg !3646
  store ptr %callsite.0, ptr %_8.i, align 8, !dbg !3647
  call void @llvm.dbg.value(metadata ptr %_8.i, metadata !3562, metadata !DIExpression()), !dbg !3648
  call void @llvm.dbg.value(metadata ptr %head.i, metadata !3565, metadata !DIExpression()), !dbg !3648
  %_10.i = icmp eq ptr %storemerge.i, %callsite.0, !dbg !3649
  br i1 %_10.i, label %bb2.i, label %bb3.i, !dbg !3649

bb3.i:                                            ; preds = %bb1.i
  call void @llvm.dbg.value(metadata ptr @_ZN12tracing_core8callsite9CALLSITES17hccc57102ec60b6c5E, metadata !3617, metadata !DIExpression()), !dbg !3621
  call void @llvm.dbg.value(metadata ptr %storemerge.i, metadata !3618, metadata !DIExpression()), !dbg !3621
  call void @llvm.dbg.value(metadata ptr %callsite.0, metadata !3619, metadata !DIExpression()), !dbg !3621
  call void @llvm.dbg.value(metadata i8 3, metadata !3650, metadata !DIExpression()), !dbg !3662
  call void @llvm.dbg.value(metadata i8 2, metadata !3658, metadata !DIExpression()), !dbg !3662
  call void @llvm.dbg.value(metadata ptr @_ZN12tracing_core8callsite9CALLSITES17hccc57102ec60b6c5E, metadata !3655, metadata !DIExpression()), !dbg !3662
  call void @llvm.dbg.value(metadata ptr %storemerge.i, metadata !3656, metadata !DIExpression()), !dbg !3662
  call void @llvm.dbg.value(metadata ptr %callsite.0, metadata !3657, metadata !DIExpression()), !dbg !3662
  %31 = cmpxchg ptr @_ZN12tracing_core8callsite9CALLSITES17hccc57102ec60b6c5E, ptr %storemerge.i, ptr %callsite.0 acq_rel acquire, align 8, !dbg !3664
  %32 = extractvalue { ptr, i1 } %31, 1, !dbg !3664
  %33 = extractvalue { ptr, i1 } %31, 0, !dbg !3664
  br i1 %32, label %_ZN12tracing_core8callsite9Callsites12push_default17h7eee0fadcd8baf1dE.exit, label %bb1.i, !dbg !3665

bb2.i:                                            ; preds = %bb1.i
  call void @llvm.lifetime.start.p0(i64 48, ptr nonnull %_14.i), !dbg !3666
  store ptr @alloc_90908afe2b3cb5c3b7219ed94b2e58e0, ptr %_14.i, align 8, !dbg !3666
  %_15.sroa.4.0._14.sroa_idx.i = getelementptr inbounds i8, ptr %_14.i, i64 8, !dbg !3666
  store i64 1, ptr %_15.sroa.4.0._14.sroa_idx.i, align 8, !dbg !3666
  %_15.sroa.5.0._14.sroa_idx.i = getelementptr inbounds i8, ptr %_14.i, i64 16, !dbg !3666
  store ptr inttoptr (i64 8 to ptr), ptr %_15.sroa.5.0._14.sroa_idx.i, align 8, !dbg !3666
  %_15.sroa.6.0._14.sroa_idx.i = getelementptr inbounds i8, ptr %_14.i, i64 24, !dbg !3666
  call void @llvm.memset.p0.i64(ptr noundef nonnull align 8 dereferenceable(16) %_15.sroa.6.0._14.sroa_idx.i, i8 0, i64 16, i1 false), !dbg !3666
; call core::panicking::assert_failed
  call fastcc void @_ZN4core9panicking13assert_failed17h700d196a8b4ecd41E(ptr noalias noundef nonnull readonly align 8 dereferenceable(8) %_8.i, ptr noalias noundef nonnull readonly align 8 dereferenceable(8) %head.i, ptr noalias nocapture noundef nonnull align 8 dereferenceable(48) %_14.i) #31, !dbg !3666
  unreachable, !dbg !3666

_ZN12tracing_core8callsite9Callsites12push_default17h7eee0fadcd8baf1dE.exit: ; preds = %bb3.i
  call void @llvm.lifetime.end.p0(i64 8, ptr nonnull %head.i), !dbg !3667
  call void @llvm.lifetime.end.p0(i64 8, ptr nonnull %_8.i), !dbg !3668
  br label %bb6, !dbg !3669

bb6:                                              ; preds = %_ZN12tracing_core8callsite9Callsites12push_default17h7eee0fadcd8baf1dE.exit, %_ZN12tracing_core8callsite9Callsites8push_dyn17h0462639f4b0cbb43E.exit
  ret void, !dbg !3669
}

; tracing_core::callsite::DefaultCallsite::register
; Function Attrs: cold noinline nonlazybind uwtable
define noundef i8 @_ZN12tracing_core8callsite15DefaultCallsite8register17h1f01c6d2d83987b0E(ptr noundef nonnull align 8 %self) unnamed_addr #7 personality ptr @rust_eh_personality !dbg !3670 {
start:
  %_14.i = alloca [48 x i8], align 8
  %_8.i = alloca [8 x i8], align 8
  %head.i = alloca [8 x i8], align 8
  tail call void @llvm.dbg.value(metadata i8 0, metadata !3686, metadata !DIExpression()), !dbg !3698
  tail call void @llvm.dbg.value(metadata i8 1, metadata !3695, metadata !DIExpression()), !dbg !3698
  tail call void @llvm.dbg.value(metadata i8 3, metadata !3696, metadata !DIExpression()), !dbg !3698
  tail call void @llvm.dbg.value(metadata i8 2, metadata !3697, metadata !DIExpression()), !dbg !3698
  tail call void @llvm.dbg.value(metadata i8 2, metadata !3700, metadata !DIExpression()), !dbg !3709
  tail call void @llvm.dbg.value(metadata i8 1, metadata !3708, metadata !DIExpression()), !dbg !3709
  tail call void @llvm.dbg.value(metadata i8 0, metadata !3711, metadata !DIExpression()), !dbg !3719
  tail call void @llvm.dbg.value(metadata ptr %self, metadata !3675, metadata !DIExpression()), !dbg !3721
  tail call void @llvm.dbg.value(metadata ptr %self, metadata !3694, metadata !DIExpression(DW_OP_plus_uconst, 17, DW_OP_stack_value)), !dbg !3698
  tail call void @llvm.dbg.value(metadata ptr %self, metadata !3722, metadata !DIExpression(DW_OP_plus_uconst, 17, DW_OP_stack_value)), !dbg !3734
  %_17 = getelementptr inbounds i8, ptr %self, i64 17, !dbg !3736
  tail call void @llvm.dbg.value(metadata i8 3, metadata !3737, metadata !DIExpression()), !dbg !3747
  tail call void @llvm.dbg.value(metadata i8 2, metadata !3743, metadata !DIExpression()), !dbg !3747
  tail call void @llvm.dbg.value(metadata ptr %_17, metadata !3740, metadata !DIExpression()), !dbg !3747
  tail call void @llvm.dbg.value(metadata i8 0, metadata !3741, metadata !DIExpression()), !dbg !3747
  tail call void @llvm.dbg.value(metadata i8 1, metadata !3742, metadata !DIExpression()), !dbg !3747
  %0 = cmpxchg ptr %_17, i8 0, i8 1 acq_rel acquire, align 1, !dbg !3749
  %1 = extractvalue { i8, i1 } %0, 1, !dbg !3749
  br i1 %1, label %bb3.i.i, label %bb2, !dbg !3750

bb3.i.i:                                          ; preds = %start
  call void @llvm.dbg.value(metadata ptr %self, metadata !3011, metadata !DIExpression(DW_OP_LLVM_fragment, 0, 64)), !dbg !3751
  call void @llvm.dbg.value(metadata !24, metadata !3011, metadata !DIExpression(DW_OP_LLVM_fragment, 64, 64)), !dbg !3751
  call void @llvm.dbg.value(metadata ptr undef, metadata !3034, metadata !DIExpression()), !dbg !3751
  tail call void @llvm.dbg.value(metadata ptr %self, metadata !3753, metadata !DIExpression()), !dbg !3759
  %_0.i = load ptr, ptr %self, align 8, !dbg !3761, !noalias !3762, !nonnull !24, !align !838, !noundef !24
  call void @llvm.dbg.value(metadata ptr %_0.i, metadata !3035, metadata !DIExpression()), !dbg !3765
  call void @llvm.dbg.value(metadata i8 3, metadata !3037, metadata !DIExpression()), !dbg !3766
  call void @llvm.dbg.value(metadata ptr undef, metadata !3062, metadata !DIExpression(DW_OP_LLVM_fragment, 0, 64)), !dbg !3767
  call void @llvm.dbg.value(metadata ptr undef, metadata !3062, metadata !DIExpression(DW_OP_LLVM_fragment, 64, 64)), !dbg !3767
  call void @llvm.dbg.value(metadata ptr undef, metadata !3077, metadata !DIExpression()), !dbg !3767
  call void @llvm.dbg.value(metadata ptr @_ZN12tracing_core10dispatcher11GLOBAL_INIT17h32115fdb9b27e6eeE, metadata !3082, metadata !DIExpression()), !dbg !3769
  call void @llvm.dbg.value(metadata i8 4, metadata !3086, metadata !DIExpression()), !dbg !3769
  call void @llvm.dbg.value(metadata ptr undef, metadata !3098, metadata !DIExpression(DW_OP_LLVM_fragment, 0, 64)), !dbg !3773
  call void @llvm.dbg.value(metadata ptr undef, metadata !3098, metadata !DIExpression(DW_OP_LLVM_fragment, 64, 64)), !dbg !3773
  call void @llvm.dbg.value(metadata i8 4, metadata !2638, metadata !DIExpression()), !dbg !3774
  call void @llvm.dbg.value(metadata ptr @_ZN12tracing_core10dispatcher11GLOBAL_INIT17h32115fdb9b27e6eeE, metadata !2644, metadata !DIExpression()), !dbg !3774
  %2 = load atomic i64, ptr @_ZN12tracing_core10dispatcher11GLOBAL_INIT17h32115fdb9b27e6eeE seq_cst, align 8, !dbg !3776, !noalias !3777
  %_6.not.i.i.i = icmp ne i64 %2, 2, !dbg !3784
  call void @llvm.dbg.value(metadata ptr undef, metadata !3114, metadata !DIExpression(DW_OP_deref, DW_OP_deref)), !dbg !3785
  call void @llvm.dbg.value(metadata ptr undef, metadata !3121, metadata !DIExpression(DW_OP_deref, DW_OP_plus_uconst, 8, DW_OP_deref)), !dbg !3785
  call void @llvm.dbg.value(metadata ptr poison, metadata !3120, metadata !DIExpression()), !dbg !3785
  call void @llvm.dbg.value(metadata ptr poison, metadata !3128, metadata !DIExpression()), !dbg !3787
  call void @llvm.dbg.value(metadata ptr poison, metadata !3137, metadata !DIExpression()), !dbg !3789
  call void @llvm.dbg.value(metadata ptr %_0.i, metadata !3134, metadata !DIExpression()), !dbg !3787
  %_ZN12tracing_core10dispatcher15GLOBAL_DISPATCH17h87fe84e1b4a2c89aE.val.i.i.i = load i64, ptr @_ZN12tracing_core10dispatcher15GLOBAL_DISPATCH17h87fe84e1b4a2c89aE, align 8, !dbg !3791, !noalias !3777
  %trunc.not.i.i4.i.i.i = icmp eq i64 %_ZN12tracing_core10dispatcher15GLOBAL_DISPATCH17h87fe84e1b4a2c89aE.val.i.i.i, 0, !dbg !3792
  %trunc.not.i.i.i.i.i = select i1 %_6.not.i.i.i, i1 true, i1 %trunc.not.i.i4.i.i.i, !dbg !3792
  %.val.i.i.i = load ptr, ptr getelementptr inbounds (<{ [8 x i8], ptr, ptr }>, ptr @_ZN12tracing_core10dispatcher15GLOBAL_DISPATCH17h87fe84e1b4a2c89aE, i64 0, i32 1), align 8, !dbg !3789, !noalias !3777
  %s.0.i.i.i.i.i = select i1 %_6.not.i.i.i, ptr @_ZN12tracing_core10dispatcher13NO_SUBSCRIBER17h03311d1c194bfc5eE, ptr %.val.i.i.i, !dbg !3789
  %.val6.i.i.i = load ptr, ptr getelementptr inbounds (<{ [8 x i8], ptr, ptr }>, ptr @_ZN12tracing_core10dispatcher15GLOBAL_DISPATCH17h87fe84e1b4a2c89aE, i64 0, i32 2), align 8, !dbg !3789, !noalias !3777
  br i1 %trunc.not.i.i.i.i.i, label %_ZN12tracing_core8callsite25rebuild_callsite_interest17h3735a8b6f8b892fcE.exit, label %bb3.i.i.i.i.i, !dbg !3792

bb3.i.i.i.i.i:                                    ; preds = %bb3.i.i
  call void @llvm.dbg.value(metadata ptr poison, metadata !3146, metadata !DIExpression(DW_OP_plus_uconst, 8, DW_OP_stack_value)), !dbg !3793
  %3 = getelementptr inbounds i8, ptr %.val6.i.i.i, i64 16, !dbg !3794
  %4 = load i64, ptr %3, align 8, !dbg !3794, !range !1554, !invariant.load !24, !noalias !3795
  %5 = add i64 %4, -1, !dbg !3794
  %6 = and i64 %5, -16, !dbg !3794
  %7 = getelementptr i8, ptr %.val.i.i.i, i64 %6, !dbg !3794
  %_8.0.i.i.i.i.i = getelementptr i8, ptr %7, i64 16, !dbg !3794
  br label %_ZN12tracing_core8callsite25rebuild_callsite_interest17h3735a8b6f8b892fcE.exit, !dbg !3801

_ZN12tracing_core8callsite25rebuild_callsite_interest17h3735a8b6f8b892fcE.exit: ; preds = %bb3.i.i, %bb3.i.i.i.i.i
  %_4.sroa.0.0.i.i.i.i.i = phi ptr [ %_8.0.i.i.i.i.i, %bb3.i.i.i.i.i ], [ %s.0.i.i.i.i.i, %bb3.i.i ], !dbg !3789
  %s.1.i.i.i.i.i = select i1 %_6.not.i.i.i, ptr @0, ptr %.val6.i.i.i, !dbg !3789
  %8 = getelementptr inbounds i8, ptr %s.1.i.i.i.i.i, i64 32, !dbg !3767
  %9 = load ptr, ptr %8, align 8, !dbg !3767, !invariant.load !24, !noalias !3802, !nonnull !24
  %_0.i.i.i.i.i = tail call noundef i8 %9(ptr noundef align 1 %_4.sroa.0.0.i.i.i.i.i, ptr noalias noundef nonnull readonly align 8 dereferenceable(120) %_0.i), !dbg !3767, !range !3163, !noalias !3802
  call void @llvm.dbg.value(metadata i8 %_0.i.i.i.i.i, metadata !3055, metadata !DIExpression()), !dbg !3803
  tail call void @llvm.dbg.value(metadata i8 4, metadata !3804, metadata !DIExpression()), !dbg !3810
  tail call void @llvm.dbg.value(metadata i8 %_0.i.i.i.i.i, metadata !3818, metadata !DIExpression()), !dbg !3821
  tail call void @llvm.dbg.value(metadata ptr %self, metadata !3817, metadata !DIExpression()), !dbg !3821
  %switch.selectcmp.i = icmp eq i8 %_0.i.i.i.i.i, 2, !dbg !3822
  %switch.select.i = select i1 %switch.selectcmp.i, i8 2, i8 1, !dbg !3822
  %switch.selectcmp8.i = icmp eq i8 %_0.i.i.i.i.i, 0, !dbg !3822
  %switch.select9.i = select i1 %switch.selectcmp8.i, i8 0, i8 %switch.select.i, !dbg !3822
  tail call void @llvm.dbg.value(metadata i8 %switch.select9.i, metadata !3819, metadata !DIExpression()), !dbg !3823
  tail call void @llvm.dbg.value(metadata ptr %self, metadata !3808, metadata !DIExpression(DW_OP_plus_uconst, 16, DW_OP_stack_value)), !dbg !3810
  tail call void @llvm.dbg.value(metadata i8 %switch.select9.i, metadata !3809, metadata !DIExpression()), !dbg !3810
  tail call void @llvm.dbg.value(metadata ptr %self, metadata !3824, metadata !DIExpression(DW_OP_plus_uconst, 16, DW_OP_stack_value)), !dbg !3828
  %_12.i = getelementptr inbounds i8, ptr %self, i64 16, !dbg !3830
  tail call void @llvm.dbg.value(metadata i8 4, metadata !3413, metadata !DIExpression()), !dbg !3831
  tail call void @llvm.dbg.value(metadata ptr %_12.i, metadata !3418, metadata !DIExpression()), !dbg !3831
  tail call void @llvm.dbg.value(metadata i8 %switch.select9.i, metadata !3419, metadata !DIExpression()), !dbg !3831
  store atomic i8 %switch.select9.i, ptr %_12.i seq_cst, align 8, !dbg !3833, !noalias !3762
  call void @llvm.lifetime.start.p0(i64 8, ptr nonnull %_8.i), !dbg !3834
  call void @llvm.dbg.value(metadata i8 1, metadata !3566, metadata !DIExpression()), !dbg !3836
  call void @llvm.dbg.value(metadata i8 2, metadata !3573, metadata !DIExpression()), !dbg !3837
  call void @llvm.dbg.value(metadata i8 1, metadata !3584, metadata !DIExpression()), !dbg !3839
  call void @llvm.dbg.value(metadata i8 3, metadata !3595, metadata !DIExpression()), !dbg !3841
  call void @llvm.dbg.value(metadata i8 2, metadata !3620, metadata !DIExpression()), !dbg !3841
  call void @llvm.dbg.value(metadata ptr @_ZN12tracing_core8callsite9CALLSITES17hccc57102ec60b6c5E, metadata !3558, metadata !DIExpression()), !dbg !3843
  call void @llvm.dbg.value(metadata ptr %self, metadata !3559, metadata !DIExpression()), !dbg !3843
  call void @llvm.dbg.declare(metadata ptr %head.i, metadata !3560, metadata !DIExpression()), !dbg !3844
  call void @llvm.lifetime.start.p0(i64 8, ptr nonnull %head.i), !dbg !3834
  call void @llvm.dbg.value(metadata ptr @_ZN12tracing_core8callsite9CALLSITES17hccc57102ec60b6c5E, metadata !3581, metadata !DIExpression()), !dbg !3837
  call void @llvm.dbg.value(metadata i8 2, metadata !3625, metadata !DIExpression()), !dbg !3845
  call void @llvm.dbg.value(metadata ptr @_ZN12tracing_core8callsite9CALLSITES17hccc57102ec60b6c5E, metadata !3631, metadata !DIExpression()), !dbg !3845
  %10 = load atomic ptr, ptr @_ZN12tracing_core8callsite9CALLSITES17hccc57102ec60b6c5E acquire, align 8, !dbg !3847
  %_29.i = getelementptr inbounds i8, ptr %self, i64 8
  br label %bb1.i, !dbg !3848

bb1.i:                                            ; preds = %bb3.i, %_ZN12tracing_core8callsite25rebuild_callsite_interest17h3735a8b6f8b892fcE.exit
  %storemerge.i = phi ptr [ %10, %_ZN12tracing_core8callsite25rebuild_callsite_interest17h3735a8b6f8b892fcE.exit ], [ %13, %bb3.i ], !dbg !3843
  store ptr %storemerge.i, ptr %head.i, align 8, !dbg !3843
  call void @llvm.dbg.value(metadata ptr %self, metadata !3591, metadata !DIExpression(DW_OP_plus_uconst, 8, DW_OP_stack_value)), !dbg !3839
  call void @llvm.dbg.value(metadata ptr %storemerge.i, metadata !3592, metadata !DIExpression()), !dbg !3839
  call void @llvm.dbg.value(metadata i8 1, metadata !3636, metadata !DIExpression()), !dbg !3849
  call void @llvm.dbg.value(metadata ptr %_29.i, metadata !3642, metadata !DIExpression()), !dbg !3849
  call void @llvm.dbg.value(metadata ptr %storemerge.i, metadata !3643, metadata !DIExpression()), !dbg !3849
  store atomic ptr %storemerge.i, ptr %_29.i release, align 8, !dbg !3851
  store ptr %self, ptr %_8.i, align 8, !dbg !3852
  call void @llvm.dbg.value(metadata ptr %_8.i, metadata !3562, metadata !DIExpression()), !dbg !3853
  call void @llvm.dbg.value(metadata ptr %head.i, metadata !3565, metadata !DIExpression()), !dbg !3853
  %_10.i = icmp eq ptr %storemerge.i, %self, !dbg !3854
  br i1 %_10.i, label %bb2.i, label %bb3.i, !dbg !3854

bb3.i:                                            ; preds = %bb1.i
  call void @llvm.dbg.value(metadata ptr @_ZN12tracing_core8callsite9CALLSITES17hccc57102ec60b6c5E, metadata !3617, metadata !DIExpression()), !dbg !3841
  call void @llvm.dbg.value(metadata ptr %storemerge.i, metadata !3618, metadata !DIExpression()), !dbg !3841
  call void @llvm.dbg.value(metadata ptr %self, metadata !3619, metadata !DIExpression()), !dbg !3841
  call void @llvm.dbg.value(metadata i8 3, metadata !3650, metadata !DIExpression()), !dbg !3855
  call void @llvm.dbg.value(metadata i8 2, metadata !3658, metadata !DIExpression()), !dbg !3855
  call void @llvm.dbg.value(metadata ptr @_ZN12tracing_core8callsite9CALLSITES17hccc57102ec60b6c5E, metadata !3655, metadata !DIExpression()), !dbg !3855
  call void @llvm.dbg.value(metadata ptr %storemerge.i, metadata !3656, metadata !DIExpression()), !dbg !3855
  call void @llvm.dbg.value(metadata ptr %self, metadata !3657, metadata !DIExpression()), !dbg !3855
  %11 = cmpxchg ptr @_ZN12tracing_core8callsite9CALLSITES17hccc57102ec60b6c5E, ptr %storemerge.i, ptr %self acq_rel acquire, align 8, !dbg !3857
  %12 = extractvalue { ptr, i1 } %11, 1, !dbg !3857
  %13 = extractvalue { ptr, i1 } %11, 0, !dbg !3857
  br i1 %12, label %_ZN12tracing_core8callsite9Callsites12push_default17h7eee0fadcd8baf1dE.exit, label %bb1.i, !dbg !3858

bb2.i:                                            ; preds = %bb1.i
  call void @llvm.lifetime.start.p0(i64 48, ptr nonnull %_14.i), !dbg !3859
  store ptr @alloc_90908afe2b3cb5c3b7219ed94b2e58e0, ptr %_14.i, align 8, !dbg !3859
  %_15.sroa.4.0._14.sroa_idx.i = getelementptr inbounds i8, ptr %_14.i, i64 8, !dbg !3859
  store i64 1, ptr %_15.sroa.4.0._14.sroa_idx.i, align 8, !dbg !3859
  %_15.sroa.5.0._14.sroa_idx.i = getelementptr inbounds i8, ptr %_14.i, i64 16, !dbg !3859
  store ptr inttoptr (i64 8 to ptr), ptr %_15.sroa.5.0._14.sroa_idx.i, align 8, !dbg !3859
  %_15.sroa.6.0._14.sroa_idx.i = getelementptr inbounds i8, ptr %_14.i, i64 24, !dbg !3859
  call void @llvm.memset.p0.i64(ptr noundef nonnull align 8 dereferenceable(16) %_15.sroa.6.0._14.sroa_idx.i, i8 0, i64 16, i1 false), !dbg !3859
; call core::panicking::assert_failed
  call fastcc void @_ZN4core9panicking13assert_failed17h700d196a8b4ecd41E(ptr noalias noundef nonnull readonly align 8 dereferenceable(8) %_8.i, ptr noalias noundef nonnull readonly align 8 dereferenceable(8) %head.i, ptr noalias nocapture noundef nonnull align 8 dereferenceable(48) %_14.i) #31, !dbg !3859
  unreachable, !dbg !3859

_ZN12tracing_core8callsite9Callsites12push_default17h7eee0fadcd8baf1dE.exit: ; preds = %bb3.i
  call void @llvm.lifetime.end.p0(i64 8, ptr nonnull %head.i), !dbg !3860
  call void @llvm.lifetime.end.p0(i64 8, ptr nonnull %_8.i), !dbg !3861
  tail call void @llvm.dbg.value(metadata ptr %self, metadata !3707, metadata !DIExpression(DW_OP_plus_uconst, 17, DW_OP_stack_value)), !dbg !3709
  tail call void @llvm.dbg.value(metadata i8 1, metadata !3413, metadata !DIExpression()), !dbg !3862
  tail call void @llvm.dbg.value(metadata ptr %_17, metadata !3418, metadata !DIExpression()), !dbg !3862
  tail call void @llvm.dbg.value(metadata i8 2, metadata !3419, metadata !DIExpression()), !dbg !3862
  store atomic i8 2, ptr %_17 release, align 1, !dbg !3864
  br label %bb7, !dbg !3865

bb2:                                              ; preds = %start
  %14 = extractvalue { i8, i1 } %0, 0, !dbg !3749
  %15 = icmp eq i8 %14, 2, !dbg !3750
  br i1 %15, label %bb7, label %bb9, !dbg !3750

bb7:                                              ; preds = %bb2, %_ZN12tracing_core8callsite9Callsites12push_default17h7eee0fadcd8baf1dE.exit
  tail call void @llvm.dbg.value(metadata ptr %self, metadata !3718, metadata !DIExpression(DW_OP_plus_uconst, 16, DW_OP_stack_value)), !dbg !3719
  tail call void @llvm.dbg.value(metadata ptr %self, metadata !3732, metadata !DIExpression(DW_OP_plus_uconst, 16, DW_OP_stack_value)), !dbg !3866
  %_24 = getelementptr inbounds i8, ptr %self, i64 16, !dbg !3868
  tail call void @llvm.dbg.value(metadata i8 0, metadata !3395, metadata !DIExpression()), !dbg !3869
  tail call void @llvm.dbg.value(metadata ptr %_24, metadata !3400, metadata !DIExpression()), !dbg !3869
  %16 = load atomic i8, ptr %_24 monotonic, align 8, !dbg !3871
  %switch.selectcmp = icmp eq i8 %16, 2, !dbg !3872
  %switch.select = select i1 %switch.selectcmp, i8 2, i8 1, !dbg !3872
  %switch.selectcmp16 = icmp eq i8 %16, 0, !dbg !3872
  %switch.select17 = select i1 %switch.selectcmp16, i8 0, i8 %switch.select, !dbg !3872
  br label %bb9, !dbg !3872

bb9:                                              ; preds = %bb2, %bb7
  %_0.sroa.0.0 = phi i8 [ %switch.select17, %bb7 ], [ 1, %bb2 ], !dbg !3721
  ret i8 %_0.sroa.0.0, !dbg !3873
}

; <tracing_core::callsite::DefaultCallsite as tracing_core::callsite::Callsite>::set_interest
; Function Attrs: mustprogress nofree norecurse nounwind nonlazybind willreturn memory(argmem: readwrite) uwtable
define void @"_ZN92_$LT$tracing_core..callsite..DefaultCallsite$u20$as$u20$tracing_core..callsite..Callsite$GT$12set_interest17h1c1c1012ea2e3978E"(ptr nocapture noundef nonnull writeonly align 8 %self, i8 noundef %0) unnamed_addr #8 !dbg !3813 {
start:
  tail call void @llvm.dbg.value(metadata i8 4, metadata !3804, metadata !DIExpression()), !dbg !3874
  tail call void @llvm.dbg.value(metadata i8 %0, metadata !3818, metadata !DIExpression()), !dbg !3876
  tail call void @llvm.dbg.value(metadata ptr %self, metadata !3817, metadata !DIExpression()), !dbg !3876
  %switch.selectcmp = icmp eq i8 %0, 2, !dbg !3877
  %switch.select = select i1 %switch.selectcmp, i8 2, i8 1, !dbg !3877
  %switch.selectcmp8 = icmp eq i8 %0, 0, !dbg !3877
  %switch.select9 = select i1 %switch.selectcmp8, i8 0, i8 %switch.select, !dbg !3877
  tail call void @llvm.dbg.value(metadata i8 %switch.select9, metadata !3819, metadata !DIExpression()), !dbg !3878
  tail call void @llvm.dbg.value(metadata ptr %self, metadata !3808, metadata !DIExpression(DW_OP_plus_uconst, 16, DW_OP_stack_value)), !dbg !3874
  tail call void @llvm.dbg.value(metadata i8 %switch.select9, metadata !3809, metadata !DIExpression()), !dbg !3874
  tail call void @llvm.dbg.value(metadata ptr %self, metadata !3824, metadata !DIExpression(DW_OP_plus_uconst, 16, DW_OP_stack_value)), !dbg !3879
  %_12 = getelementptr inbounds i8, ptr %self, i64 16, !dbg !3881
  tail call void @llvm.dbg.value(metadata i8 4, metadata !3413, metadata !DIExpression()), !dbg !3882
  tail call void @llvm.dbg.value(metadata ptr %_12, metadata !3418, metadata !DIExpression()), !dbg !3882
  tail call void @llvm.dbg.value(metadata i8 %switch.select9, metadata !3419, metadata !DIExpression()), !dbg !3882
  store atomic i8 %switch.select9, ptr %_12 seq_cst, align 8, !dbg !3884
  ret void, !dbg !3885
}

; <tracing_core::callsite::Identifier as core::fmt::Debug>::fmt
; Function Attrs: nonlazybind uwtable
define noundef zeroext i1 @"_ZN71_$LT$tracing_core..callsite..Identifier$u20$as$u20$core..fmt..Debug$GT$3fmt17h08e616ba041d1fe4E"(ptr noalias noundef readonly align 8 dereferenceable(16) %self, ptr noalias nocapture noundef readonly align 8 dereferenceable(64) %f) unnamed_addr #1 !dbg !3886 {
_ZN4core3fmt9Arguments23as_statically_known_str17hb85f1f33b3585dafE.exit.i:
  %_5 = alloca [16 x i8], align 8
  %_3 = alloca [48 x i8], align 8
  tail call void @llvm.dbg.value(metadata ptr @alloc_43b664ae1be7c27d2b64d337d06ee259, metadata !3894, metadata !DIExpression()), !dbg !3906
  tail call void @llvm.dbg.value(metadata ptr %self, metadata !3892, metadata !DIExpression()), !dbg !3909
  tail call void @llvm.dbg.value(metadata ptr %f, metadata !3893, metadata !DIExpression()), !dbg !3909
  call void @llvm.lifetime.start.p0(i64 48, ptr nonnull %_3), !dbg !3910
  call void @llvm.lifetime.start.p0(i64 16, ptr nonnull %_5), !dbg !3910
  store ptr %self, ptr %_5, align 8, !dbg !3910
  %_6.sroa.4.0..sroa_idx = getelementptr inbounds i8, ptr %_5, i64 8, !dbg !3910
  store ptr @"_ZN44_$LT$$RF$T$u20$as$u20$core..fmt..Pointer$GT$3fmt17h80e098708ef207c4E", ptr %_6.sroa.4.0..sroa_idx, align 8, !dbg !3910
  tail call void @llvm.dbg.value(metadata ptr %_5, metadata !3905, metadata !DIExpression()), !dbg !3906
  store ptr @alloc_43b664ae1be7c27d2b64d337d06ee259, ptr %_3, align 8, !dbg !3911
  %0 = getelementptr inbounds i8, ptr %_3, i64 8, !dbg !3911
  store i64 2, ptr %0, align 8, !dbg !3911
  %1 = getelementptr inbounds i8, ptr %_3, i64 32, !dbg !3911
  store ptr null, ptr %1, align 8, !dbg !3911
  %2 = getelementptr inbounds i8, ptr %_3, i64 16, !dbg !3911
  store ptr %_5, ptr %2, align 8, !dbg !3911
  %3 = getelementptr inbounds i8, ptr %_3, i64 24, !dbg !3911
  store i64 1, ptr %3, align 8, !dbg !3911
  %4 = getelementptr inbounds i8, ptr %f, i64 32, !dbg !3910
  %f.val = load ptr, ptr %4, align 8, !dbg !3910, !nonnull !24, !noundef !24
  call void @llvm.dbg.value(metadata ptr undef, metadata !3912, metadata !DIExpression()), !dbg !3921
  call void @llvm.dbg.declare(metadata ptr %_3, metadata !3918, metadata !DIExpression()), !dbg !3923
  %5 = getelementptr inbounds i8, ptr %f, i64 40, !dbg !3910
  %f.val2 = load ptr, ptr %5, align 8, !dbg !3910, !nonnull !24, !noundef !24
; call core::fmt::write
  %6 = call noundef zeroext i1 @_ZN4core3fmt5write17h2b71bd12250911d0E(ptr noundef nonnull align 1 %f.val, ptr noalias noundef nonnull readonly align 8 dereferenceable(48) %f.val2, ptr noalias nocapture noundef nonnull readonly align 8 dereferenceable(48) %_3), !dbg !3924
  call void @llvm.lifetime.end.p0(i64 48, ptr nonnull %_3), !dbg !3910
  call void @llvm.lifetime.end.p0(i64 16, ptr nonnull %_5), !dbg !3925
  ret i1 %6, !dbg !3926
}

; tracing_core::callsite::Callsites::rebuild_interest
; Function Attrs: nonlazybind uwtable
define internal fastcc void @_ZN12tracing_core8callsite9Callsites16rebuild_interest17h4975a6207117263dE(ptr noalias nocapture noundef readonly align 8 dereferenceable_or_null(24) %0) unnamed_addr #1 personality ptr @rust_eh_personality !dbg !3927 {
start:
  %_44.i = alloca [8 x i8], align 8
  tail call void @llvm.dbg.value(metadata ptr %0, metadata !3933, metadata !DIExpression()), !dbg !3952
  tail call void @llvm.dbg.value(metadata ptr @_ZN12tracing_core8callsite9CALLSITES17hccc57102ec60b6c5E, metadata !3932, metadata !DIExpression()), !dbg !3952
  tail call void @llvm.dbg.value(metadata i64 5, metadata !3934, metadata !DIExpression()), !dbg !3953
  call void @llvm.dbg.value(metadata ptr undef, metadata !3954, metadata !DIExpression()), !dbg !3971
  call void @llvm.dbg.value(metadata ptr undef, metadata !3968, metadata !DIExpression()), !dbg !3971
  %1 = icmp eq ptr %0, null, !dbg !3973
  br i1 %1, label %bb3.i, label %bb1.i, !dbg !3973

bb1.i:                                            ; preds = %start
  call void @llvm.dbg.value(metadata ptr %0, metadata !3969, metadata !DIExpression()), !dbg !3974
  tail call void @llvm.experimental.noalias.scope.decl(metadata !3975), !dbg !3978
  call void @llvm.dbg.value(metadata i64 0, metadata !3979, metadata !DIExpression()), !dbg !4002
  call void @llvm.dbg.value(metadata ptr undef, metadata !4010, metadata !DIExpression(DW_OP_deref, DW_OP_deref)), !dbg !4014
  call void @llvm.dbg.value(metadata ptr %0, metadata !4009, metadata !DIExpression()), !dbg !4014
  tail call void @llvm.experimental.noalias.scope.decl(metadata !4015), !dbg !4018
  call void @llvm.dbg.value(metadata ptr %0, metadata !4019, metadata !DIExpression()), !dbg !4025
  call void @llvm.dbg.value(metadata ptr %0, metadata !4027, metadata !DIExpression()), !dbg !4035
  %_4.i.i.i = load i64, ptr %0, align 8, !dbg !4037, !range !2513, !alias.scope !4038, !noalias !4039, !noundef !24
  %trunc.not.i.i.i = icmp eq i64 %_4.i.i.i, 0, !dbg !4042
  %2 = getelementptr inbounds i8, ptr %0, i64 8, !dbg !4035
  %s.0.i.i.i = load ptr, ptr %2, align 8, !dbg !4035, !alias.scope !4038, !noalias !4039, !nonnull !24, !noundef !24
  %3 = getelementptr inbounds i8, ptr %0, i64 16, !dbg !4035
  %s.1.i.i.i = load ptr, ptr %3, align 8, !dbg !4035, !alias.scope !4038, !noalias !4039, !nonnull !24, !align !838, !noundef !24
  br i1 %trunc.not.i.i.i, label %_ZN12tracing_core10dispatcher8Dispatch14max_level_hint17h1777685c67548248E.exit.i.i, label %bb3.i.i.i, !dbg !4042

bb3.i.i.i:                                        ; preds = %bb1.i
  call void @llvm.dbg.value(metadata ptr %0, metadata !4033, metadata !DIExpression(DW_OP_plus_uconst, 8, DW_OP_stack_value)), !dbg !4043
  %4 = getelementptr inbounds i8, ptr %s.1.i.i.i, i64 16, !dbg !4044
  %5 = load i64, ptr %4, align 8, !dbg !4044, !range !1554, !invariant.load !24, !noalias !4045
  %6 = add i64 %5, -1, !dbg !4044
  %7 = and i64 %6, -16, !dbg !4044
  %8 = getelementptr i8, ptr %s.0.i.i.i, i64 %7, !dbg !4044
  %_7.0.i.i.i = getelementptr i8, ptr %8, i64 16, !dbg !4044
  br label %_ZN12tracing_core10dispatcher8Dispatch14max_level_hint17h1777685c67548248E.exit.i.i, !dbg !4046

_ZN12tracing_core10dispatcher8Dispatch14max_level_hint17h1777685c67548248E.exit.i.i: ; preds = %bb3.i.i.i, %bb1.i
  %_3.sroa.0.0.i.i.i = phi ptr [ %_7.0.i.i.i, %bb3.i.i.i ], [ %s.0.i.i.i, %bb1.i ], !dbg !4035
  %9 = getelementptr inbounds i8, ptr %s.1.i.i.i, i64 48, !dbg !4047
  %10 = load ptr, ptr %9, align 8, !dbg !4047, !invariant.load !24, !noalias !4045, !nonnull !24
  %_0.i2.i.i = tail call noundef i64 %10(ptr noundef align 1 %_3.sroa.0.0.i.i.i), !dbg !4047, !range !4048, !noalias !4045
  call void @llvm.dbg.value(metadata i64 %_0.i2.i.i, metadata !3999, metadata !DIExpression()), !dbg !4002
  %11 = icmp eq i64 %_0.i2.i.i, 6, !dbg !4049
  %12 = tail call i64 @llvm.umin.i64(i64 %_0.i2.i.i, i64 5), !dbg !4050
  call void @llvm.dbg.value(metadata i64 poison, metadata !4011, metadata !DIExpression()), !dbg !4103
  call void @llvm.dbg.value(metadata ptr undef, metadata !4104, metadata !DIExpression()), !dbg !4112
  call void @llvm.dbg.value(metadata ptr undef, metadata !4111, metadata !DIExpression()), !dbg !4112
  %13 = load atomic ptr, ptr @_ZN12tracing_core8callsite9CALLSITES17hccc57102ec60b6c5E acquire, align 8, !dbg !4114, !noalias !4125
  call void @llvm.dbg.value(metadata ptr %13, metadata !4085, metadata !DIExpression()), !dbg !4128
  call void @llvm.dbg.value(metadata ptr %13, metadata !4085, metadata !DIExpression()), !dbg !4128
  call void @llvm.dbg.value(metadata ptr %13, metadata !4069, metadata !DIExpression()), !dbg !4129
  call void @llvm.dbg.value(metadata ptr %13, metadata !4069, metadata !DIExpression()), !dbg !4129
  %14 = icmp eq ptr %13, null, !dbg !4050
  %..i.i. = select i1 %11, i64 0, i64 %12, !dbg !4050
  br i1 %14, label %bb20.i, label %bb21.i.preheader, !dbg !4050

bb3.i:                                            ; preds = %start
  call void @llvm.dbg.value(metadata ptr @_ZN12tracing_core10dispatcher11GLOBAL_INIT17h32115fdb9b27e6eeE, metadata !4130, metadata !DIExpression()), !dbg !4135
  call void @llvm.dbg.value(metadata i8 4, metadata !4134, metadata !DIExpression()), !dbg !4135
  call void @llvm.dbg.value(metadata ptr undef, metadata !4144, metadata !DIExpression()), !dbg !4148
  call void @llvm.dbg.value(metadata i8 4, metadata !2638, metadata !DIExpression()), !dbg !4149
  call void @llvm.dbg.value(metadata ptr @_ZN12tracing_core10dispatcher11GLOBAL_INIT17h32115fdb9b27e6eeE, metadata !2644, metadata !DIExpression()), !dbg !4149
  %15 = load atomic i64, ptr @_ZN12tracing_core10dispatcher11GLOBAL_INIT17h32115fdb9b27e6eeE seq_cst, align 8, !dbg !4151, !noalias !4152
  %_6.not.i.i = icmp ne i64 %15, 2, !dbg !4155
  call void @llvm.dbg.value(metadata i64 0, metadata !3979, metadata !DIExpression()), !dbg !4156
  call void @llvm.dbg.value(metadata ptr undef, metadata !4010, metadata !DIExpression(DW_OP_deref, DW_OP_deref)), !dbg !4159
  call void @llvm.dbg.value(metadata ptr poison, metadata !4009, metadata !DIExpression()), !dbg !4159
  call void @llvm.dbg.value(metadata ptr poison, metadata !4019, metadata !DIExpression()), !dbg !4160
  call void @llvm.dbg.value(metadata ptr poison, metadata !4027, metadata !DIExpression()), !dbg !4162
  %_ZN12tracing_core10dispatcher15GLOBAL_DISPATCH17h87fe84e1b4a2c89aE.val.i.i = load i64, ptr @_ZN12tracing_core10dispatcher15GLOBAL_DISPATCH17h87fe84e1b4a2c89aE, align 8, !dbg !4164, !noalias !4152
  %trunc.not.i.i3.i.i = icmp eq i64 %_ZN12tracing_core10dispatcher15GLOBAL_DISPATCH17h87fe84e1b4a2c89aE.val.i.i, 0, !dbg !4165
  %trunc.not.i.i.i.i = select i1 %_6.not.i.i, i1 true, i1 %trunc.not.i.i3.i.i, !dbg !4165
  %.val.i.i = load ptr, ptr getelementptr inbounds (<{ [8 x i8], ptr, ptr }>, ptr @_ZN12tracing_core10dispatcher15GLOBAL_DISPATCH17h87fe84e1b4a2c89aE, i64 0, i32 1), align 8, !dbg !4162, !noalias !4152
  %s.0.i.i.i.i = select i1 %_6.not.i.i, ptr @_ZN12tracing_core10dispatcher13NO_SUBSCRIBER17h03311d1c194bfc5eE, ptr %.val.i.i, !dbg !4162
  %.val5.i.i = load ptr, ptr getelementptr inbounds (<{ [8 x i8], ptr, ptr }>, ptr @_ZN12tracing_core10dispatcher15GLOBAL_DISPATCH17h87fe84e1b4a2c89aE, i64 0, i32 2), align 8, !dbg !4162, !noalias !4152
  %s.1.i.i.i.i = select i1 %_6.not.i.i, ptr @0, ptr %.val5.i.i, !dbg !4162
  br i1 %trunc.not.i.i.i.i, label %_ZN12tracing_core10dispatcher8Dispatch14max_level_hint17h1777685c67548248E.exit.i.i.i, label %bb3.i.i.i.i, !dbg !4165

bb3.i.i.i.i:                                      ; preds = %bb3.i
  call void @llvm.dbg.value(metadata ptr poison, metadata !4033, metadata !DIExpression(DW_OP_plus_uconst, 8, DW_OP_stack_value)), !dbg !4166
  %16 = getelementptr inbounds i8, ptr %.val5.i.i, i64 16, !dbg !4167
  %17 = load i64, ptr %16, align 8, !dbg !4167, !range !1554, !invariant.load !24, !noalias !4168
  %18 = add i64 %17, -1, !dbg !4167
  %19 = and i64 %18, -16, !dbg !4167
  %20 = getelementptr i8, ptr %.val.i.i, i64 %19, !dbg !4167
  %_7.0.i.i.i.i = getelementptr i8, ptr %20, i64 16, !dbg !4167
  br label %_ZN12tracing_core10dispatcher8Dispatch14max_level_hint17h1777685c67548248E.exit.i.i.i, !dbg !4173

_ZN12tracing_core10dispatcher8Dispatch14max_level_hint17h1777685c67548248E.exit.i.i.i: ; preds = %bb3.i.i.i.i, %bb3.i
  %_3.sroa.0.0.i.i.i.i = phi ptr [ %_7.0.i.i.i.i, %bb3.i.i.i.i ], [ %s.0.i.i.i.i, %bb3.i ], !dbg !4162
  %21 = getelementptr inbounds i8, ptr %s.1.i.i.i.i, i64 48, !dbg !4174
  %22 = load ptr, ptr %21, align 8, !dbg !4174, !invariant.load !24, !noalias !4168, !nonnull !24
  %_0.i2.i.i.i = tail call noundef i64 %22(ptr noundef align 1 %_3.sroa.0.0.i.i.i.i), !dbg !4174, !range !4048, !noalias !4168
  call void @llvm.dbg.value(metadata i64 %_0.i2.i.i.i, metadata !3999, metadata !DIExpression()), !dbg !4156
  %23 = icmp eq i64 %_0.i2.i.i.i, 6, !dbg !4175
  %..i.i.i = select i1 %23, i64 0, i64 %_0.i2.i.i.i, !dbg !4156
  call void @llvm.dbg.value(metadata i64 %..i.i.i, metadata !4011, metadata !DIExpression()), !dbg !4176
  call void @llvm.dbg.value(metadata ptr undef, metadata !4104, metadata !DIExpression()), !dbg !4177
  call void @llvm.dbg.value(metadata ptr undef, metadata !4111, metadata !DIExpression()), !dbg !4177
  %_0.i.i.i.i = icmp ult i64 %..i.i.i, 5, !dbg !4179
  %24 = load atomic ptr, ptr @_ZN12tracing_core8callsite9CALLSITES17hccc57102ec60b6c5E acquire, align 8, !dbg !4114, !noalias !4125
  call void @llvm.dbg.value(metadata ptr %24, metadata !4085, metadata !DIExpression()), !dbg !4128
  call void @llvm.dbg.value(metadata ptr %24, metadata !4085, metadata !DIExpression()), !dbg !4128
  call void @llvm.dbg.value(metadata ptr %24, metadata !4069, metadata !DIExpression()), !dbg !4129
  call void @llvm.dbg.value(metadata ptr %24, metadata !4069, metadata !DIExpression()), !dbg !4129
  %25 = icmp eq ptr %24, null, !dbg !4050
  br i1 %_0.i.i.i.i, label %_ZN12tracing_core8callsite11dispatchers9Rebuilder8for_each17hd47db4c94201937cE.exit, label %_ZN12tracing_core8callsite11dispatchers9Rebuilder8for_each17hd47db4c94201937cE.exit.thread17, !dbg !4180

_ZN12tracing_core8callsite11dispatchers9Rebuilder8for_each17hd47db4c94201937cE.exit: ; preds = %_ZN12tracing_core10dispatcher8Dispatch14max_level_hint17h1777685c67548248E.exit.i.i.i
  tail call void @llvm.dbg.value(metadata i64 %..i.i.i, metadata !3934, metadata !DIExpression()), !dbg !3953
  call void @llvm.dbg.value(metadata i8 2, metadata !4120, metadata !DIExpression()), !dbg !4181
  call void @llvm.dbg.value(metadata i8 2, metadata !4123, metadata !DIExpression()), !dbg !4182
  call void @llvm.dbg.value(metadata i8 2, metadata !4184, metadata !DIExpression()), !dbg !4189
  call void @llvm.dbg.value(metadata ptr @_ZN12tracing_core8callsite16LOCKED_CALLSITES17he8d4287cb4f62c95E, metadata !4191, metadata !DIExpression()), !dbg !4195
  call void @llvm.dbg.value(metadata ptr @_ZN12tracing_core8callsite16LOCKED_CALLSITES17he8d4287cb4f62c95E, metadata !4197, metadata !DIExpression()), !dbg !4201
  call void @llvm.dbg.value(metadata ptr undef, metadata !4084, metadata !DIExpression()), !dbg !4203
  call void @llvm.dbg.value(metadata ptr @_ZN12tracing_core8callsite9CALLSITES17hccc57102ec60b6c5E, metadata !4083, metadata !DIExpression()), !dbg !4203
  call void @llvm.dbg.value(metadata ptr @_ZN12tracing_core8callsite9CALLSITES17hccc57102ec60b6c5E, metadata !4119, metadata !DIExpression()), !dbg !4181
  call void @llvm.dbg.value(metadata i8 2, metadata !3625, metadata !DIExpression()), !dbg !4204
  call void @llvm.dbg.value(metadata ptr @_ZN12tracing_core8callsite9CALLSITES17hccc57102ec60b6c5E, metadata !3631, metadata !DIExpression()), !dbg !4204
  br i1 %25, label %bb20.i, label %bb21.lr.ph.i, !dbg !4050

_ZN12tracing_core8callsite11dispatchers9Rebuilder8for_each17hd47db4c94201937cE.exit.thread17: ; preds = %_ZN12tracing_core10dispatcher8Dispatch14max_level_hint17h1777685c67548248E.exit.i.i.i
  tail call void @llvm.dbg.value(metadata i64 5, metadata !3934, metadata !DIExpression()), !dbg !3953
  call void @llvm.dbg.value(metadata i8 2, metadata !4120, metadata !DIExpression()), !dbg !4181
  call void @llvm.dbg.value(metadata i8 2, metadata !4123, metadata !DIExpression()), !dbg !4182
  call void @llvm.dbg.value(metadata i8 2, metadata !4184, metadata !DIExpression()), !dbg !4189
  call void @llvm.dbg.value(metadata ptr @_ZN12tracing_core8callsite16LOCKED_CALLSITES17he8d4287cb4f62c95E, metadata !4191, metadata !DIExpression()), !dbg !4195
  call void @llvm.dbg.value(metadata ptr @_ZN12tracing_core8callsite16LOCKED_CALLSITES17he8d4287cb4f62c95E, metadata !4197, metadata !DIExpression()), !dbg !4201
  call void @llvm.dbg.value(metadata ptr undef, metadata !4084, metadata !DIExpression()), !dbg !4203
  call void @llvm.dbg.value(metadata ptr @_ZN12tracing_core8callsite9CALLSITES17hccc57102ec60b6c5E, metadata !4083, metadata !DIExpression()), !dbg !4203
  call void @llvm.dbg.value(metadata ptr @_ZN12tracing_core8callsite9CALLSITES17hccc57102ec60b6c5E, metadata !4119, metadata !DIExpression()), !dbg !4181
  call void @llvm.dbg.value(metadata i8 2, metadata !3625, metadata !DIExpression()), !dbg !4204
  call void @llvm.dbg.value(metadata ptr @_ZN12tracing_core8callsite9CALLSITES17hccc57102ec60b6c5E, metadata !3631, metadata !DIExpression()), !dbg !4204
  br i1 %25, label %bb20.i, label %bb21.us.i.preheader, !dbg !4050

bb21.lr.ph.i:                                     ; preds = %_ZN12tracing_core8callsite11dispatchers9Rebuilder8for_each17hd47db4c94201937cE.exit
  br i1 %1, label %bb21.us.i.preheader, label %bb21.i.preheader, !dbg !4205

bb21.us.i.preheader:                              ; preds = %_ZN12tracing_core8callsite11dispatchers9Rebuilder8for_each17hd47db4c94201937cE.exit.thread17, %bb21.lr.ph.i
  br label %bb21.us.i, !dbg !4216

bb21.i.preheader:                                 ; preds = %_ZN12tracing_core10dispatcher8Dispatch14max_level_hint17h1777685c67548248E.exit.i.i, %bb21.lr.ph.i
  %max_level.sroa.0.01316 = phi i64 [ %..i.i.i, %bb21.lr.ph.i ], [ %..i.i., %_ZN12tracing_core10dispatcher8Dispatch14max_level_hint17h1777685c67548248E.exit.i.i ]
  %26 = phi ptr [ %24, %bb21.lr.ph.i ], [ %13, %_ZN12tracing_core10dispatcher8Dispatch14max_level_hint17h1777685c67548248E.exit.i.i ]
  %27 = getelementptr inbounds i8, ptr %0, i64 16
  %28 = getelementptr inbounds i8, ptr %0, i64 8
  %_5.i.i.i.i.i.i = load i64, ptr %0, align 8, !range !2513, !alias.scope !4221, !noalias !4226, !noundef !24
  %trunc.not.i.i.i.i.i.i = icmp eq i64 %_5.i.i.i.i.i.i, 0
  %s.0.i.i.i.i.i.i = load ptr, ptr %28, align 8, !alias.scope !4221, !noalias !4226, !nonnull !24, !noundef !24
  %s.1.i.i.i.i.i.i = load ptr, ptr %27, align 8, !alias.scope !4221, !noalias !4226, !nonnull !24, !align !838, !noundef !24
  %29 = getelementptr inbounds i8, ptr %s.1.i.i.i.i.i.i, i64 32
  %30 = load ptr, ptr %29, align 8, !invariant.load !24, !noalias !4235, !nonnull !24
  br i1 %trunc.not.i.i.i.i.i.i, label %bb21.i.us, label %bb21.i.preheader.split, !dbg !4236

bb21.i.us:                                        ; preds = %bb21.i.preheader, %bb21.i.us
  %head.sroa.0.03.i.us = phi ptr [ %31, %bb21.i.us ], [ %26, %bb21.i.preheader ]
  call void @llvm.dbg.value(metadata ptr %head.sroa.0.03.i.us, metadata !4085, metadata !DIExpression()), !dbg !4128
  call void @llvm.dbg.value(metadata ptr %head.sroa.0.03.i.us, metadata !4086, metadata !DIExpression()), !dbg !4240
  call void @llvm.dbg.value(metadata ptr undef, metadata !4214, metadata !DIExpression(DW_OP_deref, DW_OP_deref)), !dbg !4241
  call void @llvm.dbg.value(metadata ptr %head.sroa.0.03.i.us, metadata !4213, metadata !DIExpression(DW_OP_LLVM_fragment, 0, 64)), !dbg !4241
  call void @llvm.dbg.value(metadata !24, metadata !4213, metadata !DIExpression(DW_OP_LLVM_fragment, 64, 64)), !dbg !4241
  call void @llvm.dbg.value(metadata ptr %head.sroa.0.03.i.us, metadata !3011, metadata !DIExpression(DW_OP_LLVM_fragment, 0, 64)), !dbg !4242
  call void @llvm.dbg.value(metadata !24, metadata !3011, metadata !DIExpression(DW_OP_LLVM_fragment, 64, 64)), !dbg !4242
  call void @llvm.dbg.value(metadata ptr undef, metadata !3034, metadata !DIExpression()), !dbg !4242
  call void @llvm.dbg.value(metadata ptr %head.sroa.0.03.i.us, metadata !3753, metadata !DIExpression()), !dbg !4243
  %_0.i.i.us = load ptr, ptr %head.sroa.0.03.i.us, align 8, !dbg !4245, !noalias !4246, !nonnull !24, !align !838, !noundef !24
  call void @llvm.dbg.value(metadata ptr %_0.i.i.us, metadata !3035, metadata !DIExpression()), !dbg !4247
  call void @llvm.dbg.value(metadata i8 3, metadata !3037, metadata !DIExpression()), !dbg !4248
  call void @llvm.dbg.value(metadata ptr undef, metadata !3062, metadata !DIExpression(DW_OP_LLVM_fragment, 0, 64)), !dbg !4249
  call void @llvm.dbg.value(metadata ptr undef, metadata !3062, metadata !DIExpression(DW_OP_LLVM_fragment, 64, 64)), !dbg !4249
  call void @llvm.dbg.value(metadata ptr undef, metadata !3077, metadata !DIExpression()), !dbg !4249
  call void @llvm.dbg.value(metadata ptr %0, metadata !3078, metadata !DIExpression()), !dbg !4250
  tail call void @llvm.experimental.noalias.scope.decl(metadata !4251), !dbg !4252
  call void @llvm.dbg.value(metadata ptr undef, metadata !3114, metadata !DIExpression(DW_OP_deref, DW_OP_deref)), !dbg !4253
  call void @llvm.dbg.value(metadata ptr undef, metadata !3121, metadata !DIExpression(DW_OP_deref, DW_OP_plus_uconst, 8, DW_OP_deref)), !dbg !4253
  call void @llvm.dbg.value(metadata ptr %0, metadata !3120, metadata !DIExpression()), !dbg !4253
  tail call void @llvm.experimental.noalias.scope.decl(metadata !4254), !dbg !4255
  call void @llvm.dbg.value(metadata ptr %0, metadata !3128, metadata !DIExpression()), !dbg !4256
  call void @llvm.dbg.value(metadata ptr %0, metadata !3137, metadata !DIExpression()), !dbg !4257
  call void @llvm.dbg.value(metadata ptr %_0.i.i.us, metadata !3134, metadata !DIExpression()), !dbg !4256
  %_0.i.i.i.i.i.i.i.us = tail call noundef i8 %30(ptr noundef nonnull align 1 %s.0.i.i.i.i.i.i, ptr noalias noundef nonnull readonly align 8 dereferenceable(120) %_0.i.i.us), !dbg !4249, !range !3163, !noalias !4235
  call void @llvm.dbg.value(metadata i8 %_0.i.i.i.i.i.i.i.us, metadata !3055, metadata !DIExpression()), !dbg !4258
  call void @llvm.dbg.value(metadata i8 4, metadata !3804, metadata !DIExpression()), !dbg !4259
  call void @llvm.dbg.value(metadata i8 %_0.i.i.i.i.i.i.i.us, metadata !3818, metadata !DIExpression()), !dbg !4262
  call void @llvm.dbg.value(metadata ptr %head.sroa.0.03.i.us, metadata !3817, metadata !DIExpression()), !dbg !4262
  %switch.selectcmp.i.i.us = icmp eq i8 %_0.i.i.i.i.i.i.i.us, 2, !dbg !4263
  %switch.select.i.i.us = select i1 %switch.selectcmp.i.i.us, i8 2, i8 1, !dbg !4263
  %switch.selectcmp8.i.i.us = icmp eq i8 %_0.i.i.i.i.i.i.i.us, 0, !dbg !4263
  %switch.select9.i.i.us = select i1 %switch.selectcmp8.i.i.us, i8 0, i8 %switch.select.i.i.us, !dbg !4263
  call void @llvm.dbg.value(metadata i8 %switch.select9.i.i.us, metadata !3819, metadata !DIExpression()), !dbg !4264
  call void @llvm.dbg.value(metadata ptr %head.sroa.0.03.i.us, metadata !3808, metadata !DIExpression(DW_OP_plus_uconst, 16, DW_OP_stack_value)), !dbg !4259
  call void @llvm.dbg.value(metadata i8 %switch.select9.i.i.us, metadata !3809, metadata !DIExpression()), !dbg !4259
  call void @llvm.dbg.value(metadata ptr %head.sroa.0.03.i.us, metadata !3824, metadata !DIExpression(DW_OP_plus_uconst, 16, DW_OP_stack_value)), !dbg !4265
  %_12.i.i.us = getelementptr inbounds i8, ptr %head.sroa.0.03.i.us, i64 16, !dbg !4267
  call void @llvm.dbg.value(metadata i8 4, metadata !3413, metadata !DIExpression()), !dbg !4268
  call void @llvm.dbg.value(metadata ptr %_12.i.i.us, metadata !3418, metadata !DIExpression()), !dbg !4268
  call void @llvm.dbg.value(metadata i8 %switch.select9.i.i.us, metadata !3419, metadata !DIExpression()), !dbg !4268
  store atomic i8 %switch.select9.i.i.us, ptr %_12.i.i.us seq_cst, align 1, !dbg !4270, !noalias !4246
  call void @llvm.dbg.value(metadata ptr %head.sroa.0.03.i.us, metadata !4121, metadata !DIExpression(DW_OP_plus_uconst, 8, DW_OP_stack_value)), !dbg !4182
  call void @llvm.dbg.value(metadata ptr %head.sroa.0.03.i.us, metadata !4271, metadata !DIExpression(DW_OP_plus_uconst, 8, DW_OP_stack_value)), !dbg !4281
  %_39.i.us = getelementptr inbounds i8, ptr %head.sroa.0.03.i.us, i64 8, !dbg !4283
  call void @llvm.dbg.value(metadata i8 2, metadata !3625, metadata !DIExpression()), !dbg !4284
  call void @llvm.dbg.value(metadata ptr %_39.i.us, metadata !3631, metadata !DIExpression()), !dbg !4284
  %31 = load atomic ptr, ptr %_39.i.us acquire, align 8, !dbg !4286, !noalias !4125
  call void @llvm.dbg.value(metadata ptr %31, metadata !4085, metadata !DIExpression()), !dbg !4128
  call void @llvm.dbg.value(metadata ptr %31, metadata !4069, metadata !DIExpression()), !dbg !4129
  %32 = icmp eq ptr %31, null, !dbg !4050
  br i1 %32, label %bb20.i, label %bb21.i.us, !dbg !4050

bb21.i.preheader.split:                           ; preds = %bb21.i.preheader
  %33 = getelementptr inbounds i8, ptr %s.1.i.i.i.i.i.i, i64 16
  %invariant.gep = getelementptr i8, ptr %s.0.i.i.i.i.i.i, i64 16, !dbg !4236
  %34 = load i64, ptr %33, align 8, !range !1554, !invariant.load !24, !noalias !4287
  %35 = add i64 %34, -1
  %36 = and i64 %35, -16
  %gep = getelementptr i8, ptr %invariant.gep, i64 %36
  br label %bb21.i, !dbg !4236

bb21.us.i:                                        ; preds = %bb21.us.i.preheader, %_ZN12tracing_core10dispatcher11get_default17h5860b6d006368ccaE.exit.i.i.i.us.i
  %head.sroa.0.03.us.i = phi ptr [ %45, %_ZN12tracing_core10dispatcher11get_default17h5860b6d006368ccaE.exit.i.i.i.us.i ], [ %24, %bb21.us.i.preheader ]
  call void @llvm.dbg.value(metadata ptr %head.sroa.0.03.us.i, metadata !4085, metadata !DIExpression()), !dbg !4128
  call void @llvm.dbg.value(metadata ptr %head.sroa.0.03.us.i, metadata !4086, metadata !DIExpression()), !dbg !4240
  call void @llvm.dbg.value(metadata ptr undef, metadata !4214, metadata !DIExpression(DW_OP_deref, DW_OP_deref)), !dbg !4241
  call void @llvm.dbg.value(metadata ptr %head.sroa.0.03.us.i, metadata !4213, metadata !DIExpression(DW_OP_LLVM_fragment, 0, 64)), !dbg !4241
  call void @llvm.dbg.value(metadata !24, metadata !4213, metadata !DIExpression(DW_OP_LLVM_fragment, 64, 64)), !dbg !4241
  call void @llvm.dbg.value(metadata ptr %head.sroa.0.03.us.i, metadata !3011, metadata !DIExpression(DW_OP_LLVM_fragment, 0, 64)), !dbg !4242
  call void @llvm.dbg.value(metadata !24, metadata !3011, metadata !DIExpression(DW_OP_LLVM_fragment, 64, 64)), !dbg !4242
  call void @llvm.dbg.value(metadata ptr undef, metadata !3034, metadata !DIExpression()), !dbg !4242
  call void @llvm.dbg.value(metadata ptr %head.sroa.0.03.us.i, metadata !3753, metadata !DIExpression()), !dbg !4243
  %_0.i.us.i = load ptr, ptr %head.sroa.0.03.us.i, align 8, !dbg !4245, !noalias !4246, !nonnull !24, !align !838, !noundef !24
  call void @llvm.dbg.value(metadata ptr %_0.i.us.i, metadata !3035, metadata !DIExpression()), !dbg !4247
  call void @llvm.dbg.value(metadata i8 3, metadata !3037, metadata !DIExpression()), !dbg !4248
  call void @llvm.dbg.value(metadata ptr undef, metadata !3062, metadata !DIExpression(DW_OP_LLVM_fragment, 0, 64)), !dbg !4249
  call void @llvm.dbg.value(metadata ptr undef, metadata !3062, metadata !DIExpression(DW_OP_LLVM_fragment, 64, 64)), !dbg !4249
  call void @llvm.dbg.value(metadata ptr undef, metadata !3077, metadata !DIExpression()), !dbg !4249
  call void @llvm.dbg.value(metadata ptr @_ZN12tracing_core10dispatcher11GLOBAL_INIT17h32115fdb9b27e6eeE, metadata !3082, metadata !DIExpression()), !dbg !4288
  call void @llvm.dbg.value(metadata i8 4, metadata !3086, metadata !DIExpression()), !dbg !4288
  call void @llvm.dbg.value(metadata ptr undef, metadata !3098, metadata !DIExpression(DW_OP_LLVM_fragment, 0, 64)), !dbg !4291
  call void @llvm.dbg.value(metadata ptr undef, metadata !3098, metadata !DIExpression(DW_OP_LLVM_fragment, 64, 64)), !dbg !4291
  call void @llvm.dbg.value(metadata i8 4, metadata !2638, metadata !DIExpression()), !dbg !4292
  call void @llvm.dbg.value(metadata ptr @_ZN12tracing_core10dispatcher11GLOBAL_INIT17h32115fdb9b27e6eeE, metadata !2644, metadata !DIExpression()), !dbg !4292
  %37 = load atomic i64, ptr @_ZN12tracing_core10dispatcher11GLOBAL_INIT17h32115fdb9b27e6eeE seq_cst, align 8, !dbg !4294, !noalias !4295
  %_6.not.i.i.i.i.us.i = icmp ne i64 %37, 2, !dbg !4299
  call void @llvm.dbg.value(metadata ptr undef, metadata !3114, metadata !DIExpression(DW_OP_deref, DW_OP_deref)), !dbg !4300
  call void @llvm.dbg.value(metadata ptr undef, metadata !3121, metadata !DIExpression(DW_OP_deref, DW_OP_plus_uconst, 8, DW_OP_deref)), !dbg !4300
  call void @llvm.dbg.value(metadata ptr poison, metadata !3120, metadata !DIExpression()), !dbg !4300
  call void @llvm.dbg.value(metadata ptr poison, metadata !3128, metadata !DIExpression()), !dbg !4301
  call void @llvm.dbg.value(metadata ptr poison, metadata !3137, metadata !DIExpression()), !dbg !4302
  call void @llvm.dbg.value(metadata ptr %_0.i.us.i, metadata !3134, metadata !DIExpression()), !dbg !4301
  %_ZN12tracing_core10dispatcher15GLOBAL_DISPATCH17h87fe84e1b4a2c89aE.val.i.i.i.i.us.i = load i64, ptr @_ZN12tracing_core10dispatcher15GLOBAL_DISPATCH17h87fe84e1b4a2c89aE, align 8, !dbg !4303, !noalias !4295
  %trunc.not.i.i4.i.i.i.i.us.i = icmp eq i64 %_ZN12tracing_core10dispatcher15GLOBAL_DISPATCH17h87fe84e1b4a2c89aE.val.i.i.i.i.us.i, 0, !dbg !4216
  %trunc.not.i.i.i.i.i.i.us.i = select i1 %_6.not.i.i.i.i.us.i, i1 true, i1 %trunc.not.i.i4.i.i.i.i.us.i, !dbg !4216
  %.val.i.i.i.i.us.i = load ptr, ptr getelementptr inbounds (<{ [8 x i8], ptr, ptr }>, ptr @_ZN12tracing_core10dispatcher15GLOBAL_DISPATCH17h87fe84e1b4a2c89aE, i64 0, i32 1), align 8, !dbg !4302, !noalias !4295
  %s.0.i.i.i.i.i.i.us.i = select i1 %_6.not.i.i.i.i.us.i, ptr @_ZN12tracing_core10dispatcher13NO_SUBSCRIBER17h03311d1c194bfc5eE, ptr %.val.i.i.i.i.us.i, !dbg !4302
  %.val6.i.i.i.i.us.i = load ptr, ptr getelementptr inbounds (<{ [8 x i8], ptr, ptr }>, ptr @_ZN12tracing_core10dispatcher15GLOBAL_DISPATCH17h87fe84e1b4a2c89aE, i64 0, i32 2), align 8, !dbg !4302, !noalias !4295
  br i1 %trunc.not.i.i.i.i.i.i.us.i, label %_ZN12tracing_core10dispatcher11get_default17h5860b6d006368ccaE.exit.i.i.i.us.i, label %bb3.i.i.i.i.i.i.us.i, !dbg !4216

bb3.i.i.i.i.i.i.us.i:                             ; preds = %bb21.us.i
  call void @llvm.dbg.value(metadata ptr poison, metadata !3146, metadata !DIExpression(DW_OP_plus_uconst, 8, DW_OP_stack_value)), !dbg !4304
  %38 = getelementptr inbounds i8, ptr %.val6.i.i.i.i.us.i, i64 16, !dbg !4305
  %39 = load i64, ptr %38, align 8, !dbg !4305, !range !1554, !invariant.load !24, !noalias !4306
  %40 = add i64 %39, -1, !dbg !4305
  %41 = and i64 %40, -16, !dbg !4305
  %42 = getelementptr i8, ptr %.val.i.i.i.i.us.i, i64 %41, !dbg !4305
  %_8.0.i.i.i.i.i.i.us.i = getelementptr i8, ptr %42, i64 16, !dbg !4305
  br label %_ZN12tracing_core10dispatcher11get_default17h5860b6d006368ccaE.exit.i.i.i.us.i, !dbg !4312

_ZN12tracing_core10dispatcher11get_default17h5860b6d006368ccaE.exit.i.i.i.us.i: ; preds = %bb3.i.i.i.i.i.i.us.i, %bb21.us.i
  %_4.sroa.0.0.i.i.i.i.i.i.us.i = phi ptr [ %_8.0.i.i.i.i.i.i.us.i, %bb3.i.i.i.i.i.i.us.i ], [ %s.0.i.i.i.i.i.i.us.i, %bb21.us.i ], !dbg !4302
  %s.1.i.i.i.i.i.i.us.i = select i1 %_6.not.i.i.i.i.us.i, ptr @0, ptr %.val6.i.i.i.i.us.i, !dbg !4302
  %43 = getelementptr inbounds i8, ptr %s.1.i.i.i.i.i.i.us.i, i64 32, !dbg !4249
  %44 = load ptr, ptr %43, align 8, !dbg !4249, !invariant.load !24, !noalias !4235, !nonnull !24
  %_0.i.i.i.i.i.i.us.i = tail call noundef i8 %44(ptr noundef align 1 %_4.sroa.0.0.i.i.i.i.i.i.us.i, ptr noalias noundef nonnull readonly align 8 dereferenceable(120) %_0.i.us.i), !dbg !4249, !range !3163, !noalias !4235
  call void @llvm.dbg.value(metadata i8 %_0.i.i.i.i.i.i.us.i, metadata !3055, metadata !DIExpression()), !dbg !4258
  call void @llvm.dbg.value(metadata i8 4, metadata !3804, metadata !DIExpression()), !dbg !4259
  call void @llvm.dbg.value(metadata i8 %_0.i.i.i.i.i.i.us.i, metadata !3818, metadata !DIExpression()), !dbg !4262
  call void @llvm.dbg.value(metadata ptr %head.sroa.0.03.us.i, metadata !3817, metadata !DIExpression()), !dbg !4262
  %switch.selectcmp.i.us.i = icmp eq i8 %_0.i.i.i.i.i.i.us.i, 2, !dbg !4263
  %switch.select.i.us.i = select i1 %switch.selectcmp.i.us.i, i8 2, i8 1, !dbg !4263
  %switch.selectcmp8.i.us.i = icmp eq i8 %_0.i.i.i.i.i.i.us.i, 0, !dbg !4263
  %switch.select9.i.us.i = select i1 %switch.selectcmp8.i.us.i, i8 0, i8 %switch.select.i.us.i, !dbg !4263
  call void @llvm.dbg.value(metadata i8 %switch.select9.i.us.i, metadata !3819, metadata !DIExpression()), !dbg !4264
  call void @llvm.dbg.value(metadata ptr %head.sroa.0.03.us.i, metadata !3808, metadata !DIExpression(DW_OP_plus_uconst, 16, DW_OP_stack_value)), !dbg !4259
  call void @llvm.dbg.value(metadata i8 %switch.select9.i.us.i, metadata !3809, metadata !DIExpression()), !dbg !4259
  call void @llvm.dbg.value(metadata ptr %head.sroa.0.03.us.i, metadata !3824, metadata !DIExpression(DW_OP_plus_uconst, 16, DW_OP_stack_value)), !dbg !4265
  %_12.i.us.i = getelementptr inbounds i8, ptr %head.sroa.0.03.us.i, i64 16, !dbg !4267
  call void @llvm.dbg.value(metadata i8 4, metadata !3413, metadata !DIExpression()), !dbg !4268
  call void @llvm.dbg.value(metadata ptr %_12.i.us.i, metadata !3418, metadata !DIExpression()), !dbg !4268
  call void @llvm.dbg.value(metadata i8 %switch.select9.i.us.i, metadata !3419, metadata !DIExpression()), !dbg !4268
  store atomic i8 %switch.select9.i.us.i, ptr %_12.i.us.i seq_cst, align 1, !dbg !4270, !noalias !4246
  call void @llvm.dbg.value(metadata ptr %head.sroa.0.03.us.i, metadata !4121, metadata !DIExpression(DW_OP_plus_uconst, 8, DW_OP_stack_value)), !dbg !4182
  call void @llvm.dbg.value(metadata ptr %head.sroa.0.03.us.i, metadata !4271, metadata !DIExpression(DW_OP_plus_uconst, 8, DW_OP_stack_value)), !dbg !4281
  %_39.us.i = getelementptr inbounds i8, ptr %head.sroa.0.03.us.i, i64 8, !dbg !4283
  call void @llvm.dbg.value(metadata i8 2, metadata !3625, metadata !DIExpression()), !dbg !4284
  call void @llvm.dbg.value(metadata ptr %_39.us.i, metadata !3631, metadata !DIExpression()), !dbg !4284
  %45 = load atomic ptr, ptr %_39.us.i acquire, align 8, !dbg !4286, !noalias !4125
  call void @llvm.dbg.value(metadata ptr %45, metadata !4085, metadata !DIExpression()), !dbg !4128
  call void @llvm.dbg.value(metadata ptr %45, metadata !4069, metadata !DIExpression()), !dbg !4129
  %46 = icmp eq ptr %45, null, !dbg !4050
  br i1 %46, label %bb20.i, label %bb21.us.i, !dbg !4050

bb17.split.i.split:                               ; preds = %_0.i.i.i.i.i.i43.noexc.i, %.noexc.i, %bb9.i
  %47 = landingpad { ptr, i32 }
          cleanup
  br label %bb17.i, !dbg !4313

bb17.i:                                           ; preds = %bb17.split.i.split, %bb17.split.i.split.us, %bb17.split.us.i
  %.us-phi.i = phi { ptr, i32 } [ %88, %bb17.split.us.i ], [ %47, %bb17.split.i.split ], [ %72, %bb17.split.i.split.us ]
  call void @llvm.dbg.value(metadata ptr undef, metadata !3476, metadata !DIExpression()), !dbg !4318
  call void @llvm.dbg.value(metadata i8 0, metadata !3485, metadata !DIExpression()), !dbg !4319
  call void @llvm.dbg.value(metadata i8 1, metadata !3490, metadata !DIExpression()), !dbg !4319
  call void @llvm.dbg.value(metadata ptr undef, metadata !3499, metadata !DIExpression()), !dbg !4320
  call void @llvm.dbg.value(metadata ptr getelementptr inbounds (<{ [16 x i8], [32 x i8], ptr }>, ptr @_ZN12tracing_core8callsite16LOCKED_CALLSITES17he8d4287cb4f62c95E, i64 0, i32 1, i64 0), metadata !3489, metadata !DIExpression()), !dbg !4319
  call void @llvm.dbg.value(metadata i8 1, metadata !3413, metadata !DIExpression()), !dbg !4321
  call void @llvm.dbg.value(metadata ptr getelementptr inbounds (<{ [16 x i8], [32 x i8], ptr }>, ptr @_ZN12tracing_core8callsite16LOCKED_CALLSITES17he8d4287cb4f62c95E, i64 0, i32 1, i64 0), metadata !3418, metadata !DIExpression()), !dbg !4321
  call void @llvm.dbg.value(metadata i8 0, metadata !3419, metadata !DIExpression()), !dbg !4321
  store atomic i8 0, ptr getelementptr inbounds (<{ [16 x i8], [32 x i8], ptr }>, ptr @_ZN12tracing_core8callsite16LOCKED_CALLSITES17he8d4287cb4f62c95E, i64 0, i32 1, i64 0) release, align 8, !dbg !4313, !noalias !4322
  resume { ptr, i32 } %.us-phi.i, !dbg !4327

bb20.i:                                           ; preds = %bb21.i, %bb21.i.us, %_ZN12tracing_core10dispatcher11get_default17h5860b6d006368ccaE.exit.i.i.i.us.i, %_ZN12tracing_core10dispatcher8Dispatch14max_level_hint17h1777685c67548248E.exit.i.i, %_ZN12tracing_core8callsite11dispatchers9Rebuilder8for_each17hd47db4c94201937cE.exit.thread17, %_ZN12tracing_core8callsite11dispatchers9Rebuilder8for_each17hd47db4c94201937cE.exit
  %max_level.sroa.0.014 = phi i64 [ %..i.i.i, %_ZN12tracing_core8callsite11dispatchers9Rebuilder8for_each17hd47db4c94201937cE.exit ], [ 5, %_ZN12tracing_core8callsite11dispatchers9Rebuilder8for_each17hd47db4c94201937cE.exit.thread17 ], [ %..i.i., %_ZN12tracing_core10dispatcher8Dispatch14max_level_hint17h1777685c67548248E.exit.i.i ], [ %..i.i.i, %_ZN12tracing_core10dispatcher11get_default17h5860b6d006368ccaE.exit.i.i.i.us.i ], [ %max_level.sroa.0.01316, %bb21.i.us ], [ %max_level.sroa.0.01316, %bb21.i ]
  call void @llvm.dbg.value(metadata ptr @_ZN12tracing_core8callsite9CALLSITES17hccc57102ec60b6c5E, metadata !4188, metadata !DIExpression(DW_OP_plus_uconst, 8, DW_OP_stack_value)), !dbg !4189
  call void @llvm.dbg.value(metadata i8 2, metadata !3395, metadata !DIExpression()), !dbg !4328
  call void @llvm.dbg.value(metadata ptr getelementptr inbounds (<{ [9 x i8], [7 x i8] }>, ptr @_ZN12tracing_core8callsite9CALLSITES17hccc57102ec60b6c5E, i64 0, i32 0, i64 8), metadata !3400, metadata !DIExpression()), !dbg !4328
  %48 = load atomic i8, ptr getelementptr inbounds (<{ [9 x i8], [7 x i8] }>, ptr @_ZN12tracing_core8callsite9CALLSITES17hccc57102ec60b6c5E, i64 0, i32 0, i64 8) acquire, align 8, !dbg !4330, !noalias !4125
  %49 = icmp eq i8 %48, 0, !dbg !4331
  br i1 %49, label %_ZN12tracing_core8callsite9Callsites8for_each17he396a63fff33f1e2E.exit, label %bb3.i1, !dbg !4331

bb21.i:                                           ; preds = %bb21.i.preheader.split, %bb21.i
  %head.sroa.0.03.i = phi ptr [ %50, %bb21.i ], [ %26, %bb21.i.preheader.split ]
  call void @llvm.dbg.value(metadata ptr %head.sroa.0.03.i, metadata !4085, metadata !DIExpression()), !dbg !4128
  call void @llvm.dbg.value(metadata ptr %head.sroa.0.03.i, metadata !4086, metadata !DIExpression()), !dbg !4240
  call void @llvm.dbg.value(metadata ptr undef, metadata !4214, metadata !DIExpression(DW_OP_deref, DW_OP_deref)), !dbg !4241
  call void @llvm.dbg.value(metadata ptr %head.sroa.0.03.i, metadata !4213, metadata !DIExpression(DW_OP_LLVM_fragment, 0, 64)), !dbg !4241
  call void @llvm.dbg.value(metadata !24, metadata !4213, metadata !DIExpression(DW_OP_LLVM_fragment, 64, 64)), !dbg !4241
  call void @llvm.dbg.value(metadata ptr %head.sroa.0.03.i, metadata !3011, metadata !DIExpression(DW_OP_LLVM_fragment, 0, 64)), !dbg !4242
  call void @llvm.dbg.value(metadata !24, metadata !3011, metadata !DIExpression(DW_OP_LLVM_fragment, 64, 64)), !dbg !4242
  call void @llvm.dbg.value(metadata ptr undef, metadata !3034, metadata !DIExpression()), !dbg !4242
  call void @llvm.dbg.value(metadata ptr %head.sroa.0.03.i, metadata !3753, metadata !DIExpression()), !dbg !4243
  %_0.i.i = load ptr, ptr %head.sroa.0.03.i, align 8, !dbg !4245, !noalias !4246, !nonnull !24, !align !838, !noundef !24
  call void @llvm.dbg.value(metadata ptr %_0.i.i, metadata !3035, metadata !DIExpression()), !dbg !4247
  call void @llvm.dbg.value(metadata i8 3, metadata !3037, metadata !DIExpression()), !dbg !4248
  call void @llvm.dbg.value(metadata ptr undef, metadata !3062, metadata !DIExpression(DW_OP_LLVM_fragment, 0, 64)), !dbg !4249
  call void @llvm.dbg.value(metadata ptr undef, metadata !3062, metadata !DIExpression(DW_OP_LLVM_fragment, 64, 64)), !dbg !4249
  call void @llvm.dbg.value(metadata ptr undef, metadata !3077, metadata !DIExpression()), !dbg !4249
  call void @llvm.dbg.value(metadata ptr %0, metadata !3078, metadata !DIExpression()), !dbg !4250
  tail call void @llvm.experimental.noalias.scope.decl(metadata !4251), !dbg !4252
  call void @llvm.dbg.value(metadata ptr undef, metadata !3114, metadata !DIExpression(DW_OP_deref, DW_OP_deref)), !dbg !4253
  call void @llvm.dbg.value(metadata ptr undef, metadata !3121, metadata !DIExpression(DW_OP_deref, DW_OP_plus_uconst, 8, DW_OP_deref)), !dbg !4253
  call void @llvm.dbg.value(metadata ptr %0, metadata !3120, metadata !DIExpression()), !dbg !4253
  tail call void @llvm.experimental.noalias.scope.decl(metadata !4254), !dbg !4255
  call void @llvm.dbg.value(metadata ptr %0, metadata !3128, metadata !DIExpression()), !dbg !4256
  call void @llvm.dbg.value(metadata ptr %0, metadata !3137, metadata !DIExpression()), !dbg !4257
  call void @llvm.dbg.value(metadata ptr %_0.i.i, metadata !3134, metadata !DIExpression()), !dbg !4256
  call void @llvm.dbg.value(metadata ptr %0, metadata !3146, metadata !DIExpression(DW_OP_plus_uconst, 8, DW_OP_stack_value)), !dbg !4332
  %_0.i.i.i.i.i.i.i = tail call noundef i8 %30(ptr noundef align 1 %gep, ptr noalias noundef nonnull readonly align 8 dereferenceable(120) %_0.i.i), !dbg !4249, !range !3163, !noalias !4235
  call void @llvm.dbg.value(metadata i8 %_0.i.i.i.i.i.i.i, metadata !3055, metadata !DIExpression()), !dbg !4258
  call void @llvm.dbg.value(metadata i8 4, metadata !3804, metadata !DIExpression()), !dbg !4259
  call void @llvm.dbg.value(metadata i8 %_0.i.i.i.i.i.i.i, metadata !3818, metadata !DIExpression()), !dbg !4262
  call void @llvm.dbg.value(metadata ptr %head.sroa.0.03.i, metadata !3817, metadata !DIExpression()), !dbg !4262
  %switch.selectcmp.i.i = icmp eq i8 %_0.i.i.i.i.i.i.i, 2, !dbg !4263
  %switch.select.i.i = select i1 %switch.selectcmp.i.i, i8 2, i8 1, !dbg !4263
  %switch.selectcmp8.i.i = icmp eq i8 %_0.i.i.i.i.i.i.i, 0, !dbg !4263
  %switch.select9.i.i = select i1 %switch.selectcmp8.i.i, i8 0, i8 %switch.select.i.i, !dbg !4263
  call void @llvm.dbg.value(metadata i8 %switch.select9.i.i, metadata !3819, metadata !DIExpression()), !dbg !4264
  call void @llvm.dbg.value(metadata ptr %head.sroa.0.03.i, metadata !3808, metadata !DIExpression(DW_OP_plus_uconst, 16, DW_OP_stack_value)), !dbg !4259
  call void @llvm.dbg.value(metadata i8 %switch.select9.i.i, metadata !3809, metadata !DIExpression()), !dbg !4259
  call void @llvm.dbg.value(metadata ptr %head.sroa.0.03.i, metadata !3824, metadata !DIExpression(DW_OP_plus_uconst, 16, DW_OP_stack_value)), !dbg !4265
  %_12.i.i = getelementptr inbounds i8, ptr %head.sroa.0.03.i, i64 16, !dbg !4267
  call void @llvm.dbg.value(metadata i8 4, metadata !3413, metadata !DIExpression()), !dbg !4268
  call void @llvm.dbg.value(metadata ptr %_12.i.i, metadata !3418, metadata !DIExpression()), !dbg !4268
  call void @llvm.dbg.value(metadata i8 %switch.select9.i.i, metadata !3419, metadata !DIExpression()), !dbg !4268
  store atomic i8 %switch.select9.i.i, ptr %_12.i.i seq_cst, align 1, !dbg !4270, !noalias !4246
  call void @llvm.dbg.value(metadata ptr %head.sroa.0.03.i, metadata !4121, metadata !DIExpression(DW_OP_plus_uconst, 8, DW_OP_stack_value)), !dbg !4182
  call void @llvm.dbg.value(metadata ptr %head.sroa.0.03.i, metadata !4271, metadata !DIExpression(DW_OP_plus_uconst, 8, DW_OP_stack_value)), !dbg !4281
  %_39.i = getelementptr inbounds i8, ptr %head.sroa.0.03.i, i64 8, !dbg !4283
  call void @llvm.dbg.value(metadata i8 2, metadata !3625, metadata !DIExpression()), !dbg !4284
  call void @llvm.dbg.value(metadata ptr %_39.i, metadata !3631, metadata !DIExpression()), !dbg !4284
  %50 = load atomic ptr, ptr %_39.i acquire, align 8, !dbg !4286, !noalias !4125
  call void @llvm.dbg.value(metadata ptr %50, metadata !4085, metadata !DIExpression()), !dbg !4128
  call void @llvm.dbg.value(metadata ptr %50, metadata !4069, metadata !DIExpression()), !dbg !4129
  %51 = icmp eq ptr %50, null, !dbg !4050
  br i1 %51, label %bb20.i, label %bb21.i, !dbg !4050

bb3.i1:                                           ; preds = %bb20.i
  call void @llvm.lifetime.start.p0(i64 8, ptr nonnull %_44.i), !dbg !4333, !noalias !4125
  store ptr @_ZN12tracing_core8callsite16LOCKED_CALLSITES17he8d4287cb4f62c95E, ptr %_44.i, align 8, !dbg !4333, !noalias !4125
; call tracing_core::spin::once::Once<T>::call_once
  call fastcc void @"_ZN12tracing_core4spin4once13Once$LT$T$GT$9call_once17h0448dfad145d647aE"(ptr noalias noundef nonnull readonly align 8 dereferenceable(8) %_44.i), !dbg !4334
  call void @llvm.lifetime.end.p0(i64 8, ptr nonnull %_44.i), !dbg !4335, !noalias !4125
  call void @llvm.dbg.value(metadata ptr getelementptr inbounds (<{ [16 x i8], [32 x i8], ptr }>, ptr @_ZN12tracing_core8callsite16LOCKED_CALLSITES17he8d4287cb4f62c95E, i64 0, i32 1, i64 0), metadata !3260, metadata !DIExpression()), !dbg !4336
  call void @llvm.dbg.value(metadata ptr getelementptr inbounds (<{ [16 x i8], [32 x i8], ptr }>, ptr @_ZN12tracing_core8callsite16LOCKED_CALLSITES17he8d4287cb4f62c95E, i64 0, i32 1, i64 0), metadata !3285, metadata !DIExpression()), !dbg !4338
  call void @llvm.dbg.value(metadata i8 0, metadata !3296, metadata !DIExpression()), !dbg !4340
  call void @llvm.dbg.value(metadata ptr getelementptr inbounds (<{ [16 x i8], [32 x i8], ptr }>, ptr @_ZN12tracing_core8callsite16LOCKED_CALLSITES17he8d4287cb4f62c95E, i64 0, i32 1, i64 0), metadata !3311, metadata !DIExpression()), !dbg !4343
  call void @llvm.dbg.value(metadata ptr getelementptr inbounds (<{ [16 x i8], [32 x i8], ptr }>, ptr @_ZN12tracing_core8callsite16LOCKED_CALLSITES17he8d4287cb4f62c95E, i64 0, i32 1, i64 0), metadata !3314, metadata !DIExpression()), !dbg !4344
  call void @llvm.dbg.value(metadata i1 false, metadata !3336, metadata !DIExpression(DW_OP_LLVM_convert, 1, DW_ATE_unsigned, DW_OP_LLVM_convert, 8, DW_ATE_unsigned, DW_OP_stack_value)), !dbg !4344
  call void @llvm.dbg.value(metadata i1 true, metadata !3337, metadata !DIExpression(DW_OP_LLVM_convert, 1, DW_ATE_unsigned, DW_OP_LLVM_convert, 8, DW_ATE_unsigned, DW_OP_stack_value)), !dbg !4344
  call void @llvm.dbg.value(metadata i8 2, metadata !3338, metadata !DIExpression()), !dbg !4344
  call void @llvm.dbg.value(metadata i8 0, metadata !3339, metadata !DIExpression()), !dbg !4344
  call void @llvm.dbg.value(metadata i8 2, metadata !3346, metadata !DIExpression()), !dbg !4346
  call void @llvm.dbg.value(metadata i8 0, metadata !3369, metadata !DIExpression()), !dbg !4346
  call void @llvm.dbg.value(metadata ptr getelementptr inbounds (<{ [16 x i8], [32 x i8], ptr }>, ptr @_ZN12tracing_core8callsite16LOCKED_CALLSITES17he8d4287cb4f62c95E, i64 0, i32 1, i64 0), metadata !3366, metadata !DIExpression()), !dbg !4346
  call void @llvm.dbg.value(metadata i8 0, metadata !3367, metadata !DIExpression()), !dbg !4346
  call void @llvm.dbg.value(metadata i8 1, metadata !3368, metadata !DIExpression()), !dbg !4346
  %52 = cmpxchg weak ptr getelementptr inbounds (<{ [16 x i8], [32 x i8], ptr }>, ptr @_ZN12tracing_core8callsite16LOCKED_CALLSITES17he8d4287cb4f62c95E, i64 0, i32 1, i64 0), i8 0, i8 1 acquire monotonic, align 1, !dbg !4348, !noalias !4125
  %53 = extractvalue { i8, i1 } %52, 1, !dbg !4348
  call void @llvm.dbg.value(metadata ptr undef, metadata !3376, metadata !DIExpression()), !dbg !4349
  call void @llvm.dbg.value(metadata ptr undef, metadata !3386, metadata !DIExpression()), !dbg !4351
  br i1 %53, label %"_ZN12tracing_core6stdlib6no_std4sync14Mutex$LT$T$GT$4lock17hcc3a6f9d6bfe4c21E.exit.i", label %bb3.preheader.i.i.i, !dbg !4353

bb1.loopexit.i.i.i:                               ; preds = %bb4.i.i.i, %bb3.preheader.i.i.i
  call void @llvm.dbg.value(metadata ptr getelementptr inbounds (<{ [16 x i8], [32 x i8], ptr }>, ptr @_ZN12tracing_core8callsite16LOCKED_CALLSITES17he8d4287cb4f62c95E, i64 0, i32 1, i64 0), metadata !3314, metadata !DIExpression()), !dbg !4344
  call void @llvm.dbg.value(metadata i1 false, metadata !3336, metadata !DIExpression(DW_OP_LLVM_convert, 1, DW_ATE_unsigned, DW_OP_LLVM_convert, 8, DW_ATE_unsigned, DW_OP_stack_value)), !dbg !4344
  call void @llvm.dbg.value(metadata i1 true, metadata !3337, metadata !DIExpression(DW_OP_LLVM_convert, 1, DW_ATE_unsigned, DW_OP_LLVM_convert, 8, DW_ATE_unsigned, DW_OP_stack_value)), !dbg !4344
  call void @llvm.dbg.value(metadata i8 2, metadata !3338, metadata !DIExpression()), !dbg !4344
  call void @llvm.dbg.value(metadata i8 0, metadata !3339, metadata !DIExpression()), !dbg !4344
  call void @llvm.dbg.value(metadata i8 2, metadata !3346, metadata !DIExpression()), !dbg !4346
  call void @llvm.dbg.value(metadata i8 0, metadata !3369, metadata !DIExpression()), !dbg !4346
  call void @llvm.dbg.value(metadata ptr getelementptr inbounds (<{ [16 x i8], [32 x i8], ptr }>, ptr @_ZN12tracing_core8callsite16LOCKED_CALLSITES17he8d4287cb4f62c95E, i64 0, i32 1, i64 0), metadata !3366, metadata !DIExpression()), !dbg !4346
  call void @llvm.dbg.value(metadata i8 0, metadata !3367, metadata !DIExpression()), !dbg !4346
  call void @llvm.dbg.value(metadata i8 1, metadata !3368, metadata !DIExpression()), !dbg !4346
  %54 = cmpxchg weak ptr getelementptr inbounds (<{ [16 x i8], [32 x i8], ptr }>, ptr @_ZN12tracing_core8callsite16LOCKED_CALLSITES17he8d4287cb4f62c95E, i64 0, i32 1, i64 0), i8 0, i8 1 acquire monotonic, align 1, !dbg !4348, !noalias !4125
  %55 = extractvalue { i8, i1 } %54, 1, !dbg !4348
  call void @llvm.dbg.value(metadata ptr undef, metadata !3376, metadata !DIExpression()), !dbg !4349
  call void @llvm.dbg.value(metadata ptr undef, metadata !3386, metadata !DIExpression()), !dbg !4351
  br i1 %55, label %"_ZN12tracing_core6stdlib6no_std4sync14Mutex$LT$T$GT$4lock17hcc3a6f9d6bfe4c21E.exit.i", label %bb3.preheader.i.i.i, !dbg !4353

bb3.preheader.i.i.i:                              ; preds = %bb3.i1, %bb1.loopexit.i.i.i
  call void @llvm.dbg.value(metadata ptr getelementptr inbounds (<{ [16 x i8], [32 x i8], ptr }>, ptr @_ZN12tracing_core8callsite16LOCKED_CALLSITES17he8d4287cb4f62c95E, i64 0, i32 1, i64 0), metadata !3303, metadata !DIExpression()), !dbg !4340
  call void @llvm.dbg.value(metadata i8 0, metadata !3395, metadata !DIExpression()), !dbg !4354
  call void @llvm.dbg.value(metadata ptr getelementptr inbounds (<{ [16 x i8], [32 x i8], ptr }>, ptr @_ZN12tracing_core8callsite16LOCKED_CALLSITES17he8d4287cb4f62c95E, i64 0, i32 1, i64 0), metadata !3400, metadata !DIExpression()), !dbg !4354
  %56 = load atomic i8, ptr getelementptr inbounds (<{ [16 x i8], [32 x i8], ptr }>, ptr @_ZN12tracing_core8callsite16LOCKED_CALLSITES17he8d4287cb4f62c95E, i64 0, i32 1, i64 0) monotonic, align 8, !dbg !4356, !noalias !4125
  %57 = icmp eq i8 %56, 0, !dbg !4357
  br i1 %57, label %bb1.loopexit.i.i.i, label %bb4.i.i.i, !dbg !4357

bb4.i.i.i:                                        ; preds = %bb3.preheader.i.i.i, %bb4.i.i.i
  tail call void @llvm.x86.sse2.pause() #20, !dbg !4358, !noalias !4125
  call void @llvm.dbg.value(metadata ptr getelementptr inbounds (<{ [16 x i8], [32 x i8], ptr }>, ptr @_ZN12tracing_core8callsite16LOCKED_CALLSITES17he8d4287cb4f62c95E, i64 0, i32 1, i64 0), metadata !3303, metadata !DIExpression()), !dbg !4340
  call void @llvm.dbg.value(metadata i8 0, metadata !3395, metadata !DIExpression()), !dbg !4354
  call void @llvm.dbg.value(metadata ptr getelementptr inbounds (<{ [16 x i8], [32 x i8], ptr }>, ptr @_ZN12tracing_core8callsite16LOCKED_CALLSITES17he8d4287cb4f62c95E, i64 0, i32 1, i64 0), metadata !3400, metadata !DIExpression()), !dbg !4354
  %58 = load atomic i8, ptr getelementptr inbounds (<{ [16 x i8], [32 x i8], ptr }>, ptr @_ZN12tracing_core8callsite16LOCKED_CALLSITES17he8d4287cb4f62c95E, i64 0, i32 1, i64 0) monotonic, align 8, !dbg !4356, !noalias !4125
  %59 = icmp eq i8 %58, 0, !dbg !4357
  br i1 %59, label %bb1.loopexit.i.i.i, label %bb4.i.i.i, !dbg !4357

"_ZN12tracing_core6stdlib6no_std4sync14Mutex$LT$T$GT$4lock17hcc3a6f9d6bfe4c21E.exit.i": ; preds = %bb1.loopexit.i.i.i, %bb3.i1
  call void @llvm.dbg.value(metadata ptr getelementptr inbounds (<{ [16 x i8], [32 x i8], ptr }>, ptr @_ZN12tracing_core8callsite16LOCKED_CALLSITES17he8d4287cb4f62c95E, i64 0, i32 1, i64 0), metadata !4087, metadata !DIExpression(DW_OP_LLVM_fragment, 0, 64)), !dbg !4361
  call void @llvm.dbg.value(metadata ptr getelementptr inbounds (<{ [16 x i8], [32 x i8], ptr }>, ptr @_ZN12tracing_core8callsite16LOCKED_CALLSITES17he8d4287cb4f62c95E, i64 0, i32 1, i64 8), metadata !4087, metadata !DIExpression(DW_OP_LLVM_fragment, 64, 64)), !dbg !4361
  call void @llvm.dbg.value(metadata ptr getelementptr inbounds (<{ [16 x i8], [32 x i8], ptr }>, ptr @_ZN12tracing_core8callsite16LOCKED_CALLSITES17he8d4287cb4f62c95E, i64 0, i32 1, i64 8), metadata !4362, metadata !DIExpression()), !dbg !4375
  call void @llvm.dbg.value(metadata ptr getelementptr inbounds (<{ [16 x i8], [32 x i8], ptr }>, ptr @_ZN12tracing_core8callsite16LOCKED_CALLSITES17he8d4287cb4f62c95E, i64 0, i32 1, i64 8), metadata !4377, metadata !DIExpression()), !dbg !4384
  call void @llvm.dbg.value(metadata ptr getelementptr inbounds (<{ [16 x i8], [32 x i8], ptr }>, ptr @_ZN12tracing_core8callsite16LOCKED_CALLSITES17he8d4287cb4f62c95E, i64 0, i32 1, i64 8), metadata !4386, metadata !DIExpression()), !dbg !4390
  %self16.i = load ptr, ptr getelementptr inbounds (<{ [16 x i8], [32 x i8], ptr }>, ptr @_ZN12tracing_core8callsite16LOCKED_CALLSITES17he8d4287cb4f62c95E, i64 0, i32 1, i64 16), align 8, !dbg !4392, !noalias !4125, !nonnull !24, !noundef !24
  %len.i = load i64, ptr getelementptr inbounds (<{ [16 x i8], [32 x i8], ptr }>, ptr @_ZN12tracing_core8callsite16LOCKED_CALLSITES17he8d4287cb4f62c95E, i64 0, i32 1, i64 24), align 8, !dbg !4393, !noalias !4125, !noundef !24
  call void @llvm.dbg.value(metadata ptr %self16.i, metadata !4394, metadata !DIExpression(DW_OP_LLVM_fragment, 0, 64)), !dbg !4404
  call void @llvm.dbg.value(metadata ptr %self16.i, metadata !4406, metadata !DIExpression(DW_OP_LLVM_fragment, 0, 64)), !dbg !4417
  call void @llvm.dbg.value(metadata i64 %len.i, metadata !4394, metadata !DIExpression(DW_OP_LLVM_fragment, 64, 64)), !dbg !4404
  call void @llvm.dbg.value(metadata i64 %len.i, metadata !4406, metadata !DIExpression(DW_OP_LLVM_fragment, 64, 64)), !dbg !4417
  call void @llvm.dbg.value(metadata i64 %len.i, metadata !4411, metadata !DIExpression()), !dbg !4419
  call void @llvm.dbg.value(metadata i64 %len.i, metadata !4420, metadata !DIExpression()), !dbg !4425
  call void @llvm.dbg.value(metadata ptr %self16.i, metadata !4413, metadata !DIExpression()), !dbg !4427
  call void @llvm.dbg.value(metadata ptr %self16.i, metadata !4424, metadata !DIExpression()), !dbg !4425
  %_58.i = getelementptr inbounds { ptr, ptr }, ptr %self16.i, i64 %len.i, !dbg !4428
  call void @llvm.dbg.value(metadata ptr %self16.i, metadata !4089, metadata !DIExpression(DW_OP_LLVM_fragment, 0, 64)), !dbg !4429
  call void @llvm.dbg.value(metadata ptr %_58.i, metadata !4089, metadata !DIExpression(DW_OP_LLVM_fragment, 64, 64)), !dbg !4429
  br i1 %1, label %bb6.us.i, label %bb6.i.preheader, !dbg !4430

bb6.i.preheader:                                  ; preds = %"_ZN12tracing_core6stdlib6no_std4sync14Mutex$LT$T$GT$4lock17hcc3a6f9d6bfe4c21E.exit.i"
  %60 = getelementptr inbounds i8, ptr %0, i64 16
  %61 = getelementptr inbounds i8, ptr %0, i64 8
  %_5.i.i.i.i.i35.i = load i64, ptr %0, align 8, !range !2513
  %_5.i.i.i.i.i35.i.fr = freeze i64 %_5.i.i.i.i.i35.i
  %trunc.not.i.i.i.i.i36.i = icmp eq i64 %_5.i.i.i.i.i35.i.fr, 0
  %s.0.i.i.i.i.i37.i = load ptr, ptr %61, align 8, !nonnull !24
  %s.1.i.i.i.i.i38.i = load ptr, ptr %60, align 8, !nonnull !24, !align !838
  %62 = getelementptr inbounds i8, ptr %s.1.i.i.i.i.i38.i, i64 16
  %invariant.gep5 = getelementptr i8, ptr %s.0.i.i.i.i.i37.i, i64 16, !dbg !4434
  %63 = getelementptr inbounds i8, ptr %s.1.i.i.i.i.i38.i, i64 32
  br i1 %trunc.not.i.i.i.i.i36.i, label %bb6.i.us, label %bb6.i, !dbg !4457

bb6.i.us:                                         ; preds = %bb6.i.preheader, %_0.i.i.i.i.i.i43.noexc.i.us
  %iter.sroa.0.0.i.us = phi ptr [ %_14.i.i.i.us, %_0.i.i.i.i.i.i43.noexc.i.us ], [ %self16.i, %bb6.i.preheader ], !dbg !4461
  call void @llvm.dbg.value(metadata ptr %iter.sroa.0.0.i.us, metadata !4089, metadata !DIExpression(DW_OP_LLVM_fragment, 0, 64)), !dbg !4429
  call void @llvm.dbg.value(metadata ptr undef, metadata !4451, metadata !DIExpression()), !dbg !4462
  call void @llvm.dbg.value(metadata ptr undef, metadata !4463, metadata !DIExpression()), !dbg !4469
  call void @llvm.dbg.value(metadata ptr %_58.i, metadata !4454, metadata !DIExpression()), !dbg !4471
  call void @llvm.dbg.value(metadata ptr undef, metadata !4472, metadata !DIExpression()), !dbg !4480
  call void @llvm.dbg.value(metadata ptr undef, metadata !4479, metadata !DIExpression()), !dbg !4480
  %64 = icmp eq ptr %iter.sroa.0.0.i.us, %_58.i, !dbg !4482
  br i1 %64, label %bb10.i, label %bb9.i.us, !dbg !4434

bb9.i.us:                                         ; preds = %bb6.i.us
  call void @llvm.dbg.value(metadata ptr undef, metadata !4483, metadata !DIExpression()), !dbg !4497
  call void @llvm.dbg.value(metadata i64 1, metadata !4489, metadata !DIExpression()), !dbg !4497
  call void @llvm.dbg.value(metadata i64 1, metadata !4499, metadata !DIExpression()), !dbg !4507
  call void @llvm.dbg.value(metadata ptr %iter.sroa.0.0.i.us, metadata !4490, metadata !DIExpression()), !dbg !4509
  call void @llvm.dbg.value(metadata ptr undef, metadata !4494, metadata !DIExpression(DW_OP_plus_uconst, 8, DW_OP_stack_value)), !dbg !4510
  call void @llvm.dbg.value(metadata ptr %iter.sroa.0.0.i.us, metadata !4506, metadata !DIExpression()), !dbg !4507
  %_14.i.i.i.us = getelementptr inbounds { ptr, ptr }, ptr %iter.sroa.0.0.i.us, i64 1, !dbg !4511
  call void @llvm.dbg.value(metadata ptr %_14.i.i.i.us, metadata !4089, metadata !DIExpression(DW_OP_LLVM_fragment, 0, 64)), !dbg !4429
  %cs.0.i.us = load ptr, ptr %iter.sroa.0.0.i.us, align 8, !dbg !4512, !noalias !4125, !nonnull !24, !align !1132, !noundef !24
  %65 = getelementptr inbounds i8, ptr %iter.sroa.0.0.i.us, i64 8, !dbg !4512
  %cs.1.i.us = load ptr, ptr %65, align 8, !dbg !4512, !noalias !4125, !nonnull !24, !align !838, !noundef !24
  call void @llvm.dbg.value(metadata ptr %cs.0.i.us, metadata !4100, metadata !DIExpression(DW_OP_LLVM_fragment, 0, 64)), !dbg !4513
  call void @llvm.dbg.value(metadata ptr %cs.1.i.us, metadata !4100, metadata !DIExpression(DW_OP_LLVM_fragment, 64, 64)), !dbg !4513
  tail call void @llvm.experimental.noalias.scope.decl(metadata !4514), !dbg !4517
  call void @llvm.dbg.value(metadata ptr undef, metadata !4214, metadata !DIExpression(DW_OP_deref, DW_OP_deref)), !dbg !4518
  call void @llvm.dbg.value(metadata ptr %cs.0.i.us, metadata !4213, metadata !DIExpression(DW_OP_LLVM_fragment, 0, 64)), !dbg !4518
  call void @llvm.dbg.value(metadata ptr %cs.1.i.us, metadata !4213, metadata !DIExpression(DW_OP_LLVM_fragment, 64, 64)), !dbg !4518
  tail call void @llvm.experimental.noalias.scope.decl(metadata !4519), !dbg !4522
  call void @llvm.dbg.value(metadata ptr %cs.0.i.us, metadata !3011, metadata !DIExpression(DW_OP_LLVM_fragment, 0, 64)), !dbg !4523
  call void @llvm.dbg.value(metadata ptr %cs.1.i.us, metadata !3011, metadata !DIExpression(DW_OP_LLVM_fragment, 64, 64)), !dbg !4523
  call void @llvm.dbg.value(metadata ptr undef, metadata !3034, metadata !DIExpression()), !dbg !4523
  %66 = getelementptr inbounds i8, ptr %cs.1.i.us, i64 32, !dbg !4524
  %67 = load ptr, ptr %66, align 8, !dbg !4524, !invariant.load !24, !alias.scope !4525, !noalias !4125, !nonnull !24
  %68 = invoke noundef align 8 dereferenceable(120) ptr %67(ptr noundef nonnull align 1 %cs.0.i.us)
          to label %.noexc.i.us unwind label %bb17.split.i.split.us, !dbg !4524, !noalias !4125

.noexc.i.us:                                      ; preds = %bb9.i.us
  call void @llvm.dbg.value(metadata ptr %68, metadata !3035, metadata !DIExpression()), !dbg !4526
  call void @llvm.dbg.value(metadata i8 3, metadata !3037, metadata !DIExpression()), !dbg !4527
  call void @llvm.dbg.value(metadata ptr undef, metadata !3062, metadata !DIExpression(DW_OP_LLVM_fragment, 0, 64)), !dbg !4528
  call void @llvm.dbg.value(metadata ptr undef, metadata !3062, metadata !DIExpression(DW_OP_LLVM_fragment, 64, 64)), !dbg !4528
  call void @llvm.dbg.value(metadata ptr undef, metadata !3077, metadata !DIExpression()), !dbg !4528
  call void @llvm.dbg.value(metadata ptr %0, metadata !3078, metadata !DIExpression()), !dbg !4529
  call void @llvm.dbg.value(metadata ptr undef, metadata !3114, metadata !DIExpression(DW_OP_deref, DW_OP_deref)), !dbg !4530
  call void @llvm.dbg.value(metadata ptr undef, metadata !3121, metadata !DIExpression(DW_OP_deref, DW_OP_plus_uconst, 8, DW_OP_deref)), !dbg !4530
  call void @llvm.dbg.value(metadata ptr %0, metadata !3120, metadata !DIExpression()), !dbg !4530
  call void @llvm.dbg.value(metadata ptr %0, metadata !3128, metadata !DIExpression()), !dbg !4531
  call void @llvm.dbg.value(metadata ptr %0, metadata !3137, metadata !DIExpression()), !dbg !4532
  call void @llvm.dbg.value(metadata ptr %68, metadata !3134, metadata !DIExpression()), !dbg !4531
  %69 = load ptr, ptr %63, align 8, !dbg !4528, !invariant.load !24, !noalias !4533, !nonnull !24
  %_0.i.i.i.i.i.i4357.i.us = invoke noundef i8 %69(ptr noundef nonnull align 1 %s.0.i.i.i.i.i37.i, ptr noalias noundef nonnull readonly align 8 dereferenceable(120) %68)
          to label %_0.i.i.i.i.i.i43.noexc.i.us unwind label %bb17.split.i.split.us, !dbg !4528, !noalias !4125

_0.i.i.i.i.i.i43.noexc.i.us:                      ; preds = %.noexc.i.us
  call void @llvm.dbg.value(metadata i8 %_0.i.i.i.i.i.i4357.i.us, metadata !3055, metadata !DIExpression()), !dbg !4537
  %70 = getelementptr inbounds i8, ptr %cs.1.i.us, i64 24, !dbg !4538
  %71 = load ptr, ptr %70, align 8, !dbg !4538, !invariant.load !24, !alias.scope !4525, !noalias !4125, !nonnull !24
  invoke void %71(ptr noundef nonnull align 1 %cs.0.i.us, i8 noundef %_0.i.i.i.i.i.i4357.i.us)
          to label %bb6.i.us unwind label %bb17.split.i.split.us, !dbg !4538, !noalias !4125

bb17.split.i.split.us:                            ; preds = %_0.i.i.i.i.i.i43.noexc.i.us, %.noexc.i.us, %bb9.i.us
  %72 = landingpad { ptr, i32 }
          cleanup
  br label %bb17.i, !dbg !4313

bb6.us.i:                                         ; preds = %"_ZN12tracing_core6stdlib6no_std4sync14Mutex$LT$T$GT$4lock17hcc3a6f9d6bfe4c21E.exit.i", %_0.i.i.i.i.i.i43.noexc.us.i
  %iter.sroa.0.0.us.i = phi ptr [ %_14.i.i.us.i, %_0.i.i.i.i.i.i43.noexc.us.i ], [ %self16.i, %"_ZN12tracing_core6stdlib6no_std4sync14Mutex$LT$T$GT$4lock17hcc3a6f9d6bfe4c21E.exit.i" ], !dbg !4461
  call void @llvm.dbg.value(metadata ptr %iter.sroa.0.0.us.i, metadata !4089, metadata !DIExpression(DW_OP_LLVM_fragment, 0, 64)), !dbg !4429
  call void @llvm.dbg.value(metadata ptr undef, metadata !4451, metadata !DIExpression()), !dbg !4462
  call void @llvm.dbg.value(metadata ptr undef, metadata !4463, metadata !DIExpression()), !dbg !4469
  call void @llvm.dbg.value(metadata ptr %_58.i, metadata !4454, metadata !DIExpression()), !dbg !4471
  call void @llvm.dbg.value(metadata ptr undef, metadata !4472, metadata !DIExpression()), !dbg !4480
  call void @llvm.dbg.value(metadata ptr undef, metadata !4479, metadata !DIExpression()), !dbg !4480
  %73 = icmp eq ptr %iter.sroa.0.0.us.i, %_58.i, !dbg !4482
  br i1 %73, label %bb10.i, label %bb9.us.i, !dbg !4434

bb9.us.i:                                         ; preds = %bb6.us.i
  call void @llvm.dbg.value(metadata ptr undef, metadata !4483, metadata !DIExpression()), !dbg !4497
  call void @llvm.dbg.value(metadata i64 1, metadata !4489, metadata !DIExpression()), !dbg !4497
  call void @llvm.dbg.value(metadata i64 1, metadata !4499, metadata !DIExpression()), !dbg !4507
  call void @llvm.dbg.value(metadata ptr %iter.sroa.0.0.us.i, metadata !4490, metadata !DIExpression()), !dbg !4509
  call void @llvm.dbg.value(metadata ptr undef, metadata !4494, metadata !DIExpression(DW_OP_plus_uconst, 8, DW_OP_stack_value)), !dbg !4510
  call void @llvm.dbg.value(metadata ptr %iter.sroa.0.0.us.i, metadata !4506, metadata !DIExpression()), !dbg !4507
  %_14.i.i.us.i = getelementptr inbounds { ptr, ptr }, ptr %iter.sroa.0.0.us.i, i64 1, !dbg !4511
  call void @llvm.dbg.value(metadata ptr %_14.i.i.us.i, metadata !4089, metadata !DIExpression(DW_OP_LLVM_fragment, 0, 64)), !dbg !4429
  %cs.0.us.i = load ptr, ptr %iter.sroa.0.0.us.i, align 8, !dbg !4512, !noalias !4125, !nonnull !24, !align !1132, !noundef !24
  %74 = getelementptr inbounds i8, ptr %iter.sroa.0.0.us.i, i64 8, !dbg !4512
  %cs.1.us.i = load ptr, ptr %74, align 8, !dbg !4512, !noalias !4125, !nonnull !24, !align !838, !noundef !24
  call void @llvm.dbg.value(metadata ptr %cs.0.us.i, metadata !4100, metadata !DIExpression(DW_OP_LLVM_fragment, 0, 64)), !dbg !4513
  call void @llvm.dbg.value(metadata ptr %cs.1.us.i, metadata !4100, metadata !DIExpression(DW_OP_LLVM_fragment, 64, 64)), !dbg !4513
  tail call void @llvm.experimental.noalias.scope.decl(metadata !4514), !dbg !4517
  call void @llvm.dbg.value(metadata ptr undef, metadata !4214, metadata !DIExpression(DW_OP_deref, DW_OP_deref)), !dbg !4518
  call void @llvm.dbg.value(metadata ptr %cs.0.us.i, metadata !4213, metadata !DIExpression(DW_OP_LLVM_fragment, 0, 64)), !dbg !4518
  call void @llvm.dbg.value(metadata ptr %cs.1.us.i, metadata !4213, metadata !DIExpression(DW_OP_LLVM_fragment, 64, 64)), !dbg !4518
  tail call void @llvm.experimental.noalias.scope.decl(metadata !4519), !dbg !4522
  call void @llvm.dbg.value(metadata ptr %cs.0.us.i, metadata !3011, metadata !DIExpression(DW_OP_LLVM_fragment, 0, 64)), !dbg !4523
  call void @llvm.dbg.value(metadata ptr %cs.1.us.i, metadata !3011, metadata !DIExpression(DW_OP_LLVM_fragment, 64, 64)), !dbg !4523
  call void @llvm.dbg.value(metadata ptr undef, metadata !3034, metadata !DIExpression()), !dbg !4523
  %75 = getelementptr inbounds i8, ptr %cs.1.us.i, i64 32, !dbg !4524
  %76 = load ptr, ptr %75, align 8, !dbg !4524, !invariant.load !24, !alias.scope !4525, !noalias !4125, !nonnull !24
  %77 = invoke noundef align 8 dereferenceable(120) ptr %76(ptr noundef nonnull align 1 %cs.0.us.i)
          to label %.noexc.us.i unwind label %bb17.split.us.i, !dbg !4524, !noalias !4125

.noexc.us.i:                                      ; preds = %bb9.us.i
  call void @llvm.dbg.value(metadata ptr %77, metadata !3035, metadata !DIExpression()), !dbg !4526
  call void @llvm.dbg.value(metadata i8 3, metadata !3037, metadata !DIExpression()), !dbg !4527
  call void @llvm.dbg.value(metadata ptr undef, metadata !3062, metadata !DIExpression(DW_OP_LLVM_fragment, 0, 64)), !dbg !4528
  call void @llvm.dbg.value(metadata ptr undef, metadata !3062, metadata !DIExpression(DW_OP_LLVM_fragment, 64, 64)), !dbg !4528
  call void @llvm.dbg.value(metadata ptr undef, metadata !3077, metadata !DIExpression()), !dbg !4528
  call void @llvm.dbg.value(metadata ptr @_ZN12tracing_core10dispatcher11GLOBAL_INIT17h32115fdb9b27e6eeE, metadata !3082, metadata !DIExpression()), !dbg !4539
  call void @llvm.dbg.value(metadata i8 4, metadata !3086, metadata !DIExpression()), !dbg !4539
  call void @llvm.dbg.value(metadata ptr undef, metadata !3098, metadata !DIExpression(DW_OP_LLVM_fragment, 0, 64)), !dbg !4543
  call void @llvm.dbg.value(metadata ptr undef, metadata !3098, metadata !DIExpression(DW_OP_LLVM_fragment, 64, 64)), !dbg !4543
  call void @llvm.dbg.value(metadata i8 4, metadata !2638, metadata !DIExpression()), !dbg !4544
  call void @llvm.dbg.value(metadata ptr @_ZN12tracing_core10dispatcher11GLOBAL_INIT17h32115fdb9b27e6eeE, metadata !2644, metadata !DIExpression()), !dbg !4544
  %78 = load atomic i64, ptr @_ZN12tracing_core10dispatcher11GLOBAL_INIT17h32115fdb9b27e6eeE seq_cst, align 8, !dbg !4546, !noalias !4547
  %_6.not.i.i.i.i45.us.i = icmp ne i64 %78, 2, !dbg !4551
  call void @llvm.dbg.value(metadata ptr undef, metadata !3114, metadata !DIExpression(DW_OP_deref, DW_OP_deref)), !dbg !4552
  call void @llvm.dbg.value(metadata ptr undef, metadata !3121, metadata !DIExpression(DW_OP_deref, DW_OP_plus_uconst, 8, DW_OP_deref)), !dbg !4552
  call void @llvm.dbg.value(metadata ptr poison, metadata !3120, metadata !DIExpression()), !dbg !4552
  call void @llvm.dbg.value(metadata ptr poison, metadata !3128, metadata !DIExpression()), !dbg !4554
  call void @llvm.dbg.value(metadata ptr poison, metadata !3137, metadata !DIExpression()), !dbg !4556
  call void @llvm.dbg.value(metadata ptr %77, metadata !3134, metadata !DIExpression()), !dbg !4554
  %_ZN12tracing_core10dispatcher15GLOBAL_DISPATCH17h87fe84e1b4a2c89aE.val.i.i.i.i46.us.i = load i64, ptr @_ZN12tracing_core10dispatcher15GLOBAL_DISPATCH17h87fe84e1b4a2c89aE, align 8, !dbg !4558, !noalias !4547
  %trunc.not.i.i4.i.i.i.i47.us.i = icmp eq i64 %_ZN12tracing_core10dispatcher15GLOBAL_DISPATCH17h87fe84e1b4a2c89aE.val.i.i.i.i46.us.i, 0, !dbg !4559
  %trunc.not.i.i.i.i.i.i48.us.i = select i1 %_6.not.i.i.i.i45.us.i, i1 true, i1 %trunc.not.i.i4.i.i.i.i47.us.i, !dbg !4559
  %.val.i.i.i.i49.us.i = load ptr, ptr getelementptr inbounds (<{ [8 x i8], ptr, ptr }>, ptr @_ZN12tracing_core10dispatcher15GLOBAL_DISPATCH17h87fe84e1b4a2c89aE, i64 0, i32 1), align 8, !dbg !4556, !noalias !4547
  %s.0.i.i.i.i.i.i50.us.i = select i1 %_6.not.i.i.i.i45.us.i, ptr @_ZN12tracing_core10dispatcher13NO_SUBSCRIBER17h03311d1c194bfc5eE, ptr %.val.i.i.i.i49.us.i, !dbg !4556
  %.val6.i.i.i.i51.us.i = load ptr, ptr getelementptr inbounds (<{ [8 x i8], ptr, ptr }>, ptr @_ZN12tracing_core10dispatcher15GLOBAL_DISPATCH17h87fe84e1b4a2c89aE, i64 0, i32 2), align 8, !dbg !4556, !noalias !4547
  br i1 %trunc.not.i.i.i.i.i.i48.us.i, label %_ZN12tracing_core10dispatcher11get_default17h5860b6d006368ccaE.exit.i.i.i54.us.i, label %bb3.i.i.i.i.i.i52.us.i, !dbg !4559

bb3.i.i.i.i.i.i52.us.i:                           ; preds = %.noexc.us.i
  call void @llvm.dbg.value(metadata ptr poison, metadata !3146, metadata !DIExpression(DW_OP_plus_uconst, 8, DW_OP_stack_value)), !dbg !4560
  %79 = getelementptr inbounds i8, ptr %.val6.i.i.i.i51.us.i, i64 16, !dbg !4561
  %80 = load i64, ptr %79, align 8, !dbg !4561, !range !1554, !invariant.load !24, !noalias !4562
  %81 = add i64 %80, -1, !dbg !4561
  %82 = and i64 %81, -16, !dbg !4561
  %83 = getelementptr i8, ptr %.val.i.i.i.i49.us.i, i64 %82, !dbg !4561
  %_8.0.i.i.i.i.i.i53.us.i = getelementptr i8, ptr %83, i64 16, !dbg !4561
  br label %_ZN12tracing_core10dispatcher11get_default17h5860b6d006368ccaE.exit.i.i.i54.us.i, !dbg !4568

_ZN12tracing_core10dispatcher11get_default17h5860b6d006368ccaE.exit.i.i.i54.us.i: ; preds = %bb3.i.i.i.i.i.i52.us.i, %.noexc.us.i
  %_4.sroa.0.0.i.i.i.i.i.i55.us.i = phi ptr [ %_8.0.i.i.i.i.i.i53.us.i, %bb3.i.i.i.i.i.i52.us.i ], [ %s.0.i.i.i.i.i.i50.us.i, %.noexc.us.i ], !dbg !4556
  %s.1.i.i.i.i.i.i56.us.i = select i1 %_6.not.i.i.i.i45.us.i, ptr @0, ptr %.val6.i.i.i.i51.us.i, !dbg !4556
  %84 = getelementptr inbounds i8, ptr %s.1.i.i.i.i.i.i56.us.i, i64 32, !dbg !4528
  %85 = load ptr, ptr %84, align 8, !dbg !4528, !invariant.load !24, !noalias !4533, !nonnull !24
  %_0.i.i.i.i.i.i4357.us.i = invoke noundef i8 %85(ptr noundef align 1 %_4.sroa.0.0.i.i.i.i.i.i55.us.i, ptr noalias noundef nonnull readonly align 8 dereferenceable(120) %77)
          to label %_0.i.i.i.i.i.i43.noexc.us.i unwind label %bb17.split.us.i, !dbg !4528, !noalias !4125

_0.i.i.i.i.i.i43.noexc.us.i:                      ; preds = %_ZN12tracing_core10dispatcher11get_default17h5860b6d006368ccaE.exit.i.i.i54.us.i
  call void @llvm.dbg.value(metadata i8 %_0.i.i.i.i.i.i4357.us.i, metadata !3055, metadata !DIExpression()), !dbg !4537
  %86 = getelementptr inbounds i8, ptr %cs.1.us.i, i64 24, !dbg !4538
  %87 = load ptr, ptr %86, align 8, !dbg !4538, !invariant.load !24, !alias.scope !4525, !noalias !4125, !nonnull !24
  invoke void %87(ptr noundef nonnull align 1 %cs.0.us.i, i8 noundef %_0.i.i.i.i.i.i4357.us.i)
