; ModuleID = 'tracing.8a1c5b55e1d2bd9c-cgu.0'
source_filename = "tracing.8a1c5b55e1d2bd9c-cgu.0"
target datalayout = "e-m:e-p270:32:32-p271:32:32-p272:64:64-i64:64-i128:128-f80:128-n8:16:32:64-S128"
target triple = "x86_64-unknown-linux-gnu"

%"core::sync::atomic::AtomicUsize" = type { i64 }
%"tracing_core::dispatcher::Dispatch" = type { %"tracing_core::dispatcher::Kind<alloc::sync::Arc<dyn tracing_core::subscriber::Subscriber + core::marker::Send + core::marker::Sync>>" }
%"tracing_core::dispatcher::Kind<alloc::sync::Arc<dyn tracing_core::subscriber::Subscriber + core::marker::Send + core::marker::Sync>>" = type { i64, [2 x i64] }

@_ZN12tracing_core10dispatcher11GLOBAL_INIT17h32115fdb9b27e6eeE = external local_unnamed_addr global %"core::sync::atomic::AtomicUsize"
@_ZN12tracing_core10dispatcher15GLOBAL_DISPATCH17h87fe84e1b4a2c89aE = external local_unnamed_addr global %"tracing_core::dispatcher::Dispatch"
@_ZN12tracing_core10dispatcher4NONE17h6e5b38c8436baf83E = external local_unnamed_addr global %"tracing_core::dispatcher::Dispatch"
@alloc_41e6d83e28ed22dc441f7e93d8e2ff1c = private unnamed_addr constant <{ [2 x i8] }> <{ [2 x i8] c"Id" }>, align 1
@vtable.0 = private constant <{ [24 x i8], ptr }> <{ [24 x i8] c"\00\00\00\00\00\00\00\00\08\00\00\00\00\00\00\00\08\00\00\00\00\00\00\00", ptr @"_ZN42_$LT$$RF$T$u20$as$u20$core..fmt..Debug$GT$3fmt17h7945e695e7aee2abE" }>, align 8, !dbg !0
@alloc_3aab3716b8f5d9b5b4b2d52b15defac5 = private unnamed_addr constant <{ [5 x i8] }> <{ [5 x i8] c"Level" }>, align 1
@vtable.1 = private constant <{ [24 x i8], ptr }> <{ [24 x i8] c"\00\00\00\00\00\00\00\00\08\00\00\00\00\00\00\00\08\00\00\00\00\00\00\00", ptr @"_ZN42_$LT$$RF$T$u20$as$u20$core..fmt..Debug$GT$3fmt17h36c7385e59dee82aE" }>, align 8, !dbg !27
@alloc_4b13bf5cea81ca32c6d1d69992d360a0 = private unnamed_addr constant <{ [5 x i8] }> <{ [5 x i8] c"Trace" }>, align 1
@alloc_96abca9bcf0289be18b0174890500370 = private unnamed_addr constant <{ [5 x i8] }> <{ [5 x i8] c"Debug" }>, align 1
@alloc_24ea6de08d0b53dc6bee442c0c1bf938 = private unnamed_addr constant <{ [4 x i8] }> <{ [4 x i8] c"Info" }>, align 1
@alloc_13474ff3506fd5ad1ece37f1529fd5b7 = private unnamed_addr constant <{ [4 x i8] }> <{ [4 x i8] c"Warn" }>, align 1
@alloc_99ac8a81a24cac863217ce4a5cbfabea = private unnamed_addr constant <{ [5 x i8] }> <{ [5 x i8] c"Error" }>, align 1
@alloc_013ac183eb69ceaf6bbbdb62e96feb3c = private unnamed_addr constant <{ [4 x i8] }> <{ [4 x i8] c"Span" }>, align 1
@alloc_f00db71d77c58f05d86c38101680e143 = private unnamed_addr constant <{ [4 x i8] }> <{ [4 x i8] c"name" }>, align 1
@vtable.2 = private constant <{ [24 x i8], ptr }> <{ [24 x i8] c"\00\00\00\00\00\00\00\00\10\00\00\00\00\00\00\00\08\00\00\00\00\00\00\00", ptr @"_ZN42_$LT$$RF$T$u20$as$u20$core..fmt..Debug$GT$3fmt17h71a3c0bbad5d61c2E" }>, align 8, !dbg !45
@alloc_0111fe86b05ecb68d77beaa0646d3caa = private unnamed_addr constant <{ [5 x i8] }> <{ [5 x i8] c"level" }>, align 1
@vtable.3 = private constant <{ [24 x i8], ptr }> <{ [24 x i8] c"\00\00\00\00\00\00\00\00\08\00\00\00\00\00\00\00\08\00\00\00\00\00\00\00", ptr @"_ZN42_$LT$$RF$T$u20$as$u20$core..fmt..Debug$GT$3fmt17hbb5b0ea3c55244f4E" }>, align 8, !dbg !59
@alloc_5de5b778237022f7dfbd4b14eca9b832 = private unnamed_addr constant <{ [6 x i8] }> <{ [6 x i8] c"target" }>, align 1
@alloc_9fb7f5417e63e47f0143f7bd79a45fd4 = private unnamed_addr constant <{ [2 x i8] }> <{ [2 x i8] c"id" }>, align 1
@vtable.4 = private constant <{ [24 x i8], ptr }> <{ [24 x i8] c"\00\00\00\00\00\00\00\00\08\00\00\00\00\00\00\00\08\00\00\00\00\00\00\00", ptr @"_ZN59_$LT$tracing_core..span..Id$u20$as$u20$core..fmt..Debug$GT$3fmt17h76b37bd4a4f6c4a6E" }>, align 8, !dbg !71
@alloc_9e0d25f596c4d901f9d9d8b11bcd8165 = private unnamed_addr constant <{ [8 x i8] }> <{ [8 x i8] c"disabled" }>, align 1
@alloc_8821998f047ca62cad40e6bc4e4d87c4 = private unnamed_addr constant <{ [1 x i8] }> <{ [1 x i8] c"\01" }>, align 1
@vtable.5 = private constant <{ [24 x i8], ptr }> <{ [24 x i8] c"\00\00\00\00\00\00\00\00\01\00\00\00\00\00\00\00\01\00\00\00\00\00\00\00", ptr @"_ZN41_$LT$bool$u20$as$u20$core..fmt..Debug$GT$3fmt17h40eba7a03f944241E" }>, align 8, !dbg !83
@alloc_846dc7a16a9288ad50db549f0e5b194d = private unnamed_addr constant <{ [11 x i8] }> <{ [11 x i8] c"module_path" }>, align 1
@vtable.6 = private constant <{ [24 x i8], ptr }> <{ [24 x i8] c"\00\00\00\00\00\00\00\00\08\00\00\00\00\00\00\00\08\00\00\00\00\00\00\00", ptr @"_ZN42_$LT$$RF$T$u20$as$u20$core..fmt..Debug$GT$3fmt17h7510124a3ea7030dE" }>, align 8, !dbg !92
@alloc_228b951a53cd2b066a5833c8dc256a67 = private unnamed_addr constant <{ [4 x i8] }> <{ [4 x i8] c"line" }>, align 1
@vtable.7 = private constant <{ [24 x i8], ptr }> <{ [24 x i8] c"\00\00\00\00\00\00\00\00\08\00\00\00\00\00\00\00\08\00\00\00\00\00\00\00", ptr @"_ZN42_$LT$$RF$T$u20$as$u20$core..fmt..Debug$GT$3fmt17h11cfd5dd8dd21841E" }>, align 8, !dbg !101
@alloc_de7c89bfbe8cfcddfe41d5ea20bd02ee = private unnamed_addr constant <{ [4 x i8] }> <{ [4 x i8] c"file" }>, align 1
@alloc_890cb1a408d0b866810322ffa0505985 = private unnamed_addr constant <{ [4 x i8] }> <{ [4 x i8] c"none" }>, align 1
@"switch.table._ZN42_$LT$$RF$T$u20$as$u20$core..fmt..Debug$GT$3fmt17h36c7385e59dee82aE" = private unnamed_addr constant [5 x i64] [i64 5, i64 5, i64 4, i64 4, i64 5], align 8
@"reltable._ZN42_$LT$$RF$T$u20$as$u20$core..fmt..Debug$GT$3fmt17h36c7385e59dee82aE" = private unnamed_addr constant [5 x i32] [i32 trunc (i64 sub (i64 ptrtoint (ptr @alloc_4b13bf5cea81ca32c6d1d69992d360a0 to i64), i64 ptrtoint (ptr @"reltable._ZN42_$LT$$RF$T$u20$as$u20$core..fmt..Debug$GT$3fmt17h36c7385e59dee82aE" to i64)) to i32), i32 trunc (i64 sub (i64 ptrtoint (ptr @alloc_96abca9bcf0289be18b0174890500370 to i64), i64 ptrtoint (ptr @"reltable._ZN42_$LT$$RF$T$u20$as$u20$core..fmt..Debug$GT$3fmt17h36c7385e59dee82aE" to i64)) to i32), i32 trunc (i64 sub (i64 ptrtoint (ptr @alloc_24ea6de08d0b53dc6bee442c0c1bf938 to i64), i64 ptrtoint (ptr @"reltable._ZN42_$LT$$RF$T$u20$as$u20$core..fmt..Debug$GT$3fmt17h36c7385e59dee82aE" to i64)) to i32), i32 trunc (i64 sub (i64 ptrtoint (ptr @alloc_13474ff3506fd5ad1ece37f1529fd5b7 to i64), i64 ptrtoint (ptr @"reltable._ZN42_$LT$$RF$T$u20$as$u20$core..fmt..Debug$GT$3fmt17h36c7385e59dee82aE" to i64)) to i32), i32 trunc (i64 sub (i64 ptrtoint (ptr @alloc_99ac8a81a24cac863217ce4a5cbfabea to i64), i64 ptrtoint (ptr @"reltable._ZN42_$LT$$RF$T$u20$as$u20$core..fmt..Debug$GT$3fmt17h36c7385e59dee82aE" to i64)) to i32)], align 4

@_ZN7tracing4span4Span2id17h3491c8d079618b3dE = unnamed_addr alias i64 (ptr), ptr @_ZN7tracing4span11EnteredSpan2id17h0f02edace31f44dcE
@"_ZN7tracing4span138_$LT$impl$u20$core..convert..From$LT$$RF$tracing..span..EnteredSpan$GT$$u20$for$u20$core..option..Option$LT$tracing_core..span..Id$GT$$GT$4from17h7176baebdcd3bff9E" = unnamed_addr alias i64 (ptr), ptr @_ZN7tracing4span11EnteredSpan2id17h0f02edace31f44dcE
@"_ZN7tracing4span131_$LT$impl$u20$core..convert..From$LT$$RF$tracing..span..Span$GT$$u20$for$u20$core..option..Option$LT$tracing_core..span..Id$GT$$GT$4from17hf20fa6d694ee1390E" = unnamed_addr alias i64 (ptr), ptr @_ZN7tracing4span11EnteredSpan2id17h0f02edace31f44dcE

; <bool as core::fmt::Debug>::fmt
; Function Attrs: inlinehint nonlazybind uwtable
define internal noundef zeroext i1 @"_ZN41_$LT$bool$u20$as$u20$core..fmt..Debug$GT$3fmt17h40eba7a03f944241E"(ptr noalias noundef readonly align 1 dereferenceable(1) %self, ptr noalias noundef align 8 dereferenceable(64) %f) unnamed_addr #0 !dbg !211 {
start:
  tail call void @llvm.dbg.value(metadata ptr %self, metadata !270, metadata !DIExpression()), !dbg !272
  tail call void @llvm.dbg.value(metadata ptr %f, metadata !271, metadata !DIExpression()), !dbg !272
; call <bool as core::fmt::Display>::fmt
  %_0 = tail call noundef zeroext i1 @"_ZN43_$LT$bool$u20$as$u20$core..fmt..Display$GT$3fmt17he691df9786a4e217E"(ptr noalias noundef nonnull readonly align 1 dereferenceable(1) %self, ptr noalias noundef nonnull align 8 dereferenceable(64) %f), !dbg !273
  ret i1 %_0, !dbg !274
}

; <&T as core::fmt::Debug>::fmt
; Function Attrs: nonlazybind uwtable
define internal noundef zeroext i1 @"_ZN42_$LT$$RF$T$u20$as$u20$core..fmt..Debug$GT$3fmt17h11cfd5dd8dd21841E"(ptr noalias nocapture noundef readonly align 8 dereferenceable(8) %self, ptr noalias noundef align 8 dereferenceable(64) %f) unnamed_addr #1 !dbg !275 {
start:
  tail call void @llvm.dbg.value(metadata ptr %self, metadata !281, metadata !DIExpression()), !dbg !285
  tail call void @llvm.dbg.value(metadata ptr %f, metadata !282, metadata !DIExpression()), !dbg !285
  %_3 = load ptr, ptr %self, align 8, !dbg !286, !nonnull !24, !align !287, !noundef !24
  call void @llvm.dbg.value(metadata ptr %_3, metadata !288, metadata !DIExpression()), !dbg !297
  call void @llvm.dbg.value(metadata ptr %f, metadata !296, metadata !DIExpression()), !dbg !297
  call void @llvm.dbg.value(metadata ptr %f, metadata !299, metadata !DIExpression()), !dbg !307
  call void @llvm.dbg.value(metadata ptr %f, metadata !309, metadata !DIExpression()), !dbg !314
  %0 = getelementptr inbounds i8, ptr %f, i64 52, !dbg !316
  %_4.i = load i32, ptr %0, align 4, !dbg !316, !alias.scope !317, !noalias !320, !noundef !24
  %_3.i = and i32 %_4.i, 16, !dbg !316
  %1 = icmp eq i32 %_3.i, 0, !dbg !322
  br i1 %1, label %bb2.i, label %bb1.i, !dbg !322

bb2.i:                                            ; preds = %start
  %_5.i = and i32 %_4.i, 32, !dbg !323
  %2 = icmp eq i32 %_5.i, 0, !dbg !324
  br i1 %2, label %bb4.i, label %bb3.i, !dbg !324

bb1.i:                                            ; preds = %start
; call core::fmt::num::<impl core::fmt::LowerHex for u32>::fmt
  %3 = tail call noundef zeroext i1 @"_ZN4core3fmt3num53_$LT$impl$u20$core..fmt..LowerHex$u20$for$u20$u32$GT$3fmt17h07f79dd16b39935fE"(ptr noalias noundef nonnull readonly align 4 dereferenceable(4) %_3, ptr noalias noundef nonnull align 8 dereferenceable(64) %f), !dbg !325
  br label %"_ZN4core3fmt3num50_$LT$impl$u20$core..fmt..Debug$u20$for$u20$u32$GT$3fmt17hf891af710521ab67E.exit", !dbg !325

bb4.i:                                            ; preds = %bb2.i
; call core::fmt::num::imp::<impl core::fmt::Display for u32>::fmt
  %4 = tail call noundef zeroext i1 @"_ZN4core3fmt3num3imp52_$LT$impl$u20$core..fmt..Display$u20$for$u20$u32$GT$3fmt17h2bca854f0e3dfdc9E"(ptr noalias noundef nonnull readonly align 4 dereferenceable(4) %_3, ptr noalias noundef nonnull align 8 dereferenceable(64) %f), !dbg !326
  br label %"_ZN4core3fmt3num50_$LT$impl$u20$core..fmt..Debug$u20$for$u20$u32$GT$3fmt17hf891af710521ab67E.exit", !dbg !326

bb3.i:                                            ; preds = %bb2.i
; call core::fmt::num::<impl core::fmt::UpperHex for u32>::fmt
  %5 = tail call noundef zeroext i1 @"_ZN4core3fmt3num53_$LT$impl$u20$core..fmt..UpperHex$u20$for$u20$u32$GT$3fmt17h3eaafe46ae0cfb90E"(ptr noalias noundef nonnull readonly align 4 dereferenceable(4) %_3, ptr noalias noundef nonnull align 8 dereferenceable(64) %f), !dbg !327
  br label %"_ZN4core3fmt3num50_$LT$impl$u20$core..fmt..Debug$u20$for$u20$u32$GT$3fmt17hf891af710521ab67E.exit", !dbg !327

"_ZN4core3fmt3num50_$LT$impl$u20$core..fmt..Debug$u20$for$u20$u32$GT$3fmt17hf891af710521ab67E.exit": ; preds = %bb1.i, %bb4.i, %bb3.i
  %_0.sroa.0.0.in.i = phi i1 [ %4, %bb4.i ], [ %5, %bb3.i ], [ %3, %bb1.i ]
  ret i1 %_0.sroa.0.0.in.i, !dbg !328
}

; <&T as core::fmt::Debug>::fmt
; Function Attrs: nonlazybind uwtable
define internal noundef zeroext i1 @"_ZN42_$LT$$RF$T$u20$as$u20$core..fmt..Debug$GT$3fmt17h36c7385e59dee82aE"(ptr noalias nocapture noundef readonly align 8 dereferenceable(8) %self, ptr noalias noundef align 8 dereferenceable(64) %f) unnamed_addr #1 !dbg !329 {
start:
  tail call void @llvm.dbg.value(metadata ptr %self, metadata !334, metadata !DIExpression()), !dbg !338
  tail call void @llvm.dbg.value(metadata ptr %f, metadata !335, metadata !DIExpression()), !dbg !338
  %_3 = load ptr, ptr %self, align 8, !dbg !339, !nonnull !24, !align !340, !noundef !24
  %_3.val = load i64, ptr %_3, align 8, !dbg !341, !range !342, !noundef !24
  call void @llvm.dbg.value(metadata ptr undef, metadata !343, metadata !DIExpression()), !dbg !351
  call void @llvm.dbg.value(metadata ptr %f, metadata !350, metadata !DIExpression()), !dbg !351
  %switch.gep = getelementptr inbounds [5 x i64], ptr @"switch.table._ZN42_$LT$$RF$T$u20$as$u20$core..fmt..Debug$GT$3fmt17h36c7385e59dee82aE", i64 0, i64 %_3.val, !dbg !353
  %switch.load = load i64, ptr %switch.gep, align 8, !dbg !353
  %reltable.shift = shl i64 %_3.val, 2, !dbg !353
  %reltable.intrinsic = call ptr @llvm.load.relative.i64(ptr @"reltable._ZN42_$LT$$RF$T$u20$as$u20$core..fmt..Debug$GT$3fmt17h36c7385e59dee82aE", i64 %reltable.shift), !dbg !353
; call core::fmt::Formatter::write_str
  %_0.i = tail call noundef zeroext i1 @_ZN4core3fmt9Formatter9write_str17h35be9e09c65db375E(ptr noalias noundef nonnull align 8 dereferenceable(64) %f, ptr noalias noundef nonnull readonly align 1 %reltable.intrinsic, i64 noundef %switch.load), !dbg !353
  ret i1 %_0.i, !dbg !354
}

; <&T as core::fmt::Debug>::fmt
; Function Attrs: nonlazybind uwtable
define internal noundef zeroext i1 @"_ZN42_$LT$$RF$T$u20$as$u20$core..fmt..Debug$GT$3fmt17h71a3c0bbad5d61c2E"(ptr noalias nocapture noundef readonly align 8 dereferenceable(16) %self, ptr noalias noundef align 8 dereferenceable(64) %f) unnamed_addr #1 !dbg !355 {
start:
  tail call void @llvm.dbg.value(metadata ptr %self, metadata !359, metadata !DIExpression()), !dbg !363
  tail call void @llvm.dbg.value(metadata ptr %f, metadata !360, metadata !DIExpression()), !dbg !363
  %_3.0 = load ptr, ptr %self, align 8, !dbg !364, !nonnull !24, !align !365, !noundef !24
  %0 = getelementptr inbounds i8, ptr %self, i64 8, !dbg !364
  %_3.1 = load i64, ptr %0, align 8, !dbg !364, !noundef !24
; call <str as core::fmt::Debug>::fmt
  %_0 = tail call noundef zeroext i1 @"_ZN40_$LT$str$u20$as$u20$core..fmt..Debug$GT$3fmt17h8addf800304f3e1bE"(ptr noalias noundef nonnull readonly align 1 %_3.0, i64 noundef %_3.1, ptr noalias noundef nonnull align 8 dereferenceable(64) %f), !dbg !366
  ret i1 %_0, !dbg !367
}

; <&T as core::fmt::Debug>::fmt
; Function Attrs: nonlazybind uwtable
define internal noundef zeroext i1 @"_ZN42_$LT$$RF$T$u20$as$u20$core..fmt..Debug$GT$3fmt17h7510124a3ea7030dE"(ptr noalias nocapture noundef readonly align 8 dereferenceable(8) %self, ptr noalias noundef align 8 dereferenceable(64) %f) unnamed_addr #1 !dbg !368 {
start:
  tail call void @llvm.dbg.value(metadata ptr %self, metadata !373, metadata !DIExpression()), !dbg !377
  tail call void @llvm.dbg.value(metadata ptr %f, metadata !374, metadata !DIExpression()), !dbg !377
  %_3 = load ptr, ptr %self, align 8, !dbg !378, !nonnull !24, !align !340, !noundef !24
  tail call void @llvm.experimental.noalias.scope.decl(metadata !379), !dbg !382
  call void @llvm.dbg.value(metadata ptr %_3, metadata !359, metadata !DIExpression()), !dbg !383
  call void @llvm.dbg.value(metadata ptr %f, metadata !360, metadata !DIExpression()), !dbg !383
  %_3.0.i = load ptr, ptr %_3, align 8, !dbg !385, !alias.scope !379, !noalias !386, !nonnull !24, !align !365, !noundef !24
  %0 = getelementptr inbounds i8, ptr %_3, i64 8, !dbg !385
  %_3.1.i = load i64, ptr %0, align 8, !dbg !385, !alias.scope !379, !noalias !386, !noundef !24
; call <str as core::fmt::Debug>::fmt
  %_0.i = tail call noundef zeroext i1 @"_ZN40_$LT$str$u20$as$u20$core..fmt..Debug$GT$3fmt17h8addf800304f3e1bE"(ptr noalias noundef nonnull readonly align 1 %_3.0.i, i64 noundef %_3.1.i, ptr noalias noundef nonnull align 8 dereferenceable(64) %f), !dbg !388, !noalias !379
  ret i1 %_0.i, !dbg !389
}

; <&T as core::fmt::Debug>::fmt
; Function Attrs: nonlazybind uwtable
define internal noundef zeroext i1 @"_ZN42_$LT$$RF$T$u20$as$u20$core..fmt..Debug$GT$3fmt17h7945e695e7aee2abE"(ptr noalias nocapture noundef readonly align 8 dereferenceable(8) %self, ptr noalias noundef align 8 dereferenceable(64) %f) unnamed_addr #1 !dbg !390 {
start:
  %_4.i = alloca [8 x i8], align 8
  tail call void @llvm.dbg.value(metadata ptr %self, metadata !395, metadata !DIExpression()), !dbg !399
  tail call void @llvm.dbg.value(metadata ptr %f, metadata !396, metadata !DIExpression()), !dbg !399
  %_3 = load ptr, ptr %self, align 8, !dbg !400, !nonnull !24, !align !340, !noundef !24
  %_3.val = load i64, ptr %_3, align 8, !dbg !401, !range !402, !noundef !24
  tail call void @llvm.experimental.noalias.scope.decl(metadata !403), !dbg !401
  call void @llvm.dbg.value(metadata ptr undef, metadata !406, metadata !DIExpression()), !dbg !414
  call void @llvm.dbg.value(metadata ptr %f, metadata !413, metadata !DIExpression()), !dbg !414
  call void @llvm.lifetime.start.p0(i64 8, ptr nonnull %_4.i), !dbg !416, !noalias !403
  call void @llvm.dbg.value(metadata i64 %_3.val, metadata !417, metadata !DIExpression()), !dbg !424
  store i64 %_3.val, ptr %_4.i, align 8, !dbg !426, !noalias !403
  call void @llvm.dbg.value(metadata ptr %_4.i, metadata !427, metadata !DIExpression()), !dbg !435
  call void @llvm.dbg.value(metadata ptr %f, metadata !434, metadata !DIExpression()), !dbg !435
  call void @llvm.dbg.value(metadata ptr %f, metadata !437, metadata !DIExpression()), !dbg !441
  call void @llvm.dbg.value(metadata ptr %f, metadata !443, metadata !DIExpression()), !dbg !447
  %0 = getelementptr inbounds i8, ptr %f, i64 52, !dbg !449
  %_4.i.i = load i32, ptr %0, align 4, !dbg !449, !alias.scope !450, !noalias !453, !noundef !24
  %_3.i.i = and i32 %_4.i.i, 16, !dbg !449
  %1 = icmp eq i32 %_3.i.i, 0, !dbg !455
  br i1 %1, label %bb2.i.i, label %bb1.i.i, !dbg !455

bb2.i.i:                                          ; preds = %start
  %_5.i.i = and i32 %_4.i.i, 32, !dbg !456
  %2 = icmp eq i32 %_5.i.i, 0, !dbg !457
  br i1 %2, label %bb4.i.i, label %bb3.i.i, !dbg !457

bb1.i.i:                                          ; preds = %start
; call core::fmt::num::<impl core::fmt::LowerHex for u64>::fmt
  %3 = call noundef zeroext i1 @"_ZN4core3fmt3num53_$LT$impl$u20$core..fmt..LowerHex$u20$for$u20$u64$GT$3fmt17hb613d61cf5457bc2E"(ptr noalias noundef nonnull readonly align 8 dereferenceable(8) %_4.i, ptr noalias noundef nonnull align 8 dereferenceable(64) %f), !dbg !458
  br label %"_ZN73_$LT$core..num..nonzero..NonZero$LT$T$GT$$u20$as$u20$core..fmt..Debug$GT$3fmt17h3a062a15f31a41f3E.exit", !dbg !458

bb4.i.i:                                          ; preds = %bb2.i.i
; call core::fmt::num::imp::<impl core::fmt::Display for u64>::fmt
  %4 = call noundef zeroext i1 @"_ZN4core3fmt3num3imp52_$LT$impl$u20$core..fmt..Display$u20$for$u20$u64$GT$3fmt17hc7ee99daaeefde73E"(ptr noalias noundef nonnull readonly align 8 dereferenceable(8) %_4.i, ptr noalias noundef nonnull align 8 dereferenceable(64) %f), !dbg !459
  br label %"_ZN73_$LT$core..num..nonzero..NonZero$LT$T$GT$$u20$as$u20$core..fmt..Debug$GT$3fmt17h3a062a15f31a41f3E.exit", !dbg !459

bb3.i.i:                                          ; preds = %bb2.i.i
; call core::fmt::num::<impl core::fmt::UpperHex for u64>::fmt
  %5 = call noundef zeroext i1 @"_ZN4core3fmt3num53_$LT$impl$u20$core..fmt..UpperHex$u20$for$u20$u64$GT$3fmt17he7726eb1d6454ad2E"(ptr noalias noundef nonnull readonly align 8 dereferenceable(8) %_4.i, ptr noalias noundef nonnull align 8 dereferenceable(64) %f), !dbg !460
  br label %"_ZN73_$LT$core..num..nonzero..NonZero$LT$T$GT$$u20$as$u20$core..fmt..Debug$GT$3fmt17h3a062a15f31a41f3E.exit", !dbg !460

"_ZN73_$LT$core..num..nonzero..NonZero$LT$T$GT$$u20$as$u20$core..fmt..Debug$GT$3fmt17h3a062a15f31a41f3E.exit": ; preds = %bb1.i.i, %bb4.i.i, %bb3.i.i
  %_0.sroa.0.0.in.i.i = phi i1 [ %4, %bb4.i.i ], [ %5, %bb3.i.i ], [ %3, %bb1.i.i ]
  call void @llvm.lifetime.end.p0(i64 8, ptr nonnull %_4.i), !dbg !461, !noalias !403
  ret i1 %_0.sroa.0.0.in.i.i, !dbg !462
}

; <&T as core::fmt::Debug>::fmt
; Function Attrs: nonlazybind uwtable
define internal noundef zeroext i1 @"_ZN42_$LT$$RF$T$u20$as$u20$core..fmt..Debug$GT$3fmt17hbb5b0ea3c55244f4E"(ptr noalias nocapture noundef readonly align 8 dereferenceable(8) %self, ptr noalias noundef align 8 dereferenceable(64) %f) unnamed_addr #1 !dbg !463 {
start:
  %_6.i = alloca [8 x i8], align 8
  tail call void @llvm.dbg.value(metadata ptr %self, metadata !468, metadata !DIExpression()), !dbg !472
  tail call void @llvm.dbg.value(metadata ptr %f, metadata !469, metadata !DIExpression()), !dbg !472
  %_3 = load ptr, ptr %self, align 8, !dbg !473, !nonnull !24, !align !340, !noundef !24
  call void @llvm.dbg.value(metadata ptr %_3, metadata !474, metadata !DIExpression()), !dbg !481
  call void @llvm.dbg.value(metadata ptr %f, metadata !480, metadata !DIExpression()), !dbg !481
  call void @llvm.lifetime.start.p0(i64 8, ptr nonnull %_6.i), !dbg !483, !noalias !484
  store ptr %_3, ptr %_6.i, align 8, !dbg !483, !noalias !484
; call core::fmt::Formatter::debug_tuple_field1_finish
  %_0.i = call noundef zeroext i1 @_ZN4core3fmt9Formatter25debug_tuple_field1_finish17hda02114f9a9fecb7E(ptr noalias noundef nonnull align 8 dereferenceable(64) %f, ptr noalias noundef nonnull readonly align 1 @alloc_3aab3716b8f5d9b5b4b2d52b15defac5, i64 noundef 5, ptr noundef nonnull align 1 %_6.i, ptr noalias noundef nonnull readonly align 8 dereferenceable(32) @vtable.1), !dbg !488
  call void @llvm.lifetime.end.p0(i64 8, ptr nonnull %_6.i), !dbg !489, !noalias !484
  ret i1 %_0.i, !dbg !490
}

; core::ptr::drop_in_place<tracing::span::Span>
; Function Attrs: nonlazybind uwtable
define internal fastcc void @"_ZN4core3ptr40drop_in_place$LT$tracing..span..Span$GT$17h47c79a7196b31a47E"(ptr noalias noundef align 8 dereferenceable(40) %_1) unnamed_addr #1 personality ptr @rust_eh_personality !dbg !491 {
start:
  tail call void @llvm.dbg.value(metadata ptr %_1, metadata !656, metadata !DIExpression()), !dbg !659
  call void @llvm.dbg.value(metadata ptr %_1, metadata !660, metadata !DIExpression()), !dbg !673
  %0 = load i64, ptr %_1, align 8, !dbg !675, !range !676, !noundef !24
  %1 = icmp eq i64 %0, 2, !dbg !675
  br i1 %1, label %"_ZN4core3ptr69drop_in_place$LT$core..option..Option$LT$tracing..span..Inner$GT$$GT$17h1db1e8740abf1046E.exit", label %bb1.i, !dbg !675

bb1.i:                                            ; preds = %start
  call void @llvm.dbg.value(metadata ptr %_1, metadata !668, metadata !DIExpression(DW_OP_plus_uconst, 24, DW_OP_stack_value)), !dbg !677
  call void @llvm.dbg.value(metadata ptr %_1, metadata !671, metadata !DIExpression()), !dbg !677
  call void @llvm.dbg.value(metadata ptr %_1, metadata !678, metadata !DIExpression(DW_OP_plus_uconst, 24, DW_OP_stack_value)), !dbg !686
  call void @llvm.dbg.value(metadata ptr %_1, metadata !688, metadata !DIExpression(DW_OP_plus_uconst, 24, DW_OP_stack_value)), !dbg !695
  %2 = getelementptr inbounds i8, ptr %_1, i64 24, !dbg !697
  %_11.i = load i64, ptr %2, align 8, !dbg !697, !range !402, !alias.scope !698, !noundef !24
; invoke tracing_core::dispatcher::Dispatch::try_close
  %_5.i1 = invoke noundef zeroext i1 @_ZN12tracing_core10dispatcher8Dispatch9try_close17h696bcd9c55eb65b8E(ptr noalias noundef nonnull readonly align 8 dereferenceable(24) %_1, i64 noundef %_11.i)
          to label %bb2.i unwind label %cleanup, !dbg !701

cleanup:                                          ; preds = %bb1.i
  %3 = landingpad { ptr, i32 }
          cleanup
; invoke core::ptr::drop_in_place<core::option::Option<tracing::span::Inner>>
  invoke fastcc void @"_ZN4core3ptr69drop_in_place$LT$core..option..Option$LT$tracing..span..Inner$GT$$GT$17h1db1e8740abf1046E"(ptr noalias noundef nonnull align 8 dereferenceable(32) %_1) #15
          to label %bb1 unwind label %terminate, !dbg !702

bb2.i:                                            ; preds = %bb1.i
  tail call void @llvm.experimental.noalias.scope.decl(metadata !703), !dbg !702
  call void @llvm.dbg.value(metadata ptr %_1, metadata !706, metadata !DIExpression()), !dbg !714
  tail call void @llvm.experimental.noalias.scope.decl(metadata !716), !dbg !719
  call void @llvm.dbg.value(metadata ptr %_1, metadata !720, metadata !DIExpression()), !dbg !726
  tail call void @llvm.experimental.noalias.scope.decl(metadata !728), !dbg !731
  call void @llvm.dbg.value(metadata ptr %_1, metadata !732, metadata !DIExpression()), !dbg !740
  tail call void @llvm.experimental.noalias.scope.decl(metadata !742), !dbg !745
  call void @llvm.dbg.value(metadata ptr %_1, metadata !746, metadata !DIExpression()), !dbg !754
  %4 = icmp eq i64 %0, 0, !dbg !756
  br i1 %4, label %"_ZN4core3ptr69drop_in_place$LT$core..option..Option$LT$tracing..span..Inner$GT$$GT$17h1db1e8740abf1046E.exit", label %bb2.i.i.i.i, !dbg !756

bb2.i.i.i.i:                                      ; preds = %bb2.i
  %5 = getelementptr inbounds i8, ptr %_1, i64 8, !dbg !756
  tail call void @llvm.experimental.noalias.scope.decl(metadata !757), !dbg !756
  call void @llvm.dbg.value(metadata ptr %5, metadata !760, metadata !DIExpression()), !dbg !766
  tail call void @llvm.experimental.noalias.scope.decl(metadata !768), !dbg !771
  call void @llvm.dbg.value(metadata i64 1, metadata !772, metadata !DIExpression()), !dbg !783
  call void @llvm.dbg.value(metadata i8 1, metadata !782, metadata !DIExpression()), !dbg !783
  call void @llvm.dbg.value(metadata i64 1, metadata !794, metadata !DIExpression()), !dbg !803
  call void @llvm.dbg.value(metadata i8 1, metadata !802, metadata !DIExpression()), !dbg !803
  call void @llvm.dbg.value(metadata i8 2, metadata !805, metadata !DIExpression()), !dbg !811
  call void @llvm.dbg.value(metadata ptr %5, metadata !792, metadata !DIExpression()), !dbg !813
  call void @llvm.dbg.value(metadata ptr %5, metadata !814, metadata !DIExpression()), !dbg !826
  call void @llvm.dbg.value(metadata ptr %5, metadata !828, metadata !DIExpression()), !dbg !837
  %self.0.i.i.i.i.i.i = load ptr, ptr %5, align 8, !dbg !839, !alias.scope !840, !nonnull !24, !noundef !24
  call void @llvm.dbg.value(metadata ptr %self.0.i.i.i.i.i.i, metadata !781, metadata !DIExpression()), !dbg !783
  call void @llvm.dbg.value(metadata ptr %self.0.i.i.i.i.i.i, metadata !801, metadata !DIExpression()), !dbg !803
  %6 = atomicrmw sub ptr %self.0.i.i.i.i.i.i, i64 1 release, align 8, !dbg !841, !noalias !840
  %7 = icmp eq i64 %6, 1, !dbg !842
  br i1 %7, label %bb2.i.i.i.i.i.i, label %"_ZN4core3ptr69drop_in_place$LT$core..option..Option$LT$tracing..span..Inner$GT$$GT$17h1db1e8740abf1046E.exit", !dbg !842

bb2.i.i.i.i.i.i:                                  ; preds = %bb2.i.i.i.i
  fence acquire, !dbg !843
; call alloc::sync::Arc<T,A>::drop_slow
  tail call fastcc void @"_ZN5alloc4sync16Arc$LT$T$C$A$GT$9drop_slow17hd8d6316731aaf9c7E"(ptr noalias noundef nonnull align 8 dereferenceable(16) %5), !dbg !844
  br label %"_ZN4core3ptr69drop_in_place$LT$core..option..Option$LT$tracing..span..Inner$GT$$GT$17h1db1e8740abf1046E.exit", !dbg !844

"_ZN4core3ptr69drop_in_place$LT$core..option..Option$LT$tracing..span..Inner$GT$$GT$17h1db1e8740abf1046E.exit": ; preds = %start, %bb2.i, %bb2.i.i.i.i, %bb2.i.i.i.i.i.i
  ret void, !dbg !702

terminate:                                        ; preds = %cleanup
  %8 = landingpad { ptr, i32 }
          filter [0 x ptr] zeroinitializer
; call core::panicking::panic_in_cleanup
  tail call void @_ZN4core9panicking16panic_in_cleanup17h43442956f23e9cbeE() #16, !dbg !702
  unreachable, !dbg !702

bb1:                                              ; preds = %cleanup
  resume { ptr, i32 } %3, !dbg !702
}

; core::ptr::drop_in_place<core::option::Option<tracing::span::Inner>>
; Function Attrs: nonlazybind uwtable
define internal fastcc void @"_ZN4core3ptr69drop_in_place$LT$core..option..Option$LT$tracing..span..Inner$GT$$GT$17h1db1e8740abf1046E"(ptr noalias nocapture noundef readonly align 8 dereferenceable(32) %_1) unnamed_addr #1 !dbg !707 {
start:
  tail call void @llvm.dbg.value(metadata ptr %_1, metadata !706, metadata !DIExpression()), !dbg !845
  %0 = load i64, ptr %_1, align 8, !dbg !846, !range !676, !noundef !24
  %1 = icmp eq i64 %0, 2, !dbg !846
  br i1 %1, label %bb1, label %bb2, !dbg !846

bb1:                                              ; preds = %bb2.i.i.i.i.i, %bb2.i.i.i, %bb2, %start
  ret void, !dbg !846

bb2:                                              ; preds = %start
  tail call void @llvm.experimental.noalias.scope.decl(metadata !847), !dbg !846
  call void @llvm.dbg.value(metadata ptr %_1, metadata !720, metadata !DIExpression()), !dbg !850
  tail call void @llvm.experimental.noalias.scope.decl(metadata !852), !dbg !855
  call void @llvm.dbg.value(metadata ptr %_1, metadata !732, metadata !DIExpression()), !dbg !856
  tail call void @llvm.experimental.noalias.scope.decl(metadata !858), !dbg !861
  call void @llvm.dbg.value(metadata ptr %_1, metadata !746, metadata !DIExpression()), !dbg !862
  %2 = icmp eq i64 %0, 0, !dbg !864
  br i1 %2, label %bb1, label %bb2.i.i.i, !dbg !864

bb2.i.i.i:                                        ; preds = %bb2
  %3 = getelementptr inbounds i8, ptr %_1, i64 8, !dbg !864
  tail call void @llvm.experimental.noalias.scope.decl(metadata !865), !dbg !864
  call void @llvm.dbg.value(metadata ptr %3, metadata !760, metadata !DIExpression()), !dbg !868
  tail call void @llvm.experimental.noalias.scope.decl(metadata !870), !dbg !873
  call void @llvm.dbg.value(metadata i64 1, metadata !772, metadata !DIExpression()), !dbg !874
  call void @llvm.dbg.value(metadata i8 1, metadata !782, metadata !DIExpression()), !dbg !874
  call void @llvm.dbg.value(metadata i64 1, metadata !794, metadata !DIExpression()), !dbg !877
  call void @llvm.dbg.value(metadata i8 1, metadata !802, metadata !DIExpression()), !dbg !877
  call void @llvm.dbg.value(metadata i8 2, metadata !805, metadata !DIExpression()), !dbg !879
  call void @llvm.dbg.value(metadata ptr %3, metadata !792, metadata !DIExpression()), !dbg !881
  call void @llvm.dbg.value(metadata ptr %3, metadata !814, metadata !DIExpression()), !dbg !882
  call void @llvm.dbg.value(metadata ptr %3, metadata !828, metadata !DIExpression()), !dbg !884
  %self.0.i.i.i.i.i = load ptr, ptr %3, align 8, !dbg !886, !alias.scope !887, !nonnull !24, !noundef !24
  call void @llvm.dbg.value(metadata ptr %self.0.i.i.i.i.i, metadata !781, metadata !DIExpression()), !dbg !874
  call void @llvm.dbg.value(metadata ptr %self.0.i.i.i.i.i, metadata !801, metadata !DIExpression()), !dbg !877
  %4 = atomicrmw sub ptr %self.0.i.i.i.i.i, i64 1 release, align 8, !dbg !888, !noalias !887
  %5 = icmp eq i64 %4, 1, !dbg !889
  br i1 %5, label %bb2.i.i.i.i.i, label %bb1, !dbg !889

bb2.i.i.i.i.i:                                    ; preds = %bb2.i.i.i
  fence acquire, !dbg !890
; call alloc::sync::Arc<T,A>::drop_slow
  tail call fastcc void @"_ZN5alloc4sync16Arc$LT$T$C$A$GT$9drop_slow17hd8d6316731aaf9c7E"(ptr noalias noundef nonnull align 8 dereferenceable(16) %3), !dbg !891
  br label %bb1, !dbg !891
}

; <tracing_core::span::Id as core::fmt::Debug>::fmt
; Function Attrs: inlinehint nonlazybind uwtable
define internal noundef zeroext i1 @"_ZN59_$LT$tracing_core..span..Id$u20$as$u20$core..fmt..Debug$GT$3fmt17h76b37bd4a4f6c4a6E"(ptr noalias noundef readonly align 8 dereferenceable(8) %self, ptr noalias noundef align 8 dereferenceable(64) %f) unnamed_addr #0 !dbg !892 {
start:
  %_6 = alloca [8 x i8], align 8
  tail call void @llvm.dbg.value(metadata ptr %self, metadata !897, metadata !DIExpression()), !dbg !899
  tail call void @llvm.dbg.value(metadata ptr %f, metadata !898, metadata !DIExpression()), !dbg !899
  call void @llvm.lifetime.start.p0(i64 8, ptr nonnull %_6), !dbg !900
  store ptr %self, ptr %_6, align 8, !dbg !900
; call core::fmt::Formatter::debug_tuple_field1_finish
  %_0 = call noundef zeroext i1 @_ZN4core3fmt9Formatter25debug_tuple_field1_finish17hda02114f9a9fecb7E(ptr noalias noundef nonnull align 8 dereferenceable(64) %f, ptr noalias noundef nonnull readonly align 1 @alloc_41e6d83e28ed22dc441f7e93d8e2ff1c, i64 noundef 2, ptr noundef nonnull align 1 %_6, ptr noalias noundef nonnull readonly align 8 dereferenceable(32) @vtable.0), !dbg !901
  call void @llvm.lifetime.end.p0(i64 8, ptr nonnull %_6), !dbg !902
  ret i1 %_0, !dbg !903
}

; alloc::sync::Arc<T,A>::drop_slow
; Function Attrs: noinline nonlazybind uwtable
define internal fastcc void @"_ZN5alloc4sync16Arc$LT$T$C$A$GT$9drop_slow17hd8d6316731aaf9c7E"(ptr noalias nocapture noundef readonly align 8 dereferenceable(16) %self) unnamed_addr #2 !dbg !904 {
start:
  tail call void @llvm.dbg.value(metadata ptr %self, metadata !907, metadata !DIExpression()), !dbg !908
  tail call void @llvm.dbg.value(metadata ptr %self, metadata !909, metadata !DIExpression()), !dbg !920
  %self.0 = load ptr, ptr %self, align 8, !dbg !922, !nonnull !24, !noundef !24
  %0 = getelementptr inbounds i8, ptr %self, i64 8, !dbg !922
  %self.1 = load ptr, ptr %0, align 8, !dbg !922, !nonnull !24, !align !340, !noundef !24
  %1 = getelementptr inbounds i8, ptr %self.1, i64 16, !dbg !921
  %2 = load i64, ptr %1, align 8, !dbg !921, !range !402, !invariant.load !24
  %self.1.val = load ptr, ptr %self.1, align 8, !dbg !923
  call void @llvm.dbg.value(metadata !DIArgList(ptr %self.0, i64 %2), metadata !924, metadata !DIExpression(DW_OP_LLVM_arg, 0, DW_OP_LLVM_arg, 1, DW_OP_constu, 1, DW_OP_minus, DW_OP_constu, 18446744073709551600, DW_OP_and, DW_OP_constu, 1, DW_OP_mul, DW_OP_plus, DW_OP_plus_uconst, 16, DW_OP_stack_value, DW_OP_LLVM_fragment, 0, 64)), !dbg !933
  call void @llvm.dbg.value(metadata ptr undef, metadata !924, metadata !DIExpression(DW_OP_LLVM_fragment, 64, 64)), !dbg !933
  %.not.i = icmp eq ptr %self.1.val, null, !dbg !935
  br i1 %.not.i, label %"_ZN4core3ptr111drop_in_place$LT$dyn$u20$tracing_core..subscriber..Subscriber$u2b$core..marker..Send$u2b$core..marker..Sync$GT$17hf513ef9193d9915fE.exit", label %is_not_null.i, !dbg !935

is_not_null.i:                                    ; preds = %start
  %3 = add i64 %2, -1, !dbg !921
  call void @llvm.dbg.value(metadata !DIArgList(ptr %self.0, i64 %3), metadata !924, metadata !DIExpression(DW_OP_LLVM_arg, 0, DW_OP_LLVM_arg, 1, DW_OP_constu, 18446744073709551600, DW_OP_and, DW_OP_constu, 1, DW_OP_mul, DW_OP_plus, DW_OP_plus_uconst, 16, DW_OP_stack_value, DW_OP_LLVM_fragment, 0, 64)), !dbg !933
  %4 = and i64 %3, -16, !dbg !921
  call void @llvm.dbg.value(metadata !DIArgList(ptr %self.0, i64 %4), metadata !924, metadata !DIExpression(DW_OP_LLVM_arg, 0, DW_OP_LLVM_arg, 1, DW_OP_constu, 1, DW_OP_mul, DW_OP_plus, DW_OP_plus_uconst, 16, DW_OP_stack_value, DW_OP_LLVM_fragment, 0, 64)), !dbg !933
  %5 = getelementptr i8, ptr %self.0, i64 %4, !dbg !921
  call void @llvm.dbg.value(metadata ptr %5, metadata !924, metadata !DIExpression(DW_OP_plus_uconst, 16, DW_OP_stack_value, DW_OP_LLVM_fragment, 0, 64)), !dbg !933
  %_3.0 = getelementptr i8, ptr %5, i64 16, !dbg !921
  call void @llvm.dbg.value(metadata ptr %_3.0, metadata !924, metadata !DIExpression(DW_OP_LLVM_fragment, 0, 64)), !dbg !933
  tail call void %self.1.val(ptr noundef nonnull align 1 %_3.0), !dbg !935
  br label %"_ZN4core3ptr111drop_in_place$LT$dyn$u20$tracing_core..subscriber..Subscriber$u2b$core..marker..Send$u2b$core..marker..Sync$GT$17hf513ef9193d9915fE.exit", !dbg !935

"_ZN4core3ptr111drop_in_place$LT$dyn$u20$tracing_core..subscriber..Subscriber$u2b$core..marker..Send$u2b$core..marker..Sync$GT$17hf513ef9193d9915fE.exit": ; preds = %start, %is_not_null.i
  tail call void @llvm.dbg.value(metadata ptr %self.0, metadata !936, metadata !DIExpression(DW_OP_LLVM_fragment, 0, 64)), !dbg !953
  tail call void @llvm.dbg.value(metadata ptr %self.1, metadata !936, metadata !DIExpression(DW_OP_LLVM_fragment, 64, 64)), !dbg !953
  tail call void @llvm.dbg.value(metadata ptr %self, metadata !936, metadata !DIExpression(DW_OP_plus_uconst, 16, DW_OP_stack_value, DW_OP_LLVM_fragment, 128, 64)), !dbg !953
  call void @llvm.dbg.value(metadata ptr undef, metadata !955, metadata !DIExpression()), !dbg !961
  call void @llvm.dbg.value(metadata i64 1, metadata !963, metadata !DIExpression()), !dbg !969
  call void @llvm.dbg.value(metadata i8 1, metadata !968, metadata !DIExpression()), !dbg !969
  call void @llvm.dbg.value(metadata i64 1, metadata !987, metadata !DIExpression()), !dbg !993
  call void @llvm.dbg.value(metadata i8 1, metadata !992, metadata !DIExpression()), !dbg !993
  call void @llvm.dbg.value(metadata i8 2, metadata !995, metadata !DIExpression()), !dbg !999
  call void @llvm.dbg.value(metadata ptr undef, metadata !978, metadata !DIExpression()), !dbg !1001
  call void @llvm.dbg.value(metadata ptr undef, metadata !1002, metadata !DIExpression()), !dbg !1029
  call void @llvm.dbg.value(metadata ptr %self.0, metadata !1031, metadata !DIExpression(DW_OP_LLVM_fragment, 0, 64)), !dbg !1039
  call void @llvm.dbg.value(metadata ptr poison, metadata !1031, metadata !DIExpression(DW_OP_LLVM_fragment, 64, 64)), !dbg !1039
  call void @llvm.dbg.value(metadata ptr %self.0, metadata !1023, metadata !DIExpression(DW_OP_LLVM_fragment, 0, 64)), !dbg !1041
  call void @llvm.dbg.value(metadata ptr poison, metadata !1023, metadata !DIExpression(DW_OP_LLVM_fragment, 64, 64)), !dbg !1041
  %_15.i.i = icmp eq ptr %self.0, inttoptr (i64 -1 to ptr), !dbg !1042
  br i1 %_15.i.i, label %"_ZN4core3ptr163drop_in_place$LT$alloc..sync..Weak$LT$dyn$u20$tracing_core..subscriber..Subscriber$u2b$core..marker..Send$u2b$core..marker..Sync$C$$RF$alloc..alloc..Global$GT$$GT$17h6909247a8990d2d3E.exit", label %bb7.i.i, !dbg !1043

bb7.i.i:                                          ; preds = %"_ZN4core3ptr111drop_in_place$LT$dyn$u20$tracing_core..subscriber..Subscriber$u2b$core..marker..Send$u2b$core..marker..Sync$GT$17hf513ef9193d9915fE.exit"
  %_18.i.i = getelementptr inbounds i8, ptr %self.0, i64 8, !dbg !1044
  call void @llvm.dbg.value(metadata ptr %_18.i.i, metadata !979, metadata !DIExpression(DW_OP_LLVM_fragment, 0, 64)), !dbg !1045
  call void @llvm.dbg.value(metadata ptr %_18.i.i, metadata !984, metadata !DIExpression(DW_OP_LLVM_fragment, 0, 64)), !dbg !1046
  call void @llvm.dbg.value(metadata ptr %_18.i.i, metadata !967, metadata !DIExpression()), !dbg !969
  call void @llvm.dbg.value(metadata ptr %self.0, metadata !979, metadata !DIExpression(DW_OP_LLVM_fragment, 64, 64)), !dbg !1045
  call void @llvm.dbg.value(metadata ptr %self.0, metadata !984, metadata !DIExpression(DW_OP_LLVM_fragment, 64, 64)), !dbg !1046
  call void @llvm.dbg.value(metadata ptr %_18.i.i, metadata !991, metadata !DIExpression()), !dbg !993
  %6 = atomicrmw sub ptr %_18.i.i, i64 1 release, align 8, !dbg !1047, !noalias !1048
  %7 = icmp eq i64 %6, 1, !dbg !1053
  br i1 %7, label %bb1.i.i, label %"_ZN4core3ptr163drop_in_place$LT$alloc..sync..Weak$LT$dyn$u20$tracing_core..subscriber..Subscriber$u2b$core..marker..Send$u2b$core..marker..Sync$C$$RF$alloc..alloc..Global$GT$$GT$17h6909247a8990d2d3E.exit", !dbg !1053

bb1.i.i:                                          ; preds = %bb7.i.i
  fence acquire, !dbg !1054
  call void @llvm.dbg.value(metadata ptr poison, metadata !1055, metadata !DIExpression(DW_OP_LLVM_fragment, 0, 64)), !dbg !1075
  call void @llvm.dbg.value(metadata ptr poison, metadata !1077, metadata !DIExpression(DW_OP_LLVM_fragment, 0, 64)), !dbg !1083
  call void @llvm.dbg.value(metadata ptr %self.1, metadata !1055, metadata !DIExpression(DW_OP_LLVM_fragment, 64, 64)), !dbg !1075
  call void @llvm.dbg.value(metadata ptr %self.1, metadata !1077, metadata !DIExpression(DW_OP_LLVM_fragment, 64, 64)), !dbg !1083
  %8 = getelementptr inbounds i8, ptr %self.1, i64 8, !dbg !1085
  %9 = load i64, ptr %8, align 8, !dbg !1085, !range !1086, !invariant.load !24, !noalias !1048
  %10 = tail call i64 @llvm.umax.i64(i64 %2, i64 8), !dbg !1085
  %11 = add nuw i64 %10, 15, !dbg !1085
  %12 = add i64 %11, %9, !dbg !1085
  %13 = sub i64 0, %10, !dbg !1085
  %14 = and i64 %12, %13, !dbg !1085
  call void @llvm.dbg.value(metadata i64 %14, metadata !1072, metadata !DIExpression()), !dbg !1087
  call void @llvm.dbg.value(metadata i64 %14, metadata !1088, metadata !DIExpression()), !dbg !1096
  call void @llvm.dbg.value(metadata i64 %10, metadata !1074, metadata !DIExpression()), !dbg !1087
  call void @llvm.dbg.value(metadata i64 %10, metadata !1095, metadata !DIExpression()), !dbg !1096
  call void @llvm.dbg.value(metadata i64 %10, metadata !1098, metadata !DIExpression()), !dbg !1106
  %15 = icmp ult i64 %2, -9223372036854775807, !dbg !1108
  tail call void @llvm.assume(i1 %15), !dbg !1108
  call void @llvm.dbg.value(metadata ptr undef, metadata !1109, metadata !DIExpression()), !dbg !1124
  call void @llvm.dbg.value(metadata ptr %self.0, metadata !1121, metadata !DIExpression()), !dbg !1124
  call void @llvm.dbg.value(metadata i64 %10, metadata !1122, metadata !DIExpression(DW_OP_LLVM_fragment, 0, 64)), !dbg !1124
  call void @llvm.dbg.value(metadata i64 %14, metadata !1122, metadata !DIExpression(DW_OP_LLVM_fragment, 64, 64)), !dbg !1124
  call void @llvm.dbg.value(metadata i64 %10, metadata !1126, metadata !DIExpression(DW_OP_LLVM_fragment, 0, 64)), !dbg !1135
  call void @llvm.dbg.value(metadata i64 %14, metadata !1126, metadata !DIExpression(DW_OP_LLVM_fragment, 64, 64)), !dbg !1135
  call void @llvm.dbg.value(metadata ptr undef, metadata !1133, metadata !DIExpression()), !dbg !1135
  call void @llvm.dbg.value(metadata ptr %self.0, metadata !1134, metadata !DIExpression()), !dbg !1135
  %16 = icmp eq i64 %14, 0, !dbg !1137
  br i1 %16, label %"_ZN4core3ptr163drop_in_place$LT$alloc..sync..Weak$LT$dyn$u20$tracing_core..subscriber..Subscriber$u2b$core..marker..Send$u2b$core..marker..Sync$C$$RF$alloc..alloc..Global$GT$$GT$17h6909247a8990d2d3E.exit", label %bb1.i.i.i.i, !dbg !1137

bb1.i.i.i.i:                                      ; preds = %bb1.i.i
  call void @llvm.dbg.value(metadata ptr %self.0, metadata !1138, metadata !DIExpression()), !dbg !1146
  call void @llvm.dbg.value(metadata i64 %10, metadata !1145, metadata !DIExpression(DW_OP_LLVM_fragment, 0, 64)), !dbg !1146
  call void @llvm.dbg.value(metadata i64 %14, metadata !1145, metadata !DIExpression(DW_OP_LLVM_fragment, 64, 64)), !dbg !1146
  tail call void @__rust_dealloc(ptr noundef nonnull %self.0, i64 noundef %14, i64 noundef %10) #17, !dbg !1148, !noalias !1048
  br label %"_ZN4core3ptr163drop_in_place$LT$alloc..sync..Weak$LT$dyn$u20$tracing_core..subscriber..Subscriber$u2b$core..marker..Send$u2b$core..marker..Sync$C$$RF$alloc..alloc..Global$GT$$GT$17h6909247a8990d2d3E.exit", !dbg !1149

"_ZN4core3ptr163drop_in_place$LT$alloc..sync..Weak$LT$dyn$u20$tracing_core..subscriber..Subscriber$u2b$core..marker..Send$u2b$core..marker..Sync$C$$RF$alloc..alloc..Global$GT$$GT$17h6909247a8990d2d3E.exit": ; preds = %"_ZN4core3ptr111drop_in_place$LT$dyn$u20$tracing_core..subscriber..Subscriber$u2b$core..marker..Send$u2b$core..marker..Sync$GT$17hf513ef9193d9915fE.exit", %bb7.i.i, %bb1.i.i, %bb1.i.i.i.i
  ret void, !dbg !1150
}

; tracing::span::Span::new
; Function Attrs: nonlazybind uwtable
define void @_ZN7tracing4span4Span3new17h3893bd47113681e7E(ptr dead_on_unwind noalias nocapture noundef writable writeonly sret([40 x i8]) align 8 dereferenceable(40) %_0, ptr noalias noundef readonly align 8 dereferenceable(120) %0, ptr noalias noundef readonly align 8 dereferenceable(24) %1) unnamed_addr #1 personality ptr @rust_eh_personality !dbg !1151 {
start:
  %new_span.i.i = alloca [32 x i8], align 8
  tail call void @llvm.dbg.value(metadata ptr %0, metadata !1199, metadata !DIExpression()), !dbg !1201
  tail call void @llvm.dbg.value(metadata ptr %1, metadata !1200, metadata !DIExpression()), !dbg !1201
  tail call void @llvm.experimental.noalias.scope.decl(metadata !1202), !dbg !1205
  call void @llvm.dbg.value(metadata ptr @_ZN12tracing_core10dispatcher11GLOBAL_INIT17h32115fdb9b27e6eeE, metadata !1206, metadata !DIExpression()), !dbg !1214
  call void @llvm.dbg.value(metadata i8 4, metadata !1213, metadata !DIExpression()), !dbg !1214
  call void @llvm.dbg.value(metadata ptr undef, metadata !1234, metadata !DIExpression(DW_OP_LLVM_fragment, 0, 64)), !dbg !1238
  call void @llvm.dbg.value(metadata ptr undef, metadata !1234, metadata !DIExpression(DW_OP_LLVM_fragment, 64, 64)), !dbg !1238
  call void @llvm.dbg.value(metadata i8 4, metadata !1239, metadata !DIExpression()), !dbg !1246
  call void @llvm.dbg.value(metadata ptr @_ZN12tracing_core10dispatcher11GLOBAL_INIT17h32115fdb9b27e6eeE, metadata !1245, metadata !DIExpression()), !dbg !1246
  %2 = load atomic i64, ptr @_ZN12tracing_core10dispatcher11GLOBAL_INIT17h32115fdb9b27e6eeE seq_cst, align 8, !dbg !1248, !noalias !1249
  %_6.not.i = icmp eq i64 %2, 2, !dbg !1252
  tail call void @llvm.experimental.noalias.scope.decl(metadata !1253), !dbg !1256
  call void @llvm.dbg.value(metadata ptr undef, metadata !1257, metadata !DIExpression(DW_OP_deref, DW_OP_deref)), !dbg !1265
  call void @llvm.dbg.value(metadata ptr undef, metadata !1264, metadata !DIExpression(DW_OP_deref, DW_OP_plus_uconst, 8, DW_OP_deref)), !dbg !1265
  call void @llvm.dbg.value(metadata ptr poison, metadata !1263, metadata !DIExpression()), !dbg !1265
  call void @llvm.dbg.value(metadata ptr poison, metadata !1267, metadata !DIExpression()), !dbg !1297
  call void @llvm.dbg.declare(metadata ptr %new_span.i.i, metadata !1276, metadata !DIExpression()), !dbg !1299
  call void @llvm.dbg.value(metadata ptr %0, metadata !1274, metadata !DIExpression()), !dbg !1297
  call void @llvm.dbg.value(metadata ptr %0, metadata !1300, metadata !DIExpression()), !dbg !1308
  call void @llvm.dbg.value(metadata ptr %1, metadata !1275, metadata !DIExpression()), !dbg !1297
  call void @llvm.dbg.value(metadata ptr %1, metadata !1307, metadata !DIExpression()), !dbg !1308
  call void @llvm.lifetime.start.p0(i64 32, ptr nonnull %new_span.i.i), !dbg !1310, !noalias !1311
  %3 = getelementptr inbounds i8, ptr %new_span.i.i, i64 16, !dbg !1313
  store ptr %0, ptr %3, align 8, !dbg !1313, !noalias !1311
  %4 = getelementptr inbounds i8, ptr %new_span.i.i, i64 24, !dbg !1313
  store ptr %1, ptr %4, align 8, !dbg !1313, !noalias !1311
  store i64 1, ptr %new_span.i.i, align 8, !dbg !1313, !noalias !1311
  tail call void @llvm.experimental.noalias.scope.decl(metadata !1314), !dbg !1317
  call void @llvm.dbg.value(metadata ptr %0, metadata !1318, metadata !DIExpression()), !dbg !1335
  call void @llvm.dbg.declare(metadata ptr %new_span.i.i, metadata !1324, metadata !DIExpression()), !dbg !1337
  call void @llvm.dbg.value(metadata ptr poison, metadata !1325, metadata !DIExpression()), !dbg !1335
  call void @llvm.dbg.value(metadata ptr %new_span.i.i, metadata !1326, metadata !DIExpression()), !dbg !1338
  call void @llvm.dbg.value(metadata ptr poison, metadata !1339, metadata !DIExpression()), !dbg !1346
  call void @llvm.dbg.value(metadata ptr poison, metadata !1348, metadata !DIExpression()), !dbg !1359
  call void @llvm.dbg.value(metadata ptr %new_span.i.i, metadata !1345, metadata !DIExpression()), !dbg !1346
  %_ZN12tracing_core10dispatcher15GLOBAL_DISPATCH17h87fe84e1b4a2c89aE.val.i = load i64, ptr @_ZN12tracing_core10dispatcher15GLOBAL_DISPATCH17h87fe84e1b4a2c89aE, align 8, !dbg !1361, !noalias !1249
  %_ZN12tracing_core10dispatcher4NONE17h6e5b38c8436baf83E.val.i = load i64, ptr @_ZN12tracing_core10dispatcher4NONE17h6e5b38c8436baf83E, align 8, !dbg !1361, !noalias !1249
  %_5.i.i.i.i = select i1 %_6.not.i, i64 %_ZN12tracing_core10dispatcher15GLOBAL_DISPATCH17h87fe84e1b4a2c89aE.val.i, i64 %_ZN12tracing_core10dispatcher4NONE17h6e5b38c8436baf83E.val.i, !dbg !1361
  %trunc.not.i.i.i.i = icmp eq i64 %_5.i.i.i.i, 0, !dbg !1362
  %.val.i = load ptr, ptr getelementptr inbounds (%"tracing_core::dispatcher::Dispatch", ptr @_ZN12tracing_core10dispatcher15GLOBAL_DISPATCH17h87fe84e1b4a2c89aE, i64 0, i32 0, i32 1, i64 0), align 8, !dbg !1359, !noalias !1249
  %.val3.i = load ptr, ptr getelementptr inbounds (%"tracing_core::dispatcher::Dispatch", ptr @_ZN12tracing_core10dispatcher4NONE17h6e5b38c8436baf83E, i64 0, i32 0, i32 1, i64 0), align 8, !dbg !1359, !noalias !1249
  %s.0.i.i.i.i = select i1 %_6.not.i, ptr %.val.i, ptr %.val3.i, !dbg !1359
  %.val4.i = load ptr, ptr getelementptr inbounds (%"tracing_core::dispatcher::Dispatch", ptr @_ZN12tracing_core10dispatcher15GLOBAL_DISPATCH17h87fe84e1b4a2c89aE, i64 0, i32 0, i32 1, i64 1), align 8, !dbg !1359, !noalias !1249
  %.val5.i = load ptr, ptr getelementptr inbounds (%"tracing_core::dispatcher::Dispatch", ptr @_ZN12tracing_core10dispatcher4NONE17h6e5b38c8436baf83E, i64 0, i32 0, i32 1, i64 1), align 8, !dbg !1359, !noalias !1249
  %s.1.i.i.i.i = select i1 %_6.not.i, ptr %.val4.i, ptr %.val5.i, !dbg !1359
  br i1 %trunc.not.i.i.i.i, label %_ZN12tracing_core10dispatcher8Dispatch8new_span17h6412fd512d668dc2E.exit.thread.i.i.i, label %bb3.i3.i.i.i, !dbg !1362

_ZN12tracing_core10dispatcher8Dispatch8new_span17h6412fd512d668dc2E.exit.thread.i.i.i: ; preds = %start
  %5 = getelementptr inbounds i8, ptr %s.1.i.i.i.i, i64 56, !dbg !1363
  %6 = load ptr, ptr %5, align 8, !dbg !1363, !invariant.load !24, !noalias !1364, !nonnull !24
  %_0.i6.i.i.i = call noundef i64 %6(ptr noundef nonnull align 1 %s.0.i.i.i.i, ptr noalias noundef nonnull readonly align 8 dereferenceable(32) %new_span.i.i), !dbg !1363, !range !402, !noalias !1371
  call void @llvm.dbg.value(metadata i64 %_0.i6.i.i.i, metadata !1329, metadata !DIExpression()), !dbg !1372
  call void @llvm.dbg.value(metadata i64 %_0.i6.i.i.i, metadata !1373, metadata !DIExpression()), !dbg !1380
  call void @llvm.dbg.value(metadata ptr poison, metadata !1379, metadata !DIExpression()), !dbg !1380
  call void @llvm.dbg.value(metadata ptr poison, metadata !1382, metadata !DIExpression()), !dbg !1389
  call void @llvm.dbg.value(metadata ptr poison, metadata !1391, metadata !DIExpression()), !dbg !1404
  br label %_ZN12tracing_core10dispatcher11get_default17hee6e10f1f3009180E.exit, !dbg !1406

bb3.i3.i.i.i:                                     ; preds = %start
  call void @llvm.dbg.value(metadata ptr poison, metadata !1357, metadata !DIExpression(DW_OP_plus_uconst, 8, DW_OP_stack_value)), !dbg !1407
  %7 = getelementptr inbounds i8, ptr %s.1.i.i.i.i, i64 16, !dbg !1408
  %8 = load i64, ptr %7, align 8, !dbg !1408, !range !402, !invariant.load !24, !noalias !1364
  %9 = add i64 %8, -1, !dbg !1408
  %10 = and i64 %9, -16, !dbg !1408
  %11 = getelementptr i8, ptr %s.0.i.i.i.i, i64 %10, !dbg !1408
  %_8.0.i.i.i.i = getelementptr i8, ptr %11, i64 16, !dbg !1408
  %12 = getelementptr inbounds i8, ptr %s.1.i.i.i.i, i64 56, !dbg !1363
  %13 = load ptr, ptr %12, align 8, !dbg !1363, !invariant.load !24, !noalias !1364, !nonnull !24
  %_0.i.i.i.i = call noundef i64 %13(ptr noundef align 1 %_8.0.i.i.i.i, ptr noalias noundef nonnull readonly align 8 dereferenceable(32) %new_span.i.i), !dbg !1363, !range !402, !noalias !1371
  call void @llvm.dbg.value(metadata i64 %_0.i.i.i.i, metadata !1329, metadata !DIExpression()), !dbg !1372
  call void @llvm.dbg.value(metadata i64 %_0.i.i.i.i, metadata !1373, metadata !DIExpression()), !dbg !1380
  call void @llvm.dbg.value(metadata ptr poison, metadata !1379, metadata !DIExpression()), !dbg !1380
  call void @llvm.dbg.value(metadata ptr poison, metadata !1382, metadata !DIExpression()), !dbg !1389
  call void @llvm.dbg.value(metadata ptr poison, metadata !1391, metadata !DIExpression()), !dbg !1404
  call void @llvm.dbg.value(metadata ptr poison, metadata !1402, metadata !DIExpression(DW_OP_plus_uconst, 8, DW_OP_stack_value)), !dbg !1409
  call void @llvm.dbg.value(metadata i64 1, metadata !1410, metadata !DIExpression()), !dbg !1417
  call void @llvm.dbg.value(metadata i8 0, metadata !1416, metadata !DIExpression()), !dbg !1417
  call void @llvm.dbg.value(metadata i64 1, metadata !1428, metadata !DIExpression()), !dbg !1434
  call void @llvm.dbg.value(metadata i8 0, metadata !1433, metadata !DIExpression()), !dbg !1434
  call void @llvm.dbg.value(metadata ptr undef, metadata !1424, metadata !DIExpression()), !dbg !1436
  call void @llvm.dbg.value(metadata ptr %s.0.i.i.i.i, metadata !1415, metadata !DIExpression()), !dbg !1417
  call void @llvm.dbg.value(metadata ptr %s.0.i.i.i.i, metadata !1432, metadata !DIExpression()), !dbg !1434
  %14 = atomicrmw add ptr %s.0.i.i.i.i, i64 1 monotonic, align 8, !dbg !1437, !noalias !1438
  call void @llvm.dbg.value(metadata i64 %14, metadata !1425, metadata !DIExpression()), !dbg !1442
  %_4.i.i.i.i.i = icmp slt i64 %14, 0, !dbg !1443
  br i1 %_4.i.i.i.i.i, label %bb1.i.i.i.i.i, label %_ZN12tracing_core10dispatcher11get_default17hee6e10f1f3009180E.exit, !dbg !1443

bb1.i.i.i.i.i:                                    ; preds = %bb3.i3.i.i.i
  call void @llvm.trap(), !dbg !1444
  unreachable, !dbg !1444

_ZN12tracing_core10dispatcher11get_default17hee6e10f1f3009180E.exit: ; preds = %_ZN12tracing_core10dispatcher8Dispatch8new_span17h6412fd512d668dc2E.exit.thread.i.i.i, %bb3.i3.i.i.i
  %_0.i7.i.i.i = phi i64 [ %_0.i6.i.i.i, %_ZN12tracing_core10dispatcher8Dispatch8new_span17h6412fd512d668dc2E.exit.thread.i.i.i ], [ %_0.i.i.i.i, %bb3.i3.i.i.i ]
  %_4.sroa.0.0.i4.i.i.i = phi i64 [ 0, %_ZN12tracing_core10dispatcher8Dispatch8new_span17h6412fd512d668dc2E.exit.thread.i.i.i ], [ 1, %bb3.i3.i.i.i ], !dbg !1406
  call void @llvm.dbg.value(metadata i64 %_4.sroa.0.0.i4.i.i.i, metadata !1331, metadata !DIExpression(DW_OP_LLVM_fragment, 0, 64)), !dbg !1445
  call void @llvm.dbg.value(metadata ptr %s.0.i.i.i.i, metadata !1331, metadata !DIExpression(DW_OP_LLVM_fragment, 64, 64)), !dbg !1445
  call void @llvm.dbg.value(metadata ptr %s.1.i.i.i.i, metadata !1331, metadata !DIExpression(DW_OP_LLVM_fragment, 128, 64)), !dbg !1445
  call void @llvm.dbg.value(metadata i64 %_0.i7.i.i.i, metadata !1331, metadata !DIExpression(DW_OP_LLVM_fragment, 192, 64)), !dbg !1445
  store i64 %_4.sroa.0.0.i4.i.i.i, ptr %_0, align 8, !dbg !1446, !alias.scope !1447, !noalias !1448
  %inner.sroa.2.0.span.sroa_idx.i.i.i = getelementptr inbounds i8, ptr %_0, i64 8, !dbg !1446
  store ptr %s.0.i.i.i.i, ptr %inner.sroa.2.0.span.sroa_idx.i.i.i, align 8, !dbg !1446, !alias.scope !1447, !noalias !1448
  %inner.sroa.3.0.span.sroa_idx.i.i.i = getelementptr inbounds i8, ptr %_0, i64 16, !dbg !1446
  store ptr %s.1.i.i.i.i, ptr %inner.sroa.3.0.span.sroa_idx.i.i.i, align 8, !dbg !1446, !alias.scope !1447, !noalias !1448
  %inner.sroa.4.0.span.sroa_idx.i.i.i = getelementptr inbounds i8, ptr %_0, i64 24, !dbg !1446
  store i64 %_0.i7.i.i.i, ptr %inner.sroa.4.0.span.sroa_idx.i.i.i, align 8, !dbg !1446, !alias.scope !1447, !noalias !1448
  %15 = getelementptr inbounds i8, ptr %_0, i64 32, !dbg !1446
  store ptr %0, ptr %15, align 8, !dbg !1446, !alias.scope !1447, !noalias !1448
  call void @llvm.lifetime.end.p0(i64 32, ptr nonnull %new_span.i.i), !dbg !1310, !noalias !1311
  ret void, !dbg !1449
}

; tracing::span::Span::new_root
; Function Attrs: nonlazybind uwtable
define void @_ZN7tracing4span4Span8new_root17h056c8db71ce710c6E(ptr dead_on_unwind noalias nocapture noundef writable writeonly sret([40 x i8]) align 8 dereferenceable(40) %_0, ptr noalias noundef readonly align 8 dereferenceable(120) %0, ptr noalias noundef readonly align 8 dereferenceable(24) %1) unnamed_addr #1 personality ptr @rust_eh_personality !dbg !1450 {
start:
  %new_span.i.i = alloca [32 x i8], align 8
  tail call void @llvm.dbg.value(metadata ptr %0, metadata !1453, metadata !DIExpression()), !dbg !1455
  tail call void @llvm.dbg.value(metadata ptr %1, metadata !1454, metadata !DIExpression()), !dbg !1455
  tail call void @llvm.experimental.noalias.scope.decl(metadata !1456), !dbg !1459
  call void @llvm.dbg.value(metadata ptr @_ZN12tracing_core10dispatcher11GLOBAL_INIT17h32115fdb9b27e6eeE, metadata !1460, metadata !DIExpression()), !dbg !1465
  call void @llvm.dbg.value(metadata i8 4, metadata !1464, metadata !DIExpression()), !dbg !1465
  call void @llvm.dbg.value(metadata ptr undef, metadata !1479, metadata !DIExpression(DW_OP_LLVM_fragment, 0, 64)), !dbg !1483
  call void @llvm.dbg.value(metadata ptr undef, metadata !1479, metadata !DIExpression(DW_OP_LLVM_fragment, 64, 64)), !dbg !1483
  call void @llvm.dbg.value(metadata i8 4, metadata !1239, metadata !DIExpression()), !dbg !1484
  call void @llvm.dbg.value(metadata ptr @_ZN12tracing_core10dispatcher11GLOBAL_INIT17h32115fdb9b27e6eeE, metadata !1245, metadata !DIExpression()), !dbg !1484
  %2 = load atomic i64, ptr @_ZN12tracing_core10dispatcher11GLOBAL_INIT17h32115fdb9b27e6eeE seq_cst, align 8, !dbg !1486, !noalias !1487
  %_6.not.i = icmp eq i64 %2, 2, !dbg !1490
  tail call void @llvm.experimental.noalias.scope.decl(metadata !1491), !dbg !1494
  call void @llvm.dbg.value(metadata ptr undef, metadata !1495, metadata !DIExpression(DW_OP_deref, DW_OP_deref)), !dbg !1503
  call void @llvm.dbg.value(metadata ptr undef, metadata !1502, metadata !DIExpression(DW_OP_deref, DW_OP_plus_uconst, 8, DW_OP_deref)), !dbg !1503
  call void @llvm.dbg.value(metadata ptr poison, metadata !1501, metadata !DIExpression()), !dbg !1503
  call void @llvm.dbg.value(metadata ptr poison, metadata !1505, metadata !DIExpression()), !dbg !1514
  call void @llvm.dbg.declare(metadata ptr %new_span.i.i, metadata !1512, metadata !DIExpression()), !dbg !1516
  call void @llvm.dbg.value(metadata ptr %0, metadata !1510, metadata !DIExpression()), !dbg !1514
  call void @llvm.dbg.value(metadata ptr %0, metadata !1517, metadata !DIExpression()), !dbg !1523
  call void @llvm.dbg.value(metadata ptr %1, metadata !1511, metadata !DIExpression()), !dbg !1514
  call void @llvm.dbg.value(metadata ptr %1, metadata !1522, metadata !DIExpression()), !dbg !1523
  call void @llvm.lifetime.start.p0(i64 32, ptr nonnull %new_span.i.i), !dbg !1525, !noalias !1526
  %3 = getelementptr inbounds i8, ptr %new_span.i.i, i64 16, !dbg !1528
  store ptr %0, ptr %3, align 8, !dbg !1528, !noalias !1526
  %4 = getelementptr inbounds i8, ptr %new_span.i.i, i64 24, !dbg !1528
  store ptr %1, ptr %4, align 8, !dbg !1528, !noalias !1526
  store i64 0, ptr %new_span.i.i, align 8, !dbg !1528, !noalias !1526
  tail call void @llvm.experimental.noalias.scope.decl(metadata !1529), !dbg !1532
  call void @llvm.dbg.value(metadata ptr %0, metadata !1318, metadata !DIExpression()), !dbg !1533
  call void @llvm.dbg.declare(metadata ptr %new_span.i.i, metadata !1324, metadata !DIExpression()), !dbg !1535
  call void @llvm.dbg.value(metadata ptr poison, metadata !1325, metadata !DIExpression()), !dbg !1533
  call void @llvm.dbg.value(metadata ptr %new_span.i.i, metadata !1326, metadata !DIExpression()), !dbg !1536
  call void @llvm.dbg.value(metadata ptr poison, metadata !1339, metadata !DIExpression()), !dbg !1537
  call void @llvm.dbg.value(metadata ptr poison, metadata !1348, metadata !DIExpression()), !dbg !1539
  call void @llvm.dbg.value(metadata ptr %new_span.i.i, metadata !1345, metadata !DIExpression()), !dbg !1537
  %_ZN12tracing_core10dispatcher15GLOBAL_DISPATCH17h87fe84e1b4a2c89aE.val.i = load i64, ptr @_ZN12tracing_core10dispatcher15GLOBAL_DISPATCH17h87fe84e1b4a2c89aE, align 8, !dbg !1541, !noalias !1487
  %_ZN12tracing_core10dispatcher4NONE17h6e5b38c8436baf83E.val.i = load i64, ptr @_ZN12tracing_core10dispatcher4NONE17h6e5b38c8436baf83E, align 8, !dbg !1541, !noalias !1487
  %_5.i.i.i.i = select i1 %_6.not.i, i64 %_ZN12tracing_core10dispatcher15GLOBAL_DISPATCH17h87fe84e1b4a2c89aE.val.i, i64 %_ZN12tracing_core10dispatcher4NONE17h6e5b38c8436baf83E.val.i, !dbg !1541
  %trunc.not.i.i.i.i = icmp eq i64 %_5.i.i.i.i, 0, !dbg !1542
  %.val.i = load ptr, ptr getelementptr inbounds (%"tracing_core::dispatcher::Dispatch", ptr @_ZN12tracing_core10dispatcher15GLOBAL_DISPATCH17h87fe84e1b4a2c89aE, i64 0, i32 0, i32 1, i64 0), align 8, !dbg !1539, !noalias !1487
  %.val3.i = load ptr, ptr getelementptr inbounds (%"tracing_core::dispatcher::Dispatch", ptr @_ZN12tracing_core10dispatcher4NONE17h6e5b38c8436baf83E, i64 0, i32 0, i32 1, i64 0), align 8, !dbg !1539, !noalias !1487
  %s.0.i.i.i.i = select i1 %_6.not.i, ptr %.val.i, ptr %.val3.i, !dbg !1539
  %.val4.i = load ptr, ptr getelementptr inbounds (%"tracing_core::dispatcher::Dispatch", ptr @_ZN12tracing_core10dispatcher15GLOBAL_DISPATCH17h87fe84e1b4a2c89aE, i64 0, i32 0, i32 1, i64 1), align 8, !dbg !1539, !noalias !1487
  %.val5.i = load ptr, ptr getelementptr inbounds (%"tracing_core::dispatcher::Dispatch", ptr @_ZN12tracing_core10dispatcher4NONE17h6e5b38c8436baf83E, i64 0, i32 0, i32 1, i64 1), align 8, !dbg !1539, !noalias !1487
  %s.1.i.i.i.i = select i1 %_6.not.i, ptr %.val4.i, ptr %.val5.i, !dbg !1539
  br i1 %trunc.not.i.i.i.i, label %_ZN12tracing_core10dispatcher8Dispatch8new_span17h6412fd512d668dc2E.exit.thread.i.i.i, label %bb3.i3.i.i.i, !dbg !1542

_ZN12tracing_core10dispatcher8Dispatch8new_span17h6412fd512d668dc2E.exit.thread.i.i.i: ; preds = %start
  %5 = getelementptr inbounds i8, ptr %s.1.i.i.i.i, i64 56, !dbg !1543
  %6 = load ptr, ptr %5, align 8, !dbg !1543, !invariant.load !24, !noalias !1544, !nonnull !24
  %_0.i6.i.i.i = call noundef i64 %6(ptr noundef nonnull align 1 %s.0.i.i.i.i, ptr noalias noundef nonnull readonly align 8 dereferenceable(32) %new_span.i.i), !dbg !1543, !range !402, !noalias !1551
  call void @llvm.dbg.value(metadata i64 %_0.i6.i.i.i, metadata !1329, metadata !DIExpression()), !dbg !1552
  call void @llvm.dbg.value(metadata i64 %_0.i6.i.i.i, metadata !1373, metadata !DIExpression()), !dbg !1553
  call void @llvm.dbg.value(metadata ptr poison, metadata !1379, metadata !DIExpression()), !dbg !1553
  call void @llvm.dbg.value(metadata ptr poison, metadata !1382, metadata !DIExpression()), !dbg !1555
  call void @llvm.dbg.value(metadata ptr poison, metadata !1391, metadata !DIExpression()), !dbg !1557
  br label %_ZN12tracing_core10dispatcher11get_default17h2a9179fa7592a5a0E.exit, !dbg !1559

bb3.i3.i.i.i:                                     ; preds = %start
  call void @llvm.dbg.value(metadata ptr poison, metadata !1357, metadata !DIExpression(DW_OP_plus_uconst, 8, DW_OP_stack_value)), !dbg !1560
  %7 = getelementptr inbounds i8, ptr %s.1.i.i.i.i, i64 16, !dbg !1561
  %8 = load i64, ptr %7, align 8, !dbg !1561, !range !402, !invariant.load !24, !noalias !1544
  %9 = add i64 %8, -1, !dbg !1561
  %10 = and i64 %9, -16, !dbg !1561
  %11 = getelementptr i8, ptr %s.0.i.i.i.i, i64 %10, !dbg !1561
  %_8.0.i.i.i.i = getelementptr i8, ptr %11, i64 16, !dbg !1561
  %12 = getelementptr inbounds i8, ptr %s.1.i.i.i.i, i64 56, !dbg !1543
  %13 = load ptr, ptr %12, align 8, !dbg !1543, !invariant.load !24, !noalias !1544, !nonnull !24
  %_0.i.i.i.i = call noundef i64 %13(ptr noundef align 1 %_8.0.i.i.i.i, ptr noalias noundef nonnull readonly align 8 dereferenceable(32) %new_span.i.i), !dbg !1543, !range !402, !noalias !1551
  call void @llvm.dbg.value(metadata i64 %_0.i.i.i.i, metadata !1329, metadata !DIExpression()), !dbg !1552
  call void @llvm.dbg.value(metadata i64 %_0.i.i.i.i, metadata !1373, metadata !DIExpression()), !dbg !1553
  call void @llvm.dbg.value(metadata ptr poison, metadata !1379, metadata !DIExpression()), !dbg !1553
  call void @llvm.dbg.value(metadata ptr poison, metadata !1382, metadata !DIExpression()), !dbg !1555
  call void @llvm.dbg.value(metadata ptr poison, metadata !1391, metadata !DIExpression()), !dbg !1557
  call void @llvm.dbg.value(metadata ptr poison, metadata !1402, metadata !DIExpression(DW_OP_plus_uconst, 8, DW_OP_stack_value)), !dbg !1562
  call void @llvm.dbg.value(metadata i64 1, metadata !1410, metadata !DIExpression()), !dbg !1563
  call void @llvm.dbg.value(metadata i8 0, metadata !1416, metadata !DIExpression()), !dbg !1563
  call void @llvm.dbg.value(metadata i64 1, metadata !1428, metadata !DIExpression()), !dbg !1566
  call void @llvm.dbg.value(metadata i8 0, metadata !1433, metadata !DIExpression()), !dbg !1566
  call void @llvm.dbg.value(metadata ptr undef, metadata !1424, metadata !DIExpression()), !dbg !1568
  call void @llvm.dbg.value(metadata ptr %s.0.i.i.i.i, metadata !1415, metadata !DIExpression()), !dbg !1563
  call void @llvm.dbg.value(metadata ptr %s.0.i.i.i.i, metadata !1432, metadata !DIExpression()), !dbg !1566
  %14 = atomicrmw add ptr %s.0.i.i.i.i, i64 1 monotonic, align 8, !dbg !1569, !noalias !1570
  call void @llvm.dbg.value(metadata i64 %14, metadata !1425, metadata !DIExpression()), !dbg !1574
  %_4.i.i.i.i.i = icmp slt i64 %14, 0, !dbg !1575
  br i1 %_4.i.i.i.i.i, label %bb1.i.i.i.i.i, label %_ZN12tracing_core10dispatcher11get_default17h2a9179fa7592a5a0E.exit, !dbg !1575

bb1.i.i.i.i.i:                                    ; preds = %bb3.i3.i.i.i
  call void @llvm.trap(), !dbg !1576
  unreachable, !dbg !1576

_ZN12tracing_core10dispatcher11get_default17h2a9179fa7592a5a0E.exit: ; preds = %_ZN12tracing_core10dispatcher8Dispatch8new_span17h6412fd512d668dc2E.exit.thread.i.i.i, %bb3.i3.i.i.i
  %_0.i7.i.i.i = phi i64 [ %_0.i6.i.i.i, %_ZN12tracing_core10dispatcher8Dispatch8new_span17h6412fd512d668dc2E.exit.thread.i.i.i ], [ %_0.i.i.i.i, %bb3.i3.i.i.i ]
  %_4.sroa.0.0.i4.i.i.i = phi i64 [ 0, %_ZN12tracing_core10dispatcher8Dispatch8new_span17h6412fd512d668dc2E.exit.thread.i.i.i ], [ 1, %bb3.i3.i.i.i ], !dbg !1559
  call void @llvm.dbg.value(metadata i64 %_4.sroa.0.0.i4.i.i.i, metadata !1331, metadata !DIExpression(DW_OP_LLVM_fragment, 0, 64)), !dbg !1577
  call void @llvm.dbg.value(metadata ptr %s.0.i.i.i.i, metadata !1331, metadata !DIExpression(DW_OP_LLVM_fragment, 64, 64)), !dbg !1577
  call void @llvm.dbg.value(metadata ptr %s.1.i.i.i.i, metadata !1331, metadata !DIExpression(DW_OP_LLVM_fragment, 128, 64)), !dbg !1577
  call void @llvm.dbg.value(metadata i64 %_0.i7.i.i.i, metadata !1331, metadata !DIExpression(DW_OP_LLVM_fragment, 192, 64)), !dbg !1577
  store i64 %_4.sroa.0.0.i4.i.i.i, ptr %_0, align 8, !dbg !1578, !alias.scope !1579, !noalias !1580
  %inner.sroa.2.0.span.sroa_idx.i.i.i = getelementptr inbounds i8, ptr %_0, i64 8, !dbg !1578
  store ptr %s.0.i.i.i.i, ptr %inner.sroa.2.0.span.sroa_idx.i.i.i, align 8, !dbg !1578, !alias.scope !1579, !noalias !1580
  %inner.sroa.3.0.span.sroa_idx.i.i.i = getelementptr inbounds i8, ptr %_0, i64 16, !dbg !1578
  store ptr %s.1.i.i.i.i, ptr %inner.sroa.3.0.span.sroa_idx.i.i.i, align 8, !dbg !1578, !alias.scope !1579, !noalias !1580
  %inner.sroa.4.0.span.sroa_idx.i.i.i = getelementptr inbounds i8, ptr %_0, i64 24, !dbg !1578
  store i64 %_0.i7.i.i.i, ptr %inner.sroa.4.0.span.sroa_idx.i.i.i, align 8, !dbg !1578, !alias.scope !1579, !noalias !1580
  %15 = getelementptr inbounds i8, ptr %_0, i64 32, !dbg !1578
  store ptr %0, ptr %15, align 8, !dbg !1578, !alias.scope !1579, !noalias !1580
  call void @llvm.lifetime.end.p0(i64 32, ptr nonnull %new_span.i.i), !dbg !1525, !noalias !1526
  ret void, !dbg !1581
}

; tracing::span::Span::current
; Function Attrs: nonlazybind uwtable
define void @_ZN7tracing4span4Span7current17hc1e299c64dc3d8d1E(ptr dead_on_unwind noalias nocapture noundef writable writeonly sret([40 x i8]) align 8 dereferenceable(40) %_0) unnamed_addr #1 personality ptr @rust_eh_personality !dbg !1582 {
start:
  %id.i.i = alloca [8 x i8], align 8
  %self.i.i = alloca [24 x i8], align 8
  tail call void @llvm.experimental.noalias.scope.decl(metadata !1586), !dbg !1589
  call void @llvm.dbg.value(metadata ptr @_ZN12tracing_core10dispatcher11GLOBAL_INIT17h32115fdb9b27e6eeE, metadata !1590, metadata !DIExpression()), !dbg !1595
  call void @llvm.dbg.value(metadata i8 4, metadata !1594, metadata !DIExpression()), !dbg !1595
  call void @llvm.dbg.declare(metadata ptr poison, metadata !1606, metadata !DIExpression()), !dbg !1610
  call void @llvm.dbg.value(metadata i8 4, metadata !1239, metadata !DIExpression()), !dbg !1611
  call void @llvm.dbg.value(metadata ptr @_ZN12tracing_core10dispatcher11GLOBAL_INIT17h32115fdb9b27e6eeE, metadata !1245, metadata !DIExpression()), !dbg !1611
  %0 = load atomic i64, ptr @_ZN12tracing_core10dispatcher11GLOBAL_INIT17h32115fdb9b27e6eeE seq_cst, align 8, !dbg !1613, !noalias !1586
  %_6.not.i = icmp eq i64 %0, 2, !dbg !1614
  tail call void @llvm.experimental.noalias.scope.decl(metadata !1615), !dbg !1618
  call void @llvm.dbg.value(metadata ptr undef, metadata !1619, metadata !DIExpression()), !dbg !1631
  call void @llvm.dbg.value(metadata ptr poison, metadata !1625, metadata !DIExpression()), !dbg !1631
  call void @llvm.dbg.declare(metadata ptr %self.i.i, metadata !1633, metadata !DIExpression()), !dbg !1677
  call void @llvm.dbg.declare(metadata ptr %id.i.i, metadata !1626, metadata !DIExpression()), !dbg !1679
  call void @llvm.lifetime.start.p0(i64 24, ptr nonnull %self.i.i), !dbg !1680, !noalias !1681
  call void @llvm.dbg.value(metadata ptr poison, metadata !1683, metadata !DIExpression()), !dbg !1689
  call void @llvm.dbg.value(metadata ptr poison, metadata !1691, metadata !DIExpression()), !dbg !1699
  %_ZN12tracing_core10dispatcher15GLOBAL_DISPATCH17h87fe84e1b4a2c89aE.val.i = load i64, ptr @_ZN12tracing_core10dispatcher15GLOBAL_DISPATCH17h87fe84e1b4a2c89aE, align 8, !dbg !1701, !noalias !1586
  %_ZN12tracing_core10dispatcher4NONE17h6e5b38c8436baf83E.val.i = load i64, ptr @_ZN12tracing_core10dispatcher4NONE17h6e5b38c8436baf83E, align 8, !dbg !1701, !noalias !1586
  %_4.i.i.i = select i1 %_6.not.i, i64 %_ZN12tracing_core10dispatcher15GLOBAL_DISPATCH17h87fe84e1b4a2c89aE.val.i, i64 %_ZN12tracing_core10dispatcher4NONE17h6e5b38c8436baf83E.val.i, !dbg !1701
  %trunc.not.i.i.i = icmp eq i64 %_4.i.i.i, 0, !dbg !1702
  %.val.i = load ptr, ptr getelementptr inbounds (%"tracing_core::dispatcher::Dispatch", ptr @_ZN12tracing_core10dispatcher15GLOBAL_DISPATCH17h87fe84e1b4a2c89aE, i64 0, i32 0, i32 1, i64 0), align 8, !dbg !1699, !noalias !1586
  %.val2.i = load ptr, ptr getelementptr inbounds (%"tracing_core::dispatcher::Dispatch", ptr @_ZN12tracing_core10dispatcher4NONE17h6e5b38c8436baf83E, i64 0, i32 0, i32 1, i64 0), align 8, !dbg !1699, !noalias !1586
  %s.0.i.i.i = select i1 %_6.not.i, ptr %.val.i, ptr %.val2.i, !dbg !1699
  %.val3.i = load ptr, ptr getelementptr inbounds (%"tracing_core::dispatcher::Dispatch", ptr @_ZN12tracing_core10dispatcher15GLOBAL_DISPATCH17h87fe84e1b4a2c89aE, i64 0, i32 0, i32 1, i64 1), align 8, !dbg !1699, !noalias !1586
  %.val4.i = load ptr, ptr getelementptr inbounds (%"tracing_core::dispatcher::Dispatch", ptr @_ZN12tracing_core10dispatcher4NONE17h6e5b38c8436baf83E, i64 0, i32 0, i32 1, i64 1), align 8, !dbg !1699, !noalias !1586
  %s.1.i.i.i = select i1 %_6.not.i, ptr %.val3.i, ptr %.val4.i, !dbg !1699
  br i1 %trunc.not.i.i.i, label %_ZN12tracing_core10dispatcher8Dispatch12current_span17h89c84fb6cf60fc7fE.exit.i.i, label %bb3.i.i.i, !dbg !1702

bb3.i.i.i:                                        ; preds = %start
  call void @llvm.dbg.value(metadata ptr poison, metadata !1697, metadata !DIExpression(DW_OP_plus_uconst, 8, DW_OP_stack_value)), !dbg !1703
  %1 = getelementptr inbounds i8, ptr %s.1.i.i.i, i64 16, !dbg !1704
  %2 = load i64, ptr %1, align 8, !dbg !1704, !range !402, !invariant.load !24, !noalias !1705
  %3 = add i64 %2, -1, !dbg !1704
  %4 = and i64 %3, -16, !dbg !1704
  %5 = getelementptr i8, ptr %s.0.i.i.i, i64 %4, !dbg !1704
  %_7.0.i.i.i = getelementptr i8, ptr %5, i64 16, !dbg !1704
  br label %_ZN12tracing_core10dispatcher8Dispatch12current_span17h89c84fb6cf60fc7fE.exit.i.i, !dbg !1709

_ZN12tracing_core10dispatcher8Dispatch12current_span17h89c84fb6cf60fc7fE.exit.i.i: ; preds = %bb3.i.i.i, %start
  %_3.sroa.0.0.i.i.i = phi ptr [ %_7.0.i.i.i, %bb3.i.i.i ], [ %s.0.i.i.i, %start ], !dbg !1699
  %6 = getelementptr inbounds i8, ptr %s.1.i.i.i, i64 136, !dbg !1710
  %7 = load ptr, ptr %6, align 8, !dbg !1710, !invariant.load !24, !noalias !1705, !nonnull !24
  call void %7(ptr noalias nocapture noundef nonnull sret([24 x i8]) align 8 dereferenceable(24) %self.i.i, ptr noundef align 1 %_3.sroa.0.0.i.i.i), !dbg !1710, !noalias !1711
  %_12.i.i = load i64, ptr %self.i.i, align 8, !dbg !1712, !range !676, !noalias !1681, !noundef !24
  %8 = icmp eq i64 %_12.i.i, 0, !dbg !1713
  br i1 %8, label %bb6.i.i, label %bb5.i.i, !dbg !1713

bb6.i.i:                                          ; preds = %_ZN12tracing_core10dispatcher8Dispatch12current_span17h89c84fb6cf60fc7fE.exit.i.i
  %9 = getelementptr inbounds i8, ptr %self.i.i, i64 8, !dbg !1714
  %id1.i.i = load i64, ptr %9, align 8, !dbg !1714, !range !402, !noalias !1681, !noundef !24
  %10 = getelementptr inbounds i8, ptr %self.i.i, i64 16, !dbg !1715
  %metadata.i.i = load ptr, ptr %10, align 8, !dbg !1715, !noalias !1681, !nonnull !24, !align !340, !noundef !24
  call void @llvm.lifetime.end.p0(i64 24, ptr nonnull %self.i.i), !dbg !1716, !noalias !1681
  call void @llvm.lifetime.start.p0(i64 8, ptr nonnull %id.i.i), !dbg !1679, !noalias !1681
  store i64 %id1.i.i, ptr %id.i.i, align 8, !dbg !1679, !noalias !1681
  call void @llvm.dbg.value(metadata ptr %metadata.i.i, metadata !1628, metadata !DIExpression()), !dbg !1717
  call void @llvm.dbg.value(metadata ptr poison, metadata !1718, metadata !DIExpression()), !dbg !1725
  call void @llvm.dbg.value(metadata ptr poison, metadata !1727, metadata !DIExpression()), !dbg !1735
  call void @llvm.dbg.value(metadata ptr %id.i.i, metadata !1724, metadata !DIExpression()), !dbg !1725
  br i1 %trunc.not.i.i.i, label %_ZN12tracing_core10dispatcher8Dispatch10clone_span17h346e639c91ef3422E.exit.thread.i.i, label %bb3.i10.i.i, !dbg !1737

_ZN12tracing_core10dispatcher8Dispatch10clone_span17h346e639c91ef3422E.exit.thread.i.i: ; preds = %bb6.i.i
  %11 = getelementptr inbounds i8, ptr %s.1.i.i.i, i64 112, !dbg !1738
  %12 = load ptr, ptr %11, align 8, !dbg !1738, !invariant.load !24, !noalias !1739, !nonnull !24
  %_0.i2.i.i = call noundef i64 %12(ptr noundef nonnull align 1 %s.0.i.i.i, ptr noalias noundef nonnull readonly align 8 dereferenceable(8) %id.i.i), !dbg !1738, !range !402, !noalias !1743
  call void @llvm.dbg.value(metadata i64 %_0.i2.i.i, metadata !1629, metadata !DIExpression()), !dbg !1744
  call void @llvm.dbg.value(metadata i64 %_0.i2.i.i, metadata !1373, metadata !DIExpression()), !dbg !1745
  call void @llvm.dbg.value(metadata ptr poison, metadata !1379, metadata !DIExpression()), !dbg !1745
  call void @llvm.dbg.value(metadata ptr poison, metadata !1382, metadata !DIExpression()), !dbg !1747
  call void @llvm.dbg.value(metadata ptr poison, metadata !1391, metadata !DIExpression()), !dbg !1749
  br label %_ZN7tracing4span5Inner3new17h6bf4564670d72ed7E.exit.i.i, !dbg !1751

bb3.i10.i.i:                                      ; preds = %bb6.i.i
  call void @llvm.dbg.value(metadata ptr poison, metadata !1733, metadata !DIExpression(DW_OP_plus_uconst, 8, DW_OP_stack_value)), !dbg !1752
  %13 = getelementptr inbounds i8, ptr %s.1.i.i.i, i64 16, !dbg !1753
  %14 = load i64, ptr %13, align 8, !dbg !1753, !range !402, !invariant.load !24, !noalias !1739
  %15 = add i64 %14, -1, !dbg !1753
  %16 = and i64 %15, -16, !dbg !1753
  %17 = getelementptr i8, ptr %s.0.i.i.i, i64 %16, !dbg !1753
  %_8.0.i.i.i = getelementptr i8, ptr %17, i64 16, !dbg !1753
  %18 = getelementptr inbounds i8, ptr %s.1.i.i.i, i64 112, !dbg !1738
  %19 = load ptr, ptr %18, align 8, !dbg !1738, !invariant.load !24, !noalias !1739, !nonnull !24
  %_0.i.i.i = call noundef i64 %19(ptr noundef align 1 %_8.0.i.i.i, ptr noalias noundef nonnull readonly align 8 dereferenceable(8) %id.i.i), !dbg !1738, !range !402, !noalias !1743
  call void @llvm.dbg.value(metadata i64 %_0.i.i.i, metadata !1629, metadata !DIExpression()), !dbg !1744
  call void @llvm.dbg.value(metadata i64 %_0.i.i.i, metadata !1373, metadata !DIExpression()), !dbg !1745
  call void @llvm.dbg.value(metadata ptr poison, metadata !1379, metadata !DIExpression()), !dbg !1745
  call void @llvm.dbg.value(metadata ptr poison, metadata !1382, metadata !DIExpression()), !dbg !1747
  call void @llvm.dbg.value(metadata ptr poison, metadata !1391, metadata !DIExpression()), !dbg !1749
  call void @llvm.dbg.value(metadata ptr poison, metadata !1402, metadata !DIExpression(DW_OP_plus_uconst, 8, DW_OP_stack_value)), !dbg !1754
  call void @llvm.dbg.value(metadata i64 1, metadata !1410, metadata !DIExpression()), !dbg !1755
  call void @llvm.dbg.value(metadata i8 0, metadata !1416, metadata !DIExpression()), !dbg !1755
  call void @llvm.dbg.value(metadata i64 1, metadata !1428, metadata !DIExpression()), !dbg !1758
  call void @llvm.dbg.value(metadata i8 0, metadata !1433, metadata !DIExpression()), !dbg !1758
  call void @llvm.dbg.value(metadata ptr undef, metadata !1424, metadata !DIExpression()), !dbg !1760
  call void @llvm.dbg.value(metadata ptr %s.0.i.i.i, metadata !1415, metadata !DIExpression()), !dbg !1755
  call void @llvm.dbg.value(metadata ptr %s.0.i.i.i, metadata !1432, metadata !DIExpression()), !dbg !1758
  %20 = atomicrmw add ptr %s.0.i.i.i, i64 1 monotonic, align 8, !dbg !1761, !noalias !1762
  call void @llvm.dbg.value(metadata i64 %20, metadata !1425, metadata !DIExpression()), !dbg !1766
  %_4.i.i.i.i = icmp slt i64 %20, 0, !dbg !1767
  br i1 %_4.i.i.i.i, label %bb1.i.i.i.i, label %_ZN7tracing4span5Inner3new17h6bf4564670d72ed7E.exit.i.i, !dbg !1767

bb1.i.i.i.i:                                      ; preds = %bb3.i10.i.i
  call void @llvm.trap(), !dbg !1768
  unreachable, !dbg !1768

_ZN7tracing4span5Inner3new17h6bf4564670d72ed7E.exit.i.i: ; preds = %bb3.i10.i.i, %_ZN12tracing_core10dispatcher8Dispatch10clone_span17h346e639c91ef3422E.exit.thread.i.i
  %_0.i3.i.i = phi i64 [ %_0.i2.i.i, %_ZN12tracing_core10dispatcher8Dispatch10clone_span17h346e639c91ef3422E.exit.thread.i.i ], [ %_0.i.i.i, %bb3.i10.i.i ]
  %_4.sroa.0.0.i11.i.i = phi i64 [ 0, %_ZN12tracing_core10dispatcher8Dispatch10clone_span17h346e639c91ef3422E.exit.thread.i.i ], [ 1, %bb3.i10.i.i ], !dbg !1751
  store i64 %_4.sroa.0.0.i11.i.i, ptr %_0, align 8, !dbg !1769, !alias.scope !1770, !noalias !1771
  %_9.sroa.4.0._0.sroa_idx.i.i = getelementptr inbounds i8, ptr %_0, i64 8, !dbg !1769
  store ptr %s.0.i.i.i, ptr %_9.sroa.4.0._0.sroa_idx.i.i, align 8, !dbg !1769, !alias.scope !1770, !noalias !1771
  %_9.sroa.5.0._0.sroa_idx.i.i = getelementptr inbounds i8, ptr %_0, i64 16, !dbg !1769
  store ptr %s.1.i.i.i, ptr %_9.sroa.5.0._0.sroa_idx.i.i, align 8, !dbg !1769, !alias.scope !1770, !noalias !1771
  %_9.sroa.6.0._0.sroa_idx.i.i = getelementptr inbounds i8, ptr %_0, i64 24, !dbg !1769
  store i64 %_0.i3.i.i, ptr %_9.sroa.6.0._0.sroa_idx.i.i, align 8, !dbg !1769, !alias.scope !1770, !noalias !1771
  %21 = getelementptr inbounds i8, ptr %_0, i64 32, !dbg !1769
  store ptr %metadata.i.i, ptr %21, align 8, !dbg !1769, !alias.scope !1770, !noalias !1771
  call void @llvm.lifetime.end.p0(i64 8, ptr nonnull %id.i.i), !dbg !1772, !noalias !1681
  br label %_ZN12tracing_core10dispatcher11get_default17h80e16f9617468832E.exit, !dbg !1773

bb5.i.i:                                          ; preds = %_ZN12tracing_core10dispatcher8Dispatch12current_span17h89c84fb6cf60fc7fE.exit.i.i
  call void @llvm.lifetime.end.p0(i64 24, ptr nonnull %self.i.i), !dbg !1716, !noalias !1681
  store i64 2, ptr %_0, align 8, !dbg !1774, !alias.scope !1770, !noalias !1771
  %22 = getelementptr inbounds i8, ptr %_0, i64 32, !dbg !1774
  store ptr null, ptr %22, align 8, !dbg !1774, !alias.scope !1770, !noalias !1771
  br label %_ZN12tracing_core10dispatcher11get_default17h80e16f9617468832E.exit, !dbg !1779

_ZN12tracing_core10dispatcher11get_default17h80e16f9617468832E.exit: ; preds = %_ZN7tracing4span5Inner3new17h6bf4564670d72ed7E.exit.i.i, %bb5.i.i
  ret void, !dbg !1780
}

; tracing::span::Span::make_with
; Function Attrs: nonlazybind uwtable
define void @_ZN7tracing4span4Span9make_with17h9387c9c85f644068E(ptr dead_on_unwind noalias nocapture noundef writable writeonly sret([40 x i8]) align 8 dereferenceable(40) %span, ptr noalias noundef readonly align 8 dereferenceable(120) %meta, ptr noalias nocapture noundef readonly align 8 dereferenceable(32) %new_span, ptr noalias nocapture noundef readonly align 8 dereferenceable(24) %dispatch) unnamed_addr #1 !dbg !1319 {
start:
  tail call void @llvm.dbg.value(metadata ptr %meta, metadata !1318, metadata !DIExpression()), !dbg !1781
  call void @llvm.dbg.declare(metadata ptr %new_span, metadata !1324, metadata !DIExpression()), !dbg !1782
  tail call void @llvm.dbg.value(metadata ptr %dispatch, metadata !1325, metadata !DIExpression()), !dbg !1781
  tail call void @llvm.dbg.value(metadata ptr %new_span, metadata !1326, metadata !DIExpression()), !dbg !1783
  call void @llvm.dbg.value(metadata ptr %dispatch, metadata !1339, metadata !DIExpression()), !dbg !1784
  call void @llvm.dbg.value(metadata ptr %dispatch, metadata !1348, metadata !DIExpression()), !dbg !1786
  call void @llvm.dbg.value(metadata ptr %new_span, metadata !1345, metadata !DIExpression()), !dbg !1784
  %_5.i = load i64, ptr %dispatch, align 8, !dbg !1788, !range !1789, !noalias !24, !noundef !24
  %trunc.not.i = icmp eq i64 %_5.i, 0, !dbg !1790
  %0 = getelementptr inbounds i8, ptr %dispatch, i64 8, !dbg !1786
  %s.0.i = load ptr, ptr %0, align 8, !dbg !1786, !noalias !24, !nonnull !24, !noundef !24
  %1 = getelementptr inbounds i8, ptr %dispatch, i64 16, !dbg !1786
  %s.1.i = load ptr, ptr %1, align 8, !dbg !1786, !noalias !24, !nonnull !24, !align !340, !noundef !24
  br i1 %trunc.not.i, label %_ZN12tracing_core10dispatcher8Dispatch8new_span17h6412fd512d668dc2E.exit.thread, label %bb3.i3, !dbg !1790

_ZN12tracing_core10dispatcher8Dispatch8new_span17h6412fd512d668dc2E.exit.thread: ; preds = %start
  %2 = getelementptr inbounds i8, ptr %s.1.i, i64 56, !dbg !1791
  %3 = load ptr, ptr %2, align 8, !dbg !1791, !invariant.load !24, !noalias !1792, !nonnull !24
  %_0.i6 = tail call noundef i64 %3(ptr noundef nonnull align 1 %s.0.i, ptr noalias noundef nonnull readonly align 8 dereferenceable(32) %new_span), !dbg !1791, !range !402, !noalias !1796
  tail call void @llvm.dbg.value(metadata i64 %_0.i6, metadata !1329, metadata !DIExpression()), !dbg !1797
  call void @llvm.dbg.value(metadata i64 %_0.i6, metadata !1373, metadata !DIExpression()), !dbg !1798
  call void @llvm.dbg.value(metadata ptr %dispatch, metadata !1379, metadata !DIExpression()), !dbg !1798
  call void @llvm.dbg.value(metadata ptr %dispatch, metadata !1382, metadata !DIExpression()), !dbg !1800
  call void @llvm.dbg.value(metadata ptr %dispatch, metadata !1391, metadata !DIExpression()), !dbg !1802
  br label %_ZN7tracing4span5Inner3new17h6bf4564670d72ed7E.exit, !dbg !1804

bb3.i3:                                           ; preds = %start
  call void @llvm.dbg.value(metadata ptr %dispatch, metadata !1357, metadata !DIExpression(DW_OP_plus_uconst, 8, DW_OP_stack_value)), !dbg !1805
  %4 = getelementptr inbounds i8, ptr %s.1.i, i64 16, !dbg !1806
  %5 = load i64, ptr %4, align 8, !dbg !1806, !range !402, !invariant.load !24, !noalias !1792
  %6 = add i64 %5, -1, !dbg !1806
  %7 = and i64 %6, -16, !dbg !1806
  %8 = getelementptr i8, ptr %s.0.i, i64 %7, !dbg !1806
  %_8.0.i = getelementptr i8, ptr %8, i64 16, !dbg !1806
  %9 = getelementptr inbounds i8, ptr %s.1.i, i64 56, !dbg !1791
  %10 = load ptr, ptr %9, align 8, !dbg !1791, !invariant.load !24, !noalias !1792, !nonnull !24
  %_0.i = tail call noundef i64 %10(ptr noundef align 1 %_8.0.i, ptr noalias noundef nonnull readonly align 8 dereferenceable(32) %new_span), !dbg !1791, !range !402, !noalias !1796
  tail call void @llvm.dbg.value(metadata i64 %_0.i, metadata !1329, metadata !DIExpression()), !dbg !1797
  call void @llvm.dbg.value(metadata i64 %_0.i, metadata !1373, metadata !DIExpression()), !dbg !1798
  call void @llvm.dbg.value(metadata ptr %dispatch, metadata !1379, metadata !DIExpression()), !dbg !1798
  call void @llvm.dbg.value(metadata ptr %dispatch, metadata !1382, metadata !DIExpression()), !dbg !1800
  call void @llvm.dbg.value(metadata ptr %dispatch, metadata !1391, metadata !DIExpression()), !dbg !1802
  call void @llvm.dbg.value(metadata ptr %dispatch, metadata !1402, metadata !DIExpression(DW_OP_plus_uconst, 8, DW_OP_stack_value)), !dbg !1807
  call void @llvm.dbg.value(metadata i64 1, metadata !1410, metadata !DIExpression()), !dbg !1808
  call void @llvm.dbg.value(metadata i8 0, metadata !1416, metadata !DIExpression()), !dbg !1808
  call void @llvm.dbg.value(metadata i64 1, metadata !1428, metadata !DIExpression()), !dbg !1811
  call void @llvm.dbg.value(metadata i8 0, metadata !1433, metadata !DIExpression()), !dbg !1811
  call void @llvm.dbg.value(metadata ptr undef, metadata !1424, metadata !DIExpression()), !dbg !1813
  call void @llvm.dbg.value(metadata ptr %s.0.i, metadata !1415, metadata !DIExpression()), !dbg !1808
  call void @llvm.dbg.value(metadata ptr %s.0.i, metadata !1432, metadata !DIExpression()), !dbg !1811
  %11 = atomicrmw add ptr %s.0.i, i64 1 monotonic, align 8, !dbg !1814, !noalias !1815
  call void @llvm.dbg.value(metadata i64 %11, metadata !1425, metadata !DIExpression()), !dbg !1819
  %_4.i.i = icmp slt i64 %11, 0, !dbg !1820
  br i1 %_4.i.i, label %bb1.i.i, label %_ZN7tracing4span5Inner3new17h6bf4564670d72ed7E.exit, !dbg !1820

bb1.i.i:                                          ; preds = %bb3.i3
  tail call void @llvm.trap(), !dbg !1821
  unreachable, !dbg !1821

_ZN7tracing4span5Inner3new17h6bf4564670d72ed7E.exit: ; preds = %bb3.i3, %_ZN12tracing_core10dispatcher8Dispatch8new_span17h6412fd512d668dc2E.exit.thread
  %_0.i7 = phi i64 [ %_0.i6, %_ZN12tracing_core10dispatcher8Dispatch8new_span17h6412fd512d668dc2E.exit.thread ], [ %_0.i, %bb3.i3 ]
  %_4.sroa.0.0.i4 = phi i64 [ 0, %_ZN12tracing_core10dispatcher8Dispatch8new_span17h6412fd512d668dc2E.exit.thread ], [ 1, %bb3.i3 ], !dbg !1804
  tail call void @llvm.dbg.value(metadata i64 %_4.sroa.0.0.i4, metadata !1331, metadata !DIExpression(DW_OP_LLVM_fragment, 0, 64)), !dbg !1822
  tail call void @llvm.dbg.value(metadata ptr %s.0.i, metadata !1331, metadata !DIExpression(DW_OP_LLVM_fragment, 64, 64)), !dbg !1822
  tail call void @llvm.dbg.value(metadata ptr %s.1.i, metadata !1331, metadata !DIExpression(DW_OP_LLVM_fragment, 128, 64)), !dbg !1822
  tail call void @llvm.dbg.value(metadata i64 %_0.i7, metadata !1331, metadata !DIExpression(DW_OP_LLVM_fragment, 192, 64)), !dbg !1822
  store i64 %_4.sroa.0.0.i4, ptr %span, align 8, !dbg !1823
  %inner.sroa.2.0.span.sroa_idx = getelementptr inbounds i8, ptr %span, i64 8, !dbg !1823
  store ptr %s.0.i, ptr %inner.sroa.2.0.span.sroa_idx, align 8, !dbg !1823
  %inner.sroa.3.0.span.sroa_idx = getelementptr inbounds i8, ptr %span, i64 16, !dbg !1823
  store ptr %s.1.i, ptr %inner.sroa.3.0.span.sroa_idx, align 8, !dbg !1823
  %inner.sroa.4.0.span.sroa_idx = getelementptr inbounds i8, ptr %span, i64 24, !dbg !1823
  store i64 %_0.i7, ptr %inner.sroa.4.0.span.sroa_idx, align 8, !dbg !1823
  %12 = getelementptr inbounds i8, ptr %span, i64 32, !dbg !1823
  store ptr %meta, ptr %12, align 8, !dbg !1823
  ret void, !dbg !1824
}

; tracing::span::Span::or_current
; Function Attrs: nonlazybind uwtable
define void @_ZN7tracing4span4Span10or_current17h12e6c1f47acc9c2dE(ptr dead_on_unwind noalias nocapture noundef writable writeonly sret([40 x i8]) align 8 dereferenceable(40) %_0, ptr noalias nocapture noundef align 8 dereferenceable(40) %self) unnamed_addr #1 personality ptr @rust_eh_personality !dbg !1825 {
start:
  %id.i.i.i = alloca [8 x i8], align 8
  %self.i.i.i = alloca [24 x i8], align 8
  call void @llvm.dbg.declare(metadata ptr %self, metadata !1830, metadata !DIExpression()), !dbg !1831
  tail call void @llvm.dbg.value(metadata ptr %self, metadata !1832, metadata !DIExpression()), !dbg !1840
  tail call void @llvm.dbg.value(metadata ptr %self, metadata !1842, metadata !DIExpression()), !dbg !1851
  tail call void @llvm.dbg.value(metadata ptr %self, metadata !1853, metadata !DIExpression()), !dbg !1858
  %0 = load i64, ptr %self, align 8, !dbg !1860, !range !676, !noundef !24
  %1 = icmp eq i64 %0, 2, !dbg !1860
  br i1 %1, label %bb5, label %bb6, !dbg !1861

bb6:                                              ; preds = %start
  tail call void @llvm.memcpy.p0.p0.i64(ptr noundef nonnull align 8 dereferenceable(40) %_0, ptr noundef nonnull align 8 dereferenceable(40) %self, i64 40, i1 false), !dbg !1864
  br label %bb2, !dbg !1865

bb5:                                              ; preds = %start
  tail call void @llvm.experimental.noalias.scope.decl(metadata !1866), !dbg !1869
  tail call void @llvm.experimental.noalias.scope.decl(metadata !1870), !dbg !1873
  call void @llvm.dbg.value(metadata ptr @_ZN12tracing_core10dispatcher11GLOBAL_INIT17h32115fdb9b27e6eeE, metadata !1590, metadata !DIExpression()), !dbg !1875
  call void @llvm.dbg.value(metadata i8 4, metadata !1594, metadata !DIExpression()), !dbg !1875
  call void @llvm.dbg.declare(metadata ptr poison, metadata !1606, metadata !DIExpression()), !dbg !1879
  call void @llvm.dbg.value(metadata i8 4, metadata !1239, metadata !DIExpression()), !dbg !1880
  call void @llvm.dbg.value(metadata ptr @_ZN12tracing_core10dispatcher11GLOBAL_INIT17h32115fdb9b27e6eeE, metadata !1245, metadata !DIExpression()), !dbg !1880
  %2 = load atomic i64, ptr @_ZN12tracing_core10dispatcher11GLOBAL_INIT17h32115fdb9b27e6eeE seq_cst, align 8, !dbg !1882, !noalias !1883
  %_6.not.i.i = icmp eq i64 %2, 2, !dbg !1884
  tail call void @llvm.experimental.noalias.scope.decl(metadata !1885), !dbg !1888
  call void @llvm.dbg.value(metadata ptr undef, metadata !1619, metadata !DIExpression()), !dbg !1889
  call void @llvm.dbg.value(metadata ptr poison, metadata !1625, metadata !DIExpression()), !dbg !1889
  call void @llvm.dbg.declare(metadata ptr %self.i.i.i, metadata !1633, metadata !DIExpression()), !dbg !1891
  call void @llvm.dbg.declare(metadata ptr %id.i.i.i, metadata !1626, metadata !DIExpression()), !dbg !1893
  call void @llvm.lifetime.start.p0(i64 24, ptr nonnull %self.i.i.i), !dbg !1894, !noalias !1895
  call void @llvm.dbg.value(metadata ptr poison, metadata !1683, metadata !DIExpression()), !dbg !1897
  call void @llvm.dbg.value(metadata ptr poison, metadata !1691, metadata !DIExpression()), !dbg !1899
  %_ZN12tracing_core10dispatcher15GLOBAL_DISPATCH17h87fe84e1b4a2c89aE.val.i.i = load i64, ptr @_ZN12tracing_core10dispatcher15GLOBAL_DISPATCH17h87fe84e1b4a2c89aE, align 8, !dbg !1901, !noalias !1883
  %_ZN12tracing_core10dispatcher4NONE17h6e5b38c8436baf83E.val.i.i = load i64, ptr @_ZN12tracing_core10dispatcher4NONE17h6e5b38c8436baf83E, align 8, !dbg !1901, !noalias !1883
  %_4.i.i.i.i = select i1 %_6.not.i.i, i64 %_ZN12tracing_core10dispatcher15GLOBAL_DISPATCH17h87fe84e1b4a2c89aE.val.i.i, i64 %_ZN12tracing_core10dispatcher4NONE17h6e5b38c8436baf83E.val.i.i, !dbg !1901
  %trunc.not.i.i.i.i = icmp eq i64 %_4.i.i.i.i, 0, !dbg !1902
  %.val.i.i = load ptr, ptr getelementptr inbounds (%"tracing_core::dispatcher::Dispatch", ptr @_ZN12tracing_core10dispatcher15GLOBAL_DISPATCH17h87fe84e1b4a2c89aE, i64 0, i32 0, i32 1, i64 0), align 8, !dbg !1899, !noalias !1883
  %.val2.i.i = load ptr, ptr getelementptr inbounds (%"tracing_core::dispatcher::Dispatch", ptr @_ZN12tracing_core10dispatcher4NONE17h6e5b38c8436baf83E, i64 0, i32 0, i32 1, i64 0), align 8, !dbg !1899, !noalias !1883
  %s.0.i.i.i.i = select i1 %_6.not.i.i, ptr %.val.i.i, ptr %.val2.i.i, !dbg !1899
  %.val3.i.i = load ptr, ptr getelementptr inbounds (%"tracing_core::dispatcher::Dispatch", ptr @_ZN12tracing_core10dispatcher15GLOBAL_DISPATCH17h87fe84e1b4a2c89aE, i64 0, i32 0, i32 1, i64 1), align 8, !dbg !1899, !noalias !1883
  %.val4.i.i = load ptr, ptr getelementptr inbounds (%"tracing_core::dispatcher::Dispatch", ptr @_ZN12tracing_core10dispatcher4NONE17h6e5b38c8436baf83E, i64 0, i32 0, i32 1, i64 1), align 8, !dbg !1899, !noalias !1883
  %s.1.i.i.i.i = select i1 %_6.not.i.i, ptr %.val3.i.i, ptr %.val4.i.i, !dbg !1899
  br i1 %trunc.not.i.i.i.i, label %_ZN12tracing_core10dispatcher8Dispatch12current_span17h89c84fb6cf60fc7fE.exit.i.i.i, label %bb3.i.i.i.i, !dbg !1902

bb3.i.i.i.i:                                      ; preds = %bb5
  call void @llvm.dbg.value(metadata ptr poison, metadata !1697, metadata !DIExpression(DW_OP_plus_uconst, 8, DW_OP_stack_value)), !dbg !1903
  %3 = getelementptr inbounds i8, ptr %s.1.i.i.i.i, i64 16, !dbg !1904
  %4 = load i64, ptr %3, align 8, !dbg !1904, !range !402, !invariant.load !24, !noalias !1905
  %5 = add i64 %4, -1, !dbg !1904
  %6 = and i64 %5, -16, !dbg !1904
  %7 = getelementptr i8, ptr %s.0.i.i.i.i, i64 %6, !dbg !1904
  %_7.0.i.i.i.i = getelementptr i8, ptr %7, i64 16, !dbg !1904
  br label %_ZN12tracing_core10dispatcher8Dispatch12current_span17h89c84fb6cf60fc7fE.exit.i.i.i, !dbg !1909

_ZN12tracing_core10dispatcher8Dispatch12current_span17h89c84fb6cf60fc7fE.exit.i.i.i: ; preds = %bb3.i.i.i.i, %bb5
  %_3.sroa.0.0.i.i.i.i = phi ptr [ %_7.0.i.i.i.i, %bb3.i.i.i.i ], [ %s.0.i.i.i.i, %bb5 ], !dbg !1899
  %8 = getelementptr inbounds i8, ptr %s.1.i.i.i.i, i64 136, !dbg !1910
  %9 = load ptr, ptr %8, align 8, !dbg !1910, !invariant.load !24, !noalias !1905, !nonnull !24
  invoke void %9(ptr noalias nocapture noundef nonnull sret([24 x i8]) align 8 dereferenceable(24) %self.i.i.i, ptr noundef align 1 %_3.sroa.0.0.i.i.i.i)
          to label %.noexc unwind label %cleanup, !dbg !1910

.noexc:                                           ; preds = %_ZN12tracing_core10dispatcher8Dispatch12current_span17h89c84fb6cf60fc7fE.exit.i.i.i
  %_12.i.i.i = load i64, ptr %self.i.i.i, align 8, !dbg !1911, !range !676, !noalias !1895, !noundef !24
  %10 = icmp eq i64 %_12.i.i.i, 0, !dbg !1912
  br i1 %10, label %bb6.i.i.i, label %bb5.i.i.i, !dbg !1912

bb6.i.i.i:                                        ; preds = %.noexc
  %11 = getelementptr inbounds i8, ptr %self.i.i.i, i64 8, !dbg !1913
  %id1.i.i.i = load i64, ptr %11, align 8, !dbg !1913, !range !402, !noalias !1895, !noundef !24
  %12 = getelementptr inbounds i8, ptr %self.i.i.i, i64 16, !dbg !1914
  %metadata.i.i.i = load ptr, ptr %12, align 8, !dbg !1914, !noalias !1895, !nonnull !24, !align !340, !noundef !24
  call void @llvm.lifetime.end.p0(i64 24, ptr nonnull %self.i.i.i), !dbg !1915, !noalias !1895
  call void @llvm.lifetime.start.p0(i64 8, ptr nonnull %id.i.i.i), !dbg !1893, !noalias !1895
  store i64 %id1.i.i.i, ptr %id.i.i.i, align 8, !dbg !1893, !noalias !1895
  call void @llvm.dbg.value(metadata ptr %metadata.i.i.i, metadata !1628, metadata !DIExpression()), !dbg !1916
  call void @llvm.dbg.value(metadata ptr poison, metadata !1718, metadata !DIExpression()), !dbg !1917
  call void @llvm.dbg.value(metadata ptr poison, metadata !1727, metadata !DIExpression()), !dbg !1919
  call void @llvm.dbg.value(metadata ptr %id.i.i.i, metadata !1724, metadata !DIExpression()), !dbg !1917
  br i1 %trunc.not.i.i.i.i, label %_ZN12tracing_core10dispatcher8Dispatch10clone_span17h346e639c91ef3422E.exit.thread.i.i.i, label %bb3.i10.i.i.i, !dbg !1921

_ZN12tracing_core10dispatcher8Dispatch10clone_span17h346e639c91ef3422E.exit.thread.i.i.i: ; preds = %bb6.i.i.i
  %13 = getelementptr inbounds i8, ptr %s.1.i.i.i.i, i64 112, !dbg !1922
  %14 = load ptr, ptr %13, align 8, !dbg !1922, !invariant.load !24, !noalias !1923, !nonnull !24
  %_0.i2.i.i.i2 = invoke noundef i64 %14(ptr noundef nonnull align 1 %s.0.i.i.i.i, ptr noalias noundef nonnull readonly align 8 dereferenceable(8) %id.i.i.i)
          to label %_ZN7tracing4span5Inner3new17h6bf4564670d72ed7E.exit.i.i.i unwind label %cleanup, !dbg !1922

bb3.i10.i.i.i:                                    ; preds = %bb6.i.i.i
  call void @llvm.dbg.value(metadata ptr poison, metadata !1733, metadata !DIExpression(DW_OP_plus_uconst, 8, DW_OP_stack_value)), !dbg !1927
  %15 = getelementptr inbounds i8, ptr %s.1.i.i.i.i, i64 16, !dbg !1928
  %16 = load i64, ptr %15, align 8, !dbg !1928, !range !402, !invariant.load !24, !noalias !1923
  %17 = add i64 %16, -1, !dbg !1928
  %18 = and i64 %17, -16, !dbg !1928
  %19 = getelementptr i8, ptr %s.0.i.i.i.i, i64 %18, !dbg !1928
  %_8.0.i.i.i.i = getelementptr i8, ptr %19, i64 16, !dbg !1928
  %20 = getelementptr inbounds i8, ptr %s.1.i.i.i.i, i64 112, !dbg !1922
  %21 = load ptr, ptr %20, align 8, !dbg !1922, !invariant.load !24, !noalias !1923, !nonnull !24
  %_0.i.i.i.i3 = invoke noundef i64 %21(ptr noundef align 1 %_8.0.i.i.i.i, ptr noalias noundef nonnull readonly align 8 dereferenceable(8) %id.i.i.i)
          to label %_0.i.i.i.i.noexc unwind label %cleanup, !dbg !1922

_0.i.i.i.i.noexc:                                 ; preds = %bb3.i10.i.i.i
  call void @llvm.dbg.value(metadata i64 %_0.i.i.i.i3, metadata !1629, metadata !DIExpression()), !dbg !1929
  call void @llvm.dbg.value(metadata i64 %_0.i.i.i.i3, metadata !1373, metadata !DIExpression()), !dbg !1930
  call void @llvm.dbg.value(metadata ptr poison, metadata !1379, metadata !DIExpression()), !dbg !1930
  call void @llvm.dbg.value(metadata ptr poison, metadata !1382, metadata !DIExpression()), !dbg !1932
  call void @llvm.dbg.value(metadata ptr poison, metadata !1391, metadata !DIExpression()), !dbg !1934
  call void @llvm.dbg.value(metadata ptr poison, metadata !1402, metadata !DIExpression(DW_OP_plus_uconst, 8, DW_OP_stack_value)), !dbg !1936
  call void @llvm.dbg.value(metadata i64 1, metadata !1410, metadata !DIExpression()), !dbg !1937
  call void @llvm.dbg.value(metadata i8 0, metadata !1416, metadata !DIExpression()), !dbg !1937
  call void @llvm.dbg.value(metadata i64 1, metadata !1428, metadata !DIExpression()), !dbg !1940
  call void @llvm.dbg.value(metadata i8 0, metadata !1433, metadata !DIExpression()), !dbg !1940
  call void @llvm.dbg.value(metadata ptr undef, metadata !1424, metadata !DIExpression()), !dbg !1942
  call void @llvm.dbg.value(metadata ptr %s.0.i.i.i.i, metadata !1415, metadata !DIExpression()), !dbg !1937
  call void @llvm.dbg.value(metadata ptr %s.0.i.i.i.i, metadata !1432, metadata !DIExpression()), !dbg !1940
  %22 = atomicrmw add ptr %s.0.i.i.i.i, i64 1 monotonic, align 8, !dbg !1943, !noalias !1944
  call void @llvm.dbg.value(metadata i64 %22, metadata !1425, metadata !DIExpression()), !dbg !1948
  %_4.i.i.i.i.i = icmp slt i64 %22, 0, !dbg !1949
  br i1 %_4.i.i.i.i.i, label %bb1.i.i.i.i.i, label %_ZN7tracing4span5Inner3new17h6bf4564670d72ed7E.exit.i.i.i, !dbg !1949

bb1.i.i.i.i.i:                                    ; preds = %_0.i.i.i.i.noexc
  call void @llvm.trap(), !dbg !1950
  unreachable, !dbg !1950

_ZN7tracing4span5Inner3new17h6bf4564670d72ed7E.exit.i.i.i: ; preds = %_ZN12tracing_core10dispatcher8Dispatch10clone_span17h346e639c91ef3422E.exit.thread.i.i.i, %_0.i.i.i.i.noexc
  %_0.i3.i.i.i = phi i64 [ %_0.i.i.i.i3, %_0.i.i.i.i.noexc ], [ %_0.i2.i.i.i2, %_ZN12tracing_core10dispatcher8Dispatch10clone_span17h346e639c91ef3422E.exit.thread.i.i.i ]
  %_4.sroa.0.0.i11.i.i.i = phi i64 [ 1, %_0.i.i.i.i.noexc ], [ 0, %_ZN12tracing_core10dispatcher8Dispatch10clone_span17h346e639c91ef3422E.exit.thread.i.i.i ], !dbg !1951
  store i64 %_4.sroa.0.0.i11.i.i.i, ptr %_0, align 8, !dbg !1952, !alias.scope !1953, !noalias !1954
  %_9.sroa.4.0._0.sroa_idx.i.i.i = getelementptr inbounds i8, ptr %_0, i64 8, !dbg !1952
  store ptr %s.0.i.i.i.i, ptr %_9.sroa.4.0._0.sroa_idx.i.i.i, align 8, !dbg !1952, !alias.scope !1953, !noalias !1954
  %_9.sroa.5.0._0.sroa_idx.i.i.i = getelementptr inbounds i8, ptr %_0, i64 16, !dbg !1952
  store ptr %s.1.i.i.i.i, ptr %_9.sroa.5.0._0.sroa_idx.i.i.i, align 8, !dbg !1952, !alias.scope !1953, !noalias !1954
  %_9.sroa.6.0._0.sroa_idx.i.i.i = getelementptr inbounds i8, ptr %_0, i64 24, !dbg !1952
  store i64 %_0.i3.i.i.i, ptr %_9.sroa.6.0._0.sroa_idx.i.i.i, align 8, !dbg !1952, !alias.scope !1953, !noalias !1954
  %23 = getelementptr inbounds i8, ptr %_0, i64 32, !dbg !1952
  store ptr %metadata.i.i.i, ptr %23, align 8, !dbg !1952, !alias.scope !1953, !noalias !1954
  call void @llvm.lifetime.end.p0(i64 8, ptr nonnull %id.i.i.i), !dbg !1955, !noalias !1895
  br label %bb1, !dbg !1956

bb5.i.i.i:                                        ; preds = %.noexc
  call void @llvm.lifetime.end.p0(i64 24, ptr nonnull %self.i.i.i), !dbg !1915, !noalias !1895
  store i64 2, ptr %_0, align 8, !dbg !1957, !alias.scope !1953, !noalias !1954
  %24 = getelementptr inbounds i8, ptr %_0, i64 32, !dbg !1957
  store ptr null, ptr %24, align 8, !dbg !1957, !alias.scope !1953, !noalias !1954
  br label %bb1, !dbg !1959

bb2:                                              ; preds = %bb2.i.i.i.i.i.i.i, %bb2.i.i.i.i.i, %bb2.i.i, %bb1, %bb6
  ret void, !dbg !1960

cleanup:                                          ; preds = %bb3.i10.i.i.i, %_ZN12tracing_core10dispatcher8Dispatch10clone_span17h346e639c91ef3422E.exit.thread.i.i.i, %_ZN12tracing_core10dispatcher8Dispatch12current_span17h89c84fb6cf60fc7fE.exit.i.i.i
  %25 = landingpad { ptr, i32 }
          cleanup
; invoke core::ptr::drop_in_place<tracing::span::Span>
  invoke fastcc void @"_ZN4core3ptr40drop_in_place$LT$tracing..span..Span$GT$17h47c79a7196b31a47E"(ptr noalias noundef nonnull align 8 dereferenceable(40) %self) #15
          to label %common.resume unwind label %terminate, !dbg !1865

bb1:                                              ; preds = %bb5.i.i.i, %_ZN7tracing4span5Inner3new17h6bf4564670d72ed7E.exit.i.i.i
  call void @llvm.dbg.value(metadata ptr %self, metadata !656, metadata !DIExpression()), !dbg !1961
  call void @llvm.dbg.value(metadata ptr %self, metadata !660, metadata !DIExpression()), !dbg !1963
  %26 = load i64, ptr %self, align 8, !dbg !1965, !range !676, !alias.scope !1966, !noundef !24
  %27 = icmp eq i64 %26, 2, !dbg !1965
  br i1 %27, label %bb2, label %bb1.i.i, !dbg !1965

bb1.i.i:                                          ; preds = %bb1
  call void @llvm.dbg.value(metadata ptr %self, metadata !668, metadata !DIExpression(DW_OP_plus_uconst, 24, DW_OP_stack_value)), !dbg !1969
  call void @llvm.dbg.value(metadata ptr %self, metadata !671, metadata !DIExpression()), !dbg !1969
  call void @llvm.dbg.value(metadata ptr %self, metadata !678, metadata !DIExpression(DW_OP_plus_uconst, 24, DW_OP_stack_value)), !dbg !1970
  call void @llvm.dbg.value(metadata ptr %self, metadata !688, metadata !DIExpression(DW_OP_plus_uconst, 24, DW_OP_stack_value)), !dbg !1972
  %28 = getelementptr inbounds i8, ptr %self, i64 24, !dbg !1974
  %_11.i.i = load i64, ptr %28, align 8, !dbg !1974, !range !402, !alias.scope !1975, !noundef !24
; invoke tracing_core::dispatcher::Dispatch::try_close
  %_5.i1.i = invoke noundef zeroext i1 @_ZN12tracing_core10dispatcher8Dispatch9try_close17h696bcd9c55eb65b8E(ptr noalias noundef nonnull readonly align 8 dereferenceable(24) %self, i64 noundef %_11.i.i)
          to label %bb2.i.i unwind label %cleanup.i, !dbg !1978

cleanup.i:                                        ; preds = %bb1.i.i
  %29 = landingpad { ptr, i32 }
          cleanup
; invoke core::ptr::drop_in_place<core::option::Option<tracing::span::Inner>>
  invoke fastcc void @"_ZN4core3ptr69drop_in_place$LT$core..option..Option$LT$tracing..span..Inner$GT$$GT$17h1db1e8740abf1046E"(ptr noalias noundef nonnull align 8 dereferenceable(32) %self) #15
          to label %common.resume unwind label %terminate.i, !dbg !1979

bb2.i.i:                                          ; preds = %bb1.i.i
  call void @llvm.experimental.noalias.scope.decl(metadata !1980), !dbg !1979
  call void @llvm.dbg.value(metadata ptr %self, metadata !706, metadata !DIExpression()), !dbg !1983
  call void @llvm.experimental.noalias.scope.decl(metadata !1985), !dbg !1988
  call void @llvm.dbg.value(metadata ptr %self, metadata !720, metadata !DIExpression()), !dbg !1989
  call void @llvm.experimental.noalias.scope.decl(metadata !1991), !dbg !1994
  call void @llvm.dbg.value(metadata ptr %self, metadata !732, metadata !DIExpression()), !dbg !1995
  call void @llvm.experimental.noalias.scope.decl(metadata !1997), !dbg !2000
  call void @llvm.dbg.value(metadata ptr %self, metadata !746, metadata !DIExpression()), !dbg !2001
  %30 = icmp eq i64 %26, 0, !dbg !2003
  br i1 %30, label %bb2, label %bb2.i.i.i.i.i, !dbg !2003

bb2.i.i.i.i.i:                                    ; preds = %bb2.i.i
  %31 = getelementptr inbounds i8, ptr %self, i64 8, !dbg !2003
  call void @llvm.experimental.noalias.scope.decl(metadata !2004), !dbg !2003
  call void @llvm.dbg.value(metadata ptr %31, metadata !760, metadata !DIExpression()), !dbg !2007
  call void @llvm.experimental.noalias.scope.decl(metadata !2009), !dbg !2012
  call void @llvm.dbg.value(metadata i64 1, metadata !772, metadata !DIExpression()), !dbg !2013
  call void @llvm.dbg.value(metadata i8 1, metadata !782, metadata !DIExpression()), !dbg !2013
  call void @llvm.dbg.value(metadata i64 1, metadata !794, metadata !DIExpression()), !dbg !2016
  call void @llvm.dbg.value(metadata i8 1, metadata !802, metadata !DIExpression()), !dbg !2016
  call void @llvm.dbg.value(metadata i8 2, metadata !805, metadata !DIExpression()), !dbg !2018
  call void @llvm.dbg.value(metadata ptr %31, metadata !792, metadata !DIExpression()), !dbg !2020
  call void @llvm.dbg.value(metadata ptr %31, metadata !814, metadata !DIExpression()), !dbg !2021
  call void @llvm.dbg.value(metadata ptr %31, metadata !828, metadata !DIExpression()), !dbg !2023
  %self.0.i.i.i.i.i.i.i = load ptr, ptr %31, align 8, !dbg !2025, !alias.scope !2026, !nonnull !24, !noundef !24
  call void @llvm.dbg.value(metadata ptr %self.0.i.i.i.i.i.i.i, metadata !781, metadata !DIExpression()), !dbg !2013
  call void @llvm.dbg.value(metadata ptr %self.0.i.i.i.i.i.i.i, metadata !801, metadata !DIExpression()), !dbg !2016
  %32 = atomicrmw sub ptr %self.0.i.i.i.i.i.i.i, i64 1 release, align 8, !dbg !2027, !noalias !2028
  %33 = icmp eq i64 %32, 1, !dbg !2029
  br i1 %33, label %bb2.i.i.i.i.i.i.i, label %bb2, !dbg !2029

bb2.i.i.i.i.i.i.i:                                ; preds = %bb2.i.i.i.i.i
  fence acquire, !dbg !2030
; call alloc::sync::Arc<T,A>::drop_slow
  call fastcc void @"_ZN5alloc4sync16Arc$LT$T$C$A$GT$9drop_slow17hd8d6316731aaf9c7E"(ptr noalias noundef nonnull align 8 dereferenceable(16) %31), !dbg !2031
  br label %bb2, !dbg !2031

terminate.i:                                      ; preds = %cleanup.i
  %34 = landingpad { ptr, i32 }
          filter [0 x ptr] zeroinitializer
; call core::panicking::panic_in_cleanup
  call void @_ZN4core9panicking16panic_in_cleanup17h43442956f23e9cbeE() #16, !dbg !1979
  unreachable, !dbg !1979

common.resume:                                    ; preds = %cleanup, %cleanup.i
  %common.resume.op = phi { ptr, i32 } [ %29, %cleanup.i ], [ %25, %cleanup ]
  resume { ptr, i32 } %common.resume.op, !dbg !2032

terminate:                                        ; preds = %cleanup
  %35 = landingpad { ptr, i32 }
          filter [0 x ptr] zeroinitializer
; call core::panicking::panic_in_cleanup
  call void @_ZN4core9panicking16panic_in_cleanup17h43442956f23e9cbeE() #16, !dbg !2033
  unreachable, !dbg !2033
}

; tracing::span::Span::record_all
; Function Attrs: nonlazybind uwtable
define noundef align 8 dereferenceable(40) ptr @_ZN7tracing4span4Span10record_all17h92960d362d26196aE(ptr noalias noundef readonly returned align 8 dereferenceable(40) %self, ptr noalias noundef readonly align 8 dereferenceable(24) %values) unnamed_addr #1 !dbg !2034 {
start:
  %record = alloca [8 x i8], align 8
  tail call void @llvm.dbg.value(metadata ptr %self, metadata !2039, metadata !DIExpression()), !dbg !2051
  tail call void @llvm.dbg.value(metadata ptr %values, metadata !2040, metadata !DIExpression()), !dbg !2051
  tail call void @llvm.dbg.value(metadata ptr %values, metadata !2052, metadata !DIExpression()), !dbg !2059
  call void @llvm.dbg.declare(metadata ptr %record, metadata !2041, metadata !DIExpression()), !dbg !2061
  call void @llvm.lifetime.start.p0(i64 8, ptr nonnull %record), !dbg !2062
  store ptr %values, ptr %record, align 8, !dbg !2063
  %0 = load i64, ptr %self, align 8, !dbg !2064, !range !676, !noundef !24
  %1 = icmp eq i64 %0, 2, !dbg !2064
  br i1 %1, label %bb3, label %bb1, !dbg !2064

bb1:                                              ; preds = %start
  tail call void @llvm.dbg.value(metadata ptr %self, metadata !2046, metadata !DIExpression()), !dbg !2065
  tail call void @llvm.experimental.noalias.scope.decl(metadata !2066), !dbg !2069
  call void @llvm.dbg.value(metadata ptr %self, metadata !2070, metadata !DIExpression()), !dbg !2078
  call void @llvm.dbg.value(metadata ptr %record, metadata !2077, metadata !DIExpression()), !dbg !2078
  tail call void @llvm.experimental.noalias.scope.decl(metadata !2080), !dbg !2083
  call void @llvm.dbg.value(metadata ptr %self, metadata !2084, metadata !DIExpression()), !dbg !2092
  call void @llvm.dbg.value(metadata ptr %self, metadata !2094, metadata !DIExpression()), !dbg !2102
  call void @llvm.dbg.value(metadata ptr %self, metadata !2090, metadata !DIExpression(DW_OP_plus_uconst, 24, DW_OP_stack_value)), !dbg !2092
  call void @llvm.dbg.value(metadata ptr %record, metadata !2091, metadata !DIExpression()), !dbg !2092
  %trunc.not.i.i = icmp eq i64 %0, 0, !dbg !2104
  %2 = getelementptr inbounds i8, ptr %self, i64 8, !dbg !2102
  %s.0.i.i = load ptr, ptr %2, align 8, !dbg !2102, !alias.scope !2105, !noalias !2106, !nonnull !24, !noundef !24
  %3 = getelementptr inbounds i8, ptr %self, i64 16, !dbg !2102
  %s.1.i.i = load ptr, ptr %3, align 8, !dbg !2102, !alias.scope !2105, !noalias !2106, !nonnull !24, !align !340, !noundef !24
  br i1 %trunc.not.i.i, label %_ZN7tracing4span5Inner6record17h53dc3e0e3fa51706E.exit, label %bb3.i.i, !dbg !2104

bb3.i.i:                                          ; preds = %bb1
  call void @llvm.dbg.value(metadata ptr %self, metadata !2100, metadata !DIExpression(DW_OP_plus_uconst, 8, DW_OP_stack_value)), !dbg !2110
  %4 = getelementptr inbounds i8, ptr %s.1.i.i, i64 16, !dbg !2111
  %5 = load i64, ptr %4, align 8, !dbg !2111, !range !402, !invariant.load !24, !noalias !2112
  %6 = add i64 %5, -1, !dbg !2111
  %7 = and i64 %6, -16, !dbg !2111
  %8 = getelementptr i8, ptr %s.0.i.i, i64 %7, !dbg !2111
  %_9.0.i.i = getelementptr i8, ptr %8, i64 16, !dbg !2111
  br label %_ZN7tracing4span5Inner6record17h53dc3e0e3fa51706E.exit, !dbg !2113

_ZN7tracing4span5Inner6record17h53dc3e0e3fa51706E.exit: ; preds = %bb1, %bb3.i.i
  %_5.sroa.0.0.i.i = phi ptr [ %_9.0.i.i, %bb3.i.i ], [ %s.0.i.i, %bb1 ], !dbg !2102
  %_4.i = getelementptr inbounds i8, ptr %self, i64 24, !dbg !2114
  call void @llvm.dbg.value(metadata ptr %_4.i, metadata !2090, metadata !DIExpression()), !dbg !2092
  %9 = getelementptr inbounds i8, ptr %s.1.i.i, i64 64, !dbg !2115
  %10 = load ptr, ptr %9, align 8, !dbg !2115, !invariant.load !24, !noalias !2112, !nonnull !24
  call void %10(ptr noundef align 1 %_5.sroa.0.0.i.i, ptr noalias noundef nonnull readonly align 8 dereferenceable(8) %_4.i, ptr noalias noundef nonnull readonly align 8 dereferenceable(8) %record), !dbg !2115, !noalias !2080
  br label %bb3, !dbg !2116

bb3:                                              ; preds = %start, %_ZN7tracing4span5Inner6record17h53dc3e0e3fa51706E.exit
  call void @llvm.lifetime.end.p0(i64 8, ptr nonnull %record), !dbg !2117
  ret ptr %self, !dbg !2118
}

; <tracing::span::Span as core::cmp::PartialEq>::eq
; Function Attrs: mustprogress nofree norecurse nosync nounwind nonlazybind willreturn memory(read, inaccessiblemem: none) uwtable
define noundef zeroext i1 @"_ZN60_$LT$tracing..span..Span$u20$as$u20$core..cmp..PartialEq$GT$2eq17had506f59f829c3cbE"(ptr noalias nocapture noundef readonly align 8 dereferenceable(40) %self, ptr noalias nocapture noundef readonly align 8 dereferenceable(40) %other) unnamed_addr #3 !dbg !2119 {
start:
  tail call void @llvm.dbg.value(metadata ptr %self, metadata !2124, metadata !DIExpression()), !dbg !2129
  tail call void @llvm.dbg.value(metadata ptr %other, metadata !2125, metadata !DIExpression()), !dbg !2129
  %0 = getelementptr inbounds i8, ptr %self, i64 32, !dbg !2130
  %1 = load ptr, ptr %0, align 8, !dbg !2130, !noundef !24
  %2 = icmp eq ptr %1, null, !dbg !2130
  %3 = getelementptr inbounds i8, ptr %other, i64 32
  %4 = load ptr, ptr %3, align 8
  %5 = icmp eq ptr %4, null
  %or.cond = select i1 %2, i1 true, i1 %5, !dbg !2131
  br i1 %or.cond, label %bb8, label %bb3, !dbg !2131

bb3:                                              ; preds = %start
  tail call void @llvm.dbg.value(metadata ptr %self, metadata !2126, metadata !DIExpression(DW_OP_plus_uconst, 32, DW_OP_stack_value)), !dbg !2132
  tail call void @llvm.dbg.value(metadata ptr %other, metadata !2128, metadata !DIExpression(DW_OP_plus_uconst, 32, DW_OP_stack_value)), !dbg !2132
  tail call void @llvm.dbg.value(metadata ptr %1, metadata !2133, metadata !DIExpression()), !dbg !2142
  tail call void @llvm.dbg.value(metadata ptr %1, metadata !2144, metadata !DIExpression(DW_OP_plus_uconst, 48, DW_OP_stack_value)), !dbg !2154
  %6 = getelementptr inbounds i8, ptr %1, i64 64, !dbg !2156
  %_19.0 = load ptr, ptr %6, align 8, !dbg !2156, !nonnull !24, !align !365, !noundef !24
  tail call void @llvm.dbg.value(metadata ptr undef, metadata !2157, metadata !DIExpression()), !dbg !2167
  tail call void @llvm.dbg.value(metadata ptr %4, metadata !2140, metadata !DIExpression()), !dbg !2169
  tail call void @llvm.dbg.value(metadata ptr %4, metadata !2152, metadata !DIExpression(DW_OP_plus_uconst, 48, DW_OP_stack_value)), !dbg !2171
  %7 = getelementptr inbounds i8, ptr %4, i64 64, !dbg !2173
  %_21.0 = load ptr, ptr %7, align 8, !dbg !2173, !nonnull !24, !align !365, !noundef !24
  tail call void @llvm.dbg.value(metadata ptr undef, metadata !2166, metadata !DIExpression()), !dbg !2167
  tail call void @llvm.dbg.value(metadata ptr %_19.0, metadata !2174, metadata !DIExpression()), !dbg !2182
  tail call void @llvm.dbg.value(metadata ptr %_21.0, metadata !2180, metadata !DIExpression()), !dbg !2182
  %_9 = icmp eq ptr %_19.0, %_21.0, !dbg !2184
  br i1 %_9, label %bb4, label %bb8, !dbg !2168

bb4:                                              ; preds = %bb3
  %self.val = load i64, ptr %self, align 8, !dbg !2185, !range !676, !noundef !24
  %other.val = load i64, ptr %other, align 8, !dbg !2185
  tail call void @llvm.dbg.value(metadata ptr undef, metadata !2186, metadata !DIExpression()), !dbg !2196
  tail call void @llvm.dbg.value(metadata ptr undef, metadata !2192, metadata !DIExpression()), !dbg !2196
  %8 = icmp eq i64 %self.val, 2, !dbg !2198
  br i1 %8, label %bb3.i, label %bb2.i, !dbg !2199

bb3.i:                                            ; preds = %bb4
  %9 = icmp eq i64 %other.val, 2, !dbg !2198
  br label %bb8, !dbg !2196

bb2.i:                                            ; preds = %bb4
  %10 = getelementptr inbounds i8, ptr %other, i64 24, !dbg !2185
  %other.val15 = load i64, ptr %10, align 8, !dbg !2185
  %11 = getelementptr inbounds i8, ptr %self, i64 24, !dbg !2185
  %self.val14 = load i64, ptr %11, align 8, !dbg !2185
  %12 = icmp ne i64 %other.val, 2, !dbg !2198
  %_0.i.i = icmp eq i64 %self.val14, %other.val15
  %spec.select.i = select i1 %12, i1 %_0.i.i, i1 false, !dbg !2199
  br label %bb8, !dbg !2199

bb8:                                              ; preds = %bb2.i, %bb3.i, %bb3, %start
  %_0.sroa.0.0 = phi i1 [ false, %start ], [ false, %bb3 ], [ %9, %bb3.i ], [ %spec.select.i, %bb2.i ], !dbg !2129
  ret i1 %_0.sroa.0.0, !dbg !2200
}

; <tracing::span::Span as core::fmt::Debug>::fmt
; Function Attrs: nonlazybind uwtable
define noundef zeroext i1 @"_ZN56_$LT$tracing..span..Span$u20$as$u20$core..fmt..Debug$GT$3fmt17hfade48abced6d6daE"(ptr noalias nocapture noundef readonly align 8 dereferenceable(40) %self, ptr noalias noundef align 8 dereferenceable(64) %f) unnamed_addr #1 !dbg !2201 {
start:
  %file = alloca [8 x i8], align 8
  %_52 = alloca [16 x i8], align 8
  %line = alloca [8 x i8], align 8
  %_44 = alloca [8 x i8], align 8
  %path = alloca [8 x i8], align 8
  %_36 = alloca [16 x i8], align 8
  %_30 = alloca [8 x i8], align 8
  %_22 = alloca [16 x i8], align 8
  %_18 = alloca [8 x i8], align 8
  %_14 = alloca [16 x i8], align 8
  %span = alloca [16 x i8], align 8
  tail call void @llvm.dbg.value(metadata ptr %self, metadata !2206, metadata !DIExpression()), !dbg !2226
  tail call void @llvm.dbg.value(metadata ptr %f, metadata !2207, metadata !DIExpression()), !dbg !2226
  call void @llvm.dbg.declare(metadata ptr %span, metadata !2208, metadata !DIExpression()), !dbg !2227
  call void @llvm.dbg.declare(metadata ptr %path, metadata !2220, metadata !DIExpression()), !dbg !2228
  call void @llvm.dbg.declare(metadata ptr %line, metadata !2222, metadata !DIExpression()), !dbg !2229
  call void @llvm.dbg.declare(metadata ptr %file, metadata !2224, metadata !DIExpression()), !dbg !2230
  call void @llvm.lifetime.start.p0(i64 16, ptr nonnull %span), !dbg !2231
; call core::fmt::Formatter::debug_struct
  call void @_ZN4core3fmt9Formatter12debug_struct17hfe55f8660bb7c366E(ptr noalias nocapture noundef nonnull sret([16 x i8]) align 8 dereferenceable(16) %span, ptr noalias noundef nonnull align 8 dereferenceable(64) %f, ptr noalias noundef nonnull readonly align 1 @alloc_013ac183eb69ceaf6bbbdb62e96feb3c, i64 noundef 4), !dbg !2232
  %0 = getelementptr inbounds i8, ptr %self, i64 32, !dbg !2233
  %1 = load ptr, ptr %0, align 8, !dbg !2233, !noundef !24
  %2 = icmp eq ptr %1, null, !dbg !2233
  br i1 %2, label %bb20, label %bb2, !dbg !2233

bb2:                                              ; preds = %start
  tail call void @llvm.dbg.value(metadata ptr %1, metadata !2216, metadata !DIExpression()), !dbg !2234
  tail call void @llvm.dbg.value(metadata ptr %1, metadata !2235, metadata !DIExpression()), !dbg !2242
  tail call void @llvm.dbg.value(metadata ptr %1, metadata !2244, metadata !DIExpression()), !dbg !2251
  tail call void @llvm.dbg.value(metadata ptr %1, metadata !2253, metadata !DIExpression()), !dbg !2258
  tail call void @llvm.dbg.value(metadata ptr %1, metadata !2260, metadata !DIExpression()), !dbg !2267
  tail call void @llvm.dbg.value(metadata ptr %1, metadata !2269, metadata !DIExpression()), !dbg !2276
  tail call void @llvm.dbg.value(metadata ptr %1, metadata !2278, metadata !DIExpression()), !dbg !2283
  call void @llvm.lifetime.start.p0(i64 16, ptr nonnull %_14), !dbg !2285
  %3 = getelementptr inbounds i8, ptr %1, i64 16, !dbg !2286
  %4 = load ptr, ptr %3, align 8, !dbg !2286, !nonnull !24, !align !365, !noundef !24
  %5 = getelementptr inbounds i8, ptr %1, i64 24, !dbg !2286
  %6 = load i64, ptr %5, align 8, !dbg !2286, !noundef !24
  store ptr %4, ptr %_14, align 8, !dbg !2286
  %7 = getelementptr inbounds i8, ptr %_14, i64 8, !dbg !2286
  store i64 %6, ptr %7, align 8, !dbg !2286
; call core::fmt::builders::DebugStruct::field
  %_9 = call noundef align 8 dereferenceable(16) ptr @_ZN4core3fmt8builders11DebugStruct5field17ha9e91e16904b9623E(ptr noalias noundef nonnull align 8 dereferenceable(16) %span, ptr noalias noundef nonnull readonly align 1 @alloc_f00db71d77c58f05d86c38101680e143, i64 noundef 4, ptr noundef nonnull align 1 %_14, ptr noalias noundef nonnull readonly align 8 dereferenceable(32) @vtable.2), !dbg !2287
  call void @llvm.lifetime.start.p0(i64 8, ptr nonnull %_18), !dbg !2288
  store ptr %1, ptr %_18, align 8, !dbg !2289
; call core::fmt::builders::DebugStruct::field
  %_8 = call noundef align 8 dereferenceable(16) ptr @_ZN4core3fmt8builders11DebugStruct5field17ha9e91e16904b9623E(ptr noalias noundef nonnull align 8 dereferenceable(16) %_9, ptr noalias noundef nonnull readonly align 1 @alloc_0111fe86b05ecb68d77beaa0646d3caa, i64 noundef 5, ptr noundef nonnull align 1 %_18, ptr noalias noundef nonnull readonly align 8 dereferenceable(32) @vtable.3), !dbg !2287
  call void @llvm.lifetime.start.p0(i64 16, ptr nonnull %_22), !dbg !2290
  %8 = getelementptr inbounds i8, ptr %1, i64 32, !dbg !2291
  %9 = load ptr, ptr %8, align 8, !dbg !2291, !nonnull !24, !align !365, !noundef !24
  %10 = getelementptr inbounds i8, ptr %1, i64 40, !dbg !2291
  %11 = load i64, ptr %10, align 8, !dbg !2291, !noundef !24
  store ptr %9, ptr %_22, align 8, !dbg !2291
  %12 = getelementptr inbounds i8, ptr %_22, i64 8, !dbg !2291
  store i64 %11, ptr %12, align 8, !dbg !2291
; call core::fmt::builders::DebugStruct::field
  %_7 = call noundef align 8 dereferenceable(16) ptr @_ZN4core3fmt8builders11DebugStruct5field17ha9e91e16904b9623E(ptr noalias noundef nonnull align 8 dereferenceable(16) %_8, ptr noalias noundef nonnull readonly align 1 @alloc_5de5b778237022f7dfbd4b14eca9b832, i64 noundef 6, ptr noundef nonnull align 1 %_22, ptr noalias noundef nonnull readonly align 8 dereferenceable(32) @vtable.2), !dbg !2287
  call void @llvm.lifetime.end.p0(i64 16, ptr nonnull %_22), !dbg !2292
  call void @llvm.lifetime.end.p0(i64 8, ptr nonnull %_18), !dbg !2292
  call void @llvm.lifetime.end.p0(i64 16, ptr nonnull %_14), !dbg !2292
  %13 = load i64, ptr %self, align 8, !dbg !2293, !range !676, !noundef !24
  %14 = icmp eq i64 %13, 2, !dbg !2293
  br i1 %14, label %bb8, label %bb6, !dbg !2293

bb20:                                             ; preds = %start
; call core::fmt::builders::DebugStruct::field
  %_60 = call noundef align 8 dereferenceable(16) ptr @_ZN4core3fmt8builders11DebugStruct5field17ha9e91e16904b9623E(ptr noalias noundef nonnull align 8 dereferenceable(16) %span, ptr noalias noundef nonnull readonly align 1 @alloc_890cb1a408d0b866810322ffa0505985, i64 noundef 4, ptr noundef nonnull align 1 @alloc_8821998f047ca62cad40e6bc4e4d87c4, ptr noalias noundef nonnull readonly align 8 dereferenceable(32) @vtable.5), !dbg !2294
  br label %bb22, !dbg !2295

bb6:                                              ; preds = %bb2
  tail call void @llvm.dbg.value(metadata ptr %self, metadata !2218, metadata !DIExpression()), !dbg !2296
  call void @llvm.lifetime.start.p0(i64 8, ptr nonnull %_30), !dbg !2297
  tail call void @llvm.dbg.value(metadata ptr %self, metadata !2298, metadata !DIExpression()), !dbg !2305
  tail call void @llvm.dbg.value(metadata ptr %self, metadata !2307, metadata !DIExpression(DW_OP_plus_uconst, 24, DW_OP_stack_value)), !dbg !2311
  tail call void @llvm.dbg.value(metadata ptr %self, metadata !2313, metadata !DIExpression(DW_OP_plus_uconst, 24, DW_OP_stack_value)), !dbg !2317
  %15 = getelementptr inbounds i8, ptr %self, i64 24, !dbg !2319
  %_68 = load i64, ptr %15, align 8, !dbg !2319, !range !402, !noundef !24
  store i64 %_68, ptr %_30, align 8, !dbg !2320
; call core::fmt::builders::DebugStruct::field
  %_25 = call noundef align 8 dereferenceable(16) ptr @_ZN4core3fmt8builders11DebugStruct5field17ha9e91e16904b9623E(ptr noalias noundef nonnull align 8 dereferenceable(16) %span, ptr noalias noundef nonnull readonly align 1 @alloc_9fb7f5417e63e47f0143f7bd79a45fd4, i64 noundef 2, ptr noundef nonnull align 1 %_30, ptr noalias noundef nonnull readonly align 8 dereferenceable(32) @vtable.4), !dbg !2321
  call void @llvm.lifetime.end.p0(i64 8, ptr nonnull %_30), !dbg !2322
  br label %bb10, !dbg !2323

bb8:                                              ; preds = %bb2
; call core::fmt::builders::DebugStruct::field
  %_32 = call noundef align 8 dereferenceable(16) ptr @_ZN4core3fmt8builders11DebugStruct5field17ha9e91e16904b9623E(ptr noalias noundef nonnull align 8 dereferenceable(16) %span, ptr noalias noundef nonnull readonly align 1 @alloc_9e0d25f596c4d901f9d9d8b11bcd8165, i64 noundef 8, ptr noundef nonnull align 1 @alloc_8821998f047ca62cad40e6bc4e4d87c4, ptr noalias noundef nonnull readonly align 8 dereferenceable(32) @vtable.5), !dbg !2324
  br label %bb10, !dbg !2323

bb10:                                             ; preds = %bb8, %bb6
  call void @llvm.lifetime.start.p0(i64 16, ptr nonnull %_36), !dbg !2325
  %16 = getelementptr inbounds i8, ptr %1, i64 80, !dbg !2326
  %17 = load ptr, ptr %16, align 8, !dbg !2326, !align !365, !noundef !24
  %18 = getelementptr inbounds i8, ptr %1, i64 88, !dbg !2326
  %19 = load i64, ptr %18, align 8, !dbg !2326
  store ptr %17, ptr %_36, align 8, !dbg !2326
  %20 = getelementptr inbounds i8, ptr %_36, i64 8, !dbg !2326
  store i64 %19, ptr %20, align 8, !dbg !2326
  %21 = icmp eq ptr %17, null, !dbg !2327
  br i1 %21, label %bb13, label %bb11, !dbg !2327

bb11:                                             ; preds = %bb10
  call void @llvm.lifetime.start.p0(i64 8, ptr nonnull %path), !dbg !2228
  store ptr %_36, ptr %path, align 8, !dbg !2228
; call core::fmt::builders::DebugStruct::field
  %_39 = call noundef align 8 dereferenceable(16) ptr @_ZN4core3fmt8builders11DebugStruct5field17ha9e91e16904b9623E(ptr noalias noundef nonnull align 8 dereferenceable(16) %span, ptr noalias noundef nonnull readonly align 1 @alloc_846dc7a16a9288ad50db549f0e5b194d, i64 noundef 11, ptr noundef nonnull align 1 %path, ptr noalias noundef nonnull readonly align 8 dereferenceable(32) @vtable.6), !dbg !2328
  call void @llvm.lifetime.end.p0(i64 8, ptr nonnull %path), !dbg !2329
  br label %bb13, !dbg !2330

bb13:                                             ; preds = %bb10, %bb11
  call void @llvm.lifetime.end.p0(i64 16, ptr nonnull %_36), !dbg !2329
  call void @llvm.lifetime.start.p0(i64 8, ptr nonnull %_44), !dbg !2331
  %22 = getelementptr inbounds i8, ptr %1, i64 8, !dbg !2332
  %23 = load <2 x i32>, ptr %22, align 8, !dbg !2332
  store <2 x i32> %23, ptr %_44, align 8, !dbg !2332
  %24 = extractelement <2 x i32> %23, i64 0, !dbg !2333
  %trunc.not.not = icmp eq i32 %24, 0, !dbg !2333
  br i1 %trunc.not.not, label %bb16, label %bb14, !dbg !2333

bb14:                                             ; preds = %bb13
  %25 = getelementptr inbounds i8, ptr %_44, i64 4, !dbg !2332
  call void @llvm.lifetime.start.p0(i64 8, ptr nonnull %line), !dbg !2229
  store ptr %25, ptr %line, align 8, !dbg !2229
; call core::fmt::builders::DebugStruct::field
  %_47 = call noundef align 8 dereferenceable(16) ptr @_ZN4core3fmt8builders11DebugStruct5field17ha9e91e16904b9623E(ptr noalias noundef nonnull align 8 dereferenceable(16) %span, ptr noalias noundef nonnull readonly align 1 @alloc_228b951a53cd2b066a5833c8dc256a67, i64 noundef 4, ptr noundef nonnull align 1 %line, ptr noalias noundef nonnull readonly align 8 dereferenceable(32) @vtable.7), !dbg !2334
  call void @llvm.lifetime.end.p0(i64 8, ptr nonnull %line), !dbg !2335
  br label %bb16, !dbg !2336

bb16:                                             ; preds = %bb13, %bb14
  call void @llvm.lifetime.end.p0(i64 8, ptr nonnull %_44), !dbg !2335
  call void @llvm.lifetime.start.p0(i64 16, ptr nonnull %_52), !dbg !2337
  %26 = getelementptr inbounds i8, ptr %1, i64 96, !dbg !2338
  %27 = load ptr, ptr %26, align 8, !dbg !2338, !align !365, !noundef !24
  %28 = getelementptr inbounds i8, ptr %1, i64 104, !dbg !2338
  %29 = load i64, ptr %28, align 8, !dbg !2338
  store ptr %27, ptr %_52, align 8, !dbg !2338
  %30 = getelementptr inbounds i8, ptr %_52, i64 8, !dbg !2338
  store i64 %29, ptr %30, align 8, !dbg !2338
  %31 = icmp eq ptr %27, null, !dbg !2339
  br i1 %31, label %bb19, label %bb17, !dbg !2339

bb17:                                             ; preds = %bb16
  call void @llvm.lifetime.start.p0(i64 8, ptr nonnull %file), !dbg !2230
  store ptr %_52, ptr %file, align 8, !dbg !2230
; call core::fmt::builders::DebugStruct::field
  %_55 = call noundef align 8 dereferenceable(16) ptr @_ZN4core3fmt8builders11DebugStruct5field17ha9e91e16904b9623E(ptr noalias noundef nonnull align 8 dereferenceable(16) %span, ptr noalias noundef nonnull readonly align 1 @alloc_de7c89bfbe8cfcddfe41d5ea20bd02ee, i64 noundef 4, ptr noundef nonnull align 1 %file, ptr noalias noundef nonnull readonly align 8 dereferenceable(32) @vtable.6), !dbg !2340
  call void @llvm.lifetime.end.p0(i64 8, ptr nonnull %file), !dbg !2341
  br label %bb19, !dbg !2342

bb19:                                             ; preds = %bb16, %bb17
  call void @llvm.lifetime.end.p0(i64 16, ptr nonnull %_52), !dbg !2343
  br label %bb22, !dbg !2295

bb22:                                             ; preds = %bb20, %bb19
; call core::fmt::builders::DebugStruct::finish
  %_0 = call noundef zeroext i1 @_ZN4core3fmt8builders11DebugStruct6finish17hfe9f97b163d30fe5E(ptr noalias noundef nonnull align 8 dereferenceable(16) %span), !dbg !2344
  call void @llvm.lifetime.end.p0(i64 16, ptr nonnull %span), !dbg !2345
  ret i1 %_0, !dbg !2346
}

; tracing::span::<impl core::convert::From<tracing::span::Span> for core::option::Option<tracing_core::span::Id>>::from
; Function Attrs: nonlazybind uwtable
define noundef i64 @"_ZN7tracing4span127_$LT$impl$u20$core..convert..From$LT$tracing..span..Span$GT$$u20$for$u20$core..option..Option$LT$tracing_core..span..Id$GT$$GT$4from17h8d538b452812e918E"(ptr noalias nocapture noundef align 8 dereferenceable(40) %span) unnamed_addr #1 personality ptr @rust_eh_personality !dbg !2347 {
start:
  call void @llvm.dbg.declare(metadata ptr undef, metadata !2366, metadata !DIExpression()), !dbg !2393
  call void @llvm.dbg.declare(metadata ptr %span, metadata !2365, metadata !DIExpression()), !dbg !2395
  tail call void @llvm.dbg.value(metadata ptr %span, metadata !2396, metadata !DIExpression()), !dbg !2405
  %0 = load i64, ptr %span, align 8, !dbg !2407, !range !676, !noundef !24
  %1 = icmp eq i64 %0, 2, !dbg !2407
  br i1 %1, label %"_ZN4core3ptr40drop_in_place$LT$tracing..span..Span$GT$17h47c79a7196b31a47E.exit", label %bb1.i.i, !dbg !2408

bb1.i.i:                                          ; preds = %start
  tail call void @llvm.dbg.value(metadata ptr %span, metadata !2390, metadata !DIExpression()), !dbg !2409
  tail call void @llvm.dbg.value(metadata ptr %span, metadata !2391, metadata !DIExpression()), !dbg !2410
  %2 = getelementptr inbounds i8, ptr %span, i64 24, !dbg !2411
  %span.val = load i64, ptr %2, align 8, !dbg !2411, !range !402, !noundef !24
  call void @llvm.dbg.value(metadata ptr %span, metadata !656, metadata !DIExpression()), !dbg !2412
  call void @llvm.dbg.value(metadata ptr %span, metadata !660, metadata !DIExpression()), !dbg !2414
  call void @llvm.dbg.value(metadata ptr %span, metadata !668, metadata !DIExpression(DW_OP_plus_uconst, 24, DW_OP_stack_value)), !dbg !2416
  call void @llvm.dbg.value(metadata ptr %span, metadata !671, metadata !DIExpression()), !dbg !2416
; invoke tracing_core::dispatcher::Dispatch::try_close
  %_5.i1.i = invoke noundef zeroext i1 @_ZN12tracing_core10dispatcher8Dispatch9try_close17h696bcd9c55eb65b8E(ptr noalias noundef nonnull readonly align 8 dereferenceable(24) %span, i64 noundef %span.val)
          to label %bb2.i.i unwind label %cleanup.i, !dbg !2417

cleanup.i:                                        ; preds = %bb1.i.i
  %3 = landingpad { ptr, i32 }
          cleanup
; invoke core::ptr::drop_in_place<core::option::Option<tracing::span::Inner>>
  invoke fastcc void @"_ZN4core3ptr69drop_in_place$LT$core..option..Option$LT$tracing..span..Inner$GT$$GT$17h1db1e8740abf1046E"(ptr noalias noundef nonnull align 8 dereferenceable(32) %span) #15
          to label %bb1.i unwind label %terminate.i, !dbg !2418

bb2.i.i:                                          ; preds = %bb1.i.i
  tail call void @llvm.experimental.noalias.scope.decl(metadata !2419), !dbg !2418
  call void @llvm.dbg.value(metadata ptr %span, metadata !706, metadata !DIExpression()), !dbg !2422
  tail call void @llvm.experimental.noalias.scope.decl(metadata !2424), !dbg !2427
  call void @llvm.dbg.value(metadata ptr %span, metadata !720, metadata !DIExpression()), !dbg !2428
  tail call void @llvm.experimental.noalias.scope.decl(metadata !2430), !dbg !2433
  call void @llvm.dbg.value(metadata ptr %span, metadata !732, metadata !DIExpression()), !dbg !2434
  tail call void @llvm.experimental.noalias.scope.decl(metadata !2436), !dbg !2439
  call void @llvm.dbg.value(metadata ptr %span, metadata !746, metadata !DIExpression()), !dbg !2440
  %4 = icmp eq i64 %0, 0, !dbg !2442
  br i1 %4, label %"_ZN4core3ptr40drop_in_place$LT$tracing..span..Span$GT$17h47c79a7196b31a47E.exit", label %bb2.i.i.i.i.i, !dbg !2442

bb2.i.i.i.i.i:                                    ; preds = %bb2.i.i
  %5 = getelementptr inbounds i8, ptr %span, i64 8, !dbg !2442
  tail call void @llvm.experimental.noalias.scope.decl(metadata !2443), !dbg !2442
  call void @llvm.dbg.value(metadata ptr %5, metadata !760, metadata !DIExpression()), !dbg !2446
  tail call void @llvm.experimental.noalias.scope.decl(metadata !2448), !dbg !2451
  call void @llvm.dbg.value(metadata i64 1, metadata !772, metadata !DIExpression()), !dbg !2452
  call void @llvm.dbg.value(metadata i8 1, metadata !782, metadata !DIExpression()), !dbg !2452
  call void @llvm.dbg.value(metadata i64 1, metadata !794, metadata !DIExpression()), !dbg !2455
  call void @llvm.dbg.value(metadata i8 1, metadata !802, metadata !DIExpression()), !dbg !2455
  call void @llvm.dbg.value(metadata i8 2, metadata !805, metadata !DIExpression()), !dbg !2457
  call void @llvm.dbg.value(metadata ptr %5, metadata !792, metadata !DIExpression()), !dbg !2459
  call void @llvm.dbg.value(metadata ptr %5, metadata !814, metadata !DIExpression()), !dbg !2460
  call void @llvm.dbg.value(metadata ptr %5, metadata !828, metadata !DIExpression()), !dbg !2462
  %self.0.i.i.i.i.i.i.i = load ptr, ptr %5, align 8, !dbg !2464, !alias.scope !2465, !nonnull !24, !noundef !24
  call void @llvm.dbg.value(metadata ptr %self.0.i.i.i.i.i.i.i, metadata !781, metadata !DIExpression()), !dbg !2452
  call void @llvm.dbg.value(metadata ptr %self.0.i.i.i.i.i.i.i, metadata !801, metadata !DIExpression()), !dbg !2455
  %6 = atomicrmw sub ptr %self.0.i.i.i.i.i.i.i, i64 1 release, align 8, !dbg !2468, !noalias !2469
  %7 = icmp eq i64 %6, 1, !dbg !2470
  br i1 %7, label %bb2.i.i.i.i.i.i.i, label %"_ZN4core3ptr40drop_in_place$LT$tracing..span..Span$GT$17h47c79a7196b31a47E.exit", !dbg !2470

bb2.i.i.i.i.i.i.i:                                ; preds = %bb2.i.i.i.i.i
  fence acquire, !dbg !2471
; call alloc::sync::Arc<T,A>::drop_slow
  tail call fastcc void @"_ZN5alloc4sync16Arc$LT$T$C$A$GT$9drop_slow17hd8d6316731aaf9c7E"(ptr noalias noundef nonnull align 8 dereferenceable(16) %5), !dbg !2472
  br label %"_ZN4core3ptr40drop_in_place$LT$tracing..span..Span$GT$17h47c79a7196b31a47E.exit", !dbg !2472

terminate.i:                                      ; preds = %cleanup.i
  %8 = landingpad { ptr, i32 }
          filter [0 x ptr] zeroinitializer
; call core::panicking::panic_in_cleanup
  tail call void @_ZN4core9panicking16panic_in_cleanup17h43442956f23e9cbeE() #16, !dbg !2418
  unreachable, !dbg !2418

bb1.i:                                            ; preds = %cleanup.i
  resume { ptr, i32 } %3, !dbg !2418

"_ZN4core3ptr40drop_in_place$LT$tracing..span..Span$GT$17h47c79a7196b31a47E.exit": ; preds = %start, %bb2.i.i, %bb2.i.i.i.i.i, %bb2.i.i.i.i.i.i.i
  %_0.sroa.0.03 = phi i64 [ %span.val, %bb2.i.i ], [ %span.val, %bb2.i.i.i.i.i ], [ %span.val, %bb2.i.i.i.i.i.i.i ], [ 0, %start ]
  ret i64 %_0.sroa.0.03, !dbg !2473
}

; tracing::span::Inner::follows_from
; Function Attrs: nonlazybind uwtable
define void @_ZN7tracing4span5Inner12follows_from17h8fe19d9e75b9f9c8E(ptr noalias noundef readonly align 8 dereferenceable(32) %self, ptr noalias noundef readonly align 8 dereferenceable(8) %from) unnamed_addr #1 !dbg !2474 {
start:
  tail call void @llvm.dbg.value(metadata ptr %self, metadata !2479, metadata !DIExpression()), !dbg !2481
  tail call void @llvm.dbg.value(metadata ptr %from, metadata !2480, metadata !DIExpression()), !dbg !2481
  tail call void @llvm.experimental.noalias.scope.decl(metadata !2482), !dbg !2485
  call void @llvm.dbg.value(metadata ptr %self, metadata !2486, metadata !DIExpression()), !dbg !2494
  call void @llvm.dbg.value(metadata ptr %self, metadata !2496, metadata !DIExpression()), !dbg !2504
  call void @llvm.dbg.value(metadata ptr %self, metadata !2492, metadata !DIExpression(DW_OP_plus_uconst, 24, DW_OP_stack_value)), !dbg !2494
  call void @llvm.dbg.value(metadata ptr %from, metadata !2493, metadata !DIExpression()), !dbg !2494
  %_6.i = load i64, ptr %self, align 8, !dbg !2506, !range !1789, !alias.scope !2482, !noalias !2507, !noundef !24
  %trunc.not.i = icmp eq i64 %_6.i, 0, !dbg !2510
  %0 = getelementptr inbounds i8, ptr %self, i64 8, !dbg !2504
  %s.0.i = load ptr, ptr %0, align 8, !dbg !2504, !alias.scope !2482, !noalias !2507, !nonnull !24, !noundef !24
  %1 = getelementptr inbounds i8, ptr %self, i64 16, !dbg !2504
  %s.1.i = load ptr, ptr %1, align 8, !dbg !2504, !alias.scope !2482, !noalias !2507, !nonnull !24, !align !340, !noundef !24
  br i1 %trunc.not.i, label %_ZN12tracing_core10dispatcher8Dispatch19record_follows_from17h1a291b18dbfec646E.exit, label %bb3.i, !dbg !2510

bb3.i:                                            ; preds = %start
  call void @llvm.dbg.value(metadata ptr %self, metadata !2502, metadata !DIExpression(DW_OP_plus_uconst, 8, DW_OP_stack_value)), !dbg !2511
  %2 = getelementptr inbounds i8, ptr %s.1.i, i64 16, !dbg !2512
  %3 = load i64, ptr %2, align 8, !dbg !2512, !range !402, !invariant.load !24, !noalias !2513
  %4 = add i64 %3, -1, !dbg !2512
  %5 = and i64 %4, -16, !dbg !2512
  %6 = getelementptr i8, ptr %s.0.i, i64 %5, !dbg !2512
  %_9.0.i = getelementptr i8, ptr %6, i64 16, !dbg !2512
  br label %_ZN12tracing_core10dispatcher8Dispatch19record_follows_from17h1a291b18dbfec646E.exit, !dbg !2514

_ZN12tracing_core10dispatcher8Dispatch19record_follows_from17h1a291b18dbfec646E.exit: ; preds = %start, %bb3.i
  %_5.sroa.0.0.i = phi ptr [ %_9.0.i, %bb3.i ], [ %s.0.i, %start ], !dbg !2504
  %_4 = getelementptr inbounds i8, ptr %self, i64 24, !dbg !2515
  call void @llvm.dbg.value(metadata ptr %_4, metadata !2492, metadata !DIExpression()), !dbg !2494
  %7 = getelementptr inbounds i8, ptr %s.1.i, i64 72, !dbg !2516
  %8 = load ptr, ptr %7, align 8, !dbg !2516, !invariant.load !24, !noalias !2513, !nonnull !24
  tail call void %8(ptr noundef align 1 %_5.sroa.0.0.i, ptr noalias noundef nonnull readonly align 8 dereferenceable(8) %_4, ptr noalias noundef nonnull readonly align 8 dereferenceable(8) %from), !dbg !2516, !noalias !2482
  ret void, !dbg !2517
}

; <tracing::span::Inner as core::clone::Clone>::clone
; Function Attrs: nonlazybind uwtable
define void @"_ZN59_$LT$tracing..span..Inner$u20$as$u20$core..clone..Clone$GT$5clone17h37f2e3fa69938b2fE"(ptr dead_on_unwind noalias nocapture noundef writable writeonly sret([32 x i8]) align 8 dereferenceable(32) %_0, ptr noalias noundef readonly align 8 dereferenceable(32) %self) unnamed_addr #1 !dbg !2518 {
start:
  tail call void @llvm.dbg.value(metadata ptr %self, metadata !2523, metadata !DIExpression()), !dbg !2524
  %_4 = getelementptr inbounds i8, ptr %self, i64 24, !dbg !2525
  call void @llvm.dbg.value(metadata ptr %self, metadata !1718, metadata !DIExpression()), !dbg !2526
  call void @llvm.dbg.value(metadata ptr %self, metadata !1727, metadata !DIExpression()), !dbg !2528
  call void @llvm.dbg.value(metadata ptr %_4, metadata !1724, metadata !DIExpression()), !dbg !2526
  %_5.i = load i64, ptr %self, align 8, !dbg !2530, !range !1789, !noundef !24
  %trunc.not.i = icmp eq i64 %_5.i, 0, !dbg !2531
  %0 = getelementptr inbounds i8, ptr %self, i64 8, !dbg !2528
  %s.0.i = load ptr, ptr %0, align 8, !dbg !2528, !nonnull !24, !noundef !24
  %1 = getelementptr inbounds i8, ptr %self, i64 16, !dbg !2528
  %s.1.i = load ptr, ptr %1, align 8, !dbg !2528, !nonnull !24, !align !340, !noundef !24
  br i1 %trunc.not.i, label %_ZN12tracing_core10dispatcher8Dispatch10clone_span17h346e639c91ef3422E.exit.thread, label %bb4, !dbg !2531

_ZN12tracing_core10dispatcher8Dispatch10clone_span17h346e639c91ef3422E.exit.thread: ; preds = %start
  %2 = getelementptr inbounds i8, ptr %s.1.i, i64 112, !dbg !2532
  %3 = load ptr, ptr %2, align 8, !dbg !2532, !invariant.load !24, !noalias !2533, !nonnull !24
  %_0.i9 = tail call noundef i64 %3(ptr noundef nonnull align 1 %s.0.i, ptr noalias noundef nonnull readonly align 8 dereferenceable(8) %_4), !dbg !2532, !range !402, !noalias !2537
  tail call void @llvm.dbg.value(metadata ptr %self, metadata !2538, metadata !DIExpression()), !dbg !2542
  tail call void @llvm.dbg.value(metadata ptr %self, metadata !2544, metadata !DIExpression()), !dbg !2552
  br label %bb2, !dbg !2554

bb4:                                              ; preds = %start
  call void @llvm.dbg.value(metadata ptr %self, metadata !1733, metadata !DIExpression(DW_OP_plus_uconst, 8, DW_OP_stack_value)), !dbg !2555
  %4 = getelementptr inbounds i8, ptr %s.1.i, i64 16, !dbg !2556
  %5 = load i64, ptr %4, align 8, !dbg !2556, !range !402, !invariant.load !24, !noalias !2533
  %6 = add i64 %5, -1, !dbg !2556
  %7 = and i64 %6, -16, !dbg !2556
  %8 = getelementptr i8, ptr %s.0.i, i64 %7, !dbg !2556
  %_8.0.i = getelementptr i8, ptr %8, i64 16, !dbg !2556
  %9 = getelementptr inbounds i8, ptr %s.1.i, i64 112, !dbg !2532
  %10 = load ptr, ptr %9, align 8, !dbg !2532, !invariant.load !24, !noalias !2533, !nonnull !24
  %_0.i = tail call noundef i64 %10(ptr noundef align 1 %_8.0.i, ptr noalias noundef nonnull readonly align 8 dereferenceable(8) %_4), !dbg !2532, !range !402, !noalias !2537
  tail call void @llvm.dbg.value(metadata ptr %self, metadata !2538, metadata !DIExpression()), !dbg !2542
  tail call void @llvm.dbg.value(metadata ptr %self, metadata !2544, metadata !DIExpression()), !dbg !2552
  tail call void @llvm.dbg.value(metadata ptr %self, metadata !2550, metadata !DIExpression(DW_OP_plus_uconst, 8, DW_OP_stack_value)), !dbg !2557
  call void @llvm.dbg.value(metadata i64 1, metadata !1410, metadata !DIExpression()), !dbg !2558
  call void @llvm.dbg.value(metadata i8 0, metadata !1416, metadata !DIExpression()), !dbg !2558
  call void @llvm.dbg.value(metadata i64 1, metadata !1428, metadata !DIExpression()), !dbg !2561
  call void @llvm.dbg.value(metadata i8 0, metadata !1433, metadata !DIExpression()), !dbg !2561
  call void @llvm.dbg.value(metadata ptr undef, metadata !1424, metadata !DIExpression()), !dbg !2563
  call void @llvm.dbg.value(metadata ptr %s.0.i, metadata !1415, metadata !DIExpression()), !dbg !2558
  call void @llvm.dbg.value(metadata ptr %s.0.i, metadata !1432, metadata !DIExpression()), !dbg !2561
  %11 = atomicrmw add ptr %s.0.i, i64 1 monotonic, align 8, !dbg !2564
  call void @llvm.dbg.value(metadata i64 %11, metadata !1425, metadata !DIExpression()), !dbg !2565
  %_4.i = icmp slt i64 %11, 0, !dbg !2566
  br i1 %_4.i, label %bb1.i, label %bb2, !dbg !2566

bb1.i:                                            ; preds = %bb4
  tail call void @llvm.trap(), !dbg !2567
  unreachable, !dbg !2567

bb2:                                              ; preds = %bb4, %_ZN12tracing_core10dispatcher8Dispatch10clone_span17h346e639c91ef3422E.exit.thread
  %_0.i10 = phi i64 [ %_0.i9, %_ZN12tracing_core10dispatcher8Dispatch10clone_span17h346e639c91ef3422E.exit.thread ], [ %_0.i, %bb4 ]
  %_7.sroa.0.0 = phi i64 [ 0, %_ZN12tracing_core10dispatcher8Dispatch10clone_span17h346e639c91ef3422E.exit.thread ], [ 1, %bb4 ], !dbg !2554
  %12 = getelementptr inbounds i8, ptr %_0, i64 24, !dbg !2568
  store i64 %_0.i10, ptr %12, align 8, !dbg !2568
  store i64 %_7.sroa.0.0, ptr %_0, align 8, !dbg !2568
  %_5.sroa.4.0._0.sroa_idx = getelementptr inbounds i8, ptr %_0, i64 8, !dbg !2568
  store ptr %s.0.i, ptr %_5.sroa.4.0._0.sroa_idx, align 8, !dbg !2568
  %_5.sroa.5.0._0.sroa_idx = getelementptr inbounds i8, ptr %_0, i64 16, !dbg !2568
  store ptr %s.1.i, ptr %_5.sroa.5.0._0.sroa_idx, align 8, !dbg !2568
  ret void, !dbg !2569
}

; tracing::span::EnteredSpan::id
; Function Attrs: mustprogress nofree norecurse nosync nounwind nonlazybind willreturn memory(argmem: read) uwtable
define noundef i64 @_ZN7tracing4span11EnteredSpan2id17h0f02edace31f44dcE(ptr noalias nocapture noundef readonly align 8 dereferenceable(40) %self) unnamed_addr #4 !dbg !2570 {
start:
  tail call void @llvm.dbg.value(metadata ptr %self, metadata !2587, metadata !DIExpression()), !dbg !2588
  tail call void @llvm.dbg.value(metadata ptr %self, metadata !2589, metadata !DIExpression()), !dbg !2595
  %0 = load i64, ptr %self, align 8, !dbg !2597, !range !676, !noundef !24
  %1 = icmp eq i64 %0, 2, !dbg !2597
  %2 = getelementptr inbounds i8, ptr %self, i64 24, !dbg !2598
  %self.val = load i64, ptr %2, align 8, !dbg !2598, !range !402
  %_0.sroa.0.0 = select i1 %1, i64 0, i64 %self.val, !dbg !2598
  ret i64 %_0.sroa.0.0, !dbg !2599
}

; tracing::__macro_support::__is_enabled
; Function Attrs: nonlazybind uwtable
define noundef zeroext i1 @_ZN7tracing15__macro_support12__is_enabled17h74586a1e8af97b13E(ptr noalias noundef readonly align 8 dereferenceable(120) %0, i8 noundef %1) unnamed_addr #1 personality ptr @rust_eh_personality !dbg !2600 {
start:
  tail call void @llvm.dbg.value(metadata ptr %0, metadata !2609, metadata !DIExpression()), !dbg !2611
  tail call void @llvm.dbg.value(metadata i8 %1, metadata !2610, metadata !DIExpression()), !dbg !2611
  %2 = icmp eq i8 %1, 2, !dbg !2612
  br i1 %2, label %bb4, label %bb2, !dbg !2612

bb2:                                              ; preds = %start
  call void @llvm.dbg.value(metadata ptr @_ZN12tracing_core10dispatcher11GLOBAL_INIT17h32115fdb9b27e6eeE, metadata !2613, metadata !DIExpression()), !dbg !2618
  call void @llvm.dbg.value(metadata i8 4, metadata !2617, metadata !DIExpression()), !dbg !2618
  call void @llvm.dbg.value(metadata ptr undef, metadata !2631, metadata !DIExpression()), !dbg !2636
  call void @llvm.dbg.value(metadata i8 4, metadata !1239, metadata !DIExpression()), !dbg !2637
  call void @llvm.dbg.value(metadata ptr @_ZN12tracing_core10dispatcher11GLOBAL_INIT17h32115fdb9b27e6eeE, metadata !1245, metadata !DIExpression()), !dbg !2637
  %3 = load atomic i64, ptr @_ZN12tracing_core10dispatcher11GLOBAL_INIT17h32115fdb9b27e6eeE seq_cst, align 8, !dbg !2639, !noalias !2640
  %_6.not.i = icmp eq i64 %3, 2, !dbg !2643
  call void @llvm.dbg.value(metadata ptr undef, metadata !2644, metadata !DIExpression(DW_OP_deref, DW_OP_deref)), !dbg !2651
  call void @llvm.dbg.value(metadata ptr poison, metadata !2650, metadata !DIExpression()), !dbg !2651
  call void @llvm.dbg.value(metadata ptr poison, metadata !2653, metadata !DIExpression()), !dbg !2660
  call void @llvm.dbg.value(metadata ptr poison, metadata !2662, metadata !DIExpression()), !dbg !2670
  call void @llvm.dbg.value(metadata ptr %0, metadata !2659, metadata !DIExpression()), !dbg !2660
  %_ZN12tracing_core10dispatcher15GLOBAL_DISPATCH17h87fe84e1b4a2c89aE.val.i = load i64, ptr @_ZN12tracing_core10dispatcher15GLOBAL_DISPATCH17h87fe84e1b4a2c89aE, align 8, !dbg !2672, !noalias !2640
  %_ZN12tracing_core10dispatcher4NONE17h6e5b38c8436baf83E.val.i = load i64, ptr @_ZN12tracing_core10dispatcher4NONE17h6e5b38c8436baf83E, align 8, !dbg !2672, !noalias !2640
  %_5.i.i.i = select i1 %_6.not.i, i64 %_ZN12tracing_core10dispatcher15GLOBAL_DISPATCH17h87fe84e1b4a2c89aE.val.i, i64 %_ZN12tracing_core10dispatcher4NONE17h6e5b38c8436baf83E.val.i, !dbg !2672
  %trunc.not.i.i.i = icmp eq i64 %_5.i.i.i, 0, !dbg !2673
  %.val.i = load ptr, ptr getelementptr inbounds (%"tracing_core::dispatcher::Dispatch", ptr @_ZN12tracing_core10dispatcher15GLOBAL_DISPATCH17h87fe84e1b4a2c89aE, i64 0, i32 0, i32 1, i64 0), align 8, !dbg !2670, !noalias !2640
  %.val2.i = load ptr, ptr getelementptr inbounds (%"tracing_core::dispatcher::Dispatch", ptr @_ZN12tracing_core10dispatcher4NONE17h6e5b38c8436baf83E, i64 0, i32 0, i32 1, i64 0), align 8, !dbg !2670, !noalias !2640
  %s.0.i.i.i = select i1 %_6.not.i, ptr %.val.i, ptr %.val2.i, !dbg !2670
  %.val3.i = load ptr, ptr getelementptr inbounds (%"tracing_core::dispatcher::Dispatch", ptr @_ZN12tracing_core10dispatcher15GLOBAL_DISPATCH17h87fe84e1b4a2c89aE, i64 0, i32 0, i32 1, i64 1), align 8, !dbg !2670, !noalias !2640
  %.val4.i = load ptr, ptr getelementptr inbounds (%"tracing_core::dispatcher::Dispatch", ptr @_ZN12tracing_core10dispatcher4NONE17h6e5b38c8436baf83E, i64 0, i32 0, i32 1, i64 1), align 8, !dbg !2670, !noalias !2640
  %s.1.i.i.i = select i1 %_6.not.i, ptr %.val3.i, ptr %.val4.i, !dbg !2670
  br i1 %trunc.not.i.i.i, label %_ZN12tracing_core10dispatcher11get_default17hdee5e8a125730734E.exit, label %bb3.i.i.i, !dbg !2673

bb3.i.i.i:                                        ; preds = %bb2
  call void @llvm.dbg.value(metadata ptr poison, metadata !2668, metadata !DIExpression(DW_OP_plus_uconst, 8, DW_OP_stack_value)), !dbg !2674
  %4 = getelementptr inbounds i8, ptr %s.1.i.i.i, i64 16, !dbg !2675
  %5 = load i64, ptr %4, align 8, !dbg !2675, !range !402, !invariant.load !24, !noalias !2676
  %6 = add i64 %5, -1, !dbg !2675
  %7 = and i64 %6, -16, !dbg !2675
  %8 = getelementptr i8, ptr %s.0.i.i.i, i64 %7, !dbg !2675
  %_8.0.i.i.i = getelementptr i8, ptr %8, i64 16, !dbg !2675
  br label %_ZN12tracing_core10dispatcher11get_default17hdee5e8a125730734E.exit, !dbg !2682

_ZN12tracing_core10dispatcher11get_default17hdee5e8a125730734E.exit: ; preds = %bb2, %bb3.i.i.i
  %_4.sroa.0.0.i.i.i = phi ptr [ %_8.0.i.i.i, %bb3.i.i.i ], [ %s.0.i.i.i, %bb2 ], !dbg !2670
  %9 = getelementptr inbounds i8, ptr %s.1.i.i.i, i64 40, !dbg !2683
  %10 = load ptr, ptr %9, align 8, !dbg !2683, !invariant.load !24, !noalias !2676, !nonnull !24
  %_0.i.i.i = tail call noundef zeroext i1 %10(ptr noundef align 1 %_4.sroa.0.0.i.i.i, ptr noalias noundef nonnull readonly align 8 dereferenceable(120) %0), !dbg !2683, !noalias !2684
  br label %bb4, !dbg !2612

bb4:                                              ; preds = %start, %_ZN12tracing_core10dispatcher11get_default17hdee5e8a125730734E.exit
  %_0.sroa.0.0 = phi i1 [ %_0.i.i.i, %_ZN12tracing_core10dispatcher11get_default17hdee5e8a125730734E.exit ], [ true, %start ], !dbg !2685
  ret i1 %_0.sroa.0.0, !dbg !2686
}

; Function Attrs: nonlazybind uwtable
declare noundef i32 @rust_eh_personality(i32 noundef, i32 noundef, i64 noundef, ptr noundef, ptr noundef) unnamed_addr #1

; Function Attrs: mustprogress nocallback nofree nosync nounwind speculatable willreturn memory(none)
declare void @llvm.dbg.declare(metadata, metadata, metadata) #5

; <bool as core::fmt::Display>::fmt
; Function Attrs: nonlazybind uwtable
declare noundef zeroext i1 @"_ZN43_$LT$bool$u20$as$u20$core..fmt..Display$GT$3fmt17he691df9786a4e217E"(ptr noalias noundef readonly align 1 dereferenceable(1), ptr noalias noundef align 8 dereferenceable(64)) unnamed_addr #1

; <str as core::fmt::Debug>::fmt
; Function Attrs: nonlazybind uwtable
declare noundef zeroext i1 @"_ZN40_$LT$str$u20$as$u20$core..fmt..Debug$GT$3fmt17h8addf800304f3e1bE"(ptr noalias noundef nonnull readonly align 1, i64 noundef, ptr noalias noundef align 8 dereferenceable(64)) unnamed_addr #1

; core::fmt::num::imp::<impl core::fmt::Display for u32>::fmt
; Function Attrs: nonlazybind uwtable
declare noundef zeroext i1 @"_ZN4core3fmt3num3imp52_$LT$impl$u20$core..fmt..Display$u20$for$u20$u32$GT$3fmt17h2bca854f0e3dfdc9E"(ptr noalias noundef readonly align 4 dereferenceable(4), ptr noalias noundef align 8 dereferenceable(64)) unnamed_addr #1

; core::fmt::num::<impl core::fmt::UpperHex for u32>::fmt
; Function Attrs: nonlazybind uwtable
declare noundef zeroext i1 @"_ZN4core3fmt3num53_$LT$impl$u20$core..fmt..UpperHex$u20$for$u20$u32$GT$3fmt17h3eaafe46ae0cfb90E"(ptr noalias noundef readonly align 4 dereferenceable(4), ptr noalias noundef align 8 dereferenceable(64)) unnamed_addr #1

; core::fmt::num::<impl core::fmt::LowerHex for u32>::fmt
; Function Attrs: nonlazybind uwtable
declare noundef zeroext i1 @"_ZN4core3fmt3num53_$LT$impl$u20$core..fmt..LowerHex$u20$for$u20$u32$GT$3fmt17h07f79dd16b39935fE"(ptr noalias noundef readonly align 4 dereferenceable(4), ptr noalias noundef align 8 dereferenceable(64)) unnamed_addr #1

; core::fmt::num::imp::<impl core::fmt::Display for u64>::fmt
; Function Attrs: nonlazybind uwtable
declare noundef zeroext i1 @"_ZN4core3fmt3num3imp52_$LT$impl$u20$core..fmt..Display$u20$for$u20$u64$GT$3fmt17hc7ee99daaeefde73E"(ptr noalias noundef readonly align 8 dereferenceable(8), ptr noalias noundef align 8 dereferenceable(64)) unnamed_addr #1

; core::fmt::num::<impl core::fmt::UpperHex for u64>::fmt
; Function Attrs: nonlazybind uwtable
declare noundef zeroext i1 @"_ZN4core3fmt3num53_$LT$impl$u20$core..fmt..UpperHex$u20$for$u20$u64$GT$3fmt17he7726eb1d6454ad2E"(ptr noalias noundef readonly align 8 dereferenceable(8), ptr noalias noundef align 8 dereferenceable(64)) unnamed_addr #1

; core::fmt::num::<impl core::fmt::LowerHex for u64>::fmt
; Function Attrs: nonlazybind uwtable
declare noundef zeroext i1 @"_ZN4core3fmt3num53_$LT$impl$u20$core..fmt..LowerHex$u20$for$u20$u64$GT$3fmt17hb613d61cf5457bc2E"(ptr noalias noundef readonly align 8 dereferenceable(8), ptr noalias noundef align 8 dereferenceable(64)) unnamed_addr #1

; core::panicking::panic_in_cleanup
; Function Attrs: cold noinline noreturn nounwind nonlazybind uwtable
declare void @_ZN4core9panicking16panic_in_cleanup17h43442956f23e9cbeE() unnamed_addr #6

; core::fmt::Formatter::debug_tuple_field1_finish
; Function Attrs: nonlazybind uwtable
declare noundef zeroext i1 @_ZN4core3fmt9Formatter25debug_tuple_field1_finish17hda02114f9a9fecb7E(ptr noalias noundef align 8 dereferenceable(64), ptr noalias noundef nonnull readonly align 1, i64 noundef, ptr noundef nonnull align 1, ptr noalias noundef readonly align 8 dereferenceable(32)) unnamed_addr #1

; Function Attrs: mustprogress nocallback nofree nosync nounwind willreturn memory(inaccessiblemem: write)
declare void @llvm.assume(i1 noundef) #7

; Function Attrs: nounwind nonlazybind allockind("free") uwtable
declare void @__rust_dealloc(ptr allocptr noundef, i64 noundef, i64 noundef) unnamed_addr #8

; Function Attrs: cold noreturn nounwind memory(inaccessiblemem: write)
declare void @llvm.trap() #9

; core::fmt::Formatter::write_str
; Function Attrs: nonlazybind uwtable
declare noundef zeroext i1 @_ZN4core3fmt9Formatter9write_str17h35be9e09c65db375E(ptr noalias noundef align 8 dereferenceable(64), ptr noalias noundef nonnull readonly align 1, i64 noundef) unnamed_addr #1

; Function Attrs: mustprogress nocallback nofree nounwind willreturn memory(argmem: readwrite)
declare void @llvm.memcpy.p0.p0.i64(ptr noalias nocapture writeonly, ptr noalias nocapture readonly, i64, i1 immarg) #10

; core::fmt::Formatter::debug_struct
; Function Attrs: nonlazybind uwtable
declare void @_ZN4core3fmt9Formatter12debug_struct17hfe55f8660bb7c366E(ptr dead_on_unwind noalias nocapture noundef writable sret([16 x i8]) align 8 dereferenceable(16), ptr noalias noundef align 8 dereferenceable(64), ptr noalias noundef nonnull readonly align 1, i64 noundef) unnamed_addr #1

; core::fmt::builders::DebugStruct::field
; Function Attrs: nonlazybind uwtable
declare noundef align 8 dereferenceable(16) ptr @_ZN4core3fmt8builders11DebugStruct5field17ha9e91e16904b9623E(ptr noalias noundef align 8 dereferenceable(16), ptr noalias noundef nonnull readonly align 1, i64 noundef, ptr noundef nonnull align 1, ptr noalias noundef readonly align 8 dereferenceable(32)) unnamed_addr #1

; core::fmt::builders::DebugStruct::finish
; Function Attrs: nonlazybind uwtable
declare noundef zeroext i1 @_ZN4core3fmt8builders11DebugStruct6finish17hfe9f97b163d30fe5E(ptr noalias noundef align 8 dereferenceable(16)) unnamed_addr #1

; tracing_core::dispatcher::Dispatch::try_close
; Function Attrs: nonlazybind uwtable
declare noundef zeroext i1 @_ZN12tracing_core10dispatcher8Dispatch9try_close17h696bcd9c55eb65b8E(ptr noalias noundef readonly align 8 dereferenceable(24), i64 noundef) unnamed_addr #1

; Function Attrs: mustprogress nocallback nofree nosync nounwind willreturn memory(argmem: readwrite)
declare void @llvm.lifetime.start.p0(i64 immarg, ptr nocapture) #11

; Function Attrs: mustprogress nocallback nofree nosync nounwind willreturn memory(argmem: readwrite)
declare void @llvm.lifetime.end.p0(i64 immarg, ptr nocapture) #11

; Function Attrs: nocallback nofree nosync nounwind speculatable willreturn memory(none)
declare void @llvm.dbg.value(metadata, metadata, metadata) #12

; Function Attrs: nocallback nofree nosync nounwind speculatable willreturn memory(none)
declare i64 @llvm.umax.i64(i64, i64) #12

; Function Attrs: nocallback nofree nosync nounwind willreturn memory(inaccessiblemem: readwrite)
declare void @llvm.experimental.noalias.scope.decl(metadata) #13

; Function Attrs: nocallback nofree nosync nounwind willreturn memory(argmem: read)
declare ptr @llvm.load.relative.i64(ptr, i64) #14

attributes #0 = { inlinehint nonlazybind uwtable "probe-stack"="inline-asm" "target-cpu"="x86-64" }
attributes #1 = { nonlazybind uwtable "probe-stack"="inline-asm" "target-cpu"="x86-64" }
attributes #2 = { noinline nonlazybind uwtable "probe-stack"="inline-asm" "target-cpu"="x86-64" }
attributes #3 = { mustprogress nofree norecurse nosync nounwind nonlazybind willreturn memory(read, inaccessiblemem: none) uwtable "probe-stack"="inline-asm" "target-cpu"="x86-64" }
attributes #4 = { mustprogress nofree norecurse nosync nounwind nonlazybind willreturn memory(argmem: read) uwtable "probe-stack"="inline-asm" "target-cpu"="x86-64" }
attributes #5 = { mustprogress nocallback nofree nosync nounwind speculatable willreturn memory(none) }
attributes #6 = { cold noinline noreturn nounwind nonlazybind uwtable "probe-stack"="inline-asm" "target-cpu"="x86-64" }
attributes #7 = { mustprogress nocallback nofree nosync nounwind willreturn memory(inaccessiblemem: write) }
attributes #8 = { nounwind nonlazybind allockind("free") uwtable "alloc-family"="__rust_alloc" "probe-stack"="inline-asm" "target-cpu"="x86-64" }
attributes #9 = { cold noreturn nounwind memory(inaccessiblemem: write) }
attributes #10 = { mustprogress nocallback nofree nounwind willreturn memory(argmem: readwrite) }
attributes #11 = { mustprogress nocallback nofree nosync nounwind willreturn memory(argmem: readwrite) }
attributes #12 = { nocallback nofree nosync nounwind speculatable willreturn memory(none) }
attributes #13 = { nocallback nofree nosync nounwind willreturn memory(inaccessiblemem: readwrite) }
attributes #14 = { nocallback nofree nosync nounwind willreturn memory(argmem: read) }
attributes #15 = { cold }
attributes #16 = { cold noreturn nounwind }
attributes #17 = { nounwind }

!llvm.module.flags = !{!111, !112, !113, !114}
!llvm.ident = !{!115}
!llvm.dbg.cu = !{!116}

!0 = !DIGlobalVariableExpression(var: !1, expr: !DIExpression())
!1 = distinct !DIGlobalVariable(name: "<&core::num::nonzero::NonZero<u64> as core::fmt::Debug>::{vtable}", scope: null, file: !2, type: !3, isLocal: true, isDefinition: true)
!2 = !DIFile(filename: "<unknown>", directory: "")
!3 = !DICompositeType(tag: DW_TAG_structure_type, name: "<&core::num::nonzero::NonZero<u64> as core::fmt::Debug>::{vtable_type}", file: !2, size: 256, align: 64, flags: DIFlagArtificial, elements: !4, vtableHolder: !12, templateParams: !24, identifier: "b2c7470d5e0ed9a3b53cf0dfd5a87d0")
!4 = !{!5, !8, !10, !11}
!5 = !DIDerivedType(tag: DW_TAG_member, name: "drop_in_place", scope: !3, file: !2, baseType: !6, size: 64, align: 64)
!6 = !DIDerivedType(tag: DW_TAG_pointer_type, name: "*const ()", baseType: !7, size: 64, align: 64, dwarfAddressSpace: 0)
!7 = !DIBasicType(name: "()", encoding: DW_ATE_unsigned)
!8 = !DIDerivedType(tag: DW_TAG_member, name: "size", scope: !3, file: !2, baseType: !9, size: 64, align: 64, offset: 64)
!9 = !DIBasicType(name: "usize", size: 64, encoding: DW_ATE_unsigned)
!10 = !DIDerivedType(tag: DW_TAG_member, name: "align", scope: !3, file: !2, baseType: !9, size: 64, align: 64, offset: 128)
!11 = !DIDerivedType(tag: DW_TAG_member, name: "__method3", scope: !3, file: !2, baseType: !6, size: 64, align: 64, offset: 192)
!12 = !DIDerivedType(tag: DW_TAG_pointer_type, name: "&core::num::nonzero::NonZero<u64>", baseType: !13, size: 64, align: 64, dwarfAddressSpace: 0)
!13 = !DICompositeType(tag: DW_TAG_structure_type, name: "NonZero<u64>", scope: !14, file: !2, size: 64, align: 64, flags: DIFlagPublic, elements: !17, templateParams: !25, identifier: "865ca377f9884d17eb6d1de2ac2b0ca4")
!14 = !DINamespace(name: "nonzero", scope: !15)
!15 = !DINamespace(name: "num", scope: !16)
!16 = !DINamespace(name: "core", scope: null)
!17 = !{!18}
!18 = !DIDerivedType(tag: DW_TAG_member, name: "__0", scope: !13, file: !2, baseType: !19, size: 64, align: 64, flags: DIFlagPrivate)
!19 = !DICompositeType(tag: DW_TAG_structure_type, name: "NonZeroU64Inner", scope: !20, file: !2, size: 64, align: 64, flags: DIFlagPublic, elements: !21, templateParams: !24, identifier: "83ed7247d11b03e3fd807680270ea392")
!20 = !DINamespace(name: "private", scope: !14)
!21 = !{!22}
!22 = !DIDerivedType(tag: DW_TAG_member, name: "__0", scope: !19, file: !2, baseType: !23, size: 64, align: 64, flags: DIFlagPrivate)
!23 = !DIBasicType(name: "u64", size: 64, encoding: DW_ATE_unsigned)
!24 = !{}
!25 = !{!26}
!26 = !DITemplateTypeParameter(name: "T", type: !23)
!27 = !DIGlobalVariableExpression(var: !28, expr: !DIExpression())
!28 = distinct !DIGlobalVariable(name: "<&tracing_core::metadata::LevelInner as core::fmt::Debug>::{vtable}", scope: null, file: !2, type: !29, isLocal: true, isDefinition: true)
!29 = !DICompositeType(tag: DW_TAG_structure_type, name: "<&tracing_core::metadata::LevelInner as core::fmt::Debug>::{vtable_type}", file: !2, size: 256, align: 64, flags: DIFlagArtificial, elements: !30, vtableHolder: !35, templateParams: !24, identifier: "caa48abd01896fbcb012d4b944a6322c")
!30 = !{!31, !32, !33, !34}
!31 = !DIDerivedType(tag: DW_TAG_member, name: "drop_in_place", scope: !29, file: !2, baseType: !6, size: 64, align: 64)
!32 = !DIDerivedType(tag: DW_TAG_member, name: "size", scope: !29, file: !2, baseType: !9, size: 64, align: 64, offset: 64)
!33 = !DIDerivedType(tag: DW_TAG_member, name: "align", scope: !29, file: !2, baseType: !9, size: 64, align: 64, offset: 128)
!34 = !DIDerivedType(tag: DW_TAG_member, name: "__method3", scope: !29, file: !2, baseType: !6, size: 64, align: 64, offset: 192)
!35 = !DIDerivedType(tag: DW_TAG_pointer_type, name: "&tracing_core::metadata::LevelInner", baseType: !36, size: 64, align: 64, dwarfAddressSpace: 0)
!36 = !DICompositeType(tag: DW_TAG_enumeration_type, name: "LevelInner", scope: !37, file: !2, baseType: !23, size: 64, align: 64, flags: DIFlagEnumClass, elements: !39)
!37 = !DINamespace(name: "metadata", scope: !38)
!38 = !DINamespace(name: "tracing_core", scope: null)
!39 = !{!40, !41, !42, !43, !44}
!40 = !DIEnumerator(name: "Trace", value: 0, isUnsigned: true)
!41 = !DIEnumerator(name: "Debug", value: 1, isUnsigned: true)
!42 = !DIEnumerator(name: "Info", value: 2, isUnsigned: true)
!43 = !DIEnumerator(name: "Warn", value: 3, isUnsigned: true)
!44 = !DIEnumerator(name: "Error", value: 4, isUnsigned: true)
!45 = !DIGlobalVariableExpression(var: !46, expr: !DIExpression())
!46 = distinct !DIGlobalVariable(name: "<&str as core::fmt::Debug>::{vtable}", scope: null, file: !2, type: !47, isLocal: true, isDefinition: true)
!47 = !DICompositeType(tag: DW_TAG_structure_type, name: "<&str as core::fmt::Debug>::{vtable_type}", file: !2, size: 256, align: 64, flags: DIFlagArtificial, elements: !48, vtableHolder: !53, templateParams: !24, identifier: "590bafd6944d20d0c360131be18cbca1")
!48 = !{!49, !50, !51, !52}
!49 = !DIDerivedType(tag: DW_TAG_member, name: "drop_in_place", scope: !47, file: !2, baseType: !6, size: 64, align: 64)
!50 = !DIDerivedType(tag: DW_TAG_member, name: "size", scope: !47, file: !2, baseType: !9, size: 64, align: 64, offset: 64)
!51 = !DIDerivedType(tag: DW_TAG_member, name: "align", scope: !47, file: !2, baseType: !9, size: 64, align: 64, offset: 128)
!52 = !DIDerivedType(tag: DW_TAG_member, name: "__method3", scope: !47, file: !2, baseType: !6, size: 64, align: 64, offset: 192)
!53 = !DICompositeType(tag: DW_TAG_structure_type, name: "&str", file: !2, size: 128, align: 64, elements: !54, templateParams: !24, identifier: "9277eecd40495f85161460476aacc992")
!54 = !{!55, !58}
!55 = !DIDerivedType(tag: DW_TAG_member, name: "data_ptr", scope: !53, file: !2, baseType: !56, size: 64, align: 64)
!56 = !DIDerivedType(tag: DW_TAG_pointer_type, baseType: !57, size: 64, align: 64, dwarfAddressSpace: 0)
!57 = !DIBasicType(name: "u8", size: 8, encoding: DW_ATE_unsigned)
!58 = !DIDerivedType(tag: DW_TAG_member, name: "length", scope: !53, file: !2, baseType: !9, size: 64, align: 64, offset: 64)
!59 = !DIGlobalVariableExpression(var: !60, expr: !DIExpression())
!60 = distinct !DIGlobalVariable(name: "<&tracing_core::metadata::Level as core::fmt::Debug>::{vtable}", scope: null, file: !2, type: !61, isLocal: true, isDefinition: true)
!61 = !DICompositeType(tag: DW_TAG_structure_type, name: "<&tracing_core::metadata::Level as core::fmt::Debug>::{vtable_type}", file: !2, size: 256, align: 64, flags: DIFlagArtificial, elements: !62, vtableHolder: !67, templateParams: !24, identifier: "4e0eb8bd0cafc45e96b3e0848142adbe")
!62 = !{!63, !64, !65, !66}
!63 = !DIDerivedType(tag: DW_TAG_member, name: "drop_in_place", scope: !61, file: !2, baseType: !6, size: 64, align: 64)
!64 = !DIDerivedType(tag: DW_TAG_member, name: "size", scope: !61, file: !2, baseType: !9, size: 64, align: 64, offset: 64)
!65 = !DIDerivedType(tag: DW_TAG_member, name: "align", scope: !61, file: !2, baseType: !9, size: 64, align: 64, offset: 128)
!66 = !DIDerivedType(tag: DW_TAG_member, name: "__method3", scope: !61, file: !2, baseType: !6, size: 64, align: 64, offset: 192)
!67 = !DIDerivedType(tag: DW_TAG_pointer_type, name: "&tracing_core::metadata::Level", baseType: !68, size: 64, align: 64, dwarfAddressSpace: 0)
!68 = !DICompositeType(tag: DW_TAG_structure_type, name: "Level", scope: !37, file: !2, size: 64, align: 64, flags: DIFlagPublic, elements: !69, templateParams: !24, identifier: "3d305f8aa09ff344e25a3e8e657c6f0")
!69 = !{!70}
!70 = !DIDerivedType(tag: DW_TAG_member, name: "__0", scope: !68, file: !2, baseType: !36, size: 64, align: 64, flags: DIFlagPrivate)
!71 = !DIGlobalVariableExpression(var: !72, expr: !DIExpression())
!72 = distinct !DIGlobalVariable(name: "<tracing_core::span::Id as core::fmt::Debug>::{vtable}", scope: null, file: !2, type: !73, isLocal: true, isDefinition: true)
!73 = !DICompositeType(tag: DW_TAG_structure_type, name: "<tracing_core::span::Id as core::fmt::Debug>::{vtable_type}", file: !2, size: 256, align: 64, flags: DIFlagArtificial, elements: !74, vtableHolder: !79, templateParams: !24, identifier: "18a0de637193c970467a8115a0a3f351")
!74 = !{!75, !76, !77, !78}
!75 = !DIDerivedType(tag: DW_TAG_member, name: "drop_in_place", scope: !73, file: !2, baseType: !6, size: 64, align: 64)
!76 = !DIDerivedType(tag: DW_TAG_member, name: "size", scope: !73, file: !2, baseType: !9, size: 64, align: 64, offset: 64)
!77 = !DIDerivedType(tag: DW_TAG_member, name: "align", scope: !73, file: !2, baseType: !9, size: 64, align: 64, offset: 128)
!78 = !DIDerivedType(tag: DW_TAG_member, name: "__method3", scope: !73, file: !2, baseType: !6, size: 64, align: 64, offset: 192)
!79 = !DICompositeType(tag: DW_TAG_structure_type, name: "Id", scope: !80, file: !2, size: 64, align: 64, flags: DIFlagPublic, elements: !81, templateParams: !24, identifier: "747070ec511dc8b336002e42221f6223")
!80 = !DINamespace(name: "span", scope: !38)
!81 = !{!82}
!82 = !DIDerivedType(tag: DW_TAG_member, name: "__0", scope: !79, file: !2, baseType: !13, size: 64, align: 64, flags: DIFlagPrivate)
!83 = !DIGlobalVariableExpression(var: !84, expr: !DIExpression())
!84 = distinct !DIGlobalVariable(name: "<bool as core::fmt::Debug>::{vtable}", scope: null, file: !2, type: !85, isLocal: true, isDefinition: true)
!85 = !DICompositeType(tag: DW_TAG_structure_type, name: "<bool as core::fmt::Debug>::{vtable_type}", file: !2, size: 256, align: 64, flags: DIFlagArtificial, elements: !86, vtableHolder: !91, templateParams: !24, identifier: "cff74116dd1b0531eb9ac650399ff52a")
!86 = !{!87, !88, !89, !90}
!87 = !DIDerivedType(tag: DW_TAG_member, name: "drop_in_place", scope: !85, file: !2, baseType: !6, size: 64, align: 64)
!88 = !DIDerivedType(tag: DW_TAG_member, name: "size", scope: !85, file: !2, baseType: !9, size: 64, align: 64, offset: 64)
!89 = !DIDerivedType(tag: DW_TAG_member, name: "align", scope: !85, file: !2, baseType: !9, size: 64, align: 64, offset: 128)
!90 = !DIDerivedType(tag: DW_TAG_member, name: "__method3", scope: !85, file: !2, baseType: !6, size: 64, align: 64, offset: 192)
!91 = !DIBasicType(name: "bool", size: 8, encoding: DW_ATE_boolean)
!92 = !DIGlobalVariableExpression(var: !93, expr: !DIExpression())
!93 = distinct !DIGlobalVariable(name: "<&&str as core::fmt::Debug>::{vtable}", scope: null, file: !2, type: !94, isLocal: true, isDefinition: true)
!94 = !DICompositeType(tag: DW_TAG_structure_type, name: "<&&str as core::fmt::Debug>::{vtable_type}", file: !2, size: 256, align: 64, flags: DIFlagArtificial, elements: !95, vtableHolder: !100, templateParams: !24, identifier: "beb53bd9b67bd3d7c7ef05c22fdfd3ab")
!95 = !{!96, !97, !98, !99}
!96 = !DIDerivedType(tag: DW_TAG_member, name: "drop_in_place", scope: !94, file: !2, baseType: !6, size: 64, align: 64)
!97 = !DIDerivedType(tag: DW_TAG_member, name: "size", scope: !94, file: !2, baseType: !9, size: 64, align: 64, offset: 64)
!98 = !DIDerivedType(tag: DW_TAG_member, name: "align", scope: !94, file: !2, baseType: !9, size: 64, align: 64, offset: 128)
!99 = !DIDerivedType(tag: DW_TAG_member, name: "__method3", scope: !94, file: !2, baseType: !6, size: 64, align: 64, offset: 192)
!100 = !DIDerivedType(tag: DW_TAG_pointer_type, name: "&&str", baseType: !53, size: 64, align: 64, dwarfAddressSpace: 0)
!101 = !DIGlobalVariableExpression(var: !102, expr: !DIExpression())
!102 = distinct !DIGlobalVariable(name: "<&u32 as core::fmt::Debug>::{vtable}", scope: null, file: !2, type: !103, isLocal: true, isDefinition: true)
!103 = !DICompositeType(tag: DW_TAG_structure_type, name: "<&u32 as core::fmt::Debug>::{vtable_type}", file: !2, size: 256, align: 64, flags: DIFlagArtificial, elements: !104, vtableHolder: !109, templateParams: !24, identifier: "7f1ab221b4b144a4ae52390ba12cbcf8")
!104 = !{!105, !106, !107, !108}
!105 = !DIDerivedType(tag: DW_TAG_member, name: "drop_in_place", scope: !103, file: !2, baseType: !6, size: 64, align: 64)
!106 = !DIDerivedType(tag: DW_TAG_member, name: "size", scope: !103, file: !2, baseType: !9, size: 64, align: 64, offset: 64)
!107 = !DIDerivedType(tag: DW_TAG_member, name: "align", scope: !103, file: !2, baseType: !9, size: 64, align: 64, offset: 128)
!108 = !DIDerivedType(tag: DW_TAG_member, name: "__method3", scope: !103, file: !2, baseType: !6, size: 64, align: 64, offset: 192)
!109 = !DIDerivedType(tag: DW_TAG_pointer_type, name: "&u32", baseType: !110, size: 64, align: 64, dwarfAddressSpace: 0)
!110 = !DIBasicType(name: "u32", size: 32, encoding: DW_ATE_unsigned)
!111 = !{i32 8, !"PIC Level", i32 2}
!112 = !{i32 2, !"RtLibUseGOT", i32 1}
!113 = !{i32 2, !"Dwarf Version", i32 4}
!114 = !{i32 2, !"Debug Info Version", i32 3}
!115 = !{!"rustc version 1.80.0-dev"}
!116 = distinct !DICompileUnit(language: DW_LANG_Rust, file: !117, producer: "clang LLVM (rustc version 1.80.0-dev)", isOptimized: true, runtimeVersion: 0, emissionKind: FullDebug, enums: !118, globals: !210, splitDebugInlining: false, nameTableKind: None)
!117 = !DIFile(filename: "/home/arsalan/.cargo/registry/src/index.crates.io-1949cf8c6b5b557f/tracing-0.1.40/src/lib.rs/@/tracing.8a1c5b55e1d2bd9c-cgu.0", directory: "/home/arsalan/.cargo/registry/src/index.crates.io-1949cf8c6b5b557f/tracing-0.1.40")
!118 = !{!36, !119, !128, !136, !204}
!119 = !DICompositeType(tag: DW_TAG_enumeration_type, name: "Ordering", scope: !120, file: !2, baseType: !57, size: 8, align: 8, flags: DIFlagEnumClass, elements: !122)
!120 = !DINamespace(name: "atomic", scope: !121)
!121 = !DINamespace(name: "sync", scope: !16)
!122 = !{!123, !124, !125, !126, !127}
!123 = !DIEnumerator(name: "Relaxed", value: 0, isUnsigned: true)
!124 = !DIEnumerator(name: "Release", value: 1, isUnsigned: true)
!125 = !DIEnumerator(name: "Acquire", value: 2, isUnsigned: true)
!126 = !DIEnumerator(name: "AcqRel", value: 3, isUnsigned: true)
!127 = !DIEnumerator(name: "SeqCst", value: 4, isUnsigned: true)
!128 = !DICompositeType(tag: DW_TAG_enumeration_type, name: "Alignment", scope: !129, file: !2, baseType: !57, size: 8, align: 8, flags: DIFlagEnumClass, elements: !131)
!129 = !DINamespace(name: "rt", scope: !130)
!130 = !DINamespace(name: "fmt", scope: !16)
!131 = !{!132, !133, !134, !135}
!132 = !DIEnumerator(name: "Left", value: 0, isUnsigned: true)
!133 = !DIEnumerator(name: "Right", value: 1, isUnsigned: true)
!134 = !DIEnumerator(name: "Center", value: 2, isUnsigned: true)
!135 = !DIEnumerator(name: "Unknown", value: 3, isUnsigned: true)
!136 = !DICompositeType(tag: DW_TAG_enumeration_type, name: "AlignmentEnum", scope: !137, file: !2, baseType: !23, size: 64, align: 64, flags: DIFlagEnumClass, elements: !139)
!137 = !DINamespace(name: "alignment", scope: !138)
!138 = !DINamespace(name: "ptr", scope: !16)
!139 = !{!140, !141, !142, !143, !144, !145, !146, !147, !148, !149, !150, !151, !152, !153, !154, !155, !156, !157, !158, !159, !160, !161, !162, !163, !164, !165, !166, !167, !168, !169, !170, !171, !172, !173, !174, !175, !176, !177, !178, !179, !180, !181, !182, !183, !184, !185, !186, !187, !188, !189, !190, !191, !192, !193, !194, !195, !196, !197, !198, !199, !200, !201, !202, !203}
!140 = !DIEnumerator(name: "_Align1Shl0", value: 1, isUnsigned: true)
!141 = !DIEnumerator(name: "_Align1Shl1", value: 2, isUnsigned: true)
!142 = !DIEnumerator(name: "_Align1Shl2", value: 4, isUnsigned: true)
!143 = !DIEnumerator(name: "_Align1Shl3", value: 8, isUnsigned: true)
!144 = !DIEnumerator(name: "_Align1Shl4", value: 16, isUnsigned: true)
!145 = !DIEnumerator(name: "_Align1Shl5", value: 32, isUnsigned: true)
!146 = !DIEnumerator(name: "_Align1Shl6", value: 64, isUnsigned: true)
!147 = !DIEnumerator(name: "_Align1Shl7", value: 128, isUnsigned: true)
!148 = !DIEnumerator(name: "_Align1Shl8", value: 256, isUnsigned: true)
!149 = !DIEnumerator(name: "_Align1Shl9", value: 512, isUnsigned: true)
!150 = !DIEnumerator(name: "_Align1Shl10", value: 1024, isUnsigned: true)
!151 = !DIEnumerator(name: "_Align1Shl11", value: 2048, isUnsigned: true)
!152 = !DIEnumerator(name: "_Align1Shl12", value: 4096, isUnsigned: true)
!153 = !DIEnumerator(name: "_Align1Shl13", value: 8192, isUnsigned: true)
!154 = !DIEnumerator(name: "_Align1Shl14", value: 16384, isUnsigned: true)
!155 = !DIEnumerator(name: "_Align1Shl15", value: 32768, isUnsigned: true)
!156 = !DIEnumerator(name: "_Align1Shl16", value: 65536, isUnsigned: true)
!157 = !DIEnumerator(name: "_Align1Shl17", value: 131072, isUnsigned: true)
!158 = !DIEnumerator(name: "_Align1Shl18", value: 262144, isUnsigned: true)
!159 = !DIEnumerator(name: "_Align1Shl19", value: 524288, isUnsigned: true)
!160 = !DIEnumerator(name: "_Align1Shl20", value: 1048576, isUnsigned: true)
!161 = !DIEnumerator(name: "_Align1Shl21", value: 2097152, isUnsigned: true)
!162 = !DIEnumerator(name: "_Align1Shl22", value: 4194304, isUnsigned: true)
!163 = !DIEnumerator(name: "_Align1Shl23", value: 8388608, isUnsigned: true)
!164 = !DIEnumerator(name: "_Align1Shl24", value: 16777216, isUnsigned: true)
!165 = !DIEnumerator(name: "_Align1Shl25", value: 33554432, isUnsigned: true)
!166 = !DIEnumerator(name: "_Align1Shl26", value: 67108864, isUnsigned: true)
!167 = !DIEnumerator(name: "_Align1Shl27", value: 134217728, isUnsigned: true)
!168 = !DIEnumerator(name: "_Align1Shl28", value: 268435456, isUnsigned: true)
!169 = !DIEnumerator(name: "_Align1Shl29", value: 536870912, isUnsigned: true)
!170 = !DIEnumerator(name: "_Align1Shl30", value: 1073741824, isUnsigned: true)
!171 = !DIEnumerator(name: "_Align1Shl31", value: 2147483648, isUnsigned: true)
!172 = !DIEnumerator(name: "_Align1Shl32", value: 4294967296, isUnsigned: true)
!173 = !DIEnumerator(name: "_Align1Shl33", value: 8589934592, isUnsigned: true)
!174 = !DIEnumerator(name: "_Align1Shl34", value: 17179869184, isUnsigned: true)
!175 = !DIEnumerator(name: "_Align1Shl35", value: 34359738368, isUnsigned: true)
!176 = !DIEnumerator(name: "_Align1Shl36", value: 68719476736, isUnsigned: true)
!177 = !DIEnumerator(name: "_Align1Shl37", value: 137438953472, isUnsigned: true)
!178 = !DIEnumerator(name: "_Align1Shl38", value: 274877906944, isUnsigned: true)
!179 = !DIEnumerator(name: "_Align1Shl39", value: 549755813888, isUnsigned: true)
!180 = !DIEnumerator(name: "_Align1Shl40", value: 1099511627776, isUnsigned: true)
!181 = !DIEnumerator(name: "_Align1Shl41", value: 2199023255552, isUnsigned: true)
!182 = !DIEnumerator(name: "_Align1Shl42", value: 4398046511104, isUnsigned: true)
!183 = !DIEnumerator(name: "_Align1Shl43", value: 8796093022208, isUnsigned: true)
!184 = !DIEnumerator(name: "_Align1Shl44", value: 17592186044416, isUnsigned: true)
!185 = !DIEnumerator(name: "_Align1Shl45", value: 35184372088832, isUnsigned: true)
!186 = !DIEnumerator(name: "_Align1Shl46", value: 70368744177664, isUnsigned: true)
!187 = !DIEnumerator(name: "_Align1Shl47", value: 140737488355328, isUnsigned: true)
!188 = !DIEnumerator(name: "_Align1Shl48", value: 281474976710656, isUnsigned: true)
!189 = !DIEnumerator(name: "_Align1Shl49", value: 562949953421312, isUnsigned: true)
!190 = !DIEnumerator(name: "_Align1Shl50", value: 1125899906842624, isUnsigned: true)
!191 = !DIEnumerator(name: "_Align1Shl51", value: 2251799813685248, isUnsigned: true)
!192 = !DIEnumerator(name: "_Align1Shl52", value: 4503599627370496, isUnsigned: true)
!193 = !DIEnumerator(name: "_Align1Shl53", value: 9007199254740992, isUnsigned: true)
!194 = !DIEnumerator(name: "_Align1Shl54", value: 18014398509481984, isUnsigned: true)
!195 = !DIEnumerator(name: "_Align1Shl55", value: 36028797018963968, isUnsigned: true)
!196 = !DIEnumerator(name: "_Align1Shl56", value: 72057594037927936, isUnsigned: true)
!197 = !DIEnumerator(name: "_Align1Shl57", value: 144115188075855872, isUnsigned: true)
!198 = !DIEnumerator(name: "_Align1Shl58", value: 288230376151711744, isUnsigned: true)
!199 = !DIEnumerator(name: "_Align1Shl59", value: 576460752303423488, isUnsigned: true)
!200 = !DIEnumerator(name: "_Align1Shl60", value: 1152921504606846976, isUnsigned: true)
!201 = !DIEnumerator(name: "_Align1Shl61", value: 2305843009213693952, isUnsigned: true)
!202 = !DIEnumerator(name: "_Align1Shl62", value: 4611686018427387904, isUnsigned: true)
!203 = !DIEnumerator(name: "_Align1Shl63", value: 9223372036854775808, isUnsigned: true)
!204 = !DICompositeType(tag: DW_TAG_enumeration_type, name: "InterestKind", scope: !205, file: !2, baseType: !57, size: 8, align: 8, flags: DIFlagEnumClass, elements: !206)
!205 = !DINamespace(name: "subscriber", scope: !38)
!206 = !{!207, !208, !209}
!207 = !DIEnumerator(name: "Never", value: 0, isUnsigned: true)
!208 = !DIEnumerator(name: "Sometimes", value: 1, isUnsigned: true)
!209 = !DIEnumerator(name: "Always", value: 2, isUnsigned: true)
!210 = !{!0, !27, !45, !59, !71, !83, !92, !101}
!211 = distinct !DISubprogram(name: "fmt", linkageName: "_ZN41_$LT$bool$u20$as$u20$core..fmt..Debug$GT$3fmt17h40eba7a03f944241E", scope: !213, file: !212, line: 2385, type: !214, scopeLine: 2385, flags: DIFlagPrototyped, spFlags: DISPFlagLocalToUnit | DISPFlagDefinition | DISPFlagOptimized, unit: !116, templateParams: !24, retainedNodes: !269)
!212 = !DIFile(filename: "/home/arsalan/Documents/Github/unsafe-rust-benchmark/library/core/src/fmt/mod.rs", directory: "", checksumkind: CSK_MD5, checksum: "d0edb1b569d2fa74945fd472d62c28dc")
!213 = !DINamespace(name: "{impl#12}", scope: !130)
!214 = !DISubroutineType(types: !215)
!215 = !{!216, !234, !235}
!216 = !DICompositeType(tag: DW_TAG_structure_type, name: "Result<(), core::fmt::Error>", scope: !217, file: !2, size: 8, align: 8, flags: DIFlagPublic, elements: !218, templateParams: !24, identifier: "d2df09569ea43718984b3f07c77d7786")
!217 = !DINamespace(name: "result", scope: !16)
!218 = !{!219}
!219 = !DICompositeType(tag: DW_TAG_variant_part, scope: !216, file: !2, size: 8, align: 8, elements: !220, templateParams: !24, identifier: "40958ab10d5ab8e62b4ee93eba9ef45c", discriminator: !233)
!220 = !{!221, !229}
!221 = !DIDerivedType(tag: DW_TAG_member, name: "Ok", scope: !219, file: !2, baseType: !222, size: 8, align: 8, extraData: i128 0)
!222 = !DICompositeType(tag: DW_TAG_structure_type, name: "Ok", scope: !216, file: !2, size: 8, align: 8, flags: DIFlagPublic, elements: !223, templateParams: !225, identifier: "4e4e31cf1f685b1037dee0567f64f8e3")
!223 = !{!224}
!224 = !DIDerivedType(tag: DW_TAG_member, name: "__0", scope: !222, file: !2, baseType: !7, align: 8, offset: 8, flags: DIFlagPublic)
!225 = !{!226, !227}
!226 = !DITemplateTypeParameter(name: "T", type: !7)
!227 = !DITemplateTypeParameter(name: "E", type: !228)
!228 = !DICompositeType(tag: DW_TAG_structure_type, name: "Error", scope: !130, file: !2, align: 8, flags: DIFlagPublic, elements: !24, identifier: "d1bcdb152c867d841c7efe41d66d33d4")
!229 = !DIDerivedType(tag: DW_TAG_member, name: "Err", scope: !219, file: !2, baseType: !230, size: 8, align: 8, extraData: i128 1)
!230 = !DICompositeType(tag: DW_TAG_structure_type, name: "Err", scope: !216, file: !2, size: 8, align: 8, flags: DIFlagPublic, elements: !231, templateParams: !225, identifier: "ce193e126833ab95abfa1a39e1f007d3")
!231 = !{!232}
!232 = !DIDerivedType(tag: DW_TAG_member, name: "__0", scope: !230, file: !2, baseType: !228, align: 8, offset: 8, flags: DIFlagPublic)
!233 = !DIDerivedType(tag: DW_TAG_member, scope: !216, file: !2, baseType: !57, size: 8, align: 8, flags: DIFlagArtificial)
!234 = !DIDerivedType(tag: DW_TAG_pointer_type, name: "&bool", baseType: !91, size: 64, align: 64, dwarfAddressSpace: 0)
!235 = !DIDerivedType(tag: DW_TAG_pointer_type, name: "&mut core::fmt::Formatter", baseType: !236, size: 64, align: 64, dwarfAddressSpace: 0)
!236 = !DICompositeType(tag: DW_TAG_structure_type, name: "Formatter", scope: !130, file: !2, size: 512, align: 64, flags: DIFlagPublic, elements: !237, templateParams: !24, identifier: "9d9578b0f9368582a2201563ca126cd4")
!237 = !{!238, !239, !241, !242, !257, !258}
!238 = !DIDerivedType(tag: DW_TAG_member, name: "flags", scope: !236, file: !2, baseType: !110, size: 32, align: 32, offset: 416, flags: DIFlagPrivate)
!239 = !DIDerivedType(tag: DW_TAG_member, name: "fill", scope: !236, file: !2, baseType: !240, size: 32, align: 32, offset: 384, flags: DIFlagPrivate)
!240 = !DIBasicType(name: "char", size: 32, encoding: DW_ATE_UTF)
!241 = !DIDerivedType(tag: DW_TAG_member, name: "align", scope: !236, file: !2, baseType: !128, size: 8, align: 8, offset: 448, flags: DIFlagPrivate)
!242 = !DIDerivedType(tag: DW_TAG_member, name: "width", scope: !236, file: !2, baseType: !243, size: 128, align: 64, flags: DIFlagPrivate)
!243 = !DICompositeType(tag: DW_TAG_structure_type, name: "Option<usize>", scope: !244, file: !2, size: 128, align: 64, flags: DIFlagPublic, elements: !245, templateParams: !24, identifier: "3850c4a210aea148b16f79ec227c427")
!244 = !DINamespace(name: "option", scope: !16)
!245 = !{!246}
!246 = !DICompositeType(tag: DW_TAG_variant_part, scope: !243, file: !2, size: 128, align: 64, elements: !247, templateParams: !24, identifier: "6c7b2307de4883471488feb0db3e2a69", discriminator: !256)
!247 = !{!248, !252}
!248 = !DIDerivedType(tag: DW_TAG_member, name: "None", scope: !246, file: !2, baseType: !249, size: 128, align: 64, extraData: i128 0)
!249 = !DICompositeType(tag: DW_TAG_structure_type, name: "None", scope: !243, file: !2, size: 128, align: 64, flags: DIFlagPublic, elements: !24, templateParams: !250, identifier: "10be3845cc366e59d680126f255dea8b")
!250 = !{!251}
!251 = !DITemplateTypeParameter(name: "T", type: !9)
!252 = !DIDerivedType(tag: DW_TAG_member, name: "Some", scope: !246, file: !2, baseType: !253, size: 128, align: 64, extraData: i128 1)
!253 = !DICompositeType(tag: DW_TAG_structure_type, name: "Some", scope: !243, file: !2, size: 128, align: 64, flags: DIFlagPublic, elements: !254, templateParams: !250, identifier: "d166501012b6febc55685f1b3285acb8")
!254 = !{!255}
!255 = !DIDerivedType(tag: DW_TAG_member, name: "__0", scope: !253, file: !2, baseType: !9, size: 64, align: 64, offset: 64, flags: DIFlagPublic)
!256 = !DIDerivedType(tag: DW_TAG_member, scope: !243, file: !2, baseType: !23, size: 64, align: 64, flags: DIFlagArtificial)
!257 = !DIDerivedType(tag: DW_TAG_member, name: "precision", scope: !236, file: !2, baseType: !243, size: 128, align: 64, offset: 128, flags: DIFlagPrivate)
!258 = !DIDerivedType(tag: DW_TAG_member, name: "buf", scope: !236, file: !2, baseType: !259, size: 128, align: 64, offset: 256, flags: DIFlagPrivate)
!259 = !DICompositeType(tag: DW_TAG_structure_type, name: "&mut dyn core::fmt::Write", file: !2, size: 128, align: 64, elements: !260, templateParams: !24, identifier: "520aa1b9e061cb89ffd1fd9508a7967b")
!260 = !{!261, !264}
!261 = !DIDerivedType(tag: DW_TAG_member, name: "pointer", scope: !259, file: !2, baseType: !262, size: 64, align: 64)
!262 = !DIDerivedType(tag: DW_TAG_pointer_type, baseType: !263, size: 64, align: 64, dwarfAddressSpace: 0)
!263 = !DICompositeType(tag: DW_TAG_structure_type, name: "dyn core::fmt::Write", file: !2, align: 8, elements: !24, identifier: "50c895c6de0895b9c205e9fbf62784f2")
!264 = !DIDerivedType(tag: DW_TAG_member, name: "vtable", scope: !259, file: !2, baseType: !265, size: 64, align: 64, offset: 64)
!265 = !DIDerivedType(tag: DW_TAG_pointer_type, name: "&[usize; 6]", baseType: !266, size: 64, align: 64, dwarfAddressSpace: 0)
!266 = !DICompositeType(tag: DW_TAG_array_type, baseType: !9, size: 384, align: 64, elements: !267)
!267 = !{!268}
!268 = !DISubrange(count: 6, lowerBound: 0)
!269 = !{!270, !271}
!270 = !DILocalVariable(name: "self", arg: 1, scope: !211, file: !212, line: 2385, type: !234)
!271 = !DILocalVariable(name: "f", arg: 2, scope: !211, file: !212, line: 2385, type: !235)
!272 = !DILocation(line: 0, scope: !211)
!273 = !DILocation(line: 2386, column: 9, scope: !211)
!274 = !DILocation(line: 2387, column: 6, scope: !211)
!275 = distinct !DISubprogram(name: "fmt<u32>", linkageName: "_ZN42_$LT$$RF$T$u20$as$u20$core..fmt..Debug$GT$3fmt17h11cfd5dd8dd21841E", scope: !276, file: !212, line: 2354, type: !277, scopeLine: 2354, flags: DIFlagPrototyped, spFlags: DISPFlagLocalToUnit | DISPFlagDefinition | DISPFlagOptimized, unit: !116, templateParams: !283, retainedNodes: !280)
!276 = !DINamespace(name: "{impl#51}", scope: !130)
!277 = !DISubroutineType(types: !278)
!278 = !{!216, !279, !235}
!279 = !DIDerivedType(tag: DW_TAG_pointer_type, name: "&&u32", baseType: !109, size: 64, align: 64, dwarfAddressSpace: 0)
!280 = !{!281, !282}
!281 = !DILocalVariable(name: "self", arg: 1, scope: !275, file: !212, line: 2354, type: !279)
!282 = !DILocalVariable(name: "f", arg: 2, scope: !275, file: !212, line: 2354, type: !235)
!283 = !{!284}
!284 = !DITemplateTypeParameter(name: "T", type: !110)
!285 = !DILocation(line: 0, scope: !275)
!286 = !DILocation(line: 2354, column: 71, scope: !275)
!287 = !{i64 4}
!288 = !DILocalVariable(name: "self", arg: 1, scope: !289, file: !290, line: 189, type: !109)
!289 = distinct !DISubprogram(name: "fmt", linkageName: "_ZN4core3fmt3num50_$LT$impl$u20$core..fmt..Debug$u20$for$u20$u32$GT$3fmt17hf891af710521ab67E", scope: !291, file: !290, line: 189, type: !293, scopeLine: 189, flags: DIFlagPrototyped, spFlags: DISPFlagLocalToUnit | DISPFlagDefinition | DISPFlagOptimized, unit: !116, templateParams: !24, retainedNodes: !295)
!290 = !DIFile(filename: "/home/arsalan/Documents/Github/unsafe-rust-benchmark/library/core/src/fmt/num.rs", directory: "", checksumkind: CSK_MD5, checksum: "5d2b54fa2f493740652965deb7ce1e35")
!291 = !DINamespace(name: "{impl#86}", scope: !292)
!292 = !DINamespace(name: "num", scope: !130)
!293 = !DISubroutineType(types: !294)
!294 = !{!216, !109, !235}
!295 = !{!288, !296}
!296 = !DILocalVariable(name: "f", arg: 2, scope: !289, file: !290, line: 189, type: !235)
!297 = !DILocation(line: 0, scope: !289, inlinedAt: !298)
!298 = distinct !DILocation(line: 2354, column: 62, scope: !275)
!299 = !DILocalVariable(name: "self", arg: 1, scope: !300, file: !212, line: 1907, type: !235)
!300 = distinct !DILexicalBlock(scope: !301, file: !212, line: 1907, column: 5)
!301 = distinct !DISubprogram(name: "debug_lower_hex", linkageName: "_ZN4core3fmt9Formatter15debug_lower_hex17h9aa1604b062df0e6E", scope: !236, file: !212, line: 1907, type: !302, scopeLine: 1907, flags: DIFlagPrototyped, spFlags: DISPFlagLocalToUnit | DISPFlagDefinition | DISPFlagOptimized, unit: !116, templateParams: !24, declaration: !305, retainedNodes: !306)
!302 = !DISubroutineType(types: !303)
!303 = !{!91, !304}
!304 = !DIDerivedType(tag: DW_TAG_pointer_type, name: "&core::fmt::Formatter", baseType: !236, size: 64, align: 64, dwarfAddressSpace: 0)
!305 = !DISubprogram(name: "debug_lower_hex", linkageName: "_ZN4core3fmt9Formatter15debug_lower_hex17h9aa1604b062df0e6E", scope: !236, file: !212, line: 1907, type: !302, scopeLine: 1907, flags: DIFlagPrototyped, spFlags: DISPFlagLocalToUnit | DISPFlagOptimized, templateParams: !24)
!306 = !{!299}
!307 = !DILocation(line: 0, scope: !300, inlinedAt: !308)
!308 = distinct !DILocation(line: 190, column: 22, scope: !289, inlinedAt: !298)
!309 = !DILocalVariable(name: "self", arg: 1, scope: !310, file: !212, line: 1911, type: !235)
!310 = distinct !DILexicalBlock(scope: !311, file: !212, line: 1911, column: 5)
!311 = distinct !DISubprogram(name: "debug_upper_hex", linkageName: "_ZN4core3fmt9Formatter15debug_upper_hex17h0b52a51434de3210E", scope: !236, file: !212, line: 1911, type: !302, scopeLine: 1911, flags: DIFlagPrototyped, spFlags: DISPFlagLocalToUnit | DISPFlagDefinition | DISPFlagOptimized, unit: !116, templateParams: !24, declaration: !312, retainedNodes: !313)
!312 = !DISubprogram(name: "debug_upper_hex", linkageName: "_ZN4core3fmt9Formatter15debug_upper_hex17h0b52a51434de3210E", scope: !236, file: !212, line: 1911, type: !302, scopeLine: 1911, flags: DIFlagPrototyped, spFlags: DISPFlagLocalToUnit | DISPFlagOptimized, templateParams: !24)
!313 = !{!309}
!314 = !DILocation(line: 0, scope: !310, inlinedAt: !315)
!315 = distinct !DILocation(line: 192, column: 29, scope: !289, inlinedAt: !298)
!316 = !DILocation(line: 1908, column: 9, scope: !300, inlinedAt: !308)
!317 = !{!318}
!318 = distinct !{!318, !319, !"_ZN4core3fmt3num50_$LT$impl$u20$core..fmt..Debug$u20$for$u20$u32$GT$3fmt17hf891af710521ab67E: %f"}
!319 = distinct !{!319, !"_ZN4core3fmt3num50_$LT$impl$u20$core..fmt..Debug$u20$for$u20$u32$GT$3fmt17hf891af710521ab67E"}
!320 = !{!321}
!321 = distinct !{!321, !319, !"_ZN4core3fmt3num50_$LT$impl$u20$core..fmt..Debug$u20$for$u20$u32$GT$3fmt17hf891af710521ab67E: %self"}
!322 = !DILocation(line: 190, column: 20, scope: !289, inlinedAt: !298)
!323 = !DILocation(line: 1912, column: 9, scope: !310, inlinedAt: !315)
!324 = !DILocation(line: 192, column: 27, scope: !289, inlinedAt: !298)
!325 = !DILocation(line: 191, column: 21, scope: !289, inlinedAt: !298)
!326 = !DILocation(line: 195, column: 21, scope: !289, inlinedAt: !298)
!327 = !DILocation(line: 193, column: 21, scope: !289, inlinedAt: !298)
!328 = !DILocation(line: 2354, column: 84, scope: !275)
!329 = distinct !DISubprogram(name: "fmt<tracing_core::metadata::LevelInner>", linkageName: "_ZN42_$LT$$RF$T$u20$as$u20$core..fmt..Debug$GT$3fmt17h36c7385e59dee82aE", scope: !276, file: !212, line: 2354, type: !330, scopeLine: 2354, flags: DIFlagPrototyped, spFlags: DISPFlagLocalToUnit | DISPFlagDefinition | DISPFlagOptimized, unit: !116, templateParams: !336, retainedNodes: !333)
!330 = !DISubroutineType(types: !331)
!331 = !{!216, !332, !235}
!332 = !DIDerivedType(tag: DW_TAG_pointer_type, name: "&&tracing_core::metadata::LevelInner", baseType: !35, size: 64, align: 64, dwarfAddressSpace: 0)
!333 = !{!334, !335}
!334 = !DILocalVariable(name: "self", arg: 1, scope: !329, file: !212, line: 2354, type: !332)
!335 = !DILocalVariable(name: "f", arg: 2, scope: !329, file: !212, line: 2354, type: !235)
!336 = !{!337}
!337 = !DITemplateTypeParameter(name: "T", type: !36)
!338 = !DILocation(line: 0, scope: !329)
!339 = !DILocation(line: 2354, column: 71, scope: !329)
!340 = !{i64 8}
!341 = !DILocation(line: 2354, column: 62, scope: !329)
!342 = !{i64 0, i64 5}
!343 = !DILocalVariable(name: "self", arg: 1, scope: !344, file: !345, line: 579, type: !35)
!344 = distinct !DISubprogram(name: "fmt", linkageName: "_ZN71_$LT$tracing_core..metadata..LevelInner$u20$as$u20$core..fmt..Debug$GT$3fmt17h8619e0e2422b3804E", scope: !346, file: !345, line: 579, type: !347, scopeLine: 579, flags: DIFlagPrototyped, spFlags: DISPFlagLocalToUnit | DISPFlagDefinition | DISPFlagOptimized, unit: !116, templateParams: !24, retainedNodes: !349)
!345 = !DIFile(filename: "/home/arsalan/.cargo/registry/src/index.crates.io-1949cf8c6b5b557f/tracing-core-0.1.32/src/metadata.rs", directory: "", checksumkind: CSK_MD5, checksum: "d1af9c854fdc7f5179338ce730e31216")
!346 = !DINamespace(name: "{impl#47}", scope: !37)
!347 = !DISubroutineType(types: !348)
!348 = !{!216, !35, !235}
!349 = !{!343, !350}
!350 = !DILocalVariable(name: "f", arg: 2, scope: !344, file: !345, line: 579, type: !235)
!351 = !DILocation(line: 0, scope: !344, inlinedAt: !352)
!352 = distinct !DILocation(line: 2354, column: 62, scope: !329)
!353 = !DILocation(line: 579, column: 23, scope: !344, inlinedAt: !352)
!354 = !DILocation(line: 2354, column: 84, scope: !329)
!355 = distinct !DISubprogram(name: "fmt<str>", linkageName: "_ZN42_$LT$$RF$T$u20$as$u20$core..fmt..Debug$GT$3fmt17h71a3c0bbad5d61c2E", scope: !276, file: !212, line: 2354, type: !356, scopeLine: 2354, flags: DIFlagPrototyped, spFlags: DISPFlagLocalToUnit | DISPFlagDefinition | DISPFlagOptimized, unit: !116, templateParams: !361, retainedNodes: !358)
!356 = !DISubroutineType(types: !357)
!357 = !{!216, !100, !235}
!358 = !{!359, !360}
!359 = !DILocalVariable(name: "self", arg: 1, scope: !355, file: !212, line: 2354, type: !100)
!360 = !DILocalVariable(name: "f", arg: 2, scope: !355, file: !212, line: 2354, type: !235)
!361 = !{!362}
!362 = !DITemplateTypeParameter(name: "T", type: !57)
!363 = !DILocation(line: 0, scope: !355)
!364 = !DILocation(line: 2354, column: 71, scope: !355)
!365 = !{i64 1}
!366 = !DILocation(line: 2354, column: 62, scope: !355)
!367 = !DILocation(line: 2354, column: 84, scope: !355)
!368 = distinct !DISubprogram(name: "fmt<&str>", linkageName: "_ZN42_$LT$$RF$T$u20$as$u20$core..fmt..Debug$GT$3fmt17h7510124a3ea7030dE", scope: !276, file: !212, line: 2354, type: !369, scopeLine: 2354, flags: DIFlagPrototyped, spFlags: DISPFlagLocalToUnit | DISPFlagDefinition | DISPFlagOptimized, unit: !116, templateParams: !375, retainedNodes: !372)
!369 = !DISubroutineType(types: !370)
!370 = !{!216, !371, !235}
!371 = !DIDerivedType(tag: DW_TAG_pointer_type, name: "&&&str", baseType: !100, size: 64, align: 64, dwarfAddressSpace: 0)
!372 = !{!373, !374}
!373 = !DILocalVariable(name: "self", arg: 1, scope: !368, file: !212, line: 2354, type: !371)
!374 = !DILocalVariable(name: "f", arg: 2, scope: !368, file: !212, line: 2354, type: !235)
!375 = !{!376}
!376 = !DITemplateTypeParameter(name: "T", type: !53)
!377 = !DILocation(line: 0, scope: !368)
!378 = !DILocation(line: 2354, column: 71, scope: !368)
!379 = !{!380}
!380 = distinct !{!380, !381, !"_ZN42_$LT$$RF$T$u20$as$u20$core..fmt..Debug$GT$3fmt17h71a3c0bbad5d61c2E: %self"}
!381 = distinct !{!381, !"_ZN42_$LT$$RF$T$u20$as$u20$core..fmt..Debug$GT$3fmt17h71a3c0bbad5d61c2E"}
!382 = !DILocation(line: 2354, column: 62, scope: !368)
!383 = !DILocation(line: 0, scope: !355, inlinedAt: !384)
!384 = distinct !DILocation(line: 2354, column: 62, scope: !368)
!385 = !DILocation(line: 2354, column: 71, scope: !355, inlinedAt: !384)
!386 = !{!387}
!387 = distinct !{!387, !381, !"_ZN42_$LT$$RF$T$u20$as$u20$core..fmt..Debug$GT$3fmt17h71a3c0bbad5d61c2E: %f"}
!388 = !DILocation(line: 2354, column: 62, scope: !355, inlinedAt: !384)
!389 = !DILocation(line: 2354, column: 84, scope: !368)
!390 = distinct !DISubprogram(name: "fmt<core::num::nonzero::NonZero<u64>>", linkageName: "_ZN42_$LT$$RF$T$u20$as$u20$core..fmt..Debug$GT$3fmt17h7945e695e7aee2abE", scope: !276, file: !212, line: 2354, type: !391, scopeLine: 2354, flags: DIFlagPrototyped, spFlags: DISPFlagLocalToUnit | DISPFlagDefinition | DISPFlagOptimized, unit: !116, templateParams: !397, retainedNodes: !394)
!391 = !DISubroutineType(types: !392)
!392 = !{!216, !393, !235}
!393 = !DIDerivedType(tag: DW_TAG_pointer_type, name: "&&core::num::nonzero::NonZero<u64>", baseType: !12, size: 64, align: 64, dwarfAddressSpace: 0)
!394 = !{!395, !396}
!395 = !DILocalVariable(name: "self", arg: 1, scope: !390, file: !212, line: 2354, type: !393)
!396 = !DILocalVariable(name: "f", arg: 2, scope: !390, file: !212, line: 2354, type: !235)
!397 = !{!398}
!398 = !DITemplateTypeParameter(name: "T", type: !13)
!399 = !DILocation(line: 0, scope: !390)
!400 = !DILocation(line: 2354, column: 71, scope: !390)
!401 = !DILocation(line: 2354, column: 62, scope: !390)
!402 = !{i64 1, i64 0}
!403 = !{!404}
!404 = distinct !{!404, !405, !"_ZN73_$LT$core..num..nonzero..NonZero$LT$T$GT$$u20$as$u20$core..fmt..Debug$GT$3fmt17h3a062a15f31a41f3E: %f"}
!405 = distinct !{!405, !"_ZN73_$LT$core..num..nonzero..NonZero$LT$T$GT$$u20$as$u20$core..fmt..Debug$GT$3fmt17h3a062a15f31a41f3E"}
!406 = !DILocalVariable(name: "self", arg: 1, scope: !407, file: !408, line: 126, type: !12)
!407 = distinct !DISubprogram(name: "fmt<u64>", linkageName: "_ZN73_$LT$core..num..nonzero..NonZero$LT$T$GT$$u20$as$u20$core..fmt..Debug$GT$3fmt17h3a062a15f31a41f3E", scope: !409, file: !408, line: 126, type: !410, scopeLine: 126, flags: DIFlagPrototyped, spFlags: DISPFlagLocalToUnit | DISPFlagDefinition | DISPFlagOptimized, unit: !116, templateParams: !25, retainedNodes: !412)
!408 = !DIFile(filename: "/home/arsalan/Documents/Github/unsafe-rust-benchmark/library/core/src/num/nonzero.rs", directory: "", checksumkind: CSK_MD5, checksum: "6ad24e76685b0e114d6ae2b100dfa0a0")
!409 = !DINamespace(name: "{impl#39}", scope: !14)
!410 = !DISubroutineType(types: !411)
!411 = !{!216, !12, !235}
!412 = !{!406, !413}
!413 = !DILocalVariable(name: "f", arg: 2, scope: !407, file: !408, line: 126, type: !235)
!414 = !DILocation(line: 0, scope: !407, inlinedAt: !415)
!415 = distinct !DILocation(line: 2354, column: 62, scope: !390)
!416 = !DILocation(line: 127, column: 17, scope: !407, inlinedAt: !415)
!417 = !DILocalVariable(name: "self", arg: 1, scope: !418, file: !408, line: 434, type: !13)
!418 = distinct !DILexicalBlock(scope: !419, file: !408, line: 434, column: 5)
!419 = distinct !DISubprogram(name: "get<u64>", linkageName: "_ZN4core3num7nonzero16NonZero$LT$T$GT$3get17hbc320d86788f874fE", scope: !13, file: !408, line: 434, type: !420, scopeLine: 434, flags: DIFlagPrototyped, spFlags: DISPFlagLocalToUnit | DISPFlagDefinition | DISPFlagOptimized, unit: !116, templateParams: !25, declaration: !422, retainedNodes: !423)
!420 = !DISubroutineType(types: !421)
!421 = !{!23, !13}
!422 = !DISubprogram(name: "get<u64>", linkageName: "_ZN4core3num7nonzero16NonZero$LT$T$GT$3get17hbc320d86788f874fE", scope: !13, file: !408, line: 434, type: !420, scopeLine: 434, flags: DIFlagPrototyped, spFlags: DISPFlagLocalToUnit | DISPFlagOptimized, templateParams: !25)
!423 = !{!417}
!424 = !DILocation(line: 0, scope: !418, inlinedAt: !425)
!425 = distinct !DILocation(line: 127, column: 22, scope: !407, inlinedAt: !415)
!426 = !DILocation(line: 447, column: 18, scope: !418, inlinedAt: !425)
!427 = !DILocalVariable(name: "self", arg: 1, scope: !428, file: !290, line: 189, type: !432)
!428 = distinct !DISubprogram(name: "fmt", linkageName: "_ZN4core3fmt3num50_$LT$impl$u20$core..fmt..Debug$u20$for$u20$u64$GT$3fmt17hf3b4b1fe0b8575eeE", scope: !429, file: !290, line: 189, type: !430, scopeLine: 189, flags: DIFlagPrototyped, spFlags: DISPFlagLocalToUnit | DISPFlagDefinition | DISPFlagOptimized, unit: !116, templateParams: !24, retainedNodes: !433)
!429 = !DINamespace(name: "{impl#87}", scope: !292)
!430 = !DISubroutineType(types: !431)
!431 = !{!216, !432, !235}
!432 = !DIDerivedType(tag: DW_TAG_pointer_type, name: "&u64", baseType: !23, size: 64, align: 64, dwarfAddressSpace: 0)
!433 = !{!427, !434}
!434 = !DILocalVariable(name: "f", arg: 2, scope: !428, file: !290, line: 189, type: !235)
!435 = !DILocation(line: 0, scope: !428, inlinedAt: !436)
!436 = distinct !DILocation(line: 127, column: 17, scope: !407, inlinedAt: !415)
!437 = !DILocalVariable(name: "self", arg: 1, scope: !438, file: !212, line: 1907, type: !235)
!438 = distinct !DILexicalBlock(scope: !439, file: !212, line: 1907, column: 5)
!439 = distinct !DISubprogram(name: "debug_lower_hex", linkageName: "_ZN4core3fmt9Formatter15debug_lower_hex17h9aa1604b062df0e6E", scope: !236, file: !212, line: 1907, type: !302, scopeLine: 1907, flags: DIFlagPrototyped, spFlags: DISPFlagLocalToUnit | DISPFlagDefinition | DISPFlagOptimized, unit: !116, templateParams: !24, declaration: !305, retainedNodes: !440)
!440 = !{!437}
!441 = !DILocation(line: 0, scope: !438, inlinedAt: !442)
!442 = distinct !DILocation(line: 190, column: 22, scope: !428, inlinedAt: !436)
!443 = !DILocalVariable(name: "self", arg: 1, scope: !444, file: !212, line: 1911, type: !235)
!444 = distinct !DILexicalBlock(scope: !445, file: !212, line: 1911, column: 5)
!445 = distinct !DISubprogram(name: "debug_upper_hex", linkageName: "_ZN4core3fmt9Formatter15debug_upper_hex17h0b52a51434de3210E", scope: !236, file: !212, line: 1911, type: !302, scopeLine: 1911, flags: DIFlagPrototyped, spFlags: DISPFlagLocalToUnit | DISPFlagDefinition | DISPFlagOptimized, unit: !116, templateParams: !24, declaration: !312, retainedNodes: !446)
!446 = !{!443}
!447 = !DILocation(line: 0, scope: !444, inlinedAt: !448)
!448 = distinct !DILocation(line: 192, column: 29, scope: !428, inlinedAt: !436)
!449 = !DILocation(line: 1908, column: 9, scope: !438, inlinedAt: !442)
!450 = !{!451, !404}
!451 = distinct !{!451, !452, !"_ZN4core3fmt3num50_$LT$impl$u20$core..fmt..Debug$u20$for$u20$u64$GT$3fmt17hf3b4b1fe0b8575eeE: %f"}
!452 = distinct !{!452, !"_ZN4core3fmt3num50_$LT$impl$u20$core..fmt..Debug$u20$for$u20$u64$GT$3fmt17hf3b4b1fe0b8575eeE"}
!453 = !{!454}
!454 = distinct !{!454, !452, !"_ZN4core3fmt3num50_$LT$impl$u20$core..fmt..Debug$u20$for$u20$u64$GT$3fmt17hf3b4b1fe0b8575eeE: %self"}
!455 = !DILocation(line: 190, column: 20, scope: !428, inlinedAt: !436)
!456 = !DILocation(line: 1912, column: 9, scope: !444, inlinedAt: !448)
!457 = !DILocation(line: 192, column: 27, scope: !428, inlinedAt: !436)
!458 = !DILocation(line: 191, column: 21, scope: !428, inlinedAt: !436)
!459 = !DILocation(line: 195, column: 21, scope: !428, inlinedAt: !436)
!460 = !DILocation(line: 193, column: 21, scope: !428, inlinedAt: !436)
!461 = !DILocation(line: 128, column: 13, scope: !407, inlinedAt: !415)
!462 = !DILocation(line: 2354, column: 84, scope: !390)
!463 = distinct !DISubprogram(name: "fmt<tracing_core::metadata::Level>", linkageName: "_ZN42_$LT$$RF$T$u20$as$u20$core..fmt..Debug$GT$3fmt17hbb5b0ea3c55244f4E", scope: !276, file: !212, line: 2354, type: !464, scopeLine: 2354, flags: DIFlagPrototyped, spFlags: DISPFlagLocalToUnit | DISPFlagDefinition | DISPFlagOptimized, unit: !116, templateParams: !470, retainedNodes: !467)
!464 = !DISubroutineType(types: !465)
!465 = !{!216, !466, !235}
!466 = !DIDerivedType(tag: DW_TAG_pointer_type, name: "&&tracing_core::metadata::Level", baseType: !67, size: 64, align: 64, dwarfAddressSpace: 0)
!467 = !{!468, !469}
!468 = !DILocalVariable(name: "self", arg: 1, scope: !463, file: !212, line: 2354, type: !466)
!469 = !DILocalVariable(name: "f", arg: 2, scope: !463, file: !212, line: 2354, type: !235)
!470 = !{!471}
!471 = !DITemplateTypeParameter(name: "T", type: !68)
!472 = !DILocation(line: 0, scope: !463)
!473 = !DILocation(line: 2354, column: 71, scope: !463)
!474 = !DILocalVariable(name: "self", arg: 1, scope: !475, file: !345, line: 220, type: !67)
!475 = distinct !DISubprogram(name: "fmt", linkageName: "_ZN66_$LT$tracing_core..metadata..Level$u20$as$u20$core..fmt..Debug$GT$3fmt17h7203b2f48f3fdec3E", scope: !476, file: !345, line: 220, type: !477, scopeLine: 220, flags: DIFlagPrototyped, spFlags: DISPFlagLocalToUnit | DISPFlagDefinition | DISPFlagOptimized, unit: !116, templateParams: !24, retainedNodes: !479)
!476 = !DINamespace(name: "{impl#32}", scope: !37)
!477 = !DISubroutineType(types: !478)
!478 = !{!216, !67, !235}
!479 = !{!474, !480}
!480 = !DILocalVariable(name: "f", arg: 2, scope: !475, file: !345, line: 220, type: !235)
!481 = !DILocation(line: 0, scope: !475, inlinedAt: !482)
!482 = distinct !DILocation(line: 2354, column: 62, scope: !463)
!483 = !DILocation(line: 221, column: 18, scope: !475, inlinedAt: !482)
!484 = !{!485, !487}
!485 = distinct !{!485, !486, !"_ZN66_$LT$tracing_core..metadata..Level$u20$as$u20$core..fmt..Debug$GT$3fmt17h7203b2f48f3fdec3E: %self"}
!486 = distinct !{!486, !"_ZN66_$LT$tracing_core..metadata..Level$u20$as$u20$core..fmt..Debug$GT$3fmt17h7203b2f48f3fdec3E"}
!487 = distinct !{!487, !486, !"_ZN66_$LT$tracing_core..metadata..Level$u20$as$u20$core..fmt..Debug$GT$3fmt17h7203b2f48f3fdec3E: %f"}
!488 = !DILocation(line: 220, column: 23, scope: !475, inlinedAt: !482)
!489 = !DILocation(line: 220, column: 27, scope: !475, inlinedAt: !482)
!490 = !DILocation(line: 2354, column: 84, scope: !463)
!491 = distinct !DISubprogram(name: "drop_in_place<tracing::span::Span>", linkageName: "_ZN4core3ptr40drop_in_place$LT$tracing..span..Span$GT$17h47c79a7196b31a47E", scope: !138, file: !492, line: 542, type: !493, scopeLine: 542, flags: DIFlagPrototyped, spFlags: DISPFlagLocalToUnit | DISPFlagDefinition | DISPFlagOptimized, unit: !116, templateParams: !657, retainedNodes: !655)
!492 = !DIFile(filename: "/home/arsalan/Documents/Github/unsafe-rust-benchmark/library/core/src/ptr/mod.rs", directory: "", checksumkind: CSK_MD5, checksum: "a85d519116fde26821981e2ebfa0ecba")
!493 = !DISubroutineType(types: !494)
!494 = !{null, !495}
!495 = !DIDerivedType(tag: DW_TAG_pointer_type, name: "*mut tracing::span::Span", baseType: !496, size: 64, align: 64, dwarfAddressSpace: 0)
!496 = !DICompositeType(tag: DW_TAG_structure_type, name: "Span", scope: !497, file: !2, size: 320, align: 64, flags: DIFlagPublic, elements: !499, templateParams: !24, identifier: "aa1ae4df75c54ee0cacdf4cb54262788")
!497 = !DINamespace(name: "span", scope: !498)
!498 = !DINamespace(name: "tracing", scope: null)
!499 = !{!500, !585}
!500 = !DIDerivedType(tag: DW_TAG_member, name: "inner", scope: !496, file: !2, baseType: !501, size: 256, align: 64, flags: DIFlagPrivate)
!501 = !DICompositeType(tag: DW_TAG_structure_type, name: "Option<tracing::span::Inner>", scope: !244, file: !2, size: 256, align: 64, flags: DIFlagPublic, elements: !502, templateParams: !24, identifier: "e1b971ca34a26e525ff2821529999320")
!502 = !{!503}
!503 = !DICompositeType(tag: DW_TAG_variant_part, scope: !501, file: !2, size: 256, align: 64, elements: !504, templateParams: !24, identifier: "403dd481c295ade255c2fa9523bcf672", discriminator: !584)
!504 = !{!505, !580}
!505 = !DIDerivedType(tag: DW_TAG_member, name: "None", scope: !503, file: !2, baseType: !506, size: 256, align: 64, extraData: i128 2)
!506 = !DICompositeType(tag: DW_TAG_structure_type, name: "None", scope: !501, file: !2, size: 256, align: 64, flags: DIFlagPublic, elements: !24, templateParams: !507, identifier: "3c19a37d0757c0319ad2324ad5674bed")
!507 = !{!508}
!508 = !DITemplateTypeParameter(name: "T", type: !509)
!509 = !DICompositeType(tag: DW_TAG_structure_type, name: "Inner", scope: !497, file: !2, size: 256, align: 64, flags: DIFlagProtected, elements: !510, templateParams: !24, identifier: "94908639363bef2cbe0fc9130dcf9404")
!510 = !{!511, !512}
!511 = !DIDerivedType(tag: DW_TAG_member, name: "id", scope: !509, file: !2, baseType: !79, size: 64, align: 64, offset: 192, flags: DIFlagPrivate)
!512 = !DIDerivedType(tag: DW_TAG_member, name: "subscriber", scope: !509, file: !2, baseType: !513, size: 192, align: 64, flags: DIFlagPrivate)
!513 = !DICompositeType(tag: DW_TAG_structure_type, name: "Dispatch", scope: !514, file: !2, size: 192, align: 64, flags: DIFlagPublic, elements: !515, templateParams: !24, identifier: "f513359f5f96301a76fe25b76bf4d8e4")
!514 = !DINamespace(name: "dispatcher", scope: !38)
!515 = !{!516}
!516 = !DIDerivedType(tag: DW_TAG_member, name: "subscriber", scope: !513, file: !2, baseType: !517, size: 192, align: 64, flags: DIFlagPrivate)
!517 = !DICompositeType(tag: DW_TAG_structure_type, name: "Kind<alloc::sync::Arc<(dyn tracing_core::subscriber::Subscriber + core::marker::Send + core::marker::Sync), alloc::alloc::Global>>", scope: !514, file: !2, size: 192, align: 64, flags: DIFlagPrivate, elements: !518, templateParams: !24, identifier: "7cb32a7a4cf61c40753f9af8eda9fd69")
!518 = !{!519}
!519 = !DICompositeType(tag: DW_TAG_variant_part, scope: !517, file: !2, size: 192, align: 64, elements: !520, templateParams: !24, identifier: "a49141d706bc8ab32715280cd56a9598", discriminator: !579)
!520 = !{!521, !575}
!521 = !DIDerivedType(tag: DW_TAG_member, name: "Global", scope: !519, file: !2, baseType: !522, size: 192, align: 64, extraData: i128 0)
!522 = !DICompositeType(tag: DW_TAG_structure_type, name: "Global", scope: !517, file: !2, size: 192, align: 64, flags: DIFlagPrivate, elements: !523, templateParams: !535, identifier: "21ab0d80e171cf9d3720901adec4027f")
!523 = !{!524}
!524 = !DIDerivedType(tag: DW_TAG_member, name: "__0", scope: !522, file: !2, baseType: !525, size: 128, align: 64, offset: 64, flags: DIFlagPrivate)
!525 = !DICompositeType(tag: DW_TAG_structure_type, name: "&(dyn tracing_core::subscriber::Subscriber + core::marker::Send + core::marker::Sync)", file: !2, size: 128, align: 64, elements: !526, templateParams: !24, identifier: "16fab107c0a541436ee8c6ecf7042812")
!526 = !{!527, !530}
!527 = !DIDerivedType(tag: DW_TAG_member, name: "pointer", scope: !525, file: !2, baseType: !528, size: 64, align: 64)
!528 = !DIDerivedType(tag: DW_TAG_pointer_type, baseType: !529, size: 64, align: 64, dwarfAddressSpace: 0)
!529 = !DICompositeType(tag: DW_TAG_structure_type, name: "(dyn tracing_core::subscriber::Subscriber + core::marker::Send + core::marker::Sync)", file: !2, align: 8, elements: !24, identifier: "ce8e0bac22c4feba408114ee1b241eda")
!530 = !DIDerivedType(tag: DW_TAG_member, name: "vtable", scope: !525, file: !2, baseType: !531, size: 64, align: 64, offset: 64)
!531 = !DIDerivedType(tag: DW_TAG_pointer_type, name: "&[usize; 19]", baseType: !532, size: 64, align: 64, dwarfAddressSpace: 0)
!532 = !DICompositeType(tag: DW_TAG_array_type, baseType: !9, size: 1216, align: 64, elements: !533)
!533 = !{!534}
!534 = !DISubrange(count: 19, lowerBound: 0)
!535 = !{!536}
!536 = !DITemplateTypeParameter(name: "T", type: !537)
!537 = !DICompositeType(tag: DW_TAG_structure_type, name: "Arc<(dyn tracing_core::subscriber::Subscriber + core::marker::Send + core::marker::Sync), alloc::alloc::Global>", scope: !538, file: !2, size: 128, align: 64, flags: DIFlagPublic, elements: !540, templateParams: !573, identifier: "165c8fc35a08543ceefbd4746397f59c")
!538 = !DINamespace(name: "sync", scope: !539)
!539 = !DINamespace(name: "alloc", scope: null)
!540 = !{!541, !567, !570}
!541 = !DIDerivedType(tag: DW_TAG_member, name: "ptr", scope: !537, file: !2, baseType: !542, size: 128, align: 64, flags: DIFlagPrivate)
!542 = !DICompositeType(tag: DW_TAG_structure_type, name: "NonNull<alloc::sync::ArcInner<(dyn tracing_core::subscriber::Subscriber + core::marker::Send + core::marker::Sync)>>", scope: !543, file: !2, size: 128, align: 64, flags: DIFlagPublic, elements: !544, templateParams: !565, identifier: "13db5b897d334de180996f5308efd323")
!543 = !DINamespace(name: "non_null", scope: !138)
!544 = !{!545}
!545 = !DIDerivedType(tag: DW_TAG_member, name: "pointer", scope: !542, file: !2, baseType: !546, size: 128, align: 64, flags: DIFlagPrivate)
!546 = !DICompositeType(tag: DW_TAG_structure_type, name: "*const alloc::sync::ArcInner<(dyn tracing_core::subscriber::Subscriber + core::marker::Send + core::marker::Sync)>", file: !2, size: 128, align: 64, elements: !547, templateParams: !24, identifier: "9ddad5a4adbe4401f27fb0dfa99cc3a")
!547 = !{!548, !564}
!548 = !DIDerivedType(tag: DW_TAG_member, name: "pointer", scope: !546, file: !2, baseType: !549, size: 64, align: 64)
!549 = !DIDerivedType(tag: DW_TAG_pointer_type, baseType: !550, size: 64, align: 64, dwarfAddressSpace: 0)
!550 = !DICompositeType(tag: DW_TAG_structure_type, name: "ArcInner<(dyn tracing_core::subscriber::Subscriber + core::marker::Send + core::marker::Sync)>", scope: !538, file: !2, size: 128, align: 64, flags: DIFlagPrivate, elements: !551, templateParams: !562, identifier: "6b5c7714fa91098da5f1add0cecda23")
!551 = !{!552, !560, !561}
!552 = !DIDerivedType(tag: DW_TAG_member, name: "strong", scope: !550, file: !2, baseType: !553, size: 64, align: 64, flags: DIFlagPrivate)
!553 = !DICompositeType(tag: DW_TAG_structure_type, name: "AtomicUsize", scope: !120, file: !2, size: 64, align: 64, flags: DIFlagPublic, elements: !554, templateParams: !24, identifier: "5e2d2bd30b2255a1bb7bbacbfa3cfa79")
!554 = !{!555}
!555 = !DIDerivedType(tag: DW_TAG_member, name: "v", scope: !553, file: !2, baseType: !556, size: 64, align: 64, flags: DIFlagPrivate)
!556 = !DICompositeType(tag: DW_TAG_structure_type, name: "UnsafeCell<usize>", scope: !557, file: !2, size: 64, align: 64, flags: DIFlagPublic, elements: !558, templateParams: !250, identifier: "739795389d327d6873469e3d89b8c60e")
!557 = !DINamespace(name: "cell", scope: !16)
!558 = !{!559}
!559 = !DIDerivedType(tag: DW_TAG_member, name: "value", scope: !556, file: !2, baseType: !9, size: 64, align: 64, flags: DIFlagPrivate)
!560 = !DIDerivedType(tag: DW_TAG_member, name: "weak", scope: !550, file: !2, baseType: !553, size: 64, align: 64, offset: 64, flags: DIFlagPrivate)
!561 = !DIDerivedType(tag: DW_TAG_member, name: "data", scope: !550, file: !2, baseType: !529, align: 8, offset: 128, flags: DIFlagPrivate)
!562 = !{!563}
!563 = !DITemplateTypeParameter(name: "T", type: !529)
!564 = !DIDerivedType(tag: DW_TAG_member, name: "vtable", scope: !546, file: !2, baseType: !531, size: 64, align: 64, offset: 64)
!565 = !{!566}
!566 = !DITemplateTypeParameter(name: "T", type: !550)
!567 = !DIDerivedType(tag: DW_TAG_member, name: "phantom", scope: !537, file: !2, baseType: !568, align: 8, offset: 128, flags: DIFlagPrivate)
!568 = !DICompositeType(tag: DW_TAG_structure_type, name: "PhantomData<alloc::sync::ArcInner<(dyn tracing_core::subscriber::Subscriber + core::marker::Send + core::marker::Sync)>>", scope: !569, file: !2, align: 8, flags: DIFlagPublic, elements: !24, templateParams: !565, identifier: "682416ecbb2b71b69b8fc69936e2cb56")
!569 = !DINamespace(name: "marker", scope: !16)
!570 = !DIDerivedType(tag: DW_TAG_member, name: "alloc", scope: !537, file: !2, baseType: !571, align: 8, offset: 128, flags: DIFlagPrivate)
!571 = !DICompositeType(tag: DW_TAG_structure_type, name: "Global", scope: !572, file: !2, align: 8, flags: DIFlagPublic, elements: !24, identifier: "14de19725ec4b1fd38fae074afd4da08")
!572 = !DINamespace(name: "alloc", scope: !539)
!573 = !{!563, !574}
!574 = !DITemplateTypeParameter(name: "A", type: !571)
!575 = !DIDerivedType(tag: DW_TAG_member, name: "Scoped", scope: !519, file: !2, baseType: !576, size: 192, align: 64, extraData: i128 1)
!576 = !DICompositeType(tag: DW_TAG_structure_type, name: "Scoped", scope: !517, file: !2, size: 192, align: 64, flags: DIFlagPrivate, elements: !577, templateParams: !535, identifier: "aa95d937bbfe68d1ad746d2f9081a7e")
!577 = !{!578}
!578 = !DIDerivedType(tag: DW_TAG_member, name: "__0", scope: !576, file: !2, baseType: !537, size: 128, align: 64, offset: 64, flags: DIFlagPrivate)
!579 = !DIDerivedType(tag: DW_TAG_member, scope: !517, file: !2, baseType: !23, size: 64, align: 64, flags: DIFlagArtificial)
!580 = !DIDerivedType(tag: DW_TAG_member, name: "Some", scope: !503, file: !2, baseType: !581, size: 256, align: 64)
!581 = !DICompositeType(tag: DW_TAG_structure_type, name: "Some", scope: !501, file: !2, size: 256, align: 64, flags: DIFlagPublic, elements: !582, templateParams: !507, identifier: "e0aa69c1c456079f2fdb2e15379d81be")
!582 = !{!583}
!583 = !DIDerivedType(tag: DW_TAG_member, name: "__0", scope: !581, file: !2, baseType: !509, size: 256, align: 64, flags: DIFlagPublic)
!584 = !DIDerivedType(tag: DW_TAG_member, scope: !501, file: !2, baseType: !23, size: 64, align: 64, flags: DIFlagArtificial)
!585 = !DIDerivedType(tag: DW_TAG_member, name: "meta", scope: !496, file: !2, baseType: !586, size: 64, align: 64, offset: 256, flags: DIFlagPrivate)
!586 = !DICompositeType(tag: DW_TAG_structure_type, name: "Option<&tracing_core::metadata::Metadata>", scope: !244, file: !2, size: 64, align: 64, flags: DIFlagPublic, elements: !587, templateParams: !24, identifier: "81a1ee220b23247d38e7c215ff5796eb")
!587 = !{!588}
!588 = !DICompositeType(tag: DW_TAG_variant_part, scope: !586, file: !2, size: 64, align: 64, elements: !589, templateParams: !24, identifier: "be4c847ce0c66495a8b1105341889a5b", discriminator: !654)
!589 = !{!590, !650}
!590 = !DIDerivedType(tag: DW_TAG_member, name: "None", scope: !588, file: !2, baseType: !591, size: 64, align: 64, extraData: i128 0)
!591 = !DICompositeType(tag: DW_TAG_structure_type, name: "None", scope: !586, file: !2, size: 64, align: 64, flags: DIFlagPublic, elements: !24, templateParams: !592, identifier: "159a853285ddedad307b415a1a5bc800")
!592 = !{!593}
!593 = !DITemplateTypeParameter(name: "T", type: !594)
!594 = !DIDerivedType(tag: DW_TAG_pointer_type, name: "&tracing_core::metadata::Metadata", baseType: !595, size: 64, align: 64, dwarfAddressSpace: 0)
!595 = !DICompositeType(tag: DW_TAG_structure_type, name: "Metadata", scope: !37, file: !2, size: 960, align: 64, flags: DIFlagPublic, elements: !596, templateParams: !24, identifier: "3b84479356cedceecb2a6e9a052a0bb")
!596 = !{!597, !598, !599, !600, !612, !613, !625, !646}
!597 = !DIDerivedType(tag: DW_TAG_member, name: "name", scope: !595, file: !2, baseType: !53, size: 128, align: 64, offset: 128, flags: DIFlagPrivate)
!598 = !DIDerivedType(tag: DW_TAG_member, name: "target", scope: !595, file: !2, baseType: !53, size: 128, align: 64, offset: 256, flags: DIFlagPrivate)
!599 = !DIDerivedType(tag: DW_TAG_member, name: "level", scope: !595, file: !2, baseType: !68, size: 64, align: 64, flags: DIFlagPrivate)
!600 = !DIDerivedType(tag: DW_TAG_member, name: "module_path", scope: !595, file: !2, baseType: !601, size: 128, align: 64, offset: 640, flags: DIFlagPrivate)
!601 = !DICompositeType(tag: DW_TAG_structure_type, name: "Option<&str>", scope: !244, file: !2, size: 128, align: 64, flags: DIFlagPublic, elements: !602, templateParams: !24, identifier: "c9cc8e2c9bc8d3061e54de437c9b5882")
!602 = !{!603}
!603 = !DICompositeType(tag: DW_TAG_variant_part, scope: !601, file: !2, size: 128, align: 64, elements: !604, templateParams: !24, identifier: "dc91c89dee9d03b772ff0b7d0b60a9cb", discriminator: !611)
!604 = !{!605, !607}
!605 = !DIDerivedType(tag: DW_TAG_member, name: "None", scope: !603, file: !2, baseType: !606, size: 128, align: 64, extraData: i128 0)
!606 = !DICompositeType(tag: DW_TAG_structure_type, name: "None", scope: !601, file: !2, size: 128, align: 64, flags: DIFlagPublic, elements: !24, templateParams: !375, identifier: "20871c480156d021cbbc4b2eec20a35c")
!607 = !DIDerivedType(tag: DW_TAG_member, name: "Some", scope: !603, file: !2, baseType: !608, size: 128, align: 64)
!608 = !DICompositeType(tag: DW_TAG_structure_type, name: "Some", scope: !601, file: !2, size: 128, align: 64, flags: DIFlagPublic, elements: !609, templateParams: !375, identifier: "2bd48e68865dce7a72b4a9887ea344e7")
!609 = !{!610}
!610 = !DIDerivedType(tag: DW_TAG_member, name: "__0", scope: !608, file: !2, baseType: !53, size: 128, align: 64, flags: DIFlagPublic)
!611 = !DIDerivedType(tag: DW_TAG_member, scope: !601, file: !2, baseType: !23, size: 64, align: 64, flags: DIFlagArtificial)
!612 = !DIDerivedType(tag: DW_TAG_member, name: "file", scope: !595, file: !2, baseType: !601, size: 128, align: 64, offset: 768, flags: DIFlagPrivate)
!613 = !DIDerivedType(tag: DW_TAG_member, name: "line", scope: !595, file: !2, baseType: !614, size: 64, align: 32, offset: 64, flags: DIFlagPrivate)
!614 = !DICompositeType(tag: DW_TAG_structure_type, name: "Option<u32>", scope: !244, file: !2, size: 64, align: 32, flags: DIFlagPublic, elements: !615, templateParams: !24, identifier: "ebe2cffeee76dada7a14f25e4750045b")
!615 = !{!616}
!616 = !DICompositeType(tag: DW_TAG_variant_part, scope: !614, file: !2, size: 64, align: 32, elements: !617, templateParams: !24, identifier: "3a58987d801709f0f7fa9f7e54d1fd1d", discriminator: !624)
!617 = !{!618, !620}
!618 = !DIDerivedType(tag: DW_TAG_member, name: "None", scope: !616, file: !2, baseType: !619, size: 64, align: 32, extraData: i128 0)
!619 = !DICompositeType(tag: DW_TAG_structure_type, name: "None", scope: !614, file: !2, size: 64, align: 32, flags: DIFlagPublic, elements: !24, templateParams: !283, identifier: "e28adf562df1b32c687fa9358c66829a")
!620 = !DIDerivedType(tag: DW_TAG_member, name: "Some", scope: !616, file: !2, baseType: !621, size: 64, align: 32, extraData: i128 1)
!621 = !DICompositeType(tag: DW_TAG_structure_type, name: "Some", scope: !614, file: !2, size: 64, align: 32, flags: DIFlagPublic, elements: !622, templateParams: !283, identifier: "f83975a5848a2c13d4de936bd3cabeef")
!622 = !{!623}
!623 = !DIDerivedType(tag: DW_TAG_member, name: "__0", scope: !621, file: !2, baseType: !110, size: 32, align: 32, offset: 32, flags: DIFlagPublic)
!624 = !DIDerivedType(tag: DW_TAG_member, scope: !614, file: !2, baseType: !110, size: 32, align: 32, flags: DIFlagArtificial)
!625 = !DIDerivedType(tag: DW_TAG_member, name: "fields", scope: !595, file: !2, baseType: !626, size: 256, align: 64, offset: 384, flags: DIFlagPrivate)
!626 = !DICompositeType(tag: DW_TAG_structure_type, name: "FieldSet", scope: !627, file: !2, size: 256, align: 64, flags: DIFlagPublic, elements: !628, templateParams: !24, identifier: "642257ca0ce4840b22f807882fb913e5")
!627 = !DINamespace(name: "field", scope: !38)
!628 = !{!629, !635}
!629 = !DIDerivedType(tag: DW_TAG_member, name: "names", scope: !626, file: !2, baseType: !630, size: 128, align: 64, flags: DIFlagPrivate)
!630 = !DICompositeType(tag: DW_TAG_structure_type, name: "&[&str]", file: !2, size: 128, align: 64, elements: !631, templateParams: !24, identifier: "4e66b00a376d6af5b8765440fb2839f")
!631 = !{!632, !634}
!632 = !DIDerivedType(tag: DW_TAG_member, name: "data_ptr", scope: !630, file: !2, baseType: !633, size: 64, align: 64)
!633 = !DIDerivedType(tag: DW_TAG_pointer_type, baseType: !53, size: 64, align: 64, dwarfAddressSpace: 0)
!634 = !DIDerivedType(tag: DW_TAG_member, name: "length", scope: !630, file: !2, baseType: !9, size: 64, align: 64, offset: 64)
!635 = !DIDerivedType(tag: DW_TAG_member, name: "callsite", scope: !626, file: !2, baseType: !636, size: 128, align: 64, offset: 128, flags: DIFlagPrivate)
!636 = !DICompositeType(tag: DW_TAG_structure_type, name: "Identifier", scope: !637, file: !2, size: 128, align: 64, flags: DIFlagPublic, elements: !638, templateParams: !24, identifier: "694a2c46ec2152c644a6ea782ce3d0c9")
!637 = !DINamespace(name: "callsite", scope: !38)
!638 = !{!639}
!639 = !DIDerivedType(tag: DW_TAG_member, name: "__0", scope: !636, file: !2, baseType: !640, size: 128, align: 64, flags: DIFlagPublic)
!640 = !DICompositeType(tag: DW_TAG_structure_type, name: "&dyn tracing_core::callsite::Callsite", file: !2, size: 128, align: 64, elements: !641, templateParams: !24, identifier: "df1a176f56d6ca7c28bcf92f700ee32a")
!641 = !{!642, !645}
!642 = !DIDerivedType(tag: DW_TAG_member, name: "pointer", scope: !640, file: !2, baseType: !643, size: 64, align: 64)
!643 = !DIDerivedType(tag: DW_TAG_pointer_type, baseType: !644, size: 64, align: 64, dwarfAddressSpace: 0)
!644 = !DICompositeType(tag: DW_TAG_structure_type, name: "dyn tracing_core::callsite::Callsite", file: !2, align: 8, elements: !24, identifier: "5c748cc422d45a5e574d89abc4ee022")
!645 = !DIDerivedType(tag: DW_TAG_member, name: "vtable", scope: !640, file: !2, baseType: !265, size: 64, align: 64, offset: 64)
!646 = !DIDerivedType(tag: DW_TAG_member, name: "kind", scope: !595, file: !2, baseType: !647, size: 8, align: 8, offset: 896, flags: DIFlagPrivate)
!647 = !DICompositeType(tag: DW_TAG_structure_type, name: "Kind", scope: !37, file: !2, size: 8, align: 8, flags: DIFlagPublic, elements: !648, templateParams: !24, identifier: "4cc597743dd29f5ff357f7fb040d40ab")
!648 = !{!649}
!649 = !DIDerivedType(tag: DW_TAG_member, name: "__0", scope: !647, file: !2, baseType: !57, size: 8, align: 8, flags: DIFlagPrivate)
!650 = !DIDerivedType(tag: DW_TAG_member, name: "Some", scope: !588, file: !2, baseType: !651, size: 64, align: 64)
!651 = !DICompositeType(tag: DW_TAG_structure_type, name: "Some", scope: !586, file: !2, size: 64, align: 64, flags: DIFlagPublic, elements: !652, templateParams: !592, identifier: "b9052824f1cc6e87c17d5b6d70598857")
!652 = !{!653}
!653 = !DIDerivedType(tag: DW_TAG_member, name: "__0", scope: !651, file: !2, baseType: !594, size: 64, align: 64, flags: DIFlagPublic)
!654 = !DIDerivedType(tag: DW_TAG_member, scope: !586, file: !2, baseType: !23, size: 64, align: 64, flags: DIFlagArtificial)
!655 = !{!656}
!656 = !DILocalVariable(arg: 1, scope: !491, file: !492, line: 542, type: !495)
!657 = !{!658}
!658 = !DITemplateTypeParameter(name: "T", type: !496)
!659 = !DILocation(line: 0, scope: !491)
!660 = !DILocalVariable(name: "self", arg: 1, scope: !661, file: !662, line: 1457, type: !666)
!661 = distinct !DISubprogram(name: "drop", linkageName: "_ZN61_$LT$tracing..span..Span$u20$as$u20$core..ops..drop..Drop$GT$4drop17h79a747c7f385e531E", scope: !663, file: !662, line: 1457, type: !664, scopeLine: 1457, flags: DIFlagPrototyped, spFlags: DISPFlagLocalToUnit | DISPFlagDefinition | DISPFlagOptimized, unit: !116, templateParams: !24, retainedNodes: !667)
!662 = !DIFile(filename: "src/span.rs", directory: "/home/arsalan/.cargo/registry/src/index.crates.io-1949cf8c6b5b557f/tracing-0.1.40", checksumkind: CSK_MD5, checksum: "36b173768066d898131844f4dbe718c0")
!663 = !DINamespace(name: "{impl#9}", scope: !497)
!664 = !DISubroutineType(types: !665)
!665 = !{null, !666}
!666 = !DIDerivedType(tag: DW_TAG_pointer_type, name: "&mut tracing::span::Span", baseType: !496, size: 64, align: 64, dwarfAddressSpace: 0)
!667 = !{!660, !668, !671}
!668 = !DILocalVariable(name: "id", scope: !669, file: !662, line: 1459, type: !670, align: 8)
!669 = distinct !DILexicalBlock(scope: !661, file: !662, line: 1462, column: 9)
!670 = !DIDerivedType(tag: DW_TAG_pointer_type, name: "&tracing_core::span::Id", baseType: !79, size: 64, align: 64, dwarfAddressSpace: 0)
!671 = !DILocalVariable(name: "subscriber", scope: !669, file: !662, line: 1460, type: !672, align: 8)
!672 = !DIDerivedType(tag: DW_TAG_pointer_type, name: "&tracing_core::dispatcher::Dispatch", baseType: !513, size: 64, align: 64, dwarfAddressSpace: 0)
!673 = !DILocation(line: 0, scope: !661, inlinedAt: !674)
!674 = distinct !DILocation(line: 542, column: 1, scope: !491)
!675 = !DILocation(line: 1458, column: 16, scope: !669, inlinedAt: !674)
!676 = !{i64 0, i64 3}
!677 = !DILocation(line: 0, scope: !669, inlinedAt: !674)
!678 = !DILocalVariable(name: "self", arg: 1, scope: !679, file: !680, line: 15, type: !670)
!679 = distinct !DILexicalBlock(scope: !681, file: !680, line: 15, column: 10)
!680 = !DIFile(filename: "/home/arsalan/.cargo/registry/src/index.crates.io-1949cf8c6b5b557f/tracing-core-0.1.32/src/span.rs", directory: "", checksumkind: CSK_MD5, checksum: "2dedf5da54da6a00065d1e911ab65f60")
!681 = distinct !DISubprogram(name: "clone", linkageName: "_ZN61_$LT$tracing_core..span..Id$u20$as$u20$core..clone..Clone$GT$5clone17h5e223a06f4921736E", scope: !682, file: !680, line: 15, type: !683, scopeLine: 15, flags: DIFlagPrototyped, spFlags: DISPFlagLocalToUnit | DISPFlagDefinition | DISPFlagOptimized, unit: !116, templateParams: !24, retainedNodes: !685)
!682 = !DINamespace(name: "{impl#9}", scope: !80)
!683 = !DISubroutineType(types: !684)
!684 = !{!79, !670}
!685 = !{!678}
!686 = !DILocation(line: 0, scope: !679, inlinedAt: !687)
!687 = distinct !DILocation(line: 1463, column: 37, scope: !669, inlinedAt: !674)
!688 = !DILocalVariable(name: "self", arg: 1, scope: !689, file: !408, line: 166, type: !12)
!689 = distinct !DILexicalBlock(scope: !690, file: !408, line: 166, column: 5)
!690 = distinct !DISubprogram(name: "clone<u64>", linkageName: "_ZN75_$LT$core..num..nonzero..NonZero$LT$T$GT$$u20$as$u20$core..clone..Clone$GT$5clone17heffdaa7f954382e9E", scope: !691, file: !408, line: 166, type: !692, scopeLine: 166, flags: DIFlagPrototyped, spFlags: DISPFlagLocalToUnit | DISPFlagDefinition | DISPFlagOptimized, unit: !116, templateParams: !25, retainedNodes: !694)
!691 = !DINamespace(name: "{impl#0}", scope: !14)
!692 = !DISubroutineType(types: !693)
!693 = !{!13, !12}
!694 = !{!688}
!695 = !DILocation(line: 0, scope: !689, inlinedAt: !696)
!696 = distinct !DILocation(line: 16, column: 15, scope: !679, inlinedAt: !687)
!697 = !DILocation(line: 167, column: 14, scope: !689, inlinedAt: !696)
!698 = !{!699}
!699 = distinct !{!699, !700, !"_ZN61_$LT$tracing..span..Span$u20$as$u20$core..ops..drop..Drop$GT$4drop17h79a747c7f385e531E: %self"}
!700 = distinct !{!700, !"_ZN61_$LT$tracing..span..Span$u20$as$u20$core..ops..drop..Drop$GT$4drop17h79a747c7f385e531E"}
!701 = !DILocation(line: 1463, column: 13, scope: !669, inlinedAt: !674)
!702 = !DILocation(line: 542, column: 1, scope: !491)
!703 = !{!704}
!704 = distinct !{!704, !705, !"_ZN4core3ptr69drop_in_place$LT$core..option..Option$LT$tracing..span..Inner$GT$$GT$17h1db1e8740abf1046E: %_1"}
!705 = distinct !{!705, !"_ZN4core3ptr69drop_in_place$LT$core..option..Option$LT$tracing..span..Inner$GT$$GT$17h1db1e8740abf1046E"}
!706 = !DILocalVariable(arg: 1, scope: !707, file: !492, line: 542, type: !710)
!707 = distinct !DISubprogram(name: "drop_in_place<core::option::Option<tracing::span::Inner>>", linkageName: "_ZN4core3ptr69drop_in_place$LT$core..option..Option$LT$tracing..span..Inner$GT$$GT$17h1db1e8740abf1046E", scope: !138, file: !492, line: 542, type: !708, scopeLine: 542, flags: DIFlagPrototyped, spFlags: DISPFlagLocalToUnit | DISPFlagDefinition | DISPFlagOptimized, unit: !116, templateParams: !712, retainedNodes: !711)
!708 = !DISubroutineType(types: !709)
!709 = !{null, !710}
!710 = !DIDerivedType(tag: DW_TAG_pointer_type, name: "*mut core::option::Option<tracing::span::Inner>", baseType: !501, size: 64, align: 64, dwarfAddressSpace: 0)
!711 = !{!706}
!712 = !{!713}
!713 = !DITemplateTypeParameter(name: "T", type: !501)
!714 = !DILocation(line: 0, scope: !707, inlinedAt: !715)
!715 = distinct !DILocation(line: 542, column: 1, scope: !491)
!716 = !{!717}
!717 = distinct !{!717, !718, !"_ZN4core3ptr41drop_in_place$LT$tracing..span..Inner$GT$17h9016837035fc36cdE: %_1"}
!718 = distinct !{!718, !"_ZN4core3ptr41drop_in_place$LT$tracing..span..Inner$GT$17h9016837035fc36cdE"}
!719 = !DILocation(line: 542, column: 1, scope: !707, inlinedAt: !715)
!720 = !DILocalVariable(arg: 1, scope: !721, file: !492, line: 542, type: !724)
!721 = distinct !DISubprogram(name: "drop_in_place<tracing::span::Inner>", linkageName: "_ZN4core3ptr41drop_in_place$LT$tracing..span..Inner$GT$17h9016837035fc36cdE", scope: !138, file: !492, line: 542, type: !722, scopeLine: 542, flags: DIFlagPrototyped, spFlags: DISPFlagLocalToUnit | DISPFlagDefinition | DISPFlagOptimized, unit: !116, templateParams: !507, retainedNodes: !725)
!722 = !DISubroutineType(types: !723)
!723 = !{null, !724}
!724 = !DIDerivedType(tag: DW_TAG_pointer_type, name: "*mut tracing::span::Inner", baseType: !509, size: 64, align: 64, dwarfAddressSpace: 0)
!725 = !{!720}
!726 = !DILocation(line: 0, scope: !721, inlinedAt: !727)
!727 = distinct !DILocation(line: 542, column: 1, scope: !707, inlinedAt: !715)
!728 = !{!729}
!729 = distinct !{!729, !730, !"_ZN4core3ptr55drop_in_place$LT$tracing_core..dispatcher..Dispatch$GT$17h7c6d9b43d7ecd45fE: %_1"}
!730 = distinct !{!730, !"_ZN4core3ptr55drop_in_place$LT$tracing_core..dispatcher..Dispatch$GT$17h7c6d9b43d7ecd45fE"}
!731 = !DILocation(line: 542, column: 1, scope: !721, inlinedAt: !727)
!732 = !DILocalVariable(arg: 1, scope: !733, file: !492, line: 542, type: !736)
!733 = distinct !DISubprogram(name: "drop_in_place<tracing_core::dispatcher::Dispatch>", linkageName: "_ZN4core3ptr55drop_in_place$LT$tracing_core..dispatcher..Dispatch$GT$17h7c6d9b43d7ecd45fE", scope: !138, file: !492, line: 542, type: !734, scopeLine: 542, flags: DIFlagPrototyped, spFlags: DISPFlagLocalToUnit | DISPFlagDefinition | DISPFlagOptimized, unit: !116, templateParams: !738, retainedNodes: !737)
!734 = !DISubroutineType(types: !735)
!735 = !{null, !736}
!736 = !DIDerivedType(tag: DW_TAG_pointer_type, name: "*mut tracing_core::dispatcher::Dispatch", baseType: !513, size: 64, align: 64, dwarfAddressSpace: 0)
!737 = !{!732}
!738 = !{!739}
!739 = !DITemplateTypeParameter(name: "T", type: !513)
!740 = !DILocation(line: 0, scope: !733, inlinedAt: !741)
!741 = distinct !DILocation(line: 542, column: 1, scope: !721, inlinedAt: !727)
!742 = !{!743}
!743 = distinct !{!743, !744, !"_ZN4core3ptr173drop_in_place$LT$tracing_core..dispatcher..Kind$LT$alloc..sync..Arc$LT$dyn$u20$tracing_core..subscriber..Subscriber$u2b$core..marker..Send$u2b$core..marker..Sync$GT$$GT$$GT$17h86cbf24f5334265dE: %_1"}
!744 = distinct !{!744, !"_ZN4core3ptr173drop_in_place$LT$tracing_core..dispatcher..Kind$LT$alloc..sync..Arc$LT$dyn$u20$tracing_core..subscriber..Subscriber$u2b$core..marker..Send$u2b$core..marker..Sync$GT$$GT$$GT$17h86cbf24f5334265dE"}
!745 = !DILocation(line: 542, column: 1, scope: !733, inlinedAt: !741)
!746 = !DILocalVariable(arg: 1, scope: !747, file: !492, line: 542, type: !750)
!747 = distinct !DISubprogram(name: "drop_in_place<tracing_core::dispatcher::Kind<alloc::sync::Arc<(dyn tracing_core::subscriber::Subscriber + core::marker::Send + core::marker::Sync), alloc::alloc::Global>>>", linkageName: "_ZN4core3ptr173drop_in_place$LT$tracing_core..dispatcher..Kind$LT$alloc..sync..Arc$LT$dyn$u20$tracing_core..subscriber..Subscriber$u2b$core..marker..Send$u2b$core..marker..Sync$GT$$GT$$GT$17h86cbf24f5334265dE", scope: !138, file: !492, line: 542, type: !748, scopeLine: 542, flags: DIFlagPrototyped, spFlags: DISPFlagLocalToUnit | DISPFlagDefinition | DISPFlagOptimized, unit: !116, templateParams: !752, retainedNodes: !751)
!748 = !DISubroutineType(types: !749)
!749 = !{null, !750}
!750 = !DIDerivedType(tag: DW_TAG_pointer_type, name: "*mut tracing_core::dispatcher::Kind<alloc::sync::Arc<(dyn tracing_core::subscriber::Subscriber + core::marker::Send + core::marker::Sync), alloc::alloc::Global>>", baseType: !517, size: 64, align: 64, dwarfAddressSpace: 0)
!751 = !{!746}
!752 = !{!753}
!753 = !DITemplateTypeParameter(name: "T", type: !517)
!754 = !DILocation(line: 0, scope: !747, inlinedAt: !755)
!755 = distinct !DILocation(line: 542, column: 1, scope: !733, inlinedAt: !741)
!756 = !DILocation(line: 542, column: 1, scope: !747, inlinedAt: !755)
!757 = !{!758}
!758 = distinct !{!758, !759, !"_ZN4core3ptr135drop_in_place$LT$alloc..sync..Arc$LT$dyn$u20$tracing_core..subscriber..Subscriber$u2b$core..marker..Send$u2b$core..marker..Sync$GT$$GT$17h15b29c79217a9dc5E: %_1"}
!759 = distinct !{!759, !"_ZN4core3ptr135drop_in_place$LT$alloc..sync..Arc$LT$dyn$u20$tracing_core..subscriber..Subscriber$u2b$core..marker..Send$u2b$core..marker..Sync$GT$$GT$17h15b29c79217a9dc5E"}
!760 = !DILocalVariable(arg: 1, scope: !761, file: !492, line: 542, type: !764)
!761 = distinct !DISubprogram(name: "drop_in_place<alloc::sync::Arc<(dyn tracing_core::subscriber::Subscriber + core::marker::Send + core::marker::Sync), alloc::alloc::Global>>", linkageName: "_ZN4core3ptr135drop_in_place$LT$alloc..sync..Arc$LT$dyn$u20$tracing_core..subscriber..Subscriber$u2b$core..marker..Send$u2b$core..marker..Sync$GT$$GT$17h15b29c79217a9dc5E", scope: !138, file: !492, line: 542, type: !762, scopeLine: 542, flags: DIFlagPrototyped, spFlags: DISPFlagLocalToUnit | DISPFlagDefinition | DISPFlagOptimized, unit: !116, templateParams: !535, retainedNodes: !765)
!762 = !DISubroutineType(types: !763)
!763 = !{null, !764}
!764 = !DIDerivedType(tag: DW_TAG_pointer_type, name: "*mut alloc::sync::Arc<(dyn tracing_core::subscriber::Subscriber + core::marker::Send + core::marker::Sync), alloc::alloc::Global>", baseType: !537, size: 64, align: 64, dwarfAddressSpace: 0)
!765 = !{!760}
!766 = !DILocation(line: 0, scope: !761, inlinedAt: !767)
!767 = distinct !DILocation(line: 542, column: 1, scope: !747, inlinedAt: !755)
!768 = !{!769}
!769 = distinct !{!769, !770, !"_ZN71_$LT$alloc..sync..Arc$LT$T$C$A$GT$$u20$as$u20$core..ops..drop..Drop$GT$4drop17h60f00d373ed34912E: %self"}
!770 = distinct !{!770, !"_ZN71_$LT$alloc..sync..Arc$LT$T$C$A$GT$$u20$as$u20$core..ops..drop..Drop$GT$4drop17h60f00d373ed34912E"}
!771 = !DILocation(line: 542, column: 1, scope: !761, inlinedAt: !767)
!772 = !DILocalVariable(name: "val", scope: !773, file: !774, line: 2686, type: !9, align: 8)
!773 = distinct !DILexicalBlock(scope: !775, file: !774, line: 2686, column: 13)
!774 = !DIFile(filename: "/home/arsalan/Documents/Github/unsafe-rust-benchmark/library/core/src/sync/atomic.rs", directory: "", checksumkind: CSK_MD5, checksum: "3974e4024eb8e2ba36045270da58dc5a")
!775 = distinct !DISubprogram(name: "fetch_sub", linkageName: "_ZN4core4sync6atomic11AtomicUsize9fetch_sub17h83dbbb1e9ac08f15E", scope: !553, file: !774, line: 2686, type: !776, scopeLine: 2686, flags: DIFlagPrototyped, spFlags: DISPFlagLocalToUnit | DISPFlagDefinition | DISPFlagOptimized, unit: !116, templateParams: !24, declaration: !779, retainedNodes: !780)
!776 = !DISubroutineType(types: !777)
!777 = !{!9, !778, !9, !119}
!778 = !DIDerivedType(tag: DW_TAG_pointer_type, name: "&core::sync::atomic::AtomicUsize", baseType: !553, size: 64, align: 64, dwarfAddressSpace: 0)
!779 = !DISubprogram(name: "fetch_sub", linkageName: "_ZN4core4sync6atomic11AtomicUsize9fetch_sub17h83dbbb1e9ac08f15E", scope: !553, file: !774, line: 2686, type: !776, scopeLine: 2686, flags: DIFlagPrototyped, spFlags: DISPFlagLocalToUnit | DISPFlagOptimized, templateParams: !24)
!780 = !{!781, !772, !782}
!781 = !DILocalVariable(name: "self", arg: 1, scope: !773, file: !774, line: 2686, type: !778)
!782 = !DILocalVariable(name: "order", scope: !773, file: !774, line: 2686, type: !119, align: 1)
!783 = !DILocation(line: 0, scope: !773, inlinedAt: !784)
!784 = distinct !DILocation(line: 2463, column: 32, scope: !785, inlinedAt: !793)
!785 = distinct !DISubprogram(name: "drop<(dyn tracing_core::subscriber::Subscriber + core::marker::Send + core::marker::Sync), alloc::alloc::Global>", linkageName: "_ZN71_$LT$alloc..sync..Arc$LT$T$C$A$GT$$u20$as$u20$core..ops..drop..Drop$GT$4drop17h60f00d373ed34912E", scope: !787, file: !786, line: 2459, type: !788, scopeLine: 2459, flags: DIFlagPrototyped, spFlags: DISPFlagLocalToUnit | DISPFlagDefinition | DISPFlagOptimized, unit: !116, templateParams: !573, retainedNodes: !791)
!786 = !DIFile(filename: "/home/arsalan/Documents/Github/unsafe-rust-benchmark/library/alloc/src/sync.rs", directory: "", checksumkind: CSK_MD5, checksum: "d97152ce06873160e4001a6951abf5fd")
!787 = !DINamespace(name: "{impl#35}", scope: !538)
!788 = !DISubroutineType(types: !789)
!789 = !{null, !790}
!790 = !DIDerivedType(tag: DW_TAG_pointer_type, name: "&mut alloc::sync::Arc<(dyn tracing_core::subscriber::Subscriber + core::marker::Send + core::marker::Sync), alloc::alloc::Global>", baseType: !537, size: 64, align: 64, dwarfAddressSpace: 0)
!791 = !{!792}
!792 = !DILocalVariable(name: "self", arg: 1, scope: !785, file: !786, line: 2459, type: !790)
!793 = distinct !DILocation(line: 542, column: 1, scope: !761, inlinedAt: !767)
!794 = !DILocalVariable(name: "val", scope: !795, file: !774, line: 3344, type: !9, align: 8)
!795 = distinct !DILexicalBlock(scope: !796, file: !774, line: 3344, column: 1)
!796 = distinct !DISubprogram(name: "atomic_sub<usize>", linkageName: "_ZN4core4sync6atomic10atomic_sub17hf64b8cbcfdfbe2e2E", scope: !120, file: !774, line: 3344, type: !797, scopeLine: 3344, flags: DIFlagPrototyped, spFlags: DISPFlagLocalToUnit | DISPFlagDefinition | DISPFlagOptimized, unit: !116, templateParams: !250, retainedNodes: !800)
!797 = !DISubroutineType(types: !798)
!798 = !{!9, !799, !9, !119}
!799 = !DIDerivedType(tag: DW_TAG_pointer_type, name: "*mut usize", baseType: !9, size: 64, align: 64, dwarfAddressSpace: 0)
!800 = !{!801, !794, !802}
!801 = !DILocalVariable(name: "dst", arg: 1, scope: !795, file: !774, line: 3344, type: !799)
!802 = !DILocalVariable(name: "order", scope: !795, file: !774, line: 3344, type: !119, align: 1)
!803 = !DILocation(line: 0, scope: !795, inlinedAt: !804)
!804 = distinct !DILocation(line: 2688, column: 26, scope: !773, inlinedAt: !784)
!805 = !DILocalVariable(name: "order", scope: !806, file: !774, line: 3637, type: !119, align: 1)
!806 = distinct !DILexicalBlock(scope: !807, file: !774, line: 3637, column: 1)
!807 = distinct !DISubprogram(name: "fence", linkageName: "_ZN4core4sync6atomic5fence17h8c0e8cfbe12bcb90E", scope: !120, file: !774, line: 3637, type: !808, scopeLine: 3637, flags: DIFlagPrototyped, spFlags: DISPFlagLocalToUnit | DISPFlagDefinition | DISPFlagOptimized, unit: !116, templateParams: !24, retainedNodes: !810)
!808 = !DISubroutineType(types: !809)
!809 = !{null, !119}
!810 = !{!805}
!811 = !DILocation(line: 0, scope: !806, inlinedAt: !812)
!812 = distinct !DILocation(line: 64, column: 9, scope: !785, inlinedAt: !793)
!813 = !DILocation(line: 0, scope: !785, inlinedAt: !793)
!814 = !DILocalVariable(name: "self", arg: 1, scope: !815, file: !786, line: 1824, type: !790)
!815 = distinct !DILexicalBlock(scope: !816, file: !786, line: 1824, column: 5)
!816 = distinct !DISubprogram(name: "inner<(dyn tracing_core::subscriber::Subscriber + core::marker::Send + core::marker::Sync), alloc::alloc::Global>", linkageName: "_ZN5alloc4sync16Arc$LT$T$C$A$GT$5inner17h9b3ae3d999e87b4fE", scope: !537, file: !786, line: 1824, type: !817, scopeLine: 1824, flags: DIFlagPrototyped, spFlags: DISPFlagLocalToUnit | DISPFlagDefinition | DISPFlagOptimized, unit: !116, templateParams: !573, declaration: !824, retainedNodes: !825)
!817 = !DISubroutineType(types: !818)
!818 = !{!819, !823}
!819 = !DICompositeType(tag: DW_TAG_structure_type, name: "&alloc::sync::ArcInner<(dyn tracing_core::subscriber::Subscriber + core::marker::Send + core::marker::Sync)>", file: !2, size: 128, align: 64, elements: !820, templateParams: !24, identifier: "98465e3b331482d75c3ce485ba8ab439")
!820 = !{!821, !822}
!821 = !DIDerivedType(tag: DW_TAG_member, name: "pointer", scope: !819, file: !2, baseType: !549, size: 64, align: 64)
!822 = !DIDerivedType(tag: DW_TAG_member, name: "vtable", scope: !819, file: !2, baseType: !531, size: 64, align: 64, offset: 64)
!823 = !DIDerivedType(tag: DW_TAG_pointer_type, name: "&alloc::sync::Arc<(dyn tracing_core::subscriber::Subscriber + core::marker::Send + core::marker::Sync), alloc::alloc::Global>", baseType: !537, size: 64, align: 64, dwarfAddressSpace: 0)
!824 = !DISubprogram(name: "inner<(dyn tracing_core::subscriber::Subscriber + core::marker::Send + core::marker::Sync), alloc::alloc::Global>", linkageName: "_ZN5alloc4sync16Arc$LT$T$C$A$GT$5inner17h9b3ae3d999e87b4fE", scope: !537, file: !786, line: 1824, type: !817, scopeLine: 1824, flags: DIFlagPrototyped, spFlags: DISPFlagLocalToUnit | DISPFlagOptimized, templateParams: !573)
!825 = !{!814}
!826 = !DILocation(line: 0, scope: !815, inlinedAt: !827)
!827 = distinct !DILocation(line: 2463, column: 17, scope: !785, inlinedAt: !793)
!828 = !DILocalVariable(name: "self", arg: 1, scope: !829, file: !830, line: 398, type: !834)
!829 = distinct !DILexicalBlock(scope: !831, file: !830, line: 398, column: 5)
!830 = !DIFile(filename: "/home/arsalan/Documents/Github/unsafe-rust-benchmark/library/core/src/ptr/non_null.rs", directory: "", checksumkind: CSK_MD5, checksum: "19d9838ed489cc493bac2e425215a13e")
!831 = distinct !DISubprogram(name: "as_ref<alloc::sync::ArcInner<(dyn tracing_core::subscriber::Subscriber + core::marker::Send + core::marker::Sync)>>", linkageName: "_ZN4core3ptr8non_null16NonNull$LT$T$GT$6as_ref17hc806e0953d361304E", scope: !542, file: !830, line: 398, type: !832, scopeLine: 398, flags: DIFlagPrototyped, spFlags: DISPFlagLocalToUnit | DISPFlagDefinition | DISPFlagOptimized, unit: !116, templateParams: !565, declaration: !835, retainedNodes: !836)
!832 = !DISubroutineType(types: !833)
!833 = !{!819, !834}
!834 = !DIDerivedType(tag: DW_TAG_pointer_type, name: "&core::ptr::non_null::NonNull<alloc::sync::ArcInner<(dyn tracing_core::subscriber::Subscriber + core::marker::Send + core::marker::Sync)>>", baseType: !542, size: 64, align: 64, dwarfAddressSpace: 0)
!835 = !DISubprogram(name: "as_ref<alloc::sync::ArcInner<(dyn tracing_core::subscriber::Subscriber + core::marker::Send + core::marker::Sync)>>", linkageName: "_ZN4core3ptr8non_null16NonNull$LT$T$GT$6as_ref17hc806e0953d361304E", scope: !542, file: !830, line: 398, type: !832, scopeLine: 398, flags: DIFlagPrototyped, spFlags: DISPFlagLocalToUnit | DISPFlagOptimized, templateParams: !565)
!836 = !{!828}
!837 = !DILocation(line: 0, scope: !829, inlinedAt: !838)
!838 = distinct !DILocation(line: 1830, column: 27, scope: !815, inlinedAt: !827)
!839 = !DILocation(line: 402, column: 20, scope: !829, inlinedAt: !838)
!840 = !{!769, !758, !743, !729, !717, !704}
!841 = !DILocation(line: 3350, column: 24, scope: !795, inlinedAt: !804)
!842 = !DILocation(line: 2463, column: 12, scope: !785, inlinedAt: !793)
!843 = !DILocation(line: 3641, column: 24, scope: !806, inlinedAt: !812)
!844 = !DILocation(line: 2506, column: 13, scope: !785, inlinedAt: !793)
!845 = !DILocation(line: 0, scope: !707)
!846 = !DILocation(line: 542, column: 1, scope: !707)
!847 = !{!848}
!848 = distinct !{!848, !849, !"_ZN4core3ptr41drop_in_place$LT$tracing..span..Inner$GT$17h9016837035fc36cdE: %_1"}
!849 = distinct !{!849, !"_ZN4core3ptr41drop_in_place$LT$tracing..span..Inner$GT$17h9016837035fc36cdE"}
!850 = !DILocation(line: 0, scope: !721, inlinedAt: !851)
!851 = distinct !DILocation(line: 542, column: 1, scope: !707)
!852 = !{!853}
!853 = distinct !{!853, !854, !"_ZN4core3ptr55drop_in_place$LT$tracing_core..dispatcher..Dispatch$GT$17h7c6d9b43d7ecd45fE: %_1"}
!854 = distinct !{!854, !"_ZN4core3ptr55drop_in_place$LT$tracing_core..dispatcher..Dispatch$GT$17h7c6d9b43d7ecd45fE"}
!855 = !DILocation(line: 542, column: 1, scope: !721, inlinedAt: !851)
!856 = !DILocation(line: 0, scope: !733, inlinedAt: !857)
!857 = distinct !DILocation(line: 542, column: 1, scope: !721, inlinedAt: !851)
!858 = !{!859}
!859 = distinct !{!859, !860, !"_ZN4core3ptr173drop_in_place$LT$tracing_core..dispatcher..Kind$LT$alloc..sync..Arc$LT$dyn$u20$tracing_core..subscriber..Subscriber$u2b$core..marker..Send$u2b$core..marker..Sync$GT$$GT$$GT$17h86cbf24f5334265dE: %_1"}
!860 = distinct !{!860, !"_ZN4core3ptr173drop_in_place$LT$tracing_core..dispatcher..Kind$LT$alloc..sync..Arc$LT$dyn$u20$tracing_core..subscriber..Subscriber$u2b$core..marker..Send$u2b$core..marker..Sync$GT$$GT$$GT$17h86cbf24f5334265dE"}
!861 = !DILocation(line: 542, column: 1, scope: !733, inlinedAt: !857)
!862 = !DILocation(line: 0, scope: !747, inlinedAt: !863)
!863 = distinct !DILocation(line: 542, column: 1, scope: !733, inlinedAt: !857)
!864 = !DILocation(line: 542, column: 1, scope: !747, inlinedAt: !863)
!865 = !{!866}
!866 = distinct !{!866, !867, !"_ZN4core3ptr135drop_in_place$LT$alloc..sync..Arc$LT$dyn$u20$tracing_core..subscriber..Subscriber$u2b$core..marker..Send$u2b$core..marker..Sync$GT$$GT$17h15b29c79217a9dc5E: %_1"}
!867 = distinct !{!867, !"_ZN4core3ptr135drop_in_place$LT$alloc..sync..Arc$LT$dyn$u20$tracing_core..subscriber..Subscriber$u2b$core..marker..Send$u2b$core..marker..Sync$GT$$GT$17h15b29c79217a9dc5E"}
!868 = !DILocation(line: 0, scope: !761, inlinedAt: !869)
!869 = distinct !DILocation(line: 542, column: 1, scope: !747, inlinedAt: !863)
!870 = !{!871}
!871 = distinct !{!871, !872, !"_ZN71_$LT$alloc..sync..Arc$LT$T$C$A$GT$$u20$as$u20$core..ops..drop..Drop$GT$4drop17h60f00d373ed34912E: %self"}
!872 = distinct !{!872, !"_ZN71_$LT$alloc..sync..Arc$LT$T$C$A$GT$$u20$as$u20$core..ops..drop..Drop$GT$4drop17h60f00d373ed34912E"}
!873 = !DILocation(line: 542, column: 1, scope: !761, inlinedAt: !869)
!874 = !DILocation(line: 0, scope: !773, inlinedAt: !875)
!875 = distinct !DILocation(line: 2463, column: 32, scope: !785, inlinedAt: !876)
!876 = distinct !DILocation(line: 542, column: 1, scope: !761, inlinedAt: !869)
!877 = !DILocation(line: 0, scope: !795, inlinedAt: !878)
!878 = distinct !DILocation(line: 2688, column: 26, scope: !773, inlinedAt: !875)
!879 = !DILocation(line: 0, scope: !806, inlinedAt: !880)
!880 = distinct !DILocation(line: 64, column: 9, scope: !785, inlinedAt: !876)
!881 = !DILocation(line: 0, scope: !785, inlinedAt: !876)
!882 = !DILocation(line: 0, scope: !815, inlinedAt: !883)
!883 = distinct !DILocation(line: 2463, column: 17, scope: !785, inlinedAt: !876)
!884 = !DILocation(line: 0, scope: !829, inlinedAt: !885)
!885 = distinct !DILocation(line: 1830, column: 27, scope: !815, inlinedAt: !883)
!886 = !DILocation(line: 402, column: 20, scope: !829, inlinedAt: !885)
!887 = !{!871, !866, !859, !853, !848}
!888 = !DILocation(line: 3350, column: 24, scope: !795, inlinedAt: !878)
!889 = !DILocation(line: 2463, column: 12, scope: !785, inlinedAt: !876)
!890 = !DILocation(line: 3641, column: 24, scope: !806, inlinedAt: !880)
!891 = !DILocation(line: 2506, column: 13, scope: !785, inlinedAt: !876)
!892 = distinct !DISubprogram(name: "fmt", linkageName: "_ZN59_$LT$tracing_core..span..Id$u20$as$u20$core..fmt..Debug$GT$3fmt17h76b37bd4a4f6c4a6E", scope: !893, file: !680, line: 15, type: !894, scopeLine: 15, flags: DIFlagPrototyped, spFlags: DISPFlagLocalToUnit | DISPFlagDefinition | DISPFlagOptimized, unit: !116, templateParams: !24, retainedNodes: !896)
!893 = !DINamespace(name: "{impl#10}", scope: !80)
!894 = !DISubroutineType(types: !895)
!895 = !{!216, !670, !235}
