; ModuleID = 'unicode_ident.622db1c5fbad833e-cgu.0'
source_filename = "unicode_ident.622db1c5fbad833e-cgu.0"
target datalayout = "e-m:e-p270:32:32-p271:32:32-p272:64:64-i64:64-i128:128-f80:128-n8:16:32:64-S128"
target triple = "x86_64-unknown-linux-gnu"

@alloc_914b2c69d7eca30497b9feaf15ac92f1 = private unnamed_addr constant <{ [1 x i8] }> zeroinitializer, align 1
@alloc_d15b2d259b60f0c0cd138a29247475e3 = private unnamed_addr constant <{ [98 x i8] }> <{ [98 x i8] c"/home/arsalan/.cargo/registry/src/index.crates.io-1949cf8c6b5b557f/unicode-ident-1.0.12/src/lib.rs" }>, align 1
@alloc_b929d4ee0102237056ed539fc10de016 = private unnamed_addr constant <{ ptr, [16 x i8] }> <{ ptr @alloc_d15b2d259b60f0c0cd138a29247475e3, [16 x i8] c"b\00\00\00\00\00\00\00\FF\00\00\00\10\00\00\00" }>, align 8
@alloc_a3092750131964a219cfd58bef76624b = private unnamed_addr constant <{ ptr, [16 x i8] }> <{ ptr @alloc_d15b2d259b60f0c0cd138a29247475e3, [16 x i8] c"b\00\00\00\00\00\00\00\08\01\00\00\10\00\00\00" }>, align 8
@_ZN13unicode_ident6tables11ASCII_START17h7b7dc6f8f3f24fdaE = internal constant <{ [128 x i8] }> <{ [128 x i8] c"\00\00\00\00\00\00\00\00\00\00\00\00\00\00\00\00\00\00\00\00\00\00\00\00\00\00\00\00\00\00\00\00\00\00\00\00\00\00\00\00\00\00\00\00\00\00\00\00\00\00\00\00\00\00\00\00\00\00\00\00\00\00\00\00\00\01\01\01\01\01\01\01\01\01\01\01\01\01\01\01\01\01\01\01\01\01\01\01\01\01\01\00\00\00\00\00\00\01\01\01\01\01\01\01\01\01\01\01\01\01\01\01\01\01\01\01\01\01\01\01\01\01\01\00\00\00\00\00" }>, align 64
@_ZN13unicode_ident6tables14ASCII_CONTINUE17hd77c218aad182663E = internal constant <{ [128 x i8] }> <{ [128 x i8] c"\00\00\00\00\00\00\00\00\00\00\00\00\00\00\00\00\00\00\00\00\00\00\00\00\00\00\00\00\00\00\00\00\00\00\00\00\00\00\00\00\00\00\00\00\00\00\00\00\01\01\01\01\01\01\01\01\01\01\00\00\00\00\00\00\00\01\01\01\01\01\01\01\01\01\01\01\01\01\01\01\01\01\01\01\01\01\01\01\01\01\01\00\00\00\00\01\00\01\01\01\01\01\01\01\01\01\01\01\01\01\01\01\01\01\01\01\01\01\01\01\01\01\01\00\00\00\00\00" }>, align 64
@_ZN13unicode_ident6tables10TRIE_START17hab76501d55fa69f6E = internal constant <{ [402 x i8], [6 x i8] }> <{ [402 x i8] c"\04\0B\0F\13\17\1B\1F#'-148<@\02E\00\00\00\00\00I\00M\00\05\05\05\05\05\05\05\05\05\05\05\05\06\05\05\05\05\05\05\05\05\05\05\05\05\05\05\05\05\05\05\05\05\05\05\05\05\05\05\05\05\05\05\05\05\05\05\05\05\05\05\05\05\05\05\05QTX\\\05\05\05\05\05\05\05\05\05\05\05\05\05\05\05\05\05\05\05\05\05\09\00\00\00\00\00\00\00\00\00\00\00\00\00\00\00\00\01`dfjnr(vx|\80\84\88\8C\90\94\98\9E\A2\05+\A6\00\00\00\00\99\05\05\A8\00\00\00\00\00\00\00\05\AE\00\00\00\00\00\00\00\00\00\00\00\00\00\00\00\00\05\B1\00\B5\05\05\05\05\05\05\05\05\05\05\052\05\05\B9\00\00\00\00\00\00\00\00\00\00\00\00\00\00\00\00\9CC\BB\00\00\00\00\BE\00\00\00\00\00\00\00\00\00\00\00\C6\C8\00\00\00\AF\CE\D2\D6\BC\DA\00\00\DE\00\00\00\00\00\00\00\00\05\05\05\05\05\05\05\05\05\05\05\05\05\05\05\05\05\05\05\05\05\05\05\05\05\05\05\05\05\05\05\05\05\05\05\05\05\05\05\05\05\05\05\05\05\05\05\05\05\05\05\05\05\05\05\05\05\05\05\05\05\05\05\05\05\05\05\05\05\05\05\05\05\05\05\05\05\05\05\05\05\05\05\E0\05\05\05\05\05\05\05R\E3\05\05\05\05\05\05\05\05\05\05\E6\05\05\05\05\05\05\05\05\05\05\05\05\05\E1\05\E9\00\00\00\00\05\EB\00\00\05\05\05\05\05\05\05\05\05\E4\05\05\05\05\05\05\05\E7", [6 x i8] undef }>, align 8
@_ZN13unicode_ident6tables13TRIE_CONTINUE17h0a3b5ba7828417e6E = internal constant <{ [1793 x i8], [7 x i8] }> <{ [1793 x i8] c"\08\0D\11\15\19\1D!%*/16:>B\02G\00\00\00\00\00K\00O\00\05\05\05\05\05\05\05\05\05\05\05\05\06\05\05\05\05\05\05\05\05\05\05\05\05\05\05\05\05\05\05\05\05\05\05\05\05\05\05\05\05\05\05\05\05\05\05\05\05\05\05\05\05\05\05\05QVZ^\05\05\05\05\05\05\05\05\05\05\05\05\05\05\05\05\05\05\05\05\05\09\00\00\00\00\00\00\00\00\00\00\00\00\00\00\00\00\01bdhlpt(vz~\82\86\8A\8E\92\96\9B\A0\A4\05+\A6\00\00\00\00\99\05\05\AB\00\00\00\00\00\00\00\05\AE\00\00\00\00\00\00\00\00\00\00\00\00\00\00\00\00\05\B3\00\B7\05\05\05\05\05\05\05\05\05\05\052\05\05\B9\00\00\00\00\00\00\00\00\00\00\00\00\00\00\00\00\9CC\BB\00\00\00\00\C1\00\00\00\00\00\00\00\00\A9\AC\C4\C6\CA\00\CC\00\AF\D0\D4\D8\BC\DC\00\00\DE\00\00\00\00\00\BF\00\00\05\05\05\05\05\05\05\05\05\05\05\05\05\05\05\05\05\05\05\05\05\05\05\05\05\05\05\05\05\05\05\05\05\05\05\05\05\05\05\05\05\05\05\05\05\05\05\05\05\05\05\05\05\05\05\05\05\05\05\05\05\05\05\05\05\05\05\05\05\05\05\05\05\05\05\05\05\05\05\05\05\05\05\E0\05\05\05\05\05\05\05R\E3\05\05\05\05\05\05\05\05\05\05\E6\05\05\05\05\05\05\05\05\05\05\05\05\05\E1\05\E9\00\00\00\00\05\EB\00\00\05\05\05\05\05\05\05\05\05\E4\05\05\05\05\05\05\05\E7\00\00\00\00\00\00\00\00\00\00\00\00\00\00\00\00\00\00\00\00\00\00\00\00\00\00\00\00\00\00\00\00\00\00\00\00\00\00\00\00\00\00\00\00\00\00\00\00\00\00\00\00\00\00\00\00\00\00\00\00\00\00\00\00\00\00\00\00\00\00\00\00\00\00\00\00\00\00\00\00\00\00\00\00\00\00\00\00\00\00\00\00\00\00\00\00\00\00\00\00\00\00\00\00\00\00\00\00\00\00\00\00\00\00\00\00\00\00\00\00\00\00\00\00\00\00\00\00\00\00\00\00\00\00\00\00\00\00\00\00\00\00\00\00\00\00\00\00\00\00\00\00\00\00\00\00\00\00\00\00\00\00\00\00\00\00\00\00\00\00\00\00\00\00\00\00\00\00\00\00\00\00\00\00\00\00\00\00\00\00\00\00\00\00\00\00\00\00\00\00\00\00\00\00\00\00\00\00\00\00\00\00\00\00\00\00\00\00\00\00\00\00\00\00\00\00\00\00\00\00\00\00\00\00\00\00\00\00\00\00\00\00\00\00\00\00\00\00\00\00\00\00\00\00\00\00\00\00\00\00\00\00\00\00\00\00\00\00\00\00\00\00\00\00\00\00\00\00\00\00\00\00\00\00\00\00\00\00\00\00\00\00\00\00\00\00\00\00\00\00\00\00\00\00\00\00\00\00\00\00\00\00\00\00\00\00\00\00\00\00\00\00\00\00\00\00\00\00\00\00\00\00\00\00\00\00\00\00\00\00\00\00\00\00\00\00\00\00\00\00\00\00\00\00\00\00\00\00\00\00\00\00\00\00\00\00\00\00\00\00\00\00\00\00\00\00\00\00\00\00\00\00\00\00\00\00\00\00\00\00\00\00\00\00\00\00\00\00\00\00\00\00\00\00\00\00\00\00\00\00\00\00\00\00\00\00\00\00\00\00\00\00\00\00\00\00\00\00\00\00\00\00\00\00\00\00\00\00\00\00\00\00\00\00\00\00\00\00\00\00\00\00\00\00\00\00\00\00\00\00\00\00\00\00\00\00\00\00\00\00\00\00\00\00\00\00\00\00\00\00\00\00\00\00\00\00\00\00\00\00\00\00\00\00\00\00\00\00\00\00\00\00\00\00\00\00\00\00\00\00\00\00\00\00\00\00\00\00\00\00\00\00\00\00\00\00\00\00\00\00\00\00\00\00\00\00\00\00\00\00\00\00\00\00\00\00\00\00\00\00\00\00\00\00\00\00\00\00\00\00\00\00\00\00\00\00\00\00\00\00\00\00\00\00\00\00\00\00\00\00\00\00\00\00\00\00\00\00\00\00\00\00\00\00\00\00\00\00\00\00\00\00\00\00\00\00\00\00\00\00\00\00\00\00\00\00\00\00\00\00\00\00\00\00\00\00\00\00\00\00\00\00\00\00\00\00\00\00\00\00\00\00\00\00\00\00\00\00\00\00\00\00\00\00\00\00\00\00\00\00\00\00\00\00\00\00\00\00\00\00\00\00\00\00\00\00\00\00\00\00\00\00\00\00\00\00\00\00\00\00\00\00\00\00\00\00\00\00\00\00\00\00\00\00\00\00\00\00\00\00\00\00\00\00\00\00\00\00\00\00\00\00\00\00\00\00\00\00\00\00\00\00\00\00\00\00\00\00\00\00\00\00\00\00\00\00\00\00\00\00\00\00\00\00\00\00\00\00\00\00\00\00\00\00\00\00\00\00\00\00\00\00\00\00\00\00\00\00\00\00\00\00\00\00\00\00\00\00\00\00\00\00\00\00\00\00\00\00\00\00\00\00\00\00\00\00\00\00\00\00\00\00\00\00\00\00\00\00\00\00\00\00\00\00\00\00\00\00\00\00\00\00\00\00\00\00\00\00\00\00\00\00\00\00\00\00\00\00\00\00\00\00\00\00\00\00\00\00\00\00\00\00\00\00\00\00\00\00\00\00\00\00\00\00\00\00\00\00\00\00\00\00\00\00\00\00\00\00\00\00\00\00\00\00\00\00\00\00\00\00\00\00\00\00\00\00\00\00\00\00\00\00\00\00\00\00\00\00\00\00\00\00\00\00\00\00\00\00\00\00\00\00\00\00\00\00\00\00\00\00\00\00\00\00\00\00\00\00\00\00\00\00\00\00\00\00\00\00\00\00\00\00\00\00\00\00\00\00\00\00\00\00\00\00\00\00\00\00\00\00\00\00\00\00\00\00\00\00\00\00\00\00\00\00\00\00\00\00\00\00\00\00\00\00\00\00\00\00\00\00\00\00\00\00\00\00\00\00\00\00\00\00\00\00\00\00\00\00\00\00\00\00\00\00\00\00\00\00\00\00\00\00\00\00\00\00\00\00\00\00\00\00\00\00\00\00\00\00\00\00\00\00\00\00\00\00\00\00\00\00\00\00\00\00\00\00\00\00\00\00\00\00\00\00\00\00\00\00\00\00\00\00\00\00\00\00\00\00\00\00\00\00\00\00\00\00\00\00\00\00\00\00\00\00\00\00\00\00\00\00\00\00\00\00\00\00\00\00\00\00\00\00\00\00\00\00\00\00\00\00\00\00\00\00\00\00\00\00\00\00\00\00\00\00\00\00\00\00\00\00\00\00\00\00\00\00\00\00\00\00\00\00\00\00\00\00\00\00\00\00\00\00\00\00\00\00\00\00\00\00\00\00\00\00\00\00\00\00\00\00\00\00\00\00\00\00\00\00\00\00\00\00\00\00\00\00\00\00\00\00\00\00\00\00\00\00\00\00\00\00\00\00\00\00\00\00\00\00\00\00\00\00\00\00\00\00\00\00\00\00\00\00\00\00\00\00\00\00\00\00\00\00\00\00\00\00\00\00\00\00\00\00\00\00\00\00\00\00\00\00\00\00\00\00\00\00\00\00\00\00\00\00\00\00\00\00\00\00\00\00\00\00\00\00\00\00\00\00\00\00\00\00\00\00\00\00\00\00\00\00\00\00\00\00\00\00\00\00\00\00\00\00\00\00\00\00\00\00\00\00\00\00\00\00\00\00\00\00\00\00\00\00\00\00\00\00\00\00\00\00\00\00\00\00\00\00\00\00\00\00\00\00\00\00\00\00\00\00\00\00\00\00\00\00\00\00\00\00\00\00\C2", [7 x i8] undef }>, align 8
@_ZN13unicode_ident6tables4LEAF17he1a196c44400407bE = internal constant <{ [7584 x i8], [32 x i8] }> <{ [7584 x i8] c"\00\00\00\00\00\00\00\00\00\00\00\00\00\00\00\00\00\00\00\00\00\00\00\00\00\00\00\00\00\00\00\00\00\00\00\00\00\00\00\00\00\00\00\00\00\00\00\00\00\00\00\00\00\00\00\00\00\00\00\00\00\00\00\00\FF\FF\FF\FF\FF\FF\FF\FF\FF\FF\FF\FF\FF\FF\FF\FF\FF\FF\FF\FF\FF\FF\FF\FF\FF\FF\FF\FF\FF\FF\FF\FF\FF\FF??\FF\FF\FF\FF??\FF\AA\FF\FF\FF?\FF\FF\FF\FF\FF\FF\DF_\DC\1F\CF\0F\FF\1F\DC\1F\00\00\00\00\00\00\00\00\00\00\00\00\00\00\00\00\00\00\00\00\00\04 \04\FF\FF\7F\FF\FF\FF\7F\FF\FF\FF\FF\FF\FF\FF\FF\FF\FF\FF\FF\FF\FF\FF\FF\FF\FF\FF\FF\FF\FF\FF\FF\FF\FF\FF\FF\FF\FF\FF\FF\FF\FF\FF\FF\FF\FF\FF\FF\FF\FF\FF\FF\FF\FF\FF\FF\FF\FF\FF\FF\FF\FF\FF\FF\FF\FF\FF\FF\FF\FF\FF\FF\FF\FF\FF\FF\FF\FF\FF\FF\FF\FF\FF\FF\FF\FF\FF\FF\FF\FF\FF\FF\FF\FF\FF\FF\FF\00\00\00\00\00\00\00\00\00\00\00\00\00\00\00\00\00\00\00\00\00\00\00\00\00\00\00\00\00\04\A0\04\FF\FF\7F\FF\FF\FF\7F\FF\FF\FF\FF\FF\FF\FF\FF\FF\FF\FF\FF\FF\FF\FF\FF\FF\FF\FF\FF\FF\FF\FF\FF\FF\FF\FF\FF\FF\FF\FF\FF\FF\FF\FF\FF\FF\FF\FF\FF\FF\FF\FF\FF\FF\FF\FF\FF\FF\FF\FF\FF\FF\0F\00\FF\FF\7F\F8\FF\FF\FF\FF\FF\0F\FF\FF\FF\FF\FF\FF\FF\FF\FF\FF\FF\FF\FF\FF\FF\FF\FF\FF\FF\FF\FF\FF\FF\FF\C3\FF\03\00\1FP\00\00\00\00\00\00\00\00\00\00\00\00\00\00\00\00\DF\B8@\D7\FF\FF\FB\FF\FF\FF\FF\FF\FF\FF\FF\FF\BF\FF\FF\FF\FF\FF\FF\FF\FF\FF\FF\FF\FF\FF\FF\FF\FF\FF\FF\FF\FF\FF\FF\FF\FF\FF\C3\FF\03\00\1FP\00\00\FF\FF\FF\FF\FF\FF\FF\FF\FF\FF\FF\FF\FF\FF\DF\B8\C0\D7\FF\FF\FB\FF\FF\FF\FF\FF\FF\FF\FF\FF\BF\FF\FF\FF\FF\FF\FF\FF\FF\FF\FF\FF\FF\FF\FF\FF\FF\FF\03\FC\FF\FF\FF\FF\FF\FF\FF\FF\FF\FF\FF\FF\FF\FF\FF\FF\FF\FF\FF\FF\FE\FF\FF\FF\7F\02\FF\FF\FF\FF\FF\01\00\00\00\00\00\00\00\00\FF\FF\FF\87\07\00\FF\FF\FF\FF\FF\FF\FF\FF\FF\FF\FF\FF\FF\FF\FF\FF\FB\FC\FF\FF\FF\FF\FF\FF\FF\FF\FF\FF\FF\FF\FF\FF\FF\FF\FF\FF\FF\FF\FE\FF\FF\FF\7F\02\FF\FF\FF\FF\FF\01\FE\FF\FF\FF\FF\BF\B6\00\FF\FF\FF\87\07\00\00\00\00\00\FF\FF\FF\FF\FF\07\00\00\00\C0\FE\FF\FF\FF\FF\FF\FF\FF\FF\FF\FF\FF/\00`\C0\00\9C\00\00\FD\FF\FF\FF\00\00\00\E0\FF\FF\FF\FF\FF\FF\FF\FF\FF\FF?\00\02\00\00\FC\FF\FF\FF\070\04\00\00\FF\07\FF\FF\FF\FF\FF\FF\FF\FF\FF\C3\FF\FF\FF\FF\FF\FF\FF\FF\FF\FF\FF\FF\EF\9F\FF\FD\FF\9F\00\00\FF\FF\FF\FF\FF\FF\FF\E7\FF\FF\FF\FF\FF\FF\FF\FF\FF\FF\FF\FF\03\00\FF\FF\FF\FF\FF\FF?$\FF\FF?\04\10\01\00\00\FF\FF\FF\01\FF\07\FF\FF\FF~\00\00\FF\FF\FF\FF\FF\03\00\00\00\00\00\00\F0\FF\FF\FF\FF\FF\FF#\00\00\01\FF\03\00\FE\FF\E1\9F\F9\FF\FF\FD\C5#\00@\00\B0\03\00\03\10\FF\FF\FF\FF\FF?\00\00\FF\FF\FF\0F\FF\07\FF\FF\FF~\00\FF\FF\FF\FF\FF\FF\FF\FF\FF\FB\FF\FF\FF\FF\FF\FF\FF\FF\FF\FF\FF\FF\FF\FF\FF\CF\FF\FE\FF\EF\9F\F9\FF\FF\FD\C5\F3\9Fy\80\B0\CF\FF\03P\E0\87\F9\FF\FF\FDm\03\00\00\00^\00\00\1C\00\E0\BF\FB\FF\FF\FD\ED#\00\00\01\00\03\00\00\02\E0\9F\F9\FF\FF\FD\ED#\00\00\00\B0\03\00\02\00\E8\C7=\D6\18\C7\FF\03\00\00\01\00\00\00\00\00\EE\87\F9\FF\FF\FDm\D3\879\02^\C0\FF?\00\EE\BF\FB\FF\FF\FD\ED\F3\BF;\01\00\CF\FF\00\FE\EE\9F\F9\FF\FF\FD\ED\F3\9F9\E0\B0\CF\FF\02\00\EC\C7=\D6\18\C7\FF\C3\C7=\81\00\C0\FF\00\00\E0\DF\FD\FF\FF\FD\FF#\00\00\00'\03\00\00\00\E1\DF\FD\FF\FF\FD\EF#\00\00\00`\03\00\06\00\F0\DF\FD\FF\FF\FF\FF'\00@p\80\03\00\00\FC\E0\FF\7F\FC\FF\FF\FB/\7F\00\00\00\00\00\00\00\FF\DF\FD\FF\FF\FD\FF\F3\DF=`'\CF\FF\00\00\EF\DF\FD\FF\FF\FD\EF\F3\DF=``\CF\FF\0E\00\FF\DF\FD\FF\FF\FF\FF\FF\DF}\F0\80\CF\FF\00\FC\EE\FF\7F\FC\FF\FF\FB/\7F\84_\FF\C0\FF\0C\00\FE\FF\FF\FF\FF\FF\05\00\7F\00\00\00\00\00\00\00\D6\F7\FF\FF\AF\FF\05 _\00\00\F0\00\00\00\00\01\00\00\00\00\00\00\00\FF\FE\FF\FF\FF\1F\00\00\00\1F\00\00\00\00\00\00\00\00\00\00\00\00\00\00\FE\FF\FF\FF\FF\FF\FF\07\FF\7F\FF\03\00\00\00\00\D6\F7\FF\FF\AF\FF\FF?_\7F\FF\F3\00\00\00\00\01\00\00\03\FF\03\A0\C2\FF\FE\FF\FF\FF\1F\FE\FF\DF\FF\FF\FE\FF\FF\FF\1F@\00\00\00\00\00\00\00\FF\FF\FF\FF\FF\07\00\80\00\00?<b\C0\E1\FF\03@\00\00\FF\FF\FF\FF\BF \FF\FF\FF\FF\FF\F7\FF\FF\FF\FF\FF\FF\FF\FF\FF\FF\FF\FF\FF\FF\FF\FF\FF\FF\FF\FF\FF\FF\FF\FF\FF\FF\FF\FF\FF\FF\FF\FF\FF\FF\FF\FF\FF\FF\7F\00\FF\FF?\00\FF\00\00\00\BF\FF\FF\FF\FF\FF\FD\07\00\00\00\00\00\00\00\00\FF\FF\FF\FF\FF\FF\FF\FF\FF\03\FF\FF\FF\FF\FF\FF\FF\FF\FF?\FF\FF\FF\FF\BF \FF\FF\FF\FF\FF\F7\FF\FF\FF\FF\FF\FF\FF\FF\FF\FF\FF\FF\FF\FF\FF\FF\FF\FF\FF\FF\FF\FF\FF\FF\FF\FF\FF\FF\FF\FF\FF\FF\FF\FF\FF\FF\FF\FF\FF\FF\FF\FF\FF\FF\FF\FF\FF\FF\FF\FF\FF\03\00\00\00\00\00\00\00\00\00\00\00\00\FF\FF\FF\FF\FF\FF\FF\FF\FF=\7F=\FF\FF\FF\FF\FF=\FF\FF\FF\FF=\7F=\FF\7F\FF\FF\FF\FF\FF\FF\FF=\FF\FF\FF\FF\FF\FF\FF\FF\07\00\00\00\00\FF\FF\00\00\FF\FF\FF\FF\FF\FF\FF\FF\FF\FF??\FF\FF\FF\FF\FF\FF\FF\FF\FF=\7F=\FF\FF\FF\FF\FF=\FF\FF\FF\FF=\7F=\FF\7F\FF\FF\FF\FF\FF\FF\FF=\FF\FF\FF\FF\FF\FF\FF\FF\E7\00\FE\03\00\FF\FF\00\00\FF\FF\FF\FF\FF\FF\FF\FF\FF\FF??\FE\FF\FF\FF\FF\FF\FF\FF\FF\FF\FF\FF\FF\FF\FF\FF\FF\FF\FF\FF\FF\FF\FF\FF\FF\FF\FF\FF\FF\FF\FF\FF\FF\FF\FF\FF\FF\FF\FF\FF\FF\FF\FF\FF\FF\FF\FF\FF\FF\FF\FF\FF\FF\FF\FF\FF\FF\FF\FF\FF\FF\FF\FF\FF\FF\FF\FF\FF\FF\FF\FF\FF\FF\FF\FF\FF\FF\FF\FF\FF\FF\FF\FF\FF\FF\FF\FF\FF\FF\FF\FF\FF\FF\FF\FF\00\FF\FF\FF\FF\FF\FF\FF\FF\FF\FF\FF\FF\FF\9F\FF\FF\FE\FF\FF\07\FF\FF\FF\FF\FF\FF\FF\FF\FF\C7\FF\01\FF\FF\03\80\FF\FF\03\00\FF\FF\03\00\FF\DF\01\00\FF\FF\FF\FF\FF\FF\0F\00\00\00\80\10\00\00\00\00\FF\FF\FF\FF\FF\FF\FF\FF\FF\FF\FF\FF\FF\9F\FF\FF\FE\FF\FF\07\FF\FF\FF\FF\FF\FF\FF\FF\FF\C7\FF\01\FF\FF?\80\FF\FF\1F\00\FF\FF\0F\00\FF\DF\0D\00\FF\FF\FF\FF\FF\FF\FF\FF\FF\FF\8F0\FF\03\00\00\00\00\00\00\FF\FF\FF\FF\FF\FF\FF\FF\FF\FF\FF\01\FF\FF\FF\FF\FF\05\FF\FF\FF\FF\FF\FF\FF\FF?\00\FF\FF\FF\7F\00\00\00\00\00\00\FF\FF\FF?\1F\00\FF\FF\FF\FF\FF\0F\FF\FF\FF\03\00\00\00\00\00\00\00\B8\FF\03\FF\FF\FF\FF\FF\FF\FF\FF\FF\FF\FF\01\FF\FF\FF\FF\FF\07\FF\FF\FF\FF\FF\FF\FF\FF?\00\FF\FF\FF\7F\FF\0F\FF\0F\C0\FF\FF\FF\FF?\1F\00\FF\FF\FF\FF\FF\0F\FF\FF\FF\03\FF\07\00\00\00\00\FF\FF\7F\00\FF\FF\FF\FF\FF\FF\1F\00\00\00\00\00\00\00\00\00\80\00\00\00\00\00\00\00\00\00\00\00\E0\FF\FF\FF\FF\FF\0F\00\E0\1F\00\00\00\00\00\00\F8\FF\FF\FF\01\C0\00\FC\FF\FF\FF\FF?\00\00\00\FF\FF\FF\0F\FF\FF\FF\FF\FF\FF\FF\7F\FF\FF\FF\9F\FF\03\FF\03\80\00\FF\BF\FF\7F\00\00\00\00\00\00\FF\FF\FF\FF\FF\FF\FF\FF\FF\1F\FF\03\00\F8\0F\00\FF\FF\FF\FF\FF\FF\FF\FF\FF\FF\FF\FF\FF\FF\0F\00\FF\FF\FF\FF\0F\00\00\00\00\E0\00\FC\FF\FF\FF?\FF\01\FF\FF\FF\FF\FF\E7\00\00\00\00\00\DEo\04\FF\FF\FF\FF\FF\FF\FF\FF\FF\FF\FF\FF\FF\FF\FF\FF\FF\FF\FF\FF\FF\FF\FF\FF\00\00\00\00\00\00\00\00\FF\FF\FF\FF\FF\FF\FF\00\FF\E3\FF\FF\FF\FF\FF?\FF\01\FF\FF\FF\FF\FF\E7\00\00\F7\FF\FF\FF\FF\07\FF\FF\FF\FF\FF\FF\FF\FF\FF\FF\FF\FF\FF\FF\FF\FF\FF\FF\FF\FF\FF\FF\FF\FF\FF\FF\FF\FF\FF\FF\FF\FF\FF\FF\FF\FF\07\00\04\00\00\00'\00\F0\00\FF\FF\FF\FF\FF\FF\FF\FF\FF\FF\FF\FF\FF\FF\FF\FF\FF\FF\00\00\00\00\00\00\00\00\00\00\00\00\00\00\02\80\00\00\FF\1F\00\00\00\00\00\00\00\00\00\00\00\00\84\FC/?P\FD\FF\F3\E0C\00\00\FF\FF\FF\FF\FF\01\00\00\00\00\00\00\00\00\00\00\00\00\00\00\000\00\00\00\00\00\80\01\00\10\00\00\00\02\80\00\00\FF\1F\00\00\00\00\00\00\FF\1F\E2\FF\01\00\84\FC/?P\FD\FF\F3\E0C\00\00\FF\FF\FF\FF\FF\01\00\00\00\00\00\00\00\00\00\00\00\00\00\00\FF\FF\FF\FF\FF\FF\FF\FF\FF\FF\FF\FF\FF\FF\FF\FF\FF\FF\FF\FF\FF\FF\FF\FF\FF\FF\FF\FF\1Fx\0C\00\FF\FF\FF\FF\BF \FF\FF\FF\FF\FF\FF\FF\80\00\00\FF\FF\7F\00\7F\7F\7F\7F\7F\7F\7F\7F\00\00\00\00\FF\FF\FF\FF\FF\FF\FF\FF\FF\FF\FF\FF\FF\FF\FF\FF\FF\FF\FF\FF\FF\FF\FF\FF\FF\FF\FF\FF\1F\F8\0F\00\FF\FF\FF\FF\BF \FF\FF\FF\FF\FF\FF\FF\80\00\80\FF\FF\7F\00\7F\7F\7F\7F\7F\7F\7F\7F\FF\FF\FF\FF\E0\00\00\00\FE\03>\1F\FE\FF\FF\FF\FF\FF\FF\FF\FF\FF\7F\E0\FE\FF\FF\FF\FF\FF\FF\FF\FF\FF\FF\F7\E0\FF\FF\FF\FF\FF\FE\FF\FF\FF\FF\FF\FF\FF\FF\FF\FF\7F\00\00\FF\FF\FF\FF\00\00\00\00\00\00\FF\FF\E0\00\00\00\FE\FF>\1F\FE\FF\FF\FF\FF\FF\FF\FF\FF\FF\7F\E6\FE\FF\FF\FF\FF\FF\FF\FF\FF\FF\FF\FF\E0\FF\FF\FF\FF\FF\FE\FF\FF\FF\FF\FF\FF\FF\FF\FF\FF\7F\00\00\FF\FF\FF\FF\00\00\00\00\00\00\FF\FF\FF\FF\FF\FF\FF\FF\FF\FF\FF\FF\FF\FF\FF\FF\FF\FF\FF\1F\00\00\00\00\00\00\00\00\FF\FF\FF\FF\FF?\FF\FF\FF\FF\FF\FF\FF\FF\FF\FF\FF\FF\FF\FF\FF\FF\FF\FF\FF\FF\FF\FF\FF\FF\FF\FF\FF\FF\FF\FF\FF\FF\FF\FF\FF\FF\FF\FF\FF\03\FF\FF\FF\FF\FF\FF\FF\FF\FF\FF\FF\FF\FF\FF\FF\FF\FF\FF\FF\FF\FF\FF\FF\FF\FF\1F\FF\FF\00\0C\00\00\FF\FF\FF\FF\FF\7F\00\80\FF\FF\FF?\FF\FF\FF\FF\FF\FF\FF\FF\FF\FF\00\00\00\00\80\FF\FC\FF\FF\FF\FF\FF\FF\FF\FF\FF\FF\FF\FF\F9\FF\FF\FF\FF\FF\FF\FF\07\EB\03\00\00\FC\FF\FF\1F\FF\FF\FF\0F\00\00\FF\FF\FF\FF\FF\FF\F0\BF\FF\FF\FF\FF\FF\FF\FF\FF\FF\FF\FF\FF\FF\FF\03\00\00\00\80\FF\FC\FF\FF\FF\FF\FF\FF\FF\FF\FF\FF\FF\FF\F9\FF\FF\FF\FF\FF\FF\FF\07\EB\03\00\00\FC\FF\BB\F7\FF\FF\07\00\00\00\FF\FF\FF\FF\FF\FF\0F\00\FC\FF\FF\FF\FF\FF\0F\00\00\00\00\00\00\00\FCh\00\FC\FF\FF?\00\FF\FF\7F\00\00\00\FF\FF\FF\1F\F0\FF\FF\FF\FF\FF\07\00\00\80\00\00\DF\FF\00|\FF\FF\FF\FF\FF\10\00\00\FF\FF\FF\FF\FF\FF\0F\00\FF\FF\FF\FF\FF\FF\FF\FF?\00\FF\03\FF\FF\FF\E8\FF\FF\FF\FF\FF?\FF\FF\FF\FF\0F\00\FF\FF\FF\1F\FF\FF\FF\FF\FF\FF\FF\FF\01\80\FF\03\FF\FF\FF\7F\FF\FF\FF\FF\FF\01\00\00\F7\0F\00\00\FF\FF\7F\C4\FF\FF\FF\FF\FF\FFb>\05\00\008\FF\07\1C\00~~~\00\7F\7F\FF\FF\FF\FF\FF\F7\FF\03\FF\FF\FF\FF\FF\FF\FF\FF\FF\FF\FF\FF\FF\FF\07\00\00\00\FF\FF\FF\FF\FF\FF\7F\00\FF?\FF\03\FF\FF\7F\FC\FF\FF\FF\FF\FF\FF\FF\FF\07\00\008\FF\FF|\00~~~\00\7F\7F\FF\FF\FF\FF\FF\F7\FF\03\FF\FF\FF\FF\FF\FF\FF\FF\FF\FF\FF\FF\FF\FF\FF7\FF\03\FF\FF\FF\FF\FF\FF\FF\FF\FF\FF\FF\FF\FF?\FF\FF\FF\FF\FF\FF\FF\FF\FF\FF\FF\FF\FF\03\00\00\00\00\7F\00\F8\A0\FF\FD\7F_\DB\FF\FF\FF\FF\FF\FF\FF\FF\FF\FF\FF\FF\FF\03\00\00\00\F8\FF\FF\FF\FF\FF\FF\FF\FF\FF\FF\FF\FF\FF\FF\FF\FF\FF\FF?\FF\FF\FF\FF\FF\FF\FF\FF\FF\FF\FF\FF\FF\03\00\00\00\00\7F\00\F8\E0\FF\FD\7F_\DB\FF\FF\FF\FF\FF\FF\FF\FF\FF\FF\FF\FF\FF\03\00\00\00\F8\FF\FF\FF\FF\FF\FF\FF\FF\FF\FF\FF\FF\FF\FF\FF\FF?\F0\FF\FF\FF\FF\FF\FF\FF\FF\FF\FF\FF\FF\FF\FF\FF\FF\FF\FF\FF\FF\FF\FF\FF\FF\FF\FF?\00\00\FF\FF\FF\FF\FF\FF\FF\FF\FC\FF\FF\FF\FF\FF\FF\00\00\00\00\00\FF\03\00\00\00\00\00\00\00\00\00\00\00\00\00\00\8A\AA\FF\FF\FF\FF\FF\FF\FF\FF\FF\FF\FF\FF\FF\FF\FF\1F\00\00\00\00\FE\FF\FF\07\FE\FF\FF\07\C0\FF\FF\FF\FF\FF\FF?\FF\FF\FF\7F\FC\FC\FC\1C\00\00\00\00\FF\FF\00\00\FF\FF\18\00\00\E0\00\00\00\00\8A\AA\FF\FF\FF\FF\FF\FF\FF\FF\FF\FF\FF\FF\FF\FF\FF\1F\00\00\FF\03\FE\FF\FF\87\FE\FF\FF\07\E0\FF\FF\FF\FF\FF\FF\FF\FF\FF\FF\7F\FC\FC\FC\1C\00\00\00\00\FF\EF\FF\FF\7F\FF\FF\B7\FF?\FF?\00\00\00\00\FF\FF\FF\FF\FF\FF\FF\FF\FF\FF\FF\FF\FF\FF\FF\07\00\00\00\00\00\00\00\00\FF\FF\FF\FF\FF\FF\1F\00\00\00\00\00\00\00\00\00\00\00\00\00\00\00\00\00\FF\EF\FF\FF\7F\FF\FF\B7\FF?\FF?\00\00\00\00\FF\FF\FF\FF\FF\FF\FF\FF\FF\FF\FF\FF\FF\FF\FF\07\00\00\00\00\00\00\00\00\FF\FF\FF\FF\FF\FF\1F\00\00\00\00\00\00\00\00\00\00\00\00\00\00\00\00 \00\00\00\00\00\00\00\00\00\00\00\00\00\00\00\00\FF\FF\FF\1F\FF\FF\FF\FF\FF\FF\01\00\00\00\00\00\FF\FF\FF\FF\00\E0\FF\FF\FF\07\FF\FF\FF\FF?\00\FF\FF\FF?\FF\FF\FF\FF\0F\FF>\00\00\00\00\00\00\00\00\00\00\00\00\00\00\00\00\00\00\00\00\00\FF\FF\FF\1F\FF\FF\FF\FF\FF\FF\01\00\01\00\00\00\FF\FF\FF\FF\00\E0\FF\FF\FF\07\FF\FF\FF\FF\FF\07\FF\FF\FF?\FF\FF\FF\FF\0F\FF>\00\00\00\00\00\FF\FF\FF\FF\FF\FF\FF\FF\FF\FF\FF\FF\FF\FF\FF\FF\FF\FF\FF?\00\00\FF\FF\FF\FF\0F\FF\FF\FF\FF\0F\FF\FF\FF\FF\FF\00\FF\FF\FF\FF\FF\FF\0F\00\FF\F7\FF\F7\B7\FF\FB\FF\FB\1B\00\00\00\00\00\00\00\00\FF\FF\FF\FF\FF\FF\FF\FF\FF\FF\FF\FF\FF\FF\FF\FF\FF\FF\FF?\FF\03\FF\FF\FF\FF\0F\FF\FF\FF\FF\0F\FF\FF\FF\FF\FF\00\FF\FF\FF\FF\FF\FF\0F\00\FF\F7\FF\F7\B7\FF\FB\FF\FB\1B\00\00\00\00\00\00\00\00?\FD\FF\FF\FF\FF\BF\91\FF\FF?\00\FF\FF\7F\00\FF\FF\FF\7F\00\00\00\00\00\00\00\00\FF\FF7\00\FF\FF?\00\FF\FF\FF\03\00\00\00\00\00\00\00\00\FF\FF\FF\FF\FF\FF\FF\C0\00\00\00\00\00\00\00\00\01\00\EF\FE\FF\FF?\00\00\00\00\00\FF\FF\FF\1F\FF\FF\FF\1F\00\00\00\00\FF\FE\FF\FF\1F\00\00\00\FF\FF\FF\FF\FF\FF?\00\FF\FF?\00\FF\FF\07\00\FF\FF\03\00\00\00\00\00\00\00\00\00\00\00\00\00o\F0\EF\FE\FF\FF?\87\00\00\00\00\FF\FF\FF\1F\FF\FF\FF\1F\00\00\00\00\FF\FE\FF\FF\7F\00\00\00\FF\FF\FF\FF\FF\FF?\00\FF\FF?\00\FF\FF\07\00\FF\FF\03\00\00\00\00\00\00\00\00\00\00\00\00\00\FF\FF\FF\FF\FF\FF\FF\FF\FF\01\00\00\00\00\00\00\FF\FF\FF\FF\FF\FF\07\00\FF\FF\FF\FF\FF\FF\07\00\FF\FF\FF\FF\0F\00\00\00\00\00\00\00\00\00\00\00\00\00\00\00\00\00\00\00\00\00\00\00\00\00\00\00\FF\FF\FF\FF\FF\FF\FF\FF\FF\01\00\00\00\00\00\00\FF\FF\FF\FF\FF\FF\07\00\FF\FF\FF\FF\FF\FF\07\00\FF\FF\FF\FF\FF\00\FF\03\00\00\00\00\00\00\00\00\00\00\00\00\00\00\00\00\00\00\00\00\00\00\00\00\00\00\00\00\00\00\00\00\00\00\00\00\00\00\00\00\FF\FF\FF\FF\FF\03\03\00\00\00\00\00\00\00\00\00\FF\FF\FF\1F\80\00\FF\FF?\00\00\00\00\00\FF\FF\03\00\00\00\00\00\FF\FF\1F\00\00\00\FF\FF\7F\00\00\00\00\00\00\00\00\00\00\00\00\00\00\00\00\00\FF\FF\FF\FF\FF\1B\03\00\00\00\00\00\00\00\00\E0\FF\FF\FF\1F\80\00\FF\FF\FF\FF\01\00\00\00\FF\FF?\00\00\00\00\00\FF\FF\1F\00\00\00\FF\FF\7F\00\F8\FF\FF\FF\FF\FF\FF\00\00\00\00\00\00\00&\00\F8\FF\FF\FF\FF\FF\00\00\00\00\FF\FF\FF\01\00\00\F8\FF\FF\FF\7F\00\00\00\90\00\FF\FF\FF\FFG\00\F8\FF\FF\FF\FF\FF\07\00\1E\00\00\14\00\00\00\00\FF\FF\FF\FF\FF\FF\FF\FF\7F\00\00\00\C0\FF?\80\FF\FF\FF\FF\FF\FF\FF\07\04\00\FF\FF\FF\01\FF\03\FF\FF\FF\FF\FF\FF\DF\FF\F0\00\FF\FF\FF\FFO\00\FF\FF\FF\FF\FF\FF\FF\FF\1F\DE\FF\17\00\00\00\00\FF\FF\FB\FF\FF\0F\00\80\01\00\00\00\00\00\00\00\7F\BD\FF\BF\FF\01\FF\FF\FF\FF\FF\7F\00\00\00\00\E0\9F\F9\FF\FF\FD\ED#\00\00\01\E0\03\00\00\00\00\00\00\00\00\00\00\00\00\00\00\00\00\00\00\00\FF\FF\FB\FF\FF\FF\FF\C0\03\00\00\00\00\00\00\00\7F\BD\FF\BF\FF\01\FF\FF\FF\FF\FF\FF\FF\07\FF\03\EF\9F\F9\FF\FF\FD\ED\FB\9F9\81\E0\CF\1F\1F\00\00\00\00\00\00\00\00\00\00\00\00\00\00\00\00\00\FF\FF\FF\FF\FF\FF\1F\00\80\07\00\80\03\00\00\00\FF\FF\FF\FF\FF\FF\00\00\B0\00\00\00\00\00\00\00\00\00\00\00\00\00\00\00\00\00\00\00\00\00\00\00\FF\FF\FF\FF\FF\7F\00\00\00\00\00\0F\00\00\00\00\FF\FF\FF\FF\FF\FF\FF\FF\FF\07\FF\C3\03\00\00\00\FF\FF\FF\FF\FF\FF\FF\FF\BF\00\FF\03\00\00\00\00\00\00\00\00\00\00\00\00\00\00\00\00\00\00\00\00\FF\FF\FF\FF\FF\FF?\FF\01\00\00?\00\00\00\00\FF\FF\FF\FF\FF\FF\00\00\10\00\00\00\00\00\00\00\FF\FF\FF\FF\FF\07\00\01\00\00\00\00\00\00\00\00\FF\FF\FF\07\00\00\00\00\7F\00\00\00\00\00\00\00\00\00\00\00\00\00\00\00\00\00\00\00\00\00\00\00\FF\FF\FF\FF\FF\FF\FF\FF\11\00\FF\03\00\00\00\00\FF\FF\FF\FF\FF\FF\FF\01\FF\03\00\00\00\00\00\00\FF\FF\FF\E7\FF\0F\FF\03\7F\00\00\00\00\00\00\00\00\00\00\00\00\00\00\00\00\00\00\00\00\00\00\00\FF\FF\FF\FF\FF\0F\00\00\00\00\00\00\00\00\00\00\00\00\00\00\FF\FF\FF\FF\FF\FF\FF\FF\00\00\00\80\7F\F2o\FF\FF\FF\00\80\02\00\00\00\00\00\00\00\00\00\00\00\FF\FC\FF\FF\FF\FF\01\00\0A\00\00\00\FF\FF\FF\FF\FF\FF\FF\07\00\00\00\00\00\00\00\00\00\00\00\00\FF\FF\FF\FF\FF\FF\FF\FF\FF\03\00\80\7F\F2o\FF\FF\FF\BF\F9\0F\00\FF\03\00\00\00\00\00\00\00\00\FF\FC\FF\FF\FF\FF\FF\FC\1B\00\00\00\01\F8\FF\FF\FF\FF\07\04\00\00\01\F0\FF\FF\FF\FF\FF\03\00 \00\00\FF\FF\FF\FF\FF\FF\FF\FF\FF\01\00\00\00\00\00\00\00\00\00\00\00\00\00\00\00\00\00\00\00\00\00\00\00\00\00\00\00\00\00\00\00\00\00\00\00\00\00\00\00\00\00\00\00\00\00\00\00\00\00\00\FF\FF\FF\FF\FF\FF\FF\FF\FF\FF\FF\FF\01\00\FF\FF\FF\FF\FF\FF\FF\7F\80\00\FF\FF\FF\FF\FF\FF\FF\FF\FF#\00\00\FF\FF\FF\FF\FF\FF\FF\FF\FF\01\00\00\00\00\00\00\00\00\00\00\00\00\00\00\00\00\00\00\00\00\00\00\00\00\00\00\00\00\00\00\00\00\00\00\00\00\00\00\00\00\00\00\00\00\00\00\00\00\00\00\00\00\00\00\00\00\00\00\00\00\00\00\EFo\FF\FD\FF\FF\FF\7F\00\00\01\00\00\00\00\00\FC\FF\FF\FF\00\00\00\00\00\00\00\00\00\00\00\00\00\00\7F\FB\FF\FF\FF\FF\01\00@\00\00\00\BF\FD\FF\FF\FF\03\00\01\00\00\00\00\00\00\00\00\00\00\00\00\FF\FD\FF\FF\FF\FF\7F\FF\01\00\FF\03\00\00\FC\FF\FF\FF\FC\FF\FF\FE\7F\00\00\00\00\00\00\00\00\00\7F\FB\FF\FF\FF\FF\7F\B4\FF\00\FF\03\BF\FD\FF\FF\FF\7F\FB\01\FF\03\00\00\00\00\00\00\00\00\00\00\00\00\00\00\00\00\00\00\00\00\00\00\00\00\00\00\00\00\00\00\00\00\00\00\00\00\00\00\FF\FF\07\00\F4\FF\FD\FF\FF\FF\0F\00\00\00\00\00\00\00\00\00\00\00\00\00\00\00\01\00\00\00\00\00\00\00\00\00\00\00\00\00\00\00\00\00\00\00\00\00\00\00\00\00\00\00\00\00\00\00\00\00\00\00\00\00\FF\FF\7F\00\FF\FF\FD\FF\FF\FF\FF\C7\07\00\FF\03\00\00\00\00\00\00\00\00\00\00\01\00\00\00\00\00\00\00\00\00\FF\FF\FF\FF\FF\FF\FF\FF\FF\FF\FF\FF\FF\7F\00\00\FF\FF\FF\FF\FF\FF\FF\FF\FF\FF\FF\FF\FF\FF\FF\FF\FF\FF\FF\FF\FF\FF\FF\FF\0F\00\00\00\00\00\00\00\00\00\00\00\00\00\00\00\00\00\00\00\00\00\00\00\FF\FF\FF\FF\FF\FF\00\00~\00\00\00\00\00\00\00\00\00\00\00\00\00\00\00\00\00\00\00\00\00\00\00\00\00\00\00\00\00\00\00\00\00\00\00\00\00\00\00\00\00\00\00\00\00\00\00\00\00\00\00\00\00\00\00\FF\FF\FF\FF\FF?\FF\FF\7F\00\00\00\00\00\00\00\00\00\00\00\00\00\00\00\00\00\00\00\00\00\00\00\FF\FF\FF\FF\FF\FF\00\00\FF\FF?\00\00\00\00\00\00\00\00\00\00\00\00\00\00\00\00\00\00\00\00\00\00\00\00\00\00\00\00\00\00\00\00\00\00\00\00\00\00\00\00\00\00\00\00\00\00\00\00\00\00\00\00\00\00\00\00\00\00\00\00\00\00\00\00\00\E0\E3\07\F8\E7\0F\00\00\00<\00\00\00\00\00\00\00\00\00\00\FF\FF\FF\FF\FF\FF\FF\FF\7F\00\00\00\00\00\00\00\00\00\00\00\00\00\00\00\00\00\00\00\00\00\00\00\00\00\00\00\00\00\00\00\00\00\00\00\00\00\00\00\00\00\00\00\00\00\00\00\00\00\00\00\00\00\00\00\FF\FF\FF\7F\E0\07\00\00\00\00\00\00\00\00\00\00\00\00\00\00\00\00\00\00\00\00\00\00\00\00\00\00\FF\FF\FF\FF\FF\FF\FF\01\FF\FF\FF\7F\00\00\FF\FF\FF\FF\FF\FF\FF\FF\FF\7F\00\00\FF\FF\FF?\00\00\FF\FF\FF\FF\FF\FF\00\00\0F\00\00\00\F8\FF\FF\E0\FF\FF\00\00\00\00\00\00\00\00\00\00\00\00\00\00\FF\FF\FF\FF\FF\FF\FF\01\FF\FF\FF\7F\FF\03\FF\FF\FF\FF\FF\FF\FF\FF\FF\7F\FF\03\FF\FF\FF?\1F\00\FF\FF\FF\FF\FF\FF\7F\00\0F\00\FF\03\F8\FF\FF\E0\FF\FF\00\00\00\00\00\00\00\00\00\00\00\00\00\00\00\00\00\00\00\00\00\00\FF\FF\FF\FF\FF\FF\FF\FF\00\00\00\00\00\00\00\00\00\00\00\00\00\00\00\00\FF\FF\FF\FF\FF\FF\FF\FF\FF\07\01\00\00\00\00\00\00\00\F8\FF\00\00\00\00\00\00\00\00\0B\00\00\00\00\00\00\00\00\00\00\00\FF\FF\FF\FF\FF\FF\FF\FF\00\00\00\00\00\00\00\00\00\00\00\00\00\00\00\00\FF\FF\FF\FF\FF\FF\FF\FF\FF\87\FF\FF\FF\FF\FF\FF\FF\80\FF\FF\00\00\00\00\00\00\00\00\1B\00\03\00\FF\FF\FF\FF\FF\FF\FF\FF\FF\FF\FF\FF\FF\FF\FF\FF\FF\FF\FF\FF\FF\FF\FF\FF\FF\FF?\00\00\00\00\00\FF\01\00\00\00\00\00\00\00\00\00\00\00\00\00\00\00\00\00\00\00\00\00\00\00\00\00\00\00\00\00\00\FF\FF\FF\FF\FF\FF\FF\FF\FF\FF\FF\FF\FF\FF\FF\FF\FF\FF\FF\FF\FF\FF\FF\FF\FF\FF\FF\FF\FF\FF\FF\0F\00\00\00\00\00\00\00\00\00\00\00\00\00\00\00\00\00\00\00\00\00\00\00\00\00\00\00\00\00\00\00\00\00\00\00\00\00\00\00\00\00\00\00\00\00\00\00\00\00\00\00\00\00\00\00\00\00\00\00\00\7Fo\FF\7F\FF\FF\FF\FF\FF\FF\FF\FF\FF\FF\FF\FF\FF\07\FF\1F\FF\01\FF\03\00\00\00\00\00\00\00\00\00\00\00\00\00\00\00\00\00\00\00\00\00\00\00\00\00\00\00\00\00\00\00\00\00\00\00\00\00\00\00\00\00\00\00\00\00\00\00\00\00\00\00\00\00\00\00\00\00\00\00\00\00\00\00\00\00\00\00\00\00\00\00\00\00\00\FF\03\FF\FF\FF\FF\FF\FF\FF\FF\FF\FF\FF\FF\FF\07\FF\1F\FF\01\FFc\00\00\00\00\00\00\00\00\00\00\00\00\00\00\00\00\00\00\00\00\00\00\00\00\00\00\00\00\00\00\00\00\00\00\00\00\00\00\00\00\00\00\00\00\FF\FF\FF\FF\FF\FF\FF\FF\FF\FF\FF\FF\FF\FF\FF\FF\FF\FF\FF\FF\FF\FF\FF\FF\FF\FF\FF\FF\FF\FF\00\00\00\00\00\00\00\00\00\00\1C\00\00\00\00\00\00\00\00\00\00\00\00\00\00\00\00\00\00\00\00\00\00\00\00\00\00\00\00\00\00\00\00\00\00\00\00\00\00\00\00\00\00\00\00\00\00\00\00\00\00\00\00\00\00\00\FF\FF\FF\FF\FF\FF\FF\FF\FF\FF\DF\FF\FF\FF\FF\FF\FF\FF\FF\DFd\DE\FF\EB\EF\FF\FF\FF\FF\FF\FF\FF\BF\E7\DF\DF\FF\FF\FF{_\FC\FD\FF\FF\FF\FF\FF\FF\FF\FF\FF\FF\FF\FF\FF\FF\FF\FF\FF\FF\FF\FF\FF\FF\FF\FF\FF\FF\FF\FF\FF\FF\FF\FF\FF\FF\FF\FF\FF\FF\FF\FF\FF?\FF\FF\FF\FD\FF\FF\F7\FF\FF\FF\F7\FF\FF\DF\FF\FF\FF\DF\FF\FF\7F\FF\FF\FF\7F\FF\FF\FF\FD\FF\FF\FF\FD\FF\FF\F7\0F\00\00\00\00\00\00\FF\FF\FF\FF\FF\FF\FF\FF\FF\FF\FF\FF\FF\FF\FF\FF\FF\FF\FF\FF?\FF\FF\FF\FD\FF\FF\F7\FF\FF\FF\F7\FF\FF\DF\FF\FF\FF\DF\FF\FF\7F\FF\FF\FF\7F\FF\FF\FF\FD\FF\FF\FF\FD\FF\FF\F7\CF\FF\FF\FF\FF\FF\FF\FF\FF\FF\FF\FF\FF\7F\F8\FF\FF\FF\FF\FF\1F \00\10\00\00\F8\FE\FF\00\00\00\00\00\00\00\00\00\00\00\00\00\00\00\00\00\00\00\00\00\00\00\00\00\00\00\00\00\00\00\00\00\00\00\00\00\00\00\00\00\00\00\00\00\00\00\00\FF\FF\FF\FF\FF\FF\FF?\00\00\00\00\00\00\00\00\00\00\00\00\00\00\00\00\00\00\FF\FF\FF\FF\FF\1F\80?\00@\00\00\00\00\00\00\00\00\00\00\00\00\00\00\00\00\00\00\00\00\00\00\7F\FF\FF\F9\DB\07\FF\FF\FF\FF\FF\FF\FF?\00\00\00\80\00\00\00\00\00\00\00\00\00\00\00\00\00\00\FF\FF\FF\FF\FF\1F\FF?\FFC\00\00\00\00\00\00\00\00\00\00\00\00\00\00\00\00\00\00\00\00\00\00\00\00\00\00\00\00\00\00\00\00\00\00\00\00\00\00\00\00\FF\FF\FF?\00\00\FF\FF\FF\FF\FF\0F\00\00\00\00\00\00\00\00\00\00\00\00\00\00\00\00\00\00\00\00\00\00\00\00\00\00\00\00\00\00\00\00\00\00\00\00\00\00\00\00\00\00\00\00\00\00\00\00\00\00\00\00\FF\FF\FF\7F\00\00\FF\FF\FF\FF\FF\FF\FF\03\00\00\00\00\00\00\00\00\00\00\00\00\00\00\00\00\00\00\00\00\00\00\00\00\00\00\00\00\00\00\00\00\00\00\00\00\00\00\00\00\00\00\00\00\00\00\00\00\00\00\00\00\00\00\00\00\00\00\FF\FF\FF\0F\00\00\00\00\00\00\00\00\00\00\00\00\00\00\00\00\00\00\00\00\00\00\00\00\00\00\00\00\00\00\00\00\00\00\00\00\00\00\00\00\00\00\00\00\00\00\00\00\00\00\00\00\00\00\00\00\00\00\00\00\FF\FF\FF\FF\FF\03\00\00\00\00\00\00\00\00\00\00\00\00\00\00\00\00\00\00\00\00\00\00\00\00\00\00\00\00\00\00\00\00\FF\FF\FF\FF\FF\FF\FF\FF\FF\FF\FF\FF\FF\FF\FF\FF\FF\FF\FF\FF\FF\FF\FF\FF\1F\00\00\00\00\00\00\00\FF\FF\FF\FF\FF\FF\FF\FF\0F\08\00\00\00\00\00\00\00\00\00\00\00\00\00\00\00\00\00\00\00\00\00\00\FF\FF\FF\FF\FF\FF\FF\FF\FF\FF\FF\FF\FF\FF\FF\FF\FF\FF\FF\FF\FF\FF\FF\FF\1F\00\7F\00\00\00\00\00\FF\FF\FF\FF\FF\FF\FF\FF\FF\0F\FF\03\00\00\00\00\00\00\00\00\00\00\00\00\00\00\00\00\00\00\00\00\EF\FF\FF\FF\96\FE\F7\0A\84\EA\96\AA\96\F7\F7^\FF\FB\FF\0F\EE\FB\FF\0F\00\00\00\00\00\00\00\00\00\00\00\00\00\00\00\00\00\00\00\00\00\00\00\00\00\00\00\00\00\00\00\00\00\00\00\00\00\00\00\00\FF\FF\FF\FF\FF\FF\FF\FF\FF\FF\FF\FF\FF\FF\FF\FF\FF\FF\FF\FF\FF\FF\FF\FF\FF\FF\FF\FF\00\00\00\00\FF\FF\FF\FF\FF\FF\FF\FF\FF\FF\FF\FF\FF\FF\FF\FF\FF\FF\FF\FF\FF\FF\FF\FF\FF\FF\FF\FF\FF\FF\FF\FF\FF\FF\FF\FF\FF\FF\FF\FF\FF\FF\FF\FF\FF\FF\FF\FF\FF\FF\FF\FF\FF\FF\FF\FF\FF\FF\FF\FF\01\00\FF\FF\FF\FF\FF?\FF\FF\FF\FF\FF\FF\FF\FF\FF\FF\FF\FF\FF\FF\FF\FF\FF\FF\FF\FF\FF\FF\FF\FF\FF\FF\FF\FF\FF\FF\FF\FF\FF\FF\FF\FF\FF\FF\FF\FF\FF\FF\FF\FF\FF\FF\FF\FF\FF\FF\FF\FF\FF\FF\FF\FF\FF\FF\FF\FF\FF\FF\FF\FF\FF\FF\FF\FF\FF\07\FF\FF\FF\FF\FF\FF\FF\FF\FF\FF\FF\FF\FF\FF\FF\FF\FF\FF\FF\FF\FF\FF\FF\FF\FF\FF\FF\FF\FF\FF\FF\FF\FF\FF\FF\FF\FF\FF\FF\FF\FF\FF\03\00\FF\FF\FF\FF\FF\FF\FF\FF\FF\FF\FF\FF\FF\FF\FF\FF\FF\FF\FF\FF\FF\FF\FF\FF\FF\FF\FF\FF\FF\FF\FF\FF\FF\FF\FF\FF\FF\FF\FF\FF\FF\FF\FF\FF\FF\FF\FF\FF\FF\FF\FF\FF\FF\FF\FF\FF\FF\FF\FF\FF\FF\FF\FF\FF\00\00\00\00\00\00\00\00\00\00\FF\FF\FF\FF\FF\FF\FF\FF\FF\FF\FF?\00\00\00\00\00\00\00\00\00\00\00\00\00\00\00\00\00\00\00\00\00\00\00\00\00\00\00\00\00\00\00\00\00\00\00\00\00\00\00\00\00\00\00\00\00\00\00\00\00\00\00\00\FF\FF\FF?\00\00\00\00\00\00\00\00\00\00\00\00\00\00\00\00\00\00\00\00\00\00\00\00\00\00\00\00\00\00\00\00\00\00\00\00\00\00\00\00\00\00\00\00\00\00\00\00\00\00\00\00\00\00\00\00\00\00\00\00", [32 x i8] undef }>, align 64

; core::char::methods::<impl char>::is_ascii
; Function Attrs: inlinehint nonlazybind uwtable
define internal zeroext i1 @"_ZN4core4char7methods22_$LT$impl$u20$char$GT$8is_ascii17hf2177c35bff16dc0E"(ptr align 4 %self) unnamed_addr #0 {
start:
  %_3 = load i32, ptr %self, align 4
  %_0 = icmp ule i32 %_3, 127
  ret i1 %_0
}

; core::slice::<impl [T]>::get_unchecked
; Function Attrs: inlinehint nonlazybind uwtable
define align 1 ptr @"_ZN4core5slice29_$LT$impl$u20$$u5b$T$u5d$$GT$13get_unchecked17h0aa86d565a0452aeE"(ptr align 1 %self.0, i64 %self.1, i64 %index) unnamed_addr #0 {
start:
; call <usize as core::slice::index::SliceIndex<[T]>>::get_unchecked
  %_3 = call ptr @"_ZN75_$LT$usize$u20$as$u20$core..slice..index..SliceIndex$LT$$u5b$T$u5d$$GT$$GT$13get_unchecked17h1ee7420f8e5c9934E"(i64 %index, ptr %self.0, i64 %self.1)
  ret ptr %_3
}

; core::slice::<impl [T]>::get
; Function Attrs: inlinehint nonlazybind uwtable
define align 1 ptr @"_ZN4core5slice29_$LT$impl$u20$$u5b$T$u5d$$GT$3get17h9fb0dd8d6da7c5aaE"(ptr align 1 %self.0, i64 %self.1, i64 %index) unnamed_addr #0 {
start:
; call <usize as core::slice::index::SliceIndex<[T]>>::get
  %_0 = call align 1 ptr @"_ZN75_$LT$usize$u20$as$u20$core..slice..index..SliceIndex$LT$$u5b$T$u5d$$GT$$GT$3get17h26c289e2423d5f4eE"(i64 %index, ptr align 1 %self.0, i64 %self.1)
  ret ptr %_0
}

; core::option::Option<T>::unwrap_or
; Function Attrs: inlinehint nonlazybind uwtable
define align 1 ptr @"_ZN4core6option15Option$LT$T$GT$9unwrap_or17ha41ae8e89f494fe5E"(ptr align 1 %0, ptr align 1 %default) unnamed_addr #0 {
start:
  %_0 = alloca [8 x i8], align 8
  %self = alloca [8 x i8], align 8
  store ptr %0, ptr %self, align 8
  %1 = load ptr, ptr %self, align 8
  %2 = ptrtoint ptr %1 to i64
  %3 = icmp eq i64 %2, 0
  %_3 = select i1 %3, i64 0, i64 1
  %4 = icmp eq i64 %_3, 0
  br i1 %4, label %bb2, label %bb3

bb2:                                              ; preds = %start
  store ptr %default, ptr %_0, align 8
  br label %bb4

bb3:                                              ; preds = %start
  %x = load ptr, ptr %self, align 8
  store ptr %x, ptr %_0, align 8
  br label %bb4

bb4:                                              ; preds = %bb3, %bb2
  %5 = load ptr, ptr %_0, align 8
  ret ptr %5

bb1:                                              ; No predecessors!
  unreachable
}

; <usize as core::slice::index::SliceIndex<[T]>>::get_unchecked
; Function Attrs: inlinehint nonlazybind uwtable
define ptr @"_ZN75_$LT$usize$u20$as$u20$core..slice..index..SliceIndex$LT$$u5b$T$u5d$$GT$$GT$13get_unchecked17h1ee7420f8e5c9934E"(i64 %self, ptr %slice.0, i64 %slice.1) unnamed_addr #0 {
start:
  br label %bb3

bb3:                                              ; preds = %start
  %_6 = icmp ult i64 %self, %slice.1
  %_0 = getelementptr inbounds i8, ptr %slice.0, i64 %self
  ret ptr %_0

bb1:                                              ; No predecessors!
  unreachable

bb2:                                              ; No predecessors!
  unreachable
}

; <usize as core::slice::index::SliceIndex<[T]>>::get
; Function Attrs: inlinehint nonlazybind uwtable
define align 1 ptr @"_ZN75_$LT$usize$u20$as$u20$core..slice..index..SliceIndex$LT$$u5b$T$u5d$$GT$$GT$3get17h26c289e2423d5f4eE"(i64 %self, ptr align 1 %slice.0, i64 %slice.1) unnamed_addr #0 {
start:
  %_0 = alloca [8 x i8], align 8
  %_3 = icmp ult i64 %self, %slice.1
  br i1 %_3, label %bb1, label %bb2

bb2:                                              ; preds = %start
  store ptr null, ptr %_0, align 8
  br label %bb3

bb1:                                              ; preds = %start
  br label %bb6

bb3:                                              ; preds = %bb6, %bb2
  %0 = load ptr, ptr %_0, align 8
  ret ptr %0

bb6:                                              ; preds = %bb1
  %_11 = icmp ult i64 %self, %slice.1
  %_6 = getelementptr inbounds i8, ptr %slice.0, i64 %self
  store ptr %_6, ptr %_0, align 8
  br label %bb3

bb4:                                              ; No predecessors!
  unreachable

bb5:                                              ; No predecessors!
  unreachable
}

; unicode_ident::is_xid_start
; Function Attrs: nonlazybind uwtable
define zeroext i1 @_ZN13unicode_ident12is_xid_start17hd8dc6335495d45deE(i32 %0) unnamed_addr #1 {
start:
  %_0 = alloca [1 x i8], align 1
  %ch = alloca [4 x i8], align 4
  store i32 %0, ptr %ch, align 4
; call core::char::methods::<impl char>::is_ascii
  %_2 = call zeroext i1 @"_ZN4core4char7methods22_$LT$impl$u20$char$GT$8is_ascii17hf2177c35bff16dc0E"(ptr align 4 %ch)
  br i1 %_2, label %bb2, label %bb4

bb4:                                              ; preds = %start
  %1 = load i32, ptr %ch, align 4
  %_16 = zext i32 %1 to i64
  %_15 = udiv i64 %_16, 8
  %_14 = udiv i64 %_15, 64
; call core::slice::<impl [T]>::get
  %_10 = call align 1 ptr @"_ZN4core5slice29_$LT$impl$u20$$u5b$T$u5d$$GT$3get17h9fb0dd8d6da7c5aaE"(ptr align 1 @_ZN13unicode_ident6tables10TRIE_START17hab76501d55fa69f6E, i64 402, i64 %_14)
; call core::option::Option<T>::unwrap_or
  %_9 = call align 1 ptr @"_ZN4core6option15Option$LT$T$GT$9unwrap_or17ha41ae8e89f494fe5E"(ptr align 1 %_10, ptr align 1 @alloc_914b2c69d7eca30497b9feaf15ac92f1)
  %chunk = load i8, ptr %_9, align 1
  %_22 = zext i8 %chunk to i64
  %_21 = mul i64 %_22, 64
  %_20 = udiv i64 %_21, 2
  %2 = load i32, ptr %ch, align 4
  %_26 = zext i32 %2 to i64
  %_25 = udiv i64 %_26, 8
  %_24 = urem i64 %_25, 64
  %offset = add i64 %_20, %_24
; call core::slice::<impl [T]>::get_unchecked
  %_32 = call align 1 ptr @"_ZN4core5slice29_$LT$impl$u20$$u5b$T$u5d$$GT$13get_unchecked17h0aa86d565a0452aeE"(ptr align 1 @_ZN13unicode_ident6tables4LEAF17he1a196c44400407bE, i64 7584, i64 %offset), !unsafe_inst !3
  %_31 = load i8, ptr %_32, align 1, !unsafe_inst !3
  %_37 = load i32, ptr %ch, align 4
  %_36 = urem i32 %_37, 8
  %rhs1.i = and i32 %_36, 7
  %3 = trunc i32 %rhs1.i to i8
  %_0.i = lshr i8 %_31, %3
  %_29 = and i8 %_0.i, 1
  %4 = icmp ne i8 %_29, 0
  %5 = zext i1 %4 to i8
  store i8 %5, ptr %_0, align 1
  br label %bb15

bb2:                                              ; preds = %start
  %6 = load i32, ptr %ch, align 4
  %_5 = zext i32 %6 to i64
  %_7 = icmp ult i64 %_5, 128
  br i1 %_7, label %bb3, label %panic

bb15:                                             ; preds = %bb3, %bb4
  %7 = load i8, ptr %_0, align 1
  %8 = trunc i8 %7 to i1
  ret i1 %8

bb3:                                              ; preds = %bb2
  %9 = getelementptr inbounds [128 x i8], ptr @_ZN13unicode_ident6tables11ASCII_START17h7b7dc6f8f3f24fdaE, i64 0, i64 %_5
  %10 = load i8, ptr %9, align 1
  %11 = trunc i8 %10 to i1
  %12 = zext i1 %11 to i8
  store i8 %12, ptr %_0, align 1
  br label %bb15

panic:                                            ; preds = %bb2
; call core::panicking::panic_bounds_check
  call void @_ZN4core9panicking18panic_bounds_check17h5e416f3b4df94489E(i64 %_5, i64 128, ptr align 8 @alloc_b929d4ee0102237056ed539fc10de016) #3
  unreachable
}

; unicode_ident::is_xid_continue
; Function Attrs: nonlazybind uwtable
define zeroext i1 @_ZN13unicode_ident15is_xid_continue17hef94f0b155139bd8E(i32 %0) unnamed_addr #1 {
start:
  %_0 = alloca [1 x i8], align 1
  %ch = alloca [4 x i8], align 4
  store i32 %0, ptr %ch, align 4
; call core::char::methods::<impl char>::is_ascii
  %_2 = call zeroext i1 @"_ZN4core4char7methods22_$LT$impl$u20$char$GT$8is_ascii17hf2177c35bff16dc0E"(ptr align 4 %ch)
  br i1 %_2, label %bb2, label %bb4

bb4:                                              ; preds = %start
  %1 = load i32, ptr %ch, align 4
  %_16 = zext i32 %1 to i64
  %_15 = udiv i64 %_16, 8
  %_14 = udiv i64 %_15, 64
; call core::slice::<impl [T]>::get
  %_10 = call align 1 ptr @"_ZN4core5slice29_$LT$impl$u20$$u5b$T$u5d$$GT$3get17h9fb0dd8d6da7c5aaE"(ptr align 1 @_ZN13unicode_ident6tables13TRIE_CONTINUE17h0a3b5ba7828417e6E, i64 1793, i64 %_14)
; call core::option::Option<T>::unwrap_or
  %_9 = call align 1 ptr @"_ZN4core6option15Option$LT$T$GT$9unwrap_or17ha41ae8e89f494fe5E"(ptr align 1 %_10, ptr align 1 @alloc_914b2c69d7eca30497b9feaf15ac92f1)
  %chunk = load i8, ptr %_9, align 1
  %_22 = zext i8 %chunk to i64
  %_21 = mul i64 %_22, 64
  %_20 = udiv i64 %_21, 2
  %2 = load i32, ptr %ch, align 4
  %_26 = zext i32 %2 to i64
  %_25 = udiv i64 %_26, 8
  %_24 = urem i64 %_25, 64
  %offset = add i64 %_20, %_24
; call core::slice::<impl [T]>::get_unchecked
  %_32 = call align 1 ptr @"_ZN4core5slice29_$LT$impl$u20$$u5b$T$u5d$$GT$13get_unchecked17h0aa86d565a0452aeE"(ptr align 1 @_ZN13unicode_ident6tables4LEAF17he1a196c44400407bE, i64 7584, i64 %offset), !unsafe_inst !3
  %_31 = load i8, ptr %_32, align 1, !unsafe_inst !3
  %_37 = load i32, ptr %ch, align 4
  %_36 = urem i32 %_37, 8
  %rhs1.i = and i32 %_36, 7
  %3 = trunc i32 %rhs1.i to i8
  %_0.i = lshr i8 %_31, %3
  %_29 = and i8 %_0.i, 1
  %4 = icmp ne i8 %_29, 0
  %5 = zext i1 %4 to i8
  store i8 %5, ptr %_0, align 1
  br label %bb15

bb2:                                              ; preds = %start
  %6 = load i32, ptr %ch, align 4
  %_5 = zext i32 %6 to i64
  %_7 = icmp ult i64 %_5, 128
  br i1 %_7, label %bb3, label %panic

bb15:                                             ; preds = %bb3, %bb4
  %7 = load i8, ptr %_0, align 1
  %8 = trunc i8 %7 to i1
  ret i1 %8

bb3:                                              ; preds = %bb2
  %9 = getelementptr inbounds [128 x i8], ptr @_ZN13unicode_ident6tables14ASCII_CONTINUE17hd77c218aad182663E, i64 0, i64 %_5
  %10 = load i8, ptr %9, align 1
  %11 = trunc i8 %10 to i1
  %12 = zext i1 %11 to i8
  store i8 %12, ptr %_0, align 1
  br label %bb15

panic:                                            ; preds = %bb2
; call core::panicking::panic_bounds_check
  call void @_ZN4core9panicking18panic_bounds_check17h5e416f3b4df94489E(i64 %_5, i64 128, ptr align 8 @alloc_a3092750131964a219cfd58bef76624b) #3
  unreachable
}

; core::panicking::panic_bounds_check
; Function Attrs: cold noinline noreturn nonlazybind uwtable
declare void @_ZN4core9panicking18panic_bounds_check17h5e416f3b4df94489E(i64, i64, ptr align 8) unnamed_addr #2

attributes #0 = { inlinehint nonlazybind uwtable "probe-stack"="inline-asm" "target-cpu"="x86-64" }
attributes #1 = { nonlazybind uwtable "probe-stack"="inline-asm" "target-cpu"="x86-64" }
attributes #2 = { cold noinline noreturn nonlazybind uwtable "probe-stack"="inline-asm" "target-cpu"="x86-64" }
attributes #3 = { noreturn }

!llvm.module.flags = !{!0, !1}
!llvm.ident = !{!2}

!0 = !{i32 8, !"PIC Level", i32 2}
!1 = !{i32 2, !"RtLibUseGOT", i32 1}
!2 = !{!"rustc version 1.80.0-dev"}
!3 = !{!"instruction in unsafe Rust fn or block"}
