; ModuleID = 'buffer.5e7c5db5b35e0cf5-cgu.0'
source_filename = "buffer.5e7c5db5b35e0cf5-cgu.0"
target datalayout = "e-m:e-p270:32:32-p271:32:32-p272:64:64-i64:64-i128:128-f80:128-n8:16:32:64-S128"
target triple = "x86_64-unknown-linux-gnu"

%"core::sync::atomic::AtomicPtr<core::ffi::c_void>" = type { ptr }

@vtable.0 = private constant <{ [24 x i8], ptr, ptr, ptr }> <{ [24 x i8] c"\00\00\00\00\00\00\00\00\08\00\00\00\00\00\00\00\08\00\00\00\00\00\00\00", ptr @"_ZN4core3ops8function6FnOnce40call_once$u7b$$u7b$vtable.shim$u7d$$u7d$17h6e8be0d08ff79c63E", ptr @"_ZN3std2rt10lang_start28_$u7b$$u7b$closure$u7d$$u7d$17hea1f261d208f49b6E", ptr @"_ZN3std2rt10lang_start28_$u7b$$u7b$closure$u7d$$u7d$17hea1f261d208f49b6E" }>, align 8, !dbg !0
@alloc_374c9df73b8540d3e9b0cfbfed1be08c = private unnamed_addr constant <{ [25 x i8] }> <{ [25 x i8] c"overflow in Duration::new" }>, align 1
@alloc_b7c1c22a954085a45dacf7c670d25258 = private unnamed_addr constant <{ ptr, [8 x i8] }> <{ ptr @alloc_374c9df73b8540d3e9b0cfbfed1be08c, [8 x i8] c"\19\00\00\00\00\00\00\00" }>, align 8
@alloc_8b358ae686d38d8a24608308769d36ed = private unnamed_addr constant <{ [77 x i8] }> <{ [77 x i8] c"/home/arsalan/Documents/Github/unsafe-rust-benchmark/library/core/src/time.rs" }>, align 1
@alloc_780cce55eebcf3006d09c4f4f63d73b0 = private unnamed_addr constant <{ ptr, [16 x i8] }> <{ ptr @alloc_8b358ae686d38d8a24608308769d36ed, [16 x i8] c"M\00\00\00\00\00\00\00\DA\00\00\00\19\00\00\00" }>, align 8
@alloc_00ae4b301f7fab8ac9617c03fcbd7274 = private unnamed_addr constant <{ [43 x i8] }> <{ [43 x i8] c"called `Result::unwrap()` on an `Err` value" }>, align 1
@vtable.1 = private constant <{ [24 x i8], ptr }> <{ [24 x i8] c"\00\00\00\00\00\00\00\00\04\00\00\00\00\00\00\00\04\00\00\00\00\00\00\00", ptr @"_ZN60_$LT$getrandom..error..Error$u20$as$u20$core..fmt..Debug$GT$3fmt17h090cac99e07abcc6E" }>, align 8, !dbg !24
@alloc_830d8a7ce80e2e7f05fa6e4643272e13 = private unnamed_addr constant <{ [30 x i8] }> <{ [30 x i8] c"overflow when adding durations" }>, align 1
@alloc_0e0ace263d2d43510f52f9b9fd9a0036 = private unnamed_addr constant <{ ptr, [16 x i8] }> <{ ptr @alloc_8b358ae686d38d8a24608308769d36ed, [16 x i8] c"M\00\00\00\00\00\00\00l\04\00\00\1F\00\00\00" }>, align 8
@_ZN9getrandom8backends27linux_android_with_fallback12GETRANDOM_FN17hdb84a2cc4ea74700E = external local_unnamed_addr global %"core::sync::atomic::AtomicPtr<core::ffi::c_void>"
@alloc_eda187c99d640b66de46f65a7ffa489f = private unnamed_addr constant <{ [17 x i8] }> <{ [17 x i8] c"benches/buffer.rs" }>, align 1
@alloc_e9df420c2378605c7e7c53cb30d4da33 = private unnamed_addr constant <{ ptr, [16 x i8] }> <{ ptr @alloc_eda187c99d640b66de46f65a7ffa489f, [16 x i8] c"\11\00\00\00\00\00\00\00\1D\00\00\00\1A\00\00\00" }>, align 8
@alloc_e47c8e4b2292b89f0e183d4aa8e718ad = private unnamed_addr constant <{ ptr, [16 x i8] }> <{ ptr @alloc_eda187c99d640b66de46f65a7ffa489f, [16 x i8] c"\11\00\00\00\00\00\00\00)\00\00\00%\00\00\00" }>, align 8
@alloc_6832ccb29fa1e986242027aaeec4ebe9 = private unnamed_addr constant <{ ptr, [16 x i8] }> <{ ptr @alloc_eda187c99d640b66de46f65a7ffa489f, [16 x i8] c"\11\00\00\00\00\00\00\004\00\00\00\1A\00\00\00" }>, align 8
@alloc_07de9cf076dd726cc4142eea1c89eb98 = private unnamed_addr constant <{ ptr, [16 x i8] }> <{ ptr @alloc_eda187c99d640b66de46f65a7ffa489f, [16 x i8] c"\11\00\00\00\00\00\00\00A\00\00\00%\00\00\00" }>, align 8
@alloc_beff527d95ae91542bcaad1358ad394b = private unnamed_addr constant <{ ptr, [16 x i8] }> <{ ptr @alloc_eda187c99d640b66de46f65a7ffa489f, [16 x i8] c"\11\00\00\00\00\00\00\00\0D\00\00\00\1F\00\00\00" }>, align 8
@alloc_72b4a06ee70cc505c4b857f370083bc2 = private unnamed_addr constant <{ ptr, [16 x i8] }> <{ ptr @alloc_eda187c99d640b66de46f65a7ffa489f, [16 x i8] c"\11\00\00\00\00\00\00\00\15\00\00\00:\00\00\00" }>, align 8
@alloc_306e0ef86f7f125d04709838b684a898 = private unnamed_addr constant <{ [18 x i8] }> <{ [18 x i8] c"aes128::bench_fill" }>, align 1
@alloc_f1e66ac24494e79e2623968c3606f9a1 = private unnamed_addr constant <{ [8 x i8], [16 x i8], [8 x i8], ptr, [8 x i8], [8 x i8], ptr, [16 x i8], [8 x i8], [36 x i8], [4 x i8], [8 x i8], ptr, [8 x i8] }> <{ [8 x i8] zeroinitializer, [16 x i8] undef, [8 x i8] c"\01\00\00\00\00\00\00\80", ptr @alloc_306e0ef86f7f125d04709838b684a898, [8 x i8] c"\12\00\00\00\00\00\00\00", [8 x i8] undef, ptr @alloc_eda187c99d640b66de46f65a7ffa489f, [16 x i8] c"\11\00\00\00\00\00\00\00\00\00\00\00\00\00\00\00", [8 x i8] undef, [36 x i8] c"S\00\00\00\00\00\00\00\14\00\00\00\00\00\00\00S\00\00\00\00\00\00\00\1E\00\00\00\00\00\00\00\00\00\00\03", [4 x i8] undef, [8 x i8] c"\01\00\00\00\00\00\00\00", ptr @_ZN4core3ops8function6FnOnce9call_once17hd13b74dd171abfafE, [8 x i8] undef }>, align 8
@alloc_9e53669b9767773df8fd34ab0fd19ddf = private unnamed_addr constant <{ [25 x i8] }> <{ [25 x i8] c"aes128::bench_fill_uninit" }>, align 1
@alloc_4e5d7e5cf32f6d5831a9c923f4902674 = private unnamed_addr constant <{ [8 x i8], [16 x i8], [8 x i8], ptr, [8 x i8], [8 x i8], ptr, [16 x i8], [8 x i8], [36 x i8], [4 x i8], [8 x i8], ptr, [8 x i8] }> <{ [8 x i8] zeroinitializer, [16 x i8] undef, [8 x i8] c"\01\00\00\00\00\00\00\80", ptr @alloc_9e53669b9767773df8fd34ab0fd19ddf, [8 x i8] c"\19\00\00\00\00\00\00\00", [8 x i8] undef, ptr @alloc_eda187c99d640b66de46f65a7ffa489f, [16 x i8] c"\11\00\00\00\00\00\00\00\00\00\00\00\00\00\00\00", [8 x i8] undef, [36 x i8] c"]\00\00\00\00\00\00\00\14\00\00\00\00\00\00\00]\00\00\00\00\00\00\00%\00\00\00\00\00\00\00\00\00\00\03", [4 x i8] undef, [8 x i8] c"\01\00\00\00\00\00\00\00", ptr @_ZN4core3ops8function6FnOnce9call_once17he0b27980e2794ce1E, [8 x i8] undef }>, align 8
@alloc_18fc39a8e893eaff4b4c1281a710c92c = private unnamed_addr constant <{ [9 x i8] }> <{ [9 x i8] c"bench_u32" }>, align 1
@alloc_0616ceb870490cfe81fb647db4280ca5 = private unnamed_addr constant <{ [8 x i8], [16 x i8], [8 x i8], ptr, [8 x i8], [8 x i8], ptr, [16 x i8], [8 x i8], [36 x i8], [4 x i8], [8 x i8], ptr, [8 x i8] }> <{ [8 x i8] zeroinitializer, [16 x i8] undef, [8 x i8] c"\01\00\00\00\00\00\00\80", ptr @alloc_18fc39a8e893eaff4b4c1281a710c92c, [8 x i8] c"\09\00\00\00\00\00\00\00", [8 x i8] undef, ptr @alloc_eda187c99d640b66de46f65a7ffa489f, [16 x i8] c"\11\00\00\00\00\00\00\00\00\00\00\00\00\00\00\00", [8 x i8] undef, [36 x i8] c"\1A\00\00\00\00\00\00\00\08\00\00\00\00\00\00\00\1A\00\00\00\00\00\00\00\11\00\00\00\00\00\00\00\00\00\00\03", [4 x i8] undef, [8 x i8] c"\01\00\00\00\00\00\00\00", ptr @_ZN4core3ops8function6FnOnce9call_once17h80590b8ba0d773fbE, [8 x i8] undef }>, align 8
@alloc_12bb0bddb2318c3629de0ce8913ef00a = private unnamed_addr constant <{ [18 x i8] }> <{ [18 x i8] c"bench_u32_via_fill" }>, align 1
@alloc_f680b2001f54f6146e83d3c653859f2b = private unnamed_addr constant <{ [8 x i8], [16 x i8], [8 x i8], ptr, [8 x i8], [8 x i8], ptr, [16 x i8], [8 x i8], [36 x i8], [4 x i8], [8 x i8], ptr, [8 x i8] }> <{ [8 x i8] zeroinitializer, [16 x i8] undef, [8 x i8] c"\01\00\00\00\00\00\00\80", ptr @alloc_12bb0bddb2318c3629de0ce8913ef00a, [8 x i8] c"\12\00\00\00\00\00\00\00", [8 x i8] undef, ptr @alloc_eda187c99d640b66de46f65a7ffa489f, [16 x i8] c"\11\00\00\00\00\00\00\00\00\00\00\00\00\00\00\00", [8 x i8] undef, [36 x i8] c"#\00\00\00\00\00\00\00\08\00\00\00\00\00\00\00#\00\00\00\00\00\00\00\1A\00\00\00\00\00\00\00\00\00\00\03", [4 x i8] undef, [8 x i8] c"\01\00\00\00\00\00\00\00", ptr @_ZN4core3ops8function6FnOnce9call_once17h559ca8bde7caa98bE, [8 x i8] undef }>, align 8
@alloc_41d5671cf0801390a43ca99a52b4f349 = private unnamed_addr constant <{ [9 x i8] }> <{ [9 x i8] c"bench_u64" }>, align 1
@alloc_f326c75996e498f6741e82ede6d8a324 = private unnamed_addr constant <{ [8 x i8], [16 x i8], [8 x i8], ptr, [8 x i8], [8 x i8], ptr, [16 x i8], [8 x i8], [36 x i8], [4 x i8], [8 x i8], ptr, [8 x i8] }> <{ [8 x i8] zeroinitializer, [16 x i8] undef, [8 x i8] c"\01\00\00\00\00\00\00\80", ptr @alloc_41d5671cf0801390a43ca99a52b4f349, [8 x i8] c"\09\00\00\00\00\00\00\00", [8 x i8] undef, ptr @alloc_eda187c99d640b66de46f65a7ffa489f, [16 x i8] c"\11\00\00\00\00\00\00\00\00\00\00\00\00\00\00\00", [8 x i8] undef, [36 x i8] c"1\00\00\00\00\00\00\00\08\00\00\00\00\00\00\001\00\00\00\00\00\00\00\11\00\00\00\00\00\00\00\00\00\00\03", [4 x i8] undef, [8 x i8] c"\01\00\00\00\00\00\00\00", ptr @_ZN4core3ops8function6FnOnce9call_once17h99d5ef2523560426E, [8 x i8] undef }>, align 8
@alloc_02b4bee54156800fcec630709bb4cedd = private unnamed_addr constant <{ [18 x i8] }> <{ [18 x i8] c"bench_u64_via_fill" }>, align 1
@alloc_9069390deb1ba58f55fc44afd495f212 = private unnamed_addr constant <{ [8 x i8], [16 x i8], [8 x i8], ptr, [8 x i8], [8 x i8], ptr, [16 x i8], [8 x i8], [36 x i8], [4 x i8], [8 x i8], ptr, [8 x i8] }> <{ [8 x i8] zeroinitializer, [16 x i8] undef, [8 x i8] c"\01\00\00\00\00\00\00\80", ptr @alloc_02b4bee54156800fcec630709bb4cedd, [8 x i8] c"\12\00\00\00\00\00\00\00", [8 x i8] undef, ptr @alloc_eda187c99d640b66de46f65a7ffa489f, [16 x i8] c"\11\00\00\00\00\00\00\00\00\00\00\00\00\00\00\00", [8 x i8] undef, [36 x i8] c";\00\00\00\00\00\00\00\08\00\00\00\00\00\00\00;\00\00\00\00\00\00\00\1A\00\00\00\00\00\00\00\00\00\00\03", [4 x i8] undef, [8 x i8] c"\01\00\00\00\00\00\00\00", ptr @_ZN4core3ops8function6FnOnce9call_once17h9a1eba12b99f7d3bE, [8 x i8] undef }>, align 8
@alloc_8146618f209e019e1b809eb1df87d28b = private unnamed_addr constant <{ [16 x i8] }> <{ [16 x i8] c"p256::bench_fill" }>, align 1
@alloc_a195bfd55b2908a14603159b181a4535 = private unnamed_addr constant <{ [8 x i8], [16 x i8], [8 x i8], ptr, [8 x i8], [8 x i8], ptr, [16 x i8], [8 x i8], [36 x i8], [4 x i8], [8 x i8], ptr, [8 x i8] }> <{ [8 x i8] zeroinitializer, [16 x i8] undef, [8 x i8] c"\01\00\00\00\00\00\00\80", ptr @alloc_8146618f209e019e1b809eb1df87d28b, [8 x i8] c"\10\00\00\00\00\00\00\00", [8 x i8] undef, ptr @alloc_eda187c99d640b66de46f65a7ffa489f, [16 x i8] c"\11\00\00\00\00\00\00\00\00\00\00\00\00\00\00\00", [8 x i8] undef, [36 x i8] c"S\00\00\00\00\00\00\00\14\00\00\00\00\00\00\00S\00\00\00\00\00\00\00\1E\00\00\00\00\00\00\00\00\00\00\03", [4 x i8] undef, [8 x i8] c"\01\00\00\00\00\00\00\00", ptr @_ZN4core3ops8function6FnOnce9call_once17h4a16522992e2f229E, [8 x i8] undef }>, align 8
@alloc_dbfb0416e122f6fc6ed9557f25bf51d2 = private unnamed_addr constant <{ [23 x i8] }> <{ [23 x i8] c"p256::bench_fill_uninit" }>, align 1
@alloc_918f5348de4d531c975210e60530fc7e = private unnamed_addr constant <{ [8 x i8], [16 x i8], [8 x i8], ptr, [8 x i8], [8 x i8], ptr, [16 x i8], [8 x i8], [36 x i8], [4 x i8], [8 x i8], ptr, [8 x i8] }> <{ [8 x i8] zeroinitializer, [16 x i8] undef, [8 x i8] c"\01\00\00\00\00\00\00\80", ptr @alloc_dbfb0416e122f6fc6ed9557f25bf51d2, [8 x i8] c"\17\00\00\00\00\00\00\00", [8 x i8] undef, ptr @alloc_eda187c99d640b66de46f65a7ffa489f, [16 x i8] c"\11\00\00\00\00\00\00\00\00\00\00\00\00\00\00\00", [8 x i8] undef, [36 x i8] c"]\00\00\00\00\00\00\00\14\00\00\00\00\00\00\00]\00\00\00\00\00\00\00%\00\00\00\00\00\00\00\00\00\00\03", [4 x i8] undef, [8 x i8] c"\01\00\00\00\00\00\00\00", ptr @_ZN4core3ops8function6FnOnce9call_once17ha0b7c48798c54585E, [8 x i8] undef }>, align 8
@alloc_755610bae3362a01e13bea79da6810e0 = private unnamed_addr constant <{ [16 x i8] }> <{ [16 x i8] c"p384::bench_fill" }>, align 1
@alloc_7c720a746fc19b76e4a3fe3e0d7da03f = private unnamed_addr constant <{ [8 x i8], [16 x i8], [8 x i8], ptr, [8 x i8], [8 x i8], ptr, [16 x i8], [8 x i8], [36 x i8], [4 x i8], [8 x i8], ptr, [8 x i8] }> <{ [8 x i8] zeroinitializer, [16 x i8] undef, [8 x i8] c"\01\00\00\00\00\00\00\80", ptr @alloc_755610bae3362a01e13bea79da6810e0, [8 x i8] c"\10\00\00\00\00\00\00\00", [8 x i8] undef, ptr @alloc_eda187c99d640b66de46f65a7ffa489f, [16 x i8] c"\11\00\00\00\00\00\00\00\00\00\00\00\00\00\00\00", [8 x i8] undef, [36 x i8] c"S\00\00\00\00\00\00\00\14\00\00\00\00\00\00\00S\00\00\00\00\00\00\00\1E\00\00\00\00\00\00\00\00\00\00\03", [4 x i8] undef, [8 x i8] c"\01\00\00\00\00\00\00\00", ptr @_ZN4core3ops8function6FnOnce9call_once17h9390a23bef78a186E, [8 x i8] undef }>, align 8
@alloc_7cf76f810cbdf5493f092e2f42d30932 = private unnamed_addr constant <{ [23 x i8] }> <{ [23 x i8] c"p384::bench_fill_uninit" }>, align 1
@alloc_8cc3efbe9f02d1bd38ff56cfcee20916 = private unnamed_addr constant <{ [8 x i8], [16 x i8], [8 x i8], ptr, [8 x i8], [8 x i8], ptr, [16 x i8], [8 x i8], [36 x i8], [4 x i8], [8 x i8], ptr, [8 x i8] }> <{ [8 x i8] zeroinitializer, [16 x i8] undef, [8 x i8] c"\01\00\00\00\00\00\00\80", ptr @alloc_7cf76f810cbdf5493f092e2f42d30932, [8 x i8] c"\17\00\00\00\00\00\00\00", [8 x i8] undef, ptr @alloc_eda187c99d640b66de46f65a7ffa489f, [16 x i8] c"\11\00\00\00\00\00\00\00\00\00\00\00\00\00\00\00", [8 x i8] undef, [36 x i8] c"]\00\00\00\00\00\00\00\14\00\00\00\00\00\00\00]\00\00\00\00\00\00\00%\00\00\00\00\00\00\00\00\00\00\03", [4 x i8] undef, [8 x i8] c"\01\00\00\00\00\00\00\00", ptr @_ZN4core3ops8function6FnOnce9call_once17h1226e8e2a2618511E, [8 x i8] undef }>, align 8
@alloc_4401aa976d96e9b82c930f00325bde94 = private unnamed_addr constant <{ [16 x i8] }> <{ [16 x i8] c"page::bench_fill" }>, align 1
@alloc_657a7f6fdab03a9bc086b73b7a5d943d = private unnamed_addr constant <{ [8 x i8], [16 x i8], [8 x i8], ptr, [8 x i8], [8 x i8], ptr, [16 x i8], [8 x i8], [36 x i8], [4 x i8], [8 x i8], ptr, [8 x i8] }> <{ [8 x i8] zeroinitializer, [16 x i8] undef, [8 x i8] c"\01\00\00\00\00\00\00\80", ptr @alloc_4401aa976d96e9b82c930f00325bde94, [8 x i8] c"\10\00\00\00\00\00\00\00", [8 x i8] undef, ptr @alloc_eda187c99d640b66de46f65a7ffa489f, [16 x i8] c"\11\00\00\00\00\00\00\00\00\00\00\00\00\00\00\00", [8 x i8] undef, [36 x i8] c"S\00\00\00\00\00\00\00\14\00\00\00\00\00\00\00S\00\00\00\00\00\00\00\1E\00\00\00\00\00\00\00\00\00\00\03", [4 x i8] undef, [8 x i8] c"\01\00\00\00\00\00\00\00", ptr @_ZN4core3ops8function6FnOnce9call_once17h5bdf9f8b83856f5bE, [8 x i8] undef }>, align 8
@alloc_4b14c7b02dbe0d9b7a1611bca43dc264 = private unnamed_addr constant <{ [23 x i8] }> <{ [23 x i8] c"page::bench_fill_uninit" }>, align 1
@alloc_6efe9542cbe14078b13a272a5cf70a1b = private unnamed_addr constant <{ [8 x i8], [16 x i8], [8 x i8], ptr, [8 x i8], [8 x i8], ptr, [16 x i8], [8 x i8], [36 x i8], [4 x i8], [8 x i8], ptr, [8 x i8] }> <{ [8 x i8] zeroinitializer, [16 x i8] undef, [8 x i8] c"\01\00\00\00\00\00\00\80", ptr @alloc_4b14c7b02dbe0d9b7a1611bca43dc264, [8 x i8] c"\17\00\00\00\00\00\00\00", [8 x i8] undef, ptr @alloc_eda187c99d640b66de46f65a7ffa489f, [16 x i8] c"\11\00\00\00\00\00\00\00\00\00\00\00\00\00\00\00", [8 x i8] undef, [36 x i8] c"]\00\00\00\00\00\00\00\14\00\00\00\00\00\00\00]\00\00\00\00\00\00\00%\00\00\00\00\00\00\00\00\00\00\03", [4 x i8] undef, [8 x i8] c"\01\00\00\00\00\00\00\00", ptr @_ZN4core3ops8function6FnOnce9call_once17hd1c6a3448583ec85E, [8 x i8] undef }>, align 8
@alloc_92451db1eaeab2f511c0e1542586c374 = private unnamed_addr constant <{ ptr, ptr, ptr, ptr, ptr, ptr, ptr, ptr, ptr, ptr, ptr, ptr }> <{ ptr @alloc_f1e66ac24494e79e2623968c3606f9a1, ptr @alloc_4e5d7e5cf32f6d5831a9c923f4902674, ptr @alloc_0616ceb870490cfe81fb647db4280ca5, ptr @alloc_f680b2001f54f6146e83d3c653859f2b, ptr @alloc_f326c75996e498f6741e82ede6d8a324, ptr @alloc_9069390deb1ba58f55fc44afd495f212, ptr @alloc_a195bfd55b2908a14603159b181a4535, ptr @alloc_918f5348de4d531c975210e60530fc7e, ptr @alloc_7c720a746fc19b76e4a3fe3e0d7da03f, ptr @alloc_8cc3efbe9f02d1bd38ff56cfcee20916, ptr @alloc_657a7f6fdab03a9bc086b73b7a5d943d, ptr @alloc_6efe9542cbe14078b13a272a5cf70a1b }>, align 8
@__rustc_debug_gdb_scripts_section__ = linkonce_odr unnamed_addr constant [34 x i8] c"\01gdb_load_rust_pretty_printers.py\00", section ".debug_gdb_scripts", align 1
@__unsafe_metadata_table = internal constant [30 x { i32, i8, i8, i16 }] [{ i32, i8, i8, i16 } zeroinitializer, { i32, i8, i8, i16 } { i32 1, i8 0, i8 0, i16 0 }, { i32, i8, i8, i16 } { i32 2, i8 0, i8 0, i16 0 }, { i32, i8, i8, i16 } { i32 3, i8 0, i8 0, i16 0 }, { i32, i8, i8, i16 } { i32 4, i8 0, i8 0, i16 0 }, { i32, i8, i8, i16 } { i32 5, i8 0, i8 0, i16 0 }, { i32, i8, i8, i16 } { i32 6, i8 0, i8 0, i16 0 }, { i32, i8, i8, i16 } { i32 7, i8 0, i8 0, i16 0 }, { i32, i8, i8, i16 } { i32 8, i8 0, i8 0, i16 0 }, { i32, i8, i8, i16 } { i32 9, i8 0, i8 0, i16 0 }, { i32, i8, i8, i16 } { i32 10, i8 0, i8 0, i16 0 }, { i32, i8, i8, i16 } { i32 11, i8 0, i8 0, i16 0 }, { i32, i8, i8, i16 } { i32 12, i8 0, i8 0, i16 0 }, { i32, i8, i8, i16 } { i32 13, i8 0, i8 0, i16 0 }, { i32, i8, i8, i16 } { i32 14, i8 0, i8 0, i16 0 }, { i32, i8, i8, i16 } { i32 15, i8 0, i8 0, i16 0 }, { i32, i8, i8, i16 } { i32 16, i8 1, i8 0, i16 0 }, { i32, i8, i8, i16 } { i32 17, i8 1, i8 0, i16 0 }, { i32, i8, i8, i16 } { i32 18, i8 1, i8 0, i16 0 }, { i32, i8, i8, i16 } { i32 19, i8 1, i8 0, i16 0 }, { i32, i8, i8, i16 } { i32 20, i8 1, i8 0, i16 0 }, { i32, i8, i8, i16 } { i32 21, i8 1, i8 0, i16 0 }, { i32, i8, i8, i16 } { i32 22, i8 1, i8 0, i16 0 }, { i32, i8, i8, i16 } { i32 23, i8 1, i8 0, i16 0 }, { i32, i8, i8, i16 } { i32 24, i8 1, i8 0, i16 0 }, { i32, i8, i8, i16 } { i32 25, i8 1, i8 0, i16 0 }, { i32, i8, i8, i16 } { i32 26, i8 1, i8 0, i16 0 }, { i32, i8, i8, i16 } { i32 27, i8 1, i8 0, i16 0 }, { i32, i8, i8, i16 } { i32 28, i8 0, i8 0, i16 0 }, { i32, i8, i8, i16 } { i32 29, i8 0, i8 0, i16 0 }], align 8
@llvm.global_ctors = appending global [1 x { i32, ptr, ptr }] [{ i32, ptr, ptr } { i32 0, ptr @__unsafe_module_init, ptr null }]
@llvm.global_dtors = appending global [1 x { i32, ptr, ptr }] [{ i32, ptr, ptr } { i32 0, ptr @__unsafe_dump_stats, ptr null }]

; std::sys_common::backtrace::__rust_begin_short_backtrace
; Function Attrs: noinline nonlazybind uwtable
define internal fastcc void @_ZN3std10sys_common9backtrace28__rust_begin_short_backtrace17had73a76463822464E(ptr nocapture noundef nonnull readonly %f) unnamed_addr #0 !dbg !171 !unsafe_count.func_id !184 {
start:
  call void @__unsafe_record_function(i32 0), !dbg !185
  call void @llvm.dbg.declare(metadata ptr undef, metadata !198, metadata !DIExpression()), !dbg !207
  call void @llvm.dbg.declare(metadata ptr undef, metadata !179, metadata !DIExpression()), !dbg !209
  tail call void @llvm.dbg.value(metadata ptr %f, metadata !178, metadata !DIExpression()), !dbg !210
  call void @llvm.dbg.value(metadata ptr %f, metadata !192, metadata !DIExpression()), !dbg !211
  call void @llvm.dbg.declare(metadata ptr undef, metadata !193, metadata !DIExpression()), !dbg !185
  tail call void %f(), !dbg !185
  tail call void asm sideeffect "", "~{memory}"() #13, !dbg !212, !srcloc !213
  call void @__unsafe_record_block(i32 0, i32 4, i32 0, i16 0, i16 0, i16 0, i16 0, i16 0, i16 0), !dbg !214
  ret void, !dbg !214
}

; std::rt::lang_start
; Function Attrs: nonlazybind uwtable
define hidden noundef i64 @_ZN3std2rt10lang_start17h504a5e79cb36845dE(ptr noundef nonnull %main, i64 noundef %argc, ptr noundef %argv, i8 noundef %sigpipe) unnamed_addr #1 !dbg !215 !unsafe_count.func_id !229 {
start:
  call void @__unsafe_record_function(i32 1)
  %_8 = alloca [8 x i8], align 8
  tail call void @llvm.dbg.value(metadata ptr %main, metadata !223, metadata !DIExpression()), !dbg !230
  tail call void @llvm.dbg.value(metadata i64 %argc, metadata !224, metadata !DIExpression()), !dbg !230
  tail call void @llvm.dbg.value(metadata ptr %argv, metadata !225, metadata !DIExpression()), !dbg !230
  tail call void @llvm.dbg.value(metadata i8 %sigpipe, metadata !226, metadata !DIExpression()), !dbg !230
  call void @llvm.lifetime.start.p0(i64 8, ptr nonnull %_8), !dbg !231
  store ptr %main, ptr %_8, align 8, !dbg !231
; call std::rt::lang_start_internal
  %0 = call noundef i64 @_ZN3std2rt19lang_start_internal17h3ba09e125ccbefb1E(ptr noundef nonnull align 1 %_8, ptr noalias noundef nonnull readonly align 8 dereferenceable(48) @vtable.0, i64 noundef %argc, ptr noundef %argv, i8 noundef %sigpipe), !dbg !232
  call void @llvm.lifetime.end.p0(i64 8, ptr nonnull %_8), !dbg !233
  call void @__unsafe_record_block(i32 1, i32 7, i32 0, i16 0, i16 0, i16 0, i16 0, i16 0, i16 0), !dbg !234
  ret i64 %0, !dbg !234
}

; std::rt::lang_start::{{closure}}
; Function Attrs: inlinehint nonlazybind uwtable
define internal noundef i32 @"_ZN3std2rt10lang_start28_$u7b$$u7b$closure$u7d$$u7d$17hea1f261d208f49b6E"(ptr noalias nocapture noundef readonly align 8 dereferenceable(8) %_1) unnamed_addr #2 !dbg !235 !unsafe_count.func_id !241 {
start:
  call void @__unsafe_record_function(i32 2), !dbg !242
  tail call void @llvm.dbg.value(metadata ptr %_1, metadata !240, metadata !DIExpression(DW_OP_deref)), !dbg !243
  %_4 = load ptr, ptr %_1, align 8, !dbg !242, !nonnull !23, !noundef !23
; call std::sys_common::backtrace::__rust_begin_short_backtrace
  tail call fastcc void @_ZN3std10sys_common9backtrace28__rust_begin_short_backtrace17had73a76463822464E(ptr noundef nonnull %_4), !dbg !244
  call void @__unsafe_record_block(i32 2, i32 4, i32 0, i16 0, i16 0, i16 0, i16 0, i16 0, i16 0), !dbg !245
  ret i32 0, !dbg !245
}

; core::ops::function::FnOnce::call_once{{vtable.shim}}
; Function Attrs: inlinehint nonlazybind uwtable
define internal noundef i32 @"_ZN4core3ops8function6FnOnce40call_once$u7b$$u7b$vtable.shim$u7d$$u7d$17h6e8be0d08ff79c63E"(ptr nocapture noundef readonly %_1) unnamed_addr #2 personality ptr @rust_eh_personality !dbg !246 !unsafe_count.func_id !255 {
start:
  call void @__unsafe_record_function(i32 3), !dbg !256
  tail call void @llvm.dbg.value(metadata ptr %_1, metadata !251, metadata !DIExpression()), !dbg !257
  call void @llvm.dbg.declare(metadata ptr undef, metadata !252, metadata !DIExpression()), !dbg !256
  %0 = load ptr, ptr %_1, align 8, !dbg !256, !nonnull !23, !noundef !23
  call void @llvm.dbg.value(metadata ptr %0, metadata !258, metadata !DIExpression()), !dbg !264
  call void @llvm.dbg.declare(metadata ptr undef, metadata !263, metadata !DIExpression()), !dbg !266
  call void @llvm.dbg.value(metadata ptr undef, metadata !240, metadata !DIExpression(DW_OP_deref)), !dbg !267
; call std::sys_common::backtrace::__rust_begin_short_backtrace
  tail call fastcc void @_ZN3std10sys_common9backtrace28__rust_begin_short_backtrace17had73a76463822464E(ptr noundef nonnull %0), !dbg !269, !noalias !270
  call void @__unsafe_record_block(i32 3, i32 4, i32 0, i16 0, i16 0, i16 0, i16 0, i16 0, i16 0), !dbg !256
  ret i32 0, !dbg !256
}

; core::ops::function::FnOnce::call_once
; Function Attrs: inlinehint nonlazybind uwtable
define internal void @_ZN4core3ops8function6FnOnce9call_once17h1226e8e2a2618511E(ptr dead_on_unwind noalias nocapture noundef writable writeonly sret([24 x i8]) align 8 dereferenceable(24) %_0, ptr noalias nocapture noundef align 8 dereferenceable(136) %0) unnamed_addr #2 personality ptr @rust_eh_personality !dbg !273 !unsafe_count.func_id !381 {
start:
  call void @__unsafe_record_function(i32 4)
  %_10.i.i.i.i.i.i = alloca [48 x i8], align 8
  %start1.i79.i.i.i.i = alloca [16 x i8], align 8
  %start1.i63.i.i.i.i = alloca [16 x i8], align 8
  %start1.i.i.i.i.i = alloca [16 x i8], align 8
  %summ5.i.i.i.i = alloca [112 x i8], align 8
  %summ.i.i.i.i = alloca [112 x i8], align 8
  %loop_start.i.i.i.i = alloca [16 x i8], align 8
  %_11.i.i.i.i = alloca [400 x i8], align 8
  %start1.i.i.i.i = alloca [16 x i8], align 8
  %_6.sroa.4.i.i.i = alloca [112 x i8], align 8
  tail call void @llvm.dbg.value(metadata ptr %0, metadata !374, metadata !DIExpression()), !dbg !382
  call void @llvm.dbg.declare(metadata ptr poison, metadata !373, metadata !DIExpression()), !dbg !383
  tail call void @llvm.experimental.noalias.scope.decl(metadata !384), !dbg !383
  tail call void @llvm.experimental.noalias.scope.decl(metadata !387), !dbg !383
  call void @llvm.dbg.value(metadata ptr undef, metadata !389, metadata !DIExpression()), !dbg !397
  call void @llvm.dbg.value(metadata ptr %0, metadata !396, metadata !DIExpression()), !dbg !397
  tail call void @llvm.experimental.noalias.scope.decl(metadata !399), !dbg !402
  call void @llvm.dbg.value(metadata ptr %0, metadata !403, metadata !DIExpression()), !dbg !408
  %1 = getelementptr inbounds i8, ptr %0, i64 120, !dbg !410
  store i64 48, ptr %1, align 8, !dbg !410, !alias.scope !411, !noalias !384
  tail call void @llvm.experimental.noalias.scope.decl(metadata !412), !dbg !415
  call void @llvm.dbg.value(metadata !23, metadata !416, metadata !DIExpression()), !dbg !431
  call void @llvm.dbg.value(metadata ptr %0, metadata !442, metadata !DIExpression()), !dbg !445
  call void @llvm.dbg.declare(metadata ptr poison, metadata !443, metadata !DIExpression()), !dbg !446
  call void @llvm.dbg.value(metadata ptr %0, metadata !426, metadata !DIExpression(DW_OP_plus_uconst, 128, DW_OP_stack_value)), !dbg !431
  %2 = getelementptr inbounds i8, ptr %0, i64 128, !dbg !447
  %3 = load i8, ptr %2, align 8, !dbg !447, !range !448, !alias.scope !449, !noalias !384, !noundef !23
  %.not.i.i.i = icmp eq i8 %3, 0, !dbg !447
  call void @__unsafe_record_block(i32 4, i32 21, i32 0, i16 0, i16 0, i16 0, i16 0, i16 0, i16 0), !dbg !450
  br i1 %.not.i.i.i, label %bb3.i.i.i, label %bb1.i.i.i, !dbg !450

bb1.i.i.i:                                        ; preds = %start
  call void @llvm.dbg.value(metadata ptr undef, metadata !451, metadata !DIExpression()), !dbg !489
  call void @llvm.dbg.value(metadata i64 1, metadata !457, metadata !DIExpression()), !dbg !489
  call void @llvm.dbg.declare(metadata ptr %start1.i.i.i.i, metadata !458, metadata !DIExpression()), !dbg !491
  call void @llvm.dbg.declare(metadata ptr undef, metadata !492, metadata !DIExpression()), !dbg !496
  call void @llvm.dbg.declare(metadata ptr undef, metadata !498, metadata !DIExpression()), !dbg !502
  call void @llvm.lifetime.start.p0(i64 16, ptr nonnull %start1.i.i.i.i), !dbg !504, !noalias !505
; call std::time::Instant::now
  %4 = tail call { i64, i32 } @_ZN3std4time7Instant3now17hdd57daf13a49b9b5E(), !dbg !506, !noalias !505
  %5 = extractvalue { i64, i32 } %4, 0, !dbg !506
  %6 = extractvalue { i64, i32 } %4, 1, !dbg !506
  store i64 %5, ptr %start1.i.i.i.i, align 8, !dbg !506, !noalias !505
  %7 = getelementptr inbounds i8, ptr %start1.i.i.i.i, i64 8, !dbg !506
  store i32 %6, ptr %7, align 8, !dbg !506, !noalias !505
  call void @llvm.dbg.value(metadata i64 0, metadata !480, metadata !DIExpression(DW_OP_LLVM_fragment, 0, 64)), !dbg !507
  call void @llvm.dbg.value(metadata i64 1, metadata !480, metadata !DIExpression(DW_OP_LLVM_fragment, 64, 64)), !dbg !507
  call void @llvm.dbg.value(metadata ptr undef, metadata !508, metadata !DIExpression()), !dbg !534
  call void @llvm.dbg.value(metadata ptr undef, metadata !536, metadata !DIExpression()), !dbg !543
  call void @llvm.dbg.value(metadata ptr undef, metadata !545, metadata !DIExpression()), !dbg !556
  call void @llvm.dbg.value(metadata ptr poison, metadata !555, metadata !DIExpression()), !dbg !556
  call void @llvm.dbg.value(metadata i64 0, metadata !480, metadata !DIExpression(DW_OP_LLVM_fragment, 0, 64)), !dbg !507
  call void @llvm.dbg.value(metadata i64 0, metadata !541, metadata !DIExpression()), !dbg !558
  call void @llvm.dbg.value(metadata i64 0, metadata !559, metadata !DIExpression()), !dbg !566
  call void @llvm.dbg.value(metadata i64 0, metadata !568, metadata !DIExpression()), !dbg !577
  call void @llvm.dbg.value(metadata i64 1, metadata !565, metadata !DIExpression()), !dbg !566
  call void @llvm.dbg.value(metadata i64 1, metadata !576, metadata !DIExpression()), !dbg !577
  call void @llvm.dbg.value(metadata i64 1, metadata !480, metadata !DIExpression(DW_OP_LLVM_fragment, 0, 64)), !dbg !507
  call void @llvm.dbg.value(metadata ptr undef, metadata !579, metadata !DIExpression()), !dbg !588
  call void @llvm.dbg.declare(metadata ptr undef, metadata !585, metadata !DIExpression()), !dbg !590
; call buffer::p384::bench_fill_uninit::inner
  tail call fastcc void @_ZN6buffer4p38417bench_fill_uninit5inner17h3de45a08d5cbbfa9E(), !dbg !590, !noalias !505
  tail call void asm sideeffect "", "~{memory}"() #13, !dbg !591, !noalias !505, !srcloc !213
  call void @llvm.dbg.value(metadata ptr undef, metadata !508, metadata !DIExpression()), !dbg !534
  call void @llvm.dbg.value(metadata ptr undef, metadata !536, metadata !DIExpression()), !dbg !543
  call void @llvm.dbg.value(metadata ptr undef, metadata !545, metadata !DIExpression()), !dbg !556
  call void @llvm.dbg.value(metadata ptr poison, metadata !555, metadata !DIExpression()), !dbg !556
; call std::time::Instant::elapsed
  %8 = call { i64, i32 } @_ZN3std4time7Instant7elapsed17hee9bf90f3e35a175E(ptr noalias noundef nonnull readonly align 8 dereferenceable(16) %start1.i.i.i.i), !dbg !592, !noalias !505
  call void @llvm.dbg.value(metadata ptr undef, metadata !593, metadata !DIExpression()), !dbg !611
  call void @llvm.lifetime.end.p0(i64 16, ptr nonnull %start1.i.i.i.i), !dbg !613, !noalias !505
  call void @__unsafe_record_block(i32 4, i32 12, i32 0, i16 0, i16 0, i16 0, i16 0, i16 0, i16 0)
  br label %"_ZN6buffer4p38417bench_fill_uninit28_$u7b$$u7b$closure$u7d$$u7d$17h059d8a21847abf81E.exit"

bb3.i.i.i:                                        ; preds = %start
  call void @llvm.lifetime.start.p0(i64 112, ptr nonnull %_6.sroa.4.i.i.i), !dbg !614
  call void @llvm.lifetime.start.p0(i64 112, ptr nonnull %summ5.i.i.i.i), !dbg !615, !noalias !505
  call void @llvm.dbg.declare(metadata ptr undef, metadata !674, metadata !DIExpression(DW_OP_LLVM_fragment, 96, 32)), !dbg !711
  call void @llvm.dbg.declare(metadata ptr undef, metadata !628, metadata !DIExpression(DW_OP_LLVM_fragment, 96, 32)), !dbg !732
  call void @llvm.dbg.value(metadata i64 1000000, metadata !624, metadata !DIExpression()), !dbg !733
  call void @llvm.dbg.value(metadata i64 1, metadata !734, metadata !DIExpression()), !dbg !742
  call void @llvm.dbg.value(metadata i64 1, metadata !744, metadata !DIExpression()), !dbg !755
  call void @llvm.dbg.value(metadata i64 1, metadata !739, metadata !DIExpression()), !dbg !757
  call void @llvm.dbg.value(metadata i64 1, metadata !750, metadata !DIExpression()), !dbg !759
  call void @llvm.dbg.value(metadata ptr @alloc_830d8a7ce80e2e7f05fa6e4643272e13, metadata !708, metadata !DIExpression(DW_OP_LLVM_fragment, 0, 64)), !dbg !761
  call void @llvm.dbg.value(metadata i64 30, metadata !708, metadata !DIExpression(DW_OP_LLVM_fragment, 64, 64)), !dbg !761
  call void @llvm.dbg.value(metadata ptr undef, metadata !621, metadata !DIExpression()), !dbg !762
  call void @llvm.dbg.declare(metadata ptr %loop_start.i.i.i.i, metadata !637, metadata !DIExpression()), !dbg !763
  call void @llvm.dbg.declare(metadata ptr %summ.i.i.i.i, metadata !661, metadata !DIExpression()), !dbg !764
  call void @llvm.dbg.declare(metadata ptr %summ5.i.i.i.i, metadata !669, metadata !DIExpression()), !dbg !765
  call void @llvm.dbg.value(metadata ptr undef, metadata !451, metadata !DIExpression()), !dbg !766
  call void @llvm.dbg.value(metadata i64 1, metadata !457, metadata !DIExpression()), !dbg !766
  call void @llvm.dbg.declare(metadata ptr %start1.i.i.i.i.i, metadata !458, metadata !DIExpression()), !dbg !767
  call void @llvm.dbg.declare(metadata ptr undef, metadata !492, metadata !DIExpression()), !dbg !768
  call void @llvm.dbg.declare(metadata ptr undef, metadata !498, metadata !DIExpression()), !dbg !770
  call void @llvm.lifetime.start.p0(i64 16, ptr nonnull %start1.i.i.i.i.i), !dbg !615, !noalias !772
; call std::time::Instant::now
  %9 = tail call { i64, i32 } @_ZN3std4time7Instant3now17hdd57daf13a49b9b5E(), !dbg !775, !noalias !772
  %10 = extractvalue { i64, i32 } %9, 0, !dbg !775
  %11 = extractvalue { i64, i32 } %9, 1, !dbg !775
  store i64 %10, ptr %start1.i.i.i.i.i, align 8, !dbg !775, !noalias !772
  %12 = getelementptr inbounds i8, ptr %start1.i.i.i.i.i, i64 8, !dbg !775
  store i32 %11, ptr %12, align 8, !dbg !775, !noalias !772
  call void @llvm.dbg.value(metadata i64 0, metadata !480, metadata !DIExpression(DW_OP_LLVM_fragment, 0, 64)), !dbg !776
  call void @llvm.dbg.value(metadata i64 1, metadata !480, metadata !DIExpression(DW_OP_LLVM_fragment, 64, 64)), !dbg !776
  call void @llvm.dbg.value(metadata ptr undef, metadata !508, metadata !DIExpression()), !dbg !777
  call void @llvm.dbg.value(metadata ptr undef, metadata !536, metadata !DIExpression()), !dbg !779
  call void @llvm.dbg.value(metadata ptr undef, metadata !545, metadata !DIExpression()), !dbg !781
  call void @llvm.dbg.value(metadata ptr poison, metadata !555, metadata !DIExpression()), !dbg !781
  call void @llvm.dbg.value(metadata i64 0, metadata !480, metadata !DIExpression(DW_OP_LLVM_fragment, 0, 64)), !dbg !776
  call void @llvm.dbg.value(metadata i64 0, metadata !541, metadata !DIExpression()), !dbg !783
  call void @llvm.dbg.value(metadata i64 0, metadata !559, metadata !DIExpression()), !dbg !784
  call void @llvm.dbg.value(metadata i64 0, metadata !568, metadata !DIExpression()), !dbg !786
  call void @llvm.dbg.value(metadata i64 1, metadata !565, metadata !DIExpression()), !dbg !784
  call void @llvm.dbg.value(metadata i64 1, metadata !576, metadata !DIExpression()), !dbg !786
  call void @llvm.dbg.value(metadata i64 1, metadata !480, metadata !DIExpression(DW_OP_LLVM_fragment, 0, 64)), !dbg !776
  call void @llvm.dbg.value(metadata ptr undef, metadata !579, metadata !DIExpression()), !dbg !788
  call void @llvm.dbg.declare(metadata ptr undef, metadata !585, metadata !DIExpression()), !dbg !790
; call buffer::p384::bench_fill_uninit::inner
  tail call fastcc void @_ZN6buffer4p38417bench_fill_uninit5inner17h3de45a08d5cbbfa9E(), !dbg !790, !noalias !772
  tail call void asm sideeffect "", "~{memory}"() #13, !dbg !791, !noalias !772, !srcloc !213
  call void @llvm.dbg.value(metadata ptr undef, metadata !508, metadata !DIExpression()), !dbg !777
  call void @llvm.dbg.value(metadata ptr undef, metadata !536, metadata !DIExpression()), !dbg !779
  call void @llvm.dbg.value(metadata ptr undef, metadata !545, metadata !DIExpression()), !dbg !781
  call void @llvm.dbg.value(metadata ptr poison, metadata !555, metadata !DIExpression()), !dbg !781
; call std::time::Instant::elapsed
  %13 = call { i64, i32 } @_ZN3std4time7Instant7elapsed17hee9bf90f3e35a175E(ptr noalias noundef nonnull readonly align 8 dereferenceable(16) %start1.i.i.i.i.i), !dbg !792, !noalias !772
  %14 = extractvalue { i64, i32 } %13, 0, !dbg !792
  %15 = extractvalue { i64, i32 } %13, 1, !dbg !792
  call void @llvm.dbg.value(metadata ptr undef, metadata !593, metadata !DIExpression()), !dbg !793
  %_20.i.i.i.i.i = mul i64 %14, 1000000000, !dbg !795
  %_23.i.i.i.i.i = zext i32 %15 to i64, !dbg !796
  %_9.i.i.i.i.i = add i64 %_20.i.i.i.i.i, %_23.i.i.i.i.i, !dbg !795
  call void @llvm.lifetime.end.p0(i64 16, ptr nonnull %start1.i.i.i.i.i), !dbg !797, !noalias !772
  call void @llvm.dbg.value(metadata i64 %_9.i.i.i.i.i, metadata !622, metadata !DIExpression()), !dbg !798
  call void @llvm.dbg.value(metadata i64 %_9.i.i.i.i.i, metadata !738, metadata !DIExpression()), !dbg !742
  call void @llvm.dbg.value(metadata i64 %_9.i.i.i.i.i, metadata !749, metadata !DIExpression()), !dbg !755
  call void @llvm.dbg.value(metadata i64 1, metadata !799, metadata !DIExpression()), !dbg !811
  call void @llvm.dbg.value(metadata i64 %_9.i.i.i.i.i, metadata !807, metadata !DIExpression()), !dbg !811
  call void @llvm.dbg.declare(metadata ptr undef, metadata !808, metadata !DIExpression()), !dbg !813
  %_0.sroa.0.0.sroa.speculated.i.i.i.i.i = call noundef i64 @llvm.umax.i64(i64 %_9.i.i.i.i.i, i64 1), !dbg !811
  %16 = udiv i64 1000000, %_0.sroa.0.0.sroa.speculated.i.i.i.i.i, !dbg !814
  call void @llvm.dbg.value(metadata i64 %16, metadata !626, metadata !DIExpression()), !dbg !815
  call void @llvm.dbg.value(metadata i64 %16, metadata !741, metadata !DIExpression()), !dbg !757
  call void @llvm.dbg.value(metadata i64 %16, metadata !752, metadata !DIExpression()), !dbg !759
  call void @llvm.dbg.value(metadata i64 1, metadata !799, metadata !DIExpression()), !dbg !816
  call void @llvm.dbg.value(metadata i64 %16, metadata !807, metadata !DIExpression()), !dbg !816
  call void @llvm.dbg.declare(metadata ptr undef, metadata !808, metadata !DIExpression()), !dbg !818
  call void @llvm.dbg.value(metadata i64 %_0.sroa.0.0.sroa.speculated.i61.i.i.i.i, metadata !626, metadata !DIExpression()), !dbg !815
  call void @llvm.dbg.value(metadata ptr @alloc_b7c1c22a954085a45dacf7c670d25258, metadata !819, metadata !DIExpression()), !dbg !959
  call void @llvm.dbg.value(metadata i64 0, metadata !968, metadata !DIExpression()), !dbg !977
  call void @llvm.dbg.value(metadata i64 0, metadata !978, metadata !DIExpression()), !dbg !988
  call void @llvm.dbg.value(metadata i64 0, metadata !990, metadata !DIExpression()), !dbg !1004
  call void @llvm.dbg.value(metadata i32 0, metadata !969, metadata !DIExpression()), !dbg !977
  call void @llvm.dbg.value(metadata i64 0, metadata !628, metadata !DIExpression(DW_OP_LLVM_fragment, 0, 64)), !dbg !1006
  call void @llvm.dbg.value(metadata i32 0, metadata !628, metadata !DIExpression(DW_OP_LLVM_fragment, 64, 32)), !dbg !1006
  call void @llvm.lifetime.start.p0(i64 400, ptr nonnull %_11.i.i.i.i), !dbg !1007, !noalias !772
  call void @llvm.memset.p0.i64(ptr noundef nonnull align 8 dereferenceable(400) %_11.i.i.i.i, i8 0, i64 400, i1 false), !noalias !772
  %_0.sroa.0.0.sroa.speculated.i61.i.i.i.i = call noundef i64 @llvm.umax.i64(i64 %16, i64 1), !dbg !816
  %17 = getelementptr inbounds i8, ptr %loop_start.i.i.i.i, i64 8
  %18 = getelementptr inbounds i8, ptr %start1.i63.i.i.i.i, i64 8
  %19 = getelementptr inbounds i8, ptr %start1.i79.i.i.i.i, i64 8
  %20 = getelementptr inbounds i8, ptr %summ.i.i.i.i, i64 72
  %21 = getelementptr inbounds i8, ptr %summ.i.i.i.i, i64 32
  %22 = getelementptr inbounds i8, ptr %summ5.i.i.i.i, i64 32
  %23 = getelementptr inbounds i8, ptr %summ5.i.i.i.i, i64 64
  call void @__unsafe_record_block(i32 4, i32 31, i32 0, i16 0, i16 0, i16 0, i16 0, i16 0, i16 0), !dbg !1008
  br label %bb4.i.i.i.i, !dbg !1008

bb4.i.i.i.i:                                      ; preds = %bb45.i.i.i.i, %bb3.i.i.i
  %total_run.sroa.0.0.i.i.i.i = phi i64 [ %_0.sroa.0.1.i.ph.i.i.i.i, %bb45.i.i.i.i ], [ 0, %bb3.i.i.i ], !dbg !815
  %total_run.sroa.6.0.i.i.i.i = phi i32 [ %_0.sroa.4.1.i.ph.i.i.i.i, %bb45.i.i.i.i ], [ 0, %bb3.i.i.i ], !dbg !815
  %n.sroa.0.0.i.i.i.i = phi i64 [ %_61.i.i.i.i, %bb45.i.i.i.i ], [ %_0.sroa.0.0.sroa.speculated.i61.i.i.i.i, %bb3.i.i.i ], !dbg !815
  call void @llvm.dbg.value(metadata i32 %total_run.sroa.6.0.i.i.i.i, metadata !628, metadata !DIExpression(DW_OP_LLVM_fragment, 64, 32)), !dbg !1006
  call void @llvm.dbg.value(metadata i64 %total_run.sroa.0.0.i.i.i.i, metadata !628, metadata !DIExpression(DW_OP_LLVM_fragment, 0, 64)), !dbg !1006
  call void @llvm.dbg.value(metadata i64 %n.sroa.0.0.i.i.i.i, metadata !626, metadata !DIExpression()), !dbg !815
  call void @llvm.lifetime.start.p0(i64 16, ptr nonnull %loop_start.i.i.i.i), !dbg !1009, !noalias !772
; call std::time::Instant::now
  %24 = call { i64, i32 } @_ZN3std4time7Instant3now17hdd57daf13a49b9b5E(), !dbg !1010, !noalias !772
  %25 = extractvalue { i64, i32 } %24, 0, !dbg !1010
  %26 = extractvalue { i64, i32 } %24, 1, !dbg !1010
  store i64 %25, ptr %loop_start.i.i.i.i, align 8, !dbg !1010, !noalias !772
  store i32 %26, ptr %17, align 8, !dbg !1010, !noalias !772
  call void @llvm.dbg.value(metadata ptr %_11.i.i.i.i, metadata !639, metadata !DIExpression(DW_OP_LLVM_fragment, 0, 64)), !dbg !1011
  call void @llvm.dbg.value(metadata ptr %_11.i.i.i.i, metadata !639, metadata !DIExpression(DW_OP_plus_uconst, 400, DW_OP_stack_value, DW_OP_LLVM_fragment, 64, 64)), !dbg !1011
  call void @llvm.dbg.value(metadata ptr undef, metadata !1012, metadata !DIExpression()), !dbg !1035
  call void @llvm.dbg.value(metadata ptr undef, metadata !1037, metadata !DIExpression()), !dbg !1044
  call void @llvm.dbg.value(metadata ptr %_11.i.i.i.i, metadata !1033, metadata !DIExpression(DW_OP_plus_uconst, 400, DW_OP_stack_value)), !dbg !1046
  call void @llvm.dbg.value(metadata ptr undef, metadata !1047, metadata !DIExpression()), !dbg !1057
  call void @llvm.dbg.value(metadata ptr undef, metadata !1056, metadata !DIExpression()), !dbg !1057
  %_131.not.i.i.i.i.i = icmp eq i64 %n.sroa.0.0.i.i.i.i, 0
  %_22.i.i.i.i = uitofp i64 %n.sroa.0.0.i.i.i.i to double
  call void @__unsafe_record_block(i32 4, i32 12, i32 0, i16 0, i16 0, i16 0, i16 0, i16 0, i16 0), !dbg !1059
  br i1 %_131.not.i.i.i.i.i, label %bb9.us.i.i.i.i, label %bb9.i.i.i.i, !dbg !1059

bb9.us.i.i.i.i:                                   ; preds = %bb4.i.i.i.i, %bb9.us.i.i.i.i
  %iter.sroa.0.0.ptr12.us.i.i.i.i = phi ptr [ %iter.sroa.0.0.ptr.us.i.i.i.i, %bb9.us.i.i.i.i ], [ %_11.i.i.i.i, %bb4.i.i.i.i ]
  %iter.sroa.0.0.idx11.us.i.i.i.i = phi i64 [ %iter.sroa.0.0.add.us.i.i.i.i, %bb9.us.i.i.i.i ], [ 0, %bb4.i.i.i.i ]
  call void @llvm.dbg.value(metadata ptr undef, metadata !1063, metadata !DIExpression()), !dbg !1078
  call void @llvm.dbg.value(metadata i64 1, metadata !1069, metadata !DIExpression()), !dbg !1078
  call void @llvm.dbg.value(metadata i64 1, metadata !1080, metadata !DIExpression()), !dbg !1088
  call void @llvm.dbg.value(metadata ptr %iter.sroa.0.0.ptr12.us.i.i.i.i, metadata !1070, metadata !DIExpression()), !dbg !1090
  call void @llvm.dbg.value(metadata ptr undef, metadata !1075, metadata !DIExpression(DW_OP_plus_uconst, 8, DW_OP_stack_value)), !dbg !1091
  call void @llvm.dbg.value(metadata ptr %iter.sroa.0.0.ptr12.us.i.i.i.i, metadata !1087, metadata !DIExpression()), !dbg !1088
  %iter.sroa.0.0.add.us.i.i.i.i = add nuw nsw i64 %iter.sroa.0.0.idx11.us.i.i.i.i, 8, !dbg !1092
  call void @llvm.dbg.value(metadata !DIArgList(ptr %_11.i.i.i.i, i64 %iter.sroa.0.0.add.us.i.i.i.i), metadata !639, metadata !DIExpression(DW_OP_LLVM_arg, 0, DW_OP_LLVM_arg, 1, DW_OP_constu, 1, DW_OP_mul, DW_OP_plus, DW_OP_stack_value, DW_OP_LLVM_fragment, 0, 64)), !dbg !1011
  call void @llvm.dbg.value(metadata ptr %iter.sroa.0.0.ptr12.us.i.i.i.i, metadata !659, metadata !DIExpression()), !dbg !1093
  call void @llvm.dbg.value(metadata ptr undef, metadata !451, metadata !DIExpression()), !dbg !1094
  call void @llvm.dbg.value(metadata i64 %n.sroa.0.0.i.i.i.i, metadata !457, metadata !DIExpression()), !dbg !1094
  call void @llvm.dbg.declare(metadata ptr %start1.i63.i.i.i.i, metadata !458, metadata !DIExpression()), !dbg !1095
  call void @llvm.dbg.declare(metadata ptr undef, metadata !492, metadata !DIExpression()), !dbg !1096
  call void @llvm.dbg.declare(metadata ptr undef, metadata !498, metadata !DIExpression()), !dbg !1098
  call void @llvm.lifetime.start.p0(i64 16, ptr nonnull %start1.i63.i.i.i.i), !dbg !1100, !noalias !772
; call std::time::Instant::now
  %27 = call { i64, i32 } @_ZN3std4time7Instant3now17hdd57daf13a49b9b5E(), !dbg !1101, !noalias !772
  %28 = extractvalue { i64, i32 } %27, 0, !dbg !1101
  %29 = extractvalue { i64, i32 } %27, 1, !dbg !1101
  store i64 %28, ptr %start1.i63.i.i.i.i, align 8, !dbg !1101, !noalias !772
  store i32 %29, ptr %18, align 8, !dbg !1101, !noalias !772
  call void @llvm.dbg.value(metadata i64 0, metadata !480, metadata !DIExpression(DW_OP_LLVM_fragment, 0, 64)), !dbg !1102
  call void @llvm.dbg.value(metadata i64 %n.sroa.0.0.i.i.i.i, metadata !480, metadata !DIExpression(DW_OP_LLVM_fragment, 64, 64)), !dbg !1102
  call void @llvm.dbg.value(metadata ptr undef, metadata !508, metadata !DIExpression()), !dbg !1103
  call void @llvm.dbg.value(metadata ptr undef, metadata !536, metadata !DIExpression()), !dbg !1104
  call void @llvm.dbg.value(metadata ptr undef, metadata !545, metadata !DIExpression()), !dbg !1105
  call void @llvm.dbg.value(metadata ptr poison, metadata !555, metadata !DIExpression()), !dbg !1105
; call std::time::Instant::elapsed
  %30 = call { i64, i32 } @_ZN3std4time7Instant7elapsed17hee9bf90f3e35a175E(ptr noalias noundef nonnull readonly align 8 dereferenceable(16) %start1.i63.i.i.i.i), !dbg !1107, !noalias !772
  %31 = extractvalue { i64, i32 } %30, 0, !dbg !1107
  %32 = extractvalue { i64, i32 } %30, 1, !dbg !1107
  call void @llvm.dbg.value(metadata ptr undef, metadata !593, metadata !DIExpression()), !dbg !1108
  %_20.i68.us.i.i.i.i = mul i64 %31, 1000000000, !dbg !1110
  %_23.i69.us.i.i.i.i = zext i32 %32 to i64, !dbg !1111
  %_9.i70.us.i.i.i.i = add i64 %_20.i68.us.i.i.i.i, %_23.i69.us.i.i.i.i, !dbg !1110
  call void @llvm.lifetime.end.p0(i64 16, ptr nonnull %start1.i63.i.i.i.i), !dbg !1112, !noalias !772
  %_19.us.i.i.i.i = uitofp i64 %_9.i70.us.i.i.i.i to double, !dbg !1113
  %33 = fdiv double %_19.us.i.i.i.i, %_22.i.i.i.i, !dbg !1114
  store double %33, ptr %iter.sroa.0.0.ptr12.us.i.i.i.i, align 8, !dbg !1114, !noalias !772
  %iter.sroa.0.0.ptr.us.i.i.i.i = getelementptr inbounds i8, ptr %_11.i.i.i.i, i64 %iter.sroa.0.0.add.us.i.i.i.i, !dbg !1115
  call void @llvm.dbg.value(metadata ptr %iter.sroa.0.0.ptr.us.i.i.i.i, metadata !639, metadata !DIExpression(DW_OP_LLVM_fragment, 0, 64)), !dbg !1011
  call void @llvm.dbg.value(metadata ptr undef, metadata !1012, metadata !DIExpression()), !dbg !1035
  call void @llvm.dbg.value(metadata ptr undef, metadata !1037, metadata !DIExpression()), !dbg !1044
  call void @llvm.dbg.value(metadata ptr %_11.i.i.i.i, metadata !1033, metadata !DIExpression(DW_OP_plus_uconst, 400, DW_OP_stack_value)), !dbg !1046
  call void @llvm.dbg.value(metadata ptr undef, metadata !1047, metadata !DIExpression()), !dbg !1057
  call void @llvm.dbg.value(metadata ptr undef, metadata !1056, metadata !DIExpression()), !dbg !1057
  %34 = icmp eq i64 %iter.sroa.0.0.add.us.i.i.i.i, 400, !dbg !1115
  call void @__unsafe_record_block(i32 4, i32 22, i32 0, i16 0, i16 0, i16 0, i16 0, i16 0, i16 0), !dbg !1116
  br i1 %34, label %bb10.i.i.i.i, label %bb9.us.i.i.i.i, !dbg !1116

bb10.i.i.i.i:                                     ; preds = %_ZN4test5bench13ns_iter_inner17hc34fdc63a7baf76cE.exit71.loopexit.i.i.i.i, %bb9.us.i.i.i.i
  call void @llvm.dbg.value(metadata ptr poison, metadata !639, metadata !DIExpression(DW_OP_LLVM_fragment, 0, 64)), !dbg !1011
; call test::stats::winsorize
  call void @_ZN4test5stats9winsorize17hcba48655fae00e38E(ptr noalias noundef nonnull align 8 %_11.i.i.i.i, i64 noundef 50, double noundef 5.000000e+00), !dbg !1117, !noalias !772
  call void @llvm.lifetime.start.p0(i64 112, ptr nonnull %summ.i.i.i.i), !dbg !1118, !noalias !772
; call test::stats::Summary::new
  call void @_ZN4test5stats7Summary3new17he2db34ca48eb410fE(ptr noalias nocapture noundef nonnull sret([112 x i8]) align 8 dereferenceable(112) %summ.i.i.i.i, ptr noalias noundef nonnull readonly align 8 %_11.i.i.i.i, i64 noundef 50), !dbg !1119, !noalias !772
  call void @llvm.dbg.value(metadata ptr %_11.i.i.i.i, metadata !663, metadata !DIExpression(DW_OP_LLVM_fragment, 0, 64)), !dbg !1120
  call void @llvm.dbg.value(metadata ptr %_11.i.i.i.i, metadata !663, metadata !DIExpression(DW_OP_plus_uconst, 400, DW_OP_stack_value, DW_OP_LLVM_fragment, 64, 64)), !dbg !1120
  %_34.i.i.i.i = mul i64 %n.sroa.0.0.i.i.i.i, 5
  call void @llvm.dbg.value(metadata ptr %_11.i.i.i.i, metadata !663, metadata !DIExpression(DW_OP_LLVM_fragment, 0, 64)), !dbg !1120
  call void @llvm.dbg.value(metadata ptr undef, metadata !1012, metadata !DIExpression()), !dbg !1121
  call void @llvm.dbg.value(metadata ptr undef, metadata !1037, metadata !DIExpression()), !dbg !1123
  call void @llvm.dbg.value(metadata ptr %_11.i.i.i.i, metadata !1033, metadata !DIExpression(DW_OP_plus_uconst, 400, DW_OP_stack_value)), !dbg !1125
  call void @llvm.dbg.value(metadata ptr undef, metadata !1047, metadata !DIExpression()), !dbg !1126
  call void @llvm.dbg.value(metadata ptr undef, metadata !1056, metadata !DIExpression()), !dbg !1126
  %_37.i.i.i.i = uitofp i64 %_34.i.i.i.i to double
  call void @__unsafe_record_block(i32 4, i32 6, i32 0, i16 0, i16 0, i16 0, i16 0, i16 0, i16 0), !dbg !1128
  br i1 %_131.not.i.i.i.i.i, label %bb16.us.i.i.i.i, label %bb16.i.i.i.i, !dbg !1128

bb16.us.i.i.i.i:                                  ; preds = %bb10.i.i.i.i, %bb16.us.i.i.i.i
  %iter5.sroa.0.0.ptr14.us.i.i.i.i = phi ptr [ %iter5.sroa.0.0.ptr.us.i.i.i.i, %bb16.us.i.i.i.i ], [ %_11.i.i.i.i, %bb10.i.i.i.i ]
  %iter5.sroa.0.0.idx13.us.i.i.i.i = phi i64 [ %iter5.sroa.0.0.add.us.i.i.i.i, %bb16.us.i.i.i.i ], [ 0, %bb10.i.i.i.i ]
  call void @llvm.dbg.value(metadata ptr undef, metadata !1063, metadata !DIExpression()), !dbg !1132
  call void @llvm.dbg.value(metadata i64 1, metadata !1069, metadata !DIExpression()), !dbg !1132
  call void @llvm.dbg.value(metadata i64 1, metadata !1080, metadata !DIExpression()), !dbg !1134
  call void @llvm.dbg.value(metadata ptr %iter5.sroa.0.0.ptr14.us.i.i.i.i, metadata !1070, metadata !DIExpression()), !dbg !1136
  call void @llvm.dbg.value(metadata ptr undef, metadata !1075, metadata !DIExpression(DW_OP_plus_uconst, 8, DW_OP_stack_value)), !dbg !1137
  call void @llvm.dbg.value(metadata ptr %iter5.sroa.0.0.ptr14.us.i.i.i.i, metadata !1087, metadata !DIExpression()), !dbg !1134
  %iter5.sroa.0.0.add.us.i.i.i.i = add nuw nsw i64 %iter5.sroa.0.0.idx13.us.i.i.i.i, 8, !dbg !1138
  call void @llvm.dbg.value(metadata !DIArgList(ptr %_11.i.i.i.i, i64 %iter5.sroa.0.0.add.us.i.i.i.i), metadata !663, metadata !DIExpression(DW_OP_LLVM_arg, 0, DW_OP_LLVM_arg, 1, DW_OP_constu, 1, DW_OP_mul, DW_OP_plus, DW_OP_stack_value, DW_OP_LLVM_fragment, 0, 64)), !dbg !1120
  call void @llvm.dbg.value(metadata ptr %iter5.sroa.0.0.ptr14.us.i.i.i.i, metadata !665, metadata !DIExpression()), !dbg !1139
  call void @llvm.dbg.value(metadata ptr undef, metadata !451, metadata !DIExpression()), !dbg !1140
  call void @llvm.dbg.value(metadata i64 %_34.i.i.i.i, metadata !457, metadata !DIExpression()), !dbg !1140
  call void @llvm.dbg.declare(metadata ptr %start1.i79.i.i.i.i, metadata !458, metadata !DIExpression()), !dbg !1141
  call void @llvm.dbg.declare(metadata ptr undef, metadata !492, metadata !DIExpression()), !dbg !1142
  call void @llvm.dbg.declare(metadata ptr undef, metadata !498, metadata !DIExpression()), !dbg !1144
  call void @llvm.lifetime.start.p0(i64 16, ptr nonnull %start1.i79.i.i.i.i), !dbg !1146, !noalias !772
; call std::time::Instant::now
  %35 = call { i64, i32 } @_ZN3std4time7Instant3now17hdd57daf13a49b9b5E(), !dbg !1147, !noalias !772
  %36 = extractvalue { i64, i32 } %35, 0, !dbg !1147
  %37 = extractvalue { i64, i32 } %35, 1, !dbg !1147
  store i64 %36, ptr %start1.i79.i.i.i.i, align 8, !dbg !1147, !noalias !772
  store i32 %37, ptr %19, align 8, !dbg !1147, !noalias !772
  call void @llvm.dbg.value(metadata i64 0, metadata !480, metadata !DIExpression(DW_OP_LLVM_fragment, 0, 64)), !dbg !1148
  call void @llvm.dbg.value(metadata i64 %_34.i.i.i.i, metadata !480, metadata !DIExpression(DW_OP_LLVM_fragment, 64, 64)), !dbg !1148
  call void @llvm.dbg.value(metadata ptr undef, metadata !508, metadata !DIExpression()), !dbg !1149
  call void @llvm.dbg.value(metadata ptr undef, metadata !536, metadata !DIExpression()), !dbg !1150
  call void @llvm.dbg.value(metadata ptr undef, metadata !545, metadata !DIExpression()), !dbg !1151
  call void @llvm.dbg.value(metadata ptr poison, metadata !555, metadata !DIExpression()), !dbg !1151
; call std::time::Instant::elapsed
  %38 = call { i64, i32 } @_ZN3std4time7Instant7elapsed17hee9bf90f3e35a175E(ptr noalias noundef nonnull readonly align 8 dereferenceable(16) %start1.i79.i.i.i.i), !dbg !1153, !noalias !772
  %39 = extractvalue { i64, i32 } %38, 0, !dbg !1153
  %40 = extractvalue { i64, i32 } %38, 1, !dbg !1153
  call void @llvm.dbg.value(metadata ptr undef, metadata !593, metadata !DIExpression()), !dbg !1154
  %_20.i85.us.i.i.i.i = mul i64 %39, 1000000000, !dbg !1156
  %_23.i86.us.i.i.i.i = zext i32 %40 to i64, !dbg !1157
  %_9.i87.us.i.i.i.i = add i64 %_20.i85.us.i.i.i.i, %_23.i86.us.i.i.i.i, !dbg !1156
  call void @llvm.lifetime.end.p0(i64 16, ptr nonnull %start1.i79.i.i.i.i), !dbg !1158, !noalias !772
  call void @llvm.dbg.value(metadata i64 %_9.i87.us.i.i.i.i, metadata !667, metadata !DIExpression()), !dbg !1159
  %_36.us.i.i.i.i = uitofp i64 %_9.i87.us.i.i.i.i to double, !dbg !1160
  %41 = fdiv double %_36.us.i.i.i.i, %_37.i.i.i.i, !dbg !1161
  store double %41, ptr %iter5.sroa.0.0.ptr14.us.i.i.i.i, align 8, !dbg !1161, !noalias !772
  %iter5.sroa.0.0.ptr.us.i.i.i.i = getelementptr inbounds i8, ptr %_11.i.i.i.i, i64 %iter5.sroa.0.0.add.us.i.i.i.i, !dbg !1162
  call void @llvm.dbg.value(metadata ptr %iter5.sroa.0.0.ptr.us.i.i.i.i, metadata !663, metadata !DIExpression(DW_OP_LLVM_fragment, 0, 64)), !dbg !1120
  call void @llvm.dbg.value(metadata ptr undef, metadata !1012, metadata !DIExpression()), !dbg !1121
  call void @llvm.dbg.value(metadata ptr undef, metadata !1037, metadata !DIExpression()), !dbg !1123
  call void @llvm.dbg.value(metadata ptr %_11.i.i.i.i, metadata !1033, metadata !DIExpression(DW_OP_plus_uconst, 400, DW_OP_stack_value)), !dbg !1125
  call void @llvm.dbg.value(metadata ptr undef, metadata !1047, metadata !DIExpression()), !dbg !1126
  call void @llvm.dbg.value(metadata ptr undef, metadata !1056, metadata !DIExpression()), !dbg !1126
  %42 = icmp eq i64 %iter5.sroa.0.0.add.us.i.i.i.i, 400, !dbg !1162
  call void @__unsafe_record_block(i32 4, i32 22, i32 0, i16 0, i16 0, i16 0, i16 0, i16 0, i16 0), !dbg !1163
  br i1 %42, label %bb17.i.i.i.i, label %bb16.us.i.i.i.i, !dbg !1163

bb9.i.i.i.i:                                      ; preds = %bb4.i.i.i.i, %_ZN4test5bench13ns_iter_inner17hc34fdc63a7baf76cE.exit71.loopexit.i.i.i.i
  %iter.sroa.0.0.ptr12.i.i.i.i = phi ptr [ %iter.sroa.0.0.ptr.i.i.i.i, %_ZN4test5bench13ns_iter_inner17hc34fdc63a7baf76cE.exit71.loopexit.i.i.i.i ], [ %_11.i.i.i.i, %bb4.i.i.i.i ]
  %iter.sroa.0.0.idx11.i.i.i.i = phi i64 [ %iter.sroa.0.0.add.i.i.i.i, %_ZN4test5bench13ns_iter_inner17hc34fdc63a7baf76cE.exit71.loopexit.i.i.i.i ], [ 0, %bb4.i.i.i.i ]
  call void @llvm.dbg.value(metadata ptr undef, metadata !1063, metadata !DIExpression()), !dbg !1078
  call void @llvm.dbg.value(metadata i64 1, metadata !1069, metadata !DIExpression()), !dbg !1078
  call void @llvm.dbg.value(metadata i64 1, metadata !1080, metadata !DIExpression()), !dbg !1088
  call void @llvm.dbg.value(metadata ptr %iter.sroa.0.0.ptr12.i.i.i.i, metadata !1070, metadata !DIExpression()), !dbg !1090
  call void @llvm.dbg.value(metadata ptr undef, metadata !1075, metadata !DIExpression(DW_OP_plus_uconst, 8, DW_OP_stack_value)), !dbg !1091
  call void @llvm.dbg.value(metadata ptr %iter.sroa.0.0.ptr12.i.i.i.i, metadata !1087, metadata !DIExpression()), !dbg !1088
  call void @llvm.dbg.value(metadata !DIArgList(ptr %_11.i.i.i.i, i64 %iter.sroa.0.0.add.i.i.i.i), metadata !639, metadata !DIExpression(DW_OP_LLVM_arg, 0, DW_OP_LLVM_arg, 1, DW_OP_constu, 1, DW_OP_mul, DW_OP_plus, DW_OP_stack_value, DW_OP_LLVM_fragment, 0, 64)), !dbg !1011
  call void @llvm.dbg.value(metadata ptr %iter.sroa.0.0.ptr12.i.i.i.i, metadata !659, metadata !DIExpression()), !dbg !1093
  call void @llvm.dbg.value(metadata ptr undef, metadata !451, metadata !DIExpression()), !dbg !1094
  call void @llvm.dbg.value(metadata i64 %n.sroa.0.0.i.i.i.i, metadata !457, metadata !DIExpression()), !dbg !1094
  call void @llvm.dbg.declare(metadata ptr %start1.i63.i.i.i.i, metadata !458, metadata !DIExpression()), !dbg !1095
  call void @llvm.dbg.declare(metadata ptr undef, metadata !492, metadata !DIExpression()), !dbg !1096
  call void @llvm.dbg.declare(metadata ptr undef, metadata !498, metadata !DIExpression()), !dbg !1098
  call void @llvm.lifetime.start.p0(i64 16, ptr nonnull %start1.i63.i.i.i.i), !dbg !1100, !noalias !772
; call std::time::Instant::now
  %43 = call { i64, i32 } @_ZN3std4time7Instant3now17hdd57daf13a49b9b5E(), !dbg !1101, !noalias !772
  %44 = extractvalue { i64, i32 } %43, 0, !dbg !1101
  %45 = extractvalue { i64, i32 } %43, 1, !dbg !1101
  store i64 %44, ptr %start1.i63.i.i.i.i, align 8, !dbg !1101, !noalias !772
  store i32 %45, ptr %18, align 8, !dbg !1101, !noalias !772
  call void @llvm.dbg.value(metadata i64 0, metadata !480, metadata !DIExpression(DW_OP_LLVM_fragment, 0, 64)), !dbg !1102
  call void @llvm.dbg.value(metadata i64 %n.sroa.0.0.i.i.i.i, metadata !480, metadata !DIExpression(DW_OP_LLVM_fragment, 64, 64)), !dbg !1102
  call void @llvm.dbg.value(metadata ptr undef, metadata !508, metadata !DIExpression()), !dbg !1103
  call void @llvm.dbg.value(metadata ptr undef, metadata !536, metadata !DIExpression()), !dbg !1104
  call void @llvm.dbg.value(metadata ptr undef, metadata !545, metadata !DIExpression()), !dbg !1105
  call void @llvm.dbg.value(metadata ptr poison, metadata !555, metadata !DIExpression()), !dbg !1105
  call void @__unsafe_record_block(i32 4, i32 9, i32 0, i16 0, i16 0, i16 0, i16 0, i16 0, i16 0), !dbg !1059
  br label %bb6.i64.i.i.i.i, !dbg !1059

bb6.i64.i.i.i.i:                                  ; preds = %bb6.i64.i.i.i.i, %bb9.i.i.i.i
  %iter.sroa.0.02.i65.i.i.i.i = phi i64 [ %_0.i.i66.i.i.i.i, %bb6.i64.i.i.i.i ], [ 0, %bb9.i.i.i.i ]
  call void @llvm.dbg.value(metadata i64 %iter.sroa.0.02.i65.i.i.i.i, metadata !480, metadata !DIExpression(DW_OP_LLVM_fragment, 0, 64)), !dbg !1102
  call void @llvm.dbg.value(metadata i64 %iter.sroa.0.02.i65.i.i.i.i, metadata !541, metadata !DIExpression()), !dbg !1164
  call void @llvm.dbg.value(metadata i64 %iter.sroa.0.02.i65.i.i.i.i, metadata !559, metadata !DIExpression()), !dbg !1165
  call void @llvm.dbg.value(metadata i64 %iter.sroa.0.02.i65.i.i.i.i, metadata !568, metadata !DIExpression()), !dbg !1167
  call void @llvm.dbg.value(metadata i64 1, metadata !565, metadata !DIExpression()), !dbg !1165
  call void @llvm.dbg.value(metadata i64 1, metadata !576, metadata !DIExpression()), !dbg !1167
  %_0.i.i66.i.i.i.i = add nuw i64 %iter.sroa.0.02.i65.i.i.i.i, 1, !dbg !1169
  call void @llvm.dbg.value(metadata i64 %_0.i.i66.i.i.i.i, metadata !480, metadata !DIExpression(DW_OP_LLVM_fragment, 0, 64)), !dbg !1102
  call void @llvm.dbg.value(metadata ptr undef, metadata !579, metadata !DIExpression()), !dbg !1170
  call void @llvm.dbg.declare(metadata ptr undef, metadata !585, metadata !DIExpression()), !dbg !1172
; call buffer::p384::bench_fill_uninit::inner
  call fastcc void @_ZN6buffer4p38417bench_fill_uninit5inner17h3de45a08d5cbbfa9E(), !dbg !1172, !noalias !772
  call void asm sideeffect "", "~{memory}"() #13, !dbg !1173, !noalias !772, !srcloc !213
  call void @llvm.dbg.value(metadata ptr undef, metadata !508, metadata !DIExpression()), !dbg !1103
  call void @llvm.dbg.value(metadata ptr undef, metadata !536, metadata !DIExpression()), !dbg !1104
  call void @llvm.dbg.value(metadata ptr undef, metadata !545, metadata !DIExpression()), !dbg !1105
  call void @llvm.dbg.value(metadata ptr poison, metadata !555, metadata !DIExpression()), !dbg !1105
  %exitcond.not.i67.i.i.i.i = icmp eq i64 %_0.i.i66.i.i.i.i, %n.sroa.0.0.i.i.i.i, !dbg !1174
  call void @__unsafe_record_block(i32 4, i32 6, i32 0, i16 0, i16 0, i16 0, i16 0, i16 0, i16 0), !dbg !1059
  br i1 %exitcond.not.i67.i.i.i.i, label %_ZN4test5bench13ns_iter_inner17hc34fdc63a7baf76cE.exit71.loopexit.i.i.i.i, label %bb6.i64.i.i.i.i, !dbg !1059

_ZN4test5bench13ns_iter_inner17hc34fdc63a7baf76cE.exit71.loopexit.i.i.i.i: ; preds = %bb6.i64.i.i.i.i
  %iter.sroa.0.0.add.i.i.i.i = add nuw nsw i64 %iter.sroa.0.0.idx11.i.i.i.i, 8, !dbg !1092
; call std::time::Instant::elapsed
  %46 = call { i64, i32 } @_ZN3std4time7Instant7elapsed17hee9bf90f3e35a175E(ptr noalias noundef nonnull readonly align 8 dereferenceable(16) %start1.i63.i.i.i.i), !dbg !1107, !noalias !772
  %47 = extractvalue { i64, i32 } %46, 0, !dbg !1107
  %48 = extractvalue { i64, i32 } %46, 1, !dbg !1107
  call void @llvm.dbg.value(metadata ptr undef, metadata !593, metadata !DIExpression()), !dbg !1108
  %_20.i68.i.i.i.i = mul i64 %47, 1000000000, !dbg !1110
  %_23.i69.i.i.i.i = zext i32 %48 to i64, !dbg !1111
  %_9.i70.i.i.i.i = add i64 %_20.i68.i.i.i.i, %_23.i69.i.i.i.i, !dbg !1110
  call void @llvm.lifetime.end.p0(i64 16, ptr nonnull %start1.i63.i.i.i.i), !dbg !1112, !noalias !772
  %_19.i.i.i.i = uitofp i64 %_9.i70.i.i.i.i to double, !dbg !1113
  %49 = fdiv double %_19.i.i.i.i, %_22.i.i.i.i, !dbg !1114
  store double %49, ptr %iter.sroa.0.0.ptr12.i.i.i.i, align 8, !dbg !1114, !noalias !772
  %iter.sroa.0.0.ptr.i.i.i.i = getelementptr inbounds i8, ptr %_11.i.i.i.i, i64 %iter.sroa.0.0.add.i.i.i.i, !dbg !1115
  call void @llvm.dbg.value(metadata ptr %iter.sroa.0.0.ptr.i.i.i.i, metadata !639, metadata !DIExpression(DW_OP_LLVM_fragment, 0, 64)), !dbg !1011
  call void @llvm.dbg.value(metadata ptr undef, metadata !1012, metadata !DIExpression()), !dbg !1035
  call void @llvm.dbg.value(metadata ptr undef, metadata !1037, metadata !DIExpression()), !dbg !1044
  call void @llvm.dbg.value(metadata ptr %_11.i.i.i.i, metadata !1033, metadata !DIExpression(DW_OP_plus_uconst, 400, DW_OP_stack_value)), !dbg !1046
  call void @llvm.dbg.value(metadata ptr undef, metadata !1047, metadata !DIExpression()), !dbg !1057
  call void @llvm.dbg.value(metadata ptr undef, metadata !1056, metadata !DIExpression()), !dbg !1057
  %50 = icmp eq i64 %iter.sroa.0.0.add.i.i.i.i, 400, !dbg !1115
  call void @__unsafe_record_block(i32 4, i32 14, i32 0, i16 0, i16 0, i16 0, i16 0, i16 0, i16 0), !dbg !1116
  br i1 %50, label %bb10.i.i.i.i, label %bb9.i.i.i.i, !dbg !1116

bb17.i.i.i.i:                                     ; preds = %_ZN4test5bench13ns_iter_inner17hc34fdc63a7baf76cE.exit88.loopexit.i.i.i.i, %bb16.us.i.i.i.i
  call void @llvm.dbg.value(metadata ptr poison, metadata !663, metadata !DIExpression(DW_OP_LLVM_fragment, 0, 64)), !dbg !1120
; call test::stats::winsorize
  call void @_ZN4test5stats9winsorize17hcba48655fae00e38E(ptr noalias noundef nonnull align 8 %_11.i.i.i.i, i64 noundef 50, double noundef 5.000000e+00), !dbg !1175, !noalias !772
; call test::stats::Summary::new
  call void @_ZN4test5stats7Summary3new17he2db34ca48eb410fE(ptr noalias nocapture noundef nonnull sret([112 x i8]) align 8 dereferenceable(112) %summ5.i.i.i.i, ptr noalias noundef nonnull readonly align 8 %_11.i.i.i.i, i64 noundef 50), !dbg !1176, !noalias !772
; call std::time::Instant::elapsed
  %51 = call { i64, i32 } @_ZN3std4time7Instant7elapsed17hee9bf90f3e35a175E(ptr noalias noundef nonnull readonly align 8 dereferenceable(16) %loop_start.i.i.i.i), !dbg !1177, !noalias !772
  %52 = extractvalue { i64, i32 } %51, 0, !dbg !1177
  %53 = extractvalue { i64, i32 } %51, 1, !dbg !1177
  call void @llvm.dbg.value(metadata i64 %52, metadata !671, metadata !DIExpression(DW_OP_LLVM_fragment, 0, 64)), !dbg !1178
  call void @llvm.dbg.value(metadata i64 %52, metadata !730, metadata !DIExpression(DW_OP_LLVM_fragment, 0, 64)), !dbg !1179
  call void @llvm.dbg.value(metadata i64 %52, metadata !720, metadata !DIExpression(DW_OP_LLVM_fragment, 0, 64)), !dbg !1180
  call void @llvm.dbg.value(metadata i32 %53, metadata !671, metadata !DIExpression(DW_OP_LLVM_fragment, 64, 32)), !dbg !1178
  call void @llvm.dbg.value(metadata i32 %53, metadata !730, metadata !DIExpression(DW_OP_LLVM_fragment, 64, 32)), !dbg !1179
  call void @llvm.dbg.value(metadata i32 %53, metadata !720, metadata !DIExpression(DW_OP_LLVM_fragment, 64, 32)), !dbg !1180
  call void @llvm.dbg.value(metadata ptr undef, metadata !1181, metadata !DIExpression()), !dbg !1195
  call void @llvm.dbg.value(metadata ptr undef, metadata !1197, metadata !DIExpression()), !dbg !1225
  call void @llvm.dbg.value(metadata ptr undef, metadata !1188, metadata !DIExpression()), !dbg !1195
  call void @llvm.dbg.value(metadata ptr undef, metadata !1217, metadata !DIExpression()), !dbg !1225
  call void @llvm.dbg.value(metadata ptr undef, metadata !1227, metadata !DIExpression()), !dbg !1237
  call void @llvm.dbg.value(metadata ptr undef, metadata !1233, metadata !DIExpression()), !dbg !1237
  %.not.not.i.i.i.i = icmp ne i64 %52, 0, !dbg !1239
  %_459.i.i.i.i = icmp ugt i32 %53, 100000000, !dbg !1240
  %_45.i.i.i.i = select i1 %.not.not.i.i.i.i, i1 true, i1 %_459.i.i.i.i, !dbg !1240
  %_50.i.i.i.i = load double, ptr %20, align 8, !noalias !772
  %_49.i.i.i.i = fcmp olt double %_50.i.i.i.i, 1.000000e+00
  %or.cond.i.i.i.i = select i1 %_45.i.i.i.i, i1 %_49.i.i.i.i, i1 false, !dbg !1243
  call void @__unsafe_record_block(i32 4, i32 12, i32 0, i16 0, i16 0, i16 0, i16 0, i16 0, i16 0), !dbg !1243
  br i1 %or.cond.i.i.i.i, label %bb23.i.i.i.i, label %bb28.i.i.i.i, !dbg !1243

bb16.i.i.i.i:                                     ; preds = %bb10.i.i.i.i, %_ZN4test5bench13ns_iter_inner17hc34fdc63a7baf76cE.exit88.loopexit.i.i.i.i
  %iter5.sroa.0.0.ptr14.i.i.i.i = phi ptr [ %iter5.sroa.0.0.ptr.i.i.i.i, %_ZN4test5bench13ns_iter_inner17hc34fdc63a7baf76cE.exit88.loopexit.i.i.i.i ], [ %_11.i.i.i.i, %bb10.i.i.i.i ]
  %iter5.sroa.0.0.idx13.i.i.i.i = phi i64 [ %iter5.sroa.0.0.add.i.i.i.i, %_ZN4test5bench13ns_iter_inner17hc34fdc63a7baf76cE.exit88.loopexit.i.i.i.i ], [ 0, %bb10.i.i.i.i ]
  call void @llvm.dbg.value(metadata ptr undef, metadata !1063, metadata !DIExpression()), !dbg !1132
  call void @llvm.dbg.value(metadata i64 1, metadata !1069, metadata !DIExpression()), !dbg !1132
  call void @llvm.dbg.value(metadata i64 1, metadata !1080, metadata !DIExpression()), !dbg !1134
  call void @llvm.dbg.value(metadata ptr %iter5.sroa.0.0.ptr14.i.i.i.i, metadata !1070, metadata !DIExpression()), !dbg !1136
  call void @llvm.dbg.value(metadata ptr undef, metadata !1075, metadata !DIExpression(DW_OP_plus_uconst, 8, DW_OP_stack_value)), !dbg !1137
  call void @llvm.dbg.value(metadata ptr %iter5.sroa.0.0.ptr14.i.i.i.i, metadata !1087, metadata !DIExpression()), !dbg !1134
  call void @llvm.dbg.value(metadata !DIArgList(ptr %_11.i.i.i.i, i64 %iter5.sroa.0.0.add.i.i.i.i), metadata !663, metadata !DIExpression(DW_OP_LLVM_arg, 0, DW_OP_LLVM_arg, 1, DW_OP_constu, 1, DW_OP_mul, DW_OP_plus, DW_OP_stack_value, DW_OP_LLVM_fragment, 0, 64)), !dbg !1120
  call void @llvm.dbg.value(metadata ptr %iter5.sroa.0.0.ptr14.i.i.i.i, metadata !665, metadata !DIExpression()), !dbg !1139
  call void @llvm.dbg.value(metadata ptr undef, metadata !451, metadata !DIExpression()), !dbg !1140
  call void @llvm.dbg.value(metadata i64 %_34.i.i.i.i, metadata !457, metadata !DIExpression()), !dbg !1140
  call void @llvm.dbg.declare(metadata ptr %start1.i79.i.i.i.i, metadata !458, metadata !DIExpression()), !dbg !1141
  call void @llvm.dbg.declare(metadata ptr undef, metadata !492, metadata !DIExpression()), !dbg !1142
  call void @llvm.dbg.declare(metadata ptr undef, metadata !498, metadata !DIExpression()), !dbg !1144
  call void @llvm.lifetime.start.p0(i64 16, ptr nonnull %start1.i79.i.i.i.i), !dbg !1146, !noalias !772
; call std::time::Instant::now
  %54 = call { i64, i32 } @_ZN3std4time7Instant3now17hdd57daf13a49b9b5E(), !dbg !1147, !noalias !772
  %55 = extractvalue { i64, i32 } %54, 0, !dbg !1147
  %56 = extractvalue { i64, i32 } %54, 1, !dbg !1147
  store i64 %55, ptr %start1.i79.i.i.i.i, align 8, !dbg !1147, !noalias !772
  store i32 %56, ptr %19, align 8, !dbg !1147, !noalias !772
  call void @llvm.dbg.value(metadata i64 0, metadata !480, metadata !DIExpression(DW_OP_LLVM_fragment, 0, 64)), !dbg !1148
  call void @llvm.dbg.value(metadata i64 %_34.i.i.i.i, metadata !480, metadata !DIExpression(DW_OP_LLVM_fragment, 64, 64)), !dbg !1148
  call void @llvm.dbg.value(metadata ptr undef, metadata !508, metadata !DIExpression()), !dbg !1149
  call void @llvm.dbg.value(metadata ptr undef, metadata !536, metadata !DIExpression()), !dbg !1150
  call void @llvm.dbg.value(metadata ptr undef, metadata !545, metadata !DIExpression()), !dbg !1151
  call void @llvm.dbg.value(metadata ptr poison, metadata !555, metadata !DIExpression()), !dbg !1151
  call void @__unsafe_record_block(i32 4, i32 9, i32 0, i16 0, i16 0, i16 0, i16 0, i16 0, i16 0), !dbg !1128
  br label %bb6.i81.i.i.i.i, !dbg !1128

bb6.i81.i.i.i.i:                                  ; preds = %bb6.i81.i.i.i.i, %bb16.i.i.i.i
  %iter.sroa.0.02.i82.i.i.i.i = phi i64 [ %_0.i.i83.i.i.i.i, %bb6.i81.i.i.i.i ], [ 0, %bb16.i.i.i.i ]
  call void @llvm.dbg.value(metadata i64 %iter.sroa.0.02.i82.i.i.i.i, metadata !480, metadata !DIExpression(DW_OP_LLVM_fragment, 0, 64)), !dbg !1148
  call void @llvm.dbg.value(metadata i64 %iter.sroa.0.02.i82.i.i.i.i, metadata !541, metadata !DIExpression()), !dbg !1244
  call void @llvm.dbg.value(metadata i64 %iter.sroa.0.02.i82.i.i.i.i, metadata !559, metadata !DIExpression()), !dbg !1245
  call void @llvm.dbg.value(metadata i64 %iter.sroa.0.02.i82.i.i.i.i, metadata !568, metadata !DIExpression()), !dbg !1247
  call void @llvm.dbg.value(metadata i64 1, metadata !565, metadata !DIExpression()), !dbg !1245
  call void @llvm.dbg.value(metadata i64 1, metadata !576, metadata !DIExpression()), !dbg !1247
  %_0.i.i83.i.i.i.i = add nuw i64 %iter.sroa.0.02.i82.i.i.i.i, 1, !dbg !1249
  call void @llvm.dbg.value(metadata i64 %_0.i.i83.i.i.i.i, metadata !480, metadata !DIExpression(DW_OP_LLVM_fragment, 0, 64)), !dbg !1148
  call void @llvm.dbg.value(metadata ptr undef, metadata !579, metadata !DIExpression()), !dbg !1250
  call void @llvm.dbg.declare(metadata ptr undef, metadata !585, metadata !DIExpression()), !dbg !1252
; call buffer::p384::bench_fill_uninit::inner
  call fastcc void @_ZN6buffer4p38417bench_fill_uninit5inner17h3de45a08d5cbbfa9E(), !dbg !1252, !noalias !772
  call void asm sideeffect "", "~{memory}"() #13, !dbg !1253, !noalias !772, !srcloc !213
  call void @llvm.dbg.value(metadata ptr undef, metadata !508, metadata !DIExpression()), !dbg !1149
  call void @llvm.dbg.value(metadata ptr undef, metadata !536, metadata !DIExpression()), !dbg !1150
  call void @llvm.dbg.value(metadata ptr undef, metadata !545, metadata !DIExpression()), !dbg !1151
  call void @llvm.dbg.value(metadata ptr poison, metadata !555, metadata !DIExpression()), !dbg !1151
  %exitcond.not.i84.i.i.i.i = icmp eq i64 %_0.i.i83.i.i.i.i, %_34.i.i.i.i, !dbg !1254
  call void @__unsafe_record_block(i32 4, i32 6, i32 0, i16 0, i16 0, i16 0, i16 0, i16 0, i16 0), !dbg !1128
  br i1 %exitcond.not.i84.i.i.i.i, label %_ZN4test5bench13ns_iter_inner17hc34fdc63a7baf76cE.exit88.loopexit.i.i.i.i, label %bb6.i81.i.i.i.i, !dbg !1128

_ZN4test5bench13ns_iter_inner17hc34fdc63a7baf76cE.exit88.loopexit.i.i.i.i: ; preds = %bb6.i81.i.i.i.i
  %iter5.sroa.0.0.add.i.i.i.i = add nuw nsw i64 %iter5.sroa.0.0.idx13.i.i.i.i, 8, !dbg !1138
; call std::time::Instant::elapsed
  %57 = call { i64, i32 } @_ZN3std4time7Instant7elapsed17hee9bf90f3e35a175E(ptr noalias noundef nonnull readonly align 8 dereferenceable(16) %start1.i79.i.i.i.i), !dbg !1153, !noalias !772
  %58 = extractvalue { i64, i32 } %57, 0, !dbg !1153
  %59 = extractvalue { i64, i32 } %57, 1, !dbg !1153
  call void @llvm.dbg.value(metadata ptr undef, metadata !593, metadata !DIExpression()), !dbg !1154
  %_20.i85.i.i.i.i = mul i64 %58, 1000000000, !dbg !1156
  %_23.i86.i.i.i.i = zext i32 %59 to i64, !dbg !1157
  %_9.i87.i.i.i.i = add i64 %_20.i85.i.i.i.i, %_23.i86.i.i.i.i, !dbg !1156
  call void @llvm.lifetime.end.p0(i64 16, ptr nonnull %start1.i79.i.i.i.i), !dbg !1158, !noalias !772
  call void @llvm.dbg.value(metadata i64 %_9.i87.i.i.i.i, metadata !667, metadata !DIExpression()), !dbg !1159
  %_36.i.i.i.i = uitofp i64 %_9.i87.i.i.i.i to double, !dbg !1160
  %60 = fdiv double %_36.i.i.i.i, %_37.i.i.i.i, !dbg !1161
  store double %60, ptr %iter5.sroa.0.0.ptr14.i.i.i.i, align 8, !dbg !1161, !noalias !772
  %iter5.sroa.0.0.ptr.i.i.i.i = getelementptr inbounds i8, ptr %_11.i.i.i.i, i64 %iter5.sroa.0.0.add.i.i.i.i, !dbg !1162
  call void @llvm.dbg.value(metadata ptr %iter5.sroa.0.0.ptr.i.i.i.i, metadata !663, metadata !DIExpression(DW_OP_LLVM_fragment, 0, 64)), !dbg !1120
  call void @llvm.dbg.value(metadata ptr undef, metadata !1012, metadata !DIExpression()), !dbg !1121
  call void @llvm.dbg.value(metadata ptr undef, metadata !1037, metadata !DIExpression()), !dbg !1123
  call void @llvm.dbg.value(metadata ptr %_11.i.i.i.i, metadata !1033, metadata !DIExpression(DW_OP_plus_uconst, 400, DW_OP_stack_value)), !dbg !1125
  call void @llvm.dbg.value(metadata ptr undef, metadata !1047, metadata !DIExpression()), !dbg !1126
  call void @llvm.dbg.value(metadata ptr undef, metadata !1056, metadata !DIExpression()), !dbg !1126
  %61 = icmp eq i64 %iter5.sroa.0.0.add.i.i.i.i, 400, !dbg !1162
  call void @__unsafe_record_block(i32 4, i32 14, i32 0, i16 0, i16 0, i16 0, i16 0, i16 0, i16 0), !dbg !1163
  br i1 %61, label %bb17.i.i.i.i, label %bb16.i.i.i.i, !dbg !1163

bb28.i.i.i.i:                                     ; preds = %bb23.i.i.i.i, %bb17.i.i.i.i
  call void @llvm.dbg.value(metadata ptr undef, metadata !729, metadata !DIExpression()), !dbg !1179
  call void @llvm.dbg.value(metadata i64 %total_run.sroa.0.0.i.i.i.i, metadata !719, metadata !DIExpression(DW_OP_LLVM_fragment, 0, 64)), !dbg !1180
  call void @llvm.dbg.value(metadata i32 %total_run.sroa.6.0.i.i.i.i, metadata !719, metadata !DIExpression(DW_OP_LLVM_fragment, 64, 32)), !dbg !1180
  call void @llvm.dbg.value(metadata i64 1, metadata !1255, metadata !DIExpression()), !dbg !1269
  call void @llvm.dbg.value(metadata i64 1, metadata !1285, metadata !DIExpression()), !dbg !1299
  call void @llvm.dbg.value(metadata i64 %total_run.sroa.0.0.i.i.i.i, metadata !1279, metadata !DIExpression(DW_OP_LLVM_fragment, 0, 64)), !dbg !1301
  call void @llvm.dbg.value(metadata i32 %total_run.sroa.6.0.i.i.i.i, metadata !1279, metadata !DIExpression(DW_OP_LLVM_fragment, 64, 32)), !dbg !1301
  call void @llvm.dbg.value(metadata i64 %52, metadata !1280, metadata !DIExpression(DW_OP_LLVM_fragment, 0, 64)), !dbg !1301
  call void @llvm.dbg.value(metadata i32 %53, metadata !1280, metadata !DIExpression(DW_OP_LLVM_fragment, 64, 32)), !dbg !1301
  call void @llvm.dbg.value(metadata i64 %total_run.sroa.0.0.i.i.i.i, metadata !1259, metadata !DIExpression()), !dbg !1302
  call void @llvm.dbg.value(metadata i64 %total_run.sroa.0.0.i.i.i.i, metadata !1289, metadata !DIExpression()), !dbg !1304
  call void @llvm.dbg.value(metadata i64 %52, metadata !1261, metadata !DIExpression()), !dbg !1302
  call void @llvm.dbg.value(metadata i64 %52, metadata !1291, metadata !DIExpression()), !dbg !1304
  %62 = call { i64, i1 } @llvm.uadd.with.overflow.i64(i64 %total_run.sroa.0.0.i.i.i.i, i64 %52), !dbg !1306
  %_21.0.i.i.i.i.i = extractvalue { i64, i1 } %62, 0, !dbg !1306
  %_21.1.i.i.i.i.i = extractvalue { i64, i1 } %62, 1, !dbg !1306
  call void @llvm.dbg.value(metadata i64 %_21.0.i.i.i.i.i, metadata !1262, metadata !DIExpression()), !dbg !1307
  call void @llvm.dbg.value(metadata i1 %_21.1.i.i.i.i.i, metadata !1264, metadata !DIExpression(DW_OP_LLVM_convert, 1, DW_ATE_unsigned, DW_OP_LLVM_convert, 8, DW_ATE_unsigned, DW_OP_stack_value)), !dbg !1307
  call void @__unsafe_record_block(i32 4, i32 4, i32 0, i16 0, i16 0, i16 0, i16 0, i16 0, i16 0), !dbg !1308
  br i1 %_21.1.i.i.i.i.i, label %bb38.i.i.i.i, label %bb9.i.i.i.i.i, !dbg !1308

bb9.i.i.i.i.i:                                    ; preds = %bb28.i.i.i.i
  call void @llvm.dbg.value(metadata i64 %_21.0.i.i.i.i.i, metadata !1281, metadata !DIExpression()), !dbg !1311
  %63 = add i32 %53, %total_run.sroa.6.0.i.i.i.i, !dbg !1312
  call void @llvm.dbg.value(metadata i32 %63, metadata !1282, metadata !DIExpression()), !dbg !1313
  %_10.i.i.i.i.i = icmp ugt i32 %63, 999999999, !dbg !1314
  call void @__unsafe_record_block(i32 4, i32 3, i32 0, i16 0, i16 0, i16 0, i16 0, i16 0, i16 0), !dbg !1314
  br i1 %_10.i.i.i.i.i, label %bb1.i.i.i.i.i, label %bb39.i.i.i.i, !dbg !1314

bb1.i.i.i.i.i:                                    ; preds = %bb9.i.i.i.i.i
  call void @llvm.dbg.value(metadata i32 %63, metadata !1282, metadata !DIExpression(DW_OP_constu, 1000000000, DW_OP_minus, DW_OP_stack_value)), !dbg !1313
  call void @llvm.dbg.value(metadata i64 %_21.0.i.i.i.i.i, metadata !1265, metadata !DIExpression()), !dbg !1269
  call void @llvm.dbg.value(metadata i64 %_21.0.i.i.i.i.i, metadata !1295, metadata !DIExpression()), !dbg !1299
  %64 = call { i64, i1 } @llvm.uadd.with.overflow.i64(i64 %_21.0.i.i.i.i.i, i64 1), !dbg !1315
  %_25.1.i.i.i.i.i = extractvalue { i64, i1 } %64, 1, !dbg !1315
  call void @llvm.dbg.value(metadata i64 poison, metadata !1266, metadata !DIExpression()), !dbg !1316
  call void @llvm.dbg.value(metadata i1 %_25.1.i.i.i.i.i, metadata !1268, metadata !DIExpression(DW_OP_LLVM_convert, 1, DW_ATE_unsigned, DW_OP_LLVM_convert, 8, DW_ATE_unsigned, DW_OP_stack_value)), !dbg !1316
  call void @__unsafe_record_block(i32 4, i32 3, i32 0, i16 0, i16 0, i16 0, i16 0, i16 0, i16 0), !dbg !1317
  br i1 %_25.1.i.i.i.i.i, label %bb38.i.i.i.i, label %bb3.i.i.i.i.i, !dbg !1317

bb3.i.i.i.i.i:                                    ; preds = %bb1.i.i.i.i.i
  %_25.0.i.i.i.i.i = extractvalue { i64, i1 } %64, 0, !dbg !1315
  call void @llvm.dbg.value(metadata i64 %_25.0.i.i.i.i.i, metadata !1266, metadata !DIExpression()), !dbg !1316
  %65 = add i32 %63, -1000000000, !dbg !1319
  call void @llvm.dbg.value(metadata i64 %_25.0.i.i.i.i.i, metadata !1283, metadata !DIExpression()), !dbg !1320
  call void @llvm.dbg.value(metadata i32 %65, metadata !1282, metadata !DIExpression()), !dbg !1313
  call void @llvm.dbg.value(metadata i64 %_25.0.i.i.i.i.i, metadata !1281, metadata !DIExpression()), !dbg !1311
  call void @llvm.dbg.value(metadata ptr @alloc_b7c1c22a954085a45dacf7c670d25258, metadata !819, metadata !DIExpression()), !dbg !1321
  call void @llvm.dbg.value(metadata i64 %_25.0.i.i.i.i.i, metadata !968, metadata !DIExpression()), !dbg !1324
  call void @llvm.dbg.value(metadata i64 %_25.0.i.i.i.i.i, metadata !978, metadata !DIExpression()), !dbg !1325
  call void @llvm.dbg.value(metadata i64 %_25.0.i.i.i.i.i, metadata !990, metadata !DIExpression()), !dbg !1327
  call void @llvm.dbg.value(metadata i32 %65, metadata !969, metadata !DIExpression()), !dbg !1324
  %_3.i.i.i.i.i.i = icmp ult i32 %65, 1000000000, !dbg !1329
  call void @__unsafe_record_block(i32 4, i32 4, i32 0, i16 0, i16 0, i16 0, i16 0, i16 0, i16 0), !dbg !1329
  br i1 %_3.i.i.i.i.i.i, label %bb39.i.i.i.i, label %bb2.i.i.i.i.i.i, !dbg !1329

bb2.i.i.i.i.i.i:                                  ; preds = %bb3.i.i.i.i.i
  %_7.i.i.i.i.i.i = udiv i32 %65, 1000000000, !dbg !1330
  %nanos3.i.i.i.i.i.i = urem i32 %65, 1000000000, !dbg !1331
  %rhs.i.i.i.i.i.i = zext nneg i32 %_7.i.i.i.i.i.i to i64, !dbg !1330
  call void @llvm.dbg.value(metadata i64 %rhs.i.i.i.i.i.i, metadata !984, metadata !DIExpression()), !dbg !1325
  call void @llvm.dbg.value(metadata i64 %rhs.i.i.i.i.i.i, metadata !1000, metadata !DIExpression()), !dbg !1327
  %66 = call { i64, i1 } @llvm.uadd.with.overflow.i64(i64 %_25.0.i.i.i.i.i, i64 %rhs.i.i.i.i.i.i), !dbg !1332
  %_16.1.i.i.i.i.i.i = extractvalue { i64, i1 } %66, 1, !dbg !1332
  call void @llvm.dbg.value(metadata i64 poison, metadata !985, metadata !DIExpression()), !dbg !1333
  call void @llvm.dbg.value(metadata i1 %_16.1.i.i.i.i.i.i, metadata !987, metadata !DIExpression(DW_OP_LLVM_convert, 1, DW_ATE_unsigned, DW_OP_LLVM_convert, 8, DW_ATE_unsigned, DW_OP_stack_value)), !dbg !1333
  call void @__unsafe_record_block(i32 4, i32 6, i32 0, i16 0, i16 0, i16 0, i16 0, i16 0, i16 0), !dbg !1334
  br i1 %_16.1.i.i.i.i.i.i, label %bb5.i.i.i.i.i.i, label %bb6.i.i.i.i.i.i, !dbg !1334

bb6.i.i.i.i.i.i:                                  ; preds = %bb2.i.i.i.i.i.i
  %_16.0.i.i.i.i.i.i = extractvalue { i64, i1 } %66, 0, !dbg !1332
  call void @llvm.dbg.value(metadata i64 %_16.0.i.i.i.i.i.i, metadata !985, metadata !DIExpression()), !dbg !1333
  call void @llvm.dbg.value(metadata i64 %_16.0.i.i.i.i.i.i, metadata !970, metadata !DIExpression()), !dbg !1336
  call void @__unsafe_record_block(i32 4, i32 2, i32 0, i16 0, i16 0, i16 0, i16 0, i16 0, i16 0), !dbg !1337
  br label %bb39.i.i.i.i, !dbg !1337

bb5.i.i.i.i.i.i:                                  ; preds = %bb2.i.i.i.i.i.i
  call void @llvm.lifetime.start.p0(i64 48, ptr nonnull %_10.i.i.i.i.i.i), !dbg !1338, !noalias !772
  store ptr @alloc_b7c1c22a954085a45dacf7c670d25258, ptr %_10.i.i.i.i.i.i, align 8, !dbg !1339, !noalias !772
  %67 = getelementptr inbounds i8, ptr %_10.i.i.i.i.i.i, i64 8, !dbg !1339
  store i64 1, ptr %67, align 8, !dbg !1339, !noalias !772
  %68 = getelementptr inbounds i8, ptr %_10.i.i.i.i.i.i, i64 32, !dbg !1339
  store ptr null, ptr %68, align 8, !dbg !1339, !noalias !772
  %69 = getelementptr inbounds i8, ptr %_10.i.i.i.i.i.i, i64 16, !dbg !1339
  store ptr inttoptr (i64 8 to ptr), ptr %69, align 8, !dbg !1339, !noalias !772
  %70 = getelementptr inbounds i8, ptr %_10.i.i.i.i.i.i, i64 24, !dbg !1339
  store i64 0, ptr %70, align 8, !dbg !1339, !noalias !772
; call core::panicking::panic_fmt
  call void @_ZN4core9panicking9panic_fmt17h3111a7beccfa68f5E(ptr noalias nocapture noundef nonnull readonly align 8 dereferenceable(48) %_10.i.i.i.i.i.i, ptr noalias noundef nonnull readonly align 8 dereferenceable(24) @alloc_780cce55eebcf3006d09c4f4f63d73b0) #14, !dbg !1338, !noalias !772
  call void @__unsafe_record_block(i32 4, i32 12, i32 0, i16 0, i16 0, i16 0, i16 0, i16 0, i16 0), !dbg !1338
  unreachable, !dbg !1338

bb23.i.i.i.i:                                     ; preds = %bb17.i.i.i.i
  %_53.i.i.i.i = load double, ptr %21, align 8, !dbg !1340, !noalias !772, !noundef !23
  %_54.i.i.i.i = load double, ptr %22, align 8, !dbg !1341, !noalias !772, !noundef !23
  %_52.i.i.i.i = fsub double %_53.i.i.i.i, %_54.i.i.i.i, !dbg !1340
  %_55.i.i.i.i = load double, ptr %23, align 8, !dbg !1342, !noalias !772, !noundef !23
  %_51.i.i.i.i = fcmp olt double %_52.i.i.i.i, %_55.i.i.i.i, !dbg !1340
  call void @__unsafe_record_block(i32 4, i32 6, i32 0, i16 0, i16 0, i16 0, i16 0, i16 0, i16 0), !dbg !1340
  br i1 %_51.i.i.i.i, label %_ZN4test5bench4iter17he61dab9584b3afddE.exit.i.i.i, label %bb28.i.i.i.i, !dbg !1340

bb38.i.i.i.i:                                     ; preds = %bb1.i.i.i.i.i, %bb28.i.i.i.i
  call void @llvm.dbg.value(metadata i64 undef, metadata !674, metadata !DIExpression(DW_OP_LLVM_fragment, 0, 64)), !dbg !761
  call void @llvm.dbg.value(metadata i32 1000000000, metadata !674, metadata !DIExpression(DW_OP_LLVM_fragment, 64, 32)), !dbg !761
; call core::option::expect_failed
  call void @_ZN4core6option13expect_failed17h28cbd671da1a9710E(ptr noalias noundef nonnull readonly align 1 @alloc_830d8a7ce80e2e7f05fa6e4643272e13, i64 noundef 30, ptr noalias noundef nonnull readonly align 8 dereferenceable(24) @alloc_0e0ace263d2d43510f52f9b9fd9a0036) #14, !dbg !1343, !noalias !772
  call void @__unsafe_record_block(i32 4, i32 2, i32 0, i16 0, i16 0, i16 0, i16 0, i16 0, i16 0), !dbg !1343
  unreachable, !dbg !1343

bb39.i.i.i.i:                                     ; preds = %bb6.i.i.i.i.i.i, %bb3.i.i.i.i.i, %bb9.i.i.i.i.i
  %_0.sroa.4.1.i.ph.i.i.i.i = phi i32 [ %63, %bb9.i.i.i.i.i ], [ %65, %bb3.i.i.i.i.i ], [ %nanos3.i.i.i.i.i.i, %bb6.i.i.i.i.i.i ]
  %_0.sroa.0.1.i.ph.i.i.i.i = phi i64 [ %_21.0.i.i.i.i.i, %bb9.i.i.i.i.i ], [ %_25.0.i.i.i.i.i, %bb3.i.i.i.i.i ], [ %_16.0.i.i.i.i.i.i, %bb6.i.i.i.i.i.i ]
  call void @llvm.dbg.value(metadata i64 %_0.sroa.0.1.i.ph.i.i.i.i, metadata !674, metadata !DIExpression(DW_OP_LLVM_fragment, 0, 64)), !dbg !761
  call void @llvm.dbg.value(metadata i32 %_0.sroa.4.1.i.ph.i.i.i.i, metadata !674, metadata !DIExpression(DW_OP_LLVM_fragment, 64, 32)), !dbg !761
  call void @llvm.dbg.value(metadata i64 %_0.sroa.0.1.i.ph.i.i.i.i, metadata !628, metadata !DIExpression(DW_OP_LLVM_fragment, 0, 64)), !dbg !1006
  call void @llvm.dbg.value(metadata i32 %_0.sroa.4.1.i.ph.i.i.i.i, metadata !628, metadata !DIExpression(DW_OP_LLVM_fragment, 64, 32)), !dbg !1006
  call void @llvm.dbg.value(metadata ptr undef, metadata !1189, metadata !DIExpression()), !dbg !1344
  call void @llvm.dbg.value(metadata ptr undef, metadata !1220, metadata !DIExpression()), !dbg !1346
  call void @llvm.dbg.value(metadata ptr undef, metadata !1191, metadata !DIExpression()), !dbg !1344
  call void @llvm.dbg.value(metadata ptr undef, metadata !1222, metadata !DIExpression()), !dbg !1346
  call void @llvm.dbg.value(metadata ptr undef, metadata !1234, metadata !DIExpression()), !dbg !1348
  call void @llvm.dbg.value(metadata ptr undef, metadata !1236, metadata !DIExpression()), !dbg !1348
  %.not59.not.i.i.i.i = icmp eq i64 %_0.sroa.0.1.i.ph.i.i.i.i, 3, !dbg !1350
  %.not60.i.i.i.i = icmp ne i32 %_0.sroa.4.1.i.ph.i.i.i.i, 0, !dbg !1351
  %_5710.i.i.i.i = icmp ugt i64 %_0.sroa.0.1.i.ph.i.i.i.i, 3, !dbg !1352
  %_57.i.i.i.i = select i1 %.not59.not.i.i.i.i, i1 %.not60.i.i.i.i, i1 %_5710.i.i.i.i, !dbg !1352
  %_117.1.i.i.i.i = icmp ugt i64 %n.sroa.0.0.i.i.i.i, 1844674407370955161
  %or.cond20.i.i.i.i = select i1 %_57.i.i.i.i, i1 true, i1 %_117.1.i.i.i.i, !dbg !1354
  call void @__unsafe_record_block(i32 4, i32 9, i32 0, i16 0, i16 0, i16 0, i16 0, i16 0, i16 0), !dbg !1354
  br i1 %or.cond20.i.i.i.i, label %_ZN4test5bench4iter17he61dab9584b3afddE.exit.i.i.i, label %bb45.i.i.i.i, !dbg !1354

bb45.i.i.i.i:                                     ; preds = %bb39.i.i.i.i
  %_61.i.i.i.i = shl nuw nsw i64 %n.sroa.0.0.i.i.i.i, 1, !dbg !1355
  call void @llvm.dbg.value(metadata i64 %_61.i.i.i.i, metadata !626, metadata !DIExpression()), !dbg !815
  call void @llvm.lifetime.end.p0(i64 112, ptr nonnull %summ.i.i.i.i), !dbg !1356, !noalias !772
  call void @llvm.lifetime.end.p0(i64 16, ptr nonnull %loop_start.i.i.i.i), !dbg !1357, !noalias !772
  call void @__unsafe_record_block(i32 4, i32 4, i32 0, i16 0, i16 0, i16 0, i16 0, i16 0, i16 0), !dbg !1358
  br label %bb4.i.i.i.i, !dbg !1358

_ZN4test5bench4iter17he61dab9584b3afddE.exit.i.i.i: ; preds = %bb39.i.i.i.i, %bb23.i.i.i.i
  call void @llvm.memcpy.p0.p0.i64(ptr noundef nonnull align 8 dereferenceable(112) %_6.sroa.4.i.i.i, ptr noundef nonnull align 8 dereferenceable(112) %summ5.i.i.i.i, i64 112, i1 false), !dbg !1178, !noalias !505
  call void @llvm.lifetime.end.p0(i64 112, ptr nonnull %summ.i.i.i.i), !dbg !1356, !noalias !772
  call void @llvm.lifetime.end.p0(i64 16, ptr nonnull %loop_start.i.i.i.i), !dbg !1357, !noalias !772
  call void @llvm.lifetime.end.p0(i64 400, ptr nonnull %_11.i.i.i.i), !dbg !1359, !noalias !772
  call void @llvm.lifetime.end.p0(i64 112, ptr nonnull %summ5.i.i.i.i), !dbg !1360, !noalias !505
  store i64 1, ptr %0, align 8, !dbg !1361, !alias.scope !449, !noalias !384
  %_6.sroa.4.0.self.sroa_idx.i.i.i = getelementptr inbounds i8, ptr %0, i64 8, !dbg !1361
  call void @llvm.memcpy.p0.p0.i64(ptr noundef nonnull align 8 dereferenceable(112) %_6.sroa.4.0.self.sroa_idx.i.i.i, ptr noundef nonnull align 8 dereferenceable(112) %_6.sroa.4.i.i.i, i64 112, i1 false), !dbg !1361, !noalias !384
  call void @llvm.lifetime.end.p0(i64 112, ptr nonnull %_6.sroa.4.i.i.i), !dbg !1362
  call void @__unsafe_record_block(i32 4, i32 10, i32 0, i16 0, i16 0, i16 0, i16 0, i16 0, i16 0), !dbg !1363
  br label %"_ZN6buffer4p38417bench_fill_uninit28_$u7b$$u7b$closure$u7d$$u7d$17h059d8a21847abf81E.exit", !dbg !1363

"_ZN6buffer4p38417bench_fill_uninit28_$u7b$$u7b$closure$u7d$$u7d$17h059d8a21847abf81E.exit": ; preds = %bb1.i.i.i, %_ZN4test5bench4iter17he61dab9584b3afddE.exit.i.i.i
  call void @llvm.dbg.declare(metadata ptr undef, metadata !1364, metadata !DIExpression()), !dbg !1376
  call void @llvm.dbg.value(metadata i32 0, metadata !1370, metadata !DIExpression()), !dbg !1378
  store i64 -9223372036854775808, ptr %_0, align 8, !dbg !1379, !alias.scope !1380, !noalias !387
  call void @__unsafe_record_block(i32 4, i32 2, i32 0, i16 0, i16 0, i16 0, i16 0, i16 0, i16 0), !dbg !383
  ret void, !dbg !383
}

; core::ops::function::FnOnce::call_once
; Function Attrs: inlinehint nonlazybind uwtable
define internal void @_ZN4core3ops8function6FnOnce9call_once17h4a16522992e2f229E(ptr dead_on_unwind noalias nocapture noundef writable writeonly sret([24 x i8]) align 8 dereferenceable(24) %_0, ptr noalias nocapture noundef align 8 dereferenceable(136) %0) unnamed_addr #2 personality ptr @rust_eh_personality !dbg !1383 !unsafe_count.func_id !1394 {
start:
  call void @__unsafe_record_function(i32 5)
  %_10.i.i.i.i.i.i = alloca [48 x i8], align 8
  %start1.i79.i.i.i.i = alloca [16 x i8], align 8
  %start1.i63.i.i.i.i = alloca [16 x i8], align 8
  %start1.i.i.i.i.i = alloca [16 x i8], align 8
  %summ5.i.i.i.i = alloca [112 x i8], align 8
  %summ.i.i.i.i = alloca [112 x i8], align 8
  %loop_start.i.i.i.i = alloca [16 x i8], align 8
  %_11.i.i.i.i = alloca [400 x i8], align 8
  %start1.i.i.i.i = alloca [16 x i8], align 8
  %_6.sroa.4.i.i.i = alloca [112 x i8], align 8
  tail call void @llvm.dbg.value(metadata ptr %0, metadata !1391, metadata !DIExpression()), !dbg !1395
  call void @llvm.dbg.declare(metadata ptr poison, metadata !1390, metadata !DIExpression()), !dbg !1396
  tail call void @llvm.experimental.noalias.scope.decl(metadata !1397), !dbg !1396
  tail call void @llvm.experimental.noalias.scope.decl(metadata !1400), !dbg !1396
  call void @llvm.dbg.value(metadata ptr undef, metadata !1402, metadata !DIExpression()), !dbg !1409
  call void @llvm.dbg.value(metadata ptr %0, metadata !1408, metadata !DIExpression()), !dbg !1409
  tail call void @llvm.experimental.noalias.scope.decl(metadata !1411), !dbg !1414
  call void @llvm.dbg.value(metadata ptr %0, metadata !1415, metadata !DIExpression()), !dbg !1418
  %1 = getelementptr inbounds i8, ptr %0, i64 120, !dbg !1420
  store i64 32, ptr %1, align 8, !dbg !1420, !alias.scope !1421, !noalias !1397
  tail call void @llvm.experimental.noalias.scope.decl(metadata !1422), !dbg !1425
  call void @llvm.dbg.value(metadata !23, metadata !1426, metadata !DIExpression()), !dbg !1435
  call void @llvm.dbg.value(metadata ptr %0, metadata !1440, metadata !DIExpression()), !dbg !1443
  call void @llvm.dbg.declare(metadata ptr poison, metadata !1441, metadata !DIExpression()), !dbg !1444
  call void @llvm.dbg.value(metadata ptr %0, metadata !1430, metadata !DIExpression(DW_OP_plus_uconst, 128, DW_OP_stack_value)), !dbg !1435
  %2 = getelementptr inbounds i8, ptr %0, i64 128, !dbg !1445
  %3 = load i8, ptr %2, align 8, !dbg !1445, !range !448, !alias.scope !1446, !noalias !1397, !noundef !23
  %.not.i.i.i = icmp eq i8 %3, 0, !dbg !1445
  call void @__unsafe_record_block(i32 5, i32 21, i32 0, i16 0, i16 0, i16 0, i16 0, i16 0, i16 0), !dbg !1447
  br i1 %.not.i.i.i, label %bb3.i.i.i, label %bb1.i.i.i, !dbg !1447

bb1.i.i.i:                                        ; preds = %start
  call void @llvm.dbg.value(metadata ptr undef, metadata !1448, metadata !DIExpression()), !dbg !1456
  call void @llvm.dbg.value(metadata i64 1, metadata !1451, metadata !DIExpression()), !dbg !1456
  call void @llvm.dbg.declare(metadata ptr %start1.i.i.i.i, metadata !1452, metadata !DIExpression()), !dbg !1458
  call void @llvm.dbg.declare(metadata ptr undef, metadata !1459, metadata !DIExpression()), !dbg !1463
  call void @llvm.dbg.declare(metadata ptr undef, metadata !1465, metadata !DIExpression()), !dbg !1469
  call void @llvm.lifetime.start.p0(i64 16, ptr nonnull %start1.i.i.i.i), !dbg !1471, !noalias !1472
; call std::time::Instant::now
  %4 = tail call { i64, i32 } @_ZN3std4time7Instant3now17hdd57daf13a49b9b5E(), !dbg !1473, !noalias !1472
  %5 = extractvalue { i64, i32 } %4, 0, !dbg !1473
  %6 = extractvalue { i64, i32 } %4, 1, !dbg !1473
  store i64 %5, ptr %start1.i.i.i.i, align 8, !dbg !1473, !noalias !1472
  %7 = getelementptr inbounds i8, ptr %start1.i.i.i.i, i64 8, !dbg !1473
  store i32 %6, ptr %7, align 8, !dbg !1473, !noalias !1472
  call void @llvm.dbg.value(metadata i64 0, metadata !1454, metadata !DIExpression(DW_OP_LLVM_fragment, 0, 64)), !dbg !1474
  call void @llvm.dbg.value(metadata i64 1, metadata !1454, metadata !DIExpression(DW_OP_LLVM_fragment, 64, 64)), !dbg !1474
  call void @llvm.dbg.value(metadata ptr undef, metadata !1475, metadata !DIExpression()), !dbg !1479
  call void @llvm.dbg.value(metadata ptr undef, metadata !1481, metadata !DIExpression()), !dbg !1487
  call void @llvm.dbg.value(metadata ptr undef, metadata !1489, metadata !DIExpression()), !dbg !1494
  call void @llvm.dbg.value(metadata ptr poison, metadata !1493, metadata !DIExpression()), !dbg !1494
  call void @llvm.dbg.value(metadata i64 0, metadata !1454, metadata !DIExpression(DW_OP_LLVM_fragment, 0, 64)), !dbg !1474
  call void @llvm.dbg.value(metadata i64 0, metadata !1485, metadata !DIExpression()), !dbg !1496
  call void @llvm.dbg.value(metadata i64 0, metadata !559, metadata !DIExpression()), !dbg !1497
  call void @llvm.dbg.value(metadata i64 0, metadata !568, metadata !DIExpression()), !dbg !1499
  call void @llvm.dbg.value(metadata i64 1, metadata !565, metadata !DIExpression()), !dbg !1497
  call void @llvm.dbg.value(metadata i64 1, metadata !576, metadata !DIExpression()), !dbg !1499
  call void @llvm.dbg.value(metadata i64 1, metadata !1454, metadata !DIExpression(DW_OP_LLVM_fragment, 0, 64)), !dbg !1474
  call void @llvm.dbg.value(metadata ptr undef, metadata !1501, metadata !DIExpression()), !dbg !1505
  call void @llvm.dbg.declare(metadata ptr undef, metadata !1504, metadata !DIExpression()), !dbg !1507
; call buffer::p256::bench_fill::inner
  tail call fastcc void @_ZN6buffer4p25610bench_fill5inner17h9bd9a2ba1f31e032E(), !dbg !1507, !noalias !1472
  tail call void asm sideeffect "", "~{memory}"() #13, !dbg !1508, !noalias !1472, !srcloc !213
  call void @llvm.dbg.value(metadata ptr undef, metadata !1475, metadata !DIExpression()), !dbg !1479
  call void @llvm.dbg.value(metadata ptr undef, metadata !1481, metadata !DIExpression()), !dbg !1487
  call void @llvm.dbg.value(metadata ptr undef, metadata !1489, metadata !DIExpression()), !dbg !1494
  call void @llvm.dbg.value(metadata ptr poison, metadata !1493, metadata !DIExpression()), !dbg !1494
; call std::time::Instant::elapsed
  %8 = call { i64, i32 } @_ZN3std4time7Instant7elapsed17hee9bf90f3e35a175E(ptr noalias noundef nonnull readonly align 8 dereferenceable(16) %start1.i.i.i.i), !dbg !1509, !noalias !1472
  call void @llvm.dbg.value(metadata ptr undef, metadata !1510, metadata !DIExpression()), !dbg !1514
  call void @llvm.lifetime.end.p0(i64 16, ptr nonnull %start1.i.i.i.i), !dbg !1516, !noalias !1472
  call void @__unsafe_record_block(i32 5, i32 12, i32 0, i16 0, i16 0, i16 0, i16 0, i16 0, i16 0)
  br label %"_ZN6buffer4p25610bench_fill28_$u7b$$u7b$closure$u7d$$u7d$17h7748dade2a94d357E.exit"

bb3.i.i.i:                                        ; preds = %start
  call void @llvm.lifetime.start.p0(i64 112, ptr nonnull %_6.sroa.4.i.i.i), !dbg !1517
  call void @llvm.lifetime.start.p0(i64 112, ptr nonnull %summ5.i.i.i.i), !dbg !1518, !noalias !1472
  call void @llvm.dbg.declare(metadata ptr undef, metadata !1552, metadata !DIExpression(DW_OP_LLVM_fragment, 96, 32)), !dbg !1559
  call void @llvm.dbg.declare(metadata ptr undef, metadata !1529, metadata !DIExpression(DW_OP_LLVM_fragment, 96, 32)), !dbg !1573
  call void @llvm.dbg.value(metadata i64 1000000, metadata !1525, metadata !DIExpression()), !dbg !1574
  call void @llvm.dbg.value(metadata i64 1, metadata !1575, metadata !DIExpression()), !dbg !1583
  call void @llvm.dbg.value(metadata i64 1, metadata !1585, metadata !DIExpression()), !dbg !1593
  call void @llvm.dbg.value(metadata i64 1, metadata !1580, metadata !DIExpression()), !dbg !1595
  call void @llvm.dbg.value(metadata i64 1, metadata !1590, metadata !DIExpression()), !dbg !1597
  call void @llvm.dbg.value(metadata ptr @alloc_830d8a7ce80e2e7f05fa6e4643272e13, metadata !1556, metadata !DIExpression(DW_OP_LLVM_fragment, 0, 64)), !dbg !1599
  call void @llvm.dbg.value(metadata i64 30, metadata !1556, metadata !DIExpression(DW_OP_LLVM_fragment, 64, 64)), !dbg !1599
  call void @llvm.dbg.value(metadata ptr undef, metadata !1522, metadata !DIExpression()), !dbg !1600
  call void @llvm.dbg.declare(metadata ptr %loop_start.i.i.i.i, metadata !1533, metadata !DIExpression()), !dbg !1601
  call void @llvm.dbg.declare(metadata ptr %summ.i.i.i.i, metadata !1539, metadata !DIExpression()), !dbg !1602
  call void @llvm.dbg.declare(metadata ptr %summ5.i.i.i.i, metadata !1547, metadata !DIExpression()), !dbg !1603
  call void @llvm.dbg.value(metadata ptr undef, metadata !1448, metadata !DIExpression()), !dbg !1604
  call void @llvm.dbg.value(metadata i64 1, metadata !1451, metadata !DIExpression()), !dbg !1604
  call void @llvm.dbg.declare(metadata ptr %start1.i.i.i.i.i, metadata !1452, metadata !DIExpression()), !dbg !1605
  call void @llvm.dbg.declare(metadata ptr undef, metadata !1459, metadata !DIExpression()), !dbg !1606
  call void @llvm.dbg.declare(metadata ptr undef, metadata !1465, metadata !DIExpression()), !dbg !1608
  call void @llvm.lifetime.start.p0(i64 16, ptr nonnull %start1.i.i.i.i.i), !dbg !1518, !noalias !1610
; call std::time::Instant::now
  %9 = tail call { i64, i32 } @_ZN3std4time7Instant3now17hdd57daf13a49b9b5E(), !dbg !1613, !noalias !1610
  %10 = extractvalue { i64, i32 } %9, 0, !dbg !1613
  %11 = extractvalue { i64, i32 } %9, 1, !dbg !1613
  store i64 %10, ptr %start1.i.i.i.i.i, align 8, !dbg !1613, !noalias !1610
  %12 = getelementptr inbounds i8, ptr %start1.i.i.i.i.i, i64 8, !dbg !1613
  store i32 %11, ptr %12, align 8, !dbg !1613, !noalias !1610
  call void @llvm.dbg.value(metadata i64 0, metadata !1454, metadata !DIExpression(DW_OP_LLVM_fragment, 0, 64)), !dbg !1614
  call void @llvm.dbg.value(metadata i64 1, metadata !1454, metadata !DIExpression(DW_OP_LLVM_fragment, 64, 64)), !dbg !1614
  call void @llvm.dbg.value(metadata ptr undef, metadata !1475, metadata !DIExpression()), !dbg !1615
  call void @llvm.dbg.value(metadata ptr undef, metadata !1481, metadata !DIExpression()), !dbg !1617
  call void @llvm.dbg.value(metadata ptr undef, metadata !1489, metadata !DIExpression()), !dbg !1619
  call void @llvm.dbg.value(metadata ptr poison, metadata !1493, metadata !DIExpression()), !dbg !1619
  call void @llvm.dbg.value(metadata i64 0, metadata !1454, metadata !DIExpression(DW_OP_LLVM_fragment, 0, 64)), !dbg !1614
  call void @llvm.dbg.value(metadata i64 0, metadata !1485, metadata !DIExpression()), !dbg !1621
  call void @llvm.dbg.value(metadata i64 0, metadata !559, metadata !DIExpression()), !dbg !1622
  call void @llvm.dbg.value(metadata i64 0, metadata !568, metadata !DIExpression()), !dbg !1624
  call void @llvm.dbg.value(metadata i64 1, metadata !565, metadata !DIExpression()), !dbg !1622
  call void @llvm.dbg.value(metadata i64 1, metadata !576, metadata !DIExpression()), !dbg !1624
  call void @llvm.dbg.value(metadata i64 1, metadata !1454, metadata !DIExpression(DW_OP_LLVM_fragment, 0, 64)), !dbg !1614
  call void @llvm.dbg.value(metadata ptr undef, metadata !1501, metadata !DIExpression()), !dbg !1626
  call void @llvm.dbg.declare(metadata ptr undef, metadata !1504, metadata !DIExpression()), !dbg !1628
; call buffer::p256::bench_fill::inner
  tail call fastcc void @_ZN6buffer4p25610bench_fill5inner17h9bd9a2ba1f31e032E(), !dbg !1628, !noalias !1610
  tail call void asm sideeffect "", "~{memory}"() #13, !dbg !1629, !noalias !1610, !srcloc !213
  call void @llvm.dbg.value(metadata ptr undef, metadata !1475, metadata !DIExpression()), !dbg !1615
  call void @llvm.dbg.value(metadata ptr undef, metadata !1481, metadata !DIExpression()), !dbg !1617
  call void @llvm.dbg.value(metadata ptr undef, metadata !1489, metadata !DIExpression()), !dbg !1619
  call void @llvm.dbg.value(metadata ptr poison, metadata !1493, metadata !DIExpression()), !dbg !1619
; call std::time::Instant::elapsed
  %13 = call { i64, i32 } @_ZN3std4time7Instant7elapsed17hee9bf90f3e35a175E(ptr noalias noundef nonnull readonly align 8 dereferenceable(16) %start1.i.i.i.i.i), !dbg !1630, !noalias !1610
  %14 = extractvalue { i64, i32 } %13, 0, !dbg !1630
  %15 = extractvalue { i64, i32 } %13, 1, !dbg !1630
  call void @llvm.dbg.value(metadata ptr undef, metadata !1510, metadata !DIExpression()), !dbg !1631
  %_20.i.i.i.i.i = mul i64 %14, 1000000000, !dbg !1633
  %_23.i.i.i.i.i = zext i32 %15 to i64, !dbg !1634
  %_9.i.i.i.i.i = add i64 %_20.i.i.i.i.i, %_23.i.i.i.i.i, !dbg !1633
  call void @llvm.lifetime.end.p0(i64 16, ptr nonnull %start1.i.i.i.i.i), !dbg !1635, !noalias !1610
  call void @llvm.dbg.value(metadata i64 %_9.i.i.i.i.i, metadata !1523, metadata !DIExpression()), !dbg !1636
  call void @llvm.dbg.value(metadata i64 %_9.i.i.i.i.i, metadata !1579, metadata !DIExpression()), !dbg !1583
  call void @llvm.dbg.value(metadata i64 %_9.i.i.i.i.i, metadata !1589, metadata !DIExpression()), !dbg !1593
  call void @llvm.dbg.value(metadata i64 1, metadata !799, metadata !DIExpression()), !dbg !1637
  call void @llvm.dbg.value(metadata i64 %_9.i.i.i.i.i, metadata !807, metadata !DIExpression()), !dbg !1637
  call void @llvm.dbg.declare(metadata ptr undef, metadata !808, metadata !DIExpression()), !dbg !1639
  %_0.sroa.0.0.sroa.speculated.i.i.i.i.i = call noundef i64 @llvm.umax.i64(i64 %_9.i.i.i.i.i, i64 1), !dbg !1637
  %16 = udiv i64 1000000, %_0.sroa.0.0.sroa.speculated.i.i.i.i.i, !dbg !1640
  call void @llvm.dbg.value(metadata i64 %16, metadata !1527, metadata !DIExpression()), !dbg !1641
  call void @llvm.dbg.value(metadata i64 %16, metadata !1582, metadata !DIExpression()), !dbg !1595
  call void @llvm.dbg.value(metadata i64 %16, metadata !1592, metadata !DIExpression()), !dbg !1597
  call void @llvm.dbg.value(metadata i64 1, metadata !799, metadata !DIExpression()), !dbg !1642
  call void @llvm.dbg.value(metadata i64 %16, metadata !807, metadata !DIExpression()), !dbg !1642
  call void @llvm.dbg.declare(metadata ptr undef, metadata !808, metadata !DIExpression()), !dbg !1644
  call void @llvm.dbg.value(metadata i64 %_0.sroa.0.0.sroa.speculated.i61.i.i.i.i, metadata !1527, metadata !DIExpression()), !dbg !1641
  call void @llvm.dbg.value(metadata ptr @alloc_b7c1c22a954085a45dacf7c670d25258, metadata !819, metadata !DIExpression()), !dbg !1645
  call void @llvm.dbg.value(metadata i64 0, metadata !968, metadata !DIExpression()), !dbg !1648
  call void @llvm.dbg.value(metadata i64 0, metadata !978, metadata !DIExpression()), !dbg !1649
  call void @llvm.dbg.value(metadata i64 0, metadata !990, metadata !DIExpression()), !dbg !1651
  call void @llvm.dbg.value(metadata i32 0, metadata !969, metadata !DIExpression()), !dbg !1648
  call void @llvm.dbg.value(metadata i64 0, metadata !1529, metadata !DIExpression(DW_OP_LLVM_fragment, 0, 64)), !dbg !1653
  call void @llvm.dbg.value(metadata i32 0, metadata !1529, metadata !DIExpression(DW_OP_LLVM_fragment, 64, 32)), !dbg !1653
  call void @llvm.lifetime.start.p0(i64 400, ptr nonnull %_11.i.i.i.i), !dbg !1654, !noalias !1610
  call void @llvm.memset.p0.i64(ptr noundef nonnull align 8 dereferenceable(400) %_11.i.i.i.i, i8 0, i64 400, i1 false), !noalias !1610
  %_0.sroa.0.0.sroa.speculated.i61.i.i.i.i = call noundef i64 @llvm.umax.i64(i64 %16, i64 1), !dbg !1642
  %17 = getelementptr inbounds i8, ptr %loop_start.i.i.i.i, i64 8
  %18 = getelementptr inbounds i8, ptr %start1.i63.i.i.i.i, i64 8
  %19 = getelementptr inbounds i8, ptr %start1.i79.i.i.i.i, i64 8
  %20 = getelementptr inbounds i8, ptr %summ.i.i.i.i, i64 72
  %21 = getelementptr inbounds i8, ptr %summ.i.i.i.i, i64 32
  %22 = getelementptr inbounds i8, ptr %summ5.i.i.i.i, i64 32
  %23 = getelementptr inbounds i8, ptr %summ5.i.i.i.i, i64 64
  call void @__unsafe_record_block(i32 5, i32 31, i32 0, i16 0, i16 0, i16 0, i16 0, i16 0, i16 0), !dbg !1655
  br label %bb4.i.i.i.i, !dbg !1655

bb4.i.i.i.i:                                      ; preds = %bb45.i.i.i.i, %bb3.i.i.i
  %total_run.sroa.0.0.i.i.i.i = phi i64 [ %_0.sroa.0.1.i.ph.i.i.i.i, %bb45.i.i.i.i ], [ 0, %bb3.i.i.i ], !dbg !1641
  %total_run.sroa.6.0.i.i.i.i = phi i32 [ %_0.sroa.4.1.i.ph.i.i.i.i, %bb45.i.i.i.i ], [ 0, %bb3.i.i.i ], !dbg !1641
  %n.sroa.0.0.i.i.i.i = phi i64 [ %_61.i.i.i.i, %bb45.i.i.i.i ], [ %_0.sroa.0.0.sroa.speculated.i61.i.i.i.i, %bb3.i.i.i ], !dbg !1641
  call void @llvm.dbg.value(metadata i32 %total_run.sroa.6.0.i.i.i.i, metadata !1529, metadata !DIExpression(DW_OP_LLVM_fragment, 64, 32)), !dbg !1653
  call void @llvm.dbg.value(metadata i64 %total_run.sroa.0.0.i.i.i.i, metadata !1529, metadata !DIExpression(DW_OP_LLVM_fragment, 0, 64)), !dbg !1653
  call void @llvm.dbg.value(metadata i64 %n.sroa.0.0.i.i.i.i, metadata !1527, metadata !DIExpression()), !dbg !1641
  call void @llvm.lifetime.start.p0(i64 16, ptr nonnull %loop_start.i.i.i.i), !dbg !1656, !noalias !1610
; call std::time::Instant::now
  %24 = call { i64, i32 } @_ZN3std4time7Instant3now17hdd57daf13a49b9b5E(), !dbg !1657, !noalias !1610
  %25 = extractvalue { i64, i32 } %24, 0, !dbg !1657
  %26 = extractvalue { i64, i32 } %24, 1, !dbg !1657
  store i64 %25, ptr %loop_start.i.i.i.i, align 8, !dbg !1657, !noalias !1610
  store i32 %26, ptr %17, align 8, !dbg !1657, !noalias !1610
  call void @llvm.dbg.value(metadata ptr %_11.i.i.i.i, metadata !1535, metadata !DIExpression(DW_OP_LLVM_fragment, 0, 64)), !dbg !1658
  call void @llvm.dbg.value(metadata ptr %_11.i.i.i.i, metadata !1535, metadata !DIExpression(DW_OP_plus_uconst, 400, DW_OP_stack_value, DW_OP_LLVM_fragment, 64, 64)), !dbg !1658
  call void @llvm.dbg.value(metadata ptr undef, metadata !1012, metadata !DIExpression()), !dbg !1659
  call void @llvm.dbg.value(metadata ptr undef, metadata !1037, metadata !DIExpression()), !dbg !1661
  call void @llvm.dbg.value(metadata ptr %_11.i.i.i.i, metadata !1033, metadata !DIExpression(DW_OP_plus_uconst, 400, DW_OP_stack_value)), !dbg !1663
  call void @llvm.dbg.value(metadata ptr undef, metadata !1047, metadata !DIExpression()), !dbg !1664
  call void @llvm.dbg.value(metadata ptr undef, metadata !1056, metadata !DIExpression()), !dbg !1664
  %_131.not.i.i.i.i.i = icmp eq i64 %n.sroa.0.0.i.i.i.i, 0
  %_22.i.i.i.i = uitofp i64 %n.sroa.0.0.i.i.i.i to double
  call void @__unsafe_record_block(i32 5, i32 12, i32 0, i16 0, i16 0, i16 0, i16 0, i16 0, i16 0), !dbg !1666
  br i1 %_131.not.i.i.i.i.i, label %bb9.us.i.i.i.i, label %bb9.i.i.i.i, !dbg !1666

bb9.us.i.i.i.i:                                   ; preds = %bb4.i.i.i.i, %bb9.us.i.i.i.i
  %iter.sroa.0.0.ptr12.us.i.i.i.i = phi ptr [ %iter.sroa.0.0.ptr.us.i.i.i.i, %bb9.us.i.i.i.i ], [ %_11.i.i.i.i, %bb4.i.i.i.i ]
  %iter.sroa.0.0.idx11.us.i.i.i.i = phi i64 [ %iter.sroa.0.0.add.us.i.i.i.i, %bb9.us.i.i.i.i ], [ 0, %bb4.i.i.i.i ]
  call void @llvm.dbg.value(metadata ptr undef, metadata !1063, metadata !DIExpression()), !dbg !1670
  call void @llvm.dbg.value(metadata i64 1, metadata !1069, metadata !DIExpression()), !dbg !1670
  call void @llvm.dbg.value(metadata i64 1, metadata !1080, metadata !DIExpression()), !dbg !1672
  call void @llvm.dbg.value(metadata ptr %iter.sroa.0.0.ptr12.us.i.i.i.i, metadata !1070, metadata !DIExpression()), !dbg !1674
  call void @llvm.dbg.value(metadata ptr undef, metadata !1075, metadata !DIExpression(DW_OP_plus_uconst, 8, DW_OP_stack_value)), !dbg !1675
  call void @llvm.dbg.value(metadata ptr %iter.sroa.0.0.ptr12.us.i.i.i.i, metadata !1087, metadata !DIExpression()), !dbg !1672
  %iter.sroa.0.0.add.us.i.i.i.i = add nuw nsw i64 %iter.sroa.0.0.idx11.us.i.i.i.i, 8, !dbg !1676
  call void @llvm.dbg.value(metadata !DIArgList(ptr %_11.i.i.i.i, i64 %iter.sroa.0.0.add.us.i.i.i.i), metadata !1535, metadata !DIExpression(DW_OP_LLVM_arg, 0, DW_OP_LLVM_arg, 1, DW_OP_constu, 1, DW_OP_mul, DW_OP_plus, DW_OP_stack_value, DW_OP_LLVM_fragment, 0, 64)), !dbg !1658
  call void @llvm.dbg.value(metadata ptr %iter.sroa.0.0.ptr12.us.i.i.i.i, metadata !1537, metadata !DIExpression()), !dbg !1677
  call void @llvm.dbg.value(metadata ptr undef, metadata !1448, metadata !DIExpression()), !dbg !1678
  call void @llvm.dbg.value(metadata i64 %n.sroa.0.0.i.i.i.i, metadata !1451, metadata !DIExpression()), !dbg !1678
  call void @llvm.dbg.declare(metadata ptr %start1.i63.i.i.i.i, metadata !1452, metadata !DIExpression()), !dbg !1679
  call void @llvm.dbg.declare(metadata ptr undef, metadata !1459, metadata !DIExpression()), !dbg !1680
  call void @llvm.dbg.declare(metadata ptr undef, metadata !1465, metadata !DIExpression()), !dbg !1682
  call void @llvm.lifetime.start.p0(i64 16, ptr nonnull %start1.i63.i.i.i.i), !dbg !1684, !noalias !1610
; call std::time::Instant::now
  %27 = call { i64, i32 } @_ZN3std4time7Instant3now17hdd57daf13a49b9b5E(), !dbg !1685, !noalias !1610
  %28 = extractvalue { i64, i32 } %27, 0, !dbg !1685
  %29 = extractvalue { i64, i32 } %27, 1, !dbg !1685
  store i64 %28, ptr %start1.i63.i.i.i.i, align 8, !dbg !1685, !noalias !1610
  store i32 %29, ptr %18, align 8, !dbg !1685, !noalias !1610
  call void @llvm.dbg.value(metadata i64 0, metadata !1454, metadata !DIExpression(DW_OP_LLVM_fragment, 0, 64)), !dbg !1686
  call void @llvm.dbg.value(metadata i64 %n.sroa.0.0.i.i.i.i, metadata !1454, metadata !DIExpression(DW_OP_LLVM_fragment, 64, 64)), !dbg !1686
  call void @llvm.dbg.value(metadata ptr undef, metadata !1475, metadata !DIExpression()), !dbg !1687
  call void @llvm.dbg.value(metadata ptr undef, metadata !1481, metadata !DIExpression()), !dbg !1688
  call void @llvm.dbg.value(metadata ptr undef, metadata !1489, metadata !DIExpression()), !dbg !1689
  call void @llvm.dbg.value(metadata ptr poison, metadata !1493, metadata !DIExpression()), !dbg !1689
; call std::time::Instant::elapsed
  %30 = call { i64, i32 } @_ZN3std4time7Instant7elapsed17hee9bf90f3e35a175E(ptr noalias noundef nonnull readonly align 8 dereferenceable(16) %start1.i63.i.i.i.i), !dbg !1691, !noalias !1610
  %31 = extractvalue { i64, i32 } %30, 0, !dbg !1691
  %32 = extractvalue { i64, i32 } %30, 1, !dbg !1691
  call void @llvm.dbg.value(metadata ptr undef, metadata !1510, metadata !DIExpression()), !dbg !1692
  %_20.i68.us.i.i.i.i = mul i64 %31, 1000000000, !dbg !1694
  %_23.i69.us.i.i.i.i = zext i32 %32 to i64, !dbg !1695
  %_9.i70.us.i.i.i.i = add i64 %_20.i68.us.i.i.i.i, %_23.i69.us.i.i.i.i, !dbg !1694
  call void @llvm.lifetime.end.p0(i64 16, ptr nonnull %start1.i63.i.i.i.i), !dbg !1696, !noalias !1610
  %_19.us.i.i.i.i = uitofp i64 %_9.i70.us.i.i.i.i to double, !dbg !1697
  %33 = fdiv double %_19.us.i.i.i.i, %_22.i.i.i.i, !dbg !1698
  store double %33, ptr %iter.sroa.0.0.ptr12.us.i.i.i.i, align 8, !dbg !1698, !noalias !1610
  %iter.sroa.0.0.ptr.us.i.i.i.i = getelementptr inbounds i8, ptr %_11.i.i.i.i, i64 %iter.sroa.0.0.add.us.i.i.i.i, !dbg !1699
  call void @llvm.dbg.value(metadata ptr %iter.sroa.0.0.ptr.us.i.i.i.i, metadata !1535, metadata !DIExpression(DW_OP_LLVM_fragment, 0, 64)), !dbg !1658
  call void @llvm.dbg.value(metadata ptr undef, metadata !1012, metadata !DIExpression()), !dbg !1659
  call void @llvm.dbg.value(metadata ptr undef, metadata !1037, metadata !DIExpression()), !dbg !1661
  call void @llvm.dbg.value(metadata ptr %_11.i.i.i.i, metadata !1033, metadata !DIExpression(DW_OP_plus_uconst, 400, DW_OP_stack_value)), !dbg !1663
  call void @llvm.dbg.value(metadata ptr undef, metadata !1047, metadata !DIExpression()), !dbg !1664
  call void @llvm.dbg.value(metadata ptr undef, metadata !1056, metadata !DIExpression()), !dbg !1664
  %34 = icmp eq i64 %iter.sroa.0.0.add.us.i.i.i.i, 400, !dbg !1699
  call void @__unsafe_record_block(i32 5, i32 22, i32 0, i16 0, i16 0, i16 0, i16 0, i16 0, i16 0), !dbg !1700
  br i1 %34, label %bb10.i.i.i.i, label %bb9.us.i.i.i.i, !dbg !1700

bb10.i.i.i.i:                                     ; preds = %_ZN4test5bench13ns_iter_inner17h829b8b4b4ffa0918E.exit71.loopexit.i.i.i.i, %bb9.us.i.i.i.i
  call void @llvm.dbg.value(metadata ptr poison, metadata !1535, metadata !DIExpression(DW_OP_LLVM_fragment, 0, 64)), !dbg !1658
; call test::stats::winsorize
  call void @_ZN4test5stats9winsorize17hcba48655fae00e38E(ptr noalias noundef nonnull align 8 %_11.i.i.i.i, i64 noundef 50, double noundef 5.000000e+00), !dbg !1701, !noalias !1610
  call void @llvm.lifetime.start.p0(i64 112, ptr nonnull %summ.i.i.i.i), !dbg !1702, !noalias !1610
; call test::stats::Summary::new
  call void @_ZN4test5stats7Summary3new17he2db34ca48eb410fE(ptr noalias nocapture noundef nonnull sret([112 x i8]) align 8 dereferenceable(112) %summ.i.i.i.i, ptr noalias noundef nonnull readonly align 8 %_11.i.i.i.i, i64 noundef 50), !dbg !1703, !noalias !1610
  call void @llvm.dbg.value(metadata ptr %_11.i.i.i.i, metadata !1541, metadata !DIExpression(DW_OP_LLVM_fragment, 0, 64)), !dbg !1704
  call void @llvm.dbg.value(metadata ptr %_11.i.i.i.i, metadata !1541, metadata !DIExpression(DW_OP_plus_uconst, 400, DW_OP_stack_value, DW_OP_LLVM_fragment, 64, 64)), !dbg !1704
  %_34.i.i.i.i = mul i64 %n.sroa.0.0.i.i.i.i, 5
  call void @llvm.dbg.value(metadata ptr %_11.i.i.i.i, metadata !1541, metadata !DIExpression(DW_OP_LLVM_fragment, 0, 64)), !dbg !1704
  call void @llvm.dbg.value(metadata ptr undef, metadata !1012, metadata !DIExpression()), !dbg !1705
  call void @llvm.dbg.value(metadata ptr undef, metadata !1037, metadata !DIExpression()), !dbg !1707
  call void @llvm.dbg.value(metadata ptr %_11.i.i.i.i, metadata !1033, metadata !DIExpression(DW_OP_plus_uconst, 400, DW_OP_stack_value)), !dbg !1709
  call void @llvm.dbg.value(metadata ptr undef, metadata !1047, metadata !DIExpression()), !dbg !1710
  call void @llvm.dbg.value(metadata ptr undef, metadata !1056, metadata !DIExpression()), !dbg !1710
  %_37.i.i.i.i = uitofp i64 %_34.i.i.i.i to double
  call void @__unsafe_record_block(i32 5, i32 6, i32 0, i16 0, i16 0, i16 0, i16 0, i16 0, i16 0), !dbg !1712
  br i1 %_131.not.i.i.i.i.i, label %bb16.us.i.i.i.i, label %bb16.i.i.i.i, !dbg !1712

bb16.us.i.i.i.i:                                  ; preds = %bb10.i.i.i.i, %bb16.us.i.i.i.i
  %iter5.sroa.0.0.ptr14.us.i.i.i.i = phi ptr [ %iter5.sroa.0.0.ptr.us.i.i.i.i, %bb16.us.i.i.i.i ], [ %_11.i.i.i.i, %bb10.i.i.i.i ]
  %iter5.sroa.0.0.idx13.us.i.i.i.i = phi i64 [ %iter5.sroa.0.0.add.us.i.i.i.i, %bb16.us.i.i.i.i ], [ 0, %bb10.i.i.i.i ]
  call void @llvm.dbg.value(metadata ptr undef, metadata !1063, metadata !DIExpression()), !dbg !1716
  call void @llvm.dbg.value(metadata i64 1, metadata !1069, metadata !DIExpression()), !dbg !1716
  call void @llvm.dbg.value(metadata i64 1, metadata !1080, metadata !DIExpression()), !dbg !1718
  call void @llvm.dbg.value(metadata ptr %iter5.sroa.0.0.ptr14.us.i.i.i.i, metadata !1070, metadata !DIExpression()), !dbg !1720
  call void @llvm.dbg.value(metadata ptr undef, metadata !1075, metadata !DIExpression(DW_OP_plus_uconst, 8, DW_OP_stack_value)), !dbg !1721
  call void @llvm.dbg.value(metadata ptr %iter5.sroa.0.0.ptr14.us.i.i.i.i, metadata !1087, metadata !DIExpression()), !dbg !1718
  %iter5.sroa.0.0.add.us.i.i.i.i = add nuw nsw i64 %iter5.sroa.0.0.idx13.us.i.i.i.i, 8, !dbg !1722
  call void @llvm.dbg.value(metadata !DIArgList(ptr %_11.i.i.i.i, i64 %iter5.sroa.0.0.add.us.i.i.i.i), metadata !1541, metadata !DIExpression(DW_OP_LLVM_arg, 0, DW_OP_LLVM_arg, 1, DW_OP_constu, 1, DW_OP_mul, DW_OP_plus, DW_OP_stack_value, DW_OP_LLVM_fragment, 0, 64)), !dbg !1704
  call void @llvm.dbg.value(metadata ptr %iter5.sroa.0.0.ptr14.us.i.i.i.i, metadata !1543, metadata !DIExpression()), !dbg !1723
  call void @llvm.dbg.value(metadata ptr undef, metadata !1448, metadata !DIExpression()), !dbg !1724
  call void @llvm.dbg.value(metadata i64 %_34.i.i.i.i, metadata !1451, metadata !DIExpression()), !dbg !1724
  call void @llvm.dbg.declare(metadata ptr %start1.i79.i.i.i.i, metadata !1452, metadata !DIExpression()), !dbg !1725
  call void @llvm.dbg.declare(metadata ptr undef, metadata !1459, metadata !DIExpression()), !dbg !1726
  call void @llvm.dbg.declare(metadata ptr undef, metadata !1465, metadata !DIExpression()), !dbg !1728
  call void @llvm.lifetime.start.p0(i64 16, ptr nonnull %start1.i79.i.i.i.i), !dbg !1730, !noalias !1610
; call std::time::Instant::now
  %35 = call { i64, i32 } @_ZN3std4time7Instant3now17hdd57daf13a49b9b5E(), !dbg !1731, !noalias !1610
  %36 = extractvalue { i64, i32 } %35, 0, !dbg !1731
  %37 = extractvalue { i64, i32 } %35, 1, !dbg !1731
  store i64 %36, ptr %start1.i79.i.i.i.i, align 8, !dbg !1731, !noalias !1610
  store i32 %37, ptr %19, align 8, !dbg !1731, !noalias !1610
  call void @llvm.dbg.value(metadata i64 0, metadata !1454, metadata !DIExpression(DW_OP_LLVM_fragment, 0, 64)), !dbg !1732
  call void @llvm.dbg.value(metadata i64 %_34.i.i.i.i, metadata !1454, metadata !DIExpression(DW_OP_LLVM_fragment, 64, 64)), !dbg !1732
  call void @llvm.dbg.value(metadata ptr undef, metadata !1475, metadata !DIExpression()), !dbg !1733
  call void @llvm.dbg.value(metadata ptr undef, metadata !1481, metadata !DIExpression()), !dbg !1734
  call void @llvm.dbg.value(metadata ptr undef, metadata !1489, metadata !DIExpression()), !dbg !1735
  call void @llvm.dbg.value(metadata ptr poison, metadata !1493, metadata !DIExpression()), !dbg !1735
; call std::time::Instant::elapsed
  %38 = call { i64, i32 } @_ZN3std4time7Instant7elapsed17hee9bf90f3e35a175E(ptr noalias noundef nonnull readonly align 8 dereferenceable(16) %start1.i79.i.i.i.i), !dbg !1737, !noalias !1610
  %39 = extractvalue { i64, i32 } %38, 0, !dbg !1737
  %40 = extractvalue { i64, i32 } %38, 1, !dbg !1737
  call void @llvm.dbg.value(metadata ptr undef, metadata !1510, metadata !DIExpression()), !dbg !1738
  %_20.i85.us.i.i.i.i = mul i64 %39, 1000000000, !dbg !1740
  %_23.i86.us.i.i.i.i = zext i32 %40 to i64, !dbg !1741
  %_9.i87.us.i.i.i.i = add i64 %_20.i85.us.i.i.i.i, %_23.i86.us.i.i.i.i, !dbg !1740
  call void @llvm.lifetime.end.p0(i64 16, ptr nonnull %start1.i79.i.i.i.i), !dbg !1742, !noalias !1610
  call void @llvm.dbg.value(metadata i64 %_9.i87.us.i.i.i.i, metadata !1545, metadata !DIExpression()), !dbg !1743
  %_36.us.i.i.i.i = uitofp i64 %_9.i87.us.i.i.i.i to double, !dbg !1744
  %41 = fdiv double %_36.us.i.i.i.i, %_37.i.i.i.i, !dbg !1745
  store double %41, ptr %iter5.sroa.0.0.ptr14.us.i.i.i.i, align 8, !dbg !1745, !noalias !1610
  %iter5.sroa.0.0.ptr.us.i.i.i.i = getelementptr inbounds i8, ptr %_11.i.i.i.i, i64 %iter5.sroa.0.0.add.us.i.i.i.i, !dbg !1746
  call void @llvm.dbg.value(metadata ptr %iter5.sroa.0.0.ptr.us.i.i.i.i, metadata !1541, metadata !DIExpression(DW_OP_LLVM_fragment, 0, 64)), !dbg !1704
  call void @llvm.dbg.value(metadata ptr undef, metadata !1012, metadata !DIExpression()), !dbg !1705
  call void @llvm.dbg.value(metadata ptr undef, metadata !1037, metadata !DIExpression()), !dbg !1707
  call void @llvm.dbg.value(metadata ptr %_11.i.i.i.i, metadata !1033, metadata !DIExpression(DW_OP_plus_uconst, 400, DW_OP_stack_value)), !dbg !1709
  call void @llvm.dbg.value(metadata ptr undef, metadata !1047, metadata !DIExpression()), !dbg !1710
  call void @llvm.dbg.value(metadata ptr undef, metadata !1056, metadata !DIExpression()), !dbg !1710
  %42 = icmp eq i64 %iter5.sroa.0.0.add.us.i.i.i.i, 400, !dbg !1746
  call void @__unsafe_record_block(i32 5, i32 22, i32 0, i16 0, i16 0, i16 0, i16 0, i16 0, i16 0), !dbg !1747
  br i1 %42, label %bb17.i.i.i.i, label %bb16.us.i.i.i.i, !dbg !1747

bb9.i.i.i.i:                                      ; preds = %bb4.i.i.i.i, %_ZN4test5bench13ns_iter_inner17h829b8b4b4ffa0918E.exit71.loopexit.i.i.i.i
  %iter.sroa.0.0.ptr12.i.i.i.i = phi ptr [ %iter.sroa.0.0.ptr.i.i.i.i, %_ZN4test5bench13ns_iter_inner17h829b8b4b4ffa0918E.exit71.loopexit.i.i.i.i ], [ %_11.i.i.i.i, %bb4.i.i.i.i ]
  %iter.sroa.0.0.idx11.i.i.i.i = phi i64 [ %iter.sroa.0.0.add.i.i.i.i, %_ZN4test5bench13ns_iter_inner17h829b8b4b4ffa0918E.exit71.loopexit.i.i.i.i ], [ 0, %bb4.i.i.i.i ]
  call void @llvm.dbg.value(metadata ptr undef, metadata !1063, metadata !DIExpression()), !dbg !1670
  call void @llvm.dbg.value(metadata i64 1, metadata !1069, metadata !DIExpression()), !dbg !1670
  call void @llvm.dbg.value(metadata i64 1, metadata !1080, metadata !DIExpression()), !dbg !1672
  call void @llvm.dbg.value(metadata ptr %iter.sroa.0.0.ptr12.i.i.i.i, metadata !1070, metadata !DIExpression()), !dbg !1674
  call void @llvm.dbg.value(metadata ptr undef, metadata !1075, metadata !DIExpression(DW_OP_plus_uconst, 8, DW_OP_stack_value)), !dbg !1675
  call void @llvm.dbg.value(metadata ptr %iter.sroa.0.0.ptr12.i.i.i.i, metadata !1087, metadata !DIExpression()), !dbg !1672
  call void @llvm.dbg.value(metadata !DIArgList(ptr %_11.i.i.i.i, i64 %iter.sroa.0.0.add.i.i.i.i), metadata !1535, metadata !DIExpression(DW_OP_LLVM_arg, 0, DW_OP_LLVM_arg, 1, DW_OP_constu, 1, DW_OP_mul, DW_OP_plus, DW_OP_stack_value, DW_OP_LLVM_fragment, 0, 64)), !dbg !1658
  call void @llvm.dbg.value(metadata ptr %iter.sroa.0.0.ptr12.i.i.i.i, metadata !1537, metadata !DIExpression()), !dbg !1677
  call void @llvm.dbg.value(metadata ptr undef, metadata !1448, metadata !DIExpression()), !dbg !1678
  call void @llvm.dbg.value(metadata i64 %n.sroa.0.0.i.i.i.i, metadata !1451, metadata !DIExpression()), !dbg !1678
  call void @llvm.dbg.declare(metadata ptr %start1.i63.i.i.i.i, metadata !1452, metadata !DIExpression()), !dbg !1679
  call void @llvm.dbg.declare(metadata ptr undef, metadata !1459, metadata !DIExpression()), !dbg !1680
  call void @llvm.dbg.declare(metadata ptr undef, metadata !1465, metadata !DIExpression()), !dbg !1682
  call void @llvm.lifetime.start.p0(i64 16, ptr nonnull %start1.i63.i.i.i.i), !dbg !1684, !noalias !1610
; call std::time::Instant::now
  %43 = call { i64, i32 } @_ZN3std4time7Instant3now17hdd57daf13a49b9b5E(), !dbg !1685, !noalias !1610
  %44 = extractvalue { i64, i32 } %43, 0, !dbg !1685
  %45 = extractvalue { i64, i32 } %43, 1, !dbg !1685
  store i64 %44, ptr %start1.i63.i.i.i.i, align 8, !dbg !1685, !noalias !1610
  store i32 %45, ptr %18, align 8, !dbg !1685, !noalias !1610
  call void @llvm.dbg.value(metadata i64 0, metadata !1454, metadata !DIExpression(DW_OP_LLVM_fragment, 0, 64)), !dbg !1686
  call void @llvm.dbg.value(metadata i64 %n.sroa.0.0.i.i.i.i, metadata !1454, metadata !DIExpression(DW_OP_LLVM_fragment, 64, 64)), !dbg !1686
  call void @llvm.dbg.value(metadata ptr undef, metadata !1475, metadata !DIExpression()), !dbg !1687
  call void @llvm.dbg.value(metadata ptr undef, metadata !1481, metadata !DIExpression()), !dbg !1688
  call void @llvm.dbg.value(metadata ptr undef, metadata !1489, metadata !DIExpression()), !dbg !1689
  call void @llvm.dbg.value(metadata ptr poison, metadata !1493, metadata !DIExpression()), !dbg !1689
  call void @__unsafe_record_block(i32 5, i32 9, i32 0, i16 0, i16 0, i16 0, i16 0, i16 0, i16 0), !dbg !1666
  br label %bb6.i64.i.i.i.i, !dbg !1666

bb6.i64.i.i.i.i:                                  ; preds = %bb6.i64.i.i.i.i, %bb9.i.i.i.i
  %iter.sroa.0.02.i65.i.i.i.i = phi i64 [ %_0.i.i66.i.i.i.i, %bb6.i64.i.i.i.i ], [ 0, %bb9.i.i.i.i ]
  call void @llvm.dbg.value(metadata i64 %iter.sroa.0.02.i65.i.i.i.i, metadata !1454, metadata !DIExpression(DW_OP_LLVM_fragment, 0, 64)), !dbg !1686
  call void @llvm.dbg.value(metadata i64 %iter.sroa.0.02.i65.i.i.i.i, metadata !1485, metadata !DIExpression()), !dbg !1748
  call void @llvm.dbg.value(metadata i64 %iter.sroa.0.02.i65.i.i.i.i, metadata !559, metadata !DIExpression()), !dbg !1749
  call void @llvm.dbg.value(metadata i64 %iter.sroa.0.02.i65.i.i.i.i, metadata !568, metadata !DIExpression()), !dbg !1751
  call void @llvm.dbg.value(metadata i64 1, metadata !565, metadata !DIExpression()), !dbg !1749
  call void @llvm.dbg.value(metadata i64 1, metadata !576, metadata !DIExpression()), !dbg !1751
  %_0.i.i66.i.i.i.i = add nuw i64 %iter.sroa.0.02.i65.i.i.i.i, 1, !dbg !1753
  call void @llvm.dbg.value(metadata i64 %_0.i.i66.i.i.i.i, metadata !1454, metadata !DIExpression(DW_OP_LLVM_fragment, 0, 64)), !dbg !1686
  call void @llvm.dbg.value(metadata ptr undef, metadata !1501, metadata !DIExpression()), !dbg !1754
  call void @llvm.dbg.declare(metadata ptr undef, metadata !1504, metadata !DIExpression()), !dbg !1756
; call buffer::p256::bench_fill::inner
  call fastcc void @_ZN6buffer4p25610bench_fill5inner17h9bd9a2ba1f31e032E(), !dbg !1756, !noalias !1610
  call void asm sideeffect "", "~{memory}"() #13, !dbg !1757, !noalias !1610, !srcloc !213
  call void @llvm.dbg.value(metadata ptr undef, metadata !1475, metadata !DIExpression()), !dbg !1687
  call void @llvm.dbg.value(metadata ptr undef, metadata !1481, metadata !DIExpression()), !dbg !1688
  call void @llvm.dbg.value(metadata ptr undef, metadata !1489, metadata !DIExpression()), !dbg !1689
  call void @llvm.dbg.value(metadata ptr poison, metadata !1493, metadata !DIExpression()), !dbg !1689
  %exitcond.not.i67.i.i.i.i = icmp eq i64 %_0.i.i66.i.i.i.i, %n.sroa.0.0.i.i.i.i, !dbg !1758
  call void @__unsafe_record_block(i32 5, i32 6, i32 0, i16 0, i16 0, i16 0, i16 0, i16 0, i16 0), !dbg !1666
  br i1 %exitcond.not.i67.i.i.i.i, label %_ZN4test5bench13ns_iter_inner17h829b8b4b4ffa0918E.exit71.loopexit.i.i.i.i, label %bb6.i64.i.i.i.i, !dbg !1666

_ZN4test5bench13ns_iter_inner17h829b8b4b4ffa0918E.exit71.loopexit.i.i.i.i: ; preds = %bb6.i64.i.i.i.i
  %iter.sroa.0.0.add.i.i.i.i = add nuw nsw i64 %iter.sroa.0.0.idx11.i.i.i.i, 8, !dbg !1676
; call std::time::Instant::elapsed
  %46 = call { i64, i32 } @_ZN3std4time7Instant7elapsed17hee9bf90f3e35a175E(ptr noalias noundef nonnull readonly align 8 dereferenceable(16) %start1.i63.i.i.i.i), !dbg !1691, !noalias !1610
  %47 = extractvalue { i64, i32 } %46, 0, !dbg !1691
  %48 = extractvalue { i64, i32 } %46, 1, !dbg !1691
  call void @llvm.dbg.value(metadata ptr undef, metadata !1510, metadata !DIExpression()), !dbg !1692
  %_20.i68.i.i.i.i = mul i64 %47, 1000000000, !dbg !1694
  %_23.i69.i.i.i.i = zext i32 %48 to i64, !dbg !1695
  %_9.i70.i.i.i.i = add i64 %_20.i68.i.i.i.i, %_23.i69.i.i.i.i, !dbg !1694
  call void @llvm.lifetime.end.p0(i64 16, ptr nonnull %start1.i63.i.i.i.i), !dbg !1696, !noalias !1610
  %_19.i.i.i.i = uitofp i64 %_9.i70.i.i.i.i to double, !dbg !1697
  %49 = fdiv double %_19.i.i.i.i, %_22.i.i.i.i, !dbg !1698
  store double %49, ptr %iter.sroa.0.0.ptr12.i.i.i.i, align 8, !dbg !1698, !noalias !1610
  %iter.sroa.0.0.ptr.i.i.i.i = getelementptr inbounds i8, ptr %_11.i.i.i.i, i64 %iter.sroa.0.0.add.i.i.i.i, !dbg !1699
  call void @llvm.dbg.value(metadata ptr %iter.sroa.0.0.ptr.i.i.i.i, metadata !1535, metadata !DIExpression(DW_OP_LLVM_fragment, 0, 64)), !dbg !1658
  call void @llvm.dbg.value(metadata ptr undef, metadata !1012, metadata !DIExpression()), !dbg !1659
  call void @llvm.dbg.value(metadata ptr undef, metadata !1037, metadata !DIExpression()), !dbg !1661
  call void @llvm.dbg.value(metadata ptr %_11.i.i.i.i, metadata !1033, metadata !DIExpression(DW_OP_plus_uconst, 400, DW_OP_stack_value)), !dbg !1663
  call void @llvm.dbg.value(metadata ptr undef, metadata !1047, metadata !DIExpression()), !dbg !1664
  call void @llvm.dbg.value(metadata ptr undef, metadata !1056, metadata !DIExpression()), !dbg !1664
  %50 = icmp eq i64 %iter.sroa.0.0.add.i.i.i.i, 400, !dbg !1699
  call void @__unsafe_record_block(i32 5, i32 14, i32 0, i16 0, i16 0, i16 0, i16 0, i16 0, i16 0), !dbg !1700
  br i1 %50, label %bb10.i.i.i.i, label %bb9.i.i.i.i, !dbg !1700

bb17.i.i.i.i:                                     ; preds = %_ZN4test5bench13ns_iter_inner17h829b8b4b4ffa0918E.exit88.loopexit.i.i.i.i, %bb16.us.i.i.i.i
  call void @llvm.dbg.value(metadata ptr poison, metadata !1541, metadata !DIExpression(DW_OP_LLVM_fragment, 0, 64)), !dbg !1704
; call test::stats::winsorize
  call void @_ZN4test5stats9winsorize17hcba48655fae00e38E(ptr noalias noundef nonnull align 8 %_11.i.i.i.i, i64 noundef 50, double noundef 5.000000e+00), !dbg !1759, !noalias !1610
; call test::stats::Summary::new
  call void @_ZN4test5stats7Summary3new17he2db34ca48eb410fE(ptr noalias nocapture noundef nonnull sret([112 x i8]) align 8 dereferenceable(112) %summ5.i.i.i.i, ptr noalias noundef nonnull readonly align 8 %_11.i.i.i.i, i64 noundef 50), !dbg !1760, !noalias !1610
; call std::time::Instant::elapsed
  %51 = call { i64, i32 } @_ZN3std4time7Instant7elapsed17hee9bf90f3e35a175E(ptr noalias noundef nonnull readonly align 8 dereferenceable(16) %loop_start.i.i.i.i), !dbg !1761, !noalias !1610
  %52 = extractvalue { i64, i32 } %51, 0, !dbg !1761
  %53 = extractvalue { i64, i32 } %51, 1, !dbg !1761
  call void @llvm.dbg.value(metadata i64 %52, metadata !1549, metadata !DIExpression(DW_OP_LLVM_fragment, 0, 64)), !dbg !1762
  call void @llvm.dbg.value(metadata i64 %52, metadata !1571, metadata !DIExpression(DW_OP_LLVM_fragment, 0, 64)), !dbg !1763
  call void @llvm.dbg.value(metadata i64 %52, metadata !1565, metadata !DIExpression(DW_OP_LLVM_fragment, 0, 64)), !dbg !1764
  call void @llvm.dbg.value(metadata i32 %53, metadata !1549, metadata !DIExpression(DW_OP_LLVM_fragment, 64, 32)), !dbg !1762
  call void @llvm.dbg.value(metadata i32 %53, metadata !1571, metadata !DIExpression(DW_OP_LLVM_fragment, 64, 32)), !dbg !1763
  call void @llvm.dbg.value(metadata i32 %53, metadata !1565, metadata !DIExpression(DW_OP_LLVM_fragment, 64, 32)), !dbg !1764
  call void @llvm.dbg.value(metadata ptr undef, metadata !1765, metadata !DIExpression()), !dbg !1773
  call void @llvm.dbg.value(metadata ptr undef, metadata !1775, metadata !DIExpression()), !dbg !1787
  call void @llvm.dbg.value(metadata ptr undef, metadata !1769, metadata !DIExpression()), !dbg !1773
  call void @llvm.dbg.value(metadata ptr undef, metadata !1779, metadata !DIExpression()), !dbg !1787
  call void @llvm.dbg.value(metadata ptr undef, metadata !1789, metadata !DIExpression()), !dbg !1797
  call void @llvm.dbg.value(metadata ptr undef, metadata !1793, metadata !DIExpression()), !dbg !1797
  %.not.not.i.i.i.i = icmp ne i64 %52, 0, !dbg !1799
  %_459.i.i.i.i = icmp ugt i32 %53, 100000000, !dbg !1800
  %_45.i.i.i.i = select i1 %.not.not.i.i.i.i, i1 true, i1 %_459.i.i.i.i, !dbg !1800
  %_50.i.i.i.i = load double, ptr %20, align 8, !noalias !1610
  %_49.i.i.i.i = fcmp olt double %_50.i.i.i.i, 1.000000e+00
  %or.cond.i.i.i.i = select i1 %_45.i.i.i.i, i1 %_49.i.i.i.i, i1 false, !dbg !1802
  call void @__unsafe_record_block(i32 5, i32 12, i32 0, i16 0, i16 0, i16 0, i16 0, i16 0, i16 0), !dbg !1802
  br i1 %or.cond.i.i.i.i, label %bb23.i.i.i.i, label %bb28.i.i.i.i, !dbg !1802

bb16.i.i.i.i:                                     ; preds = %bb10.i.i.i.i, %_ZN4test5bench13ns_iter_inner17h829b8b4b4ffa0918E.exit88.loopexit.i.i.i.i
  %iter5.sroa.0.0.ptr14.i.i.i.i = phi ptr [ %iter5.sroa.0.0.ptr.i.i.i.i, %_ZN4test5bench13ns_iter_inner17h829b8b4b4ffa0918E.exit88.loopexit.i.i.i.i ], [ %_11.i.i.i.i, %bb10.i.i.i.i ]
  %iter5.sroa.0.0.idx13.i.i.i.i = phi i64 [ %iter5.sroa.0.0.add.i.i.i.i, %_ZN4test5bench13ns_iter_inner17h829b8b4b4ffa0918E.exit88.loopexit.i.i.i.i ], [ 0, %bb10.i.i.i.i ]
  call void @llvm.dbg.value(metadata ptr undef, metadata !1063, metadata !DIExpression()), !dbg !1716
  call void @llvm.dbg.value(metadata i64 1, metadata !1069, metadata !DIExpression()), !dbg !1716
  call void @llvm.dbg.value(metadata i64 1, metadata !1080, metadata !DIExpression()), !dbg !1718
  call void @llvm.dbg.value(metadata ptr %iter5.sroa.0.0.ptr14.i.i.i.i, metadata !1070, metadata !DIExpression()), !dbg !1720
  call void @llvm.dbg.value(metadata ptr undef, metadata !1075, metadata !DIExpression(DW_OP_plus_uconst, 8, DW_OP_stack_value)), !dbg !1721
  call void @llvm.dbg.value(metadata ptr %iter5.sroa.0.0.ptr14.i.i.i.i, metadata !1087, metadata !DIExpression()), !dbg !1718
  call void @llvm.dbg.value(metadata !DIArgList(ptr %_11.i.i.i.i, i64 %iter5.sroa.0.0.add.i.i.i.i), metadata !1541, metadata !DIExpression(DW_OP_LLVM_arg, 0, DW_OP_LLVM_arg, 1, DW_OP_constu, 1, DW_OP_mul, DW_OP_plus, DW_OP_stack_value, DW_OP_LLVM_fragment, 0, 64)), !dbg !1704
  call void @llvm.dbg.value(metadata ptr %iter5.sroa.0.0.ptr14.i.i.i.i, metadata !1543, metadata !DIExpression()), !dbg !1723
  call void @llvm.dbg.value(metadata ptr undef, metadata !1448, metadata !DIExpression()), !dbg !1724
  call void @llvm.dbg.value(metadata i64 %_34.i.i.i.i, metadata !1451, metadata !DIExpression()), !dbg !1724
  call void @llvm.dbg.declare(metadata ptr %start1.i79.i.i.i.i, metadata !1452, metadata !DIExpression()), !dbg !1725
  call void @llvm.dbg.declare(metadata ptr undef, metadata !1459, metadata !DIExpression()), !dbg !1726
  call void @llvm.dbg.declare(metadata ptr undef, metadata !1465, metadata !DIExpression()), !dbg !1728
  call void @llvm.lifetime.start.p0(i64 16, ptr nonnull %start1.i79.i.i.i.i), !dbg !1730, !noalias !1610
; call std::time::Instant::now
  %54 = call { i64, i32 } @_ZN3std4time7Instant3now17hdd57daf13a49b9b5E(), !dbg !1731, !noalias !1610
  %55 = extractvalue { i64, i32 } %54, 0, !dbg !1731
  %56 = extractvalue { i64, i32 } %54, 1, !dbg !1731
  store i64 %55, ptr %start1.i79.i.i.i.i, align 8, !dbg !1731, !noalias !1610
  store i32 %56, ptr %19, align 8, !dbg !1731, !noalias !1610
  call void @llvm.dbg.value(metadata i64 0, metadata !1454, metadata !DIExpression(DW_OP_LLVM_fragment, 0, 64)), !dbg !1732
  call void @llvm.dbg.value(metadata i64 %_34.i.i.i.i, metadata !1454, metadata !DIExpression(DW_OP_LLVM_fragment, 64, 64)), !dbg !1732
  call void @llvm.dbg.value(metadata ptr undef, metadata !1475, metadata !DIExpression()), !dbg !1733
  call void @llvm.dbg.value(metadata ptr undef, metadata !1481, metadata !DIExpression()), !dbg !1734
  call void @llvm.dbg.value(metadata ptr undef, metadata !1489, metadata !DIExpression()), !dbg !1735
  call void @llvm.dbg.value(metadata ptr poison, metadata !1493, metadata !DIExpression()), !dbg !1735
  call void @__unsafe_record_block(i32 5, i32 9, i32 0, i16 0, i16 0, i16 0, i16 0, i16 0, i16 0), !dbg !1712
  br label %bb6.i81.i.i.i.i, !dbg !1712

bb6.i81.i.i.i.i:                                  ; preds = %bb6.i81.i.i.i.i, %bb16.i.i.i.i
  %iter.sroa.0.02.i82.i.i.i.i = phi i64 [ %_0.i.i83.i.i.i.i, %bb6.i81.i.i.i.i ], [ 0, %bb16.i.i.i.i ]
  call void @llvm.dbg.value(metadata i64 %iter.sroa.0.02.i82.i.i.i.i, metadata !1454, metadata !DIExpression(DW_OP_LLVM_fragment, 0, 64)), !dbg !1732
  call void @llvm.dbg.value(metadata i64 %iter.sroa.0.02.i82.i.i.i.i, metadata !1485, metadata !DIExpression()), !dbg !1803
  call void @llvm.dbg.value(metadata i64 %iter.sroa.0.02.i82.i.i.i.i, metadata !559, metadata !DIExpression()), !dbg !1804
  call void @llvm.dbg.value(metadata i64 %iter.sroa.0.02.i82.i.i.i.i, metadata !568, metadata !DIExpression()), !dbg !1806
  call void @llvm.dbg.value(metadata i64 1, metadata !565, metadata !DIExpression()), !dbg !1804
  call void @llvm.dbg.value(metadata i64 1, metadata !576, metadata !DIExpression()), !dbg !1806
  %_0.i.i83.i.i.i.i = add nuw i64 %iter.sroa.0.02.i82.i.i.i.i, 1, !dbg !1808
  call void @llvm.dbg.value(metadata i64 %_0.i.i83.i.i.i.i, metadata !1454, metadata !DIExpression(DW_OP_LLVM_fragment, 0, 64)), !dbg !1732
  call void @llvm.dbg.value(metadata ptr undef, metadata !1501, metadata !DIExpression()), !dbg !1809
  call void @llvm.dbg.declare(metadata ptr undef, metadata !1504, metadata !DIExpression()), !dbg !1811
; call buffer::p256::bench_fill::inner
  call fastcc void @_ZN6buffer4p25610bench_fill5inner17h9bd9a2ba1f31e032E(), !dbg !1811, !noalias !1610
  call void asm sideeffect "", "~{memory}"() #13, !dbg !1812, !noalias !1610, !srcloc !213
  call void @llvm.dbg.value(metadata ptr undef, metadata !1475, metadata !DIExpression()), !dbg !1733
  call void @llvm.dbg.value(metadata ptr undef, metadata !1481, metadata !DIExpression()), !dbg !1734
  call void @llvm.dbg.value(metadata ptr undef, metadata !1489, metadata !DIExpression()), !dbg !1735
  call void @llvm.dbg.value(metadata ptr poison, metadata !1493, metadata !DIExpression()), !dbg !1735
  %exitcond.not.i84.i.i.i.i = icmp eq i64 %_0.i.i83.i.i.i.i, %_34.i.i.i.i, !dbg !1813
  call void @__unsafe_record_block(i32 5, i32 6, i32 0, i16 0, i16 0, i16 0, i16 0, i16 0, i16 0), !dbg !1712
  br i1 %exitcond.not.i84.i.i.i.i, label %_ZN4test5bench13ns_iter_inner17h829b8b4b4ffa0918E.exit88.loopexit.i.i.i.i, label %bb6.i81.i.i.i.i, !dbg !1712

_ZN4test5bench13ns_iter_inner17h829b8b4b4ffa0918E.exit88.loopexit.i.i.i.i: ; preds = %bb6.i81.i.i.i.i
  %iter5.sroa.0.0.add.i.i.i.i = add nuw nsw i64 %iter5.sroa.0.0.idx13.i.i.i.i, 8, !dbg !1722
; call std::time::Instant::elapsed
  %57 = call { i64, i32 } @_ZN3std4time7Instant7elapsed17hee9bf90f3e35a175E(ptr noalias noundef nonnull readonly align 8 dereferenceable(16) %start1.i79.i.i.i.i), !dbg !1737, !noalias !1610
  %58 = extractvalue { i64, i32 } %57, 0, !dbg !1737
  %59 = extractvalue { i64, i32 } %57, 1, !dbg !1737
  call void @llvm.dbg.value(metadata ptr undef, metadata !1510, metadata !DIExpression()), !dbg !1738
  %_20.i85.i.i.i.i = mul i64 %58, 1000000000, !dbg !1740
  %_23.i86.i.i.i.i = zext i32 %59 to i64, !dbg !1741
  %_9.i87.i.i.i.i = add i64 %_20.i85.i.i.i.i, %_23.i86.i.i.i.i, !dbg !1740
  call void @llvm.lifetime.end.p0(i64 16, ptr nonnull %start1.i79.i.i.i.i), !dbg !1742, !noalias !1610
  call void @llvm.dbg.value(metadata i64 %_9.i87.i.i.i.i, metadata !1545, metadata !DIExpression()), !dbg !1743
  %_36.i.i.i.i = uitofp i64 %_9.i87.i.i.i.i to double, !dbg !1744
  %60 = fdiv double %_36.i.i.i.i, %_37.i.i.i.i, !dbg !1745
  store double %60, ptr %iter5.sroa.0.0.ptr14.i.i.i.i, align 8, !dbg !1745, !noalias !1610
  %iter5.sroa.0.0.ptr.i.i.i.i = getelementptr inbounds i8, ptr %_11.i.i.i.i, i64 %iter5.sroa.0.0.add.i.i.i.i, !dbg !1746
  call void @llvm.dbg.value(metadata ptr %iter5.sroa.0.0.ptr.i.i.i.i, metadata !1541, metadata !DIExpression(DW_OP_LLVM_fragment, 0, 64)), !dbg !1704
  call void @llvm.dbg.value(metadata ptr undef, metadata !1012, metadata !DIExpression()), !dbg !1705
  call void @llvm.dbg.value(metadata ptr undef, metadata !1037, metadata !DIExpression()), !dbg !1707
  call void @llvm.dbg.value(metadata ptr %_11.i.i.i.i, metadata !1033, metadata !DIExpression(DW_OP_plus_uconst, 400, DW_OP_stack_value)), !dbg !1709
  call void @llvm.dbg.value(metadata ptr undef, metadata !1047, metadata !DIExpression()), !dbg !1710
  call void @llvm.dbg.value(metadata ptr undef, metadata !1056, metadata !DIExpression()), !dbg !1710
  %61 = icmp eq i64 %iter5.sroa.0.0.add.i.i.i.i, 400, !dbg !1746
  call void @__unsafe_record_block(i32 5, i32 14, i32 0, i16 0, i16 0, i16 0, i16 0, i16 0, i16 0), !dbg !1747
  br i1 %61, label %bb17.i.i.i.i, label %bb16.i.i.i.i, !dbg !1747

bb28.i.i.i.i:                                     ; preds = %bb23.i.i.i.i, %bb17.i.i.i.i
  call void @llvm.dbg.value(metadata ptr undef, metadata !1570, metadata !DIExpression()), !dbg !1763
  call void @llvm.dbg.value(metadata i64 %total_run.sroa.0.0.i.i.i.i, metadata !1564, metadata !DIExpression(DW_OP_LLVM_fragment, 0, 64)), !dbg !1764
  call void @llvm.dbg.value(metadata i32 %total_run.sroa.6.0.i.i.i.i, metadata !1564, metadata !DIExpression(DW_OP_LLVM_fragment, 64, 32)), !dbg !1764
  call void @llvm.dbg.value(metadata i64 1, metadata !1255, metadata !DIExpression()), !dbg !1814
  call void @llvm.dbg.value(metadata i64 1, metadata !1285, metadata !DIExpression()), !dbg !1817
  call void @llvm.dbg.value(metadata i64 %total_run.sroa.0.0.i.i.i.i, metadata !1279, metadata !DIExpression(DW_OP_LLVM_fragment, 0, 64)), !dbg !1819
  call void @llvm.dbg.value(metadata i32 %total_run.sroa.6.0.i.i.i.i, metadata !1279, metadata !DIExpression(DW_OP_LLVM_fragment, 64, 32)), !dbg !1819
  call void @llvm.dbg.value(metadata i64 %52, metadata !1280, metadata !DIExpression(DW_OP_LLVM_fragment, 0, 64)), !dbg !1819
  call void @llvm.dbg.value(metadata i32 %53, metadata !1280, metadata !DIExpression(DW_OP_LLVM_fragment, 64, 32)), !dbg !1819
  call void @llvm.dbg.value(metadata i64 %total_run.sroa.0.0.i.i.i.i, metadata !1259, metadata !DIExpression()), !dbg !1820
  call void @llvm.dbg.value(metadata i64 %total_run.sroa.0.0.i.i.i.i, metadata !1289, metadata !DIExpression()), !dbg !1822
  call void @llvm.dbg.value(metadata i64 %52, metadata !1261, metadata !DIExpression()), !dbg !1820
  call void @llvm.dbg.value(metadata i64 %52, metadata !1291, metadata !DIExpression()), !dbg !1822
  %62 = call { i64, i1 } @llvm.uadd.with.overflow.i64(i64 %total_run.sroa.0.0.i.i.i.i, i64 %52), !dbg !1824
  %_21.0.i.i.i.i.i = extractvalue { i64, i1 } %62, 0, !dbg !1824
  %_21.1.i.i.i.i.i = extractvalue { i64, i1 } %62, 1, !dbg !1824
  call void @llvm.dbg.value(metadata i64 %_21.0.i.i.i.i.i, metadata !1262, metadata !DIExpression()), !dbg !1825
  call void @llvm.dbg.value(metadata i1 %_21.1.i.i.i.i.i, metadata !1264, metadata !DIExpression(DW_OP_LLVM_convert, 1, DW_ATE_unsigned, DW_OP_LLVM_convert, 8, DW_ATE_unsigned, DW_OP_stack_value)), !dbg !1825
  call void @__unsafe_record_block(i32 5, i32 4, i32 0, i16 0, i16 0, i16 0, i16 0, i16 0, i16 0), !dbg !1826
  br i1 %_21.1.i.i.i.i.i, label %bb38.i.i.i.i, label %bb9.i.i.i.i.i, !dbg !1826

bb9.i.i.i.i.i:                                    ; preds = %bb28.i.i.i.i
  call void @llvm.dbg.value(metadata i64 %_21.0.i.i.i.i.i, metadata !1281, metadata !DIExpression()), !dbg !1827
  %63 = add i32 %53, %total_run.sroa.6.0.i.i.i.i, !dbg !1828
  call void @llvm.dbg.value(metadata i32 %63, metadata !1282, metadata !DIExpression()), !dbg !1829
  %_10.i.i.i.i.i = icmp ugt i32 %63, 999999999, !dbg !1830
  call void @__unsafe_record_block(i32 5, i32 3, i32 0, i16 0, i16 0, i16 0, i16 0, i16 0, i16 0), !dbg !1830
  br i1 %_10.i.i.i.i.i, label %bb1.i.i.i.i.i, label %bb39.i.i.i.i, !dbg !1830

bb1.i.i.i.i.i:                                    ; preds = %bb9.i.i.i.i.i
  call void @llvm.dbg.value(metadata i32 %63, metadata !1282, metadata !DIExpression(DW_OP_constu, 1000000000, DW_OP_minus, DW_OP_stack_value)), !dbg !1829
  call void @llvm.dbg.value(metadata i64 %_21.0.i.i.i.i.i, metadata !1265, metadata !DIExpression()), !dbg !1814
  call void @llvm.dbg.value(metadata i64 %_21.0.i.i.i.i.i, metadata !1295, metadata !DIExpression()), !dbg !1817
  %64 = call { i64, i1 } @llvm.uadd.with.overflow.i64(i64 %_21.0.i.i.i.i.i, i64 1), !dbg !1831
  %_25.1.i.i.i.i.i = extractvalue { i64, i1 } %64, 1, !dbg !1831
  call void @llvm.dbg.value(metadata i64 poison, metadata !1266, metadata !DIExpression()), !dbg !1832
  call void @llvm.dbg.value(metadata i1 %_25.1.i.i.i.i.i, metadata !1268, metadata !DIExpression(DW_OP_LLVM_convert, 1, DW_ATE_unsigned, DW_OP_LLVM_convert, 8, DW_ATE_unsigned, DW_OP_stack_value)), !dbg !1832
  call void @__unsafe_record_block(i32 5, i32 3, i32 0, i16 0, i16 0, i16 0, i16 0, i16 0, i16 0), !dbg !1833
  br i1 %_25.1.i.i.i.i.i, label %bb38.i.i.i.i, label %bb3.i.i.i.i.i, !dbg !1833

bb3.i.i.i.i.i:                                    ; preds = %bb1.i.i.i.i.i
  %_25.0.i.i.i.i.i = extractvalue { i64, i1 } %64, 0, !dbg !1831
  call void @llvm.dbg.value(metadata i64 %_25.0.i.i.i.i.i, metadata !1266, metadata !DIExpression()), !dbg !1832
  %65 = add i32 %63, -1000000000, !dbg !1834
  call void @llvm.dbg.value(metadata i64 %_25.0.i.i.i.i.i, metadata !1283, metadata !DIExpression()), !dbg !1835
  call void @llvm.dbg.value(metadata i32 %65, metadata !1282, metadata !DIExpression()), !dbg !1829
  call void @llvm.dbg.value(metadata i64 %_25.0.i.i.i.i.i, metadata !1281, metadata !DIExpression()), !dbg !1827
  call void @llvm.dbg.value(metadata ptr @alloc_b7c1c22a954085a45dacf7c670d25258, metadata !819, metadata !DIExpression()), !dbg !1836
  call void @llvm.dbg.value(metadata i64 %_25.0.i.i.i.i.i, metadata !968, metadata !DIExpression()), !dbg !1839
  call void @llvm.dbg.value(metadata i64 %_25.0.i.i.i.i.i, metadata !978, metadata !DIExpression()), !dbg !1840
  call void @llvm.dbg.value(metadata i64 %_25.0.i.i.i.i.i, metadata !990, metadata !DIExpression()), !dbg !1842
  call void @llvm.dbg.value(metadata i32 %65, metadata !969, metadata !DIExpression()), !dbg !1839
  %_3.i.i.i.i.i.i = icmp ult i32 %65, 1000000000, !dbg !1844
  call void @__unsafe_record_block(i32 5, i32 4, i32 0, i16 0, i16 0, i16 0, i16 0, i16 0, i16 0), !dbg !1844
  br i1 %_3.i.i.i.i.i.i, label %bb39.i.i.i.i, label %bb2.i.i.i.i.i.i, !dbg !1844

bb2.i.i.i.i.i.i:                                  ; preds = %bb3.i.i.i.i.i
  %_7.i.i.i.i.i.i = udiv i32 %65, 1000000000, !dbg !1845
  %nanos3.i.i.i.i.i.i = urem i32 %65, 1000000000, !dbg !1846
  %rhs.i.i.i.i.i.i = zext nneg i32 %_7.i.i.i.i.i.i to i64, !dbg !1845
  call void @llvm.dbg.value(metadata i64 %rhs.i.i.i.i.i.i, metadata !984, metadata !DIExpression()), !dbg !1840
  call void @llvm.dbg.value(metadata i64 %rhs.i.i.i.i.i.i, metadata !1000, metadata !DIExpression()), !dbg !1842
  %66 = call { i64, i1 } @llvm.uadd.with.overflow.i64(i64 %_25.0.i.i.i.i.i, i64 %rhs.i.i.i.i.i.i), !dbg !1847
  %_16.1.i.i.i.i.i.i = extractvalue { i64, i1 } %66, 1, !dbg !1847
  call void @llvm.dbg.value(metadata i64 poison, metadata !985, metadata !DIExpression()), !dbg !1848
  call void @llvm.dbg.value(metadata i1 %_16.1.i.i.i.i.i.i, metadata !987, metadata !DIExpression(DW_OP_LLVM_convert, 1, DW_ATE_unsigned, DW_OP_LLVM_convert, 8, DW_ATE_unsigned, DW_OP_stack_value)), !dbg !1848
  call void @__unsafe_record_block(i32 5, i32 6, i32 0, i16 0, i16 0, i16 0, i16 0, i16 0, i16 0), !dbg !1849
  br i1 %_16.1.i.i.i.i.i.i, label %bb5.i.i.i.i.i.i, label %bb6.i.i.i.i.i.i, !dbg !1849

bb6.i.i.i.i.i.i:                                  ; preds = %bb2.i.i.i.i.i.i
  %_16.0.i.i.i.i.i.i = extractvalue { i64, i1 } %66, 0, !dbg !1847
  call void @llvm.dbg.value(metadata i64 %_16.0.i.i.i.i.i.i, metadata !985, metadata !DIExpression()), !dbg !1848
  call void @llvm.dbg.value(metadata i64 %_16.0.i.i.i.i.i.i, metadata !970, metadata !DIExpression()), !dbg !1850
  call void @__unsafe_record_block(i32 5, i32 2, i32 0, i16 0, i16 0, i16 0, i16 0, i16 0, i16 0), !dbg !1851
  br label %bb39.i.i.i.i, !dbg !1851

bb5.i.i.i.i.i.i:                                  ; preds = %bb2.i.i.i.i.i.i
  call void @llvm.lifetime.start.p0(i64 48, ptr nonnull %_10.i.i.i.i.i.i), !dbg !1852, !noalias !1610
  store ptr @alloc_b7c1c22a954085a45dacf7c670d25258, ptr %_10.i.i.i.i.i.i, align 8, !dbg !1853, !noalias !1610
  %67 = getelementptr inbounds i8, ptr %_10.i.i.i.i.i.i, i64 8, !dbg !1853
  store i64 1, ptr %67, align 8, !dbg !1853, !noalias !1610
  %68 = getelementptr inbounds i8, ptr %_10.i.i.i.i.i.i, i64 32, !dbg !1853
  store ptr null, ptr %68, align 8, !dbg !1853, !noalias !1610
  %69 = getelementptr inbounds i8, ptr %_10.i.i.i.i.i.i, i64 16, !dbg !1853
  store ptr inttoptr (i64 8 to ptr), ptr %69, align 8, !dbg !1853, !noalias !1610
  %70 = getelementptr inbounds i8, ptr %_10.i.i.i.i.i.i, i64 24, !dbg !1853
  store i64 0, ptr %70, align 8, !dbg !1853, !noalias !1610
; call core::panicking::panic_fmt
  call void @_ZN4core9panicking9panic_fmt17h3111a7beccfa68f5E(ptr noalias nocapture noundef nonnull readonly align 8 dereferenceable(48) %_10.i.i.i.i.i.i, ptr noalias noundef nonnull readonly align 8 dereferenceable(24) @alloc_780cce55eebcf3006d09c4f4f63d73b0) #14, !dbg !1852, !noalias !1610
  call void @__unsafe_record_block(i32 5, i32 12, i32 0, i16 0, i16 0, i16 0, i16 0, i16 0, i16 0), !dbg !1852
  unreachable, !dbg !1852

bb23.i.i.i.i:                                     ; preds = %bb17.i.i.i.i
  %_53.i.i.i.i = load double, ptr %21, align 8, !dbg !1854, !noalias !1610, !noundef !23
  %_54.i.i.i.i = load double, ptr %22, align 8, !dbg !1855, !noalias !1610, !noundef !23
  %_52.i.i.i.i = fsub double %_53.i.i.i.i, %_54.i.i.i.i, !dbg !1854
  %_55.i.i.i.i = load double, ptr %23, align 8, !dbg !1856, !noalias !1610, !noundef !23
  %_51.i.i.i.i = fcmp olt double %_52.i.i.i.i, %_55.i.i.i.i, !dbg !1854
  call void @__unsafe_record_block(i32 5, i32 6, i32 0, i16 0, i16 0, i16 0, i16 0, i16 0, i16 0), !dbg !1854
  br i1 %_51.i.i.i.i, label %_ZN4test5bench4iter17ha9ac9e45df65ca41E.exit.i.i.i, label %bb28.i.i.i.i, !dbg !1854

bb38.i.i.i.i:                                     ; preds = %bb1.i.i.i.i.i, %bb28.i.i.i.i
  call void @llvm.dbg.value(metadata i64 undef, metadata !1552, metadata !DIExpression(DW_OP_LLVM_fragment, 0, 64)), !dbg !1599
  call void @llvm.dbg.value(metadata i32 1000000000, metadata !1552, metadata !DIExpression(DW_OP_LLVM_fragment, 64, 32)), !dbg !1599
; call core::option::expect_failed
  call void @_ZN4core6option13expect_failed17h28cbd671da1a9710E(ptr noalias noundef nonnull readonly align 1 @alloc_830d8a7ce80e2e7f05fa6e4643272e13, i64 noundef 30, ptr noalias noundef nonnull readonly align 8 dereferenceable(24) @alloc_0e0ace263d2d43510f52f9b9fd9a0036) #14, !dbg !1857, !noalias !1610
  call void @__unsafe_record_block(i32 5, i32 2, i32 0, i16 0, i16 0, i16 0, i16 0, i16 0, i16 0), !dbg !1857
  unreachable, !dbg !1857

bb39.i.i.i.i:                                     ; preds = %bb6.i.i.i.i.i.i, %bb3.i.i.i.i.i, %bb9.i.i.i.i.i
  %_0.sroa.4.1.i.ph.i.i.i.i = phi i32 [ %63, %bb9.i.i.i.i.i ], [ %65, %bb3.i.i.i.i.i ], [ %nanos3.i.i.i.i.i.i, %bb6.i.i.i.i.i.i ]
  %_0.sroa.0.1.i.ph.i.i.i.i = phi i64 [ %_21.0.i.i.i.i.i, %bb9.i.i.i.i.i ], [ %_25.0.i.i.i.i.i, %bb3.i.i.i.i.i ], [ %_16.0.i.i.i.i.i.i, %bb6.i.i.i.i.i.i ]
  call void @llvm.dbg.value(metadata i64 %_0.sroa.0.1.i.ph.i.i.i.i, metadata !1552, metadata !DIExpression(DW_OP_LLVM_fragment, 0, 64)), !dbg !1599
  call void @llvm.dbg.value(metadata i32 %_0.sroa.4.1.i.ph.i.i.i.i, metadata !1552, metadata !DIExpression(DW_OP_LLVM_fragment, 64, 32)), !dbg !1599
  call void @llvm.dbg.value(metadata i64 %_0.sroa.0.1.i.ph.i.i.i.i, metadata !1529, metadata !DIExpression(DW_OP_LLVM_fragment, 0, 64)), !dbg !1653
  call void @llvm.dbg.value(metadata i32 %_0.sroa.4.1.i.ph.i.i.i.i, metadata !1529, metadata !DIExpression(DW_OP_LLVM_fragment, 64, 32)), !dbg !1653
  call void @llvm.dbg.value(metadata ptr undef, metadata !1770, metadata !DIExpression()), !dbg !1858
  call void @llvm.dbg.value(metadata ptr undef, metadata !1782, metadata !DIExpression()), !dbg !1860
  call void @llvm.dbg.value(metadata ptr undef, metadata !1772, metadata !DIExpression()), !dbg !1858
  call void @llvm.dbg.value(metadata ptr undef, metadata !1784, metadata !DIExpression()), !dbg !1860
  call void @llvm.dbg.value(metadata ptr undef, metadata !1794, metadata !DIExpression()), !dbg !1862
  call void @llvm.dbg.value(metadata ptr undef, metadata !1796, metadata !DIExpression()), !dbg !1862
  %.not59.not.i.i.i.i = icmp eq i64 %_0.sroa.0.1.i.ph.i.i.i.i, 3, !dbg !1864
  %.not60.i.i.i.i = icmp ne i32 %_0.sroa.4.1.i.ph.i.i.i.i, 0, !dbg !1865
  %_5710.i.i.i.i = icmp ugt i64 %_0.sroa.0.1.i.ph.i.i.i.i, 3, !dbg !1866
  %_57.i.i.i.i = select i1 %.not59.not.i.i.i.i, i1 %.not60.i.i.i.i, i1 %_5710.i.i.i.i, !dbg !1866
  %_117.1.i.i.i.i = icmp ugt i64 %n.sroa.0.0.i.i.i.i, 1844674407370955161
  %or.cond20.i.i.i.i = select i1 %_57.i.i.i.i, i1 true, i1 %_117.1.i.i.i.i, !dbg !1868
  call void @__unsafe_record_block(i32 5, i32 9, i32 0, i16 0, i16 0, i16 0, i16 0, i16 0, i16 0), !dbg !1868
  br i1 %or.cond20.i.i.i.i, label %_ZN4test5bench4iter17ha9ac9e45df65ca41E.exit.i.i.i, label %bb45.i.i.i.i, !dbg !1868

bb45.i.i.i.i:                                     ; preds = %bb39.i.i.i.i
  %_61.i.i.i.i = shl nuw nsw i64 %n.sroa.0.0.i.i.i.i, 1, !dbg !1869
  call void @llvm.dbg.value(metadata i64 %_61.i.i.i.i, metadata !1527, metadata !DIExpression()), !dbg !1641
  call void @llvm.lifetime.end.p0(i64 112, ptr nonnull %summ.i.i.i.i), !dbg !1870, !noalias !1610
  call void @llvm.lifetime.end.p0(i64 16, ptr nonnull %loop_start.i.i.i.i), !dbg !1871, !noalias !1610
  call void @__unsafe_record_block(i32 5, i32 4, i32 0, i16 0, i16 0, i16 0, i16 0, i16 0, i16 0), !dbg !1872
  br label %bb4.i.i.i.i, !dbg !1872

_ZN4test5bench4iter17ha9ac9e45df65ca41E.exit.i.i.i: ; preds = %bb39.i.i.i.i, %bb23.i.i.i.i
  call void @llvm.memcpy.p0.p0.i64(ptr noundef nonnull align 8 dereferenceable(112) %_6.sroa.4.i.i.i, ptr noundef nonnull align 8 dereferenceable(112) %summ5.i.i.i.i, i64 112, i1 false), !dbg !1762, !noalias !1472
  call void @llvm.lifetime.end.p0(i64 112, ptr nonnull %summ.i.i.i.i), !dbg !1870, !noalias !1610
  call void @llvm.lifetime.end.p0(i64 16, ptr nonnull %loop_start.i.i.i.i), !dbg !1871, !noalias !1610
  call void @llvm.lifetime.end.p0(i64 400, ptr nonnull %_11.i.i.i.i), !dbg !1873, !noalias !1610
  call void @llvm.lifetime.end.p0(i64 112, ptr nonnull %summ5.i.i.i.i), !dbg !1874, !noalias !1472
  store i64 1, ptr %0, align 8, !dbg !1875, !alias.scope !1446, !noalias !1397
  %_6.sroa.4.0.self.sroa_idx.i.i.i = getelementptr inbounds i8, ptr %0, i64 8, !dbg !1875
  call void @llvm.memcpy.p0.p0.i64(ptr noundef nonnull align 8 dereferenceable(112) %_6.sroa.4.0.self.sroa_idx.i.i.i, ptr noundef nonnull align 8 dereferenceable(112) %_6.sroa.4.i.i.i, i64 112, i1 false), !dbg !1875, !noalias !1397
  call void @llvm.lifetime.end.p0(i64 112, ptr nonnull %_6.sroa.4.i.i.i), !dbg !1876
  call void @__unsafe_record_block(i32 5, i32 10, i32 0, i16 0, i16 0, i16 0, i16 0, i16 0, i16 0), !dbg !1877
  br label %"_ZN6buffer4p25610bench_fill28_$u7b$$u7b$closure$u7d$$u7d$17h7748dade2a94d357E.exit", !dbg !1877

"_ZN6buffer4p25610bench_fill28_$u7b$$u7b$closure$u7d$$u7d$17h7748dade2a94d357E.exit": ; preds = %bb1.i.i.i, %_ZN4test5bench4iter17ha9ac9e45df65ca41E.exit.i.i.i
  call void @llvm.dbg.declare(metadata ptr undef, metadata !1364, metadata !DIExpression()), !dbg !1878
  call void @llvm.dbg.value(metadata i32 0, metadata !1370, metadata !DIExpression()), !dbg !1880
  store i64 -9223372036854775808, ptr %_0, align 8, !dbg !1881, !alias.scope !1882, !noalias !1400
  call void @__unsafe_record_block(i32 5, i32 2, i32 0, i16 0, i16 0, i16 0, i16 0, i16 0, i16 0), !dbg !1396
  ret void, !dbg !1396
}

; core::ops::function::FnOnce::call_once
; Function Attrs: inlinehint nonlazybind uwtable
define internal void @_ZN4core3ops8function6FnOnce9call_once17h559ca8bde7caa98bE(ptr dead_on_unwind noalias nocapture noundef writable writeonly sret([24 x i8]) align 8 dereferenceable(24) %_0, ptr noalias nocapture noundef align 8 dereferenceable(136) %0) unnamed_addr #2 personality ptr @rust_eh_personality !dbg !1885 !unsafe_count.func_id !1895 {
start:
  call void @__unsafe_record_function(i32 6)
  %_10.i.i.i.i.i.i = alloca [48 x i8], align 8
  %1 = alloca [4 x i8], align 4
  %start1.i80.i.i.i.i = alloca [16 x i8], align 8
  %2 = alloca [4 x i8], align 4
  %start1.i63.i.i.i.i = alloca [16 x i8], align 8
  %3 = alloca [4 x i8], align 4
  %start1.i.i.i.i.i = alloca [16 x i8], align 8
  %summ5.i.i.i.i = alloca [112 x i8], align 8
  %summ.i.i.i.i = alloca [112 x i8], align 8
  %loop_start.i.i.i.i = alloca [16 x i8], align 8
  %_11.i.i.i.i = alloca [400 x i8], align 8
  %4 = alloca [4 x i8], align 4
  %start1.i.i.i.i = alloca [16 x i8], align 8
  %_6.sroa.4.i.i.i = alloca [112 x i8], align 8
  tail call void @llvm.dbg.value(metadata ptr %0, metadata !1892, metadata !DIExpression()), !dbg !1896
  call void @llvm.dbg.declare(metadata ptr poison, metadata !1891, metadata !DIExpression()), !dbg !1897
  tail call void @llvm.experimental.noalias.scope.decl(metadata !1898), !dbg !1897
  tail call void @llvm.experimental.noalias.scope.decl(metadata !1901), !dbg !1897
  call void @llvm.dbg.value(metadata ptr undef, metadata !1903, metadata !DIExpression()), !dbg !1910
  call void @llvm.dbg.value(metadata ptr %0, metadata !1909, metadata !DIExpression()), !dbg !1910
  tail call void @llvm.experimental.noalias.scope.decl(metadata !1912), !dbg !1915
  call void @llvm.dbg.value(metadata ptr %0, metadata !1916, metadata !DIExpression()), !dbg !1919
  %5 = getelementptr inbounds i8, ptr %0, i64 120, !dbg !1921
  store i64 4, ptr %5, align 8, !dbg !1921, !alias.scope !1922, !noalias !1898
  tail call void @llvm.experimental.noalias.scope.decl(metadata !1923), !dbg !1926
  call void @llvm.dbg.value(metadata !23, metadata !1927, metadata !DIExpression()), !dbg !1936
  call void @llvm.dbg.value(metadata ptr %0, metadata !1949, metadata !DIExpression()), !dbg !1952
  call void @llvm.dbg.declare(metadata ptr poison, metadata !1950, metadata !DIExpression()), !dbg !1953
  call void @llvm.dbg.value(metadata ptr %0, metadata !1931, metadata !DIExpression(DW_OP_plus_uconst, 128, DW_OP_stack_value)), !dbg !1936
  %6 = getelementptr inbounds i8, ptr %0, i64 128, !dbg !1954
  %7 = load i8, ptr %6, align 8, !dbg !1954, !range !448, !alias.scope !1955, !noalias !1898, !noundef !23
  %.not.i.i.i = icmp eq i8 %7, 0, !dbg !1954
  call void @__unsafe_record_block(i32 6, i32 25, i32 0, i16 0, i16 0, i16 0, i16 0, i16 0, i16 0), !dbg !1956
  br i1 %.not.i.i.i, label %bb3.i.i.i, label %bb1.i.i.i, !dbg !1956

bb1.i.i.i:                                        ; preds = %start
  call void @llvm.dbg.value(metadata ptr undef, metadata !1957, metadata !DIExpression()), !dbg !1968
  call void @llvm.dbg.value(metadata i64 1, metadata !1963, metadata !DIExpression()), !dbg !1968
  call void @llvm.dbg.declare(metadata ptr %start1.i.i.i.i, metadata !1964, metadata !DIExpression()), !dbg !1970
  call void @llvm.lifetime.start.p0(i64 16, ptr nonnull %start1.i.i.i.i), !dbg !1971, !noalias !1972
; call std::time::Instant::now
  %8 = tail call { i64, i32 } @_ZN3std4time7Instant3now17hdd57daf13a49b9b5E(), !dbg !1973, !noalias !1972
  %9 = extractvalue { i64, i32 } %8, 0, !dbg !1973
  %10 = extractvalue { i64, i32 } %8, 1, !dbg !1973
  store i64 %9, ptr %start1.i.i.i.i, align 8, !dbg !1973, !noalias !1972
  %11 = getelementptr inbounds i8, ptr %start1.i.i.i.i, i64 8, !dbg !1973
  store i32 %10, ptr %11, align 8, !dbg !1973, !noalias !1972
  call void @llvm.dbg.value(metadata i64 0, metadata !1966, metadata !DIExpression(DW_OP_LLVM_fragment, 0, 64)), !dbg !1974
  call void @llvm.dbg.value(metadata i64 1, metadata !1966, metadata !DIExpression(DW_OP_LLVM_fragment, 64, 64)), !dbg !1974
  call void @llvm.dbg.value(metadata ptr undef, metadata !1975, metadata !DIExpression()), !dbg !1979
  call void @llvm.dbg.value(metadata ptr undef, metadata !1981, metadata !DIExpression()), !dbg !1987
  call void @llvm.dbg.value(metadata ptr undef, metadata !1989, metadata !DIExpression()), !dbg !1994
  call void @llvm.dbg.value(metadata ptr poison, metadata !1993, metadata !DIExpression()), !dbg !1994
  call void @llvm.dbg.value(metadata i64 0, metadata !1966, metadata !DIExpression(DW_OP_LLVM_fragment, 0, 64)), !dbg !1974
  call void @llvm.dbg.value(metadata i64 0, metadata !1985, metadata !DIExpression()), !dbg !1996
  call void @llvm.dbg.value(metadata i64 0, metadata !559, metadata !DIExpression()), !dbg !1997
  call void @llvm.dbg.value(metadata i64 0, metadata !568, metadata !DIExpression()), !dbg !1999
  call void @llvm.dbg.value(metadata i64 1, metadata !565, metadata !DIExpression()), !dbg !1997
  call void @llvm.dbg.value(metadata i64 1, metadata !576, metadata !DIExpression()), !dbg !1999
  call void @llvm.dbg.value(metadata i64 1, metadata !1966, metadata !DIExpression(DW_OP_LLVM_fragment, 0, 64)), !dbg !1974
  call void @llvm.dbg.value(metadata ptr undef, metadata !2001, metadata !DIExpression()), !dbg !2009
  call void @llvm.dbg.declare(metadata ptr undef, metadata !2006, metadata !DIExpression()), !dbg !2011
; call buffer::bench_u32_via_fill::inner
  %_0.i6.i.i.i.i = tail call fastcc noundef i32 @_ZN6buffer18bench_u32_via_fill5inner17h4508a63ffb276eb4E(), !dbg !2011, !noalias !1972
  call void @llvm.dbg.value(metadata i32 %_0.i6.i.i.i.i, metadata !2012, metadata !DIExpression()), !dbg !2019
  call void @llvm.dbg.value(metadata i32 %_0.i6.i.i.i.i, metadata !2021, metadata !DIExpression()), !dbg !2025
  call void @llvm.lifetime.start.p0(i64 4, ptr nonnull %4), !dbg !2027, !noalias !1972
  store i32 %_0.i6.i.i.i.i, ptr %4, align 4, !dbg !2027, !noalias !1972
  call void asm sideeffect "", "r,~{memory}"(ptr nonnull %4) #13, !dbg !2027, !noalias !1972, !srcloc !213
  call void @llvm.lifetime.end.p0(i64 4, ptr nonnull %4), !dbg !2027, !noalias !1972
  call void @llvm.dbg.value(metadata ptr undef, metadata !1975, metadata !DIExpression()), !dbg !1979
  call void @llvm.dbg.value(metadata ptr undef, metadata !1981, metadata !DIExpression()), !dbg !1987
  call void @llvm.dbg.value(metadata ptr undef, metadata !1989, metadata !DIExpression()), !dbg !1994
  call void @llvm.dbg.value(metadata ptr poison, metadata !1993, metadata !DIExpression()), !dbg !1994
; call std::time::Instant::elapsed
  %12 = call { i64, i32 } @_ZN3std4time7Instant7elapsed17hee9bf90f3e35a175E(ptr noalias noundef nonnull readonly align 8 dereferenceable(16) %start1.i.i.i.i), !dbg !2028, !noalias !1972
  call void @llvm.dbg.value(metadata ptr undef, metadata !2029, metadata !DIExpression()), !dbg !2033
  call void @llvm.lifetime.end.p0(i64 16, ptr nonnull %start1.i.i.i.i), !dbg !2035, !noalias !1972
  call void @__unsafe_record_block(i32 6, i32 15, i32 0, i16 0, i16 0, i16 0, i16 0, i16 0, i16 0)
  br label %"_ZN6buffer18bench_u32_via_fill28_$u7b$$u7b$closure$u7d$$u7d$17h80d75ad75deda354E.exit"

bb3.i.i.i:                                        ; preds = %start
  call void @llvm.lifetime.start.p0(i64 112, ptr nonnull %_6.sroa.4.i.i.i), !dbg !2036
  call void @llvm.lifetime.start.p0(i64 112, ptr nonnull %summ5.i.i.i.i), !dbg !2037, !noalias !1972
  call void @llvm.dbg.declare(metadata ptr undef, metadata !2073, metadata !DIExpression(DW_OP_LLVM_fragment, 96, 32)), !dbg !2080
  call void @llvm.dbg.declare(metadata ptr undef, metadata !2050, metadata !DIExpression(DW_OP_LLVM_fragment, 96, 32)), !dbg !2094
  call void @llvm.dbg.value(metadata i64 1000000, metadata !2046, metadata !DIExpression()), !dbg !2095
  call void @llvm.dbg.value(metadata i64 1, metadata !2096, metadata !DIExpression()), !dbg !2104
  call void @llvm.dbg.value(metadata i64 1, metadata !2106, metadata !DIExpression()), !dbg !2114
  call void @llvm.dbg.value(metadata i64 1, metadata !2101, metadata !DIExpression()), !dbg !2116
  call void @llvm.dbg.value(metadata i64 1, metadata !2111, metadata !DIExpression()), !dbg !2118
  call void @llvm.dbg.value(metadata ptr @alloc_830d8a7ce80e2e7f05fa6e4643272e13, metadata !2077, metadata !DIExpression(DW_OP_LLVM_fragment, 0, 64)), !dbg !2120
  call void @llvm.dbg.value(metadata i64 30, metadata !2077, metadata !DIExpression(DW_OP_LLVM_fragment, 64, 64)), !dbg !2120
  call void @llvm.dbg.value(metadata ptr undef, metadata !2043, metadata !DIExpression()), !dbg !2121
  call void @llvm.dbg.declare(metadata ptr %loop_start.i.i.i.i, metadata !2054, metadata !DIExpression()), !dbg !2122
  call void @llvm.dbg.declare(metadata ptr %summ.i.i.i.i, metadata !2060, metadata !DIExpression()), !dbg !2123
  call void @llvm.dbg.declare(metadata ptr %summ5.i.i.i.i, metadata !2068, metadata !DIExpression()), !dbg !2124
  call void @llvm.dbg.value(metadata ptr undef, metadata !1957, metadata !DIExpression()), !dbg !2125
  call void @llvm.dbg.value(metadata i64 1, metadata !1963, metadata !DIExpression()), !dbg !2125
  call void @llvm.dbg.declare(metadata ptr %start1.i.i.i.i.i, metadata !1964, metadata !DIExpression()), !dbg !2126
  call void @llvm.lifetime.start.p0(i64 16, ptr nonnull %start1.i.i.i.i.i), !dbg !2037, !noalias !2127
; call std::time::Instant::now
  %13 = tail call { i64, i32 } @_ZN3std4time7Instant3now17hdd57daf13a49b9b5E(), !dbg !2130, !noalias !2127
  %14 = extractvalue { i64, i32 } %13, 0, !dbg !2130
  %15 = extractvalue { i64, i32 } %13, 1, !dbg !2130
  store i64 %14, ptr %start1.i.i.i.i.i, align 8, !dbg !2130, !noalias !2127
  %16 = getelementptr inbounds i8, ptr %start1.i.i.i.i.i, i64 8, !dbg !2130
  store i32 %15, ptr %16, align 8, !dbg !2130, !noalias !2127
  call void @llvm.dbg.value(metadata i64 0, metadata !1966, metadata !DIExpression(DW_OP_LLVM_fragment, 0, 64)), !dbg !2131
  call void @llvm.dbg.value(metadata i64 1, metadata !1966, metadata !DIExpression(DW_OP_LLVM_fragment, 64, 64)), !dbg !2131
  call void @llvm.dbg.value(metadata ptr undef, metadata !1975, metadata !DIExpression()), !dbg !2132
  call void @llvm.dbg.value(metadata ptr undef, metadata !1981, metadata !DIExpression()), !dbg !2134
  call void @llvm.dbg.value(metadata ptr undef, metadata !1989, metadata !DIExpression()), !dbg !2136
  call void @llvm.dbg.value(metadata ptr poison, metadata !1993, metadata !DIExpression()), !dbg !2136
  call void @llvm.dbg.value(metadata i64 0, metadata !1966, metadata !DIExpression(DW_OP_LLVM_fragment, 0, 64)), !dbg !2131
  call void @llvm.dbg.value(metadata i64 0, metadata !1985, metadata !DIExpression()), !dbg !2138
  call void @llvm.dbg.value(metadata i64 0, metadata !559, metadata !DIExpression()), !dbg !2139
  call void @llvm.dbg.value(metadata i64 0, metadata !568, metadata !DIExpression()), !dbg !2141
  call void @llvm.dbg.value(metadata i64 1, metadata !565, metadata !DIExpression()), !dbg !2139
  call void @llvm.dbg.value(metadata i64 1, metadata !576, metadata !DIExpression()), !dbg !2141
  call void @llvm.dbg.value(metadata i64 1, metadata !1966, metadata !DIExpression(DW_OP_LLVM_fragment, 0, 64)), !dbg !2131
  call void @llvm.dbg.value(metadata ptr undef, metadata !2001, metadata !DIExpression()), !dbg !2143
  call void @llvm.dbg.declare(metadata ptr undef, metadata !2006, metadata !DIExpression()), !dbg !2145
; call buffer::bench_u32_via_fill::inner
  %_0.i6.i.i.i.i.i = tail call fastcc noundef i32 @_ZN6buffer18bench_u32_via_fill5inner17h4508a63ffb276eb4E(), !dbg !2145, !noalias !2127
  call void @llvm.dbg.value(metadata i32 %_0.i6.i.i.i.i.i, metadata !2012, metadata !DIExpression()), !dbg !2146
  call void @llvm.dbg.value(metadata i32 %_0.i6.i.i.i.i.i, metadata !2021, metadata !DIExpression()), !dbg !2148
  call void @llvm.lifetime.start.p0(i64 4, ptr nonnull %3), !dbg !2150, !noalias !2127
  store i32 %_0.i6.i.i.i.i.i, ptr %3, align 4, !dbg !2150, !noalias !2127
  call void asm sideeffect "", "r,~{memory}"(ptr nonnull %3) #13, !dbg !2150, !noalias !2127, !srcloc !213
  call void @llvm.lifetime.end.p0(i64 4, ptr nonnull %3), !dbg !2150, !noalias !2127
  call void @llvm.dbg.value(metadata ptr undef, metadata !1975, metadata !DIExpression()), !dbg !2132
  call void @llvm.dbg.value(metadata ptr undef, metadata !1981, metadata !DIExpression()), !dbg !2134
  call void @llvm.dbg.value(metadata ptr undef, metadata !1989, metadata !DIExpression()), !dbg !2136
  call void @llvm.dbg.value(metadata ptr poison, metadata !1993, metadata !DIExpression()), !dbg !2136
; call std::time::Instant::elapsed
  %17 = call { i64, i32 } @_ZN3std4time7Instant7elapsed17hee9bf90f3e35a175E(ptr noalias noundef nonnull readonly align 8 dereferenceable(16) %start1.i.i.i.i.i), !dbg !2151, !noalias !2127
  %18 = extractvalue { i64, i32 } %17, 0, !dbg !2151
  %19 = extractvalue { i64, i32 } %17, 1, !dbg !2151
  call void @llvm.dbg.value(metadata ptr undef, metadata !2029, metadata !DIExpression()), !dbg !2152
  %_20.i.i.i.i.i = mul i64 %18, 1000000000, !dbg !2154
  %_23.i.i.i.i.i = zext i32 %19 to i64, !dbg !2155
  %_9.i.i.i.i.i = add i64 %_20.i.i.i.i.i, %_23.i.i.i.i.i, !dbg !2154
  call void @llvm.lifetime.end.p0(i64 16, ptr nonnull %start1.i.i.i.i.i), !dbg !2156, !noalias !2127
  call void @llvm.dbg.value(metadata i64 %_9.i.i.i.i.i, metadata !2044, metadata !DIExpression()), !dbg !2157
  call void @llvm.dbg.value(metadata i64 %_9.i.i.i.i.i, metadata !2100, metadata !DIExpression()), !dbg !2104
  call void @llvm.dbg.value(metadata i64 %_9.i.i.i.i.i, metadata !2110, metadata !DIExpression()), !dbg !2114
  call void @llvm.dbg.value(metadata i64 1, metadata !799, metadata !DIExpression()), !dbg !2158
  call void @llvm.dbg.value(metadata i64 %_9.i.i.i.i.i, metadata !807, metadata !DIExpression()), !dbg !2158
  call void @llvm.dbg.declare(metadata ptr undef, metadata !808, metadata !DIExpression()), !dbg !2160
  %_0.sroa.0.0.sroa.speculated.i.i.i.i.i = call noundef i64 @llvm.umax.i64(i64 %_9.i.i.i.i.i, i64 1), !dbg !2158
  %20 = udiv i64 1000000, %_0.sroa.0.0.sroa.speculated.i.i.i.i.i, !dbg !2161
  call void @llvm.dbg.value(metadata i64 %20, metadata !2048, metadata !DIExpression()), !dbg !2162
  call void @llvm.dbg.value(metadata i64 %20, metadata !2103, metadata !DIExpression()), !dbg !2116
  call void @llvm.dbg.value(metadata i64 %20, metadata !2113, metadata !DIExpression()), !dbg !2118
  call void @llvm.dbg.value(metadata i64 1, metadata !799, metadata !DIExpression()), !dbg !2163
  call void @llvm.dbg.value(metadata i64 %20, metadata !807, metadata !DIExpression()), !dbg !2163
  call void @llvm.dbg.declare(metadata ptr undef, metadata !808, metadata !DIExpression()), !dbg !2165
  call void @llvm.dbg.value(metadata i64 %_0.sroa.0.0.sroa.speculated.i61.i.i.i.i, metadata !2048, metadata !DIExpression()), !dbg !2162
  call void @llvm.dbg.value(metadata ptr @alloc_b7c1c22a954085a45dacf7c670d25258, metadata !819, metadata !DIExpression()), !dbg !2166
  call void @llvm.dbg.value(metadata i64 0, metadata !968, metadata !DIExpression()), !dbg !2169
  call void @llvm.dbg.value(metadata i64 0, metadata !978, metadata !DIExpression()), !dbg !2170
  call void @llvm.dbg.value(metadata i64 0, metadata !990, metadata !DIExpression()), !dbg !2172
  call void @llvm.dbg.value(metadata i32 0, metadata !969, metadata !DIExpression()), !dbg !2169
  call void @llvm.dbg.value(metadata i64 0, metadata !2050, metadata !DIExpression(DW_OP_LLVM_fragment, 0, 64)), !dbg !2174
  call void @llvm.dbg.value(metadata i32 0, metadata !2050, metadata !DIExpression(DW_OP_LLVM_fragment, 64, 32)), !dbg !2174
  call void @llvm.lifetime.start.p0(i64 400, ptr nonnull %_11.i.i.i.i), !dbg !2175, !noalias !2127
  call void @llvm.memset.p0.i64(ptr noundef nonnull align 8 dereferenceable(400) %_11.i.i.i.i, i8 0, i64 400, i1 false), !noalias !2127
  %_0.sroa.0.0.sroa.speculated.i61.i.i.i.i = call noundef i64 @llvm.umax.i64(i64 %20, i64 1), !dbg !2163
  %21 = getelementptr inbounds i8, ptr %loop_start.i.i.i.i, i64 8
  %22 = getelementptr inbounds i8, ptr %start1.i63.i.i.i.i, i64 8
  %23 = getelementptr inbounds i8, ptr %start1.i80.i.i.i.i, i64 8
  %24 = getelementptr inbounds i8, ptr %summ.i.i.i.i, i64 72
  %25 = getelementptr inbounds i8, ptr %summ.i.i.i.i, i64 32
  %26 = getelementptr inbounds i8, ptr %summ5.i.i.i.i, i64 32
  %27 = getelementptr inbounds i8, ptr %summ5.i.i.i.i, i64 64
  call void @__unsafe_record_block(i32 6, i32 34, i32 0, i16 0, i16 0, i16 0, i16 0, i16 0, i16 0), !dbg !2176
  br label %bb4.i.i.i.i, !dbg !2176

bb4.i.i.i.i:                                      ; preds = %bb45.i.i.i.i, %bb3.i.i.i
  %total_run.sroa.0.0.i.i.i.i = phi i64 [ %_0.sroa.0.1.i.ph.i.i.i.i, %bb45.i.i.i.i ], [ 0, %bb3.i.i.i ], !dbg !2162
  %total_run.sroa.6.0.i.i.i.i = phi i32 [ %_0.sroa.4.1.i.ph.i.i.i.i, %bb45.i.i.i.i ], [ 0, %bb3.i.i.i ], !dbg !2162
  %n.sroa.0.0.i.i.i.i = phi i64 [ %_61.i.i.i.i, %bb45.i.i.i.i ], [ %_0.sroa.0.0.sroa.speculated.i61.i.i.i.i, %bb3.i.i.i ], !dbg !2162
  call void @llvm.dbg.value(metadata i32 %total_run.sroa.6.0.i.i.i.i, metadata !2050, metadata !DIExpression(DW_OP_LLVM_fragment, 64, 32)), !dbg !2174
  call void @llvm.dbg.value(metadata i64 %total_run.sroa.0.0.i.i.i.i, metadata !2050, metadata !DIExpression(DW_OP_LLVM_fragment, 0, 64)), !dbg !2174
  call void @llvm.dbg.value(metadata i64 %n.sroa.0.0.i.i.i.i, metadata !2048, metadata !DIExpression()), !dbg !2162
  call void @llvm.lifetime.start.p0(i64 16, ptr nonnull %loop_start.i.i.i.i), !dbg !2177, !noalias !2127
; call std::time::Instant::now
  %28 = call { i64, i32 } @_ZN3std4time7Instant3now17hdd57daf13a49b9b5E(), !dbg !2178, !noalias !2127
  %29 = extractvalue { i64, i32 } %28, 0, !dbg !2178
  %30 = extractvalue { i64, i32 } %28, 1, !dbg !2178
  store i64 %29, ptr %loop_start.i.i.i.i, align 8, !dbg !2178, !noalias !2127
  store i32 %30, ptr %21, align 8, !dbg !2178, !noalias !2127
  call void @llvm.dbg.value(metadata ptr %_11.i.i.i.i, metadata !2056, metadata !DIExpression(DW_OP_LLVM_fragment, 0, 64)), !dbg !2179
  call void @llvm.dbg.value(metadata ptr %_11.i.i.i.i, metadata !2056, metadata !DIExpression(DW_OP_plus_uconst, 400, DW_OP_stack_value, DW_OP_LLVM_fragment, 64, 64)), !dbg !2179
  call void @llvm.dbg.value(metadata ptr undef, metadata !1012, metadata !DIExpression()), !dbg !2180
  call void @llvm.dbg.value(metadata ptr undef, metadata !1037, metadata !DIExpression()), !dbg !2182
  call void @llvm.dbg.value(metadata ptr %_11.i.i.i.i, metadata !1033, metadata !DIExpression(DW_OP_plus_uconst, 400, DW_OP_stack_value)), !dbg !2184
  call void @llvm.dbg.value(metadata ptr undef, metadata !1047, metadata !DIExpression()), !dbg !2185
  call void @llvm.dbg.value(metadata ptr undef, metadata !1056, metadata !DIExpression()), !dbg !2185
  %_131.not.i.i.i.i.i = icmp eq i64 %n.sroa.0.0.i.i.i.i, 0
  %_22.i.i.i.i = uitofp i64 %n.sroa.0.0.i.i.i.i to double
  call void @__unsafe_record_block(i32 6, i32 12, i32 0, i16 0, i16 0, i16 0, i16 0, i16 0, i16 0), !dbg !2187
  br i1 %_131.not.i.i.i.i.i, label %bb9.us.i.i.i.i, label %bb9.i.i.i.i, !dbg !2187

bb9.us.i.i.i.i:                                   ; preds = %bb4.i.i.i.i, %bb9.us.i.i.i.i
  %iter.sroa.0.0.ptr12.us.i.i.i.i = phi ptr [ %iter.sroa.0.0.ptr.us.i.i.i.i, %bb9.us.i.i.i.i ], [ %_11.i.i.i.i, %bb4.i.i.i.i ]
  %iter.sroa.0.0.idx11.us.i.i.i.i = phi i64 [ %iter.sroa.0.0.add.us.i.i.i.i, %bb9.us.i.i.i.i ], [ 0, %bb4.i.i.i.i ]
  call void @llvm.dbg.value(metadata ptr undef, metadata !1063, metadata !DIExpression()), !dbg !2191
  call void @llvm.dbg.value(metadata i64 1, metadata !1069, metadata !DIExpression()), !dbg !2191
  call void @llvm.dbg.value(metadata i64 1, metadata !1080, metadata !DIExpression()), !dbg !2193
  call void @llvm.dbg.value(metadata ptr %iter.sroa.0.0.ptr12.us.i.i.i.i, metadata !1070, metadata !DIExpression()), !dbg !2195
  call void @llvm.dbg.value(metadata ptr undef, metadata !1075, metadata !DIExpression(DW_OP_plus_uconst, 8, DW_OP_stack_value)), !dbg !2196
  call void @llvm.dbg.value(metadata ptr %iter.sroa.0.0.ptr12.us.i.i.i.i, metadata !1087, metadata !DIExpression()), !dbg !2193
  %iter.sroa.0.0.add.us.i.i.i.i = add nuw nsw i64 %iter.sroa.0.0.idx11.us.i.i.i.i, 8, !dbg !2197
  call void @llvm.dbg.value(metadata !DIArgList(ptr %_11.i.i.i.i, i64 %iter.sroa.0.0.add.us.i.i.i.i), metadata !2056, metadata !DIExpression(DW_OP_LLVM_arg, 0, DW_OP_LLVM_arg, 1, DW_OP_constu, 1, DW_OP_mul, DW_OP_plus, DW_OP_stack_value, DW_OP_LLVM_fragment, 0, 64)), !dbg !2179
  call void @llvm.dbg.value(metadata ptr %iter.sroa.0.0.ptr12.us.i.i.i.i, metadata !2058, metadata !DIExpression()), !dbg !2198
  call void @llvm.dbg.value(metadata ptr undef, metadata !1957, metadata !DIExpression()), !dbg !2199
  call void @llvm.dbg.value(metadata i64 %n.sroa.0.0.i.i.i.i, metadata !1963, metadata !DIExpression()), !dbg !2199
  call void @llvm.dbg.declare(metadata ptr %start1.i63.i.i.i.i, metadata !1964, metadata !DIExpression()), !dbg !2200
  call void @llvm.lifetime.start.p0(i64 16, ptr nonnull %start1.i63.i.i.i.i), !dbg !2201, !noalias !2127
; call std::time::Instant::now
  %31 = call { i64, i32 } @_ZN3std4time7Instant3now17hdd57daf13a49b9b5E(), !dbg !2202, !noalias !2127
  %32 = extractvalue { i64, i32 } %31, 0, !dbg !2202
  %33 = extractvalue { i64, i32 } %31, 1, !dbg !2202
  store i64 %32, ptr %start1.i63.i.i.i.i, align 8, !dbg !2202, !noalias !2127
  store i32 %33, ptr %22, align 8, !dbg !2202, !noalias !2127
  call void @llvm.dbg.value(metadata i64 0, metadata !1966, metadata !DIExpression(DW_OP_LLVM_fragment, 0, 64)), !dbg !2203
  call void @llvm.dbg.value(metadata i64 %n.sroa.0.0.i.i.i.i, metadata !1966, metadata !DIExpression(DW_OP_LLVM_fragment, 64, 64)), !dbg !2203
  call void @llvm.dbg.value(metadata ptr undef, metadata !1975, metadata !DIExpression()), !dbg !2204
  call void @llvm.dbg.value(metadata ptr undef, metadata !1981, metadata !DIExpression()), !dbg !2205
  call void @llvm.dbg.value(metadata ptr undef, metadata !1989, metadata !DIExpression()), !dbg !2206
  call void @llvm.dbg.value(metadata ptr poison, metadata !1993, metadata !DIExpression()), !dbg !2206
; call std::time::Instant::elapsed
  %34 = call { i64, i32 } @_ZN3std4time7Instant7elapsed17hee9bf90f3e35a175E(ptr noalias noundef nonnull readonly align 8 dereferenceable(16) %start1.i63.i.i.i.i), !dbg !2208, !noalias !2127
  %35 = extractvalue { i64, i32 } %34, 0, !dbg !2208
  %36 = extractvalue { i64, i32 } %34, 1, !dbg !2208
  call void @llvm.dbg.value(metadata ptr undef, metadata !2029, metadata !DIExpression()), !dbg !2209
  %_20.i69.us.i.i.i.i = mul i64 %35, 1000000000, !dbg !2211
  %_23.i70.us.i.i.i.i = zext i32 %36 to i64, !dbg !2212
  %_9.i71.us.i.i.i.i = add i64 %_20.i69.us.i.i.i.i, %_23.i70.us.i.i.i.i, !dbg !2211
  call void @llvm.lifetime.end.p0(i64 16, ptr nonnull %start1.i63.i.i.i.i), !dbg !2213, !noalias !2127
  %_19.us.i.i.i.i = uitofp i64 %_9.i71.us.i.i.i.i to double, !dbg !2214
  %37 = fdiv double %_19.us.i.i.i.i, %_22.i.i.i.i, !dbg !2215
  store double %37, ptr %iter.sroa.0.0.ptr12.us.i.i.i.i, align 8, !dbg !2215, !noalias !2127
  %iter.sroa.0.0.ptr.us.i.i.i.i = getelementptr inbounds i8, ptr %_11.i.i.i.i, i64 %iter.sroa.0.0.add.us.i.i.i.i, !dbg !2216
  call void @llvm.dbg.value(metadata ptr %iter.sroa.0.0.ptr.us.i.i.i.i, metadata !2056, metadata !DIExpression(DW_OP_LLVM_fragment, 0, 64)), !dbg !2179
  call void @llvm.dbg.value(metadata ptr undef, metadata !1012, metadata !DIExpression()), !dbg !2180
  call void @llvm.dbg.value(metadata ptr undef, metadata !1037, metadata !DIExpression()), !dbg !2182
  call void @llvm.dbg.value(metadata ptr %_11.i.i.i.i, metadata !1033, metadata !DIExpression(DW_OP_plus_uconst, 400, DW_OP_stack_value)), !dbg !2184
  call void @llvm.dbg.value(metadata ptr undef, metadata !1047, metadata !DIExpression()), !dbg !2185
  call void @llvm.dbg.value(metadata ptr undef, metadata !1056, metadata !DIExpression()), !dbg !2185
  %38 = icmp eq i64 %iter.sroa.0.0.add.us.i.i.i.i, 400, !dbg !2216
  call void @__unsafe_record_block(i32 6, i32 22, i32 0, i16 0, i16 0, i16 0, i16 0, i16 0, i16 0), !dbg !2217
  br i1 %38, label %bb10.i.i.i.i, label %bb9.us.i.i.i.i, !dbg !2217

bb10.i.i.i.i:                                     ; preds = %_ZN4test5bench13ns_iter_inner17hafa10ec08f214757E.exit72.loopexit.i.i.i.i, %bb9.us.i.i.i.i
  call void @llvm.dbg.value(metadata ptr poison, metadata !2056, metadata !DIExpression(DW_OP_LLVM_fragment, 0, 64)), !dbg !2179
; call test::stats::winsorize
  call void @_ZN4test5stats9winsorize17hcba48655fae00e38E(ptr noalias noundef nonnull align 8 %_11.i.i.i.i, i64 noundef 50, double noundef 5.000000e+00), !dbg !2218, !noalias !2127
  call void @llvm.lifetime.start.p0(i64 112, ptr nonnull %summ.i.i.i.i), !dbg !2219, !noalias !2127
; call test::stats::Summary::new
  call void @_ZN4test5stats7Summary3new17he2db34ca48eb410fE(ptr noalias nocapture noundef nonnull sret([112 x i8]) align 8 dereferenceable(112) %summ.i.i.i.i, ptr noalias noundef nonnull readonly align 8 %_11.i.i.i.i, i64 noundef 50), !dbg !2220, !noalias !2127
  call void @llvm.dbg.value(metadata ptr %_11.i.i.i.i, metadata !2062, metadata !DIExpression(DW_OP_LLVM_fragment, 0, 64)), !dbg !2221
  call void @llvm.dbg.value(metadata ptr %_11.i.i.i.i, metadata !2062, metadata !DIExpression(DW_OP_plus_uconst, 400, DW_OP_stack_value, DW_OP_LLVM_fragment, 64, 64)), !dbg !2221
  %_34.i.i.i.i = mul i64 %n.sroa.0.0.i.i.i.i, 5
  call void @llvm.dbg.value(metadata ptr %_11.i.i.i.i, metadata !2062, metadata !DIExpression(DW_OP_LLVM_fragment, 0, 64)), !dbg !2221
  call void @llvm.dbg.value(metadata ptr undef, metadata !1012, metadata !DIExpression()), !dbg !2222
  call void @llvm.dbg.value(metadata ptr undef, metadata !1037, metadata !DIExpression()), !dbg !2224
  call void @llvm.dbg.value(metadata ptr %_11.i.i.i.i, metadata !1033, metadata !DIExpression(DW_OP_plus_uconst, 400, DW_OP_stack_value)), !dbg !2226
  call void @llvm.dbg.value(metadata ptr undef, metadata !1047, metadata !DIExpression()), !dbg !2227
  call void @llvm.dbg.value(metadata ptr undef, metadata !1056, metadata !DIExpression()), !dbg !2227
  %_37.i.i.i.i = uitofp i64 %_34.i.i.i.i to double
  call void @__unsafe_record_block(i32 6, i32 6, i32 0, i16 0, i16 0, i16 0, i16 0, i16 0, i16 0), !dbg !2229
  br i1 %_131.not.i.i.i.i.i, label %bb16.us.i.i.i.i, label %bb16.i.i.i.i, !dbg !2229

bb16.us.i.i.i.i:                                  ; preds = %bb10.i.i.i.i, %bb16.us.i.i.i.i
  %iter5.sroa.0.0.ptr14.us.i.i.i.i = phi ptr [ %iter5.sroa.0.0.ptr.us.i.i.i.i, %bb16.us.i.i.i.i ], [ %_11.i.i.i.i, %bb10.i.i.i.i ]
  %iter5.sroa.0.0.idx13.us.i.i.i.i = phi i64 [ %iter5.sroa.0.0.add.us.i.i.i.i, %bb16.us.i.i.i.i ], [ 0, %bb10.i.i.i.i ]
  call void @llvm.dbg.value(metadata ptr undef, metadata !1063, metadata !DIExpression()), !dbg !2233
  call void @llvm.dbg.value(metadata i64 1, metadata !1069, metadata !DIExpression()), !dbg !2233
  call void @llvm.dbg.value(metadata i64 1, metadata !1080, metadata !DIExpression()), !dbg !2235
  call void @llvm.dbg.value(metadata ptr %iter5.sroa.0.0.ptr14.us.i.i.i.i, metadata !1070, metadata !DIExpression()), !dbg !2237
  call void @llvm.dbg.value(metadata ptr undef, metadata !1075, metadata !DIExpression(DW_OP_plus_uconst, 8, DW_OP_stack_value)), !dbg !2238
  call void @llvm.dbg.value(metadata ptr %iter5.sroa.0.0.ptr14.us.i.i.i.i, metadata !1087, metadata !DIExpression()), !dbg !2235
  %iter5.sroa.0.0.add.us.i.i.i.i = add nuw nsw i64 %iter5.sroa.0.0.idx13.us.i.i.i.i, 8, !dbg !2239
  call void @llvm.dbg.value(metadata !DIArgList(ptr %_11.i.i.i.i, i64 %iter5.sroa.0.0.add.us.i.i.i.i), metadata !2062, metadata !DIExpression(DW_OP_LLVM_arg, 0, DW_OP_LLVM_arg, 1, DW_OP_constu, 1, DW_OP_mul, DW_OP_plus, DW_OP_stack_value, DW_OP_LLVM_fragment, 0, 64)), !dbg !2221
  call void @llvm.dbg.value(metadata ptr %iter5.sroa.0.0.ptr14.us.i.i.i.i, metadata !2064, metadata !DIExpression()), !dbg !2240
  call void @llvm.dbg.value(metadata ptr undef, metadata !1957, metadata !DIExpression()), !dbg !2241
  call void @llvm.dbg.value(metadata i64 %_34.i.i.i.i, metadata !1963, metadata !DIExpression()), !dbg !2241
  call void @llvm.dbg.declare(metadata ptr %start1.i80.i.i.i.i, metadata !1964, metadata !DIExpression()), !dbg !2242
  call void @llvm.lifetime.start.p0(i64 16, ptr nonnull %start1.i80.i.i.i.i), !dbg !2243, !noalias !2127
; call std::time::Instant::now
  %39 = call { i64, i32 } @_ZN3std4time7Instant3now17hdd57daf13a49b9b5E(), !dbg !2244, !noalias !2127
  %40 = extractvalue { i64, i32 } %39, 0, !dbg !2244
  %41 = extractvalue { i64, i32 } %39, 1, !dbg !2244
  store i64 %40, ptr %start1.i80.i.i.i.i, align 8, !dbg !2244, !noalias !2127
  store i32 %41, ptr %23, align 8, !dbg !2244, !noalias !2127
  call void @llvm.dbg.value(metadata i64 0, metadata !1966, metadata !DIExpression(DW_OP_LLVM_fragment, 0, 64)), !dbg !2245
  call void @llvm.dbg.value(metadata i64 %_34.i.i.i.i, metadata !1966, metadata !DIExpression(DW_OP_LLVM_fragment, 64, 64)), !dbg !2245
  call void @llvm.dbg.value(metadata ptr undef, metadata !1975, metadata !DIExpression()), !dbg !2246
  call void @llvm.dbg.value(metadata ptr undef, metadata !1981, metadata !DIExpression()), !dbg !2247
  call void @llvm.dbg.value(metadata ptr undef, metadata !1989, metadata !DIExpression()), !dbg !2248
  call void @llvm.dbg.value(metadata ptr poison, metadata !1993, metadata !DIExpression()), !dbg !2248
; call std::time::Instant::elapsed
  %42 = call { i64, i32 } @_ZN3std4time7Instant7elapsed17hee9bf90f3e35a175E(ptr noalias noundef nonnull readonly align 8 dereferenceable(16) %start1.i80.i.i.i.i), !dbg !2250, !noalias !2127
  %43 = extractvalue { i64, i32 } %42, 0, !dbg !2250
  %44 = extractvalue { i64, i32 } %42, 1, !dbg !2250
  call void @llvm.dbg.value(metadata ptr undef, metadata !2029, metadata !DIExpression()), !dbg !2251
  %_20.i87.us.i.i.i.i = mul i64 %43, 1000000000, !dbg !2253
  %_23.i88.us.i.i.i.i = zext i32 %44 to i64, !dbg !2254
  %_9.i89.us.i.i.i.i = add i64 %_20.i87.us.i.i.i.i, %_23.i88.us.i.i.i.i, !dbg !2253
  call void @llvm.lifetime.end.p0(i64 16, ptr nonnull %start1.i80.i.i.i.i), !dbg !2255, !noalias !2127
  call void @llvm.dbg.value(metadata i64 %_9.i89.us.i.i.i.i, metadata !2066, metadata !DIExpression()), !dbg !2256
  %_36.us.i.i.i.i = uitofp i64 %_9.i89.us.i.i.i.i to double, !dbg !2257
  %45 = fdiv double %_36.us.i.i.i.i, %_37.i.i.i.i, !dbg !2258
  store double %45, ptr %iter5.sroa.0.0.ptr14.us.i.i.i.i, align 8, !dbg !2258, !noalias !2127
  %iter5.sroa.0.0.ptr.us.i.i.i.i = getelementptr inbounds i8, ptr %_11.i.i.i.i, i64 %iter5.sroa.0.0.add.us.i.i.i.i, !dbg !2259
  call void @llvm.dbg.value(metadata ptr %iter5.sroa.0.0.ptr.us.i.i.i.i, metadata !2062, metadata !DIExpression(DW_OP_LLVM_fragment, 0, 64)), !dbg !2221
  call void @llvm.dbg.value(metadata ptr undef, metadata !1012, metadata !DIExpression()), !dbg !2222
  call void @llvm.dbg.value(metadata ptr undef, metadata !1037, metadata !DIExpression()), !dbg !2224
  call void @llvm.dbg.value(metadata ptr %_11.i.i.i.i, metadata !1033, metadata !DIExpression(DW_OP_plus_uconst, 400, DW_OP_stack_value)), !dbg !2226
  call void @llvm.dbg.value(metadata ptr undef, metadata !1047, metadata !DIExpression()), !dbg !2227
  call void @llvm.dbg.value(metadata ptr undef, metadata !1056, metadata !DIExpression()), !dbg !2227
  %46 = icmp eq i64 %iter5.sroa.0.0.add.us.i.i.i.i, 400, !dbg !2259
  call void @__unsafe_record_block(i32 6, i32 22, i32 0, i16 0, i16 0, i16 0, i16 0, i16 0, i16 0), !dbg !2260
  br i1 %46, label %bb17.i.i.i.i, label %bb16.us.i.i.i.i, !dbg !2260

bb9.i.i.i.i:                                      ; preds = %bb4.i.i.i.i, %_ZN4test5bench13ns_iter_inner17hafa10ec08f214757E.exit72.loopexit.i.i.i.i
  %iter.sroa.0.0.ptr12.i.i.i.i = phi ptr [ %iter.sroa.0.0.ptr.i.i.i.i, %_ZN4test5bench13ns_iter_inner17hafa10ec08f214757E.exit72.loopexit.i.i.i.i ], [ %_11.i.i.i.i, %bb4.i.i.i.i ]
  %iter.sroa.0.0.idx11.i.i.i.i = phi i64 [ %iter.sroa.0.0.add.i.i.i.i, %_ZN4test5bench13ns_iter_inner17hafa10ec08f214757E.exit72.loopexit.i.i.i.i ], [ 0, %bb4.i.i.i.i ]
  call void @llvm.dbg.value(metadata ptr undef, metadata !1063, metadata !DIExpression()), !dbg !2191
  call void @llvm.dbg.value(metadata i64 1, metadata !1069, metadata !DIExpression()), !dbg !2191
  call void @llvm.dbg.value(metadata i64 1, metadata !1080, metadata !DIExpression()), !dbg !2193
  call void @llvm.dbg.value(metadata ptr %iter.sroa.0.0.ptr12.i.i.i.i, metadata !1070, metadata !DIExpression()), !dbg !2195
  call void @llvm.dbg.value(metadata ptr undef, metadata !1075, metadata !DIExpression(DW_OP_plus_uconst, 8, DW_OP_stack_value)), !dbg !2196
  call void @llvm.dbg.value(metadata ptr %iter.sroa.0.0.ptr12.i.i.i.i, metadata !1087, metadata !DIExpression()), !dbg !2193
  call void @llvm.dbg.value(metadata !DIArgList(ptr %_11.i.i.i.i, i64 %iter.sroa.0.0.add.i.i.i.i), metadata !2056, metadata !DIExpression(DW_OP_LLVM_arg, 0, DW_OP_LLVM_arg, 1, DW_OP_constu, 1, DW_OP_mul, DW_OP_plus, DW_OP_stack_value, DW_OP_LLVM_fragment, 0, 64)), !dbg !2179
  call void @llvm.dbg.value(metadata ptr %iter.sroa.0.0.ptr12.i.i.i.i, metadata !2058, metadata !DIExpression()), !dbg !2198
  call void @llvm.dbg.value(metadata ptr undef, metadata !1957, metadata !DIExpression()), !dbg !2199
  call void @llvm.dbg.value(metadata i64 %n.sroa.0.0.i.i.i.i, metadata !1963, metadata !DIExpression()), !dbg !2199
  call void @llvm.dbg.declare(metadata ptr %start1.i63.i.i.i.i, metadata !1964, metadata !DIExpression()), !dbg !2200
  call void @llvm.lifetime.start.p0(i64 16, ptr nonnull %start1.i63.i.i.i.i), !dbg !2201, !noalias !2127
; call std::time::Instant::now
  %47 = call { i64, i32 } @_ZN3std4time7Instant3now17hdd57daf13a49b9b5E(), !dbg !2202, !noalias !2127
  %48 = extractvalue { i64, i32 } %47, 0, !dbg !2202
  %49 = extractvalue { i64, i32 } %47, 1, !dbg !2202
  store i64 %48, ptr %start1.i63.i.i.i.i, align 8, !dbg !2202, !noalias !2127
  store i32 %49, ptr %22, align 8, !dbg !2202, !noalias !2127
  call void @llvm.dbg.value(metadata i64 0, metadata !1966, metadata !DIExpression(DW_OP_LLVM_fragment, 0, 64)), !dbg !2203
  call void @llvm.dbg.value(metadata i64 %n.sroa.0.0.i.i.i.i, metadata !1966, metadata !DIExpression(DW_OP_LLVM_fragment, 64, 64)), !dbg !2203
  call void @llvm.dbg.value(metadata ptr undef, metadata !1975, metadata !DIExpression()), !dbg !2204
  call void @llvm.dbg.value(metadata ptr undef, metadata !1981, metadata !DIExpression()), !dbg !2205
  call void @llvm.dbg.value(metadata ptr undef, metadata !1989, metadata !DIExpression()), !dbg !2206
  call void @llvm.dbg.value(metadata ptr poison, metadata !1993, metadata !DIExpression()), !dbg !2206
  call void @__unsafe_record_block(i32 6, i32 9, i32 0, i16 0, i16 0, i16 0, i16 0, i16 0, i16 0), !dbg !2187
  br label %bb6.i64.i.i.i.i, !dbg !2187

bb6.i64.i.i.i.i:                                  ; preds = %bb6.i64.i.i.i.i, %bb9.i.i.i.i
  %iter.sroa.0.02.i65.i.i.i.i = phi i64 [ %_0.i.i66.i.i.i.i, %bb6.i64.i.i.i.i ], [ 0, %bb9.i.i.i.i ]
  call void @llvm.dbg.value(metadata i64 %iter.sroa.0.02.i65.i.i.i.i, metadata !1966, metadata !DIExpression(DW_OP_LLVM_fragment, 0, 64)), !dbg !2203
  call void @llvm.dbg.value(metadata i64 %iter.sroa.0.02.i65.i.i.i.i, metadata !1985, metadata !DIExpression()), !dbg !2261
  call void @llvm.dbg.value(metadata i64 %iter.sroa.0.02.i65.i.i.i.i, metadata !559, metadata !DIExpression()), !dbg !2262
  call void @llvm.dbg.value(metadata i64 %iter.sroa.0.02.i65.i.i.i.i, metadata !568, metadata !DIExpression()), !dbg !2264
  call void @llvm.dbg.value(metadata i64 1, metadata !565, metadata !DIExpression()), !dbg !2262
  call void @llvm.dbg.value(metadata i64 1, metadata !576, metadata !DIExpression()), !dbg !2264
  %_0.i.i66.i.i.i.i = add nuw i64 %iter.sroa.0.02.i65.i.i.i.i, 1, !dbg !2266
  call void @llvm.dbg.value(metadata i64 %_0.i.i66.i.i.i.i, metadata !1966, metadata !DIExpression(DW_OP_LLVM_fragment, 0, 64)), !dbg !2203
  call void @llvm.dbg.value(metadata ptr undef, metadata !2001, metadata !DIExpression()), !dbg !2267
  call void @llvm.dbg.declare(metadata ptr undef, metadata !2006, metadata !DIExpression()), !dbg !2269
; call buffer::bench_u32_via_fill::inner
  %_0.i6.i67.i.i.i.i = call fastcc noundef i32 @_ZN6buffer18bench_u32_via_fill5inner17h4508a63ffb276eb4E(), !dbg !2269, !noalias !2127
  call void @llvm.dbg.value(metadata i32 %_0.i6.i67.i.i.i.i, metadata !2012, metadata !DIExpression()), !dbg !2270
  call void @llvm.dbg.value(metadata i32 %_0.i6.i67.i.i.i.i, metadata !2021, metadata !DIExpression()), !dbg !2272
  call void @llvm.lifetime.start.p0(i64 4, ptr nonnull %2), !dbg !2274, !noalias !2127
  store i32 %_0.i6.i67.i.i.i.i, ptr %2, align 4, !dbg !2274, !noalias !2127
  call void asm sideeffect "", "r,~{memory}"(ptr nonnull %2) #13, !dbg !2274, !noalias !2127, !srcloc !213
  call void @llvm.lifetime.end.p0(i64 4, ptr nonnull %2), !dbg !2274, !noalias !2127
  call void @llvm.dbg.value(metadata ptr undef, metadata !1975, metadata !DIExpression()), !dbg !2204
  call void @llvm.dbg.value(metadata ptr undef, metadata !1981, metadata !DIExpression()), !dbg !2205
  call void @llvm.dbg.value(metadata ptr undef, metadata !1989, metadata !DIExpression()), !dbg !2206
  call void @llvm.dbg.value(metadata ptr poison, metadata !1993, metadata !DIExpression()), !dbg !2206
  %exitcond.not.i68.i.i.i.i = icmp eq i64 %_0.i.i66.i.i.i.i, %n.sroa.0.0.i.i.i.i, !dbg !2275
  call void @__unsafe_record_block(i32 6, i32 9, i32 0, i16 0, i16 0, i16 0, i16 0, i16 0, i16 0), !dbg !2187
  br i1 %exitcond.not.i68.i.i.i.i, label %_ZN4test5bench13ns_iter_inner17hafa10ec08f214757E.exit72.loopexit.i.i.i.i, label %bb6.i64.i.i.i.i, !dbg !2187

_ZN4test5bench13ns_iter_inner17hafa10ec08f214757E.exit72.loopexit.i.i.i.i: ; preds = %bb6.i64.i.i.i.i
  %iter.sroa.0.0.add.i.i.i.i = add nuw nsw i64 %iter.sroa.0.0.idx11.i.i.i.i, 8, !dbg !2197
; call std::time::Instant::elapsed
  %50 = call { i64, i32 } @_ZN3std4time7Instant7elapsed17hee9bf90f3e35a175E(ptr noalias noundef nonnull readonly align 8 dereferenceable(16) %start1.i63.i.i.i.i), !dbg !2208, !noalias !2127
  %51 = extractvalue { i64, i32 } %50, 0, !dbg !2208
  %52 = extractvalue { i64, i32 } %50, 1, !dbg !2208
  call void @llvm.dbg.value(metadata ptr undef, metadata !2029, metadata !DIExpression()), !dbg !2209
  %_20.i69.i.i.i.i = mul i64 %51, 1000000000, !dbg !2211
  %_23.i70.i.i.i.i = zext i32 %52 to i64, !dbg !2212
  %_9.i71.i.i.i.i = add i64 %_20.i69.i.i.i.i, %_23.i70.i.i.i.i, !dbg !2211
  call void @llvm.lifetime.end.p0(i64 16, ptr nonnull %start1.i63.i.i.i.i), !dbg !2213, !noalias !2127
  %_19.i.i.i.i = uitofp i64 %_9.i71.i.i.i.i to double, !dbg !2214
  %53 = fdiv double %_19.i.i.i.i, %_22.i.i.i.i, !dbg !2215
  store double %53, ptr %iter.sroa.0.0.ptr12.i.i.i.i, align 8, !dbg !2215, !noalias !2127
  %iter.sroa.0.0.ptr.i.i.i.i = getelementptr inbounds i8, ptr %_11.i.i.i.i, i64 %iter.sroa.0.0.add.i.i.i.i, !dbg !2216
  call void @llvm.dbg.value(metadata ptr %iter.sroa.0.0.ptr.i.i.i.i, metadata !2056, metadata !DIExpression(DW_OP_LLVM_fragment, 0, 64)), !dbg !2179
  call void @llvm.dbg.value(metadata ptr undef, metadata !1012, metadata !DIExpression()), !dbg !2180
  call void @llvm.dbg.value(metadata ptr undef, metadata !1037, metadata !DIExpression()), !dbg !2182
  call void @llvm.dbg.value(metadata ptr %_11.i.i.i.i, metadata !1033, metadata !DIExpression(DW_OP_plus_uconst, 400, DW_OP_stack_value)), !dbg !2184
  call void @llvm.dbg.value(metadata ptr undef, metadata !1047, metadata !DIExpression()), !dbg !2185
  call void @llvm.dbg.value(metadata ptr undef, metadata !1056, metadata !DIExpression()), !dbg !2185
  %54 = icmp eq i64 %iter.sroa.0.0.add.i.i.i.i, 400, !dbg !2216
  call void @__unsafe_record_block(i32 6, i32 14, i32 0, i16 0, i16 0, i16 0, i16 0, i16 0, i16 0), !dbg !2217
  br i1 %54, label %bb10.i.i.i.i, label %bb9.i.i.i.i, !dbg !2217

bb17.i.i.i.i:                                     ; preds = %_ZN4test5bench13ns_iter_inner17hafa10ec08f214757E.exit90.loopexit.i.i.i.i, %bb16.us.i.i.i.i
  call void @llvm.dbg.value(metadata ptr poison, metadata !2062, metadata !DIExpression(DW_OP_LLVM_fragment, 0, 64)), !dbg !2221
; call test::stats::winsorize
  call void @_ZN4test5stats9winsorize17hcba48655fae00e38E(ptr noalias noundef nonnull align 8 %_11.i.i.i.i, i64 noundef 50, double noundef 5.000000e+00), !dbg !2276, !noalias !2127
; call test::stats::Summary::new
  call void @_ZN4test5stats7Summary3new17he2db34ca48eb410fE(ptr noalias nocapture noundef nonnull sret([112 x i8]) align 8 dereferenceable(112) %summ5.i.i.i.i, ptr noalias noundef nonnull readonly align 8 %_11.i.i.i.i, i64 noundef 50), !dbg !2277, !noalias !2127
; call std::time::Instant::elapsed
  %55 = call { i64, i32 } @_ZN3std4time7Instant7elapsed17hee9bf90f3e35a175E(ptr noalias noundef nonnull readonly align 8 dereferenceable(16) %loop_start.i.i.i.i), !dbg !2278, !noalias !2127
  %56 = extractvalue { i64, i32 } %55, 0, !dbg !2278
  %57 = extractvalue { i64, i32 } %55, 1, !dbg !2278
  call void @llvm.dbg.value(metadata i64 %56, metadata !2070, metadata !DIExpression(DW_OP_LLVM_fragment, 0, 64)), !dbg !2279
  call void @llvm.dbg.value(metadata i64 %56, metadata !2092, metadata !DIExpression(DW_OP_LLVM_fragment, 0, 64)), !dbg !2280
  call void @llvm.dbg.value(metadata i64 %56, metadata !2086, metadata !DIExpression(DW_OP_LLVM_fragment, 0, 64)), !dbg !2281
  call void @llvm.dbg.value(metadata i32 %57, metadata !2070, metadata !DIExpression(DW_OP_LLVM_fragment, 64, 32)), !dbg !2279
  call void @llvm.dbg.value(metadata i32 %57, metadata !2092, metadata !DIExpression(DW_OP_LLVM_fragment, 64, 32)), !dbg !2280
  call void @llvm.dbg.value(metadata i32 %57, metadata !2086, metadata !DIExpression(DW_OP_LLVM_fragment, 64, 32)), !dbg !2281
  call void @llvm.dbg.value(metadata ptr undef, metadata !2282, metadata !DIExpression()), !dbg !2290
  call void @llvm.dbg.value(metadata ptr undef, metadata !2292, metadata !DIExpression()), !dbg !2304
  call void @llvm.dbg.value(metadata ptr undef, metadata !2286, metadata !DIExpression()), !dbg !2290
  call void @llvm.dbg.value(metadata ptr undef, metadata !2296, metadata !DIExpression()), !dbg !2304
  call void @llvm.dbg.value(metadata ptr undef, metadata !2306, metadata !DIExpression()), !dbg !2314
  call void @llvm.dbg.value(metadata ptr undef, metadata !2310, metadata !DIExpression()), !dbg !2314
  %.not.not.i.i.i.i = icmp ne i64 %56, 0, !dbg !2316
  %_459.i.i.i.i = icmp ugt i32 %57, 100000000, !dbg !2317
  %_45.i.i.i.i = select i1 %.not.not.i.i.i.i, i1 true, i1 %_459.i.i.i.i, !dbg !2317
  %_50.i.i.i.i = load double, ptr %24, align 8, !noalias !2127
  %_49.i.i.i.i = fcmp olt double %_50.i.i.i.i, 1.000000e+00
  %or.cond.i.i.i.i = select i1 %_45.i.i.i.i, i1 %_49.i.i.i.i, i1 false, !dbg !2319
  call void @__unsafe_record_block(i32 6, i32 12, i32 0, i16 0, i16 0, i16 0, i16 0, i16 0, i16 0), !dbg !2319
  br i1 %or.cond.i.i.i.i, label %bb23.i.i.i.i, label %bb28.i.i.i.i, !dbg !2319

bb16.i.i.i.i:                                     ; preds = %bb10.i.i.i.i, %_ZN4test5bench13ns_iter_inner17hafa10ec08f214757E.exit90.loopexit.i.i.i.i
  %iter5.sroa.0.0.ptr14.i.i.i.i = phi ptr [ %iter5.sroa.0.0.ptr.i.i.i.i, %_ZN4test5bench13ns_iter_inner17hafa10ec08f214757E.exit90.loopexit.i.i.i.i ], [ %_11.i.i.i.i, %bb10.i.i.i.i ]
  %iter5.sroa.0.0.idx13.i.i.i.i = phi i64 [ %iter5.sroa.0.0.add.i.i.i.i, %_ZN4test5bench13ns_iter_inner17hafa10ec08f214757E.exit90.loopexit.i.i.i.i ], [ 0, %bb10.i.i.i.i ]
  call void @llvm.dbg.value(metadata ptr undef, metadata !1063, metadata !DIExpression()), !dbg !2233
  call void @llvm.dbg.value(metadata i64 1, metadata !1069, metadata !DIExpression()), !dbg !2233
  call void @llvm.dbg.value(metadata i64 1, metadata !1080, metadata !DIExpression()), !dbg !2235
  call void @llvm.dbg.value(metadata ptr %iter5.sroa.0.0.ptr14.i.i.i.i, metadata !1070, metadata !DIExpression()), !dbg !2237
  call void @llvm.dbg.value(metadata ptr undef, metadata !1075, metadata !DIExpression(DW_OP_plus_uconst, 8, DW_OP_stack_value)), !dbg !2238
  call void @llvm.dbg.value(metadata ptr %iter5.sroa.0.0.ptr14.i.i.i.i, metadata !1087, metadata !DIExpression()), !dbg !2235
  call void @llvm.dbg.value(metadata !DIArgList(ptr %_11.i.i.i.i, i64 %iter5.sroa.0.0.add.i.i.i.i), metadata !2062, metadata !DIExpression(DW_OP_LLVM_arg, 0, DW_OP_LLVM_arg, 1, DW_OP_constu, 1, DW_OP_mul, DW_OP_plus, DW_OP_stack_value, DW_OP_LLVM_fragment, 0, 64)), !dbg !2221
  call void @llvm.dbg.value(metadata ptr %iter5.sroa.0.0.ptr14.i.i.i.i, metadata !2064, metadata !DIExpression()), !dbg !2240
  call void @llvm.dbg.value(metadata ptr undef, metadata !1957, metadata !DIExpression()), !dbg !2241
  call void @llvm.dbg.value(metadata i64 %_34.i.i.i.i, metadata !1963, metadata !DIExpression()), !dbg !2241
  call void @llvm.dbg.declare(metadata ptr %start1.i80.i.i.i.i, metadata !1964, metadata !DIExpression()), !dbg !2242
  call void @llvm.lifetime.start.p0(i64 16, ptr nonnull %start1.i80.i.i.i.i), !dbg !2243, !noalias !2127
; call std::time::Instant::now
  %58 = call { i64, i32 } @_ZN3std4time7Instant3now17hdd57daf13a49b9b5E(), !dbg !2244, !noalias !2127
  %59 = extractvalue { i64, i32 } %58, 0, !dbg !2244
  %60 = extractvalue { i64, i32 } %58, 1, !dbg !2244
  store i64 %59, ptr %start1.i80.i.i.i.i, align 8, !dbg !2244, !noalias !2127
  store i32 %60, ptr %23, align 8, !dbg !2244, !noalias !2127
  call void @llvm.dbg.value(metadata i64 0, metadata !1966, metadata !DIExpression(DW_OP_LLVM_fragment, 0, 64)), !dbg !2245
  call void @llvm.dbg.value(metadata i64 %_34.i.i.i.i, metadata !1966, metadata !DIExpression(DW_OP_LLVM_fragment, 64, 64)), !dbg !2245
  call void @llvm.dbg.value(metadata ptr undef, metadata !1975, metadata !DIExpression()), !dbg !2246
  call void @llvm.dbg.value(metadata ptr undef, metadata !1981, metadata !DIExpression()), !dbg !2247
  call void @llvm.dbg.value(metadata ptr undef, metadata !1989, metadata !DIExpression()), !dbg !2248
  call void @llvm.dbg.value(metadata ptr poison, metadata !1993, metadata !DIExpression()), !dbg !2248
  call void @__unsafe_record_block(i32 6, i32 9, i32 0, i16 0, i16 0, i16 0, i16 0, i16 0, i16 0), !dbg !2229
  br label %bb6.i82.i.i.i.i, !dbg !2229

bb6.i82.i.i.i.i:                                  ; preds = %bb6.i82.i.i.i.i, %bb16.i.i.i.i
  %iter.sroa.0.02.i83.i.i.i.i = phi i64 [ %_0.i.i84.i.i.i.i, %bb6.i82.i.i.i.i ], [ 0, %bb16.i.i.i.i ]
  call void @llvm.dbg.value(metadata i64 %iter.sroa.0.02.i83.i.i.i.i, metadata !1966, metadata !DIExpression(DW_OP_LLVM_fragment, 0, 64)), !dbg !2245
  call void @llvm.dbg.value(metadata i64 %iter.sroa.0.02.i83.i.i.i.i, metadata !1985, metadata !DIExpression()), !dbg !2320
  call void @llvm.dbg.value(metadata i64 %iter.sroa.0.02.i83.i.i.i.i, metadata !559, metadata !DIExpression()), !dbg !2321
  call void @llvm.dbg.value(metadata i64 %iter.sroa.0.02.i83.i.i.i.i, metadata !568, metadata !DIExpression()), !dbg !2323
  call void @llvm.dbg.value(metadata i64 1, metadata !565, metadata !DIExpression()), !dbg !2321
  call void @llvm.dbg.value(metadata i64 1, metadata !576, metadata !DIExpression()), !dbg !2323
  %_0.i.i84.i.i.i.i = add nuw i64 %iter.sroa.0.02.i83.i.i.i.i, 1, !dbg !2325
  call void @llvm.dbg.value(metadata i64 %_0.i.i84.i.i.i.i, metadata !1966, metadata !DIExpression(DW_OP_LLVM_fragment, 0, 64)), !dbg !2245
  call void @llvm.dbg.value(metadata ptr undef, metadata !2001, metadata !DIExpression()), !dbg !2326
  call void @llvm.dbg.declare(metadata ptr undef, metadata !2006, metadata !DIExpression()), !dbg !2328
; call buffer::bench_u32_via_fill::inner
  %_0.i6.i85.i.i.i.i = call fastcc noundef i32 @_ZN6buffer18bench_u32_via_fill5inner17h4508a63ffb276eb4E(), !dbg !2328, !noalias !2127
  call void @llvm.dbg.value(metadata i32 %_0.i6.i85.i.i.i.i, metadata !2012, metadata !DIExpression()), !dbg !2329
  call void @llvm.dbg.value(metadata i32 %_0.i6.i85.i.i.i.i, metadata !2021, metadata !DIExpression()), !dbg !2331
  call void @llvm.lifetime.start.p0(i64 4, ptr nonnull %1), !dbg !2333, !noalias !2127
  store i32 %_0.i6.i85.i.i.i.i, ptr %1, align 4, !dbg !2333, !noalias !2127
  call void asm sideeffect "", "r,~{memory}"(ptr nonnull %1) #13, !dbg !2333, !noalias !2127, !srcloc !213
  call void @llvm.lifetime.end.p0(i64 4, ptr nonnull %1), !dbg !2333, !noalias !2127
  call void @llvm.dbg.value(metadata ptr undef, metadata !1975, metadata !DIExpression()), !dbg !2246
  call void @llvm.dbg.value(metadata ptr undef, metadata !1981, metadata !DIExpression()), !dbg !2247
  call void @llvm.dbg.value(metadata ptr undef, metadata !1989, metadata !DIExpression()), !dbg !2248
  call void @llvm.dbg.value(metadata ptr poison, metadata !1993, metadata !DIExpression()), !dbg !2248
  %exitcond.not.i86.i.i.i.i = icmp eq i64 %_0.i.i84.i.i.i.i, %_34.i.i.i.i, !dbg !2334
  call void @__unsafe_record_block(i32 6, i32 9, i32 0, i16 0, i16 0, i16 0, i16 0, i16 0, i16 0), !dbg !2229
  br i1 %exitcond.not.i86.i.i.i.i, label %_ZN4test5bench13ns_iter_inner17hafa10ec08f214757E.exit90.loopexit.i.i.i.i, label %bb6.i82.i.i.i.i, !dbg !2229

_ZN4test5bench13ns_iter_inner17hafa10ec08f214757E.exit90.loopexit.i.i.i.i: ; preds = %bb6.i82.i.i.i.i
  %iter5.sroa.0.0.add.i.i.i.i = add nuw nsw i64 %iter5.sroa.0.0.idx13.i.i.i.i, 8, !dbg !2239
; call std::time::Instant::elapsed
  %61 = call { i64, i32 } @_ZN3std4time7Instant7elapsed17hee9bf90f3e35a175E(ptr noalias noundef nonnull readonly align 8 dereferenceable(16) %start1.i80.i.i.i.i), !dbg !2250, !noalias !2127
  %62 = extractvalue { i64, i32 } %61, 0, !dbg !2250
  %63 = extractvalue { i64, i32 } %61, 1, !dbg !2250
  call void @llvm.dbg.value(metadata ptr undef, metadata !2029, metadata !DIExpression()), !dbg !2251
  %_20.i87.i.i.i.i = mul i64 %62, 1000000000, !dbg !2253
  %_23.i88.i.i.i.i = zext i32 %63 to i64, !dbg !2254
  %_9.i89.i.i.i.i = add i64 %_20.i87.i.i.i.i, %_23.i88.i.i.i.i, !dbg !2253
  call void @llvm.lifetime.end.p0(i64 16, ptr nonnull %start1.i80.i.i.i.i), !dbg !2255, !noalias !2127
  call void @llvm.dbg.value(metadata i64 %_9.i89.i.i.i.i, metadata !2066, metadata !DIExpression()), !dbg !2256
  %_36.i.i.i.i = uitofp i64 %_9.i89.i.i.i.i to double, !dbg !2257
  %64 = fdiv double %_36.i.i.i.i, %_37.i.i.i.i, !dbg !2258
  store double %64, ptr %iter5.sroa.0.0.ptr14.i.i.i.i, align 8, !dbg !2258, !noalias !2127
  %iter5.sroa.0.0.ptr.i.i.i.i = getelementptr inbounds i8, ptr %_11.i.i.i.i, i64 %iter5.sroa.0.0.add.i.i.i.i, !dbg !2259
  call void @llvm.dbg.value(metadata ptr %iter5.sroa.0.0.ptr.i.i.i.i, metadata !2062, metadata !DIExpression(DW_OP_LLVM_fragment, 0, 64)), !dbg !2221
  call void @llvm.dbg.value(metadata ptr undef, metadata !1012, metadata !DIExpression()), !dbg !2222
  call void @llvm.dbg.value(metadata ptr undef, metadata !1037, metadata !DIExpression()), !dbg !2224
  call void @llvm.dbg.value(metadata ptr %_11.i.i.i.i, metadata !1033, metadata !DIExpression(DW_OP_plus_uconst, 400, DW_OP_stack_value)), !dbg !2226
  call void @llvm.dbg.value(metadata ptr undef, metadata !1047, metadata !DIExpression()), !dbg !2227
  call void @llvm.dbg.value(metadata ptr undef, metadata !1056, metadata !DIExpression()), !dbg !2227
  %65 = icmp eq i64 %iter5.sroa.0.0.add.i.i.i.i, 400, !dbg !2259
  call void @__unsafe_record_block(i32 6, i32 14, i32 0, i16 0, i16 0, i16 0, i16 0, i16 0, i16 0), !dbg !2260
  br i1 %65, label %bb17.i.i.i.i, label %bb16.i.i.i.i, !dbg !2260

bb28.i.i.i.i:                                     ; preds = %bb23.i.i.i.i, %bb17.i.i.i.i
  call void @llvm.dbg.value(metadata ptr undef, metadata !2091, metadata !DIExpression()), !dbg !2280
  call void @llvm.dbg.value(metadata i64 %total_run.sroa.0.0.i.i.i.i, metadata !2085, metadata !DIExpression(DW_OP_LLVM_fragment, 0, 64)), !dbg !2281
  call void @llvm.dbg.value(metadata i32 %total_run.sroa.6.0.i.i.i.i, metadata !2085, metadata !DIExpression(DW_OP_LLVM_fragment, 64, 32)), !dbg !2281
  call void @llvm.dbg.value(metadata i64 1, metadata !1255, metadata !DIExpression()), !dbg !2335
  call void @llvm.dbg.value(metadata i64 1, metadata !1285, metadata !DIExpression()), !dbg !2338
  call void @llvm.dbg.value(metadata i64 %total_run.sroa.0.0.i.i.i.i, metadata !1279, metadata !DIExpression(DW_OP_LLVM_fragment, 0, 64)), !dbg !2340
  call void @llvm.dbg.value(metadata i32 %total_run.sroa.6.0.i.i.i.i, metadata !1279, metadata !DIExpression(DW_OP_LLVM_fragment, 64, 32)), !dbg !2340
  call void @llvm.dbg.value(metadata i64 %56, metadata !1280, metadata !DIExpression(DW_OP_LLVM_fragment, 0, 64)), !dbg !2340
  call void @llvm.dbg.value(metadata i32 %57, metadata !1280, metadata !DIExpression(DW_OP_LLVM_fragment, 64, 32)), !dbg !2340
  call void @llvm.dbg.value(metadata i64 %total_run.sroa.0.0.i.i.i.i, metadata !1259, metadata !DIExpression()), !dbg !2341
  call void @llvm.dbg.value(metadata i64 %total_run.sroa.0.0.i.i.i.i, metadata !1289, metadata !DIExpression()), !dbg !2343
  call void @llvm.dbg.value(metadata i64 %56, metadata !1261, metadata !DIExpression()), !dbg !2341
  call void @llvm.dbg.value(metadata i64 %56, metadata !1291, metadata !DIExpression()), !dbg !2343
  %66 = call { i64, i1 } @llvm.uadd.with.overflow.i64(i64 %total_run.sroa.0.0.i.i.i.i, i64 %56), !dbg !2345
  %_21.0.i.i.i.i.i = extractvalue { i64, i1 } %66, 0, !dbg !2345
  %_21.1.i.i.i.i.i = extractvalue { i64, i1 } %66, 1, !dbg !2345
  call void @llvm.dbg.value(metadata i64 %_21.0.i.i.i.i.i, metadata !1262, metadata !DIExpression()), !dbg !2346
  call void @llvm.dbg.value(metadata i1 %_21.1.i.i.i.i.i, metadata !1264, metadata !DIExpression(DW_OP_LLVM_convert, 1, DW_ATE_unsigned, DW_OP_LLVM_convert, 8, DW_ATE_unsigned, DW_OP_stack_value)), !dbg !2346
  call void @__unsafe_record_block(i32 6, i32 4, i32 0, i16 0, i16 0, i16 0, i16 0, i16 0, i16 0), !dbg !2347
  br i1 %_21.1.i.i.i.i.i, label %bb38.i.i.i.i, label %bb9.i.i.i.i.i, !dbg !2347

bb9.i.i.i.i.i:                                    ; preds = %bb28.i.i.i.i
  call void @llvm.dbg.value(metadata i64 %_21.0.i.i.i.i.i, metadata !1281, metadata !DIExpression()), !dbg !2348
  %67 = add i32 %57, %total_run.sroa.6.0.i.i.i.i, !dbg !2349
  call void @llvm.dbg.value(metadata i32 %67, metadata !1282, metadata !DIExpression()), !dbg !2350
  %_10.i.i.i.i.i = icmp ugt i32 %67, 999999999, !dbg !2351
  call void @__unsafe_record_block(i32 6, i32 3, i32 0, i16 0, i16 0, i16 0, i16 0, i16 0, i16 0), !dbg !2351
  br i1 %_10.i.i.i.i.i, label %bb1.i.i.i.i.i, label %bb39.i.i.i.i, !dbg !2351

bb1.i.i.i.i.i:                                    ; preds = %bb9.i.i.i.i.i
  call void @llvm.dbg.value(metadata i32 %67, metadata !1282, metadata !DIExpression(DW_OP_constu, 1000000000, DW_OP_minus, DW_OP_stack_value)), !dbg !2350
  call void @llvm.dbg.value(metadata i64 %_21.0.i.i.i.i.i, metadata !1265, metadata !DIExpression()), !dbg !2335
  call void @llvm.dbg.value(metadata i64 %_21.0.i.i.i.i.i, metadata !1295, metadata !DIExpression()), !dbg !2338
  %68 = call { i64, i1 } @llvm.uadd.with.overflow.i64(i64 %_21.0.i.i.i.i.i, i64 1), !dbg !2352
  %_25.1.i.i.i.i.i = extractvalue { i64, i1 } %68, 1, !dbg !2352
  call void @llvm.dbg.value(metadata i64 poison, metadata !1266, metadata !DIExpression()), !dbg !2353
  call void @llvm.dbg.value(metadata i1 %_25.1.i.i.i.i.i, metadata !1268, metadata !DIExpression(DW_OP_LLVM_convert, 1, DW_ATE_unsigned, DW_OP_LLVM_convert, 8, DW_ATE_unsigned, DW_OP_stack_value)), !dbg !2353
  call void @__unsafe_record_block(i32 6, i32 3, i32 0, i16 0, i16 0, i16 0, i16 0, i16 0, i16 0), !dbg !2354
  br i1 %_25.1.i.i.i.i.i, label %bb38.i.i.i.i, label %bb3.i.i.i.i.i, !dbg !2354

bb3.i.i.i.i.i:                                    ; preds = %bb1.i.i.i.i.i
  %_25.0.i.i.i.i.i = extractvalue { i64, i1 } %68, 0, !dbg !2352
  call void @llvm.dbg.value(metadata i64 %_25.0.i.i.i.i.i, metadata !1266, metadata !DIExpression()), !dbg !2353
  %69 = add i32 %67, -1000000000, !dbg !2355
  call void @llvm.dbg.value(metadata i64 %_25.0.i.i.i.i.i, metadata !1283, metadata !DIExpression()), !dbg !2356
  call void @llvm.dbg.value(metadata i32 %69, metadata !1282, metadata !DIExpression()), !dbg !2350
  call void @llvm.dbg.value(metadata i64 %_25.0.i.i.i.i.i, metadata !1281, metadata !DIExpression()), !dbg !2348
  call void @llvm.dbg.value(metadata ptr @alloc_b7c1c22a954085a45dacf7c670d25258, metadata !819, metadata !DIExpression()), !dbg !2357
  call void @llvm.dbg.value(metadata i64 %_25.0.i.i.i.i.i, metadata !968, metadata !DIExpression()), !dbg !2360
  call void @llvm.dbg.value(metadata i64 %_25.0.i.i.i.i.i, metadata !978, metadata !DIExpression()), !dbg !2361
  call void @llvm.dbg.value(metadata i64 %_25.0.i.i.i.i.i, metadata !990, metadata !DIExpression()), !dbg !2363
  call void @llvm.dbg.value(metadata i32 %69, metadata !969, metadata !DIExpression()), !dbg !2360
  %_3.i.i.i.i.i.i = icmp ult i32 %69, 1000000000, !dbg !2365
  call void @__unsafe_record_block(i32 6, i32 4, i32 0, i16 0, i16 0, i16 0, i16 0, i16 0, i16 0), !dbg !2365
  br i1 %_3.i.i.i.i.i.i, label %bb39.i.i.i.i, label %bb2.i.i.i.i.i.i, !dbg !2365

bb2.i.i.i.i.i.i:                                  ; preds = %bb3.i.i.i.i.i
  %_7.i.i.i.i.i.i = udiv i32 %69, 1000000000, !dbg !2366
  %nanos3.i.i.i.i.i.i = urem i32 %69, 1000000000, !dbg !2367
  %rhs.i.i.i.i.i.i = zext nneg i32 %_7.i.i.i.i.i.i to i64, !dbg !2366
  call void @llvm.dbg.value(metadata i64 %rhs.i.i.i.i.i.i, metadata !984, metadata !DIExpression()), !dbg !2361
  call void @llvm.dbg.value(metadata i64 %rhs.i.i.i.i.i.i, metadata !1000, metadata !DIExpression()), !dbg !2363
  %70 = call { i64, i1 } @llvm.uadd.with.overflow.i64(i64 %_25.0.i.i.i.i.i, i64 %rhs.i.i.i.i.i.i), !dbg !2368
  %_16.1.i.i.i.i.i.i = extractvalue { i64, i1 } %70, 1, !dbg !2368
  call void @llvm.dbg.value(metadata i64 poison, metadata !985, metadata !DIExpression()), !dbg !2369
  call void @llvm.dbg.value(metadata i1 %_16.1.i.i.i.i.i.i, metadata !987, metadata !DIExpression(DW_OP_LLVM_convert, 1, DW_ATE_unsigned, DW_OP_LLVM_convert, 8, DW_ATE_unsigned, DW_OP_stack_value)), !dbg !2369
  call void @__unsafe_record_block(i32 6, i32 6, i32 0, i16 0, i16 0, i16 0, i16 0, i16 0, i16 0), !dbg !2370
  br i1 %_16.1.i.i.i.i.i.i, label %bb5.i.i.i.i.i.i, label %bb6.i.i.i.i.i.i, !dbg !2370

bb6.i.i.i.i.i.i:                                  ; preds = %bb2.i.i.i.i.i.i
  %_16.0.i.i.i.i.i.i = extractvalue { i64, i1 } %70, 0, !dbg !2368
  call void @llvm.dbg.value(metadata i64 %_16.0.i.i.i.i.i.i, metadata !985, metadata !DIExpression()), !dbg !2369
  call void @llvm.dbg.value(metadata i64 %_16.0.i.i.i.i.i.i, metadata !970, metadata !DIExpression()), !dbg !2371
  call void @__unsafe_record_block(i32 6, i32 2, i32 0, i16 0, i16 0, i16 0, i16 0, i16 0, i16 0), !dbg !2372
  br label %bb39.i.i.i.i, !dbg !2372

bb5.i.i.i.i.i.i:                                  ; preds = %bb2.i.i.i.i.i.i
  call void @llvm.lifetime.start.p0(i64 48, ptr nonnull %_10.i.i.i.i.i.i), !dbg !2373, !noalias !2127
  store ptr @alloc_b7c1c22a954085a45dacf7c670d25258, ptr %_10.i.i.i.i.i.i, align 8, !dbg !2374, !noalias !2127
  %71 = getelementptr inbounds i8, ptr %_10.i.i.i.i.i.i, i64 8, !dbg !2374
  store i64 1, ptr %71, align 8, !dbg !2374, !noalias !2127
  %72 = getelementptr inbounds i8, ptr %_10.i.i.i.i.i.i, i64 32, !dbg !2374
  store ptr null, ptr %72, align 8, !dbg !2374, !noalias !2127
  %73 = getelementptr inbounds i8, ptr %_10.i.i.i.i.i.i, i64 16, !dbg !2374
  store ptr inttoptr (i64 8 to ptr), ptr %73, align 8, !dbg !2374, !noalias !2127
  %74 = getelementptr inbounds i8, ptr %_10.i.i.i.i.i.i, i64 24, !dbg !2374
  store i64 0, ptr %74, align 8, !dbg !2374, !noalias !2127
; call core::panicking::panic_fmt
  call void @_ZN4core9panicking9panic_fmt17h3111a7beccfa68f5E(ptr noalias nocapture noundef nonnull readonly align 8 dereferenceable(48) %_10.i.i.i.i.i.i, ptr noalias noundef nonnull readonly align 8 dereferenceable(24) @alloc_780cce55eebcf3006d09c4f4f63d73b0) #14, !dbg !2373, !noalias !2127
  call void @__unsafe_record_block(i32 6, i32 12, i32 0, i16 0, i16 0, i16 0, i16 0, i16 0, i16 0), !dbg !2373
  unreachable, !dbg !2373

bb23.i.i.i.i:                                     ; preds = %bb17.i.i.i.i
  %_53.i.i.i.i = load double, ptr %25, align 8, !dbg !2375, !noalias !2127, !noundef !23
  %_54.i.i.i.i = load double, ptr %26, align 8, !dbg !2376, !noalias !2127, !noundef !23
  %_52.i.i.i.i = fsub double %_53.i.i.i.i, %_54.i.i.i.i, !dbg !2375
  %_55.i.i.i.i = load double, ptr %27, align 8, !dbg !2377, !noalias !2127, !noundef !23
  %_51.i.i.i.i = fcmp olt double %_52.i.i.i.i, %_55.i.i.i.i, !dbg !2375
  call void @__unsafe_record_block(i32 6, i32 6, i32 0, i16 0, i16 0, i16 0, i16 0, i16 0, i16 0), !dbg !2375
  br i1 %_51.i.i.i.i, label %_ZN4test5bench4iter17hd39cc74834540840E.exit.i.i.i, label %bb28.i.i.i.i, !dbg !2375

bb38.i.i.i.i:                                     ; preds = %bb1.i.i.i.i.i, %bb28.i.i.i.i
  call void @llvm.dbg.value(metadata i64 undef, metadata !2073, metadata !DIExpression(DW_OP_LLVM_fragment, 0, 64)), !dbg !2120
  call void @llvm.dbg.value(metadata i32 1000000000, metadata !2073, metadata !DIExpression(DW_OP_LLVM_fragment, 64, 32)), !dbg !2120
; call core::option::expect_failed
  call void @_ZN4core6option13expect_failed17h28cbd671da1a9710E(ptr noalias noundef nonnull readonly align 1 @alloc_830d8a7ce80e2e7f05fa6e4643272e13, i64 noundef 30, ptr noalias noundef nonnull readonly align 8 dereferenceable(24) @alloc_0e0ace263d2d43510f52f9b9fd9a0036) #14, !dbg !2378, !noalias !2127
  call void @__unsafe_record_block(i32 6, i32 2, i32 0, i16 0, i16 0, i16 0, i16 0, i16 0, i16 0), !dbg !2378
  unreachable, !dbg !2378

bb39.i.i.i.i:                                     ; preds = %bb6.i.i.i.i.i.i, %bb3.i.i.i.i.i, %bb9.i.i.i.i.i
  %_0.sroa.4.1.i.ph.i.i.i.i = phi i32 [ %67, %bb9.i.i.i.i.i ], [ %69, %bb3.i.i.i.i.i ], [ %nanos3.i.i.i.i.i.i, %bb6.i.i.i.i.i.i ]
  %_0.sroa.0.1.i.ph.i.i.i.i = phi i64 [ %_21.0.i.i.i.i.i, %bb9.i.i.i.i.i ], [ %_25.0.i.i.i.i.i, %bb3.i.i.i.i.i ], [ %_16.0.i.i.i.i.i.i, %bb6.i.i.i.i.i.i ]
  call void @llvm.dbg.value(metadata i64 %_0.sroa.0.1.i.ph.i.i.i.i, metadata !2073, metadata !DIExpression(DW_OP_LLVM_fragment, 0, 64)), !dbg !2120
  call void @llvm.dbg.value(metadata i32 %_0.sroa.4.1.i.ph.i.i.i.i, metadata !2073, metadata !DIExpression(DW_OP_LLVM_fragment, 64, 32)), !dbg !2120
  call void @llvm.dbg.value(metadata i64 %_0.sroa.0.1.i.ph.i.i.i.i, metadata !2050, metadata !DIExpression(DW_OP_LLVM_fragment, 0, 64)), !dbg !2174
  call void @llvm.dbg.value(metadata i32 %_0.sroa.4.1.i.ph.i.i.i.i, metadata !2050, metadata !DIExpression(DW_OP_LLVM_fragment, 64, 32)), !dbg !2174
  call void @llvm.dbg.value(metadata ptr undef, metadata !2287, metadata !DIExpression()), !dbg !2379
  call void @llvm.dbg.value(metadata ptr undef, metadata !2299, metadata !DIExpression()), !dbg !2381
  call void @llvm.dbg.value(metadata ptr undef, metadata !2289, metadata !DIExpression()), !dbg !2379
  call void @llvm.dbg.value(metadata ptr undef, metadata !2301, metadata !DIExpression()), !dbg !2381
  call void @llvm.dbg.value(metadata ptr undef, metadata !2311, metadata !DIExpression()), !dbg !2383
  call void @llvm.dbg.value(metadata ptr undef, metadata !2313, metadata !DIExpression()), !dbg !2383
  %.not59.not.i.i.i.i = icmp eq i64 %_0.sroa.0.1.i.ph.i.i.i.i, 3, !dbg !2385
  %.not60.i.i.i.i = icmp ne i32 %_0.sroa.4.1.i.ph.i.i.i.i, 0, !dbg !2386
  %_5710.i.i.i.i = icmp ugt i64 %_0.sroa.0.1.i.ph.i.i.i.i, 3, !dbg !2387
  %_57.i.i.i.i = select i1 %.not59.not.i.i.i.i, i1 %.not60.i.i.i.i, i1 %_5710.i.i.i.i, !dbg !2387
  %_117.1.i.i.i.i = icmp ugt i64 %n.sroa.0.0.i.i.i.i, 1844674407370955161
  %or.cond20.i.i.i.i = select i1 %_57.i.i.i.i, i1 true, i1 %_117.1.i.i.i.i, !dbg !2389
  call void @__unsafe_record_block(i32 6, i32 9, i32 0, i16 0, i16 0, i16 0, i16 0, i16 0, i16 0), !dbg !2389
  br i1 %or.cond20.i.i.i.i, label %_ZN4test5bench4iter17hd39cc74834540840E.exit.i.i.i, label %bb45.i.i.i.i, !dbg !2389

bb45.i.i.i.i:                                     ; preds = %bb39.i.i.i.i
  %_61.i.i.i.i = shl nuw nsw i64 %n.sroa.0.0.i.i.i.i, 1, !dbg !2390
  call void @llvm.dbg.value(metadata i64 %_61.i.i.i.i, metadata !2048, metadata !DIExpression()), !dbg !2162
  call void @llvm.lifetime.end.p0(i64 112, ptr nonnull %summ.i.i.i.i), !dbg !2391, !noalias !2127
  call void @llvm.lifetime.end.p0(i64 16, ptr nonnull %loop_start.i.i.i.i), !dbg !2392, !noalias !2127
  call void @__unsafe_record_block(i32 6, i32 4, i32 0, i16 0, i16 0, i16 0, i16 0, i16 0, i16 0), !dbg !2393
  br label %bb4.i.i.i.i, !dbg !2393

_ZN4test5bench4iter17hd39cc74834540840E.exit.i.i.i: ; preds = %bb39.i.i.i.i, %bb23.i.i.i.i
  call void @llvm.memcpy.p0.p0.i64(ptr noundef nonnull align 8 dereferenceable(112) %_6.sroa.4.i.i.i, ptr noundef nonnull align 8 dereferenceable(112) %summ5.i.i.i.i, i64 112, i1 false), !dbg !2279, !noalias !1972
  call void @llvm.lifetime.end.p0(i64 112, ptr nonnull %summ.i.i.i.i), !dbg !2391, !noalias !2127
  call void @llvm.lifetime.end.p0(i64 16, ptr nonnull %loop_start.i.i.i.i), !dbg !2392, !noalias !2127
  call void @llvm.lifetime.end.p0(i64 400, ptr nonnull %_11.i.i.i.i), !dbg !2394, !noalias !2127
  call void @llvm.lifetime.end.p0(i64 112, ptr nonnull %summ5.i.i.i.i), !dbg !2395, !noalias !1972
  store i64 1, ptr %0, align 8, !dbg !2396, !alias.scope !1955, !noalias !1898
  %_6.sroa.4.0.self.sroa_idx.i.i.i = getelementptr inbounds i8, ptr %0, i64 8, !dbg !2396
  call void @llvm.memcpy.p0.p0.i64(ptr noundef nonnull align 8 dereferenceable(112) %_6.sroa.4.0.self.sroa_idx.i.i.i, ptr noundef nonnull align 8 dereferenceable(112) %_6.sroa.4.i.i.i, i64 112, i1 false), !dbg !2396, !noalias !1898
  call void @llvm.lifetime.end.p0(i64 112, ptr nonnull %_6.sroa.4.i.i.i), !dbg !2397
  call void @__unsafe_record_block(i32 6, i32 10, i32 0, i16 0, i16 0, i16 0, i16 0, i16 0, i16 0), !dbg !2398
  br label %"_ZN6buffer18bench_u32_via_fill28_$u7b$$u7b$closure$u7d$$u7d$17h80d75ad75deda354E.exit", !dbg !2398

"_ZN6buffer18bench_u32_via_fill28_$u7b$$u7b$closure$u7d$$u7d$17h80d75ad75deda354E.exit": ; preds = %bb1.i.i.i, %_ZN4test5bench4iter17hd39cc74834540840E.exit.i.i.i
  call void @llvm.dbg.declare(metadata ptr undef, metadata !1364, metadata !DIExpression()), !dbg !2399
  call void @llvm.dbg.value(metadata i32 0, metadata !1370, metadata !DIExpression()), !dbg !2401
  store i64 -9223372036854775808, ptr %_0, align 8, !dbg !2402, !alias.scope !2403, !noalias !1901
  call void @__unsafe_record_block(i32 6, i32 2, i32 0, i16 0, i16 0, i16 0, i16 0, i16 0, i16 0), !dbg !1897
  ret void, !dbg !1897
}

; core::ops::function::FnOnce::call_once
; Function Attrs: inlinehint nonlazybind uwtable
define internal void @_ZN4core3ops8function6FnOnce9call_once17h5bdf9f8b83856f5bE(ptr dead_on_unwind noalias nocapture noundef writable writeonly sret([24 x i8]) align 8 dereferenceable(24) %_0, ptr noalias nocapture noundef align 8 dereferenceable(136) %0) unnamed_addr #2 personality ptr @rust_eh_personality !dbg !2406 !unsafe_count.func_id !2417 {
start:
  call void @__unsafe_record_function(i32 7)
  %_10.i.i.i.i.i.i = alloca [48 x i8], align 8
  %start1.i79.i.i.i.i = alloca [16 x i8], align 8
  %start1.i63.i.i.i.i = alloca [16 x i8], align 8
  %start1.i.i.i.i.i = alloca [16 x i8], align 8
  %summ5.i.i.i.i = alloca [112 x i8], align 8
  %summ.i.i.i.i = alloca [112 x i8], align 8
  %loop_start.i.i.i.i = alloca [16 x i8], align 8
  %_11.i.i.i.i = alloca [400 x i8], align 8
  %start1.i.i.i.i = alloca [16 x i8], align 8
  %_6.sroa.4.i.i.i = alloca [112 x i8], align 8
  tail call void @llvm.dbg.value(metadata ptr %0, metadata !2414, metadata !DIExpression()), !dbg !2418
  call void @llvm.dbg.declare(metadata ptr poison, metadata !2413, metadata !DIExpression()), !dbg !2419
  tail call void @llvm.experimental.noalias.scope.decl(metadata !2420), !dbg !2419
  tail call void @llvm.experimental.noalias.scope.decl(metadata !2423), !dbg !2419
  call void @llvm.dbg.value(metadata ptr undef, metadata !2425, metadata !DIExpression()), !dbg !2432
  call void @llvm.dbg.value(metadata ptr %0, metadata !2431, metadata !DIExpression()), !dbg !2432
  tail call void @llvm.experimental.noalias.scope.decl(metadata !2434), !dbg !2437
  call void @llvm.dbg.value(metadata ptr %0, metadata !2438, metadata !DIExpression()), !dbg !2441
  %1 = getelementptr inbounds i8, ptr %0, i64 120, !dbg !2443
  store i64 4096, ptr %1, align 8, !dbg !2443, !alias.scope !2444, !noalias !2420
  tail call void @llvm.experimental.noalias.scope.decl(metadata !2445), !dbg !2448
  call void @llvm.dbg.value(metadata !23, metadata !2449, metadata !DIExpression()), !dbg !2458
  call void @llvm.dbg.value(metadata ptr %0, metadata !2463, metadata !DIExpression()), !dbg !2466
  call void @llvm.dbg.declare(metadata ptr poison, metadata !2464, metadata !DIExpression()), !dbg !2467
  call void @llvm.dbg.value(metadata ptr %0, metadata !2453, metadata !DIExpression(DW_OP_plus_uconst, 128, DW_OP_stack_value)), !dbg !2458
  %2 = getelementptr inbounds i8, ptr %0, i64 128, !dbg !2468
  %3 = load i8, ptr %2, align 8, !dbg !2468, !range !448, !alias.scope !2469, !noalias !2420, !noundef !23
  %.not.i.i.i = icmp eq i8 %3, 0, !dbg !2468
  call void @__unsafe_record_block(i32 7, i32 21, i32 0, i16 0, i16 0, i16 0, i16 0, i16 0, i16 0), !dbg !2470
  br i1 %.not.i.i.i, label %bb3.i.i.i, label %bb1.i.i.i, !dbg !2470

bb1.i.i.i:                                        ; preds = %start
  call void @llvm.dbg.value(metadata ptr undef, metadata !2471, metadata !DIExpression()), !dbg !2479
  call void @llvm.dbg.value(metadata i64 1, metadata !2474, metadata !DIExpression()), !dbg !2479
  call void @llvm.dbg.declare(metadata ptr %start1.i.i.i.i, metadata !2475, metadata !DIExpression()), !dbg !2481
  call void @llvm.dbg.declare(metadata ptr undef, metadata !2482, metadata !DIExpression()), !dbg !2486
  call void @llvm.dbg.declare(metadata ptr undef, metadata !2488, metadata !DIExpression()), !dbg !2492
  call void @llvm.lifetime.start.p0(i64 16, ptr nonnull %start1.i.i.i.i), !dbg !2494, !noalias !2495
; call std::time::Instant::now
  %4 = tail call { i64, i32 } @_ZN3std4time7Instant3now17hdd57daf13a49b9b5E(), !dbg !2496, !noalias !2495
  %5 = extractvalue { i64, i32 } %4, 0, !dbg !2496
  %6 = extractvalue { i64, i32 } %4, 1, !dbg !2496
  store i64 %5, ptr %start1.i.i.i.i, align 8, !dbg !2496, !noalias !2495
  %7 = getelementptr inbounds i8, ptr %start1.i.i.i.i, i64 8, !dbg !2496
  store i32 %6, ptr %7, align 8, !dbg !2496, !noalias !2495
  call void @llvm.dbg.value(metadata i64 0, metadata !2477, metadata !DIExpression(DW_OP_LLVM_fragment, 0, 64)), !dbg !2497
  call void @llvm.dbg.value(metadata i64 1, metadata !2477, metadata !DIExpression(DW_OP_LLVM_fragment, 64, 64)), !dbg !2497
  call void @llvm.dbg.value(metadata ptr undef, metadata !2498, metadata !DIExpression()), !dbg !2502
  call void @llvm.dbg.value(metadata ptr undef, metadata !2504, metadata !DIExpression()), !dbg !2510
  call void @llvm.dbg.value(metadata ptr undef, metadata !2512, metadata !DIExpression()), !dbg !2517
  call void @llvm.dbg.value(metadata ptr poison, metadata !2516, metadata !DIExpression()), !dbg !2517
  call void @llvm.dbg.value(metadata i64 0, metadata !2477, metadata !DIExpression(DW_OP_LLVM_fragment, 0, 64)), !dbg !2497
  call void @llvm.dbg.value(metadata i64 0, metadata !2508, metadata !DIExpression()), !dbg !2519
  call void @llvm.dbg.value(metadata i64 0, metadata !559, metadata !DIExpression()), !dbg !2520
  call void @llvm.dbg.value(metadata i64 0, metadata !568, metadata !DIExpression()), !dbg !2522
  call void @llvm.dbg.value(metadata i64 1, metadata !565, metadata !DIExpression()), !dbg !2520
  call void @llvm.dbg.value(metadata i64 1, metadata !576, metadata !DIExpression()), !dbg !2522
  call void @llvm.dbg.value(metadata i64 1, metadata !2477, metadata !DIExpression(DW_OP_LLVM_fragment, 0, 64)), !dbg !2497
  call void @llvm.dbg.value(metadata ptr undef, metadata !2524, metadata !DIExpression()), !dbg !2528
  call void @llvm.dbg.declare(metadata ptr undef, metadata !2527, metadata !DIExpression()), !dbg !2530
; call buffer::page::bench_fill::inner
  tail call fastcc void @_ZN6buffer4page10bench_fill5inner17h9ca6b6175c10d541E(), !dbg !2530, !noalias !2495
  tail call void asm sideeffect "", "~{memory}"() #13, !dbg !2531, !noalias !2495, !srcloc !213
  call void @llvm.dbg.value(metadata ptr undef, metadata !2498, metadata !DIExpression()), !dbg !2502
  call void @llvm.dbg.value(metadata ptr undef, metadata !2504, metadata !DIExpression()), !dbg !2510
  call void @llvm.dbg.value(metadata ptr undef, metadata !2512, metadata !DIExpression()), !dbg !2517
  call void @llvm.dbg.value(metadata ptr poison, metadata !2516, metadata !DIExpression()), !dbg !2517
; call std::time::Instant::elapsed
  %8 = call { i64, i32 } @_ZN3std4time7Instant7elapsed17hee9bf90f3e35a175E(ptr noalias noundef nonnull readonly align 8 dereferenceable(16) %start1.i.i.i.i), !dbg !2532, !noalias !2495
  call void @llvm.dbg.value(metadata ptr undef, metadata !2533, metadata !DIExpression()), !dbg !2537
  call void @llvm.lifetime.end.p0(i64 16, ptr nonnull %start1.i.i.i.i), !dbg !2539, !noalias !2495
  call void @__unsafe_record_block(i32 7, i32 12, i32 0, i16 0, i16 0, i16 0, i16 0, i16 0, i16 0)
  br label %"_ZN6buffer4page10bench_fill28_$u7b$$u7b$closure$u7d$$u7d$17hed3a6c4cff8583d3E.exit"

bb3.i.i.i:                                        ; preds = %start
  call void @llvm.lifetime.start.p0(i64 112, ptr nonnull %_6.sroa.4.i.i.i), !dbg !2540
  call void @llvm.lifetime.start.p0(i64 112, ptr nonnull %summ5.i.i.i.i), !dbg !2541, !noalias !2495
  call void @llvm.dbg.declare(metadata ptr undef, metadata !2575, metadata !DIExpression(DW_OP_LLVM_fragment, 96, 32)), !dbg !2582
  call void @llvm.dbg.declare(metadata ptr undef, metadata !2552, metadata !DIExpression(DW_OP_LLVM_fragment, 96, 32)), !dbg !2596
  call void @llvm.dbg.value(metadata i64 1000000, metadata !2548, metadata !DIExpression()), !dbg !2597
  call void @llvm.dbg.value(metadata i64 1, metadata !2598, metadata !DIExpression()), !dbg !2606
  call void @llvm.dbg.value(metadata i64 1, metadata !2608, metadata !DIExpression()), !dbg !2616
  call void @llvm.dbg.value(metadata i64 1, metadata !2603, metadata !DIExpression()), !dbg !2618
  call void @llvm.dbg.value(metadata i64 1, metadata !2613, metadata !DIExpression()), !dbg !2620
  call void @llvm.dbg.value(metadata ptr @alloc_830d8a7ce80e2e7f05fa6e4643272e13, metadata !2579, metadata !DIExpression(DW_OP_LLVM_fragment, 0, 64)), !dbg !2622
  call void @llvm.dbg.value(metadata i64 30, metadata !2579, metadata !DIExpression(DW_OP_LLVM_fragment, 64, 64)), !dbg !2622
  call void @llvm.dbg.value(metadata ptr undef, metadata !2545, metadata !DIExpression()), !dbg !2623
  call void @llvm.dbg.declare(metadata ptr %loop_start.i.i.i.i, metadata !2556, metadata !DIExpression()), !dbg !2624
  call void @llvm.dbg.declare(metadata ptr %summ.i.i.i.i, metadata !2562, metadata !DIExpression()), !dbg !2625
  call void @llvm.dbg.declare(metadata ptr %summ5.i.i.i.i, metadata !2570, metadata !DIExpression()), !dbg !2626
  call void @llvm.dbg.value(metadata ptr undef, metadata !2471, metadata !DIExpression()), !dbg !2627
  call void @llvm.dbg.value(metadata i64 1, metadata !2474, metadata !DIExpression()), !dbg !2627
  call void @llvm.dbg.declare(metadata ptr %start1.i.i.i.i.i, metadata !2475, metadata !DIExpression()), !dbg !2628
  call void @llvm.dbg.declare(metadata ptr undef, metadata !2482, metadata !DIExpression()), !dbg !2629
  call void @llvm.dbg.declare(metadata ptr undef, metadata !2488, metadata !DIExpression()), !dbg !2631
  call void @llvm.lifetime.start.p0(i64 16, ptr nonnull %start1.i.i.i.i.i), !dbg !2541, !noalias !2633
; call std::time::Instant::now
  %9 = tail call { i64, i32 } @_ZN3std4time7Instant3now17hdd57daf13a49b9b5E(), !dbg !2636, !noalias !2633
  %10 = extractvalue { i64, i32 } %9, 0, !dbg !2636
  %11 = extractvalue { i64, i32 } %9, 1, !dbg !2636
  store i64 %10, ptr %start1.i.i.i.i.i, align 8, !dbg !2636, !noalias !2633
  %12 = getelementptr inbounds i8, ptr %start1.i.i.i.i.i, i64 8, !dbg !2636
  store i32 %11, ptr %12, align 8, !dbg !2636, !noalias !2633
  call void @llvm.dbg.value(metadata i64 0, metadata !2477, metadata !DIExpression(DW_OP_LLVM_fragment, 0, 64)), !dbg !2637
  call void @llvm.dbg.value(metadata i64 1, metadata !2477, metadata !DIExpression(DW_OP_LLVM_fragment, 64, 64)), !dbg !2637
  call void @llvm.dbg.value(metadata ptr undef, metadata !2498, metadata !DIExpression()), !dbg !2638
  call void @llvm.dbg.value(metadata ptr undef, metadata !2504, metadata !DIExpression()), !dbg !2640
  call void @llvm.dbg.value(metadata ptr undef, metadata !2512, metadata !DIExpression()), !dbg !2642
  call void @llvm.dbg.value(metadata ptr poison, metadata !2516, metadata !DIExpression()), !dbg !2642
  call void @llvm.dbg.value(metadata i64 0, metadata !2477, metadata !DIExpression(DW_OP_LLVM_fragment, 0, 64)), !dbg !2637
  call void @llvm.dbg.value(metadata i64 0, metadata !2508, metadata !DIExpression()), !dbg !2644
  call void @llvm.dbg.value(metadata i64 0, metadata !559, metadata !DIExpression()), !dbg !2645
  call void @llvm.dbg.value(metadata i64 0, metadata !568, metadata !DIExpression()), !dbg !2647
  call void @llvm.dbg.value(metadata i64 1, metadata !565, metadata !DIExpression()), !dbg !2645
  call void @llvm.dbg.value(metadata i64 1, metadata !576, metadata !DIExpression()), !dbg !2647
  call void @llvm.dbg.value(metadata i64 1, metadata !2477, metadata !DIExpression(DW_OP_LLVM_fragment, 0, 64)), !dbg !2637
  call void @llvm.dbg.value(metadata ptr undef, metadata !2524, metadata !DIExpression()), !dbg !2649
  call void @llvm.dbg.declare(metadata ptr undef, metadata !2527, metadata !DIExpression()), !dbg !2651
; call buffer::page::bench_fill::inner
  tail call fastcc void @_ZN6buffer4page10bench_fill5inner17h9ca6b6175c10d541E(), !dbg !2651, !noalias !2633
  tail call void asm sideeffect "", "~{memory}"() #13, !dbg !2652, !noalias !2633, !srcloc !213
  call void @llvm.dbg.value(metadata ptr undef, metadata !2498, metadata !DIExpression()), !dbg !2638
  call void @llvm.dbg.value(metadata ptr undef, metadata !2504, metadata !DIExpression()), !dbg !2640
  call void @llvm.dbg.value(metadata ptr undef, metadata !2512, metadata !DIExpression()), !dbg !2642
  call void @llvm.dbg.value(metadata ptr poison, metadata !2516, metadata !DIExpression()), !dbg !2642
; call std::time::Instant::elapsed
  %13 = call { i64, i32 } @_ZN3std4time7Instant7elapsed17hee9bf90f3e35a175E(ptr noalias noundef nonnull readonly align 8 dereferenceable(16) %start1.i.i.i.i.i), !dbg !2653, !noalias !2633
  %14 = extractvalue { i64, i32 } %13, 0, !dbg !2653
  %15 = extractvalue { i64, i32 } %13, 1, !dbg !2653
  call void @llvm.dbg.value(metadata ptr undef, metadata !2533, metadata !DIExpression()), !dbg !2654
  %_20.i.i.i.i.i = mul i64 %14, 1000000000, !dbg !2656
  %_23.i.i.i.i.i = zext i32 %15 to i64, !dbg !2657
  %_9.i.i.i.i.i = add i64 %_20.i.i.i.i.i, %_23.i.i.i.i.i, !dbg !2656
  call void @llvm.lifetime.end.p0(i64 16, ptr nonnull %start1.i.i.i.i.i), !dbg !2658, !noalias !2633
  call void @llvm.dbg.value(metadata i64 %_9.i.i.i.i.i, metadata !2546, metadata !DIExpression()), !dbg !2659
  call void @llvm.dbg.value(metadata i64 %_9.i.i.i.i.i, metadata !2602, metadata !DIExpression()), !dbg !2606
  call void @llvm.dbg.value(metadata i64 %_9.i.i.i.i.i, metadata !2612, metadata !DIExpression()), !dbg !2616
  call void @llvm.dbg.value(metadata i64 1, metadata !799, metadata !DIExpression()), !dbg !2660
  call void @llvm.dbg.value(metadata i64 %_9.i.i.i.i.i, metadata !807, metadata !DIExpression()), !dbg !2660
  call void @llvm.dbg.declare(metadata ptr undef, metadata !808, metadata !DIExpression()), !dbg !2662
  %_0.sroa.0.0.sroa.speculated.i.i.i.i.i = call noundef i64 @llvm.umax.i64(i64 %_9.i.i.i.i.i, i64 1), !dbg !2660
  %16 = udiv i64 1000000, %_0.sroa.0.0.sroa.speculated.i.i.i.i.i, !dbg !2663
  call void @llvm.dbg.value(metadata i64 %16, metadata !2550, metadata !DIExpression()), !dbg !2664
  call void @llvm.dbg.value(metadata i64 %16, metadata !2605, metadata !DIExpression()), !dbg !2618
  call void @llvm.dbg.value(metadata i64 %16, metadata !2615, metadata !DIExpression()), !dbg !2620
  call void @llvm.dbg.value(metadata i64 1, metadata !799, metadata !DIExpression()), !dbg !2665
  call void @llvm.dbg.value(metadata i64 %16, metadata !807, metadata !DIExpression()), !dbg !2665
  call void @llvm.dbg.declare(metadata ptr undef, metadata !808, metadata !DIExpression()), !dbg !2667
  call void @llvm.dbg.value(metadata i64 %_0.sroa.0.0.sroa.speculated.i61.i.i.i.i, metadata !2550, metadata !DIExpression()), !dbg !2664
  call void @llvm.dbg.value(metadata ptr @alloc_b7c1c22a954085a45dacf7c670d25258, metadata !819, metadata !DIExpression()), !dbg !2668
  call void @llvm.dbg.value(metadata i64 0, metadata !968, metadata !DIExpression()), !dbg !2671
  call void @llvm.dbg.value(metadata i64 0, metadata !978, metadata !DIExpression()), !dbg !2672
  call void @llvm.dbg.value(metadata i64 0, metadata !990, metadata !DIExpression()), !dbg !2674
  call void @llvm.dbg.value(metadata i32 0, metadata !969, metadata !DIExpression()), !dbg !2671
  call void @llvm.dbg.value(metadata i64 0, metadata !2552, metadata !DIExpression(DW_OP_LLVM_fragment, 0, 64)), !dbg !2676
  call void @llvm.dbg.value(metadata i32 0, metadata !2552, metadata !DIExpression(DW_OP_LLVM_fragment, 64, 32)), !dbg !2676
  call void @llvm.lifetime.start.p0(i64 400, ptr nonnull %_11.i.i.i.i), !dbg !2677, !noalias !2633
  call void @llvm.memset.p0.i64(ptr noundef nonnull align 8 dereferenceable(400) %_11.i.i.i.i, i8 0, i64 400, i1 false), !noalias !2633
  %_0.sroa.0.0.sroa.speculated.i61.i.i.i.i = call noundef i64 @llvm.umax.i64(i64 %16, i64 1), !dbg !2665
  %17 = getelementptr inbounds i8, ptr %loop_start.i.i.i.i, i64 8
  %18 = getelementptr inbounds i8, ptr %start1.i63.i.i.i.i, i64 8
  %19 = getelementptr inbounds i8, ptr %start1.i79.i.i.i.i, i64 8
  %20 = getelementptr inbounds i8, ptr %summ.i.i.i.i, i64 72
  %21 = getelementptr inbounds i8, ptr %summ.i.i.i.i, i64 32
  %22 = getelementptr inbounds i8, ptr %summ5.i.i.i.i, i64 32
  %23 = getelementptr inbounds i8, ptr %summ5.i.i.i.i, i64 64
  call void @__unsafe_record_block(i32 7, i32 31, i32 0, i16 0, i16 0, i16 0, i16 0, i16 0, i16 0), !dbg !2678
  br label %bb4.i.i.i.i, !dbg !2678

bb4.i.i.i.i:                                      ; preds = %bb45.i.i.i.i, %bb3.i.i.i
  %total_run.sroa.0.0.i.i.i.i = phi i64 [ %_0.sroa.0.1.i.ph.i.i.i.i, %bb45.i.i.i.i ], [ 0, %bb3.i.i.i ], !dbg !2664
  %total_run.sroa.6.0.i.i.i.i = phi i32 [ %_0.sroa.4.1.i.ph.i.i.i.i, %bb45.i.i.i.i ], [ 0, %bb3.i.i.i ], !dbg !2664
  %n.sroa.0.0.i.i.i.i = phi i64 [ %_61.i.i.i.i, %bb45.i.i.i.i ], [ %_0.sroa.0.0.sroa.speculated.i61.i.i.i.i, %bb3.i.i.i ], !dbg !2664
  call void @llvm.dbg.value(metadata i32 %total_run.sroa.6.0.i.i.i.i, metadata !2552, metadata !DIExpression(DW_OP_LLVM_fragment, 64, 32)), !dbg !2676
  call void @llvm.dbg.value(metadata i64 %total_run.sroa.0.0.i.i.i.i, metadata !2552, metadata !DIExpression(DW_OP_LLVM_fragment, 0, 64)), !dbg !2676
  call void @llvm.dbg.value(metadata i64 %n.sroa.0.0.i.i.i.i, metadata !2550, metadata !DIExpression()), !dbg !2664
  call void @llvm.lifetime.start.p0(i64 16, ptr nonnull %loop_start.i.i.i.i), !dbg !2679, !noalias !2633
; call std::time::Instant::now
  %24 = call { i64, i32 } @_ZN3std4time7Instant3now17hdd57daf13a49b9b5E(), !dbg !2680, !noalias !2633
  %25 = extractvalue { i64, i32 } %24, 0, !dbg !2680
  %26 = extractvalue { i64, i32 } %24, 1, !dbg !2680
  store i64 %25, ptr %loop_start.i.i.i.i, align 8, !dbg !2680, !noalias !2633
  store i32 %26, ptr %17, align 8, !dbg !2680, !noalias !2633
  call void @llvm.dbg.value(metadata ptr %_11.i.i.i.i, metadata !2558, metadata !DIExpression(DW_OP_LLVM_fragment, 0, 64)), !dbg !2681
  call void @llvm.dbg.value(metadata ptr %_11.i.i.i.i, metadata !2558, metadata !DIExpression(DW_OP_plus_uconst, 400, DW_OP_stack_value, DW_OP_LLVM_fragment, 64, 64)), !dbg !2681
  call void @llvm.dbg.value(metadata ptr undef, metadata !1012, metadata !DIExpression()), !dbg !2682
  call void @llvm.dbg.value(metadata ptr undef, metadata !1037, metadata !DIExpression()), !dbg !2684
  call void @llvm.dbg.value(metadata ptr %_11.i.i.i.i, metadata !1033, metadata !DIExpression(DW_OP_plus_uconst, 400, DW_OP_stack_value)), !dbg !2686
  call void @llvm.dbg.value(metadata ptr undef, metadata !1047, metadata !DIExpression()), !dbg !2687
  call void @llvm.dbg.value(metadata ptr undef, metadata !1056, metadata !DIExpression()), !dbg !2687
  %_131.not.i.i.i.i.i = icmp eq i64 %n.sroa.0.0.i.i.i.i, 0
  %_22.i.i.i.i = uitofp i64 %n.sroa.0.0.i.i.i.i to double
  call void @__unsafe_record_block(i32 7, i32 12, i32 0, i16 0, i16 0, i16 0, i16 0, i16 0, i16 0), !dbg !2689
  br i1 %_131.not.i.i.i.i.i, label %bb9.us.i.i.i.i, label %bb9.i.i.i.i, !dbg !2689

bb9.us.i.i.i.i:                                   ; preds = %bb4.i.i.i.i, %bb9.us.i.i.i.i
  %iter.sroa.0.0.ptr12.us.i.i.i.i = phi ptr [ %iter.sroa.0.0.ptr.us.i.i.i.i, %bb9.us.i.i.i.i ], [ %_11.i.i.i.i, %bb4.i.i.i.i ]
  %iter.sroa.0.0.idx11.us.i.i.i.i = phi i64 [ %iter.sroa.0.0.add.us.i.i.i.i, %bb9.us.i.i.i.i ], [ 0, %bb4.i.i.i.i ]
  call void @llvm.dbg.value(metadata ptr undef, metadata !1063, metadata !DIExpression()), !dbg !2693
  call void @llvm.dbg.value(metadata i64 1, metadata !1069, metadata !DIExpression()), !dbg !2693
  call void @llvm.dbg.value(metadata i64 1, metadata !1080, metadata !DIExpression()), !dbg !2695
  call void @llvm.dbg.value(metadata ptr %iter.sroa.0.0.ptr12.us.i.i.i.i, metadata !1070, metadata !DIExpression()), !dbg !2697
  call void @llvm.dbg.value(metadata ptr undef, metadata !1075, metadata !DIExpression(DW_OP_plus_uconst, 8, DW_OP_stack_value)), !dbg !2698
  call void @llvm.dbg.value(metadata ptr %iter.sroa.0.0.ptr12.us.i.i.i.i, metadata !1087, metadata !DIExpression()), !dbg !2695
  %iter.sroa.0.0.add.us.i.i.i.i = add nuw nsw i64 %iter.sroa.0.0.idx11.us.i.i.i.i, 8, !dbg !2699
  call void @llvm.dbg.value(metadata !DIArgList(ptr %_11.i.i.i.i, i64 %iter.sroa.0.0.add.us.i.i.i.i), metadata !2558, metadata !DIExpression(DW_OP_LLVM_arg, 0, DW_OP_LLVM_arg, 1, DW_OP_constu, 1, DW_OP_mul, DW_OP_plus, DW_OP_stack_value, DW_OP_LLVM_fragment, 0, 64)), !dbg !2681
  call void @llvm.dbg.value(metadata ptr %iter.sroa.0.0.ptr12.us.i.i.i.i, metadata !2560, metadata !DIExpression()), !dbg !2700
  call void @llvm.dbg.value(metadata ptr undef, metadata !2471, metadata !DIExpression()), !dbg !2701
  call void @llvm.dbg.value(metadata i64 %n.sroa.0.0.i.i.i.i, metadata !2474, metadata !DIExpression()), !dbg !2701
  call void @llvm.dbg.declare(metadata ptr %start1.i63.i.i.i.i, metadata !2475, metadata !DIExpression()), !dbg !2702
  call void @llvm.dbg.declare(metadata ptr undef, metadata !2482, metadata !DIExpression()), !dbg !2703
  call void @llvm.dbg.declare(metadata ptr undef, metadata !2488, metadata !DIExpression()), !dbg !2705
  call void @llvm.lifetime.start.p0(i64 16, ptr nonnull %start1.i63.i.i.i.i), !dbg !2707, !noalias !2633
; call std::time::Instant::now
  %27 = call { i64, i32 } @_ZN3std4time7Instant3now17hdd57daf13a49b9b5E(), !dbg !2708, !noalias !2633
  %28 = extractvalue { i64, i32 } %27, 0, !dbg !2708
  %29 = extractvalue { i64, i32 } %27, 1, !dbg !2708
  store i64 %28, ptr %start1.i63.i.i.i.i, align 8, !dbg !2708, !noalias !2633
  store i32 %29, ptr %18, align 8, !dbg !2708, !noalias !2633
  call void @llvm.dbg.value(metadata i64 0, metadata !2477, metadata !DIExpression(DW_OP_LLVM_fragment, 0, 64)), !dbg !2709
  call void @llvm.dbg.value(metadata i64 %n.sroa.0.0.i.i.i.i, metadata !2477, metadata !DIExpression(DW_OP_LLVM_fragment, 64, 64)), !dbg !2709
  call void @llvm.dbg.value(metadata ptr undef, metadata !2498, metadata !DIExpression()), !dbg !2710
  call void @llvm.dbg.value(metadata ptr undef, metadata !2504, metadata !DIExpression()), !dbg !2711
  call void @llvm.dbg.value(metadata ptr undef, metadata !2512, metadata !DIExpression()), !dbg !2712
  call void @llvm.dbg.value(metadata ptr poison, metadata !2516, metadata !DIExpression()), !dbg !2712
; call std::time::Instant::elapsed
  %30 = call { i64, i32 } @_ZN3std4time7Instant7elapsed17hee9bf90f3e35a175E(ptr noalias noundef nonnull readonly align 8 dereferenceable(16) %start1.i63.i.i.i.i), !dbg !2714, !noalias !2633
  %31 = extractvalue { i64, i32 } %30, 0, !dbg !2714
  %32 = extractvalue { i64, i32 } %30, 1, !dbg !2714
  call void @llvm.dbg.value(metadata ptr undef, metadata !2533, metadata !DIExpression()), !dbg !2715
  %_20.i68.us.i.i.i.i = mul i64 %31, 1000000000, !dbg !2717
  %_23.i69.us.i.i.i.i = zext i32 %32 to i64, !dbg !2718
  %_9.i70.us.i.i.i.i = add i64 %_20.i68.us.i.i.i.i, %_23.i69.us.i.i.i.i, !dbg !2717
  call void @llvm.lifetime.end.p0(i64 16, ptr nonnull %start1.i63.i.i.i.i), !dbg !2719, !noalias !2633
  %_19.us.i.i.i.i = uitofp i64 %_9.i70.us.i.i.i.i to double, !dbg !2720
  %33 = fdiv double %_19.us.i.i.i.i, %_22.i.i.i.i, !dbg !2721
  store double %33, ptr %iter.sroa.0.0.ptr12.us.i.i.i.i, align 8, !dbg !2721, !noalias !2633
  %iter.sroa.0.0.ptr.us.i.i.i.i = getelementptr inbounds i8, ptr %_11.i.i.i.i, i64 %iter.sroa.0.0.add.us.i.i.i.i, !dbg !2722
  call void @llvm.dbg.value(metadata ptr %iter.sroa.0.0.ptr.us.i.i.i.i, metadata !2558, metadata !DIExpression(DW_OP_LLVM_fragment, 0, 64)), !dbg !2681
  call void @llvm.dbg.value(metadata ptr undef, metadata !1012, metadata !DIExpression()), !dbg !2682
  call void @llvm.dbg.value(metadata ptr undef, metadata !1037, metadata !DIExpression()), !dbg !2684
  call void @llvm.dbg.value(metadata ptr %_11.i.i.i.i, metadata !1033, metadata !DIExpression(DW_OP_plus_uconst, 400, DW_OP_stack_value)), !dbg !2686
  call void @llvm.dbg.value(metadata ptr undef, metadata !1047, metadata !DIExpression()), !dbg !2687
  call void @llvm.dbg.value(metadata ptr undef, metadata !1056, metadata !DIExpression()), !dbg !2687
  %34 = icmp eq i64 %iter.sroa.0.0.add.us.i.i.i.i, 400, !dbg !2722
  call void @__unsafe_record_block(i32 7, i32 22, i32 0, i16 0, i16 0, i16 0, i16 0, i16 0, i16 0), !dbg !2723
  br i1 %34, label %bb10.i.i.i.i, label %bb9.us.i.i.i.i, !dbg !2723

bb10.i.i.i.i:                                     ; preds = %_ZN4test5bench13ns_iter_inner17hdfb5cfb018afa8c4E.exit71.loopexit.i.i.i.i, %bb9.us.i.i.i.i
  call void @llvm.dbg.value(metadata ptr poison, metadata !2558, metadata !DIExpression(DW_OP_LLVM_fragment, 0, 64)), !dbg !2681
; call test::stats::winsorize
  call void @_ZN4test5stats9winsorize17hcba48655fae00e38E(ptr noalias noundef nonnull align 8 %_11.i.i.i.i, i64 noundef 50, double noundef 5.000000e+00), !dbg !2724, !noalias !2633
  call void @llvm.lifetime.start.p0(i64 112, ptr nonnull %summ.i.i.i.i), !dbg !2725, !noalias !2633
; call test::stats::Summary::new
  call void @_ZN4test5stats7Summary3new17he2db34ca48eb410fE(ptr noalias nocapture noundef nonnull sret([112 x i8]) align 8 dereferenceable(112) %summ.i.i.i.i, ptr noalias noundef nonnull readonly align 8 %_11.i.i.i.i, i64 noundef 50), !dbg !2726, !noalias !2633
  call void @llvm.dbg.value(metadata ptr %_11.i.i.i.i, metadata !2564, metadata !DIExpression(DW_OP_LLVM_fragment, 0, 64)), !dbg !2727
  call void @llvm.dbg.value(metadata ptr %_11.i.i.i.i, metadata !2564, metadata !DIExpression(DW_OP_plus_uconst, 400, DW_OP_stack_value, DW_OP_LLVM_fragment, 64, 64)), !dbg !2727
  %_34.i.i.i.i = mul i64 %n.sroa.0.0.i.i.i.i, 5
  call void @llvm.dbg.value(metadata ptr %_11.i.i.i.i, metadata !2564, metadata !DIExpression(DW_OP_LLVM_fragment, 0, 64)), !dbg !2727
  call void @llvm.dbg.value(metadata ptr undef, metadata !1012, metadata !DIExpression()), !dbg !2728
  call void @llvm.dbg.value(metadata ptr undef, metadata !1037, metadata !DIExpression()), !dbg !2730
  call void @llvm.dbg.value(metadata ptr %_11.i.i.i.i, metadata !1033, metadata !DIExpression(DW_OP_plus_uconst, 400, DW_OP_stack_value)), !dbg !2732
  call void @llvm.dbg.value(metadata ptr undef, metadata !1047, metadata !DIExpression()), !dbg !2733
  call void @llvm.dbg.value(metadata ptr undef, metadata !1056, metadata !DIExpression()), !dbg !2733
  %_37.i.i.i.i = uitofp i64 %_34.i.i.i.i to double
  call void @__unsafe_record_block(i32 7, i32 6, i32 0, i16 0, i16 0, i16 0, i16 0, i16 0, i16 0), !dbg !2735
  br i1 %_131.not.i.i.i.i.i, label %bb16.us.i.i.i.i, label %bb16.i.i.i.i, !dbg !2735

bb16.us.i.i.i.i:                                  ; preds = %bb10.i.i.i.i, %bb16.us.i.i.i.i
  %iter5.sroa.0.0.ptr14.us.i.i.i.i = phi ptr [ %iter5.sroa.0.0.ptr.us.i.i.i.i, %bb16.us.i.i.i.i ], [ %_11.i.i.i.i, %bb10.i.i.i.i ]
  %iter5.sroa.0.0.idx13.us.i.i.i.i = phi i64 [ %iter5.sroa.0.0.add.us.i.i.i.i, %bb16.us.i.i.i.i ], [ 0, %bb10.i.i.i.i ]
  call void @llvm.dbg.value(metadata ptr undef, metadata !1063, metadata !DIExpression()), !dbg !2739
  call void @llvm.dbg.value(metadata i64 1, metadata !1069, metadata !DIExpression()), !dbg !2739
  call void @llvm.dbg.value(metadata i64 1, metadata !1080, metadata !DIExpression()), !dbg !2741
  call void @llvm.dbg.value(metadata ptr %iter5.sroa.0.0.ptr14.us.i.i.i.i, metadata !1070, metadata !DIExpression()), !dbg !2743
  call void @llvm.dbg.value(metadata ptr undef, metadata !1075, metadata !DIExpression(DW_OP_plus_uconst, 8, DW_OP_stack_value)), !dbg !2744
  call void @llvm.dbg.value(metadata ptr %iter5.sroa.0.0.ptr14.us.i.i.i.i, metadata !1087, metadata !DIExpression()), !dbg !2741
  %iter5.sroa.0.0.add.us.i.i.i.i = add nuw nsw i64 %iter5.sroa.0.0.idx13.us.i.i.i.i, 8, !dbg !2745
  call void @llvm.dbg.value(metadata !DIArgList(ptr %_11.i.i.i.i, i64 %iter5.sroa.0.0.add.us.i.i.i.i), metadata !2564, metadata !DIExpression(DW_OP_LLVM_arg, 0, DW_OP_LLVM_arg, 1, DW_OP_constu, 1, DW_OP_mul, DW_OP_plus, DW_OP_stack_value, DW_OP_LLVM_fragment, 0, 64)), !dbg !2727
  call void @llvm.dbg.value(metadata ptr %iter5.sroa.0.0.ptr14.us.i.i.i.i, metadata !2566, metadata !DIExpression()), !dbg !2746
  call void @llvm.dbg.value(metadata ptr undef, metadata !2471, metadata !DIExpression()), !dbg !2747
  call void @llvm.dbg.value(metadata i64 %_34.i.i.i.i, metadata !2474, metadata !DIExpression()), !dbg !2747
  call void @llvm.dbg.declare(metadata ptr %start1.i79.i.i.i.i, metadata !2475, metadata !DIExpression()), !dbg !2748
  call void @llvm.dbg.declare(metadata ptr undef, metadata !2482, metadata !DIExpression()), !dbg !2749
  call void @llvm.dbg.declare(metadata ptr undef, metadata !2488, metadata !DIExpression()), !dbg !2751
  call void @llvm.lifetime.start.p0(i64 16, ptr nonnull %start1.i79.i.i.i.i), !dbg !2753, !noalias !2633
; call std::time::Instant::now
  %35 = call { i64, i32 } @_ZN3std4time7Instant3now17hdd57daf13a49b9b5E(), !dbg !2754, !noalias !2633
  %36 = extractvalue { i64, i32 } %35, 0, !dbg !2754
  %37 = extractvalue { i64, i32 } %35, 1, !dbg !2754
  store i64 %36, ptr %start1.i79.i.i.i.i, align 8, !dbg !2754, !noalias !2633
  store i32 %37, ptr %19, align 8, !dbg !2754, !noalias !2633
  call void @llvm.dbg.value(metadata i64 0, metadata !2477, metadata !DIExpression(DW_OP_LLVM_fragment, 0, 64)), !dbg !2755
  call void @llvm.dbg.value(metadata i64 %_34.i.i.i.i, metadata !2477, metadata !DIExpression(DW_OP_LLVM_fragment, 64, 64)), !dbg !2755
  call void @llvm.dbg.value(metadata ptr undef, metadata !2498, metadata !DIExpression()), !dbg !2756
  call void @llvm.dbg.value(metadata ptr undef, metadata !2504, metadata !DIExpression()), !dbg !2757
  call void @llvm.dbg.value(metadata ptr undef, metadata !2512, metadata !DIExpression()), !dbg !2758
  call void @llvm.dbg.value(metadata ptr poison, metadata !2516, metadata !DIExpression()), !dbg !2758
; call std::time::Instant::elapsed
  %38 = call { i64, i32 } @_ZN3std4time7Instant7elapsed17hee9bf90f3e35a175E(ptr noalias noundef nonnull readonly align 8 dereferenceable(16) %start1.i79.i.i.i.i), !dbg !2760, !noalias !2633
  %39 = extractvalue { i64, i32 } %38, 0, !dbg !2760
  %40 = extractvalue { i64, i32 } %38, 1, !dbg !2760
  call void @llvm.dbg.value(metadata ptr undef, metadata !2533, metadata !DIExpression()), !dbg !2761
  %_20.i85.us.i.i.i.i = mul i64 %39, 1000000000, !dbg !2763
  %_23.i86.us.i.i.i.i = zext i32 %40 to i64, !dbg !2764
  %_9.i87.us.i.i.i.i = add i64 %_20.i85.us.i.i.i.i, %_23.i86.us.i.i.i.i, !dbg !2763
  call void @llvm.lifetime.end.p0(i64 16, ptr nonnull %start1.i79.i.i.i.i), !dbg !2765, !noalias !2633
  call void @llvm.dbg.value(metadata i64 %_9.i87.us.i.i.i.i, metadata !2568, metadata !DIExpression()), !dbg !2766
  %_36.us.i.i.i.i = uitofp i64 %_9.i87.us.i.i.i.i to double, !dbg !2767
  %41 = fdiv double %_36.us.i.i.i.i, %_37.i.i.i.i, !dbg !2768
  store double %41, ptr %iter5.sroa.0.0.ptr14.us.i.i.i.i, align 8, !dbg !2768, !noalias !2633
  %iter5.sroa.0.0.ptr.us.i.i.i.i = getelementptr inbounds i8, ptr %_11.i.i.i.i, i64 %iter5.sroa.0.0.add.us.i.i.i.i, !dbg !2769
  call void @llvm.dbg.value(metadata ptr %iter5.sroa.0.0.ptr.us.i.i.i.i, metadata !2564, metadata !DIExpression(DW_OP_LLVM_fragment, 0, 64)), !dbg !2727
  call void @llvm.dbg.value(metadata ptr undef, metadata !1012, metadata !DIExpression()), !dbg !2728
  call void @llvm.dbg.value(metadata ptr undef, metadata !1037, metadata !DIExpression()), !dbg !2730
